ARM GAS  C:\Users\brian\AppData\Local\Temp\ccnwyBSL.s 			page 1


   1              		.syntax unified
   2              		.cpu cortex-m3
   3              		.fpu softvfp
   4              		.eabi_attribute 20, 1
   5              		.eabi_attribute 21, 1
   6              		.eabi_attribute 23, 3
   7              		.eabi_attribute 24, 1
   8              		.eabi_attribute 25, 1
   9              		.eabi_attribute 26, 1
  10              		.eabi_attribute 30, 1
  11              		.eabi_attribute 34, 1
  12              		.eabi_attribute 18, 4
  13              		.thumb
  14              		.syntax unified
  15              		.file	"cyfitter_cfg.c"
  16              		.text
  17              	.Ltext0:
  18              		.cfi_sections	.debug_frame
  19              		.section	.text.CyClockStartupError,"ax",%progbits
  20              		.align	2
  21              		.thumb
  22              		.thumb_func
  23              		.type	CyClockStartupError, %function
  24              	CyClockStartupError:
  25              	.LFB3:
  26              		.file 1 "Generated_Source\\PSoC5\\cyfitter_cfg.c"
   1:Generated_Source\PSoC5/cyfitter_cfg.c **** 
   2:Generated_Source\PSoC5/cyfitter_cfg.c **** /*******************************************************************************
   3:Generated_Source\PSoC5/cyfitter_cfg.c **** * File Name: cyfitter_cfg.c
   4:Generated_Source\PSoC5/cyfitter_cfg.c **** * 
   5:Generated_Source\PSoC5/cyfitter_cfg.c **** * PSoC Creator  4.4
   6:Generated_Source\PSoC5/cyfitter_cfg.c **** *
   7:Generated_Source\PSoC5/cyfitter_cfg.c **** * Description:
   8:Generated_Source\PSoC5/cyfitter_cfg.c **** * This file contains device initialization code.
   9:Generated_Source\PSoC5/cyfitter_cfg.c **** * Except for the user defined sections in CyClockStartupError(), this file should not be modified.
  10:Generated_Source\PSoC5/cyfitter_cfg.c **** * This file is automatically generated by PSoC Creator.
  11:Generated_Source\PSoC5/cyfitter_cfg.c **** *
  12:Generated_Source\PSoC5/cyfitter_cfg.c **** ********************************************************************************
  13:Generated_Source\PSoC5/cyfitter_cfg.c **** * Copyright (c) 2007-2020 Cypress Semiconductor.  All rights reserved.
  14:Generated_Source\PSoC5/cyfitter_cfg.c **** * You may use this file only in accordance with the license, terms, conditions, 
  15:Generated_Source\PSoC5/cyfitter_cfg.c **** * disclaimers, and limitations in the end user license agreement accompanying 
  16:Generated_Source\PSoC5/cyfitter_cfg.c **** * the software package with which this file was provided.
  17:Generated_Source\PSoC5/cyfitter_cfg.c **** ********************************************************************************/
  18:Generated_Source\PSoC5/cyfitter_cfg.c **** 
  19:Generated_Source\PSoC5/cyfitter_cfg.c **** #include <string.h>
  20:Generated_Source\PSoC5/cyfitter_cfg.c **** #include "cytypes.h"
  21:Generated_Source\PSoC5/cyfitter_cfg.c **** #include "cydevice_trm.h"
  22:Generated_Source\PSoC5/cyfitter_cfg.c **** #include "cyfitter.h"
  23:Generated_Source\PSoC5/cyfitter_cfg.c **** #include "CyLib.h"
  24:Generated_Source\PSoC5/cyfitter_cfg.c **** #include "cyfitter_cfg.h"
  25:Generated_Source\PSoC5/cyfitter_cfg.c **** #include "cyapicallbacks.h"
  26:Generated_Source\PSoC5/cyfitter_cfg.c **** 
  27:Generated_Source\PSoC5/cyfitter_cfg.c **** #define CY_NEED_CYCLOCKSTARTUPERROR 1
  28:Generated_Source\PSoC5/cyfitter_cfg.c **** 
  29:Generated_Source\PSoC5/cyfitter_cfg.c **** 
  30:Generated_Source\PSoC5/cyfitter_cfg.c **** #if defined(__GNUC__) || defined(__ARMCC_VERSION)
  31:Generated_Source\PSoC5/cyfitter_cfg.c ****     #define CYPACKED 
ARM GAS  C:\Users\brian\AppData\Local\Temp\ccnwyBSL.s 			page 2


  32:Generated_Source\PSoC5/cyfitter_cfg.c ****     #define CYPACKED_ATTR __attribute__ ((packed))
  33:Generated_Source\PSoC5/cyfitter_cfg.c ****     #define CYALIGNED __attribute__ ((aligned))
  34:Generated_Source\PSoC5/cyfitter_cfg.c ****     #define CY_CFG_UNUSED __attribute__ ((unused))
  35:Generated_Source\PSoC5/cyfitter_cfg.c ****     #ifndef CY_CFG_SECTION
  36:Generated_Source\PSoC5/cyfitter_cfg.c ****         #define CY_CFG_SECTION __attribute__ ((section(".psocinit")))
  37:Generated_Source\PSoC5/cyfitter_cfg.c ****     #endif
  38:Generated_Source\PSoC5/cyfitter_cfg.c ****     
  39:Generated_Source\PSoC5/cyfitter_cfg.c ****     #if defined(__ARMCC_VERSION)
  40:Generated_Source\PSoC5/cyfitter_cfg.c ****         #define CY_CFG_MEMORY_BARRIER() __memory_changed()
  41:Generated_Source\PSoC5/cyfitter_cfg.c ****     #else
  42:Generated_Source\PSoC5/cyfitter_cfg.c ****         #define CY_CFG_MEMORY_BARRIER() __sync_synchronize()
  43:Generated_Source\PSoC5/cyfitter_cfg.c ****     #endif
  44:Generated_Source\PSoC5/cyfitter_cfg.c ****     
  45:Generated_Source\PSoC5/cyfitter_cfg.c **** #elif defined(__ICCARM__)
  46:Generated_Source\PSoC5/cyfitter_cfg.c ****     #include <intrinsics.h>
  47:Generated_Source\PSoC5/cyfitter_cfg.c **** 
  48:Generated_Source\PSoC5/cyfitter_cfg.c ****     #define CYPACKED __packed
  49:Generated_Source\PSoC5/cyfitter_cfg.c ****     #define CYPACKED_ATTR 
  50:Generated_Source\PSoC5/cyfitter_cfg.c ****     #define CYALIGNED _Pragma("data_alignment=4")
  51:Generated_Source\PSoC5/cyfitter_cfg.c ****     #define CY_CFG_UNUSED _Pragma("diag_suppress=Pe177")
  52:Generated_Source\PSoC5/cyfitter_cfg.c ****     #define CY_CFG_SECTION _Pragma("location=\".psocinit\"")
  53:Generated_Source\PSoC5/cyfitter_cfg.c ****     
  54:Generated_Source\PSoC5/cyfitter_cfg.c ****     #define CY_CFG_MEMORY_BARRIER() __DMB()
  55:Generated_Source\PSoC5/cyfitter_cfg.c ****     
  56:Generated_Source\PSoC5/cyfitter_cfg.c **** #else
  57:Generated_Source\PSoC5/cyfitter_cfg.c ****     #error Unsupported toolchain
  58:Generated_Source\PSoC5/cyfitter_cfg.c **** #endif
  59:Generated_Source\PSoC5/cyfitter_cfg.c **** 
  60:Generated_Source\PSoC5/cyfitter_cfg.c **** #ifndef CYCODE
  61:Generated_Source\PSoC5/cyfitter_cfg.c ****     #define CYCODE
  62:Generated_Source\PSoC5/cyfitter_cfg.c **** #endif
  63:Generated_Source\PSoC5/cyfitter_cfg.c **** #ifndef CYDATA
  64:Generated_Source\PSoC5/cyfitter_cfg.c ****     #define CYDATA
  65:Generated_Source\PSoC5/cyfitter_cfg.c **** #endif
  66:Generated_Source\PSoC5/cyfitter_cfg.c **** #ifndef CYFAR
  67:Generated_Source\PSoC5/cyfitter_cfg.c ****     #define CYFAR
  68:Generated_Source\PSoC5/cyfitter_cfg.c **** #endif
  69:Generated_Source\PSoC5/cyfitter_cfg.c **** #ifndef CYXDATA
  70:Generated_Source\PSoC5/cyfitter_cfg.c ****     #define CYXDATA
  71:Generated_Source\PSoC5/cyfitter_cfg.c **** #endif
  72:Generated_Source\PSoC5/cyfitter_cfg.c **** 
  73:Generated_Source\PSoC5/cyfitter_cfg.c **** 
  74:Generated_Source\PSoC5/cyfitter_cfg.c **** CY_CFG_UNUSED
  75:Generated_Source\PSoC5/cyfitter_cfg.c **** static void CYMEMZERO(void *s, size_t n);
  76:Generated_Source\PSoC5/cyfitter_cfg.c **** CY_CFG_UNUSED
  77:Generated_Source\PSoC5/cyfitter_cfg.c **** static void CYMEMZERO(void *s, size_t n)
  78:Generated_Source\PSoC5/cyfitter_cfg.c **** {
  79:Generated_Source\PSoC5/cyfitter_cfg.c **** 	(void)memset(s, 0, n);
  80:Generated_Source\PSoC5/cyfitter_cfg.c **** }
  81:Generated_Source\PSoC5/cyfitter_cfg.c **** CY_CFG_UNUSED
  82:Generated_Source\PSoC5/cyfitter_cfg.c **** static void CYCONFIGCPY(void *dest, const void *src, size_t n);
  83:Generated_Source\PSoC5/cyfitter_cfg.c **** CY_CFG_UNUSED
  84:Generated_Source\PSoC5/cyfitter_cfg.c **** static void CYCONFIGCPY(void *dest, const void *src, size_t n)
  85:Generated_Source\PSoC5/cyfitter_cfg.c **** {
  86:Generated_Source\PSoC5/cyfitter_cfg.c **** 	(void)memcpy(dest, src, n);
  87:Generated_Source\PSoC5/cyfitter_cfg.c **** }
  88:Generated_Source\PSoC5/cyfitter_cfg.c **** CY_CFG_UNUSED
ARM GAS  C:\Users\brian\AppData\Local\Temp\ccnwyBSL.s 			page 3


  89:Generated_Source\PSoC5/cyfitter_cfg.c **** static void CYCONFIGCPYCODE(void *dest, const void *src, size_t n);
  90:Generated_Source\PSoC5/cyfitter_cfg.c **** CY_CFG_UNUSED
  91:Generated_Source\PSoC5/cyfitter_cfg.c **** static void CYCONFIGCPYCODE(void *dest, const void *src, size_t n)
  92:Generated_Source\PSoC5/cyfitter_cfg.c **** {
  93:Generated_Source\PSoC5/cyfitter_cfg.c **** 	(void)memcpy(dest, src, n);
  94:Generated_Source\PSoC5/cyfitter_cfg.c **** }
  95:Generated_Source\PSoC5/cyfitter_cfg.c **** 
  96:Generated_Source\PSoC5/cyfitter_cfg.c **** 
  97:Generated_Source\PSoC5/cyfitter_cfg.c **** 
  98:Generated_Source\PSoC5/cyfitter_cfg.c **** 
  99:Generated_Source\PSoC5/cyfitter_cfg.c **** /* Clock startup error codes                                                   */
 100:Generated_Source\PSoC5/cyfitter_cfg.c **** #define CYCLOCKSTART_NO_ERROR    0u
 101:Generated_Source\PSoC5/cyfitter_cfg.c **** #define CYCLOCKSTART_XTAL_ERROR  1u
 102:Generated_Source\PSoC5/cyfitter_cfg.c **** #define CYCLOCKSTART_32KHZ_ERROR 2u
 103:Generated_Source\PSoC5/cyfitter_cfg.c **** #define CYCLOCKSTART_PLL_ERROR   3u
 104:Generated_Source\PSoC5/cyfitter_cfg.c **** #define CYCLOCKSTART_FLL_ERROR   4u
 105:Generated_Source\PSoC5/cyfitter_cfg.c **** #define CYCLOCKSTART_WCO_ERROR   5u
 106:Generated_Source\PSoC5/cyfitter_cfg.c **** 
 107:Generated_Source\PSoC5/cyfitter_cfg.c **** 
 108:Generated_Source\PSoC5/cyfitter_cfg.c **** #ifdef CY_NEED_CYCLOCKSTARTUPERROR
 109:Generated_Source\PSoC5/cyfitter_cfg.c **** /*******************************************************************************
 110:Generated_Source\PSoC5/cyfitter_cfg.c **** * Function Name: CyClockStartupError
 111:Generated_Source\PSoC5/cyfitter_cfg.c **** ********************************************************************************
 112:Generated_Source\PSoC5/cyfitter_cfg.c **** * Summary:
 113:Generated_Source\PSoC5/cyfitter_cfg.c **** *  If an error is encountered during clock configuration (crystal startup error,
 114:Generated_Source\PSoC5/cyfitter_cfg.c **** *  PLL lock error, etc.), the system will end up here.  Unless reimplemented by
 115:Generated_Source\PSoC5/cyfitter_cfg.c **** *  the customer, this function will stop in an infinite loop.
 116:Generated_Source\PSoC5/cyfitter_cfg.c **** *
 117:Generated_Source\PSoC5/cyfitter_cfg.c **** * Parameters:
 118:Generated_Source\PSoC5/cyfitter_cfg.c **** *   void
 119:Generated_Source\PSoC5/cyfitter_cfg.c **** *
 120:Generated_Source\PSoC5/cyfitter_cfg.c **** * Return:
 121:Generated_Source\PSoC5/cyfitter_cfg.c **** *   void
 122:Generated_Source\PSoC5/cyfitter_cfg.c **** *
 123:Generated_Source\PSoC5/cyfitter_cfg.c **** *******************************************************************************/
 124:Generated_Source\PSoC5/cyfitter_cfg.c **** CY_CFG_UNUSED
 125:Generated_Source\PSoC5/cyfitter_cfg.c **** static void CyClockStartupError(uint8 errorCode);
 126:Generated_Source\PSoC5/cyfitter_cfg.c **** CY_CFG_UNUSED
 127:Generated_Source\PSoC5/cyfitter_cfg.c **** static void CyClockStartupError(uint8 errorCode)
 128:Generated_Source\PSoC5/cyfitter_cfg.c **** {
  27              		.loc 1 128 0
  28              		.cfi_startproc
  29              		@ Volatile: function does not return.
  30              		@ args = 0, pretend = 0, frame = 0
  31              		@ frame_needed = 0, uses_anonymous_args = 0
  32              		@ link register save eliminated.
  33              	.LVL0:
  34              	.L2:
  35 0000 FEE7     		b	.L2
  36              		.cfi_endproc
  37              	.LFE3:
  38              		.size	CyClockStartupError, .-CyClockStartupError
  39 0002 00BF     		.section	.text.cfg_write_bytes32,"ax",%progbits
  40              		.align	2
  41              		.thumb
  42              		.thumb_func
  43              		.type	cfg_write_bytes32, %function
ARM GAS  C:\Users\brian\AppData\Local\Temp\ccnwyBSL.s 			page 4


  44              	cfg_write_bytes32:
  45              	.LFB4:
 129:Generated_Source\PSoC5/cyfitter_cfg.c ****     /* To remove the compiler warning if errorCode not used.                */
 130:Generated_Source\PSoC5/cyfitter_cfg.c ****     errorCode = errorCode;
 131:Generated_Source\PSoC5/cyfitter_cfg.c **** 
 132:Generated_Source\PSoC5/cyfitter_cfg.c ****     /* If we have a clock startup error (bad MHz crystal, PLL lock, etc.),  */
 133:Generated_Source\PSoC5/cyfitter_cfg.c ****     /* we will end up here to allow the customer to implement something to  */
 134:Generated_Source\PSoC5/cyfitter_cfg.c ****     /* deal with the clock condition.                                       */
 135:Generated_Source\PSoC5/cyfitter_cfg.c **** 
 136:Generated_Source\PSoC5/cyfitter_cfg.c **** #ifdef CY_CFG_CLOCK_STARTUP_ERROR_CALLBACK
 137:Generated_Source\PSoC5/cyfitter_cfg.c ****     CY_CFG_Clock_Startup_ErrorCallback();
 138:Generated_Source\PSoC5/cyfitter_cfg.c **** #else
 139:Generated_Source\PSoC5/cyfitter_cfg.c ****     /*  If not using CY_CFG_CLOCK_STARTUP_ERROR_CALLBACK, place your clock startup code here. */
 140:Generated_Source\PSoC5/cyfitter_cfg.c ****     /* `#START CyClockStartupError` */
 141:Generated_Source\PSoC5/cyfitter_cfg.c **** 
 142:Generated_Source\PSoC5/cyfitter_cfg.c **** 
 143:Generated_Source\PSoC5/cyfitter_cfg.c **** 
 144:Generated_Source\PSoC5/cyfitter_cfg.c ****     /* `#END` */
 145:Generated_Source\PSoC5/cyfitter_cfg.c **** 
 146:Generated_Source\PSoC5/cyfitter_cfg.c ****     while(1) {}
 147:Generated_Source\PSoC5/cyfitter_cfg.c **** #endif /* CY_CFG_CLOCK_STARTUP_ERROR_CALLBACK */
 148:Generated_Source\PSoC5/cyfitter_cfg.c **** }
 149:Generated_Source\PSoC5/cyfitter_cfg.c **** #endif
 150:Generated_Source\PSoC5/cyfitter_cfg.c **** 
 151:Generated_Source\PSoC5/cyfitter_cfg.c **** #define CY_CFG_BASE_ADDR_COUNT 29u
 152:Generated_Source\PSoC5/cyfitter_cfg.c **** CYPACKED typedef struct
 153:Generated_Source\PSoC5/cyfitter_cfg.c **** {
 154:Generated_Source\PSoC5/cyfitter_cfg.c **** 	uint8 offset;
 155:Generated_Source\PSoC5/cyfitter_cfg.c **** 	uint8 value;
 156:Generated_Source\PSoC5/cyfitter_cfg.c **** } CYPACKED_ATTR cy_cfg_addrvalue_t;
 157:Generated_Source\PSoC5/cyfitter_cfg.c **** 
 158:Generated_Source\PSoC5/cyfitter_cfg.c **** #define cy_cfg_addr_table ((const uint32 CYFAR *)0x48000000u)
 159:Generated_Source\PSoC5/cyfitter_cfg.c **** #define cy_cfg_data_table ((const cy_cfg_addrvalue_t CYFAR *)0x48000074u)
 160:Generated_Source\PSoC5/cyfitter_cfg.c **** 
 161:Generated_Source\PSoC5/cyfitter_cfg.c **** /* IOPORT_7 Address: CYDEV_PRTDSI_PRT12_BASE Size (bytes): 6 */
 162:Generated_Source\PSoC5/cyfitter_cfg.c **** #define BS_IOPORT_7_VAL ((const uint8 CYFAR *)0x48000334u)
 163:Generated_Source\PSoC5/cyfitter_cfg.c **** 
 164:Generated_Source\PSoC5/cyfitter_cfg.c **** /* IOPINS0_7 Address: CYREG_PRT12_DR Size (bytes): 10 */
 165:Generated_Source\PSoC5/cyfitter_cfg.c **** #define BS_IOPINS0_7_VAL ((const uint8 CYFAR *)0x4800033Cu)
 166:Generated_Source\PSoC5/cyfitter_cfg.c **** 
 167:Generated_Source\PSoC5/cyfitter_cfg.c **** /* IOPINS0_1 Address: CYREG_PRT1_DM0 Size (bytes): 8 */
 168:Generated_Source\PSoC5/cyfitter_cfg.c **** #define BS_IOPINS0_1_VAL ((const uint8 CYFAR *)0x48000348u)
 169:Generated_Source\PSoC5/cyfitter_cfg.c **** 
 170:Generated_Source\PSoC5/cyfitter_cfg.c **** /* IOPINS0_2 Address: CYREG_PRT2_DM0 Size (bytes): 8 */
 171:Generated_Source\PSoC5/cyfitter_cfg.c **** #define BS_IOPINS0_2_VAL ((const uint8 CYFAR *)0x48000350u)
 172:Generated_Source\PSoC5/cyfitter_cfg.c **** 
 173:Generated_Source\PSoC5/cyfitter_cfg.c **** /* CYDEV_CLKDIST_ACFG0_CFG0 Address: CYREG_CLKDIST_ACFG0_CFG0 Size (bytes): 4 */
 174:Generated_Source\PSoC5/cyfitter_cfg.c **** #define BS_CYDEV_CLKDIST_ACFG0_CFG0_VAL ((const uint8 CYFAR *)0x48000358u)
 175:Generated_Source\PSoC5/cyfitter_cfg.c **** 
 176:Generated_Source\PSoC5/cyfitter_cfg.c **** 
 177:Generated_Source\PSoC5/cyfitter_cfg.c **** /*******************************************************************************
 178:Generated_Source\PSoC5/cyfitter_cfg.c **** * Function Name: cfg_write_bytes32
 179:Generated_Source\PSoC5/cyfitter_cfg.c **** ********************************************************************************
 180:Generated_Source\PSoC5/cyfitter_cfg.c **** * Summary:
 181:Generated_Source\PSoC5/cyfitter_cfg.c **** *  This function is used for setting up the chip configuration areas that
 182:Generated_Source\PSoC5/cyfitter_cfg.c **** *  contain relatively sparse data.
 183:Generated_Source\PSoC5/cyfitter_cfg.c **** *
ARM GAS  C:\Users\brian\AppData\Local\Temp\ccnwyBSL.s 			page 5


 184:Generated_Source\PSoC5/cyfitter_cfg.c **** * Parameters:
 185:Generated_Source\PSoC5/cyfitter_cfg.c **** *   void
 186:Generated_Source\PSoC5/cyfitter_cfg.c **** *
 187:Generated_Source\PSoC5/cyfitter_cfg.c **** * Return:
 188:Generated_Source\PSoC5/cyfitter_cfg.c **** *   void
 189:Generated_Source\PSoC5/cyfitter_cfg.c **** *
 190:Generated_Source\PSoC5/cyfitter_cfg.c **** *******************************************************************************/
 191:Generated_Source\PSoC5/cyfitter_cfg.c **** static void cfg_write_bytes32(const uint32 addr_table[], const cy_cfg_addrvalue_t data_table[]);
 192:Generated_Source\PSoC5/cyfitter_cfg.c **** static void cfg_write_bytes32(const uint32 addr_table[], const cy_cfg_addrvalue_t data_table[])
 193:Generated_Source\PSoC5/cyfitter_cfg.c **** {
  46              		.loc 1 193 0
  47              		.cfi_startproc
  48              		@ args = 0, pretend = 0, frame = 0
  49              		@ frame_needed = 0, uses_anonymous_args = 0
  50              		@ link register save eliminated.
  51              	.LVL1:
  52              		.loc 1 193 0
  53 0000 F0B4     		push	{r4, r5, r6, r7}
  54              		.cfi_def_cfa_offset 16
  55              		.cfi_offset 4, -16
  56              		.cfi_offset 5, -12
  57              		.cfi_offset 6, -8
  58              		.cfi_offset 7, -4
  59              	.LVL2:
 194:Generated_Source\PSoC5/cyfitter_cfg.c **** 	/* For 32-bit little-endian architectures */
 195:Generated_Source\PSoC5/cyfitter_cfg.c **** 	uint32 i, j = 0u;
  60              		.loc 1 195 0
  61 0002 0022     		movs	r2, #0
 196:Generated_Source\PSoC5/cyfitter_cfg.c **** 	for (i = 0u; i < CY_CFG_BASE_ADDR_COUNT; i++)
  62              		.loc 1 196 0
  63 0004 1746     		mov	r7, r2
  64 0006 11E0     		b	.L4
  65              	.LVL3:
  66              	.L7:
  67              	.LBB2:
 197:Generated_Source\PSoC5/cyfitter_cfg.c **** 	{
 198:Generated_Source\PSoC5/cyfitter_cfg.c **** 		uint32 baseAddr = addr_table[i];
  68              		.loc 1 198 0
  69 0008 50F82760 		ldr	r6, [r0, r7, lsl #2]
  70              	.LVL4:
 199:Generated_Source\PSoC5/cyfitter_cfg.c **** 		uint8 count = (uint8)baseAddr;
  71              		.loc 1 199 0
  72 000c F3B2     		uxtb	r3, r6
  73              	.LVL5:
 200:Generated_Source\PSoC5/cyfitter_cfg.c **** 		baseAddr &= 0xFFFFFF00u;
  74              		.loc 1 200 0
  75 000e 26F0FF06 		bic	r6, r6, #255
  76              	.LVL6:
 201:Generated_Source\PSoC5/cyfitter_cfg.c **** 		while (count != 0u)
  77              		.loc 1 201 0
  78 0012 08E0     		b	.L5
  79              	.L6:
 202:Generated_Source\PSoC5/cyfitter_cfg.c **** 		{
 203:Generated_Source\PSoC5/cyfitter_cfg.c **** 			CY_SET_REG8((void *)(baseAddr + data_table[j].offset), data_table[j].value);
  80              		.loc 1 203 0
  81 0014 01EB4205 		add	r5, r1, r2, lsl #1
  82 0018 11F81240 		ldrb	r4, [r1, r2, lsl #1]	@ zero_extendqisi2
ARM GAS  C:\Users\brian\AppData\Local\Temp\ccnwyBSL.s 			page 6


  83 001c 6D78     		ldrb	r5, [r5, #1]	@ zero_extendqisi2
  84 001e A555     		strb	r5, [r4, r6]
 204:Generated_Source\PSoC5/cyfitter_cfg.c **** 			j++;
  85              		.loc 1 204 0
  86 0020 0132     		adds	r2, r2, #1
  87              	.LVL7:
 205:Generated_Source\PSoC5/cyfitter_cfg.c **** 			count--;
  88              		.loc 1 205 0
  89 0022 013B     		subs	r3, r3, #1
  90              	.LVL8:
  91 0024 DBB2     		uxtb	r3, r3
  92              	.LVL9:
  93              	.L5:
 201:Generated_Source\PSoC5/cyfitter_cfg.c **** 		{
  94              		.loc 1 201 0
  95 0026 002B     		cmp	r3, #0
  96 0028 F4D1     		bne	.L6
  97              	.LBE2:
 196:Generated_Source\PSoC5/cyfitter_cfg.c **** 	{
  98              		.loc 1 196 0 discriminator 2
  99 002a 0137     		adds	r7, r7, #1
 100              	.LVL10:
 101              	.L4:
 196:Generated_Source\PSoC5/cyfitter_cfg.c **** 	{
 102              		.loc 1 196 0 is_stmt 0 discriminator 1
 103 002c 1C2F     		cmp	r7, #28
 104 002e EBD9     		bls	.L7
 206:Generated_Source\PSoC5/cyfitter_cfg.c **** 		}
 207:Generated_Source\PSoC5/cyfitter_cfg.c **** 	}
 208:Generated_Source\PSoC5/cyfitter_cfg.c **** }
 105              		.loc 1 208 0 is_stmt 1
 106 0030 F0BC     		pop	{r4, r5, r6, r7}
 107              		.cfi_restore 7
 108              		.cfi_restore 6
 109              		.cfi_restore 5
 110              		.cfi_restore 4
 111              		.cfi_def_cfa_offset 0
 112              	.LVL11:
 113 0032 7047     		bx	lr
 114              		.cfi_endproc
 115              	.LFE4:
 116              		.size	cfg_write_bytes32, .-cfg_write_bytes32
 117              		.section	.text.CYMEMZERO,"ax",%progbits
 118              		.align	2
 119              		.thumb
 120              		.thumb_func
 121              		.type	CYMEMZERO, %function
 122              	CYMEMZERO:
 123              	.LFB0:
  78:Generated_Source\PSoC5/cyfitter_cfg.c **** 	(void)memset(s, 0, n);
 124              		.loc 1 78 0
 125              		.cfi_startproc
 126              		@ args = 0, pretend = 0, frame = 0
 127              		@ frame_needed = 0, uses_anonymous_args = 0
 128              	.LVL12:
 129 0000 08B5     		push	{r3, lr}
 130              		.cfi_def_cfa_offset 8
ARM GAS  C:\Users\brian\AppData\Local\Temp\ccnwyBSL.s 			page 7


 131              		.cfi_offset 3, -8
 132              		.cfi_offset 14, -4
  79:Generated_Source\PSoC5/cyfitter_cfg.c **** }
 133              		.loc 1 79 0
 134 0002 0A46     		mov	r2, r1
 135 0004 0021     		movs	r1, #0
 136              	.LVL13:
 137 0006 FFF7FEFF 		bl	memset
 138              	.LVL14:
 139 000a 08BD     		pop	{r3, pc}
 140              		.cfi_endproc
 141              	.LFE0:
 142              		.size	CYMEMZERO, .-CYMEMZERO
 143              		.section	.text.AnalogSetDefault,"ax",%progbits
 144              		.align	2
 145              		.thumb
 146              		.thumb_func
 147              		.type	AnalogSetDefault, %function
 148              	AnalogSetDefault:
 149              	.LFB6:
 209:Generated_Source\PSoC5/cyfitter_cfg.c **** 
 210:Generated_Source\PSoC5/cyfitter_cfg.c **** /*******************************************************************************
 211:Generated_Source\PSoC5/cyfitter_cfg.c **** * Function Name: ClockSetup
 212:Generated_Source\PSoC5/cyfitter_cfg.c **** ********************************************************************************
 213:Generated_Source\PSoC5/cyfitter_cfg.c **** *
 214:Generated_Source\PSoC5/cyfitter_cfg.c **** * Summary:
 215:Generated_Source\PSoC5/cyfitter_cfg.c **** *  Performs the initialization of all of the clocks in the device based on the
 216:Generated_Source\PSoC5/cyfitter_cfg.c **** *  settings in the Clock tab of the DWR.  This includes enabling the requested
 217:Generated_Source\PSoC5/cyfitter_cfg.c **** *  clocks and setting the necessary dividers to produce the desired frequency. 
 218:Generated_Source\PSoC5/cyfitter_cfg.c **** *
 219:Generated_Source\PSoC5/cyfitter_cfg.c **** * Parameters:
 220:Generated_Source\PSoC5/cyfitter_cfg.c **** *  void
 221:Generated_Source\PSoC5/cyfitter_cfg.c **** *
 222:Generated_Source\PSoC5/cyfitter_cfg.c **** * Return:
 223:Generated_Source\PSoC5/cyfitter_cfg.c **** *  void
 224:Generated_Source\PSoC5/cyfitter_cfg.c **** *
 225:Generated_Source\PSoC5/cyfitter_cfg.c **** *******************************************************************************/
 226:Generated_Source\PSoC5/cyfitter_cfg.c **** static void ClockSetup(void);
 227:Generated_Source\PSoC5/cyfitter_cfg.c **** static void ClockSetup(void)
 228:Generated_Source\PSoC5/cyfitter_cfg.c **** {
 229:Generated_Source\PSoC5/cyfitter_cfg.c **** 	uint32 timeout;
 230:Generated_Source\PSoC5/cyfitter_cfg.c **** 	uint8 pllLock;
 231:Generated_Source\PSoC5/cyfitter_cfg.c **** 
 232:Generated_Source\PSoC5/cyfitter_cfg.c **** 
 233:Generated_Source\PSoC5/cyfitter_cfg.c **** 	/* Configure Digital Clocks based on settings from Clock DWR */
 234:Generated_Source\PSoC5/cyfitter_cfg.c **** 	CY_SET_XTND_REG16((void CYFAR *)(CYREG_CLKDIST_DCFG0_CFG0), 0x0001u);
 235:Generated_Source\PSoC5/cyfitter_cfg.c **** 	CY_SET_XTND_REG8((void CYFAR *)(CYREG_CLKDIST_DCFG0_CFG0 + 0x2u), 0x18u);
 236:Generated_Source\PSoC5/cyfitter_cfg.c **** 	CY_SET_XTND_REG16((void CYFAR *)(CYREG_CLKDIST_DCFG1_CFG0), 0x0001u);
 237:Generated_Source\PSoC5/cyfitter_cfg.c **** 	CY_SET_XTND_REG8((void CYFAR *)(CYREG_CLKDIST_DCFG1_CFG0 + 0x2u), 0x18u);
 238:Generated_Source\PSoC5/cyfitter_cfg.c **** 	CY_SET_XTND_REG16((void CYFAR *)(CYREG_CLKDIST_DCFG2_CFG0), 0xB32Au);
 239:Generated_Source\PSoC5/cyfitter_cfg.c **** 	CY_SET_XTND_REG8((void CYFAR *)(CYREG_CLKDIST_DCFG2_CFG0 + 0x2u), 0x18u);
 240:Generated_Source\PSoC5/cyfitter_cfg.c **** 
 241:Generated_Source\PSoC5/cyfitter_cfg.c **** 	/* Configure Analog Clocks based on settings from Clock DWR */
 242:Generated_Source\PSoC5/cyfitter_cfg.c **** 	CYCONFIGCPY((void CYFAR *)(CYREG_CLKDIST_ACFG0_CFG0), (const void CYFAR *)(BS_CYDEV_CLKDIST_ACFG0_
 243:Generated_Source\PSoC5/cyfitter_cfg.c **** 
 244:Generated_Source\PSoC5/cyfitter_cfg.c **** 	/* Configure ILO based on settings from Clock DWR */
 245:Generated_Source\PSoC5/cyfitter_cfg.c **** 	CY_SET_XTND_REG8((void CYFAR *)(CYREG_SLOWCLK_ILO_CR0), 0x02u);
ARM GAS  C:\Users\brian\AppData\Local\Temp\ccnwyBSL.s 			page 8


 246:Generated_Source\PSoC5/cyfitter_cfg.c **** 	CY_SET_XTND_REG8((void CYFAR *)(CYREG_CLKDIST_CR), 0x08u);
 247:Generated_Source\PSoC5/cyfitter_cfg.c **** 
 248:Generated_Source\PSoC5/cyfitter_cfg.c **** 	/* Configure IMO based on settings from Clock DWR */
 249:Generated_Source\PSoC5/cyfitter_cfg.c **** 	CY_SET_XTND_REG8((void CYFAR *)(CYREG_FASTCLK_IMO_CR), 0x03u);
 250:Generated_Source\PSoC5/cyfitter_cfg.c **** 	CY_SET_XTND_REG8((void CYFAR *)(CYREG_IMO_TR1), (CY_GET_XTND_REG8((void CYFAR *)CYREG_FLSHID_CUST_
 251:Generated_Source\PSoC5/cyfitter_cfg.c **** 
 252:Generated_Source\PSoC5/cyfitter_cfg.c **** 	/* Configure PLL based on settings from Clock DWR */
 253:Generated_Source\PSoC5/cyfitter_cfg.c **** 	CY_SET_XTND_REG16((void CYFAR *)(CYREG_FASTCLK_PLL_P), 0x0008u);
 254:Generated_Source\PSoC5/cyfitter_cfg.c **** 	CY_SET_XTND_REG16((void CYFAR *)(CYREG_FASTCLK_PLL_CFG0), 0x1251u);
 255:Generated_Source\PSoC5/cyfitter_cfg.c **** 	/* Wait up to 250us for the PLL to lock */
 256:Generated_Source\PSoC5/cyfitter_cfg.c **** 	pllLock = 0u;
 257:Generated_Source\PSoC5/cyfitter_cfg.c **** 	for (timeout = 250u / 10u; (timeout > 0u) && (pllLock != 0x03u); timeout--)
 258:Generated_Source\PSoC5/cyfitter_cfg.c **** 	{ 
 259:Generated_Source\PSoC5/cyfitter_cfg.c **** 		pllLock = 0x03u & ((uint8)((uint8)pllLock << 1) | ((CY_GET_XTND_REG8((void CYFAR *)CYREG_FASTCLK_
 260:Generated_Source\PSoC5/cyfitter_cfg.c **** 		CyDelayCycles(10u * 48u); /* Delay 10us based on 48MHz clock */
 261:Generated_Source\PSoC5/cyfitter_cfg.c **** 	}
 262:Generated_Source\PSoC5/cyfitter_cfg.c **** 	/* If we ran out of time the PLL didn't lock so go to the error function */
 263:Generated_Source\PSoC5/cyfitter_cfg.c **** 	if (timeout == 0u)
 264:Generated_Source\PSoC5/cyfitter_cfg.c **** 	{
 265:Generated_Source\PSoC5/cyfitter_cfg.c **** 		CyClockStartupError(CYCLOCKSTART_PLL_ERROR);
 266:Generated_Source\PSoC5/cyfitter_cfg.c **** 	}
 267:Generated_Source\PSoC5/cyfitter_cfg.c **** 
 268:Generated_Source\PSoC5/cyfitter_cfg.c **** 	/* Configure Bus/Master Clock based on settings from Clock DWR */
 269:Generated_Source\PSoC5/cyfitter_cfg.c **** 	CY_SET_XTND_REG16((void CYFAR *)(CYREG_CLKDIST_MSTR0), 0x0100u);
 270:Generated_Source\PSoC5/cyfitter_cfg.c **** 	CY_SET_XTND_REG8((void CYFAR *)(CYREG_CLKDIST_MSTR0), 0x07u);
 271:Generated_Source\PSoC5/cyfitter_cfg.c **** 	CY_SET_XTND_REG8((void CYFAR *)(CYREG_CLKDIST_BCFG0), 0x00u);
 272:Generated_Source\PSoC5/cyfitter_cfg.c **** 	CY_SET_XTND_REG8((void CYFAR *)(CYREG_CLKDIST_BCFG2), 0x48u);
 273:Generated_Source\PSoC5/cyfitter_cfg.c **** 	CY_SET_XTND_REG8((void CYFAR *)(CYREG_CLKDIST_MSTR0), 0x00u);
 274:Generated_Source\PSoC5/cyfitter_cfg.c **** 	CY_SET_XTND_REG8((void CYFAR *)(CYREG_CLKDIST_LD), 0x02u);
 275:Generated_Source\PSoC5/cyfitter_cfg.c **** 	CY_SET_XTND_REG8((void CYFAR *)(CYREG_CLKDIST_DLY1), 0x04u);
 276:Generated_Source\PSoC5/cyfitter_cfg.c **** 
 277:Generated_Source\PSoC5/cyfitter_cfg.c **** 	CY_SET_XTND_REG8((void CYFAR *)(CYREG_PM_ACT_CFG2), ((CY_GET_XTND_REG8((void CYFAR *)CYREG_PM_ACT_
 278:Generated_Source\PSoC5/cyfitter_cfg.c **** 	CY_SET_XTND_REG8((void CYFAR *)(CYREG_PM_ACT_CFG1), ((CY_GET_XTND_REG8((void CYFAR *)CYREG_PM_ACT_
 279:Generated_Source\PSoC5/cyfitter_cfg.c **** 	CY_SET_XTND_REG8((void CYFAR *)(CYREG_PM_ACT_CFG0), ((CY_GET_XTND_REG8((void CYFAR *)CYREG_PM_ACT_
 280:Generated_Source\PSoC5/cyfitter_cfg.c **** }
 281:Generated_Source\PSoC5/cyfitter_cfg.c **** 
 282:Generated_Source\PSoC5/cyfitter_cfg.c **** 
 283:Generated_Source\PSoC5/cyfitter_cfg.c **** /* Analog API Functions */
 284:Generated_Source\PSoC5/cyfitter_cfg.c **** 
 285:Generated_Source\PSoC5/cyfitter_cfg.c **** 
 286:Generated_Source\PSoC5/cyfitter_cfg.c **** /*******************************************************************************
 287:Generated_Source\PSoC5/cyfitter_cfg.c **** * Function Name: AnalogSetDefault
 288:Generated_Source\PSoC5/cyfitter_cfg.c **** ********************************************************************************
 289:Generated_Source\PSoC5/cyfitter_cfg.c **** *
 290:Generated_Source\PSoC5/cyfitter_cfg.c **** * Summary:
 291:Generated_Source\PSoC5/cyfitter_cfg.c **** *  Sets up the analog portions of the chip to default values based on chip
 292:Generated_Source\PSoC5/cyfitter_cfg.c **** *  configuration options from the project.
 293:Generated_Source\PSoC5/cyfitter_cfg.c **** *
 294:Generated_Source\PSoC5/cyfitter_cfg.c **** * Parameters:
 295:Generated_Source\PSoC5/cyfitter_cfg.c **** *  void
 296:Generated_Source\PSoC5/cyfitter_cfg.c **** *
 297:Generated_Source\PSoC5/cyfitter_cfg.c **** * Return:
 298:Generated_Source\PSoC5/cyfitter_cfg.c **** *  void
 299:Generated_Source\PSoC5/cyfitter_cfg.c **** *
 300:Generated_Source\PSoC5/cyfitter_cfg.c **** *******************************************************************************/
 301:Generated_Source\PSoC5/cyfitter_cfg.c **** static void AnalogSetDefault(void);
 302:Generated_Source\PSoC5/cyfitter_cfg.c **** static void AnalogSetDefault(void)
ARM GAS  C:\Users\brian\AppData\Local\Temp\ccnwyBSL.s 			page 9


 303:Generated_Source\PSoC5/cyfitter_cfg.c **** {
 150              		.loc 1 303 0
 151              		.cfi_startproc
 152              		@ args = 0, pretend = 0, frame = 0
 153              		@ frame_needed = 0, uses_anonymous_args = 0
 154 0000 F8B5     		push	{r3, r4, r5, r6, r7, lr}
 155              		.cfi_def_cfa_offset 24
 156              		.cfi_offset 3, -24
 157              		.cfi_offset 4, -20
 158              		.cfi_offset 5, -16
 159              		.cfi_offset 6, -12
 160              		.cfi_offset 7, -8
 161              		.cfi_offset 14, -4
 304:Generated_Source\PSoC5/cyfitter_cfg.c **** 	uint8 bg_xover_inl_trim = CY_GET_XTND_REG8((void CYFAR *)(CYREG_FLSHID_MFG_CFG_BG_XOVER_INL_TRIM +
 162              		.loc 1 304 0
 163 0002 164B     		ldr	r3, .L13
 164 0004 1B78     		ldrb	r3, [r3]	@ zero_extendqisi2
 165 0006 DBB2     		uxtb	r3, r3
 166              	.LVL15:
 305:Generated_Source\PSoC5/cyfitter_cfg.c **** 	uint8 cr4 = CY_GET_XTND_REG8((void CYFAR *)(CYREG_RESET_CR4));
 167              		.loc 1 305 0
 168 0008 154E     		ldr	r6, .L13+4
 169 000a 3478     		ldrb	r4, [r6]	@ zero_extendqisi2
 170 000c E4B2     		uxtb	r4, r4
 171              	.LVL16:
 306:Generated_Source\PSoC5/cyfitter_cfg.c **** 	uint8 cr5 = CY_GET_XTND_REG8((void CYFAR *)(CYREG_RESET_CR5));
 172              		.loc 1 306 0
 173 000e 154F     		ldr	r7, .L13+8
 174 0010 3D78     		ldrb	r5, [r7]	@ zero_extendqisi2
 175 0012 EDB2     		uxtb	r5, r5
 176              	.LVL17:
 307:Generated_Source\PSoC5/cyfitter_cfg.c **** 	CY_SET_XTND_REG8((void CYFAR *)(CYREG_BG_DFT0), (bg_xover_inl_trim & 0x07u));
 177              		.loc 1 307 0
 178 0014 03F00701 		and	r1, r3, #7
 179 0018 134A     		ldr	r2, .L13+12
 180 001a 1170     		strb	r1, [r2]
 308:Generated_Source\PSoC5/cyfitter_cfg.c **** 	CY_SET_XTND_REG8((void CYFAR *)(CYREG_BG_DFT1), ((bg_xover_inl_trim >> 4) & 0x0Fu));
 181              		.loc 1 308 0
 182 001c 1B09     		lsrs	r3, r3, #4
 183              	.LVL18:
 184 001e 0132     		adds	r2, r2, #1
 185 0020 1370     		strb	r3, [r2]
 309:Generated_Source\PSoC5/cyfitter_cfg.c **** 	/* Disable PRES while setting up SAR voltage reference */
 310:Generated_Source\PSoC5/cyfitter_cfg.c **** 	CY_SET_XTND_REG8((void CYFAR *)(CYREG_RESET_CR4), (cr4 | 0x03u));
 186              		.loc 1 310 0
 187 0022 44F00303 		orr	r3, r4, #3
 188 0026 3370     		strb	r3, [r6]
 311:Generated_Source\PSoC5/cyfitter_cfg.c **** 	CY_SET_XTND_REG8((void CYFAR *)(CYREG_RESET_CR5), (cr5 | 0x03u));
 189              		.loc 1 311 0
 190 0028 45F00303 		orr	r3, r5, #3
 191 002c 3B70     		strb	r3, [r7]
 312:Generated_Source\PSoC5/cyfitter_cfg.c **** 	CY_SET_XTND_REG8((void CYFAR *)CYREG_PRT2_AG, 0x10u);
 192              		.loc 1 312 0
 193 002e 1022     		movs	r2, #16
 194 0030 0E4B     		ldr	r3, .L13+16
 195 0032 1A70     		strb	r2, [r3]
 313:Generated_Source\PSoC5/cyfitter_cfg.c **** 	CY_SET_XTND_REG8((void CYFAR *)CYREG_SAR0_CSR1, 0x40u);
ARM GAS  C:\Users\brian\AppData\Local\Temp\ccnwyBSL.s 			page 10


 196              		.loc 1 313 0
 197 0034 4023     		movs	r3, #64
 198 0036 0E4A     		ldr	r2, .L13+20
 199 0038 1370     		strb	r3, [r2]
 314:Generated_Source\PSoC5/cyfitter_cfg.c **** 	CY_SET_XTND_REG8((void CYFAR *)CYREG_SAR0_CSR3, 0x40u);
 200              		.loc 1 314 0
 201 003a 0232     		adds	r2, r2, #2
 202 003c 1370     		strb	r3, [r2]
 315:Generated_Source\PSoC5/cyfitter_cfg.c **** 	CY_SET_XTND_REG8((void CYFAR *)CYREG_SAR0_SW0, 0x01u);
 203              		.loc 1 315 0
 204 003e 0122     		movs	r2, #1
 205 0040 0C4B     		ldr	r3, .L13+24
 206 0042 1A70     		strb	r2, [r3]
 316:Generated_Source\PSoC5/cyfitter_cfg.c **** 	CY_SET_XTND_REG8((void CYFAR *)CYREG_SAR0_SW3, 0x20u);
 207              		.loc 1 316 0
 208 0044 2022     		movs	r2, #32
 209 0046 0333     		adds	r3, r3, #3
 210 0048 1A70     		strb	r2, [r3]
 317:Generated_Source\PSoC5/cyfitter_cfg.c **** 	CyDelayUs(10u); /* Allow vref to settle before re-enabling PRES */
 211              		.loc 1 317 0
 212 004a 0A20     		movs	r0, #10
 213 004c FFF7FEFF 		bl	CyDelayUs
 214              	.LVL19:
 318:Generated_Source\PSoC5/cyfitter_cfg.c **** 	CY_SET_XTND_REG8((void CYFAR *)(CYREG_RESET_CR5), (cr5));
 215              		.loc 1 318 0
 216 0050 3D70     		strb	r5, [r7]
 319:Generated_Source\PSoC5/cyfitter_cfg.c **** 	CY_SET_XTND_REG8((void CYFAR *)(CYREG_RESET_CR4), (cr4));
 217              		.loc 1 319 0
 218 0052 3470     		strb	r4, [r6]
 320:Generated_Source\PSoC5/cyfitter_cfg.c **** 	CY_SET_XTND_REG8((void CYFAR *)CYREG_PUMP_CR0, 0x44u);
 219              		.loc 1 320 0
 220 0054 4422     		movs	r2, #68
 221 0056 084B     		ldr	r3, .L13+28
 222 0058 1A70     		strb	r2, [r3]
 223 005a F8BD     		pop	{r3, r4, r5, r6, r7, pc}
 224              	.LVL20:
 225              	.L14:
 226              		.align	2
 227              	.L13:
 228 005c CF010049 		.word	1224737231
 229 0060 F8460040 		.word	1073759992
 230 0064 F9460040 		.word	1073759993
 231 0068 6E580040 		.word	1073764462
 232 006c 2D510040 		.word	1073762605
 233 0070 01590040 		.word	1073764609
 234 0074 205B0040 		.word	1073765152
 235 0078 76580040 		.word	1073764470
 236              		.cfi_endproc
 237              	.LFE6:
 238              		.size	AnalogSetDefault, .-AnalogSetDefault
 239              		.section	.text.CYCONFIGCPY,"ax",%progbits
 240              		.align	2
 241              		.thumb
 242              		.thumb_func
 243              		.type	CYCONFIGCPY, %function
 244              	CYCONFIGCPY:
 245              	.LFB1:
ARM GAS  C:\Users\brian\AppData\Local\Temp\ccnwyBSL.s 			page 11


  85:Generated_Source\PSoC5/cyfitter_cfg.c **** 	(void)memcpy(dest, src, n);
 246              		.loc 1 85 0
 247              		.cfi_startproc
 248              		@ args = 0, pretend = 0, frame = 0
 249              		@ frame_needed = 0, uses_anonymous_args = 0
 250              	.LVL21:
 251 0000 08B5     		push	{r3, lr}
 252              		.cfi_def_cfa_offset 8
 253              		.cfi_offset 3, -8
 254              		.cfi_offset 14, -4
  86:Generated_Source\PSoC5/cyfitter_cfg.c **** }
 255              		.loc 1 86 0
 256 0002 FFF7FEFF 		bl	memcpy
 257              	.LVL22:
 258 0006 08BD     		pop	{r3, pc}
 259              		.cfi_endproc
 260              	.LFE1:
 261              		.size	CYCONFIGCPY, .-CYCONFIGCPY
 262              		.section	.text.ClockSetup,"ax",%progbits
 263              		.align	2
 264              		.thumb
 265              		.thumb_func
 266              		.type	ClockSetup, %function
 267              	ClockSetup:
 268              	.LFB5:
 228:Generated_Source\PSoC5/cyfitter_cfg.c **** 	uint32 timeout;
 269              		.loc 1 228 0
 270              		.cfi_startproc
 271              		@ args = 0, pretend = 0, frame = 0
 272              		@ frame_needed = 0, uses_anonymous_args = 0
 273 0000 38B5     		push	{r3, r4, r5, lr}
 274              		.cfi_def_cfa_offset 16
 275              		.cfi_offset 3, -16
 276              		.cfi_offset 4, -12
 277              		.cfi_offset 5, -8
 278              		.cfi_offset 14, -4
 234:Generated_Source\PSoC5/cyfitter_cfg.c **** 	CY_SET_XTND_REG8((void CYFAR *)(CYREG_CLKDIST_DCFG0_CFG0 + 0x2u), 0x18u);
 279              		.loc 1 234 0
 280 0002 0122     		movs	r2, #1
 281 0004 314B     		ldr	r3, .L23
 282 0006 1A80     		strh	r2, [r3]	@ movhi
 235:Generated_Source\PSoC5/cyfitter_cfg.c **** 	CY_SET_XTND_REG16((void CYFAR *)(CYREG_CLKDIST_DCFG1_CFG0), 0x0001u);
 283              		.loc 1 235 0
 284 0008 1823     		movs	r3, #24
 285 000a 3149     		ldr	r1, .L23+4
 286 000c 0B70     		strb	r3, [r1]
 236:Generated_Source\PSoC5/cyfitter_cfg.c **** 	CY_SET_XTND_REG8((void CYFAR *)(CYREG_CLKDIST_DCFG1_CFG0 + 0x2u), 0x18u);
 287              		.loc 1 236 0
 288 000e 0231     		adds	r1, r1, #2
 289 0010 0A80     		strh	r2, [r1]	@ movhi
 237:Generated_Source\PSoC5/cyfitter_cfg.c **** 	CY_SET_XTND_REG16((void CYFAR *)(CYREG_CLKDIST_DCFG2_CFG0), 0xB32Au);
 290              		.loc 1 237 0
 291 0012 304A     		ldr	r2, .L23+8
 292 0014 1370     		strb	r3, [r2]
 238:Generated_Source\PSoC5/cyfitter_cfg.c **** 	CY_SET_XTND_REG8((void CYFAR *)(CYREG_CLKDIST_DCFG2_CFG0 + 0x2u), 0x18u);
 293              		.loc 1 238 0
 294 0016 4BF22A31 		movw	r1, #45866
ARM GAS  C:\Users\brian\AppData\Local\Temp\ccnwyBSL.s 			page 12


 295 001a 0232     		adds	r2, r2, #2
 296 001c 1180     		strh	r1, [r2]	@ movhi
 239:Generated_Source\PSoC5/cyfitter_cfg.c **** 
 297              		.loc 1 239 0
 298 001e 0232     		adds	r2, r2, #2
 299 0020 1370     		strb	r3, [r2]
 242:Generated_Source\PSoC5/cyfitter_cfg.c **** 
 300              		.loc 1 242 0
 301 0022 0422     		movs	r2, #4
 302 0024 2C49     		ldr	r1, .L23+12
 303 0026 2D48     		ldr	r0, .L23+16
 304 0028 FFF7FEFF 		bl	CYCONFIGCPY
 305              	.LVL23:
 245:Generated_Source\PSoC5/cyfitter_cfg.c **** 	CY_SET_XTND_REG8((void CYFAR *)(CYREG_CLKDIST_CR), 0x08u);
 306              		.loc 1 245 0
 307 002c 0222     		movs	r2, #2
 308 002e 2C4B     		ldr	r3, .L23+20
 309 0030 1A70     		strb	r2, [r3]
 246:Generated_Source\PSoC5/cyfitter_cfg.c **** 
 310              		.loc 1 246 0
 311 0032 0822     		movs	r2, #8
 312 0034 4FF04023 		mov	r3, #1073758208
 313 0038 1A70     		strb	r2, [r3]
 249:Generated_Source\PSoC5/cyfitter_cfg.c **** 	CY_SET_XTND_REG8((void CYFAR *)(CYREG_IMO_TR1), (CY_GET_XTND_REG8((void CYFAR *)CYREG_FLSHID_CUST_
 314              		.loc 1 249 0
 315 003a 0321     		movs	r1, #3
 316 003c 03F50073 		add	r3, r3, #512
 317 0040 1970     		strb	r1, [r3]
 250:Generated_Source\PSoC5/cyfitter_cfg.c **** 
 318              		.loc 1 250 0
 319 0042 284B     		ldr	r3, .L23+24
 320 0044 1B78     		ldrb	r3, [r3]	@ zero_extendqisi2
 321 0046 DBB2     		uxtb	r3, r3
 322 0048 2749     		ldr	r1, .L23+28
 323 004a 0B70     		strb	r3, [r1]
 253:Generated_Source\PSoC5/cyfitter_cfg.c **** 	CY_SET_XTND_REG16((void CYFAR *)(CYREG_FASTCLK_PLL_CFG0), 0x1251u);
 324              		.loc 1 253 0
 325 004c 274B     		ldr	r3, .L23+32
 326 004e 1A80     		strh	r2, [r3]	@ movhi
 254:Generated_Source\PSoC5/cyfitter_cfg.c **** 	/* Wait up to 250us for the PLL to lock */
 327              		.loc 1 254 0
 328 0050 41F25122 		movw	r2, #4689
 329 0054 023B     		subs	r3, r3, #2
 330 0056 1A80     		strh	r2, [r3]	@ movhi
 331              	.LVL24:
 256:Generated_Source\PSoC5/cyfitter_cfg.c **** 	for (timeout = 250u / 10u; (timeout > 0u) && (pllLock != 0x03u); timeout--)
 332              		.loc 1 256 0
 333 0058 0024     		movs	r4, #0
 257:Generated_Source\PSoC5/cyfitter_cfg.c **** 	{ 
 334              		.loc 1 257 0
 335 005a 1925     		movs	r5, #25
 336 005c 0CE0     		b	.L18
 337              	.LVL25:
 338              	.L20:
 259:Generated_Source\PSoC5/cyfitter_cfg.c **** 		CyDelayCycles(10u * 48u); /* Delay 10us based on 48MHz clock */
 339              		.loc 1 259 0 discriminator 4
 340 005e 244B     		ldr	r3, .L23+36
ARM GAS  C:\Users\brian\AppData\Local\Temp\ccnwyBSL.s 			page 13


 341 0060 1B78     		ldrb	r3, [r3]	@ zero_extendqisi2
 342 0062 03F00103 		and	r3, r3, #1
 343 0066 43EA4404 		orr	r4, r3, r4, lsl #1
 344              	.LVL26:
 345 006a 04F00304 		and	r4, r4, #3
 346              	.LVL27:
 260:Generated_Source\PSoC5/cyfitter_cfg.c **** 	}
 347              		.loc 1 260 0 discriminator 4
 348 006e 4FF4F070 		mov	r0, #480
 349 0072 FFF7FEFF 		bl	CyDelayCycles
 350              	.LVL28:
 257:Generated_Source\PSoC5/cyfitter_cfg.c **** 	{ 
 351              		.loc 1 257 0 discriminator 4
 352 0076 013D     		subs	r5, r5, #1
 353              	.LVL29:
 354              	.L18:
 257:Generated_Source\PSoC5/cyfitter_cfg.c **** 	{ 
 355              		.loc 1 257 0 is_stmt 0 discriminator 1
 356 0078 0DB1     		cbz	r5, .L19
 257:Generated_Source\PSoC5/cyfitter_cfg.c **** 	{ 
 357              		.loc 1 257 0 discriminator 3
 358 007a 032C     		cmp	r4, #3
 359 007c EFD1     		bne	.L20
 360              	.L19:
 263:Generated_Source\PSoC5/cyfitter_cfg.c **** 	{
 361              		.loc 1 263 0 is_stmt 1
 362 007e 15B9     		cbnz	r5, .L21
 265:Generated_Source\PSoC5/cyfitter_cfg.c **** 	}
 363              		.loc 1 265 0
 364 0080 0320     		movs	r0, #3
 365 0082 FFF7FEFF 		bl	CyClockStartupError
 366              	.LVL30:
 367              	.L21:
 269:Generated_Source\PSoC5/cyfitter_cfg.c **** 	CY_SET_XTND_REG8((void CYFAR *)(CYREG_CLKDIST_MSTR0), 0x07u);
 368              		.loc 1 269 0
 369 0086 1B4B     		ldr	r3, .L23+40
 370 0088 4FF48072 		mov	r2, #256
 371 008c 1A80     		strh	r2, [r3]	@ movhi
 270:Generated_Source\PSoC5/cyfitter_cfg.c **** 	CY_SET_XTND_REG8((void CYFAR *)(CYREG_CLKDIST_BCFG0), 0x00u);
 372              		.loc 1 270 0
 373 008e 0722     		movs	r2, #7
 374 0090 1A70     		strb	r2, [r3]
 271:Generated_Source\PSoC5/cyfitter_cfg.c **** 	CY_SET_XTND_REG8((void CYFAR *)(CYREG_CLKDIST_BCFG2), 0x48u);
 375              		.loc 1 271 0
 376 0092 0022     		movs	r2, #0
 377 0094 1849     		ldr	r1, .L23+44
 378 0096 0A70     		strb	r2, [r1]
 272:Generated_Source\PSoC5/cyfitter_cfg.c **** 	CY_SET_XTND_REG8((void CYFAR *)(CYREG_CLKDIST_MSTR0), 0x00u);
 379              		.loc 1 272 0
 380 0098 4820     		movs	r0, #72
 381 009a 0231     		adds	r1, r1, #2
 382 009c 0870     		strb	r0, [r1]
 273:Generated_Source\PSoC5/cyfitter_cfg.c **** 	CY_SET_XTND_REG8((void CYFAR *)(CYREG_CLKDIST_LD), 0x02u);
 383              		.loc 1 273 0
 384 009e 1A70     		strb	r2, [r3]
 274:Generated_Source\PSoC5/cyfitter_cfg.c **** 	CY_SET_XTND_REG8((void CYFAR *)(CYREG_CLKDIST_DLY1), 0x04u);
 385              		.loc 1 274 0
ARM GAS  C:\Users\brian\AppData\Local\Temp\ccnwyBSL.s 			page 14


 386 00a0 0222     		movs	r2, #2
 387 00a2 033B     		subs	r3, r3, #3
 388 00a4 1A70     		strb	r2, [r3]
 275:Generated_Source\PSoC5/cyfitter_cfg.c **** 
 389              		.loc 1 275 0
 390 00a6 0422     		movs	r2, #4
 391 00a8 0A33     		adds	r3, r3, #10
 392 00aa 1A70     		strb	r2, [r3]
 277:Generated_Source\PSoC5/cyfitter_cfg.c **** 	CY_SET_XTND_REG8((void CYFAR *)(CYREG_PM_ACT_CFG1), ((CY_GET_XTND_REG8((void CYFAR *)CYREG_PM_ACT_
 393              		.loc 1 277 0
 394 00ac 134A     		ldr	r2, .L23+48
 395 00ae 1378     		ldrb	r3, [r2]	@ zero_extendqisi2
 396 00b0 43F00703 		orr	r3, r3, #7
 397 00b4 1370     		strb	r3, [r2]
 278:Generated_Source\PSoC5/cyfitter_cfg.c **** 	CY_SET_XTND_REG8((void CYFAR *)(CYREG_PM_ACT_CFG0), ((CY_GET_XTND_REG8((void CYFAR *)CYREG_PM_ACT_
 398              		.loc 1 278 0
 399 00b6 013A     		subs	r2, r2, #1
 400 00b8 1378     		ldrb	r3, [r2]	@ zero_extendqisi2
 401 00ba 43F00103 		orr	r3, r3, #1
 402 00be 1370     		strb	r3, [r2]
 279:Generated_Source\PSoC5/cyfitter_cfg.c **** }
 403              		.loc 1 279 0
 404 00c0 013A     		subs	r2, r2, #1
 405 00c2 1378     		ldrb	r3, [r2]	@ zero_extendqisi2
 406 00c4 43F08003 		orr	r3, r3, #128
 407 00c8 1370     		strb	r3, [r2]
 408 00ca 38BD     		pop	{r3, r4, r5, pc}
 409              	.LVL31:
 410              	.L24:
 411              		.align	2
 412              	.L23:
 413 00cc 80400040 		.word	1073758336
 414 00d0 82400040 		.word	1073758338
 415 00d4 86400040 		.word	1073758342
 416 00d8 58030048 		.word	1207960408
 417 00dc 00410040 		.word	1073758464
 418 00e0 00430040 		.word	1073758976
 419 00e4 08010049 		.word	1224737032
 420 00e8 A1460040 		.word	1073759905
 421 00ec 22420040 		.word	1073758754
 422 00f0 25420040 		.word	1073758757
 423 00f4 04400040 		.word	1073758212
 424 00f8 06400040 		.word	1073758214
 425 00fc A2430040 		.word	1073759138
 426              		.cfi_endproc
 427              	.LFE5:
 428              		.size	ClockSetup, .-ClockSetup
 429              		.section	.text.SetAnalogRoutingPumps,"ax",%progbits
 430              		.align	2
 431              		.global	SetAnalogRoutingPumps
 432              		.thumb
 433              		.thumb_func
 434              		.type	SetAnalogRoutingPumps, %function
 435              	SetAnalogRoutingPumps:
 436              	.LFB7:
 321:Generated_Source\PSoC5/cyfitter_cfg.c **** }
 322:Generated_Source\PSoC5/cyfitter_cfg.c **** 
ARM GAS  C:\Users\brian\AppData\Local\Temp\ccnwyBSL.s 			page 15


 323:Generated_Source\PSoC5/cyfitter_cfg.c **** 
 324:Generated_Source\PSoC5/cyfitter_cfg.c **** /*******************************************************************************
 325:Generated_Source\PSoC5/cyfitter_cfg.c **** * Function Name: SetAnalogRoutingPumps
 326:Generated_Source\PSoC5/cyfitter_cfg.c **** ********************************************************************************
 327:Generated_Source\PSoC5/cyfitter_cfg.c **** *
 328:Generated_Source\PSoC5/cyfitter_cfg.c **** * Summary:
 329:Generated_Source\PSoC5/cyfitter_cfg.c **** * Enables or disables the analog pumps feeding analog routing switches.
 330:Generated_Source\PSoC5/cyfitter_cfg.c **** * Intended to be called at startup, based on the Vdda system configuration;
 331:Generated_Source\PSoC5/cyfitter_cfg.c **** * may be called during operation when the user informs us that the Vdda voltage
 332:Generated_Source\PSoC5/cyfitter_cfg.c **** * crossed the pump threshold.
 333:Generated_Source\PSoC5/cyfitter_cfg.c **** *
 334:Generated_Source\PSoC5/cyfitter_cfg.c **** * Parameters:
 335:Generated_Source\PSoC5/cyfitter_cfg.c **** *  enabled - 1 to enable the pumps, 0 to disable the pumps
 336:Generated_Source\PSoC5/cyfitter_cfg.c **** *
 337:Generated_Source\PSoC5/cyfitter_cfg.c **** * Return:
 338:Generated_Source\PSoC5/cyfitter_cfg.c **** *  void
 339:Generated_Source\PSoC5/cyfitter_cfg.c **** *
 340:Generated_Source\PSoC5/cyfitter_cfg.c **** *******************************************************************************/
 341:Generated_Source\PSoC5/cyfitter_cfg.c **** void SetAnalogRoutingPumps(uint8 enabled)
 342:Generated_Source\PSoC5/cyfitter_cfg.c **** {
 437              		.loc 1 342 0
 438              		.cfi_startproc
 439              		@ args = 0, pretend = 0, frame = 0
 440              		@ frame_needed = 0, uses_anonymous_args = 0
 441              		@ link register save eliminated.
 442              	.LVL32:
 343:Generated_Source\PSoC5/cyfitter_cfg.c **** 	uint8 regValue = CY_GET_XTND_REG8((void CYFAR *)CYREG_PUMP_CR0);
 443              		.loc 1 343 0
 444 0000 054B     		ldr	r3, .L28
 445 0002 1B78     		ldrb	r3, [r3]	@ zero_extendqisi2
 446 0004 DBB2     		uxtb	r3, r3
 447              	.LVL33:
 344:Generated_Source\PSoC5/cyfitter_cfg.c **** 	if (enabled != 0u)
 448              		.loc 1 344 0
 449 0006 10B1     		cbz	r0, .L26
 345:Generated_Source\PSoC5/cyfitter_cfg.c **** 	{
 346:Generated_Source\PSoC5/cyfitter_cfg.c **** 		regValue |= 0x22u;
 450              		.loc 1 346 0
 451 0008 43F02203 		orr	r3, r3, #34
 452              	.LVL34:
 453 000c 01E0     		b	.L27
 454              	.L26:
 347:Generated_Source\PSoC5/cyfitter_cfg.c **** 	}
 348:Generated_Source\PSoC5/cyfitter_cfg.c **** 	else
 349:Generated_Source\PSoC5/cyfitter_cfg.c **** 	{
 350:Generated_Source\PSoC5/cyfitter_cfg.c **** 		regValue &= (uint8)~0x22u;
 455              		.loc 1 350 0
 456 000e 03F0DD03 		and	r3, r3, #221
 457              	.LVL35:
 458              	.L27:
 351:Generated_Source\PSoC5/cyfitter_cfg.c **** 	}
 352:Generated_Source\PSoC5/cyfitter_cfg.c **** 	CY_SET_XTND_REG8((void CYFAR *)CYREG_PUMP_CR0, regValue);
 459              		.loc 1 352 0
 460 0012 014A     		ldr	r2, .L28
 461 0014 1370     		strb	r3, [r2]
 462 0016 7047     		bx	lr
 463              	.L29:
ARM GAS  C:\Users\brian\AppData\Local\Temp\ccnwyBSL.s 			page 16


 464              		.align	2
 465              	.L28:
 466 0018 76580040 		.word	1073764470
 467              		.cfi_endproc
 468              	.LFE7:
 469              		.size	SetAnalogRoutingPumps, .-SetAnalogRoutingPumps
 470              		.section	.text.cyfitter_cfg,"ax",%progbits
 471              		.align	2
 472              		.global	cyfitter_cfg
 473              		.thumb
 474              		.thumb_func
 475              		.type	cyfitter_cfg, %function
 476              	cyfitter_cfg:
 477              	.LFB8:
 353:Generated_Source\PSoC5/cyfitter_cfg.c **** }
 354:Generated_Source\PSoC5/cyfitter_cfg.c **** 
 355:Generated_Source\PSoC5/cyfitter_cfg.c **** 
 356:Generated_Source\PSoC5/cyfitter_cfg.c **** 
 357:Generated_Source\PSoC5/cyfitter_cfg.c **** 
 358:Generated_Source\PSoC5/cyfitter_cfg.c **** /*******************************************************************************
 359:Generated_Source\PSoC5/cyfitter_cfg.c **** * Function Name: cyfitter_cfg
 360:Generated_Source\PSoC5/cyfitter_cfg.c **** ********************************************************************************
 361:Generated_Source\PSoC5/cyfitter_cfg.c **** * Summary:
 362:Generated_Source\PSoC5/cyfitter_cfg.c **** *  This function is called by the start-up code for the selected device. It
 363:Generated_Source\PSoC5/cyfitter_cfg.c **** *  performs all of the necessary device configuration based on the design
 364:Generated_Source\PSoC5/cyfitter_cfg.c **** *  settings.  This includes settings from the Design Wide Resources (DWR) such
 365:Generated_Source\PSoC5/cyfitter_cfg.c **** *  as Clocks and Pins as well as any component configuration that is necessary.
 366:Generated_Source\PSoC5/cyfitter_cfg.c **** *
 367:Generated_Source\PSoC5/cyfitter_cfg.c **** * Parameters:
 368:Generated_Source\PSoC5/cyfitter_cfg.c **** *   void
 369:Generated_Source\PSoC5/cyfitter_cfg.c **** *
 370:Generated_Source\PSoC5/cyfitter_cfg.c **** * Return:
 371:Generated_Source\PSoC5/cyfitter_cfg.c **** *   void
 372:Generated_Source\PSoC5/cyfitter_cfg.c **** *
 373:Generated_Source\PSoC5/cyfitter_cfg.c **** *******************************************************************************/
 374:Generated_Source\PSoC5/cyfitter_cfg.c **** 
 375:Generated_Source\PSoC5/cyfitter_cfg.c **** void cyfitter_cfg(void)
 376:Generated_Source\PSoC5/cyfitter_cfg.c **** {
 478              		.loc 1 376 0
 479              		.cfi_startproc
 480              		@ args = 0, pretend = 0, frame = 0
 481              		@ frame_needed = 0, uses_anonymous_args = 0
 482 0000 38B5     		push	{r3, r4, r5, lr}
 483              		.cfi_def_cfa_offset 16
 484              		.cfi_offset 3, -16
 485              		.cfi_offset 4, -12
 486              		.cfi_offset 5, -8
 487              		.cfi_offset 14, -4
 377:Generated_Source\PSoC5/cyfitter_cfg.c **** #ifdef CYGlobalIntDisable
 378:Generated_Source\PSoC5/cyfitter_cfg.c **** 	/* Disable interrupts by default. Let user enable if/when they want. */
 379:Generated_Source\PSoC5/cyfitter_cfg.c **** 	CYGlobalIntDisable
 488              		.loc 1 379 0
 489              		.syntax unified
 490              	@ 379 "Generated_Source\PSoC5\cyfitter_cfg.c" 1
 491 0002 72B6     		CPSID   i
 492              	@ 0 "" 2
 380:Generated_Source\PSoC5/cyfitter_cfg.c **** #endif
ARM GAS  C:\Users\brian\AppData\Local\Temp\ccnwyBSL.s 			page 17


 381:Generated_Source\PSoC5/cyfitter_cfg.c **** 
 382:Generated_Source\PSoC5/cyfitter_cfg.c **** 	/* Enable/Disable Debug functionality based on settings from System DWR */
 383:Generated_Source\PSoC5/cyfitter_cfg.c **** 	CY_SET_XTND_REG8((void CYFAR *)CYREG_MLOGIC_DEBUG, (CY_GET_XTND_REG8((void CYFAR *)CYREG_MLOGIC_DE
 493              		.loc 1 383 0
 494              		.thumb
 495              		.syntax unified
 496 0004 334A     		ldr	r2, .L36
 497 0006 1378     		ldrb	r3, [r2]	@ zero_extendqisi2
 498 0008 43F00403 		orr	r3, r3, #4
 499 000c 1370     		strb	r3, [r2]
 500              	.LVL36:
 501              	.LBB3:
 384:Generated_Source\PSoC5/cyfitter_cfg.c **** 
 385:Generated_Source\PSoC5/cyfitter_cfg.c **** 	{
 386:Generated_Source\PSoC5/cyfitter_cfg.c **** 
 387:Generated_Source\PSoC5/cyfitter_cfg.c **** 		CYPACKED typedef struct {
 388:Generated_Source\PSoC5/cyfitter_cfg.c **** 			void CYFAR *address;
 389:Generated_Source\PSoC5/cyfitter_cfg.c **** 			uint16 size;
 390:Generated_Source\PSoC5/cyfitter_cfg.c **** 		} CYPACKED_ATTR cfg_memset_t;
 391:Generated_Source\PSoC5/cyfitter_cfg.c **** 
 392:Generated_Source\PSoC5/cyfitter_cfg.c **** 
 393:Generated_Source\PSoC5/cyfitter_cfg.c **** 		CYPACKED typedef struct {
 394:Generated_Source\PSoC5/cyfitter_cfg.c **** 			void CYFAR *dest;
 395:Generated_Source\PSoC5/cyfitter_cfg.c **** 			const void CYFAR *src;
 396:Generated_Source\PSoC5/cyfitter_cfg.c **** 			uint16 size;
 397:Generated_Source\PSoC5/cyfitter_cfg.c **** 		} CYPACKED_ATTR cfg_memcpy_t;
 398:Generated_Source\PSoC5/cyfitter_cfg.c **** 
 399:Generated_Source\PSoC5/cyfitter_cfg.c **** 		static const cfg_memset_t CYCODE cfg_memset_list[] = {
 400:Generated_Source\PSoC5/cyfitter_cfg.c **** 			/* address, size */
 401:Generated_Source\PSoC5/cyfitter_cfg.c **** 			{(void CYFAR *)(CYREG_I2C_XCFG), 25u},
 402:Generated_Source\PSoC5/cyfitter_cfg.c **** 			{(void CYFAR *)(CYREG_PRT0_DR), 16u},
 403:Generated_Source\PSoC5/cyfitter_cfg.c **** 			{(void CYFAR *)(CYREG_PRT3_DR), 64u},
 404:Generated_Source\PSoC5/cyfitter_cfg.c **** 			{(void CYFAR *)(CYREG_PRT15_DR), 16u},
 405:Generated_Source\PSoC5/cyfitter_cfg.c **** 			{(void CYFAR *)(CYDEV_UCFG_B0_P0_U0_BASE), 4096u},
 406:Generated_Source\PSoC5/cyfitter_cfg.c **** 			{(void CYFAR *)(CYDEV_UCFG_B1_P2_U0_BASE), 2048u},
 407:Generated_Source\PSoC5/cyfitter_cfg.c **** 			{(void CYFAR *)(CYDEV_UCFG_DSI0_BASE), 2560u},
 408:Generated_Source\PSoC5/cyfitter_cfg.c **** 			{(void CYFAR *)(CYDEV_UCFG_DSI12_BASE), 512u},
 409:Generated_Source\PSoC5/cyfitter_cfg.c **** 			{(void CYFAR *)(CYREG_BCTL0_MDCLK_EN), 32u},
 410:Generated_Source\PSoC5/cyfitter_cfg.c **** 		};
 411:Generated_Source\PSoC5/cyfitter_cfg.c **** 
 412:Generated_Source\PSoC5/cyfitter_cfg.c **** 		static const cfg_memcpy_t CYCODE cfg_memcpy_list [] = {
 413:Generated_Source\PSoC5/cyfitter_cfg.c **** 			/* dest, src, size */
 414:Generated_Source\PSoC5/cyfitter_cfg.c **** 			{(void CYFAR *)(CYDEV_PRTDSI_PRT12_BASE), BS_IOPORT_7_VAL, 6u},
 415:Generated_Source\PSoC5/cyfitter_cfg.c **** 		};
 416:Generated_Source\PSoC5/cyfitter_cfg.c **** 
 417:Generated_Source\PSoC5/cyfitter_cfg.c **** 		uint8 CYDATA i;
 418:Generated_Source\PSoC5/cyfitter_cfg.c **** 
 419:Generated_Source\PSoC5/cyfitter_cfg.c **** 		/* Zero out critical memory blocks before beginning configuration */
 420:Generated_Source\PSoC5/cyfitter_cfg.c **** 		for (i = 0u; i < (sizeof(cfg_memset_list)/sizeof(cfg_memset_list[0])); i++)
 502              		.loc 1 420 0
 503 000e 0024     		movs	r4, #0
 504 0010 0CE0     		b	.L31
 505              	.LVL37:
 506              	.L32:
 507              	.LBB4:
 421:Generated_Source\PSoC5/cyfitter_cfg.c **** 		{
 422:Generated_Source\PSoC5/cyfitter_cfg.c **** 			const cfg_memset_t CYCODE * CYDATA ms = &cfg_memset_list[i];
ARM GAS  C:\Users\brian\AppData\Local\Temp\ccnwyBSL.s 			page 18


 423:Generated_Source\PSoC5/cyfitter_cfg.c **** 			CYMEMZERO(ms->address, (size_t)(uint32)(ms->size));
 508              		.loc 1 423 0 discriminator 3
 509 0012 314D     		ldr	r5, .L36+4
 510 0014 6300     		lsls	r3, r4, #1
 511 0016 1919     		adds	r1, r3, r4
 512 0018 4A00     		lsls	r2, r1, #1
 513 001a 1146     		mov	r1, r2
 514 001c 2A44     		add	r2, r2, r5
 515 001e 0846     		mov	r0, r1
 516 0020 9188     		ldrh	r1, [r2, #4]
 517 0022 2858     		ldr	r0, [r5, r0]	@ unaligned
 518 0024 FFF7FEFF 		bl	CYMEMZERO
 519              	.LVL38:
 520              	.LBE4:
 420:Generated_Source\PSoC5/cyfitter_cfg.c **** 		{
 521              		.loc 1 420 0 discriminator 3
 522 0028 0134     		adds	r4, r4, #1
 523              	.LVL39:
 524 002a E4B2     		uxtb	r4, r4
 525              	.LVL40:
 526              	.L31:
 420:Generated_Source\PSoC5/cyfitter_cfg.c **** 		{
 527              		.loc 1 420 0 is_stmt 0 discriminator 1
 528 002c 082C     		cmp	r4, #8
 529 002e F0D9     		bls	.L32
 530 0030 0024     		movs	r4, #0
 531              	.LVL41:
 532 0032 0BE0     		b	.L33
 533              	.LVL42:
 534              	.L34:
 535              	.LBB5:
 424:Generated_Source\PSoC5/cyfitter_cfg.c **** 		}
 425:Generated_Source\PSoC5/cyfitter_cfg.c **** 
 426:Generated_Source\PSoC5/cyfitter_cfg.c **** 		/* Copy device configuration data into registers */
 427:Generated_Source\PSoC5/cyfitter_cfg.c **** 		for (i = 0u; i < (sizeof(cfg_memcpy_list)/sizeof(cfg_memcpy_list[0])); i++)
 428:Generated_Source\PSoC5/cyfitter_cfg.c **** 		{
 429:Generated_Source\PSoC5/cyfitter_cfg.c **** 			const cfg_memcpy_t CYCODE * CYDATA mc = &cfg_memcpy_list[i];
 430:Generated_Source\PSoC5/cyfitter_cfg.c **** 			void * CYDATA destPtr = mc->dest;
 536              		.loc 1 430 0 is_stmt 1 discriminator 3
 537 0034 2849     		ldr	r1, .L36+4
 538 0036 A300     		lsls	r3, r4, #2
 539 0038 1819     		adds	r0, r3, r4
 540 003a 4200     		lsls	r2, r0, #1
 541 003c 8818     		adds	r0, r1, r2
 542              	.LVL43:
 431:Generated_Source\PSoC5/cyfitter_cfg.c **** 			const void * CYDATA srcPtr = mc->src;
 432:Generated_Source\PSoC5/cyfitter_cfg.c **** 			uint16 CYDATA numBytes = mc->size;
 433:Generated_Source\PSoC5/cyfitter_cfg.c **** 			CYCONFIGCPY(destPtr, srcPtr, numBytes);
 543              		.loc 1 433 0 discriminator 3
 544 003e 0622     		movs	r2, #6
 545 0040 C16B     		ldr	r1, [r0, #60]	@ unaligned
 546              	.LVL44:
 547 0042 806B     		ldr	r0, [r0, #56]	@ unaligned
 548              	.LVL45:
 549 0044 FFF7FEFF 		bl	CYCONFIGCPY
 550              	.LVL46:
 551              	.LBE5:
ARM GAS  C:\Users\brian\AppData\Local\Temp\ccnwyBSL.s 			page 19


 427:Generated_Source\PSoC5/cyfitter_cfg.c **** 		{
 552              		.loc 1 427 0 discriminator 3
 553 0048 0134     		adds	r4, r4, #1
 554              	.LVL47:
 555 004a E4B2     		uxtb	r4, r4
 556              	.LVL48:
 557              	.L33:
 427:Generated_Source\PSoC5/cyfitter_cfg.c **** 		{
 558              		.loc 1 427 0 is_stmt 0 discriminator 1
 559 004c 002C     		cmp	r4, #0
 560 004e F1D0     		beq	.L34
 434:Generated_Source\PSoC5/cyfitter_cfg.c **** 		}
 435:Generated_Source\PSoC5/cyfitter_cfg.c **** 
 436:Generated_Source\PSoC5/cyfitter_cfg.c **** 		cfg_write_bytes32(cy_cfg_addr_table, cy_cfg_data_table);
 561              		.loc 1 436 0 is_stmt 1
 562 0050 2249     		ldr	r1, .L36+8
 563 0052 4FF09040 		mov	r0, #1207959552
 564 0056 FFF7FEFF 		bl	cfg_write_bytes32
 565              	.LVL49:
 437:Generated_Source\PSoC5/cyfitter_cfg.c **** 
 438:Generated_Source\PSoC5/cyfitter_cfg.c **** 		/* Enable digital routing */
 439:Generated_Source\PSoC5/cyfitter_cfg.c **** 		CY_SET_XTND_REG8((void CYFAR *)CYREG_BCTL0_BANK_CTL, CY_GET_XTND_REG8((void CYFAR *)CYREG_BCTL0_B
 566              		.loc 1 439 0
 567 005a 214A     		ldr	r2, .L36+12
 568 005c 1378     		ldrb	r3, [r2]	@ zero_extendqisi2
 569 005e 43F00203 		orr	r3, r3, #2
 570 0062 1370     		strb	r3, [r2]
 440:Generated_Source\PSoC5/cyfitter_cfg.c **** 		CY_SET_XTND_REG8((void CYFAR *)CYREG_BCTL1_BANK_CTL, CY_GET_XTND_REG8((void CYFAR *)CYREG_BCTL1_B
 571              		.loc 1 440 0
 572 0064 1032     		adds	r2, r2, #16
 573 0066 1378     		ldrb	r3, [r2]	@ zero_extendqisi2
 574 0068 43F00203 		orr	r3, r3, #2
 575 006c 1370     		strb	r3, [r2]
 441:Generated_Source\PSoC5/cyfitter_cfg.c **** 
 442:Generated_Source\PSoC5/cyfitter_cfg.c **** 		/* Enable UDB array */
 443:Generated_Source\PSoC5/cyfitter_cfg.c **** 		CY_SET_XTND_REG8((void CYFAR *)CYREG_PM_ACT_CFG0, CY_GET_XTND_REG8((void CYFAR *)CYREG_PM_ACT_CFG
 576              		.loc 1 443 0
 577 006e 1D4C     		ldr	r4, .L36+16
 578              	.LVL50:
 579 0070 2378     		ldrb	r3, [r4]	@ zero_extendqisi2
 580 0072 43F04003 		orr	r3, r3, #64
 581 0076 2370     		strb	r3, [r4]
 444:Generated_Source\PSoC5/cyfitter_cfg.c **** 		CY_SET_XTND_REG8((void CYFAR *)CYREG_PM_AVAIL_CR2, CY_GET_XTND_REG8((void CYFAR *)CYREG_PM_AVAIL_
 582              		.loc 1 444 0
 583 0078 A2F58632 		sub	r2, r2, #68608
 584 007c 513A     		subs	r2, r2, #81
 585 007e 1378     		ldrb	r3, [r2]	@ zero_extendqisi2
 586 0080 43F01003 		orr	r3, r3, #16
 587 0084 1370     		strb	r3, [r2]
 588              	.LBE3:
 445:Generated_Source\PSoC5/cyfitter_cfg.c **** 	}
 446:Generated_Source\PSoC5/cyfitter_cfg.c **** 
 447:Generated_Source\PSoC5/cyfitter_cfg.c **** 
 448:Generated_Source\PSoC5/cyfitter_cfg.c **** 	/* Perform second pass device configuration. These items must be configured in specific order afte
 449:Generated_Source\PSoC5/cyfitter_cfg.c **** 	CYCONFIGCPY((void CYFAR *)(CYREG_PRT12_DR), (const void CYFAR *)(BS_IOPINS0_7_VAL), 10u);
 589              		.loc 1 449 0
 590 0086 0A22     		movs	r2, #10
ARM GAS  C:\Users\brian\AppData\Local\Temp\ccnwyBSL.s 			page 20


 591 0088 1749     		ldr	r1, .L36+20
 592 008a 1848     		ldr	r0, .L36+24
 593 008c FFF7FEFF 		bl	CYCONFIGCPY
 594              	.LVL51:
 450:Generated_Source\PSoC5/cyfitter_cfg.c **** 	CYCONFIGCPY((void CYFAR *)(CYREG_PRT1_DM0), (const void CYFAR *)(BS_IOPINS0_1_VAL), 8u);
 595              		.loc 1 450 0
 596 0090 0822     		movs	r2, #8
 597 0092 1749     		ldr	r1, .L36+28
 598 0094 1748     		ldr	r0, .L36+32
 599 0096 FFF7FEFF 		bl	CYCONFIGCPY
 600              	.LVL52:
 451:Generated_Source\PSoC5/cyfitter_cfg.c **** 	CYCONFIGCPY((void CYFAR *)(CYREG_PRT2_DM0), (const void CYFAR *)(BS_IOPINS0_2_VAL), 8u);
 601              		.loc 1 451 0
 602 009a 0822     		movs	r2, #8
 603 009c 1649     		ldr	r1, .L36+36
 604 009e 1748     		ldr	r0, .L36+40
 605 00a0 FFF7FEFF 		bl	CYCONFIGCPY
 606              	.LVL53:
 452:Generated_Source\PSoC5/cyfitter_cfg.c **** 	/* Switch Boost to the precision bandgap reference from its internal reference */
 453:Generated_Source\PSoC5/cyfitter_cfg.c **** 	CY_SET_REG8((void CYXDATA *)CYREG_BOOST_CR2, (CY_GET_REG8((void CYXDATA *)CYREG_BOOST_CR2) | 0x08u
 607              		.loc 1 453 0
 608 00a4 164A     		ldr	r2, .L36+44
 609 00a6 1378     		ldrb	r3, [r2]	@ zero_extendqisi2
 610 00a8 43F00803 		orr	r3, r3, #8
 611 00ac 1370     		strb	r3, [r2]
 454:Generated_Source\PSoC5/cyfitter_cfg.c **** 
 455:Generated_Source\PSoC5/cyfitter_cfg.c **** 	/* Set Flash Cycles based on max possible frequency in case a glitch occurs during ClockSetup(). *
 456:Generated_Source\PSoC5/cyfitter_cfg.c **** 	CY_SET_XTND_REG8((void CYFAR *)(CYREG_CACHE_CC_CTL), (((CYDEV_INSTRUCT_CACHE_ENABLED) != 0) ? 0x61
 612              		.loc 1 456 0
 613 00ae 154D     		ldr	r5, .L36+48
 614 00b0 6123     		movs	r3, #97
 615 00b2 2B70     		strb	r3, [r5]
 457:Generated_Source\PSoC5/cyfitter_cfg.c **** 	/* Setup clocks based on selections from Clock DWR */
 458:Generated_Source\PSoC5/cyfitter_cfg.c **** 	ClockSetup();
 616              		.loc 1 458 0
 617 00b4 FFF7FEFF 		bl	ClockSetup
 618              	.LVL54:
 459:Generated_Source\PSoC5/cyfitter_cfg.c **** 	/* Set Flash Cycles based on newly configured 24.00MHz Bus Clock. */
 460:Generated_Source\PSoC5/cyfitter_cfg.c **** 	CY_SET_XTND_REG8((void CYFAR *)(CYREG_CACHE_CC_CTL), (((CYDEV_INSTRUCT_CACHE_ENABLED) != 0) ? 0x81
 619              		.loc 1 460 0
 620 00b8 8123     		movs	r3, #129
 621 00ba 2B70     		strb	r3, [r5]
 461:Generated_Source\PSoC5/cyfitter_cfg.c **** 	CY_SET_XTND_REG8((void CYFAR *)(CYREG_PANTHER_WAITPIPE), 0x01u);
 622              		.loc 1 461 0
 623 00bc 0122     		movs	r2, #1
 624 00be 124B     		ldr	r3, .L36+52
 625 00c0 1A70     		strb	r2, [r3]
 462:Generated_Source\PSoC5/cyfitter_cfg.c **** 
 463:Generated_Source\PSoC5/cyfitter_cfg.c **** 	/* Perform basic analog initialization to defaults */
 464:Generated_Source\PSoC5/cyfitter_cfg.c **** 	AnalogSetDefault();
 626              		.loc 1 464 0
 627 00c2 FFF7FEFF 		bl	AnalogSetDefault
 628              	.LVL55:
 465:Generated_Source\PSoC5/cyfitter_cfg.c **** 
 466:Generated_Source\PSoC5/cyfitter_cfg.c **** 	/* Configure alternate active mode */
 467:Generated_Source\PSoC5/cyfitter_cfg.c **** 	CYCONFIGCPY((void CYFAR *)CYDEV_PM_STBY_BASE, (const void CYFAR *)CYDEV_PM_ACT_BASE, 14u);
 629              		.loc 1 467 0
ARM GAS  C:\Users\brian\AppData\Local\Temp\ccnwyBSL.s 			page 21


 630 00c6 0E22     		movs	r2, #14
 631 00c8 2146     		mov	r1, r4
 632 00ca 1048     		ldr	r0, .L36+56
 633 00cc FFF7FEFF 		bl	CYCONFIGCPY
 634              	.LVL56:
 635 00d0 38BD     		pop	{r3, r4, r5, pc}
 636              	.L37:
 637 00d2 00BF     		.align	2
 638              	.L36:
 639 00d4 E8460040 		.word	1073759976
 640 00d8 00000000 		.word	.LANCHOR0
 641 00dc 74000048 		.word	1207959668
 642 00e0 03500140 		.word	1073827843
 643 00e4 A0430040 		.word	1073759136
 644 00e8 3C030048 		.word	1207960380
 645 00ec C0510040 		.word	1073762752
 646 00f0 48030048 		.word	1207960392
 647 00f4 12510040 		.word	1073762578
 648 00f8 50030048 		.word	1207960400
 649 00fc 22510040 		.word	1073762594
 650 0100 22430040 		.word	1073759010
 651 0104 00480040 		.word	1073760256
 652 0108 04000840 		.word	1074266116
 653 010c B0430040 		.word	1073759152
 654              		.cfi_endproc
 655              	.LFE8:
 656              		.size	cyfitter_cfg, .-cyfitter_cfg
 657              		.section	.rodata
 658              		.align	2
 659              		.set	.LANCHOR0,. + 0
 660              		.type	cfg_memset_list.5020, %object
 661              		.size	cfg_memset_list.5020, 54
 662              	cfg_memset_list.5020:
 663 0000 C8490040 		.word	1073760712
 664 0004 1900     		.short	25
 665 0006 00510040 		.4byte	1073762560
 666 000a 1000     		.short	16
 667 000c 30510040 		.word	1073762608
 668 0010 4000     		.short	64
 669 0012 F0510040 		.4byte	1073762800
 670 0016 1000     		.short	16
 671 0018 00000140 		.word	1073807360
 672 001c 0010     		.short	4096
 673 001e 00140140 		.4byte	1073812480
 674 0022 0008     		.short	2048
 675 0024 00400140 		.word	1073823744
 676 0028 000A     		.short	2560
 677 002a 004C0140 		.4byte	1073826816
 678 002e 0002     		.short	512
 679 0030 00500140 		.word	1073827840
 680 0034 2000     		.short	32
 681 0036 0000     		.space	2
 682              		.type	cfg_memcpy_list.5021, %object
 683              		.size	cfg_memcpy_list.5021, 10
 684              	cfg_memcpy_list.5021:
 685 0038 60520040 		.word	1073762912
 686 003c 34030048 		.word	1207960372
ARM GAS  C:\Users\brian\AppData\Local\Temp\ccnwyBSL.s 			page 22


 687 0040 0600     		.short	6
 688              		.text
 689              	.Letext0:
 690              		.file 2 "c:\\program files (x86)\\cypress\\psoc creator\\4.4\\psoc creator\\import\\gnu\\arm\\5.4.
 691              		.file 3 "Generated_Source\\PSoC5\\cytypes.h"
 692              		.file 4 "Generated_Source\\PSoC5\\CyLib.h"