ARM GAS  C:\Users\brian\AppData\Local\Temp\ccSGzKju.s 			page 1


   1              		.syntax unified
   2              		.cpu cortex-m3
   3              		.fpu softvfp
   4              		.eabi_attribute 20, 1
   5              		.eabi_attribute 21, 1
   6              		.eabi_attribute 23, 3
   7              		.eabi_attribute 24, 1
   8              		.eabi_attribute 25, 1
   9              		.eabi_attribute 26, 1
  10              		.eabi_attribute 30, 1
  11              		.eabi_attribute 34, 1
  12              		.eabi_attribute 18, 4
  13              		.thumb
  14              		.syntax unified
  15              		.file	"main.c"
  16              		.text
  17              	.Ltext0:
  18              		.cfi_sections	.debug_frame
  19              		.section	.text.PIN_IR_InterruptHandler,"ax",%progbits
  20              		.align	2
  21              		.global	PIN_IR_InterruptHandler
  22              		.thumb
  23              		.thumb_func
  24              		.type	PIN_IR_InterruptHandler, %function
  25              	PIN_IR_InterruptHandler:
  26              	.LFB64:
  27              		.file 1 "main.c"
   1:main.c        **** #include <project.h>
   2:main.c        **** #include <stdio.h>
   3:main.c        **** #include <stdlib.h>
   4:main.c        **** #include <math.h>
   5:main.c        **** 
   6:main.c        **** #include <u8x8.h>
   7:main.c        **** 
   8:main.c        **** #define DMA_BYTES_PER_BURST 1
   9:main.c        **** #define DMA_REQUEST_PER_BURST 1
  10:main.c        **** #define DMA_SRC_BASE (samples_pointer)
  11:main.c        **** #define DMA_DST_BASE (CYDEV_PERIPH_BASE)
  12:main.c        **** 
  13:main.c        **** uint8_t psoc_gpio_and_delay_callback(u8x8_t *u8x8, 
  14:main.c        ****     uint8_t msg, uint8_t arg_int, void *arg_ptr);
  15:main.c        **** uint8_t u8x8_byte_hw_i2c(u8x8_t *u8x8, uint8_t msg, 
  16:main.c        ****     uint8_t arg_int, void *arg_ptr);
  17:main.c        **** 
  18:main.c        **** struct Locks {
  19:main.c        ****     uint8_t difficulty;
  20:main.c        ****     uint16_t *combination;
  21:main.c        ****     uint8_t size;
  22:main.c        **** };
  23:main.c        **** 
  24:main.c        **** u8x8_t EM2Display;
  25:main.c        **** 
  26:main.c        **** uint8_t *samples_pointer = NULL;
  27:main.c        **** uint8_t sample_size;
  28:main.c        **** 
  29:main.c        **** uint8_t line_selection;
  30:main.c        **** _Bool interrupt_flag = 0;
ARM GAS  C:\Users\brian\AppData\Local\Temp\ccSGzKju.s 			page 2


  31:main.c        **** _Bool playing = 0;
  32:main.c        **** 
  33:main.c        **** uint64_t pick_dif_rep = 0;
  34:main.c        **** 
  35:main.c        **** // Interrupt to make your selections
  36:main.c        **** CY_ISR(PIN_IR_InterruptHandler) {
  28              		.loc 1 36 0
  29              		.cfi_startproc
  30              		@ args = 0, pretend = 0, frame = 0
  31              		@ frame_needed = 0, uses_anonymous_args = 0
  32 0000 10B5     		push	{r4, lr}
  33              		.cfi_def_cfa_offset 8
  34              		.cfi_offset 4, -8
  35              		.cfi_offset 14, -4
  37:main.c        ****     interrupt_flag = 1;
  36              		.loc 1 37 0
  37 0002 1E4B     		ldr	r3, .L12
  38 0004 0122     		movs	r2, #1
  39 0006 1A70     		strb	r2, [r3]
  38:main.c        ****     
  39:main.c        ****     if(!playing) {
  40              		.loc 1 39 0
  41 0008 5B78     		ldrb	r3, [r3, #1]	@ zero_extendqisi2
  42 000a 93BB     		cbnz	r3, .L2
  43 000c 0024     		movs	r4, #0
  44 000e 0DE0     		b	.L3
  45              	.LVL0:
  46              	.L5:
  47              	.LBB2:
  40:main.c        ****         for(uint8_t i = 0; i < 3; i++) {
  41:main.c        ****             if(i != line_selection) {
  48              		.loc 1 41 0
  49 0010 1B4B     		ldr	r3, .L12+4
  50 0012 1B78     		ldrb	r3, [r3]	@ zero_extendqisi2
  51 0014 9C42     		cmp	r4, r3
  52 0016 07D0     		beq	.L4
  42:main.c        ****                 u8x8_DrawString(&EM2Display, 1, (i * 2) + 3, "              ");
  53              		.loc 1 42 0
  54 0018 6200     		lsls	r2, r4, #1
  55 001a 0332     		adds	r2, r2, #3
  56 001c 194B     		ldr	r3, .L12+8
  57 001e D2B2     		uxtb	r2, r2
  58 0020 0121     		movs	r1, #1
  59 0022 1948     		ldr	r0, .L12+12
  60 0024 FFF7FEFF 		bl	u8x8_DrawString
  61              	.LVL1:
  62              	.L4:
  40:main.c        ****         for(uint8_t i = 0; i < 3; i++) {
  63              		.loc 1 40 0 discriminator 2
  64 0028 0134     		adds	r4, r4, #1
  65              	.LVL2:
  66 002a E4B2     		uxtb	r4, r4
  67              	.LVL3:
  68              	.L3:
  40:main.c        ****         for(uint8_t i = 0; i < 3; i++) {
  69              		.loc 1 40 0 is_stmt 0 discriminator 1
  70 002c 022C     		cmp	r4, #2
ARM GAS  C:\Users\brian\AppData\Local\Temp\ccSGzKju.s 			page 3


  71 002e EFD9     		bls	.L5
  72              	.LBE2:
  43:main.c        ****             }
  44:main.c        ****         }
  45:main.c        ****         
  46:main.c        ****         PWM_O_LED_Start();
  73              		.loc 1 46 0 is_stmt 1
  74 0030 FFF7FEFF 		bl	PWM_O_LED_Start
  75              	.LVL4:
  76              	.LBB3:
  47:main.c        ****         for(uint16_t i = 0; i < PWM_O_LED_ReadPeriod(); i++) {
  77              		.loc 1 47 0
  78 0034 0024     		movs	r4, #0
  79              	.LVL5:
  80 0036 07E0     		b	.L6
  81              	.LVL6:
  82              	.L7:
  48:main.c        ****             PWM_O_LED_WriteCompare(i);
  83              		.loc 1 48 0 discriminator 3
  84 0038 2046     		mov	r0, r4
  85 003a FFF7FEFF 		bl	PWM_O_LED_WriteCompare
  86              	.LVL7:
  49:main.c        ****             CyDelay(1);
  87              		.loc 1 49 0 discriminator 3
  88 003e 0120     		movs	r0, #1
  89 0040 FFF7FEFF 		bl	CyDelay
  90              	.LVL8:
  47:main.c        ****         for(uint16_t i = 0; i < PWM_O_LED_ReadPeriod(); i++) {
  91              		.loc 1 47 0 discriminator 3
  92 0044 0134     		adds	r4, r4, #1
  93              	.LVL9:
  94 0046 A4B2     		uxth	r4, r4
  95              	.LVL10:
  96              	.L6:
  47:main.c        ****         for(uint16_t i = 0; i < PWM_O_LED_ReadPeriod(); i++) {
  97              		.loc 1 47 0 is_stmt 0 discriminator 1
  98 0048 FFF7FEFF 		bl	PWM_O_LED_ReadPeriod
  99              	.LVL11:
 100 004c 8442     		cmp	r4, r0
 101 004e F3D3     		bcc	.L7
 102              	.LBE3:
 103              	.LBB4:
  50:main.c        ****         } for(uint16_t i = PWM_O_LED_ReadPeriod(); i > 0; i--) {
 104              		.loc 1 50 0 is_stmt 1
 105 0050 FFF7FEFF 		bl	PWM_O_LED_ReadPeriod
 106              	.LVL12:
 107 0054 0446     		mov	r4, r0
 108              	.LVL13:
 109 0056 07E0     		b	.L8
 110              	.L9:
  51:main.c        ****             PWM_O_LED_WriteCompare(i);
 111              		.loc 1 51 0 discriminator 3
 112 0058 2046     		mov	r0, r4
 113 005a FFF7FEFF 		bl	PWM_O_LED_WriteCompare
 114              	.LVL14:
  52:main.c        ****             CyDelay(1);
 115              		.loc 1 52 0 discriminator 3
ARM GAS  C:\Users\brian\AppData\Local\Temp\ccSGzKju.s 			page 4


 116 005e 0120     		movs	r0, #1
 117 0060 FFF7FEFF 		bl	CyDelay
 118              	.LVL15:
  50:main.c        ****         } for(uint16_t i = PWM_O_LED_ReadPeriod(); i > 0; i--) {
 119              		.loc 1 50 0 discriminator 3
 120 0064 013C     		subs	r4, r4, #1
 121              	.LVL16:
 122 0066 A4B2     		uxth	r4, r4
 123              	.LVL17:
 124              	.L8:
  50:main.c        ****         } for(uint16_t i = PWM_O_LED_ReadPeriod(); i > 0; i--) {
 125              		.loc 1 50 0 is_stmt 0 discriminator 1
 126 0068 002C     		cmp	r4, #0
 127 006a F5D1     		bne	.L9
 128              	.LBE4:
  53:main.c        ****         }
  54:main.c        ****         PWM_O_LED_Stop();
 129              		.loc 1 54 0 is_stmt 1
 130 006c FFF7FEFF 		bl	PWM_O_LED_Stop
 131              	.LVL18:
 132 0070 01E0     		b	.L10
 133              	.LVL19:
 134              	.L2:
  55:main.c        ****     } else {
  56:main.c        ****         PWM_BUZZER_Stop();
 135              		.loc 1 56 0
 136 0072 FFF7FEFF 		bl	PWM_BUZZER_Stop
 137              	.LVL20:
 138              	.L10:
  57:main.c        ****     }
  58:main.c        ****     
  59:main.c        ****     PIN_IR_ClearInterrupt();
 139              		.loc 1 59 0
 140 0076 FFF7FEFF 		bl	PIN_IR_ClearInterrupt
 141              	.LVL21:
 142 007a 10BD     		pop	{r4, pc}
 143              	.L13:
 144              		.align	2
 145              	.L12:
 146 007c 00000000 		.word	.LANCHOR0
 147 0080 00000000 		.word	line_selection
 148 0084 00000000 		.word	.LC0
 149 0088 00000000 		.word	EM2Display
 150              		.cfi_endproc
 151              	.LFE64:
 152              		.size	PIN_IR_InterruptHandler, .-PIN_IR_InterruptHandler
 153              		.section	.text.psoc_gpio_and_delay_callback,"ax",%progbits
 154              		.align	2
 155              		.global	psoc_gpio_and_delay_callback
 156              		.thumb
 157              		.thumb_func
 158              		.type	psoc_gpio_and_delay_callback, %function
 159              	psoc_gpio_and_delay_callback:
 160              	.LFB73:
  60:main.c        **** }
  61:main.c        **** 
  62:main.c        **** // Function to display a message
ARM GAS  C:\Users\brian\AppData\Local\Temp\ccSGzKju.s 			page 5


  63:main.c        **** void display_msg(char **msg) {
  64:main.c        ****     ISR_IR_Stop();
  65:main.c        ****     for(uint8_t i = 0; i < 4; i++) {
  66:main.c        ****         u8x8_DrawString(&EM2Display, 1, (i * 2) + 1, msg[i]);
  67:main.c        ****     }
  68:main.c        ****     ISR_IR_StartEx(PIN_IR_InterruptHandler);
  69:main.c        **** }
  70:main.c        **** 
  71:main.c        **** // Function to make the user pick their desired difficulty
  72:main.c        **** uint8_t pick_difficulty() {
  73:main.c        ****     const uint16_t maximum_output = 1023;
  74:main.c        ****     
  75:main.c        ****     char *msg[4];
  76:main.c        ****     msg[0] = "Difficulty:    ";
  77:main.c        ****     msg[1] = "   Easy        ";
  78:main.c        ****     msg[2] = "   Medium      ";
  79:main.c        ****     msg[3] = "   Hard        ";
  80:main.c        ****     display_msg(msg);
  81:main.c        ****     
  82:main.c        ****     ADC_POT_Start();
  83:main.c        ****     
  84:main.c        ****     // If the interrupt triggers before assigning a value, the difficulty is "easy"
  85:main.c        ****     line_selection = 0;
  86:main.c        ****     interrupt_flag = 0;
  87:main.c        ****     while(!interrupt_flag) {
  88:main.c        ****         ADC_POT_StartConvert();
  89:main.c        ****         ADC_POT_IsEndConversion(ADC_POT_WAIT_FOR_RESULT);
  90:main.c        ****         uint16_t output = ADC_POT_GetResult16();
  91:main.c        ****         
  92:main.c        ****         // The ranges are now: [0 - 0.99] = 0, [1 - 1.99] = 1 and [2 - 2.99] = 2
  93:main.c        ****         line_selection = 2.99 - (((float) output / (float) maximum_output) * 2.99);
  94:main.c        ****         
  95:main.c        ****         ISR_IR_Stop();
  96:main.c        ****         for(uint8_t i = 0; i < 3; i++) {
  97:main.c        ****             if(i == line_selection) {
  98:main.c        ****                     u8x8_DrawString(&EM2Display, 2, (i * 2) + 3, ">");
  99:main.c        ****             } else {
 100:main.c        ****                 u8x8_DrawString(&EM2Display, 2, (i * 2) + 3, " ");
 101:main.c        ****             }
 102:main.c        ****         }
 103:main.c        ****         ISR_IR_StartEx(PIN_IR_InterruptHandler);
 104:main.c        ****         pick_dif_rep++;
 105:main.c        ****     }
 106:main.c        ****     ADC_POT_Stop();
 107:main.c        ****     
 108:main.c        ****     return line_selection;
 109:main.c        **** }
 110:main.c        **** 
 111:main.c        **** // Funtion to generate a lock
 112:main.c        **** struct Locks generate_lock(uint8_t difficulty) {
 113:main.c        ****     struct Locks lock;
 114:main.c        ****     lock.difficulty = difficulty;
 115:main.c        ****     lock.size = (lock.difficulty + 1) * 2;
 116:main.c        ****     
 117:main.c        ****     // NOTE TO SELF: Don't forget to free the combination in memory //
 118:main.c        ****     lock.combination = (uint16_t *) malloc(sizeof(uint16_t) * lock.size);
 119:main.c        ****     
ARM GAS  C:\Users\brian\AppData\Local\Temp\ccSGzKju.s 			page 6


 120:main.c        ****     // This isn't as good as using the current real time,
 121:main.c        ****     // but the random seed is based on your time in "pick_difficulty"
 122:main.c        ****     srand(pick_dif_rep);
 123:main.c        ****     for(uint8_t i = 0; i < lock.size; i++) {
 124:main.c        ****         lock.combination[i] = rand() % 1023;
 125:main.c        ****     }
 126:main.c        ****     
 127:main.c        ****     return lock;
 128:main.c        **** }
 129:main.c        **** 
 130:main.c        **** // Function to calculate the distance between the POT Meter and combination value
 131:main.c        **** uint16_t get_distance(uint16_t ref) {
 132:main.c        ****     ADC_POT_Start();
 133:main.c        ****     ADC_POT_StartConvert();
 134:main.c        ****     ADC_POT_IsEndConversion(ADC_POT_WAIT_FOR_RESULT);
 135:main.c        ****     uint16_t output = ADC_POT_GetResult16();
 136:main.c        ****     
 137:main.c        ****     uint16_t distance = abs(output - ref);
 138:main.c        ****     
 139:main.c        ****     return distance;
 140:main.c        **** }
 141:main.c        **** 
 142:main.c        **** // Function that calculates and assigns the Block size of a PWM based distance
 143:main.c        **** void set_pwm_speed(uint16_t distance, uint8_t difficulty) {
 144:main.c        ****     const uint16_t max_period = 1000;
 145:main.c        ****     const uint8_t minimum_range = 75 * (3 - difficulty);
 146:main.c        ****     if(distance < minimum_range) {
 147:main.c        ****         float percentage = (float) distance / (float) minimum_range;
 148:main.c        ****         PWM_BUZZER_WritePeriod(percentage * max_period + 50);
 149:main.c        ****         PWM_BUZZER_WriteCompare(percentage * (max_period / 4) + 75);
 150:main.c        ****     } else {
 151:main.c        ****         PWM_BUZZER_WriteCompare(0);
 152:main.c        ****     }
 153:main.c        **** }
 154:main.c        **** 
 155:main.c        **** void lose() {
 156:main.c        ****     char *msg[4];
 157:main.c        ****     msg[0] = "===============";
 158:main.c        ****     msg[1] = "| You lost :) |";
 159:main.c        ****     msg[2] = "===============";
 160:main.c        ****     msg[3] = "               ";
 161:main.c        ****     display_msg(msg);
 162:main.c        ****     
 163:main.c        ****     PWM_ALARM_Start();
 164:main.c        ****     for(uint8_t i = 0; i < 5; i++) {
 165:main.c        ****         for(uint16_t j = 0; j < PWM_ALARM_ReadPeriod(); j++) {
 166:main.c        ****             PWM_ALARM_WriteCompare(j);
 167:main.c        ****             CyDelay(1);
 168:main.c        ****         }
 169:main.c        ****         for(uint16_t j = PWM_ALARM_ReadPeriod(); j > 0; j--) {
 170:main.c        ****             PWM_ALARM_WriteCompare(j);
 171:main.c        ****             CyDelay(1);
 172:main.c        ****         }
 173:main.c        ****     }
 174:main.c        ****     PWM_ALARM_Stop();
 175:main.c        **** }
 176:main.c        **** 
ARM GAS  C:\Users\brian\AppData\Local\Temp\ccSGzKju.s 			page 7


 177:main.c        **** void succes() {
 178:main.c        ****     char *msg[4];
 179:main.c        ****     msg[0] = "===============";
 180:main.c        ****     msg[1] = "|  Good Job   |";
 181:main.c        ****     msg[2] = "===============";
 182:main.c        ****     msg[3] = "               ";
 183:main.c        ****     display_msg(msg);
 184:main.c        ****     
 185:main.c        ****     PWM_O_LED_Start();
 186:main.c        ****     for(uint16_t i = 0; i < PWM_O_LED_ReadPeriod(); i++) {
 187:main.c        ****         PWM_O_LED_WriteCompare(i);
 188:main.c        ****         CyDelay(1);
 189:main.c        ****     } for(uint16_t i = PWM_O_LED_ReadPeriod(); i > 0; i--) {
 190:main.c        ****         PWM_O_LED_WriteCompare(i);
 191:main.c        ****         CyDelay(1);
 192:main.c        ****     }
 193:main.c        ****     PWM_O_LED_Stop();
 194:main.c        **** }
 195:main.c        **** 
 196:main.c        **** // The main function that's executed when booted
 197:main.c        **** int main(void)
 198:main.c        **** {
 199:main.c        ****     
 200:main.c        ****     CyGlobalIntEnable;
 201:main.c        ****     
 202:main.c        ****     // Display Initialization
 203:main.c        ****     I2C_DISPLAY_Start();
 204:main.c        ****     
 205:main.c        ****     u8x8_Setup(&EM2Display, u8x8_d_ssd1306_128x64_noname, 
 206:main.c        ****         u8x8_cad_ssd13xx_i2c, u8x8_byte_hw_i2c, 
 207:main.c        ****         psoc_gpio_and_delay_callback);
 208:main.c        ****     
 209:main.c        ****     u8x8_InitDisplay(&EM2Display);
 210:main.c        ****     u8x8_SetPowerSave(&EM2Display, 0);
 211:main.c        ****     u8x8_ClearDisplay(&EM2Display);
 212:main.c        ****     u8x8_SetFont(&EM2Display, u8x8_font_amstrad_cpc_extended_f);
 213:main.c        ****     
 214:main.c        ****     // Interrupt Initialization
 215:main.c        ****     ISR_IR_StartEx(PIN_IR_InterruptHandler);
 216:main.c        ****     
 217:main.c        ****     // Intro Message
 218:main.c        ****     char *msg[4];
 219:main.c        ****     msg[0] = "HvA HBO-ICT";
 220:main.c        ****     msg[1] = "TI EM2";
 221:main.c        ****     msg[2] = "";
 222:main.c        ****     msg[3] = "Lab 7 Project";
 223:main.c        ****     display_msg(msg);
 224:main.c        ****     CyDelay(2000);
 225:main.c        ****     
 226:main.c        ****     // The Game Loop
 227:main.c        ****     for(;;)
 228:main.c        ****     {
 229:main.c        ****         uint8_t difficulty = pick_difficulty();
 230:main.c        ****         struct Locks lock = generate_lock(difficulty);
 231:main.c        ****         
 232:main.c        ****         playing = 1;
 233:main.c        ****         for(uint8_t i = 0; i < lock.size; i++) {
ARM GAS  C:\Users\brian\AppData\Local\Temp\ccSGzKju.s 			page 8


 234:main.c        ****             char *msg[4];
 235:main.c        ****             msg[0] = "===============";
 236:main.c        ****             msg[1] = "|   Locked    |";
 237:main.c        ****             msg[2] = "===============";
 238:main.c        ****             msg[3] = "               ";
 239:main.c        ****             display_msg(msg);
 240:main.c        ****             
 241:main.c        ****             interrupt_flag = 0;
 242:main.c        ****             PWM_BUZZER_Start();
 243:main.c        ****             
 244:main.c        ****             uint16_t distance = 11;
 245:main.c        ****             while(!interrupt_flag) {
 246:main.c        ****                 distance = get_distance(lock.combination[i]);
 247:main.c        ****                 set_pwm_speed(distance, lock.difficulty);
 248:main.c        ****             }
 249:main.c        ****             if(distance < 30 / (lock.difficulty + 1)) {
 250:main.c        ****                 succes();
 251:main.c        ****             } else {
 252:main.c        ****                 i = lock.size;
 253:main.c        ****                 lose();
 254:main.c        ****             }
 255:main.c        ****             
 256:main.c        ****         }
 257:main.c        ****         free(lock.combination);
 258:main.c        ****         playing = 0;
 259:main.c        ****     }
 260:main.c        **** }
 261:main.c        **** 
 262:main.c        **** /*
 263:main.c        ****     NOTE:
 264:main.c        **** 
 265:main.c        ****     Everything from this point onwards is NOT my code.
 266:main.c        ****     The two functions are there to get the display working on
 267:main.c        ****     this specific micro controller.
 268:main.c        **** */
 269:main.c        **** 
 270:main.c        **** uint8_t psoc_gpio_and_delay_callback(u8x8_t *u8x8, uint8_t msg, 
 271:main.c        ****     uint8_t arg_int, void *arg_ptr) {
 161              		.loc 1 271 0
 162              		.cfi_startproc
 163              		@ args = 0, pretend = 0, frame = 0
 164              		@ frame_needed = 0, uses_anonymous_args = 0
 165              	.LVL22:
 166 0000 08B5     		push	{r3, lr}
 167              		.cfi_def_cfa_offset 8
 168              		.cfi_offset 3, -8
 169              		.cfi_offset 14, -4
 272:main.c        ****         (void) u8x8;
 273:main.c        ****         (void) arg_ptr;
 274:main.c        ****     
 275:main.c        ****         switch(msg) {
 170              		.loc 1 275 0
 171 0002 2A29     		cmp	r1, #42
 172 0004 07D0     		beq	.L16
 173 0006 2B29     		cmp	r1, #43
 174 0008 09D0     		beq	.L17
 175 000a 2929     		cmp	r1, #41
ARM GAS  C:\Users\brian\AppData\Local\Temp\ccSGzKju.s 			page 9


 176 000c 0AD1     		bne	.L15
 276:main.c        ****             case U8X8_MSG_GPIO_AND_DELAY_INIT:
 277:main.c        ****                 break;
 278:main.c        **** 
 279:main.c        ****             case U8X8_MSG_DELAY_MILLI:
 280:main.c        ****                 CyDelay(arg_int);
 177              		.loc 1 280 0
 178 000e 1046     		mov	r0, r2
 179              	.LVL23:
 180 0010 FFF7FEFF 		bl	CyDelay
 181              	.LVL24:
 281:main.c        ****                 break;
 182              		.loc 1 281 0
 183 0014 06E0     		b	.L15
 184              	.LVL25:
 185              	.L16:
 282:main.c        **** 
 283:main.c        ****             case U8X8_MSG_DELAY_10MICRO:
 284:main.c        ****                 CyDelayUs(10);
 186              		.loc 1 284 0
 187 0016 0A20     		movs	r0, #10
 188              	.LVL26:
 189 0018 FFF7FEFF 		bl	CyDelayUs
 190              	.LVL27:
 285:main.c        ****                 break;
 191              		.loc 1 285 0
 192 001c 02E0     		b	.L15
 193              	.LVL28:
 194              	.L17:
 286:main.c        **** 
 287:main.c        ****             case U8X8_MSG_DELAY_100NANO:
 288:main.c        ****                 CyDelayCycles(100);
 195              		.loc 1 288 0
 196 001e 6420     		movs	r0, #100
 197              	.LVL29:
 198 0020 FFF7FEFF 		bl	CyDelayCycles
 199              	.LVL30:
 200              	.L15:
 289:main.c        ****                 break;
 290:main.c        ****         }
 291:main.c        ****         return 1;
 292:main.c        **** }
 201              		.loc 1 292 0
 202 0024 0120     		movs	r0, #1
 203 0026 08BD     		pop	{r3, pc}
 204              		.cfi_endproc
 205              	.LFE73:
 206              		.size	psoc_gpio_and_delay_callback, .-psoc_gpio_and_delay_callback
 207              		.section	.text.u8x8_byte_hw_i2c,"ax",%progbits
 208              		.align	2
 209              		.global	u8x8_byte_hw_i2c
 210              		.thumb
 211              		.thumb_func
 212              		.type	u8x8_byte_hw_i2c, %function
 213              	u8x8_byte_hw_i2c:
 214              	.LFB74:
 293:main.c        **** 
ARM GAS  C:\Users\brian\AppData\Local\Temp\ccSGzKju.s 			page 10


 294:main.c        **** uint8_t u8x8_byte_hw_i2c(u8x8_t *u8x8, uint8_t msg, 
 295:main.c        ****     uint8_t arg_int, void *arg_ptr) {
 215              		.loc 1 295 0
 216              		.cfi_startproc
 217              		@ args = 0, pretend = 0, frame = 0
 218              		@ frame_needed = 0, uses_anonymous_args = 0
 219              	.LVL31:
 220 0000 38B5     		push	{r3, r4, r5, lr}
 221              		.cfi_def_cfa_offset 16
 222              		.cfi_offset 3, -16
 223              		.cfi_offset 4, -12
 224              		.cfi_offset 5, -8
 225              		.cfi_offset 14, -4
 226 0002 1446     		mov	r4, r2
 227 0004 1D46     		mov	r5, r3
 296:main.c        ****         uint8_t *data;
 297:main.c        **** 
 298:main.c        ****         switch(msg) {
 228              		.loc 1 298 0
 229 0006 1439     		subs	r1, r1, #20
 230              	.LVL32:
 231 0008 0C29     		cmp	r1, #12
 232 000a 08D8     		bhi	.L21
 233 000c DFE801F0 		tbb	[pc, r1]
 234              	.LVL33:
 235              	.L23:
 236 0010 1F       		.byte	(.L28-.L23)/2
 237 0011 07       		.byte	(.L21-.L23)/2
 238 0012 07       		.byte	(.L21-.L23)/2
 239 0013 0F       		.byte	(.L24-.L23)/2
 240 0014 13       		.byte	(.L25-.L23)/2
 241 0015 1B       		.byte	(.L26-.L23)/2
 242 0016 07       		.byte	(.L21-.L23)/2
 243 0017 07       		.byte	(.L21-.L23)/2
 244 0018 07       		.byte	(.L21-.L23)/2
 245 0019 07       		.byte	(.L21-.L23)/2
 246 001a 07       		.byte	(.L21-.L23)/2
 247 001b 07       		.byte	(.L21-.L23)/2
 248 001c 1F       		.byte	(.L28-.L23)/2
 249 001d 00       		.p2align 1
 250              	.L21:
 299:main.c        ****             case U8X8_MSG_BYTE_SEND:
 300:main.c        ****             data = (uint8_t *)arg_ptr;
 301:main.c        **** 
 302:main.c        ****             while(arg_int > 0) {
 303:main.c        ****                 (void) I2C_DISPLAY_MasterWriteByte(*data);
 304:main.c        ****                 data++;
 305:main.c        ****                 arg_int--;
 306:main.c        ****             }
 307:main.c        ****             break;
 308:main.c        **** 
 309:main.c        ****         case U8X8_MSG_BYTE_INIT:
 310:main.c        ****             break;
 311:main.c        **** 
 312:main.c        ****         case U8X8_MSG_BYTE_SET_DC:
 313:main.c        ****             break;
 314:main.c        **** 
ARM GAS  C:\Users\brian\AppData\Local\Temp\ccSGzKju.s 			page 11


 315:main.c        ****         case U8X8_MSG_BYTE_START_TRANSFER:
 316:main.c        ****             (void) I2C_DISPLAY_MasterSendStart(u8x8_GetI2CAddress(u8x8) >> 1, 
 317:main.c        ****                 I2C_DISPLAY_WRITE_XFER_MODE);
 318:main.c        ****             break;
 319:main.c        **** 
 320:main.c        ****         case U8X8_MSG_BYTE_END_TRANSFER:
 321:main.c        ****             (void) I2C_DISPLAY_MasterSendStop();
 322:main.c        ****             break;
 323:main.c        **** 
 324:main.c        ****         default:
 325:main.c        ****             return 0;
 251              		.loc 1 325 0
 252 001e 0020     		movs	r0, #0
 253              	.LVL34:
 254 0020 38BD     		pop	{r3, r4, r5, pc}
 255              	.LVL35:
 256              	.L27:
 303:main.c        ****                 data++;
 257              		.loc 1 303 0
 258 0022 15F8010B 		ldrb	r0, [r5], #1	@ zero_extendqisi2
 259              	.LVL36:
 260 0026 FFF7FEFF 		bl	I2C_DISPLAY_MasterWriteByte
 261              	.LVL37:
 305:main.c        ****             }
 262              		.loc 1 305 0
 263 002a 013C     		subs	r4, r4, #1
 264              	.LVL38:
 265 002c E4B2     		uxtb	r4, r4
 266              	.LVL39:
 267              	.L24:
 302:main.c        ****                 (void) I2C_DISPLAY_MasterWriteByte(*data);
 268              		.loc 1 302 0
 269 002e 002C     		cmp	r4, #0
 270 0030 F7D1     		bne	.L27
 326:main.c        ****         }
 327:main.c        ****         return 1;
 271              		.loc 1 327 0
 272 0032 0120     		movs	r0, #1
 273 0034 38BD     		pop	{r3, r4, r5, pc}
 274              	.LVL40:
 275              	.L25:
 316:main.c        ****                 I2C_DISPLAY_WRITE_XFER_MODE);
 276              		.loc 1 316 0
 277 0036 90F82400 		ldrb	r0, [r0, #36]	@ zero_extendqisi2
 278              	.LVL41:
 279 003a 0021     		movs	r1, #0
 280 003c 4008     		lsrs	r0, r0, #1
 281 003e FFF7FEFF 		bl	I2C_DISPLAY_MasterSendStart
 282              	.LVL42:
 283              		.loc 1 327 0
 284 0042 0120     		movs	r0, #1
 318:main.c        **** 
 285              		.loc 1 318 0
 286 0044 38BD     		pop	{r3, r4, r5, pc}
 287              	.LVL43:
 288              	.L26:
 321:main.c        ****             break;
ARM GAS  C:\Users\brian\AppData\Local\Temp\ccSGzKju.s 			page 12


 289              		.loc 1 321 0
 290 0046 FFF7FEFF 		bl	I2C_DISPLAY_MasterSendStop
 291              	.LVL44:
 292              		.loc 1 327 0
 293 004a 0120     		movs	r0, #1
 322:main.c        **** 
 294              		.loc 1 322 0
 295 004c 38BD     		pop	{r3, r4, r5, pc}
 296              	.LVL45:
 297              	.L28:
 298              		.loc 1 327 0
 299 004e 0120     		movs	r0, #1
 300              	.LVL46:
 328:main.c        **** }
 301              		.loc 1 328 0
 302 0050 38BD     		pop	{r3, r4, r5, pc}
 303              		.cfi_endproc
 304              	.LFE74:
 305              		.size	u8x8_byte_hw_i2c, .-u8x8_byte_hw_i2c
 306 0052 00BF     		.section	.text.display_msg,"ax",%progbits
 307              		.align	2
 308              		.global	display_msg
 309              		.thumb
 310              		.thumb_func
 311              		.type	display_msg, %function
 312              	display_msg:
 313              	.LFB65:
  63:main.c        ****     ISR_IR_Stop();
 314              		.loc 1 63 0
 315              		.cfi_startproc
 316              		@ args = 0, pretend = 0, frame = 0
 317              		@ frame_needed = 0, uses_anonymous_args = 0
 318              	.LVL47:
 319 0000 38B5     		push	{r3, r4, r5, lr}
 320              		.cfi_def_cfa_offset 16
 321              		.cfi_offset 3, -16
 322              		.cfi_offset 4, -12
 323              		.cfi_offset 5, -8
 324              		.cfi_offset 14, -4
 325 0002 0546     		mov	r5, r0
  64:main.c        ****     for(uint8_t i = 0; i < 4; i++) {
 326              		.loc 1 64 0
 327 0004 FFF7FEFF 		bl	ISR_IR_Stop
 328              	.LVL48:
 329              	.LBB5:
  65:main.c        ****         u8x8_DrawString(&EM2Display, 1, (i * 2) + 1, msg[i]);
 330              		.loc 1 65 0
 331 0008 0024     		movs	r4, #0
 332 000a 0AE0     		b	.L31
 333              	.LVL49:
 334              	.L32:
  66:main.c        ****     }
 335              		.loc 1 66 0 discriminator 3
 336 000c 6200     		lsls	r2, r4, #1
 337 000e 0132     		adds	r2, r2, #1
 338 0010 55F82430 		ldr	r3, [r5, r4, lsl #2]
 339 0014 D2B2     		uxtb	r2, r2
ARM GAS  C:\Users\brian\AppData\Local\Temp\ccSGzKju.s 			page 13


 340 0016 0121     		movs	r1, #1
 341 0018 0548     		ldr	r0, .L34
 342 001a FFF7FEFF 		bl	u8x8_DrawString
 343              	.LVL50:
  65:main.c        ****         u8x8_DrawString(&EM2Display, 1, (i * 2) + 1, msg[i]);
 344              		.loc 1 65 0 discriminator 3
 345 001e 0134     		adds	r4, r4, #1
 346              	.LVL51:
 347 0020 E4B2     		uxtb	r4, r4
 348              	.LVL52:
 349              	.L31:
  65:main.c        ****         u8x8_DrawString(&EM2Display, 1, (i * 2) + 1, msg[i]);
 350              		.loc 1 65 0 is_stmt 0 discriminator 1
 351 0022 032C     		cmp	r4, #3
 352 0024 F2D9     		bls	.L32
 353              	.LBE5:
  68:main.c        **** }
 354              		.loc 1 68 0 is_stmt 1
 355 0026 0348     		ldr	r0, .L34+4
 356 0028 FFF7FEFF 		bl	ISR_IR_StartEx
 357              	.LVL53:
 358 002c 38BD     		pop	{r3, r4, r5, pc}
 359              	.LVL54:
 360              	.L35:
 361 002e 00BF     		.align	2
 362              	.L34:
 363 0030 00000000 		.word	EM2Display
 364 0034 00000000 		.word	PIN_IR_InterruptHandler
 365              		.cfi_endproc
 366              	.LFE65:
 367              		.size	display_msg, .-display_msg
 368              		.global	__aeabi_ui2f
 369              		.global	__aeabi_fdiv
 370              		.global	__aeabi_f2d
 371              		.global	__aeabi_dmul
 372              		.global	__aeabi_dsub
 373              		.global	__aeabi_d2uiz
 374              		.section	.text.pick_difficulty,"ax",%progbits
 375              		.align	2
 376              		.global	pick_difficulty
 377              		.thumb
 378              		.thumb_func
 379              		.type	pick_difficulty, %function
 380              	pick_difficulty:
 381              	.LFB66:
  72:main.c        ****     const uint16_t maximum_output = 1023;
 382              		.loc 1 72 0
 383              		.cfi_startproc
 384              		@ args = 0, pretend = 0, frame = 16
 385              		@ frame_needed = 0, uses_anonymous_args = 0
 386 0000 10B5     		push	{r4, lr}
 387              		.cfi_def_cfa_offset 8
 388              		.cfi_offset 4, -8
 389              		.cfi_offset 14, -4
 390 0002 84B0     		sub	sp, sp, #16
 391              		.cfi_def_cfa_offset 24
 392              	.LVL55:
ARM GAS  C:\Users\brian\AppData\Local\Temp\ccSGzKju.s 			page 14


  76:main.c        ****     msg[1] = "   Easy        ";
 393              		.loc 1 76 0
 394 0004 344B     		ldr	r3, .L44+8
 395 0006 0093     		str	r3, [sp]
  77:main.c        ****     msg[2] = "   Medium      ";
 396              		.loc 1 77 0
 397 0008 344B     		ldr	r3, .L44+12
 398 000a 0193     		str	r3, [sp, #4]
  78:main.c        ****     msg[3] = "   Hard        ";
 399              		.loc 1 78 0
 400 000c 344B     		ldr	r3, .L44+16
 401 000e 0293     		str	r3, [sp, #8]
  79:main.c        ****     display_msg(msg);
 402              		.loc 1 79 0
 403 0010 344B     		ldr	r3, .L44+20
 404 0012 0393     		str	r3, [sp, #12]
  80:main.c        ****     
 405              		.loc 1 80 0
 406 0014 6846     		mov	r0, sp
 407 0016 FFF7FEFF 		bl	display_msg
 408              	.LVL56:
  82:main.c        ****     
 409              		.loc 1 82 0
 410 001a FFF7FEFF 		bl	ADC_POT_Start
 411              	.LVL57:
  85:main.c        ****     interrupt_flag = 0;
 412              		.loc 1 85 0
 413 001e 0023     		movs	r3, #0
 414 0020 314A     		ldr	r2, .L44+24
 415 0022 1370     		strb	r3, [r2]
  86:main.c        ****     while(!interrupt_flag) {
 416              		.loc 1 86 0
 417 0024 314A     		ldr	r2, .L44+28
 418 0026 1370     		strb	r3, [r2]
  87:main.c        ****         ADC_POT_StartConvert();
 419              		.loc 1 87 0
 420 0028 46E0     		b	.L37
 421              	.L42:
 422              	.LBB6:
  88:main.c        ****         ADC_POT_IsEndConversion(ADC_POT_WAIT_FOR_RESULT);
 423              		.loc 1 88 0
 424 002a FFF7FEFF 		bl	ADC_POT_StartConvert
 425              	.LVL58:
  89:main.c        ****         uint16_t output = ADC_POT_GetResult16();
 426              		.loc 1 89 0
 427 002e 0020     		movs	r0, #0
 428 0030 FFF7FEFF 		bl	ADC_POT_IsEndConversion
 429              	.LVL59:
  90:main.c        ****         
 430              		.loc 1 90 0
 431 0034 FFF7FEFF 		bl	ADC_POT_GetResult16
 432              	.LVL60:
  93:main.c        ****         
 433              		.loc 1 93 0
 434 0038 80B2     		uxth	r0, r0
 435 003a FFF7FEFF 		bl	__aeabi_ui2f
 436              	.LVL61:
ARM GAS  C:\Users\brian\AppData\Local\Temp\ccSGzKju.s 			page 15


 437 003e 2C49     		ldr	r1, .L44+32
 438 0040 FFF7FEFF 		bl	__aeabi_fdiv
 439              	.LVL62:
 440 0044 FFF7FEFF 		bl	__aeabi_f2d
 441              	.LVL63:
 442 0048 21A3     		adr	r3, .L44
 443 004a D3E90023 		ldrd	r2, [r3]
 444 004e FFF7FEFF 		bl	__aeabi_dmul
 445              	.LVL64:
 446 0052 0246     		mov	r2, r0
 447 0054 0B46     		mov	r3, r1
 448 0056 1EA1     		adr	r1, .L44
 449 0058 D1E90001 		ldrd	r0, [r1]
 450 005c FFF7FEFF 		bl	__aeabi_dsub
 451              	.LVL65:
 452 0060 FFF7FEFF 		bl	__aeabi_d2uiz
 453              	.LVL66:
 454 0064 204B     		ldr	r3, .L44+24
 455 0066 1870     		strb	r0, [r3]
  95:main.c        ****         for(uint8_t i = 0; i < 3; i++) {
 456              		.loc 1 95 0
 457 0068 FFF7FEFF 		bl	ISR_IR_Stop
 458              	.LVL67:
 459              	.LBB7:
  96:main.c        ****             if(i == line_selection) {
 460              		.loc 1 96 0
 461 006c 0024     		movs	r4, #0
 462 006e 16E0     		b	.L38
 463              	.LVL68:
 464              	.L41:
  97:main.c        ****                     u8x8_DrawString(&EM2Display, 2, (i * 2) + 3, ">");
 465              		.loc 1 97 0
 466 0070 1D4B     		ldr	r3, .L44+24
 467 0072 1B78     		ldrb	r3, [r3]	@ zero_extendqisi2
 468 0074 9C42     		cmp	r4, r3
 469 0076 08D1     		bne	.L39
  98:main.c        ****             } else {
 470              		.loc 1 98 0
 471 0078 6200     		lsls	r2, r4, #1
 472 007a 0332     		adds	r2, r2, #3
 473 007c 1D4B     		ldr	r3, .L44+36
 474 007e D2B2     		uxtb	r2, r2
 475 0080 0221     		movs	r1, #2
 476 0082 1D48     		ldr	r0, .L44+40
 477 0084 FFF7FEFF 		bl	u8x8_DrawString
 478              	.LVL69:
 479 0088 07E0     		b	.L40
 480              	.L39:
 100:main.c        ****             }
 481              		.loc 1 100 0
 482 008a 6200     		lsls	r2, r4, #1
 483 008c 0332     		adds	r2, r2, #3
 484 008e 1B4B     		ldr	r3, .L44+44
 485 0090 D2B2     		uxtb	r2, r2
 486 0092 0221     		movs	r1, #2
 487 0094 1848     		ldr	r0, .L44+40
 488 0096 FFF7FEFF 		bl	u8x8_DrawString
ARM GAS  C:\Users\brian\AppData\Local\Temp\ccSGzKju.s 			page 16


 489              	.LVL70:
 490              	.L40:
  96:main.c        ****             if(i == line_selection) {
 491              		.loc 1 96 0 discriminator 2
 492 009a 0134     		adds	r4, r4, #1
 493              	.LVL71:
 494 009c E4B2     		uxtb	r4, r4
 495              	.LVL72:
 496              	.L38:
  96:main.c        ****             if(i == line_selection) {
 497              		.loc 1 96 0 is_stmt 0 discriminator 1
 498 009e 022C     		cmp	r4, #2
 499 00a0 E6D9     		bls	.L41
 500              	.LBE7:
 103:main.c        ****         pick_dif_rep++;
 501              		.loc 1 103 0 is_stmt 1
 502 00a2 1748     		ldr	r0, .L44+48
 503 00a4 FFF7FEFF 		bl	ISR_IR_StartEx
 504              	.LVL73:
 104:main.c        ****     }
 505              		.loc 1 104 0
 506 00a8 1049     		ldr	r1, .L44+28
 507 00aa D1E90223 		ldrd	r2, [r1, #8]
 508 00ae 0132     		adds	r2, r2, #1
 509 00b0 43F10003 		adc	r3, r3, #0
 510 00b4 C1E90223 		strd	r2, [r1, #8]
 511              	.LVL74:
 512              	.L37:
 513              	.LBE6:
  87:main.c        ****         ADC_POT_StartConvert();
 514              		.loc 1 87 0
 515 00b8 0C4B     		ldr	r3, .L44+28
 516 00ba 1B78     		ldrb	r3, [r3]	@ zero_extendqisi2
 517 00bc 002B     		cmp	r3, #0
 518 00be B4D0     		beq	.L42
 106:main.c        ****     
 519              		.loc 1 106 0
 520 00c0 FFF7FEFF 		bl	ADC_POT_Stop
 521              	.LVL75:
 109:main.c        **** 
 522              		.loc 1 109 0
 523 00c4 084B     		ldr	r3, .L44+24
 524 00c6 1878     		ldrb	r0, [r3]	@ zero_extendqisi2
 525 00c8 04B0     		add	sp, sp, #16
 526              		.cfi_def_cfa_offset 8
 527              		@ sp needed
 528 00ca 10BD     		pop	{r4, pc}
 529              	.L45:
 530 00cc AFF30080 		.align	3
 531              	.L44:
 532 00d0 EC51B81E 		.word	515396076
 533 00d4 85EB0740 		.word	1074260869
 534 00d8 10000000 		.word	.LC1
 535 00dc 20000000 		.word	.LC2
 536 00e0 30000000 		.word	.LC3
 537 00e4 40000000 		.word	.LC4
 538 00e8 00000000 		.word	line_selection
ARM GAS  C:\Users\brian\AppData\Local\Temp\ccSGzKju.s 			page 17


 539 00ec 00000000 		.word	.LANCHOR0
 540 00f0 00C07F44 		.word	1149222912
 541 00f4 50000000 		.word	.LC5
 542 00f8 00000000 		.word	EM2Display
 543 00fc 54000000 		.word	.LC6
 544 0100 00000000 		.word	PIN_IR_InterruptHandler
 545              		.cfi_endproc
 546              	.LFE66:
 547              		.size	pick_difficulty, .-pick_difficulty
 548              		.section	.text.generate_lock,"ax",%progbits
 549              		.align	2
 550              		.global	generate_lock
 551              		.thumb
 552              		.thumb_func
 553              		.type	generate_lock, %function
 554              	generate_lock:
 555              	.LFB67:
 112:main.c        ****     struct Locks lock;
 556              		.loc 1 112 0
 557              		.cfi_startproc
 558              		@ args = 0, pretend = 0, frame = 0
 559              		@ frame_needed = 0, uses_anonymous_args = 0
 560              	.LVL76:
 561 0000 F8B5     		push	{r3, r4, r5, r6, r7, lr}
 562              		.cfi_def_cfa_offset 24
 563              		.cfi_offset 3, -24
 564              		.cfi_offset 4, -20
 565              		.cfi_offset 5, -16
 566              		.cfi_offset 6, -12
 567              		.cfi_offset 7, -8
 568              		.cfi_offset 14, -4
 569 0002 0746     		mov	r7, r0
 114:main.c        ****     lock.size = (lock.difficulty + 1) * 2;
 570              		.loc 1 114 0
 571 0004 0170     		strb	r1, [r0]
 115:main.c        ****     
 572              		.loc 1 115 0
 573 0006 4D1C     		adds	r5, r1, #1
 574 0008 6D00     		lsls	r5, r5, #1
 575 000a EDB2     		uxtb	r5, r5
 576 000c 0572     		strb	r5, [r0, #8]
 118:main.c        ****     
 577              		.loc 1 118 0
 578 000e 6800     		lsls	r0, r5, #1
 579              	.LVL77:
 580 0010 FFF7FEFF 		bl	malloc
 581              	.LVL78:
 582 0014 0646     		mov	r6, r0
 583 0016 7860     		str	r0, [r7, #4]
 122:main.c        ****     for(uint8_t i = 0; i < lock.size; i++) {
 584              		.loc 1 122 0
 585 0018 0C4B     		ldr	r3, .L50
 586 001a 9868     		ldr	r0, [r3, #8]
 587 001c FFF7FEFF 		bl	srand
 588              	.LVL79:
 589              	.LBB8:
 123:main.c        ****         lock.combination[i] = rand() % 1023;
ARM GAS  C:\Users\brian\AppData\Local\Temp\ccSGzKju.s 			page 18


 590              		.loc 1 123 0
 591 0020 0024     		movs	r4, #0
 592 0022 0FE0     		b	.L47
 593              	.LVL80:
 594              	.L48:
 124:main.c        ****     }
 595              		.loc 1 124 0 discriminator 3
 596 0024 FFF7FEFF 		bl	rand
 597              	.LVL81:
 598 0028 094A     		ldr	r2, .L50+4
 599 002a 80FB0223 		smull	r2, r3, r0, r2
 600 002e C218     		adds	r2, r0, r3
 601 0030 C317     		asrs	r3, r0, #31
 602 0032 C3EB6223 		rsb	r3, r3, r2, asr #9
 603 0036 C3EB8323 		rsb	r3, r3, r3, lsl #10
 604 003a C31A     		subs	r3, r0, r3
 605 003c 26F81430 		strh	r3, [r6, r4, lsl #1]	@ movhi
 123:main.c        ****         lock.combination[i] = rand() % 1023;
 606              		.loc 1 123 0 discriminator 3
 607 0040 0134     		adds	r4, r4, #1
 608              	.LVL82:
 609 0042 E4B2     		uxtb	r4, r4
 610              	.LVL83:
 611              	.L47:
 123:main.c        ****         lock.combination[i] = rand() % 1023;
 612              		.loc 1 123 0 is_stmt 0 discriminator 1
 613 0044 AC42     		cmp	r4, r5
 614 0046 EDD3     		bcc	.L48
 615              	.LBE8:
 128:main.c        **** 
 616              		.loc 1 128 0 is_stmt 1
 617 0048 3846     		mov	r0, r7
 618 004a F8BD     		pop	{r3, r4, r5, r6, r7, pc}
 619              	.LVL84:
 620              	.L51:
 621              		.align	2
 622              	.L50:
 623 004c 00000000 		.word	.LANCHOR0
 624 0050 03082080 		.word	-2145384445
 625              		.cfi_endproc
 626              	.LFE67:
 627              		.size	generate_lock, .-generate_lock
 628              		.section	.text.get_distance,"ax",%progbits
 629              		.align	2
 630              		.global	get_distance
 631              		.thumb
 632              		.thumb_func
 633              		.type	get_distance, %function
 634              	get_distance:
 635              	.LFB68:
 131:main.c        ****     ADC_POT_Start();
 636              		.loc 1 131 0
 637              		.cfi_startproc
 638              		@ args = 0, pretend = 0, frame = 0
 639              		@ frame_needed = 0, uses_anonymous_args = 0
 640              	.LVL85:
 641 0000 10B5     		push	{r4, lr}
ARM GAS  C:\Users\brian\AppData\Local\Temp\ccSGzKju.s 			page 19


 642              		.cfi_def_cfa_offset 8
 643              		.cfi_offset 4, -8
 644              		.cfi_offset 14, -4
 645 0002 0446     		mov	r4, r0
 132:main.c        ****     ADC_POT_StartConvert();
 646              		.loc 1 132 0
 647 0004 FFF7FEFF 		bl	ADC_POT_Start
 648              	.LVL86:
 133:main.c        ****     ADC_POT_IsEndConversion(ADC_POT_WAIT_FOR_RESULT);
 649              		.loc 1 133 0
 650 0008 FFF7FEFF 		bl	ADC_POT_StartConvert
 651              	.LVL87:
 134:main.c        ****     uint16_t output = ADC_POT_GetResult16();
 652              		.loc 1 134 0
 653 000c 0020     		movs	r0, #0
 654 000e FFF7FEFF 		bl	ADC_POT_IsEndConversion
 655              	.LVL88:
 135:main.c        ****     
 656              		.loc 1 135 0
 657 0012 FFF7FEFF 		bl	ADC_POT_GetResult16
 658              	.LVL89:
 659 0016 80B2     		uxth	r0, r0
 660              	.LVL90:
 137:main.c        ****     
 661              		.loc 1 137 0
 662 0018 001B     		subs	r0, r0, r4
 663              	.LVL91:
 664 001a 0028     		cmp	r0, #0
 665 001c B8BF     		it	lt
 666 001e 4042     		rsblt	r0, r0, #0
 667              	.LVL92:
 140:main.c        **** 
 668              		.loc 1 140 0
 669 0020 80B2     		uxth	r0, r0
 670 0022 10BD     		pop	{r4, pc}
 671              		.cfi_endproc
 672              	.LFE68:
 673              		.size	get_distance, .-get_distance
 674              		.global	__aeabi_fmul
 675              		.global	__aeabi_fadd
 676              		.global	__aeabi_f2uiz
 677              		.section	.text.set_pwm_speed,"ax",%progbits
 678              		.align	2
 679              		.global	set_pwm_speed
 680              		.thumb
 681              		.thumb_func
 682              		.type	set_pwm_speed, %function
 683              	set_pwm_speed:
 684              	.LFB69:
 143:main.c        ****     const uint16_t max_period = 1000;
 685              		.loc 1 143 0
 686              		.cfi_startproc
 687              		@ args = 0, pretend = 0, frame = 0
 688              		@ frame_needed = 0, uses_anonymous_args = 0
 689              	.LVL93:
 690 0000 38B5     		push	{r3, r4, r5, lr}
 691              		.cfi_def_cfa_offset 16
ARM GAS  C:\Users\brian\AppData\Local\Temp\ccSGzKju.s 			page 20


 692              		.cfi_offset 3, -16
 693              		.cfi_offset 4, -12
 694              		.cfi_offset 5, -8
 695              		.cfi_offset 14, -4
 696              	.LVL94:
 145:main.c        ****     if(distance < minimum_range) {
 697              		.loc 1 145 0
 698 0002 C1F10301 		rsb	r1, r1, #3
 699              	.LVL95:
 700 0006 01EB8101 		add	r1, r1, r1, lsl #2
 701 000a C1EB0111 		rsb	r1, r1, r1, lsl #4
 702 000e CCB2     		uxtb	r4, r1
 703              	.LVL96:
 146:main.c        ****         float percentage = (float) distance / (float) minimum_range;
 704              		.loc 1 146 0
 705 0010 A3B2     		uxth	r3, r4
 706 0012 8342     		cmp	r3, r0
 707 0014 22D9     		bls	.L55
 708              	.LBB9:
 147:main.c        ****         PWM_BUZZER_WritePeriod(percentage * max_period + 50);
 709              		.loc 1 147 0
 710 0016 FFF7FEFF 		bl	__aeabi_ui2f
 711              	.LVL97:
 712 001a 0546     		mov	r5, r0
 713 001c 2046     		mov	r0, r4
 714 001e FFF7FEFF 		bl	__aeabi_ui2f
 715              	.LVL98:
 716 0022 0146     		mov	r1, r0
 717 0024 2846     		mov	r0, r5
 718 0026 FFF7FEFF 		bl	__aeabi_fdiv
 719              	.LVL99:
 720 002a 0446     		mov	r4, r0
 721              	.LVL100:
 148:main.c        ****         PWM_BUZZER_WriteCompare(percentage * (max_period / 4) + 75);
 722              		.loc 1 148 0
 723 002c 0D49     		ldr	r1, .L58
 724 002e FFF7FEFF 		bl	__aeabi_fmul
 725              	.LVL101:
 726 0032 0D49     		ldr	r1, .L58+4
 727 0034 FFF7FEFF 		bl	__aeabi_fadd
 728              	.LVL102:
 729 0038 FFF7FEFF 		bl	__aeabi_f2uiz
 730              	.LVL103:
 731 003c 80B2     		uxth	r0, r0
 732 003e FFF7FEFF 		bl	PWM_BUZZER_WritePeriod
 733              	.LVL104:
 149:main.c        ****     } else {
 734              		.loc 1 149 0
 735 0042 0A49     		ldr	r1, .L58+8
 736 0044 2046     		mov	r0, r4
 737 0046 FFF7FEFF 		bl	__aeabi_fmul
 738              	.LVL105:
 739 004a 0949     		ldr	r1, .L58+12
 740 004c FFF7FEFF 		bl	__aeabi_fadd
 741              	.LVL106:
 742 0050 FFF7FEFF 		bl	__aeabi_f2uiz
 743              	.LVL107:
ARM GAS  C:\Users\brian\AppData\Local\Temp\ccSGzKju.s 			page 21


 744 0054 80B2     		uxth	r0, r0
 745 0056 FFF7FEFF 		bl	PWM_BUZZER_WriteCompare
 746              	.LVL108:
 747              	.LBE9:
 748 005a 38BD     		pop	{r3, r4, r5, pc}
 749              	.LVL109:
 750              	.L55:
 151:main.c        ****     }
 751              		.loc 1 151 0
 752 005c 0020     		movs	r0, #0
 753              	.LVL110:
 754 005e FFF7FEFF 		bl	PWM_BUZZER_WriteCompare
 755              	.LVL111:
 756 0062 38BD     		pop	{r3, r4, r5, pc}
 757              	.LVL112:
 758              	.L59:
 759              		.align	2
 760              	.L58:
 761 0064 00007A44 		.word	1148846080
 762 0068 00004842 		.word	1112014848
 763 006c 00007A43 		.word	1132068864
 764 0070 00009642 		.word	1117126656
 765              		.cfi_endproc
 766              	.LFE69:
 767              		.size	set_pwm_speed, .-set_pwm_speed
 768              		.section	.text.lose,"ax",%progbits
 769              		.align	2
 770              		.global	lose
 771              		.thumb
 772              		.thumb_func
 773              		.type	lose, %function
 774              	lose:
 775              	.LFB70:
 155:main.c        ****     char *msg[4];
 776              		.loc 1 155 0
 777              		.cfi_startproc
 778              		@ args = 0, pretend = 0, frame = 16
 779              		@ frame_needed = 0, uses_anonymous_args = 0
 780 0000 30B5     		push	{r4, r5, lr}
 781              		.cfi_def_cfa_offset 12
 782              		.cfi_offset 4, -12
 783              		.cfi_offset 5, -8
 784              		.cfi_offset 14, -4
 785 0002 85B0     		sub	sp, sp, #20
 786              		.cfi_def_cfa_offset 32
 157:main.c        ****     msg[1] = "| You lost :) |";
 787              		.loc 1 157 0
 788 0004 184B     		ldr	r3, .L68
 789 0006 0093     		str	r3, [sp]
 158:main.c        ****     msg[2] = "===============";
 790              		.loc 1 158 0
 791 0008 184A     		ldr	r2, .L68+4
 792 000a 0192     		str	r2, [sp, #4]
 159:main.c        ****     msg[3] = "               ";
 793              		.loc 1 159 0
 794 000c 0293     		str	r3, [sp, #8]
 160:main.c        ****     display_msg(msg);
ARM GAS  C:\Users\brian\AppData\Local\Temp\ccSGzKju.s 			page 22


 795              		.loc 1 160 0
 796 000e 184B     		ldr	r3, .L68+8
 797 0010 0393     		str	r3, [sp, #12]
 161:main.c        ****     
 798              		.loc 1 161 0
 799 0012 6846     		mov	r0, sp
 800 0014 FFF7FEFF 		bl	display_msg
 801              	.LVL113:
 163:main.c        ****     for(uint8_t i = 0; i < 5; i++) {
 802              		.loc 1 163 0
 803 0018 FFF7FEFF 		bl	PWM_ALARM_Start
 804              	.LVL114:
 805              	.LBB10:
 164:main.c        ****         for(uint16_t j = 0; j < PWM_ALARM_ReadPeriod(); j++) {
 806              		.loc 1 164 0
 807 001c 0025     		movs	r5, #0
 808 001e 1DE0     		b	.L61
 809              	.LVL115:
 810              	.L62:
 811              	.LBB11:
 166:main.c        ****             CyDelay(1);
 812              		.loc 1 166 0 discriminator 3
 813 0020 2046     		mov	r0, r4
 814 0022 FFF7FEFF 		bl	PWM_ALARM_WriteCompare
 815              	.LVL116:
 167:main.c        ****         }
 816              		.loc 1 167 0 discriminator 3
 817 0026 0120     		movs	r0, #1
 818 0028 FFF7FEFF 		bl	CyDelay
 819              	.LVL117:
 165:main.c        ****             PWM_ALARM_WriteCompare(j);
 820              		.loc 1 165 0 discriminator 3
 821 002c 0134     		adds	r4, r4, #1
 822              	.LVL118:
 823 002e A4B2     		uxth	r4, r4
 824              	.LVL119:
 825 0030 00E0     		b	.L65
 826              	.LVL120:
 827              	.L66:
 828              	.LBE11:
 829 0032 0024     		movs	r4, #0
 830              	.L65:
 831              	.LVL121:
 832              	.LBB12:
 165:main.c        ****             PWM_ALARM_WriteCompare(j);
 833              		.loc 1 165 0 is_stmt 0 discriminator 1
 834 0034 FFF7FEFF 		bl	PWM_ALARM_ReadPeriod
 835              	.LVL122:
 836 0038 8442     		cmp	r4, r0
 837 003a F1D3     		bcc	.L62
 838              	.LBE12:
 839              	.LBB13:
 169:main.c        ****             PWM_ALARM_WriteCompare(j);
 840              		.loc 1 169 0 is_stmt 1
 841 003c FFF7FEFF 		bl	PWM_ALARM_ReadPeriod
 842              	.LVL123:
 843 0040 0446     		mov	r4, r0
ARM GAS  C:\Users\brian\AppData\Local\Temp\ccSGzKju.s 			page 23


 844              	.LVL124:
 845 0042 07E0     		b	.L63
 846              	.L64:
 170:main.c        ****             CyDelay(1);
 847              		.loc 1 170 0 discriminator 3
 848 0044 2046     		mov	r0, r4
 849 0046 FFF7FEFF 		bl	PWM_ALARM_WriteCompare
 850              	.LVL125:
 171:main.c        ****         }
 851              		.loc 1 171 0 discriminator 3
 852 004a 0120     		movs	r0, #1
 853 004c FFF7FEFF 		bl	CyDelay
 854              	.LVL126:
 169:main.c        ****             PWM_ALARM_WriteCompare(j);
 855              		.loc 1 169 0 discriminator 3
 856 0050 013C     		subs	r4, r4, #1
 857              	.LVL127:
 858 0052 A4B2     		uxth	r4, r4
 859              	.LVL128:
 860              	.L63:
 169:main.c        ****             PWM_ALARM_WriteCompare(j);
 861              		.loc 1 169 0 is_stmt 0 discriminator 1
 862 0054 002C     		cmp	r4, #0
 863 0056 F5D1     		bne	.L64
 864              	.LBE13:
 164:main.c        ****         for(uint16_t j = 0; j < PWM_ALARM_ReadPeriod(); j++) {
 865              		.loc 1 164 0 is_stmt 1 discriminator 2
 866 0058 0135     		adds	r5, r5, #1
 867              	.LVL129:
 868 005a EDB2     		uxtb	r5, r5
 869              	.LVL130:
 870              	.L61:
 164:main.c        ****         for(uint16_t j = 0; j < PWM_ALARM_ReadPeriod(); j++) {
 871              		.loc 1 164 0 is_stmt 0 discriminator 1
 872 005c 042D     		cmp	r5, #4
 873 005e E8D9     		bls	.L66
 874              	.LBE10:
 174:main.c        **** }
 875              		.loc 1 174 0 is_stmt 1
 876 0060 FFF7FEFF 		bl	PWM_ALARM_Stop
 877              	.LVL131:
 175:main.c        **** 
 878              		.loc 1 175 0
 879 0064 05B0     		add	sp, sp, #20
 880              		.cfi_def_cfa_offset 12
 881              		@ sp needed
 882 0066 30BD     		pop	{r4, r5, pc}
 883              	.LVL132:
 884              	.L69:
 885              		.align	2
 886              	.L68:
 887 0068 58000000 		.word	.LC7
 888 006c 68000000 		.word	.LC8
 889 0070 78000000 		.word	.LC9
 890              		.cfi_endproc
 891              	.LFE70:
 892              		.size	lose, .-lose
ARM GAS  C:\Users\brian\AppData\Local\Temp\ccSGzKju.s 			page 24


 893              		.section	.text.succes,"ax",%progbits
 894              		.align	2
 895              		.global	succes
 896              		.thumb
 897              		.thumb_func
 898              		.type	succes, %function
 899              	succes:
 900              	.LFB71:
 177:main.c        ****     char *msg[4];
 901              		.loc 1 177 0
 902              		.cfi_startproc
 903              		@ args = 0, pretend = 0, frame = 16
 904              		@ frame_needed = 0, uses_anonymous_args = 0
 905 0000 10B5     		push	{r4, lr}
 906              		.cfi_def_cfa_offset 8
 907              		.cfi_offset 4, -8
 908              		.cfi_offset 14, -4
 909 0002 84B0     		sub	sp, sp, #16
 910              		.cfi_def_cfa_offset 24
 179:main.c        ****     msg[1] = "|  Good Job   |";
 911              		.loc 1 179 0
 912 0004 154B     		ldr	r3, .L76
 913 0006 0093     		str	r3, [sp]
 180:main.c        ****     msg[2] = "===============";
 914              		.loc 1 180 0
 915 0008 154A     		ldr	r2, .L76+4
 916 000a 0192     		str	r2, [sp, #4]
 181:main.c        ****     msg[3] = "               ";
 917              		.loc 1 181 0
 918 000c 0293     		str	r3, [sp, #8]
 182:main.c        ****     display_msg(msg);
 919              		.loc 1 182 0
 920 000e 154B     		ldr	r3, .L76+8
 921 0010 0393     		str	r3, [sp, #12]
 183:main.c        ****     
 922              		.loc 1 183 0
 923 0012 6846     		mov	r0, sp
 924 0014 FFF7FEFF 		bl	display_msg
 925              	.LVL133:
 185:main.c        ****     for(uint16_t i = 0; i < PWM_O_LED_ReadPeriod(); i++) {
 926              		.loc 1 185 0
 927 0018 FFF7FEFF 		bl	PWM_O_LED_Start
 928              	.LVL134:
 929              	.LBB14:
 186:main.c        ****         PWM_O_LED_WriteCompare(i);
 930              		.loc 1 186 0
 931 001c 0024     		movs	r4, #0
 932 001e 07E0     		b	.L71
 933              	.LVL135:
 934              	.L72:
 187:main.c        ****         CyDelay(1);
 935              		.loc 1 187 0 discriminator 3
 936 0020 2046     		mov	r0, r4
 937 0022 FFF7FEFF 		bl	PWM_O_LED_WriteCompare
 938              	.LVL136:
 188:main.c        ****     } for(uint16_t i = PWM_O_LED_ReadPeriod(); i > 0; i--) {
 939              		.loc 1 188 0 discriminator 3
ARM GAS  C:\Users\brian\AppData\Local\Temp\ccSGzKju.s 			page 25


 940 0026 0120     		movs	r0, #1
 941 0028 FFF7FEFF 		bl	CyDelay
 942              	.LVL137:
 186:main.c        ****         PWM_O_LED_WriteCompare(i);
 943              		.loc 1 186 0 discriminator 3
 944 002c 0134     		adds	r4, r4, #1
 945              	.LVL138:
 946 002e A4B2     		uxth	r4, r4
 947              	.LVL139:
 948              	.L71:
 186:main.c        ****         PWM_O_LED_WriteCompare(i);
 949              		.loc 1 186 0 is_stmt 0 discriminator 1
 950 0030 FFF7FEFF 		bl	PWM_O_LED_ReadPeriod
 951              	.LVL140:
 952 0034 8442     		cmp	r4, r0
 953 0036 F3D3     		bcc	.L72
 954              	.LBE14:
 955              	.LBB15:
 189:main.c        ****         PWM_O_LED_WriteCompare(i);
 956              		.loc 1 189 0 is_stmt 1
 957 0038 FFF7FEFF 		bl	PWM_O_LED_ReadPeriod
 958              	.LVL141:
 959 003c 0446     		mov	r4, r0
 960              	.LVL142:
 961 003e 07E0     		b	.L73
 962              	.L74:
 190:main.c        ****         CyDelay(1);
 963              		.loc 1 190 0 discriminator 3
 964 0040 2046     		mov	r0, r4
 965 0042 FFF7FEFF 		bl	PWM_O_LED_WriteCompare
 966              	.LVL143:
 191:main.c        ****     }
 967              		.loc 1 191 0 discriminator 3
 968 0046 0120     		movs	r0, #1
 969 0048 FFF7FEFF 		bl	CyDelay
 970              	.LVL144:
 189:main.c        ****         PWM_O_LED_WriteCompare(i);
 971              		.loc 1 189 0 discriminator 3
 972 004c 013C     		subs	r4, r4, #1
 973              	.LVL145:
 974 004e A4B2     		uxth	r4, r4
 975              	.LVL146:
 976              	.L73:
 189:main.c        ****         PWM_O_LED_WriteCompare(i);
 977              		.loc 1 189 0 is_stmt 0 discriminator 1
 978 0050 002C     		cmp	r4, #0
 979 0052 F5D1     		bne	.L74
 980              	.LBE15:
 193:main.c        **** }
 981              		.loc 1 193 0 is_stmt 1
 982 0054 FFF7FEFF 		bl	PWM_O_LED_Stop
 983              	.LVL147:
 194:main.c        **** 
 984              		.loc 1 194 0
 985 0058 04B0     		add	sp, sp, #16
 986              		.cfi_def_cfa_offset 8
 987              		@ sp needed
ARM GAS  C:\Users\brian\AppData\Local\Temp\ccSGzKju.s 			page 26


 988 005a 10BD     		pop	{r4, pc}
 989              	.LVL148:
 990              	.L77:
 991              		.align	2
 992              	.L76:
 993 005c 58000000 		.word	.LC7
 994 0060 88000000 		.word	.LC10
 995 0064 78000000 		.word	.LC9
 996              		.cfi_endproc
 997              	.LFE71:
 998              		.size	succes, .-succes
 999              		.section	.text.main,"ax",%progbits
 1000              		.align	2
 1001              		.global	main
 1002              		.thumb
 1003              		.thumb_func
 1004              		.type	main, %function
 1005              	main:
 1006              	.LFB72:
 198:main.c        ****     
 1007              		.loc 1 198 0
 1008              		.cfi_startproc
 1009              		@ args = 0, pretend = 0, frame = 48
 1010              		@ frame_needed = 0, uses_anonymous_args = 0
 1011 0000 70B5     		push	{r4, r5, r6, lr}
 1012              		.cfi_def_cfa_offset 16
 1013              		.cfi_offset 4, -16
 1014              		.cfi_offset 5, -12
 1015              		.cfi_offset 6, -8
 1016              		.cfi_offset 14, -4
 1017 0002 8EB0     		sub	sp, sp, #56
 1018              		.cfi_def_cfa_offset 72
 200:main.c        ****     
 1019              		.loc 1 200 0
 1020              		.syntax unified
 1021              	@ 200 "main.c" 1
 1022 0004 62B6     		CPSIE   i
 1023              	@ 0 "" 2
 203:main.c        ****     
 1024              		.loc 1 203 0
 1025              		.thumb
 1026              		.syntax unified
 1027 0006 FFF7FEFF 		bl	I2C_DISPLAY_Start
 1028              	.LVL149:
 205:main.c        ****         u8x8_cad_ssd13xx_i2c, u8x8_byte_hw_i2c, 
 1029              		.loc 1 205 0
 1030 000a 374C     		ldr	r4, .L87
 1031 000c 374B     		ldr	r3, .L87+4
 1032 000e 0093     		str	r3, [sp]
 1033 0010 374B     		ldr	r3, .L87+8
 1034 0012 384A     		ldr	r2, .L87+12
 1035 0014 3849     		ldr	r1, .L87+16
 1036 0016 2046     		mov	r0, r4
 1037 0018 FFF7FEFF 		bl	u8x8_Setup
 1038              	.LVL150:
 209:main.c        ****     u8x8_SetPowerSave(&EM2Display, 0);
 1039              		.loc 1 209 0
ARM GAS  C:\Users\brian\AppData\Local\Temp\ccSGzKju.s 			page 27


 1040 001c 2046     		mov	r0, r4
 1041 001e FFF7FEFF 		bl	u8x8_InitDisplay
 1042              	.LVL151:
 210:main.c        ****     u8x8_ClearDisplay(&EM2Display);
 1043              		.loc 1 210 0
 1044 0022 0021     		movs	r1, #0
 1045 0024 2046     		mov	r0, r4
 1046 0026 FFF7FEFF 		bl	u8x8_SetPowerSave
 1047              	.LVL152:
 211:main.c        ****     u8x8_SetFont(&EM2Display, u8x8_font_amstrad_cpc_extended_f);
 1048              		.loc 1 211 0
 1049 002a 2046     		mov	r0, r4
 1050 002c FFF7FEFF 		bl	u8x8_ClearDisplay
 1051              	.LVL153:
 212:main.c        ****     
 1052              		.loc 1 212 0
 1053 0030 3249     		ldr	r1, .L87+20
 1054 0032 2046     		mov	r0, r4
 1055 0034 FFF7FEFF 		bl	u8x8_SetFont
 1056              	.LVL154:
 215:main.c        ****     
 1057              		.loc 1 215 0
 1058 0038 3148     		ldr	r0, .L87+24
 1059 003a FFF7FEFF 		bl	ISR_IR_StartEx
 1060              	.LVL155:
 219:main.c        ****     msg[1] = "TI EM2";
 1061              		.loc 1 219 0
 1062 003e 314B     		ldr	r3, .L87+28
 1063 0040 0A93     		str	r3, [sp, #40]
 220:main.c        ****     msg[2] = "";
 1064              		.loc 1 220 0
 1065 0042 314B     		ldr	r3, .L87+32
 1066 0044 0B93     		str	r3, [sp, #44]
 221:main.c        ****     msg[3] = "Lab 7 Project";
 1067              		.loc 1 221 0
 1068 0046 314B     		ldr	r3, .L87+36
 1069 0048 0C93     		str	r3, [sp, #48]
 222:main.c        ****     display_msg(msg);
 1070              		.loc 1 222 0
 1071 004a 314B     		ldr	r3, .L87+40
 1072 004c 0D93     		str	r3, [sp, #52]
 223:main.c        ****     CyDelay(2000);
 1073              		.loc 1 223 0
 1074 004e 0AA8     		add	r0, sp, #40
 1075 0050 FFF7FEFF 		bl	display_msg
 1076              	.LVL156:
 224:main.c        ****     
 1077              		.loc 1 224 0
 1078 0054 4FF4FA60 		mov	r0, #2000
 1079 0058 FFF7FEFF 		bl	CyDelay
 1080              	.LVL157:
 1081              	.L85:
 1082              	.LBB16:
 229:main.c        ****         struct Locks lock = generate_lock(difficulty);
 1083              		.loc 1 229 0
 1084 005c FFF7FEFF 		bl	pick_difficulty
 1085              	.LVL158:
ARM GAS  C:\Users\brian\AppData\Local\Temp\ccSGzKju.s 			page 28


 230:main.c        ****         
 1086              		.loc 1 230 0
 1087 0060 0146     		mov	r1, r0
 1088 0062 03A8     		add	r0, sp, #12
 1089              	.LVL159:
 1090 0064 FFF7FEFF 		bl	generate_lock
 1091              	.LVL160:
 232:main.c        ****         for(uint8_t i = 0; i < lock.size; i++) {
 1092              		.loc 1 232 0
 1093 0068 0122     		movs	r2, #1
 1094 006a 2A4B     		ldr	r3, .L87+44
 1095 006c 5A70     		strb	r2, [r3, #1]
 1096              	.LVL161:
 1097              	.LBB17:
 233:main.c        ****             char *msg[4];
 1098              		.loc 1 233 0
 1099 006e 0024     		movs	r4, #0
 1100 0070 2EE0     		b	.L79
 1101              	.LVL162:
 1102              	.L84:
 1103              	.LBB18:
 235:main.c        ****             msg[1] = "|   Locked    |";
 1104              		.loc 1 235 0
 1105 0072 294B     		ldr	r3, .L87+48
 1106 0074 0693     		str	r3, [sp, #24]
 236:main.c        ****             msg[2] = "===============";
 1107              		.loc 1 236 0
 1108 0076 294A     		ldr	r2, .L87+52
 1109 0078 0792     		str	r2, [sp, #28]
 237:main.c        ****             msg[3] = "               ";
 1110              		.loc 1 237 0
 1111 007a 0893     		str	r3, [sp, #32]
 238:main.c        ****             display_msg(msg);
 1112              		.loc 1 238 0
 1113 007c 284B     		ldr	r3, .L87+56
 1114 007e 0993     		str	r3, [sp, #36]
 239:main.c        ****             
 1115              		.loc 1 239 0
 1116 0080 06A8     		add	r0, sp, #24
 1117 0082 FFF7FEFF 		bl	display_msg
 1118              	.LVL163:
 241:main.c        ****             PWM_BUZZER_Start();
 1119              		.loc 1 241 0
 1120 0086 0022     		movs	r2, #0
 1121 0088 224B     		ldr	r3, .L87+44
 1122 008a 1A70     		strb	r2, [r3]
 242:main.c        ****             
 1123              		.loc 1 242 0
 1124 008c FFF7FEFF 		bl	PWM_BUZZER_Start
 1125              	.LVL164:
 244:main.c        ****             while(!interrupt_flag) {
 1126              		.loc 1 244 0
 1127 0090 0B25     		movs	r5, #11
 245:main.c        ****                 distance = get_distance(lock.combination[i]);
 1128              		.loc 1 245 0
 1129 0092 09E0     		b	.L80
 1130              	.LVL165:
ARM GAS  C:\Users\brian\AppData\Local\Temp\ccSGzKju.s 			page 29


 1131              	.L81:
 246:main.c        ****                 set_pwm_speed(distance, lock.difficulty);
 1132              		.loc 1 246 0
 1133 0094 049B     		ldr	r3, [sp, #16]
 1134 0096 33F81400 		ldrh	r0, [r3, r4, lsl #1]
 1135 009a FFF7FEFF 		bl	get_distance
 1136              	.LVL166:
 1137 009e 0546     		mov	r5, r0
 1138              	.LVL167:
 247:main.c        ****             }
 1139              		.loc 1 247 0
 1140 00a0 9DF80C10 		ldrb	r1, [sp, #12]	@ zero_extendqisi2
 1141 00a4 FFF7FEFF 		bl	set_pwm_speed
 1142              	.LVL168:
 1143              	.L80:
 245:main.c        ****                 distance = get_distance(lock.combination[i]);
 1144              		.loc 1 245 0
 1145 00a8 1A4B     		ldr	r3, .L87+44
 1146 00aa 1B78     		ldrb	r3, [r3]	@ zero_extendqisi2
 1147 00ac 002B     		cmp	r3, #0
 1148 00ae F1D0     		beq	.L81
 249:main.c        ****                 succes();
 1149              		.loc 1 249 0
 1150 00b0 9DF80C30 		ldrb	r3, [sp, #12]	@ zero_extendqisi2
 1151 00b4 5A1C     		adds	r2, r3, #1
 1152 00b6 1E23     		movs	r3, #30
 1153 00b8 93FBF2F3 		sdiv	r3, r3, r2
 1154 00bc 9D42     		cmp	r5, r3
 1155 00be 02DA     		bge	.L82
 250:main.c        ****             } else {
 1156              		.loc 1 250 0
 1157 00c0 FFF7FEFF 		bl	succes
 1158              	.LVL169:
 1159 00c4 02E0     		b	.L83
 1160              	.L82:
 1161              	.LVL170:
 253:main.c        ****             }
 1162              		.loc 1 253 0
 1163 00c6 FFF7FEFF 		bl	lose
 1164              	.LVL171:
 252:main.c        ****                 lose();
 1165              		.loc 1 252 0
 1166 00ca 3446     		mov	r4, r6
 1167              	.LVL172:
 1168              	.L83:
 1169              	.LBE18:
 233:main.c        ****             char *msg[4];
 1170              		.loc 1 233 0 discriminator 2
 1171 00cc 0134     		adds	r4, r4, #1
 1172              	.LVL173:
 1173 00ce E4B2     		uxtb	r4, r4
 1174              	.LVL174:
 1175              	.L79:
 233:main.c        ****             char *msg[4];
 1176              		.loc 1 233 0 is_stmt 0 discriminator 1
 1177 00d0 9DF81460 		ldrb	r6, [sp, #20]	@ zero_extendqisi2
 1178 00d4 B442     		cmp	r4, r6
ARM GAS  C:\Users\brian\AppData\Local\Temp\ccSGzKju.s 			page 30


 1179 00d6 CCD3     		bcc	.L84
 1180              	.LBE17:
 257:main.c        ****         playing = 0;
 1181              		.loc 1 257 0 is_stmt 1
 1182 00d8 0498     		ldr	r0, [sp, #16]
 1183 00da FFF7FEFF 		bl	free
 1184              	.LVL175:
 258:main.c        ****     }
 1185              		.loc 1 258 0
 1186 00de 0022     		movs	r2, #0
 1187 00e0 0C4B     		ldr	r3, .L87+44
 1188 00e2 5A70     		strb	r2, [r3, #1]
 1189              	.LBE16:
 259:main.c        **** }
 1190              		.loc 1 259 0
 1191 00e4 BAE7     		b	.L85
 1192              	.L88:
 1193 00e6 00BF     		.align	2
 1194              	.L87:
 1195 00e8 00000000 		.word	EM2Display
 1196 00ec 00000000 		.word	psoc_gpio_and_delay_callback
 1197 00f0 00000000 		.word	u8x8_byte_hw_i2c
 1198 00f4 00000000 		.word	u8x8_cad_ssd13xx_i2c
 1199 00f8 00000000 		.word	u8x8_d_ssd1306_128x64_noname
 1200 00fc 00000000 		.word	u8x8_font_amstrad_cpc_extended_f
 1201 0100 00000000 		.word	PIN_IR_InterruptHandler
 1202 0104 98000000 		.word	.LC11
 1203 0108 A4000000 		.word	.LC12
 1204 010c AC000000 		.word	.LC13
 1205 0110 B0000000 		.word	.LC14
 1206 0114 00000000 		.word	.LANCHOR0
 1207 0118 58000000 		.word	.LC7
 1208 011c C0000000 		.word	.LC15
 1209 0120 78000000 		.word	.LC9
 1210              		.cfi_endproc
 1211              	.LFE72:
 1212              		.size	main, .-main
 1213              		.global	pick_dif_rep
 1214              		.global	playing
 1215              		.global	interrupt_flag
 1216              		.comm	line_selection,1,1
 1217              		.comm	sample_size,1,1
 1218              		.global	samples_pointer
 1219              		.comm	EM2Display,44,4
 1220              		.section	.rodata.str1.4,"aMS",%progbits,1
 1221              		.align	2
 1222              	.LC0:
 1223 0000 20202020 		.ascii	"              \000"
 1223      20202020 
 1223      20202020 
 1223      202000
 1224 000f 00       		.space	1
 1225              	.LC1:
 1226 0010 44696666 		.ascii	"Difficulty:    \000"
 1226      6963756C 
 1226      74793A20 
 1226      20202000 
ARM GAS  C:\Users\brian\AppData\Local\Temp\ccSGzKju.s 			page 31


 1227              	.LC2:
 1228 0020 20202045 		.ascii	"   Easy        \000"
 1228      61737920 
 1228      20202020 
 1228      20202000 
 1229              	.LC3:
 1230 0030 2020204D 		.ascii	"   Medium      \000"
 1230      65646975 
 1230      6D202020 
 1230      20202000 
 1231              	.LC4:
 1232 0040 20202048 		.ascii	"   Hard        \000"
 1232      61726420 
 1232      20202020 
 1232      20202000 
 1233              	.LC5:
 1234 0050 3E00     		.ascii	">\000"
 1235 0052 0000     		.space	2
 1236              	.LC6:
 1237 0054 2000     		.ascii	" \000"
 1238 0056 0000     		.space	2
 1239              	.LC7:
 1240 0058 3D3D3D3D 		.ascii	"===============\000"
 1240      3D3D3D3D 
 1240      3D3D3D3D 
 1240      3D3D3D00 
 1241              	.LC8:
 1242 0068 7C20596F 		.ascii	"| You lost :) |\000"
 1242      75206C6F 
 1242      7374203A 
 1242      29207C00 
 1243              	.LC9:
 1244 0078 20202020 		.ascii	"               \000"
 1244      20202020 
 1244      20202020 
 1244      20202000 
 1245              	.LC10:
 1246 0088 7C202047 		.ascii	"|  Good Job   |\000"
 1246      6F6F6420 
 1246      4A6F6220 
 1246      20207C00 
 1247              	.LC11:
 1248 0098 48764120 		.ascii	"HvA HBO-ICT\000"
 1248      48424F2D 
 1248      49435400 
 1249              	.LC12:
 1250 00a4 54492045 		.ascii	"TI EM2\000"
 1250      4D3200
 1251 00ab 00       		.space	1
 1252              	.LC13:
 1253 00ac 00       		.ascii	"\000"
 1254 00ad 000000   		.space	3
 1255              	.LC14:
 1256 00b0 4C616220 		.ascii	"Lab 7 Project\000"
 1256      37205072 
 1256      6F6A6563 
 1256      7400
ARM GAS  C:\Users\brian\AppData\Local\Temp\ccSGzKju.s 			page 32


 1257 00be 0000     		.space	2
 1258              	.LC15:
 1259 00c0 7C202020 		.ascii	"|   Locked    |\000"
 1259      4C6F636B 
 1259      65642020 
 1259      20207C00 
 1260              		.bss
 1261              		.align	3
 1262              		.set	.LANCHOR0,. + 0
 1263              		.type	interrupt_flag, %object
 1264              		.size	interrupt_flag, 1
 1265              	interrupt_flag:
 1266 0000 00       		.space	1
 1267              		.type	playing, %object
 1268              		.size	playing, 1
 1269              	playing:
 1270 0001 00       		.space	1
 1271 0002 00000000 		.space	6
 1271      0000
 1272              		.type	pick_dif_rep, %object
 1273              		.size	pick_dif_rep, 8
 1274              	pick_dif_rep:
 1275 0008 00000000 		.space	8
 1275      00000000 
 1276              		.type	samples_pointer, %object
 1277              		.size	samples_pointer, 4
 1278              	samples_pointer:
 1279 0010 00000000 		.space	4
 1280              		.text
 1281              	.Letext0:
 1282              		.file 2 "c:\\program files (x86)\\cypress\\psoc creator\\4.4\\psoc creator\\import\\gnu\\arm\\5.4.
 1283              		.file 3 "c:\\program files (x86)\\cypress\\psoc creator\\4.4\\psoc creator\\import\\gnu\\arm\\5.4.
 1284              		.file 4 "..\\u8g2\\csrc/u8x8.h"
 1285              		.file 5 "Generated_Source\\PSoC5/core_cm3.h"
 1286              		.file 6 "Generated_Source\\PSoC5/PWM_O_LED.h"
 1287              		.file 7 "Generated_Source\\PSoC5/CyLib.h"
 1288              		.file 8 "Generated_Source\\PSoC5/PWM_BUZZER.h"
 1289              		.file 9 "Generated_Source\\PSoC5/PIN_IR.h"
 1290              		.file 10 "Generated_Source\\PSoC5/I2C_DISPLAY.h"
 1291              		.file 11 "Generated_Source\\PSoC5/ISR_IR.h"
 1292              		.file 12 "Generated_Source\\PSoC5/ADC_POT.h"
 1293              		.file 13 "c:\\program files (x86)\\cypress\\psoc creator\\4.4\\psoc creator\\import\\gnu\\arm\\5.4
 1294              		.file 14 "Generated_Source\\PSoC5/PWM_ALARM.h"