ARM GAS  C:\Users\brian\AppData\Local\Temp\ccibXfrV.s 			page 1


   1              		.syntax unified
   2              		.cpu cortex-m3
   3              		.fpu softvfp
   4              		.eabi_attribute 20, 1
   5              		.eabi_attribute 21, 1
   6              		.eabi_attribute 23, 3
   7              		.eabi_attribute 24, 1
   8              		.eabi_attribute 25, 1
   9              		.eabi_attribute 26, 1
  10              		.eabi_attribute 30, 1
  11              		.eabi_attribute 34, 1
  12              		.eabi_attribute 18, 4
  13              		.thumb
  14              		.syntax unified
  15              		.file	"mui.c"
  16              		.text
  17              	.Ltext0:
  18              		.cfi_sections	.debug_frame
  19              		.section	.text.mui_task_draw,"ax",%progbits
  20              		.align	2
  21              		.global	mui_task_draw
  22              		.thumb
  23              		.thumb_func
  24              		.type	mui_task_draw, %function
  25              	mui_task_draw:
  26              	.LFB14:
  27              		.file 1 "..\\u8g2\\csrc\\mui.c"
   1:..\u8g2\csrc/mui.c **** /*
   2:..\u8g2\csrc/mui.c **** 
   3:..\u8g2\csrc/mui.c ****   mui.c
   4:..\u8g2\csrc/mui.c ****   
   5:..\u8g2\csrc/mui.c ****   Monochrome minimal user interface: Core library.
   6:..\u8g2\csrc/mui.c **** 
   7:..\u8g2\csrc/mui.c ****   Universal 8bit Graphics Library (https://github.com/olikraus/u8g2/)
   8:..\u8g2\csrc/mui.c **** 
   9:..\u8g2\csrc/mui.c ****   Copyright (c) 2021, olikraus@gmail.com
  10:..\u8g2\csrc/mui.c ****   All rights reserved.
  11:..\u8g2\csrc/mui.c **** 
  12:..\u8g2\csrc/mui.c ****   Redistribution and use in source and binary forms, with or without modification, 
  13:..\u8g2\csrc/mui.c ****   are permitted provided that the following conditions are met:
  14:..\u8g2\csrc/mui.c **** 
  15:..\u8g2\csrc/mui.c ****   * Redistributions of source code must retain the above copyright notice, this list 
  16:..\u8g2\csrc/mui.c ****     of conditions and the following disclaimer.
  17:..\u8g2\csrc/mui.c ****     
  18:..\u8g2\csrc/mui.c ****   * Redistributions in binary form must reproduce the above copyright notice, this 
  19:..\u8g2\csrc/mui.c ****     list of conditions and the following disclaimer in the documentation and/or other 
  20:..\u8g2\csrc/mui.c ****     materials provided with the distribution.
  21:..\u8g2\csrc/mui.c **** 
  22:..\u8g2\csrc/mui.c ****   THIS SOFTWARE IS PROVIDED BY THE COPYRIGHT HOLDERS AND 
  23:..\u8g2\csrc/mui.c ****   CONTRIBUTORS "AS IS" AND ANY EXPRESS OR IMPLIED WARRANTIES, 
  24:..\u8g2\csrc/mui.c ****   INCLUDING, BUT NOT LIMITED TO, THE IMPLIED WARRANTIES OF 
  25:..\u8g2\csrc/mui.c ****   MERCHANTABILITY AND FITNESS FOR A PARTICULAR PURPOSE ARE 
  26:..\u8g2\csrc/mui.c ****   DISCLAIMED. IN NO EVENT SHALL THE COPYRIGHT HOLDER OR 
  27:..\u8g2\csrc/mui.c ****   CONTRIBUTORS BE LIABLE FOR ANY DIRECT, INDIRECT, INCIDENTAL, 
  28:..\u8g2\csrc/mui.c ****   SPECIAL, EXEMPLARY, OR CONSEQUENTIAL DAMAGES (INCLUDING, BUT 
  29:..\u8g2\csrc/mui.c ****   NOT LIMITED TO, PROCUREMENT OF SUBSTITUTE GOODS OR SERVICES; 
  30:..\u8g2\csrc/mui.c ****   LOSS OF USE, DATA, OR PROFITS; OR BUSINESS INTERRUPTION) HOWEVER 
ARM GAS  C:\Users\brian\AppData\Local\Temp\ccibXfrV.s 			page 2


  31:..\u8g2\csrc/mui.c ****   CAUSED AND ON ANY THEORY OF LIABILITY, WHETHER IN CONTRACT, 
  32:..\u8g2\csrc/mui.c ****   STRICT LIABILITY, OR TORT (INCLUDING NEGLIGENCE OR OTHERWISE) 
  33:..\u8g2\csrc/mui.c ****   ARISING IN ANY WAY OUT OF THE USE OF THIS SOFTWARE, EVEN IF 
  34:..\u8g2\csrc/mui.c ****   ADVISED OF THE POSSIBILITY OF SUCH DAMAGE.  
  35:..\u8g2\csrc/mui.c **** 
  36:..\u8g2\csrc/mui.c ****   
  37:..\u8g2\csrc/mui.c **** 
  38:..\u8g2\csrc/mui.c ****   "mui.c" is a graphical user interface, developed as part of u8g2.
  39:..\u8g2\csrc/mui.c ****   However "mui.c" is independent of u8g2 and can be used without u8g2 code.
  40:..\u8g2\csrc/mui.c ****   The glue code between "mui.c" and u8g2 is located in "mui_u8g2.c"
  41:..\u8g2\csrc/mui.c **** 
  42:..\u8g2\csrc/mui.c ****   c: cmd
  43:..\u8g2\csrc/mui.c ****   i:  ID0
  44:..\u8g2\csrc/mui.c ****   j: ID1
  45:..\u8g2\csrc/mui.c ****   xy: Position (x and y)
  46:..\u8g2\csrc/mui.c ****   /text/: some text. The text can start with any delimiter (except 0 and |), but also has to end wi
  47:..\u8g2\csrc/mui.c ****   a: Single char argument
  48:..\u8g2\csrc/mui.c ****   u: Single char argument with the user interface form number
  49:..\u8g2\csrc/mui.c **** 
  50:..\u8g2\csrc/mui.c ****   "Uu" the interface                                                    --> no ID
  51:..\u8g2\csrc/mui.c ****   
  52:..\u8g2\csrc/mui.c ****   Manual ID:
  53:..\u8g2\csrc/mui.c ****   "Fijxy"  Generic field: Places field with id ii at x/y        --> ID=ij
  54:..\u8g2\csrc/mui.c ****   "Bijxy/text/"   Generic field (Button) with Text   --> ID=ij
  55:..\u8g2\csrc/mui.c ****   "Tiixya/text/"  Generic field with argument and text --> ID = ij
  56:..\u8g2\csrc/mui.c ****   "Aiixya"
  57:..\u8g2\csrc/mui.c ****   
  58:..\u8g2\csrc/mui.c ****   Fixed ID:
  59:..\u8g2\csrc/mui.c ****   "Si" the style                                                        --> ID=@i
  60:..\u8g2\csrc/mui.c ****   "Lxy/labeltext/"  Places a text at the specified position, field with   -     -> ID=.L, .l
  61:..\u8g2\csrc/mui.c ****   "Gxyu/menutext/"  Go to the specified menu without placing the user interface form on the stack  
  62:..\u8g2\csrc/mui.c ****   
  63:..\u8g2\csrc/mui.c ****   
  64:..\u8g2\csrc/mui.c ****   cijxy
  65:..\u8g2\csrc/mui.c ****   cijxy/text/
  66:..\u8g2\csrc/mui.c ****   cijxya/text/
  67:..\u8g2\csrc/mui.c ****   
  68:..\u8g2\csrc/mui.c ****   cxy/text/
  69:..\u8g2\csrc/mui.c ****   cxya/text/
  70:..\u8g2\csrc/mui.c ****   
  71:..\u8g2\csrc/mui.c **** */
  72:..\u8g2\csrc/mui.c **** 
  73:..\u8g2\csrc/mui.c **** 
  74:..\u8g2\csrc/mui.c **** 
  75:..\u8g2\csrc/mui.c **** #include "mui.h"
  76:..\u8g2\csrc/mui.c **** 
  77:..\u8g2\csrc/mui.c **** 
  78:..\u8g2\csrc/mui.c **** 
  79:..\u8g2\csrc/mui.c **** 
  80:..\u8g2\csrc/mui.c **** 
  81:..\u8g2\csrc/mui.c **** //#define mui_get_fds_char(s) ((uint8_t)(*s))
  82:..\u8g2\csrc/mui.c **** 
  83:..\u8g2\csrc/mui.c **** //#include <stdio.h>
  84:..\u8g2\csrc/mui.c **** //#define MUI_DEBUG(...) printf(__VA_ARGS__)
  85:..\u8g2\csrc/mui.c **** #define MUI_DEBUG(...)
  86:..\u8g2\csrc/mui.c **** 
  87:..\u8g2\csrc/mui.c **** uint8_t mui_get_fds_char(fds_t *s)
ARM GAS  C:\Users\brian\AppData\Local\Temp\ccibXfrV.s 			page 3


  88:..\u8g2\csrc/mui.c **** {
  89:..\u8g2\csrc/mui.c ****   //return (uint8_t)(*s);
  90:..\u8g2\csrc/mui.c ****   return (uint8_t)mui_pgm_read(s);
  91:..\u8g2\csrc/mui.c **** }
  92:..\u8g2\csrc/mui.c **** 
  93:..\u8g2\csrc/mui.c **** 
  94:..\u8g2\csrc/mui.c **** /*
  95:..\u8g2\csrc/mui.c ****   s must point to a valid command within FDS
  96:..\u8g2\csrc/mui.c **** */
  97:..\u8g2\csrc/mui.c **** static size_t mui_fds_get_cmd_size_without_text(fds_t *s) MUI_NOINLINE;
  98:..\u8g2\csrc/mui.c **** static size_t mui_fds_get_cmd_size_without_text(fds_t *s)
  99:..\u8g2\csrc/mui.c **** {
 100:..\u8g2\csrc/mui.c ****   uint8_t c = mui_get_fds_char(s);
 101:..\u8g2\csrc/mui.c ****   c &= 0xdf; /* consider upper and lower case */
 102:..\u8g2\csrc/mui.c ****   switch(c)
 103:..\u8g2\csrc/mui.c ****   {
 104:..\u8g2\csrc/mui.c ****     case 'U': return 2;         // User Form: CMD  (1 Byte), Form-Id (1 Byte)
 105:..\u8g2\csrc/mui.c ****     case 'S': return 2;         // Style: CMD (1 Byte), Style Id (1 Byte)
 106:..\u8g2\csrc/mui.c ****     case 'D': return 3;         // Data within Text: CMD (1 Byte), ID (2 Bytes), Text (does not cou
 107:..\u8g2\csrc/mui.c ****     case 'F': return 5;         // Field without arg & text: CMD (1 Byte), ID (2 Bytes), X, Y
 108:..\u8g2\csrc/mui.c ****     case 'B': return 5;         // Field with text: CMD (1 Byte), ID (2 Bytes), X, Y, Text (does no
 109:..\u8g2\csrc/mui.c ****     case 'T': return 6;         // Field with arg & text: CMD (1 Byte), ID (2 Bytes), X, Y, Arg, Te
 110:..\u8g2\csrc/mui.c ****     case 'A': return 6;         // Field with arg (no text): CMD (1 Byte), ID (2 Bytes), X, Y, Arg,
 111:..\u8g2\csrc/mui.c ****     case 'L': return 3;          // Text Label: CMD (1 Byte), X, Y (same as 'B' but with fixed ID '
 112:..\u8g2\csrc/mui.c ****     case 'G': return 4;         // Goto Btutton: CMD (1Byte), X, Y, Arg, Text  (same as 'T' but wit
 113:..\u8g2\csrc/mui.c ****     case 0: return 0;
 114:..\u8g2\csrc/mui.c ****   }
 115:..\u8g2\csrc/mui.c ****   return 1;
 116:..\u8g2\csrc/mui.c **** }
 117:..\u8g2\csrc/mui.c **** 
 118:..\u8g2\csrc/mui.c **** 
 119:..\u8g2\csrc/mui.c **** 
 120:..\u8g2\csrc/mui.c **** /*
 121:..\u8g2\csrc/mui.c ****   s must point to the string delimiter start: first '/' for "B00ab/ok/"
 122:..\u8g2\csrc/mui.c ****     - '/' actually is 0xff
 123:..\u8g2\csrc/mui.c ****     - return the total size of the string, including the delimiter
 124:..\u8g2\csrc/mui.c ****     - copies the content of the string ("ok") to the ui text buffer
 125:..\u8g2\csrc/mui.c **** 
 126:..\u8g2\csrc/mui.c **** */
 127:..\u8g2\csrc/mui.c **** static size_t mui_fds_parse_text(mui_t *ui, fds_t *s)
 128:..\u8g2\csrc/mui.c **** {
 129:..\u8g2\csrc/mui.c ****   uint8_t i = 0;
 130:..\u8g2\csrc/mui.c ****   ui->delimiter = mui_get_fds_char(s);
 131:..\u8g2\csrc/mui.c ****   uint8_t c;
 132:..\u8g2\csrc/mui.c ****   fds_t *t = s;
 133:..\u8g2\csrc/mui.c ****   
 134:..\u8g2\csrc/mui.c ****   //printf("mui_fds_parse_text del=%d\n", delimiter);
 135:..\u8g2\csrc/mui.c **** #ifdef MUI_CHECK_EOFDS
 136:..\u8g2\csrc/mui.c ****   if ( ui->delimiter == 0 )
 137:..\u8g2\csrc/mui.c ****     return 0;
 138:..\u8g2\csrc/mui.c **** #endif 
 139:..\u8g2\csrc/mui.c ****   t++;
 140:..\u8g2\csrc/mui.c ****   for( ;; )
 141:..\u8g2\csrc/mui.c ****   {
 142:..\u8g2\csrc/mui.c ****     c = mui_get_fds_char(t);
 143:..\u8g2\csrc/mui.c ****   //printf("mui_fds_parse_text i=%d, c=%c\n", i, c);
 144:..\u8g2\csrc/mui.c **** #ifdef MUI_CHECK_EOFDS
ARM GAS  C:\Users\brian\AppData\Local\Temp\ccibXfrV.s 			page 4


 145:..\u8g2\csrc/mui.c ****     if ( c == 0 )
 146:..\u8g2\csrc/mui.c ****       break;
 147:..\u8g2\csrc/mui.c **** #endif 
 148:..\u8g2\csrc/mui.c ****     if ( c == ui->delimiter )
 149:..\u8g2\csrc/mui.c ****     {
 150:..\u8g2\csrc/mui.c ****       t++;
 151:..\u8g2\csrc/mui.c ****       break;
 152:..\u8g2\csrc/mui.c ****     }
 153:..\u8g2\csrc/mui.c ****     if ( i < MUI_MAX_TEXT_LEN )
 154:..\u8g2\csrc/mui.c ****     {
 155:..\u8g2\csrc/mui.c ****       ui->text[i++] = c;
 156:..\u8g2\csrc/mui.c ****     }
 157:..\u8g2\csrc/mui.c ****     t++;
 158:..\u8g2\csrc/mui.c ****   }
 159:..\u8g2\csrc/mui.c ****   ui->text[i] = '\0' ;
 160:..\u8g2\csrc/mui.c ****   return t-s;
 161:..\u8g2\csrc/mui.c **** }
 162:..\u8g2\csrc/mui.c **** 
 163:..\u8g2\csrc/mui.c **** /*
 164:..\u8g2\csrc/mui.c ****   get the first token within a text argument.
 165:..\u8g2\csrc/mui.c ****   The text argument may look like this:
 166:..\u8g2\csrc/mui.c ****     "B00ab/banana|apple|peach|cherry/"
 167:..\u8g2\csrc/mui.c ****   The outer delimiter "/" is not fixed and can be any char except "|" and "\0"
 168:..\u8g2\csrc/mui.c ****   The inner delimiter "|" is fixed. It must be the pipe symbol.
 169:..\u8g2\csrc/mui.c ****   This function will place "banana" into ui->text if the result is not 0
 170:..\u8g2\csrc/mui.c **** 
 171:..\u8g2\csrc/mui.c ****   if ( mui_fds_first_token(ui) )
 172:..\u8g2\csrc/mui.c ****   {
 173:..\u8g2\csrc/mui.c ****     do 
 174:..\u8g2\csrc/mui.c ****     {
 175:..\u8g2\csrc/mui.c ****       // handle token in ui->text
 176:..\u8g2\csrc/mui.c ****     } while ( mui_fds_next_token(ui) )
 177:..\u8g2\csrc/mui.c ****   }
 178:..\u8g2\csrc/mui.c **** 
 179:..\u8g2\csrc/mui.c **** */
 180:..\u8g2\csrc/mui.c **** 
 181:..\u8g2\csrc/mui.c **** uint8_t mui_fds_first_token(mui_t *ui)
 182:..\u8g2\csrc/mui.c **** {
 183:..\u8g2\csrc/mui.c ****   ui->token = ui->fds;
 184:..\u8g2\csrc/mui.c ****   ui->token += mui_fds_get_cmd_size_without_text(ui->fds);
 185:..\u8g2\csrc/mui.c ****   ui->delimiter = mui_get_fds_char(ui->token);
 186:..\u8g2\csrc/mui.c ****   ui->token++;  // place ui->token on the first char of the token
 187:..\u8g2\csrc/mui.c ****   return mui_fds_next_token(ui);
 188:..\u8g2\csrc/mui.c **** }
 189:..\u8g2\csrc/mui.c **** 
 190:..\u8g2\csrc/mui.c **** 
 191:..\u8g2\csrc/mui.c **** uint8_t mui_fds_next_token(mui_t *ui)
 192:..\u8g2\csrc/mui.c **** {
 193:..\u8g2\csrc/mui.c ****   uint8_t c;
 194:..\u8g2\csrc/mui.c ****   uint8_t i = 0;
 195:..\u8g2\csrc/mui.c ****   // printf("mui_fds_next_token: call, ui->token=%p\n", ui->token);
 196:..\u8g2\csrc/mui.c ****   for( ;; )
 197:..\u8g2\csrc/mui.c ****   {
 198:..\u8g2\csrc/mui.c ****     c = mui_get_fds_char(ui->token);
 199:..\u8g2\csrc/mui.c ****     // printf("mui_fds_next_token: i=%d c=%c\n", i, c);
 200:..\u8g2\csrc/mui.c **** #ifdef MUI_CHECK_EOFDS
 201:..\u8g2\csrc/mui.c ****     if ( c == 0 )
ARM GAS  C:\Users\brian\AppData\Local\Temp\ccibXfrV.s 			page 5


 202:..\u8g2\csrc/mui.c ****       break;
 203:..\u8g2\csrc/mui.c **** #endif 
 204:..\u8g2\csrc/mui.c ****     if ( c == ui->delimiter )
 205:..\u8g2\csrc/mui.c ****       break;
 206:..\u8g2\csrc/mui.c ****     if ( c == '|'  )
 207:..\u8g2\csrc/mui.c ****     {
 208:..\u8g2\csrc/mui.c ****       ui->token++;  // place ui->token on the first char of the next token
 209:..\u8g2\csrc/mui.c ****       break;
 210:..\u8g2\csrc/mui.c ****     }
 211:..\u8g2\csrc/mui.c ****     
 212:..\u8g2\csrc/mui.c ****     if ( i < MUI_MAX_TEXT_LEN )
 213:..\u8g2\csrc/mui.c ****     {
 214:..\u8g2\csrc/mui.c ****       ui->text[i++] = c;
 215:..\u8g2\csrc/mui.c ****     }
 216:..\u8g2\csrc/mui.c ****     
 217:..\u8g2\csrc/mui.c ****     ui->token++;
 218:..\u8g2\csrc/mui.c ****   }
 219:..\u8g2\csrc/mui.c ****   ui->text[i] = '\0' ;
 220:..\u8g2\csrc/mui.c ****   if ( i == 0 )
 221:..\u8g2\csrc/mui.c ****     return 0;   // no further token found
 222:..\u8g2\csrc/mui.c ****   return 1;  // token placed in ui->text
 223:..\u8g2\csrc/mui.c **** }
 224:..\u8g2\csrc/mui.c **** 
 225:..\u8g2\csrc/mui.c **** /*
 226:..\u8g2\csrc/mui.c ****   find nth token, return 0 if n exceeds the number of tokens, 1 otherwise
 227:..\u8g2\csrc/mui.c ****   the result is stored in ui->text
 228:..\u8g2\csrc/mui.c **** */
 229:..\u8g2\csrc/mui.c **** uint8_t mui_fds_get_nth_token(mui_t *ui, uint8_t n)
 230:..\u8g2\csrc/mui.c **** {  
 231:..\u8g2\csrc/mui.c ****   // printf("mui_fds_get_nth_token: call, n=%d\n", n);
 232:..\u8g2\csrc/mui.c ****   if ( mui_fds_first_token(ui) )
 233:..\u8g2\csrc/mui.c ****   {
 234:..\u8g2\csrc/mui.c ****     do 
 235:..\u8g2\csrc/mui.c ****     {
 236:..\u8g2\csrc/mui.c ****       if ( n == 0 )
 237:..\u8g2\csrc/mui.c ****       {
 238:..\u8g2\csrc/mui.c ****         // printf("mui_fds_get_nth_token: found");
 239:..\u8g2\csrc/mui.c ****         return 1;
 240:..\u8g2\csrc/mui.c ****       }
 241:..\u8g2\csrc/mui.c ****       n--;
 242:..\u8g2\csrc/mui.c ****     } while ( mui_fds_next_token(ui) );
 243:..\u8g2\csrc/mui.c ****   }
 244:..\u8g2\csrc/mui.c ****   //printf("mui_fds_get_nth_token: NOT found\n");
 245:..\u8g2\csrc/mui.c ****   return 0;
 246:..\u8g2\csrc/mui.c **** }
 247:..\u8g2\csrc/mui.c **** 
 248:..\u8g2\csrc/mui.c **** uint8_t mui_fds_get_token_cnt(mui_t *ui)
 249:..\u8g2\csrc/mui.c **** {
 250:..\u8g2\csrc/mui.c ****   uint8_t n = 0;
 251:..\u8g2\csrc/mui.c ****   if ( mui_fds_first_token(ui) )
 252:..\u8g2\csrc/mui.c ****   {
 253:..\u8g2\csrc/mui.c ****     do 
 254:..\u8g2\csrc/mui.c ****     {
 255:..\u8g2\csrc/mui.c ****       n++;
 256:..\u8g2\csrc/mui.c ****     } while ( mui_fds_next_token(ui) );
 257:..\u8g2\csrc/mui.c ****   }
 258:..\u8g2\csrc/mui.c ****   return n;
ARM GAS  C:\Users\brian\AppData\Local\Temp\ccibXfrV.s 			page 6


 259:..\u8g2\csrc/mui.c **** }
 260:..\u8g2\csrc/mui.c **** 
 261:..\u8g2\csrc/mui.c **** 
 262:..\u8g2\csrc/mui.c **** #define mui_fds_is_text(c) ( (c) == 'U' || (c) == 'S' || (c) == 'F' || (c) == 'A' ? 0 : 1 )
 263:..\u8g2\csrc/mui.c **** 
 264:..\u8g2\csrc/mui.c **** /*
 265:..\u8g2\csrc/mui.c ****   s must point to a valid command within FDS
 266:..\u8g2\csrc/mui.c ****   return
 267:..\u8g2\csrc/mui.c ****     The complete length of the command (including any text part)
 268:..\u8g2\csrc/mui.c ****   sideeffect:
 269:..\u8g2\csrc/mui.c ****     Any existing text part will be copied into ui->text
 270:..\u8g2\csrc/mui.c ****     ui->text will be assigned to empty string if there is no text argument
 271:..\u8g2\csrc/mui.c **** */
 272:..\u8g2\csrc/mui.c **** static size_t mui_fds_get_cmd_size(mui_t *ui, fds_t *s) MUI_NOINLINE;
 273:..\u8g2\csrc/mui.c **** static size_t mui_fds_get_cmd_size(mui_t *ui, fds_t *s)
 274:..\u8g2\csrc/mui.c **** {
 275:..\u8g2\csrc/mui.c ****   size_t l = mui_fds_get_cmd_size_without_text(s);
 276:..\u8g2\csrc/mui.c ****   uint8_t c = mui_get_fds_char(s);
 277:..\u8g2\csrc/mui.c ****  ui->text[0] = '\0' ;   /* always reset the text buffer */
 278:..\u8g2\csrc/mui.c ****  if ( mui_fds_is_text(c) )
 279:..\u8g2\csrc/mui.c ****   {
 280:..\u8g2\csrc/mui.c ****     l += mui_fds_parse_text(ui, s+l);
 281:..\u8g2\csrc/mui.c ****   }
 282:..\u8g2\csrc/mui.c ****   return l;
 283:..\u8g2\csrc/mui.c **** }
 284:..\u8g2\csrc/mui.c **** 
 285:..\u8g2\csrc/mui.c **** 
 286:..\u8g2\csrc/mui.c **** /*
 287:..\u8g2\csrc/mui.c ****   mui_Init() will setup the menu system but will not activate or display anything.
 288:..\u8g2\csrc/mui.c ****   Use mui_GotoForm() after this command, then use mui_Draw() to draw the menu on a display.
 289:..\u8g2\csrc/mui.c **** */
 290:..\u8g2\csrc/mui.c **** void mui_Init(mui_t *ui, void *graphics_data, fds_t *fds, muif_t *muif_tlist, size_t muif_tcnt)
 291:..\u8g2\csrc/mui.c **** {
 292:..\u8g2\csrc/mui.c ****   memset(ui, 0, sizeof(mui_t));
 293:..\u8g2\csrc/mui.c ****   ui->root_fds = fds;
 294:..\u8g2\csrc/mui.c ****   //ui->current_form_fds = NULL;   // not required, because there was a memset before
 295:..\u8g2\csrc/mui.c ****   ui->muif_tlist = muif_tlist;
 296:..\u8g2\csrc/mui.c ****   ui->muif_tcnt = muif_tcnt;
 297:..\u8g2\csrc/mui.c ****   ui->graphics_data = graphics_data;
 298:..\u8g2\csrc/mui.c **** }
 299:..\u8g2\csrc/mui.c **** 
 300:..\u8g2\csrc/mui.c **** int mui_find_uif(mui_t *ui, uint8_t id0, uint8_t id1)
 301:..\u8g2\csrc/mui.c **** {
 302:..\u8g2\csrc/mui.c ****   size_t i;
 303:..\u8g2\csrc/mui.c ****   for( i = 0; i < ui->muif_tcnt; i++ )
 304:..\u8g2\csrc/mui.c ****   {
 305:..\u8g2\csrc/mui.c ****     /*
 306:..\u8g2\csrc/mui.c ****       if ( ui->muif_tlist[i].id0 == id0 )
 307:..\u8g2\csrc/mui.c ****         if ( ui->muif_tlist[i].id1 == id1 )
 308:..\u8g2\csrc/mui.c ****           return i;
 309:..\u8g2\csrc/mui.c ****     */
 310:..\u8g2\csrc/mui.c ****       if ( muif_get_id0(ui->muif_tlist+i) == id0 )
 311:..\u8g2\csrc/mui.c ****         if ( muif_get_id1(ui->muif_tlist+i) == id1 )
 312:..\u8g2\csrc/mui.c ****           return i;
 313:..\u8g2\csrc/mui.c ****   }
 314:..\u8g2\csrc/mui.c ****   return -1;
 315:..\u8g2\csrc/mui.c **** }
ARM GAS  C:\Users\brian\AppData\Local\Temp\ccibXfrV.s 			page 7


 316:..\u8g2\csrc/mui.c **** 
 317:..\u8g2\csrc/mui.c **** 
 318:..\u8g2\csrc/mui.c **** /*
 319:..\u8g2\csrc/mui.c ****   assumes a valid position in ui->fds and calculates all the other variables
 320:..\u8g2\csrc/mui.c ****   some fields are alway calculated like the ui->cmd and ui->len field
 321:..\u8g2\csrc/mui.c ****   other member vars are calculated only if the return value is 1
 322:..\u8g2\csrc/mui.c ****   will return 1 if the field id was found.
 323:..\u8g2\csrc/mui.c ****   will return 0 if the field id was not found in uif or if ui->fds points to something else than a 
 324:..\u8g2\csrc/mui.c **** */
 325:..\u8g2\csrc/mui.c **** static uint8_t mui_prepare_current_field(mui_t *ui) MUI_NOINLINE;
 326:..\u8g2\csrc/mui.c **** static uint8_t mui_prepare_current_field(mui_t *ui)
 327:..\u8g2\csrc/mui.c **** {
 328:..\u8g2\csrc/mui.c ****   int muif_tidx;
 329:..\u8g2\csrc/mui.c **** 
 330:..\u8g2\csrc/mui.c ****   ui->uif = NULL;
 331:..\u8g2\csrc/mui.c ****   ui->dflags = 0;    
 332:..\u8g2\csrc/mui.c ****   ui->id0 = 0;
 333:..\u8g2\csrc/mui.c ****   ui->id1 = 0;
 334:..\u8g2\csrc/mui.c ****   ui->arg = 0;
 335:..\u8g2\csrc/mui.c **** 
 336:..\u8g2\csrc/mui.c ****   /* calculate the length of the command and copy the text argument */
 337:..\u8g2\csrc/mui.c ****   /* this will also clear the text in cases where there is no text argument */
 338:..\u8g2\csrc/mui.c ****   ui->len = mui_fds_get_cmd_size(ui, ui->fds); 
 339:..\u8g2\csrc/mui.c ****   //printf("mui_prepare_current_field len=%d\n", ui->len);
 340:..\u8g2\csrc/mui.c **** 
 341:..\u8g2\csrc/mui.c ****   /* get the command and check whether end of form is reached */
 342:..\u8g2\csrc/mui.c ****   ui->cmd = mui_get_fds_char(ui->fds);
 343:..\u8g2\csrc/mui.c ****   //printf("mui_prepare_current_field cmd='%c' len=%d\n", ui->cmd, ui->len);
 344:..\u8g2\csrc/mui.c ****   
 345:..\u8g2\csrc/mui.c ****   /* Copy the cmd also to second id value. This is required for some commands, others will overwrit
 346:..\u8g2\csrc/mui.c ****   ui->id1 = ui->cmd;
 347:..\u8g2\csrc/mui.c ****   
 348:..\u8g2\csrc/mui.c ****   /* now make the command uppercase so that both, upper and lower case are considered */
 349:..\u8g2\csrc/mui.c ****   ui->cmd &= 0xdf; /* consider upper and lower case */
 350:..\u8g2\csrc/mui.c ****   
 351:..\u8g2\csrc/mui.c ****   if ( ui->cmd == 'U' || ui->cmd == 0 )
 352:..\u8g2\csrc/mui.c ****     return 0;
 353:..\u8g2\csrc/mui.c **** 
 354:..\u8g2\csrc/mui.c ****   /* calculate the dynamic flags */
 355:..\u8g2\csrc/mui.c ****   if ( ui->fds == ui->cursor_focus_fds )
 356:..\u8g2\csrc/mui.c ****     ui->dflags |= MUIF_DFLAG_IS_CURSOR_FOCUS;
 357:..\u8g2\csrc/mui.c ****   if ( ui->fds == ui->touch_focus_fds )
 358:..\u8g2\csrc/mui.c ****     ui->dflags |= MUIF_DFLAG_IS_TOUCH_FOCUS;
 359:..\u8g2\csrc/mui.c ****   
 360:..\u8g2\csrc/mui.c **** 
 361:..\u8g2\csrc/mui.c ****   /* get the id0 and id1 values */
 362:..\u8g2\csrc/mui.c ****   if  ( ui->cmd == 'F' || ui->cmd == 'B' || ui->cmd == 'T' || ui->cmd == 'A' )
 363:..\u8g2\csrc/mui.c ****   {
 364:..\u8g2\csrc/mui.c ****       ui->id0 = mui_get_fds_char(ui->fds+1);
 365:..\u8g2\csrc/mui.c ****       ui->id1 = mui_get_fds_char(ui->fds+2);
 366:..\u8g2\csrc/mui.c ****       ui->x = mui_get_fds_char(ui->fds+3);
 367:..\u8g2\csrc/mui.c ****       ui->y = mui_get_fds_char(ui->fds+4);
 368:..\u8g2\csrc/mui.c ****       if ( ui->cmd == 'A' || ui->cmd == 'T' )
 369:..\u8g2\csrc/mui.c ****       {
 370:..\u8g2\csrc/mui.c ****         ui->arg = mui_get_fds_char(ui->fds+5);
 371:..\u8g2\csrc/mui.c ****       }
 372:..\u8g2\csrc/mui.c ****   }
ARM GAS  C:\Users\brian\AppData\Local\Temp\ccibXfrV.s 			page 8


 373:..\u8g2\csrc/mui.c ****   else if ( ui->cmd == 'D' )
 374:..\u8g2\csrc/mui.c ****   {
 375:..\u8g2\csrc/mui.c ****       ui->id0 = mui_get_fds_char(ui->fds+1);
 376:..\u8g2\csrc/mui.c ****       ui->id1 = mui_get_fds_char(ui->fds+2);
 377:..\u8g2\csrc/mui.c ****   }
 378:..\u8g2\csrc/mui.c ****   else if ( ui->cmd == 'S' )
 379:..\u8g2\csrc/mui.c ****   {
 380:..\u8g2\csrc/mui.c ****       ui->id0 = 'S';
 381:..\u8g2\csrc/mui.c ****       ui->id1 = mui_get_fds_char(ui->fds+1);
 382:..\u8g2\csrc/mui.c ****   }
 383:..\u8g2\csrc/mui.c ****   else
 384:..\u8g2\csrc/mui.c ****   {
 385:..\u8g2\csrc/mui.c ****       ui->id0 = '.';
 386:..\u8g2\csrc/mui.c ****       /* note that ui->id1 contains the original cmd value */
 387:..\u8g2\csrc/mui.c ****       ui->x = mui_get_fds_char(ui->fds+1);
 388:..\u8g2\csrc/mui.c ****       ui->y = mui_get_fds_char(ui->fds+2);
 389:..\u8g2\csrc/mui.c ****       if ( ui->cmd == 'G' || ui->cmd == 'M' )  /* this is also true for 'g' or 'm' */
 390:..\u8g2\csrc/mui.c ****       {
 391:..\u8g2\csrc/mui.c ****         ui->arg = mui_get_fds_char(ui->fds+3);
 392:..\u8g2\csrc/mui.c ****       }
 393:..\u8g2\csrc/mui.c ****   }
 394:..\u8g2\csrc/mui.c **** 
 395:..\u8g2\csrc/mui.c ****   //MUI_DEBUG("mui_prepare_current_field cmd='%c' len=%d arg=%d\n", ui->cmd, ui->len, ui->arg);
 396:..\u8g2\csrc/mui.c **** 
 397:..\u8g2\csrc/mui.c ****   
 398:..\u8g2\csrc/mui.c ****   /* find the field  */
 399:..\u8g2\csrc/mui.c ****   muif_tidx = mui_find_uif(ui, ui->id0, ui->id1);
 400:..\u8g2\csrc/mui.c ****   //printf("mui_prepare_current_field: muif_tidx=%d\n", muif_tidx);
 401:..\u8g2\csrc/mui.c ****   if ( muif_tidx >= 0 )
 402:..\u8g2\csrc/mui.c ****   {
 403:..\u8g2\csrc/mui.c ****     ui->uif = ui->muif_tlist + muif_tidx;
 404:..\u8g2\csrc/mui.c ****     return 1;
 405:..\u8g2\csrc/mui.c ****   }
 406:..\u8g2\csrc/mui.c ****   return 0;
 407:..\u8g2\csrc/mui.c **** }
 408:..\u8g2\csrc/mui.c **** 
 409:..\u8g2\csrc/mui.c **** /* 
 410:..\u8g2\csrc/mui.c ****   assumes that ui->fds has been assigned correctly 
 411:..\u8g2\csrc/mui.c ****   and that ui->target_fds and ui->tmp_fds had been cleared if required
 412:..\u8g2\csrc/mui.c **** 
 413:..\u8g2\csrc/mui.c ****   Usually do not call this function directly, instead use mui_loop_over_form
 414:..\u8g2\csrc/mui.c **** 
 415:..\u8g2\csrc/mui.c **** */
 416:..\u8g2\csrc/mui.c **** 
 417:..\u8g2\csrc/mui.c **** static void mui_inner_loop_over_form(mui_t *ui, uint8_t (*task)(mui_t *ui)) MUI_NOINLINE;
 418:..\u8g2\csrc/mui.c **** static void mui_inner_loop_over_form(mui_t *ui, uint8_t (*task)(mui_t *ui))
 419:..\u8g2\csrc/mui.c **** {
 420:..\u8g2\csrc/mui.c ****   uint8_t cmd;
 421:..\u8g2\csrc/mui.c **** 
 422:..\u8g2\csrc/mui.c ****   //MUI_DEBUG("mui_inner_loop_over_form start %p\n", task);
 423:..\u8g2\csrc/mui.c ****   
 424:..\u8g2\csrc/mui.c ****   ui->fds += mui_fds_get_cmd_size(ui, ui->fds);      // skip the first entry, it is U always
 425:..\u8g2\csrc/mui.c ****   for(;;)
 426:..\u8g2\csrc/mui.c ****   {    
 427:..\u8g2\csrc/mui.c ****     //printf("fds=%p *fds='%c'\n", ui->fds, ui->fds[0]);
 428:..\u8g2\csrc/mui.c ****     /* get the command and check whether end of form is reached */
 429:..\u8g2\csrc/mui.c ****     cmd = mui_get_fds_char(ui->fds);
ARM GAS  C:\Users\brian\AppData\Local\Temp\ccibXfrV.s 			page 9


 430:..\u8g2\csrc/mui.c ****     if ( cmd == 'U' || cmd == 0 )
 431:..\u8g2\csrc/mui.c ****       break;
 432:..\u8g2\csrc/mui.c ****     if ( mui_prepare_current_field(ui) )
 433:..\u8g2\csrc/mui.c ****       if ( task(ui) )         /* call the task, which was provided as argument to this function */
 434:..\u8g2\csrc/mui.c ****       {
 435:..\u8g2\csrc/mui.c ****         //MUI_DEBUG("mui_inner_loop_over_form break by task\n");
 436:..\u8g2\csrc/mui.c ****         break;
 437:..\u8g2\csrc/mui.c ****       }
 438:..\u8g2\csrc/mui.c ****     ui->fds += ui->len;
 439:..\u8g2\csrc/mui.c ****   }
 440:..\u8g2\csrc/mui.c ****   
 441:..\u8g2\csrc/mui.c ****   //MUI_DEBUG("mui_inner_loop_over_form end %p\n", task);
 442:..\u8g2\csrc/mui.c **** }
 443:..\u8g2\csrc/mui.c **** 
 444:..\u8g2\csrc/mui.c **** static void mui_loop_over_form(mui_t *ui, uint8_t (*task)(mui_t *ui)) MUI_NOINLINE;
 445:..\u8g2\csrc/mui.c **** static void mui_loop_over_form(mui_t *ui, uint8_t (*task)(mui_t *ui))
 446:..\u8g2\csrc/mui.c **** {
 447:..\u8g2\csrc/mui.c ****   if ( mui_IsFormActive(ui) == 0 )
 448:..\u8g2\csrc/mui.c ****     return;
 449:..\u8g2\csrc/mui.c ****   
 450:..\u8g2\csrc/mui.c ****   ui->fds = ui->current_form_fds;
 451:..\u8g2\csrc/mui.c ****   ui->target_fds = NULL;
 452:..\u8g2\csrc/mui.c ****   ui->tmp_fds = NULL;
 453:..\u8g2\csrc/mui.c ****   
 454:..\u8g2\csrc/mui.c ****   mui_inner_loop_over_form(ui, task);  
 455:..\u8g2\csrc/mui.c **** }
 456:..\u8g2\csrc/mui.c **** 
 457:..\u8g2\csrc/mui.c **** /*
 458:..\u8g2\csrc/mui.c ****   n is the form number
 459:..\u8g2\csrc/mui.c **** */
 460:..\u8g2\csrc/mui.c **** fds_t *mui_find_form(mui_t *ui, uint8_t n)
 461:..\u8g2\csrc/mui.c **** {
 462:..\u8g2\csrc/mui.c ****   fds_t *fds = ui->root_fds;
 463:..\u8g2\csrc/mui.c ****   uint8_t cmd;
 464:..\u8g2\csrc/mui.c ****   
 465:..\u8g2\csrc/mui.c ****   for( ;; )
 466:..\u8g2\csrc/mui.c ****   {
 467:..\u8g2\csrc/mui.c ****     cmd = mui_get_fds_char(fds);
 468:..\u8g2\csrc/mui.c ****     if ( cmd == 0 )
 469:..\u8g2\csrc/mui.c ****       break;
 470:..\u8g2\csrc/mui.c ****     if ( cmd == 'U'  )
 471:..\u8g2\csrc/mui.c ****     {
 472:..\u8g2\csrc/mui.c ****       if (   mui_get_fds_char(fds+1) == n )
 473:..\u8g2\csrc/mui.c ****       {
 474:..\u8g2\csrc/mui.c ****         return fds;
 475:..\u8g2\csrc/mui.c ****       }
 476:..\u8g2\csrc/mui.c ****       /* not found, just coninue */
 477:..\u8g2\csrc/mui.c ****     }
 478:..\u8g2\csrc/mui.c ****     
 479:..\u8g2\csrc/mui.c ****     fds += mui_fds_get_cmd_size(ui, fds);
 480:..\u8g2\csrc/mui.c ****   }
 481:..\u8g2\csrc/mui.c ****   return NULL;
 482:..\u8g2\csrc/mui.c **** }
 483:..\u8g2\csrc/mui.c **** 
 484:..\u8g2\csrc/mui.c **** /* === task procedures (arguments for mui_loop_over_form) === */
 485:..\u8g2\csrc/mui.c **** /* ui->fds contains the current field */
 486:..\u8g2\csrc/mui.c **** 
ARM GAS  C:\Users\brian\AppData\Local\Temp\ccibXfrV.s 			page 10


 487:..\u8g2\csrc/mui.c **** uint8_t mui_task_draw(mui_t *ui)
 488:..\u8g2\csrc/mui.c **** {
  28              		.loc 1 488 0
  29              		.cfi_startproc
  30              		@ args = 0, pretend = 0, frame = 0
  31              		@ frame_needed = 0, uses_anonymous_args = 0
  32              	.LVL0:
  33 0000 08B5     		push	{r3, lr}
  34              		.cfi_def_cfa_offset 8
  35              		.cfi_offset 3, -8
  36              		.cfi_offset 14, -4
 489:..\u8g2\csrc/mui.c ****   //printf("mui_task_draw fds=%p uif=%p text=%s\n", ui->fds, ui->uif, ui->text);
 490:..\u8g2\csrc/mui.c ****   muif_get_cb(ui->uif)(ui, MUIF_MSG_DRAW);
  37              		.loc 1 490 0
  38 0002 836B     		ldr	r3, [r0, #56]
  39 0004 9B68     		ldr	r3, [r3, #8]
  40 0006 0121     		movs	r1, #1
  41 0008 9847     		blx	r3
  42              	.LVL1:
 491:..\u8g2\csrc/mui.c ****   return 0;     /* continue with the loop */
 492:..\u8g2\csrc/mui.c **** }
  43              		.loc 1 492 0
  44 000a 0020     		movs	r0, #0
  45 000c 08BD     		pop	{r3, pc}
  46              		.cfi_endproc
  47              	.LFE14:
  48              		.size	mui_task_draw, .-mui_task_draw
  49 000e 00BF     		.section	.text.mui_task_form_start,"ax",%progbits
  50              		.align	2
  51              		.global	mui_task_form_start
  52              		.thumb
  53              		.thumb_func
  54              		.type	mui_task_form_start, %function
  55              	mui_task_form_start:
  56              	.LFB15:
 493:..\u8g2\csrc/mui.c **** 
 494:..\u8g2\csrc/mui.c **** uint8_t mui_task_form_start(mui_t *ui)
 495:..\u8g2\csrc/mui.c **** {
  57              		.loc 1 495 0
  58              		.cfi_startproc
  59              		@ args = 0, pretend = 0, frame = 0
  60              		@ frame_needed = 0, uses_anonymous_args = 0
  61              	.LVL2:
  62 0000 08B5     		push	{r3, lr}
  63              		.cfi_def_cfa_offset 8
  64              		.cfi_offset 3, -8
  65              		.cfi_offset 14, -4
 496:..\u8g2\csrc/mui.c ****   muif_get_cb(ui->uif)(ui, MUIF_MSG_FORM_START);
  66              		.loc 1 496 0
  67 0002 836B     		ldr	r3, [r0, #56]
  68 0004 9B68     		ldr	r3, [r3, #8]
  69 0006 0221     		movs	r1, #2
  70 0008 9847     		blx	r3
  71              	.LVL3:
 497:..\u8g2\csrc/mui.c ****   return 0;     /* continue with the loop */
 498:..\u8g2\csrc/mui.c **** }
  72              		.loc 1 498 0
ARM GAS  C:\Users\brian\AppData\Local\Temp\ccibXfrV.s 			page 11


  73 000a 0020     		movs	r0, #0
  74 000c 08BD     		pop	{r3, pc}
  75              		.cfi_endproc
  76              	.LFE15:
  77              		.size	mui_task_form_start, .-mui_task_form_start
  78 000e 00BF     		.section	.text.mui_task_form_end,"ax",%progbits
  79              		.align	2
  80              		.global	mui_task_form_end
  81              		.thumb
  82              		.thumb_func
  83              		.type	mui_task_form_end, %function
  84              	mui_task_form_end:
  85              	.LFB16:
 499:..\u8g2\csrc/mui.c **** 
 500:..\u8g2\csrc/mui.c **** uint8_t mui_task_form_end(mui_t *ui)
 501:..\u8g2\csrc/mui.c **** {
  86              		.loc 1 501 0
  87              		.cfi_startproc
  88              		@ args = 0, pretend = 0, frame = 0
  89              		@ frame_needed = 0, uses_anonymous_args = 0
  90              	.LVL4:
  91 0000 08B5     		push	{r3, lr}
  92              		.cfi_def_cfa_offset 8
  93              		.cfi_offset 3, -8
  94              		.cfi_offset 14, -4
 502:..\u8g2\csrc/mui.c ****   muif_get_cb(ui->uif)(ui, MUIF_MSG_FORM_END);
  95              		.loc 1 502 0
  96 0002 836B     		ldr	r3, [r0, #56]
  97 0004 9B68     		ldr	r3, [r3, #8]
  98 0006 0321     		movs	r1, #3
  99 0008 9847     		blx	r3
 100              	.LVL5:
 503:..\u8g2\csrc/mui.c ****   return 0;     /* continue with the loop */
 504:..\u8g2\csrc/mui.c **** }
 101              		.loc 1 504 0
 102 000a 0020     		movs	r0, #0
 103 000c 08BD     		pop	{r3, pc}
 104              		.cfi_endproc
 105              	.LFE16:
 106              		.size	mui_task_form_end, .-mui_task_form_end
 107 000e 00BF     		.section	.text.mui_uif_is_cursor_selectable,"ax",%progbits
 108              		.align	2
 109              		.thumb
 110              		.thumb_func
 111              		.type	mui_uif_is_cursor_selectable, %function
 112              	mui_uif_is_cursor_selectable:
 113              	.LFB17:
 505:..\u8g2\csrc/mui.c **** 
 506:..\u8g2\csrc/mui.c **** static uint8_t mui_uif_is_cursor_selectable(mui_t *ui) MUI_NOINLINE;
 507:..\u8g2\csrc/mui.c **** static uint8_t mui_uif_is_cursor_selectable(mui_t *ui)
 508:..\u8g2\csrc/mui.c **** {
 114              		.loc 1 508 0
 115              		.cfi_startproc
 116              		@ args = 0, pretend = 0, frame = 0
 117              		@ frame_needed = 0, uses_anonymous_args = 0
 118              		@ link register save eliminated.
 119              	.LVL6:
ARM GAS  C:\Users\brian\AppData\Local\Temp\ccibXfrV.s 			page 12


 509:..\u8g2\csrc/mui.c ****   if ( muif_get_cflags(ui->uif) & MUIF_CFLAG_IS_CURSOR_SELECTABLE )
 120              		.loc 1 509 0
 121 0000 836B     		ldr	r3, [r0, #56]
 122 0002 9878     		ldrb	r0, [r3, #2]	@ zero_extendqisi2
 123              	.LVL7:
 124 0004 10F00100 		ands	r0, r0, #1
 125 0008 00D0     		beq	.L8
 510:..\u8g2\csrc/mui.c ****   {
 511:..\u8g2\csrc/mui.c ****     return 1;
 126              		.loc 1 511 0
 127 000a 0120     		movs	r0, #1
 128              	.L8:
 512:..\u8g2\csrc/mui.c ****   }
 513:..\u8g2\csrc/mui.c ****   return 0;
 514:..\u8g2\csrc/mui.c **** }
 129              		.loc 1 514 0
 130 000c 7047     		bx	lr
 131              		.cfi_endproc
 132              	.LFE17:
 133              		.size	mui_uif_is_cursor_selectable, .-mui_uif_is_cursor_selectable
 134 000e 00BF     		.section	.text.mui_task_find_prev_cursor_uif,"ax",%progbits
 135              		.align	2
 136              		.global	mui_task_find_prev_cursor_uif
 137              		.thumb
 138              		.thumb_func
 139              		.type	mui_task_find_prev_cursor_uif, %function
 140              	mui_task_find_prev_cursor_uif:
 141              	.LFB18:
 515:..\u8g2\csrc/mui.c **** 
 516:..\u8g2\csrc/mui.c **** uint8_t mui_task_find_prev_cursor_uif(mui_t *ui)
 517:..\u8g2\csrc/mui.c **** {
 142              		.loc 1 517 0
 143              		.cfi_startproc
 144              		@ args = 0, pretend = 0, frame = 0
 145              		@ frame_needed = 0, uses_anonymous_args = 0
 146              	.LVL8:
 147 0000 10B5     		push	{r4, lr}
 148              		.cfi_def_cfa_offset 8
 149              		.cfi_offset 4, -8
 150              		.cfi_offset 14, -4
 151 0002 0446     		mov	r4, r0
 518:..\u8g2\csrc/mui.c ****   //if ( muif_get_cflags(ui->uif) & MUIF_CFLAG_IS_CURSOR_SELECTABLE )
 519:..\u8g2\csrc/mui.c ****   if ( mui_uif_is_cursor_selectable(ui) )
 152              		.loc 1 519 0
 153 0004 FFF7FEFF 		bl	mui_uif_is_cursor_selectable
 154              	.LVL9:
 155 0008 0346     		mov	r3, r0
 156 000a 48B1     		cbz	r0, .L10
 520:..\u8g2\csrc/mui.c ****   {
 521:..\u8g2\csrc/mui.c ****     if ( ui->fds == ui->cursor_focus_fds )
 157              		.loc 1 521 0
 158 000c 636B     		ldr	r3, [r4, #52]
 159 000e 6269     		ldr	r2, [r4, #20]
 160 0010 9342     		cmp	r3, r2
 161 0012 03D1     		bne	.L11
 522:..\u8g2\csrc/mui.c ****     {
 523:..\u8g2\csrc/mui.c ****       ui->target_fds = ui->tmp_fds;
ARM GAS  C:\Users\brian\AppData\Local\Temp\ccibXfrV.s 			page 13


 162              		.loc 1 523 0
 163 0014 A36E     		ldr	r3, [r4, #104]
 164 0016 E366     		str	r3, [r4, #108]
 524:..\u8g2\csrc/mui.c ****       return 1;         /* stop looping */
 165              		.loc 1 524 0
 166 0018 0123     		movs	r3, #1
 167 001a 01E0     		b	.L10
 168              	.L11:
 525:..\u8g2\csrc/mui.c ****     }
 526:..\u8g2\csrc/mui.c ****     ui->tmp_fds = ui->fds;
 169              		.loc 1 526 0
 170 001c A366     		str	r3, [r4, #104]
 527:..\u8g2\csrc/mui.c ****   }
 528:..\u8g2\csrc/mui.c ****   return 0;     /* continue with the loop */
 171              		.loc 1 528 0
 172 001e 0023     		movs	r3, #0
 173              	.L10:
 529:..\u8g2\csrc/mui.c **** }
 174              		.loc 1 529 0
 175 0020 1846     		mov	r0, r3
 176 0022 10BD     		pop	{r4, pc}
 177              		.cfi_endproc
 178              	.LFE18:
 179              		.size	mui_task_find_prev_cursor_uif, .-mui_task_find_prev_cursor_uif
 180              		.section	.text.mui_task_find_first_cursor_uif,"ax",%progbits
 181              		.align	2
 182              		.global	mui_task_find_first_cursor_uif
 183              		.thumb
 184              		.thumb_func
 185              		.type	mui_task_find_first_cursor_uif, %function
 186              	mui_task_find_first_cursor_uif:
 187              	.LFB19:
 530:..\u8g2\csrc/mui.c **** 
 531:..\u8g2\csrc/mui.c **** uint8_t mui_task_find_first_cursor_uif(mui_t *ui)
 532:..\u8g2\csrc/mui.c **** {
 188              		.loc 1 532 0
 189              		.cfi_startproc
 190              		@ args = 0, pretend = 0, frame = 0
 191              		@ frame_needed = 0, uses_anonymous_args = 0
 192              	.LVL10:
 193 0000 10B5     		push	{r4, lr}
 194              		.cfi_def_cfa_offset 8
 195              		.cfi_offset 4, -8
 196              		.cfi_offset 14, -4
 197 0002 0446     		mov	r4, r0
 533:..\u8g2\csrc/mui.c ****   //if ( muif_get_cflags(ui->uif) & MUIF_CFLAG_IS_CURSOR_SELECTABLE )
 534:..\u8g2\csrc/mui.c ****   if ( mui_uif_is_cursor_selectable(ui) )
 198              		.loc 1 534 0
 199 0004 FFF7FEFF 		bl	mui_uif_is_cursor_selectable
 200              	.LVL11:
 201 0008 0346     		mov	r3, r0
 202 000a 10B1     		cbz	r0, .L14
 535:..\u8g2\csrc/mui.c ****   {
 536:..\u8g2\csrc/mui.c ****     // if ( ui->target_fds == NULL )
 537:..\u8g2\csrc/mui.c ****     // {
 538:..\u8g2\csrc/mui.c ****       ui->target_fds = ui->fds;
 203              		.loc 1 538 0
ARM GAS  C:\Users\brian\AppData\Local\Temp\ccibXfrV.s 			page 14


 204 000c 636B     		ldr	r3, [r4, #52]
 205 000e E366     		str	r3, [r4, #108]
 539:..\u8g2\csrc/mui.c ****       return 1;         /* stop looping */
 206              		.loc 1 539 0
 207 0010 0123     		movs	r3, #1
 208              	.L14:
 540:..\u8g2\csrc/mui.c ****     // }
 541:..\u8g2\csrc/mui.c ****   }
 542:..\u8g2\csrc/mui.c ****   return 0;     /* continue with the loop */
 543:..\u8g2\csrc/mui.c **** }
 209              		.loc 1 543 0
 210 0012 1846     		mov	r0, r3
 211 0014 10BD     		pop	{r4, pc}
 212              		.cfi_endproc
 213              	.LFE19:
 214              		.size	mui_task_find_first_cursor_uif, .-mui_task_find_first_cursor_uif
 215 0016 00BF     		.section	.text.mui_task_find_last_cursor_uif,"ax",%progbits
 216              		.align	2
 217              		.global	mui_task_find_last_cursor_uif
 218              		.thumb
 219              		.thumb_func
 220              		.type	mui_task_find_last_cursor_uif, %function
 221              	mui_task_find_last_cursor_uif:
 222              	.LFB20:
 544:..\u8g2\csrc/mui.c **** 
 545:..\u8g2\csrc/mui.c **** uint8_t mui_task_find_last_cursor_uif(mui_t *ui)
 546:..\u8g2\csrc/mui.c **** {
 223              		.loc 1 546 0
 224              		.cfi_startproc
 225              		@ args = 0, pretend = 0, frame = 0
 226              		@ frame_needed = 0, uses_anonymous_args = 0
 227              	.LVL12:
 228 0000 10B5     		push	{r4, lr}
 229              		.cfi_def_cfa_offset 8
 230              		.cfi_offset 4, -8
 231              		.cfi_offset 14, -4
 232 0002 0446     		mov	r4, r0
 547:..\u8g2\csrc/mui.c ****   //if ( muif_get_cflags(ui->uif) & MUIF_CFLAG_IS_CURSOR_SELECTABLE )
 548:..\u8g2\csrc/mui.c ****   if ( mui_uif_is_cursor_selectable(ui) )
 233              		.loc 1 548 0
 234 0004 FFF7FEFF 		bl	mui_uif_is_cursor_selectable
 235              	.LVL13:
 236 0008 08B1     		cbz	r0, .L17
 549:..\u8g2\csrc/mui.c ****   {
 550:..\u8g2\csrc/mui.c ****     //ui->cursor_focus_position++;
 551:..\u8g2\csrc/mui.c ****     ui->target_fds = ui->fds;
 237              		.loc 1 551 0
 238 000a 636B     		ldr	r3, [r4, #52]
 239 000c E366     		str	r3, [r4, #108]
 240              	.L17:
 552:..\u8g2\csrc/mui.c ****   }
 553:..\u8g2\csrc/mui.c ****   return 0;     /* continue with the loop */
 554:..\u8g2\csrc/mui.c **** }
 241              		.loc 1 554 0
 242 000e 0020     		movs	r0, #0
 243 0010 10BD     		pop	{r4, pc}
 244              		.cfi_endproc
ARM GAS  C:\Users\brian\AppData\Local\Temp\ccibXfrV.s 			page 15


 245              	.LFE20:
 246              		.size	mui_task_find_last_cursor_uif, .-mui_task_find_last_cursor_uif
 247 0012 00BF     		.section	.text.mui_task_find_next_cursor_uif,"ax",%progbits
 248              		.align	2
 249              		.global	mui_task_find_next_cursor_uif
 250              		.thumb
 251              		.thumb_func
 252              		.type	mui_task_find_next_cursor_uif, %function
 253              	mui_task_find_next_cursor_uif:
 254              	.LFB21:
 555:..\u8g2\csrc/mui.c **** 
 556:..\u8g2\csrc/mui.c **** uint8_t mui_task_find_next_cursor_uif(mui_t *ui)
 557:..\u8g2\csrc/mui.c **** {
 255              		.loc 1 557 0
 256              		.cfi_startproc
 257              		@ args = 0, pretend = 0, frame = 0
 258              		@ frame_needed = 0, uses_anonymous_args = 0
 259              	.LVL14:
 260 0000 10B5     		push	{r4, lr}
 261              		.cfi_def_cfa_offset 8
 262              		.cfi_offset 4, -8
 263              		.cfi_offset 14, -4
 264 0002 0446     		mov	r4, r0
 558:..\u8g2\csrc/mui.c ****   //if ( muif_get_cflags(ui->uif) & MUIF_CFLAG_IS_CURSOR_SELECTABLE )
 559:..\u8g2\csrc/mui.c ****   if ( mui_uif_is_cursor_selectable(ui) )
 265              		.loc 1 559 0
 266 0004 FFF7FEFF 		bl	mui_uif_is_cursor_selectable
 267              	.LVL15:
 268 0008 0346     		mov	r3, r0
 269 000a 78B1     		cbz	r0, .L20
 560:..\u8g2\csrc/mui.c ****   {
 561:..\u8g2\csrc/mui.c ****     if ( ui->tmp_fds != NULL )
 270              		.loc 1 561 0
 271 000c A36E     		ldr	r3, [r4, #104]
 272 000e 2BB1     		cbz	r3, .L21
 562:..\u8g2\csrc/mui.c ****     {
 563:..\u8g2\csrc/mui.c ****       ui->target_fds = ui->fds;        
 273              		.loc 1 563 0
 274 0010 636B     		ldr	r3, [r4, #52]
 275 0012 E366     		str	r3, [r4, #108]
 564:..\u8g2\csrc/mui.c ****       ui->tmp_fds = NULL;
 276              		.loc 1 564 0
 277 0014 0023     		movs	r3, #0
 278 0016 A366     		str	r3, [r4, #104]
 565:..\u8g2\csrc/mui.c ****       return 1;         /* stop looping */
 279              		.loc 1 565 0
 280 0018 0123     		movs	r3, #1
 281 001a 07E0     		b	.L20
 282              	.L21:
 566:..\u8g2\csrc/mui.c ****     }
 567:..\u8g2\csrc/mui.c ****     if ( ui->fds == ui->cursor_focus_fds )
 283              		.loc 1 567 0
 284 001c 636B     		ldr	r3, [r4, #52]
 285 001e 6269     		ldr	r2, [r4, #20]
 286 0020 9342     		cmp	r3, r2
 287 0022 02D1     		bne	.L22
 568:..\u8g2\csrc/mui.c ****     {
ARM GAS  C:\Users\brian\AppData\Local\Temp\ccibXfrV.s 			page 16


 569:..\u8g2\csrc/mui.c ****       ui->tmp_fds = ui->fds;
 288              		.loc 1 569 0
 289 0024 A366     		str	r3, [r4, #104]
 570:..\u8g2\csrc/mui.c ****     }
 571:..\u8g2\csrc/mui.c ****   }
 572:..\u8g2\csrc/mui.c ****   return 0;     /* continue with the loop */
 290              		.loc 1 572 0
 291 0026 0023     		movs	r3, #0
 292 0028 00E0     		b	.L20
 293              	.L22:
 294 002a 0023     		movs	r3, #0
 295              	.L20:
 573:..\u8g2\csrc/mui.c **** }
 296              		.loc 1 573 0
 297 002c 1846     		mov	r0, r3
 298 002e 10BD     		pop	{r4, pc}
 299              		.cfi_endproc
 300              	.LFE21:
 301              		.size	mui_task_find_next_cursor_uif, .-mui_task_find_next_cursor_uif
 302              		.section	.text.mui_task_get_current_cursor_focus_position,"ax",%progbits
 303              		.align	2
 304              		.global	mui_task_get_current_cursor_focus_position
 305              		.thumb
 306              		.thumb_func
 307              		.type	mui_task_get_current_cursor_focus_position, %function
 308              	mui_task_get_current_cursor_focus_position:
 309              	.LFB22:
 574:..\u8g2\csrc/mui.c **** 
 575:..\u8g2\csrc/mui.c **** uint8_t mui_task_get_current_cursor_focus_position(mui_t *ui)
 576:..\u8g2\csrc/mui.c **** {
 310              		.loc 1 576 0
 311              		.cfi_startproc
 312              		@ args = 0, pretend = 0, frame = 0
 313              		@ frame_needed = 0, uses_anonymous_args = 0
 314              	.LVL16:
 315 0000 10B5     		push	{r4, lr}
 316              		.cfi_def_cfa_offset 8
 317              		.cfi_offset 4, -8
 318              		.cfi_offset 14, -4
 319 0002 0446     		mov	r4, r0
 577:..\u8g2\csrc/mui.c ****   //if ( muif_get_cflags(ui->uif) & MUIF_CFLAG_IS_CURSOR_SELECTABLE )
 578:..\u8g2\csrc/mui.c ****   if ( mui_uif_is_cursor_selectable(ui) )
 320              		.loc 1 578 0
 321 0004 FFF7FEFF 		bl	mui_uif_is_cursor_selectable
 322              	.LVL17:
 323 0008 0346     		mov	r3, r0
 324 000a 58B1     		cbz	r0, .L25
 579:..\u8g2\csrc/mui.c ****   {
 580:..\u8g2\csrc/mui.c ****     if ( ui->fds == ui->cursor_focus_fds )
 325              		.loc 1 580 0
 326 000c 626B     		ldr	r2, [r4, #52]
 327 000e 6369     		ldr	r3, [r4, #20]
 328 0010 9A42     		cmp	r2, r3
 329 0012 06D0     		beq	.L26
 581:..\u8g2\csrc/mui.c ****       return 1;         /* stop looping */
 582:..\u8g2\csrc/mui.c ****     ui->tmp8++;
 330              		.loc 1 582 0
ARM GAS  C:\Users\brian\AppData\Local\Temp\ccibXfrV.s 			page 17


 331 0014 94F82530 		ldrb	r3, [r4, #37]	@ zero_extendqisi2
 332 0018 0133     		adds	r3, r3, #1
 333 001a 84F82530 		strb	r3, [r4, #37]
 583:..\u8g2\csrc/mui.c ****   }
 584:..\u8g2\csrc/mui.c ****   return 0;     /* continue with the loop */
 334              		.loc 1 584 0
 335 001e 0023     		movs	r3, #0
 336 0020 00E0     		b	.L25
 337              	.L26:
 581:..\u8g2\csrc/mui.c ****       return 1;         /* stop looping */
 338              		.loc 1 581 0
 339 0022 0123     		movs	r3, #1
 340              	.L25:
 585:..\u8g2\csrc/mui.c **** }
 341              		.loc 1 585 0
 342 0024 1846     		mov	r0, r3
 343 0026 10BD     		pop	{r4, pc}
 344              		.cfi_endproc
 345              	.LFE22:
 346              		.size	mui_task_get_current_cursor_focus_position, .-mui_task_get_current_cursor_focus_position
 347              		.section	.text.mui_get_fds_char,"ax",%progbits
 348              		.align	2
 349              		.global	mui_get_fds_char
 350              		.thumb
 351              		.thumb_func
 352              		.type	mui_get_fds_char, %function
 353              	mui_get_fds_char:
 354              	.LFB0:
  88:..\u8g2\csrc/mui.c ****   //return (uint8_t)(*s);
 355              		.loc 1 88 0
 356              		.cfi_startproc
 357              		@ args = 0, pretend = 0, frame = 0
 358              		@ frame_needed = 0, uses_anonymous_args = 0
 359              		@ link register save eliminated.
 360              	.LVL18:
  91:..\u8g2\csrc/mui.c **** 
 361              		.loc 1 91 0
 362 0000 0078     		ldrb	r0, [r0]	@ zero_extendqisi2
 363              	.LVL19:
 364 0002 7047     		bx	lr
 365              		.cfi_endproc
 366              	.LFE0:
 367              		.size	mui_get_fds_char, .-mui_get_fds_char
 368              		.section	.text.mui_fds_get_cmd_size_without_text,"ax",%progbits
 369              		.align	2
 370              		.thumb
 371              		.thumb_func
 372              		.type	mui_fds_get_cmd_size_without_text, %function
 373              	mui_fds_get_cmd_size_without_text:
 374              	.LFB1:
  99:..\u8g2\csrc/mui.c ****   uint8_t c = mui_get_fds_char(s);
 375              		.loc 1 99 0
 376              		.cfi_startproc
 377              		@ args = 0, pretend = 0, frame = 0
 378              		@ frame_needed = 0, uses_anonymous_args = 0
 379              	.LVL20:
 380 0000 08B5     		push	{r3, lr}
ARM GAS  C:\Users\brian\AppData\Local\Temp\ccibXfrV.s 			page 18


 381              		.cfi_def_cfa_offset 8
 382              		.cfi_offset 3, -8
 383              		.cfi_offset 14, -4
 100:..\u8g2\csrc/mui.c ****   c &= 0xdf; /* consider upper and lower case */
 384              		.loc 1 100 0
 385 0002 FFF7FEFF 		bl	mui_get_fds_char
 386              	.LVL21:
 101:..\u8g2\csrc/mui.c ****   switch(c)
 387              		.loc 1 101 0
 388 0006 00F0DF00 		and	r0, r0, #223
 389              	.LVL22:
 102:..\u8g2\csrc/mui.c ****   {
 390              		.loc 1 102 0
 391 000a 5528     		cmp	r0, #85
 392 000c 3AD8     		bhi	.L30
 393 000e DFE800F0 		tbb	[pc, r0]
 394              	.L32:
 395 0012 37       		.byte	(.L31-.L32)/2
 396 0013 39       		.byte	(.L30-.L32)/2
 397 0014 39       		.byte	(.L30-.L32)/2
 398 0015 39       		.byte	(.L30-.L32)/2
 399 0016 39       		.byte	(.L30-.L32)/2
 400 0017 39       		.byte	(.L30-.L32)/2
 401 0018 39       		.byte	(.L30-.L32)/2
 402 0019 39       		.byte	(.L30-.L32)/2
 403 001a 39       		.byte	(.L30-.L32)/2
 404 001b 39       		.byte	(.L30-.L32)/2
 405 001c 39       		.byte	(.L30-.L32)/2
 406 001d 39       		.byte	(.L30-.L32)/2
 407 001e 39       		.byte	(.L30-.L32)/2
 408 001f 39       		.byte	(.L30-.L32)/2
 409 0020 39       		.byte	(.L30-.L32)/2
 410 0021 39       		.byte	(.L30-.L32)/2
 411 0022 39       		.byte	(.L30-.L32)/2
 412 0023 39       		.byte	(.L30-.L32)/2
 413 0024 39       		.byte	(.L30-.L32)/2
 414 0025 39       		.byte	(.L30-.L32)/2
 415 0026 39       		.byte	(.L30-.L32)/2
 416 0027 39       		.byte	(.L30-.L32)/2
 417 0028 39       		.byte	(.L30-.L32)/2
 418 0029 39       		.byte	(.L30-.L32)/2
 419 002a 39       		.byte	(.L30-.L32)/2
 420 002b 39       		.byte	(.L30-.L32)/2
 421 002c 39       		.byte	(.L30-.L32)/2
 422 002d 39       		.byte	(.L30-.L32)/2
 423 002e 39       		.byte	(.L30-.L32)/2
 424 002f 39       		.byte	(.L30-.L32)/2
 425 0030 39       		.byte	(.L30-.L32)/2
 426 0031 39       		.byte	(.L30-.L32)/2
 427 0032 39       		.byte	(.L30-.L32)/2
 428 0033 39       		.byte	(.L30-.L32)/2
 429 0034 39       		.byte	(.L30-.L32)/2
 430 0035 39       		.byte	(.L30-.L32)/2
 431 0036 39       		.byte	(.L30-.L32)/2
 432 0037 39       		.byte	(.L30-.L32)/2
 433 0038 39       		.byte	(.L30-.L32)/2
 434 0039 39       		.byte	(.L30-.L32)/2
ARM GAS  C:\Users\brian\AppData\Local\Temp\ccibXfrV.s 			page 19


 435 003a 39       		.byte	(.L30-.L32)/2
 436 003b 39       		.byte	(.L30-.L32)/2
 437 003c 39       		.byte	(.L30-.L32)/2
 438 003d 39       		.byte	(.L30-.L32)/2
 439 003e 39       		.byte	(.L30-.L32)/2
 440 003f 39       		.byte	(.L30-.L32)/2
 441 0040 39       		.byte	(.L30-.L32)/2
 442 0041 39       		.byte	(.L30-.L32)/2
 443 0042 39       		.byte	(.L30-.L32)/2
 444 0043 39       		.byte	(.L30-.L32)/2
 445 0044 39       		.byte	(.L30-.L32)/2
 446 0045 39       		.byte	(.L30-.L32)/2
 447 0046 39       		.byte	(.L30-.L32)/2
 448 0047 39       		.byte	(.L30-.L32)/2
 449 0048 39       		.byte	(.L30-.L32)/2
 450 0049 39       		.byte	(.L30-.L32)/2
 451 004a 39       		.byte	(.L30-.L32)/2
 452 004b 39       		.byte	(.L30-.L32)/2
 453 004c 39       		.byte	(.L30-.L32)/2
 454 004d 39       		.byte	(.L30-.L32)/2
 455 004e 39       		.byte	(.L30-.L32)/2
 456 004f 39       		.byte	(.L30-.L32)/2
 457 0050 39       		.byte	(.L30-.L32)/2
 458 0051 39       		.byte	(.L30-.L32)/2
 459 0052 39       		.byte	(.L30-.L32)/2
 460 0053 33       		.byte	(.L33-.L32)/2
 461 0054 2F       		.byte	(.L34-.L32)/2
 462 0055 39       		.byte	(.L30-.L32)/2
 463 0056 3B       		.byte	(.L40-.L32)/2
 464 0057 39       		.byte	(.L30-.L32)/2
 465 0058 2D       		.byte	(.L36-.L32)/2
 466 0059 35       		.byte	(.L37-.L32)/2
 467 005a 39       		.byte	(.L30-.L32)/2
 468 005b 39       		.byte	(.L30-.L32)/2
 469 005c 39       		.byte	(.L30-.L32)/2
 470 005d 39       		.byte	(.L30-.L32)/2
 471 005e 3B       		.byte	(.L40-.L32)/2
 472 005f 39       		.byte	(.L30-.L32)/2
 473 0060 39       		.byte	(.L30-.L32)/2
 474 0061 39       		.byte	(.L30-.L32)/2
 475 0062 39       		.byte	(.L30-.L32)/2
 476 0063 39       		.byte	(.L30-.L32)/2
 477 0064 39       		.byte	(.L30-.L32)/2
 478 0065 2B       		.byte	(.L38-.L32)/2
 479 0066 31       		.byte	(.L39-.L32)/2
 480 0067 2B       		.byte	(.L38-.L32)/2
 481              		.p2align 1
 482              	.L38:
 104:..\u8g2\csrc/mui.c ****     case 'S': return 2;         // Style: CMD (1 Byte), Style Id (1 Byte)
 483              		.loc 1 104 0
 484 0068 0220     		movs	r0, #2
 485              	.LVL23:
 486 006a 08BD     		pop	{r3, pc}
 487              	.LVL24:
 488              	.L36:
 107:..\u8g2\csrc/mui.c ****     case 'B': return 5;         // Field with text: CMD (1 Byte), ID (2 Bytes), X, Y, Text (does no
 489              		.loc 1 107 0
ARM GAS  C:\Users\brian\AppData\Local\Temp\ccibXfrV.s 			page 20


 490 006c 0520     		movs	r0, #5
 491              	.LVL25:
 492 006e 08BD     		pop	{r3, pc}
 493              	.LVL26:
 494              	.L34:
 108:..\u8g2\csrc/mui.c ****     case 'T': return 6;         // Field with arg & text: CMD (1 Byte), ID (2 Bytes), X, Y, Arg, Te
 495              		.loc 1 108 0
 496 0070 0520     		movs	r0, #5
 497              	.LVL27:
 498 0072 08BD     		pop	{r3, pc}
 499              	.LVL28:
 500              	.L39:
 109:..\u8g2\csrc/mui.c ****     case 'A': return 6;         // Field with arg (no text): CMD (1 Byte), ID (2 Bytes), X, Y, Arg,
 501              		.loc 1 109 0
 502 0074 0620     		movs	r0, #6
 503              	.LVL29:
 504 0076 08BD     		pop	{r3, pc}
 505              	.LVL30:
 506              	.L33:
 110:..\u8g2\csrc/mui.c ****     case 'L': return 3;          // Text Label: CMD (1 Byte), X, Y (same as 'B' but with fixed ID '
 507              		.loc 1 110 0
 508 0078 0620     		movs	r0, #6
 509              	.LVL31:
 510 007a 08BD     		pop	{r3, pc}
 511              	.LVL32:
 512              	.L37:
 112:..\u8g2\csrc/mui.c ****     case 0: return 0;
 513              		.loc 1 112 0
 514 007c 0420     		movs	r0, #4
 515              	.LVL33:
 516 007e 08BD     		pop	{r3, pc}
 517              	.LVL34:
 518              	.L31:
 113:..\u8g2\csrc/mui.c ****   }
 519              		.loc 1 113 0
 520 0080 0020     		movs	r0, #0
 521              	.LVL35:
 522 0082 08BD     		pop	{r3, pc}
 523              	.LVL36:
 524              	.L30:
 115:..\u8g2\csrc/mui.c **** }
 525              		.loc 1 115 0
 526 0084 0120     		movs	r0, #1
 527              	.LVL37:
 528 0086 08BD     		pop	{r3, pc}
 529              	.LVL38:
 530              	.L40:
 106:..\u8g2\csrc/mui.c ****     case 'F': return 5;         // Field without arg & text: CMD (1 Byte), ID (2 Bytes), X, Y
 531              		.loc 1 106 0
 532 0088 0320     		movs	r0, #3
 533              	.LVL39:
 116:..\u8g2\csrc/mui.c **** 
 534              		.loc 1 116 0
 535 008a 08BD     		pop	{r3, pc}
 536              		.cfi_endproc
 537              	.LFE1:
 538              		.size	mui_fds_get_cmd_size_without_text, .-mui_fds_get_cmd_size_without_text
ARM GAS  C:\Users\brian\AppData\Local\Temp\ccibXfrV.s 			page 21


 539              		.section	.text.mui_fds_parse_text,"ax",%progbits
 540              		.align	2
 541              		.thumb
 542              		.thumb_func
 543              		.type	mui_fds_parse_text, %function
 544              	mui_fds_parse_text:
 545              	.LFB2:
 128:..\u8g2\csrc/mui.c ****   uint8_t i = 0;
 546              		.loc 1 128 0
 547              		.cfi_startproc
 548              		@ args = 0, pretend = 0, frame = 0
 549              		@ frame_needed = 0, uses_anonymous_args = 0
 550              	.LVL40:
 551 0000 2DE9F041 		push	{r4, r5, r6, r7, r8, lr}
 552              		.cfi_def_cfa_offset 24
 553              		.cfi_offset 4, -24
 554              		.cfi_offset 5, -20
 555              		.cfi_offset 6, -16
 556              		.cfi_offset 7, -12
 557              		.cfi_offset 8, -8
 558              		.cfi_offset 14, -4
 559 0004 8046     		mov	r8, r0
 560 0006 0F46     		mov	r7, r1
 561              	.LVL41:
 130:..\u8g2\csrc/mui.c ****   uint8_t c;
 562              		.loc 1 130 0
 563 0008 0846     		mov	r0, r1
 564              	.LVL42:
 565 000a FFF7FEFF 		bl	mui_get_fds_char
 566              	.LVL43:
 567 000e 88F82700 		strb	r0, [r8, #39]
 568              	.LVL44:
 136:..\u8g2\csrc/mui.c ****     return 0;
 569              		.loc 1 136 0
 570 0012 D0B1     		cbz	r0, .L48
 571 0014 0646     		mov	r6, r0
 139:..\u8g2\csrc/mui.c ****   for( ;; )
 572              		.loc 1 139 0
 573 0016 7D1C     		adds	r5, r7, #1
 574              	.LVL45:
 129:..\u8g2\csrc/mui.c ****   ui->delimiter = mui_get_fds_char(s);
 575              		.loc 1 129 0
 576 0018 0024     		movs	r4, #0
 577              	.LVL46:
 578              	.L47:
 142:..\u8g2\csrc/mui.c ****   //printf("mui_fds_parse_text i=%d, c=%c\n", i, c);
 579              		.loc 1 142 0
 580 001a 2846     		mov	r0, r5
 581 001c FFF7FEFF 		bl	mui_get_fds_char
 582              	.LVL47:
 145:..\u8g2\csrc/mui.c ****       break;
 583              		.loc 1 145 0
 584 0020 60B1     		cbz	r0, .L44
 148:..\u8g2\csrc/mui.c ****     {
 585              		.loc 1 148 0
 586 0022 8642     		cmp	r6, r0
 587 0024 01D1     		bne	.L45
ARM GAS  C:\Users\brian\AppData\Local\Temp\ccibXfrV.s 			page 22


 150:..\u8g2\csrc/mui.c ****       break;
 588              		.loc 1 150 0
 589 0026 0135     		adds	r5, r5, #1
 590              	.LVL48:
 151:..\u8g2\csrc/mui.c ****     }
 591              		.loc 1 151 0
 592 0028 08E0     		b	.L44
 593              	.L45:
 153:..\u8g2\csrc/mui.c ****     {
 594              		.loc 1 153 0
 595 002a 282C     		cmp	r4, #40
 596 002c 04D8     		bhi	.L46
 155:..\u8g2\csrc/mui.c ****     }
 597              		.loc 1 155 0
 598 002e 621C     		adds	r2, r4, #1
 599              	.LVL49:
 600 0030 4444     		add	r4, r4, r8
 601 0032 84F83C00 		strb	r0, [r4, #60]
 602 0036 D4B2     		uxtb	r4, r2
 603              	.LVL50:
 604              	.L46:
 157:..\u8g2\csrc/mui.c ****   }
 605              		.loc 1 157 0
 606 0038 0135     		adds	r5, r5, #1
 607              	.LVL51:
 158:..\u8g2\csrc/mui.c ****   ui->text[i] = '\0' ;
 608              		.loc 1 158 0
 609 003a EEE7     		b	.L47
 610              	.L44:
 159:..\u8g2\csrc/mui.c ****   return t-s;
 611              		.loc 1 159 0
 612 003c 4444     		add	r4, r4, r8
 613              	.LVL52:
 614 003e 0023     		movs	r3, #0
 615 0040 84F83C30 		strb	r3, [r4, #60]
 160:..\u8g2\csrc/mui.c **** }
 616              		.loc 1 160 0
 617 0044 E81B     		subs	r0, r5, r7
 618              	.LVL53:
 619 0046 BDE8F081 		pop	{r4, r5, r6, r7, r8, pc}
 620              	.LVL54:
 621              	.L48:
 137:..\u8g2\csrc/mui.c **** #endif 
 622              		.loc 1 137 0
 623 004a 0020     		movs	r0, #0
 161:..\u8g2\csrc/mui.c **** 
 624              		.loc 1 161 0
 625 004c BDE8F081 		pop	{r4, r5, r6, r7, r8, pc}
 626              		.cfi_endproc
 627              	.LFE2:
 628              		.size	mui_fds_parse_text, .-mui_fds_parse_text
 629              		.section	.text.mui_fds_get_cmd_size,"ax",%progbits
 630              		.align	2
 631              		.thumb
 632              		.thumb_func
 633              		.type	mui_fds_get_cmd_size, %function
 634              	mui_fds_get_cmd_size:
ARM GAS  C:\Users\brian\AppData\Local\Temp\ccibXfrV.s 			page 23


 635              	.LFB7:
 274:..\u8g2\csrc/mui.c ****   size_t l = mui_fds_get_cmd_size_without_text(s);
 636              		.loc 1 274 0
 637              		.cfi_startproc
 638              		@ args = 0, pretend = 0, frame = 0
 639              		@ frame_needed = 0, uses_anonymous_args = 0
 640              	.LVL55:
 641 0000 70B5     		push	{r4, r5, r6, lr}
 642              		.cfi_def_cfa_offset 16
 643              		.cfi_offset 4, -16
 644              		.cfi_offset 5, -12
 645              		.cfi_offset 6, -8
 646              		.cfi_offset 14, -4
 647 0002 0646     		mov	r6, r0
 648 0004 0C46     		mov	r4, r1
 275:..\u8g2\csrc/mui.c ****   uint8_t c = mui_get_fds_char(s);
 649              		.loc 1 275 0
 650 0006 0846     		mov	r0, r1
 651              	.LVL56:
 652 0008 FFF7FEFF 		bl	mui_fds_get_cmd_size_without_text
 653              	.LVL57:
 654 000c 0546     		mov	r5, r0
 655              	.LVL58:
 276:..\u8g2\csrc/mui.c ****  ui->text[0] = '\0' ;   /* always reset the text buffer */
 656              		.loc 1 276 0
 657 000e 2046     		mov	r0, r4
 658              	.LVL59:
 659 0010 FFF7FEFF 		bl	mui_get_fds_char
 660              	.LVL60:
 277:..\u8g2\csrc/mui.c ****  if ( mui_fds_is_text(c) )
 661              		.loc 1 277 0
 662 0014 0023     		movs	r3, #0
 663 0016 86F83C30 		strb	r3, [r6, #60]
 278:..\u8g2\csrc/mui.c ****   {
 664              		.loc 1 278 0
 665 001a 5528     		cmp	r0, #85
 666 001c 0AD0     		beq	.L51
 278:..\u8g2\csrc/mui.c ****   {
 667              		.loc 1 278 0 is_stmt 0 discriminator 1
 668 001e 5328     		cmp	r0, #83
 669 0020 08D0     		beq	.L51
 278:..\u8g2\csrc/mui.c ****   {
 670              		.loc 1 278 0 discriminator 2
 671 0022 4628     		cmp	r0, #70
 672 0024 06D0     		beq	.L51
 278:..\u8g2\csrc/mui.c ****   {
 673              		.loc 1 278 0 discriminator 3
 674 0026 4128     		cmp	r0, #65
 675 0028 04D0     		beq	.L51
 280:..\u8g2\csrc/mui.c ****   }
 676              		.loc 1 280 0 is_stmt 1
 677 002a 6119     		adds	r1, r4, r5
 678 002c 3046     		mov	r0, r6
 679              	.LVL61:
 680 002e FFF7FEFF 		bl	mui_fds_parse_text
 681              	.LVL62:
 682 0032 0544     		add	r5, r5, r0
ARM GAS  C:\Users\brian\AppData\Local\Temp\ccibXfrV.s 			page 24


 683              	.LVL63:
 684              	.L51:
 283:..\u8g2\csrc/mui.c **** 
 685              		.loc 1 283 0
 686 0034 2846     		mov	r0, r5
 687 0036 70BD     		pop	{r4, r5, r6, pc}
 688              		.cfi_endproc
 689              	.LFE7:
 690              		.size	mui_fds_get_cmd_size, .-mui_fds_get_cmd_size
 691              		.section	.text.mui_fds_next_token,"ax",%progbits
 692              		.align	2
 693              		.global	mui_fds_next_token
 694              		.thumb
 695              		.thumb_func
 696              		.type	mui_fds_next_token, %function
 697              	mui_fds_next_token:
 698              	.LFB4:
 192:..\u8g2\csrc/mui.c ****   uint8_t c;
 699              		.loc 1 192 0
 700              		.cfi_startproc
 701              		@ args = 0, pretend = 0, frame = 0
 702              		@ frame_needed = 0, uses_anonymous_args = 0
 703              	.LVL64:
 704 0000 70B5     		push	{r4, r5, r6, lr}
 705              		.cfi_def_cfa_offset 16
 706              		.cfi_offset 4, -16
 707              		.cfi_offset 5, -12
 708              		.cfi_offset 6, -8
 709              		.cfi_offset 14, -4
 710 0002 0546     		mov	r5, r0
 711              	.LVL65:
 194:..\u8g2\csrc/mui.c ****   // printf("mui_fds_next_token: call, ui->token=%p\n", ui->token);
 712              		.loc 1 194 0
 713 0004 0026     		movs	r6, #0
 714              	.LVL66:
 715              	.L57:
 198:..\u8g2\csrc/mui.c ****     // printf("mui_fds_next_token: i=%d c=%c\n", i, c);
 716              		.loc 1 198 0
 717 0006 EC69     		ldr	r4, [r5, #28]
 718 0008 2046     		mov	r0, r4
 719 000a FFF7FEFF 		bl	mui_get_fds_char
 720              	.LVL67:
 201:..\u8g2\csrc/mui.c ****       break;
 721              		.loc 1 201 0
 722 000e 90B1     		cbz	r0, .L54
 204:..\u8g2\csrc/mui.c ****       break;
 723              		.loc 1 204 0
 724 0010 95F82720 		ldrb	r2, [r5, #39]	@ zero_extendqisi2
 725 0014 9042     		cmp	r0, r2
 726 0016 0ED0     		beq	.L54
 206:..\u8g2\csrc/mui.c ****     {
 727              		.loc 1 206 0
 728 0018 7C28     		cmp	r0, #124
 729 001a 02D1     		bne	.L55
 208:..\u8g2\csrc/mui.c ****       break;
 730              		.loc 1 208 0
 731 001c 0134     		adds	r4, r4, #1
ARM GAS  C:\Users\brian\AppData\Local\Temp\ccibXfrV.s 			page 25


 732 001e EC61     		str	r4, [r5, #28]
 209:..\u8g2\csrc/mui.c ****     }
 733              		.loc 1 209 0
 734 0020 09E0     		b	.L54
 735              	.L55:
 212:..\u8g2\csrc/mui.c ****     {
 736              		.loc 1 212 0
 737 0022 282E     		cmp	r6, #40
 738 0024 04D8     		bhi	.L56
 214:..\u8g2\csrc/mui.c ****     }
 739              		.loc 1 214 0
 740 0026 721C     		adds	r2, r6, #1
 741              	.LVL68:
 742 0028 2E44     		add	r6, r6, r5
 743 002a 86F83C00 		strb	r0, [r6, #60]
 744 002e D6B2     		uxtb	r6, r2
 745              	.LVL69:
 746              	.L56:
 217:..\u8g2\csrc/mui.c ****   }
 747              		.loc 1 217 0
 748 0030 0134     		adds	r4, r4, #1
 749 0032 EC61     		str	r4, [r5, #28]
 218:..\u8g2\csrc/mui.c ****   ui->text[i] = '\0' ;
 750              		.loc 1 218 0
 751 0034 E7E7     		b	.L57
 752              	.L54:
 219:..\u8g2\csrc/mui.c ****   if ( i == 0 )
 753              		.loc 1 219 0
 754 0036 3544     		add	r5, r5, r6
 755              	.LVL70:
 756 0038 0023     		movs	r3, #0
 757 003a 85F83C30 		strb	r3, [r5, #60]
 220:..\u8g2\csrc/mui.c ****     return 0;   // no further token found
 758              		.loc 1 220 0
 759 003e 0EB9     		cbnz	r6, .L59
 221:..\u8g2\csrc/mui.c ****   return 1;  // token placed in ui->text
 760              		.loc 1 221 0
 761 0040 1846     		mov	r0, r3
 762              	.LVL71:
 763 0042 70BD     		pop	{r4, r5, r6, pc}
 764              	.LVL72:
 765              	.L59:
 222:..\u8g2\csrc/mui.c **** }
 766              		.loc 1 222 0
 767 0044 0120     		movs	r0, #1
 768              	.LVL73:
 223:..\u8g2\csrc/mui.c **** 
 769              		.loc 1 223 0
 770 0046 70BD     		pop	{r4, r5, r6, pc}
 771              		.cfi_endproc
 772              	.LFE4:
 773              		.size	mui_fds_next_token, .-mui_fds_next_token
 774              		.section	.text.mui_fds_first_token,"ax",%progbits
 775              		.align	2
 776              		.global	mui_fds_first_token
 777              		.thumb
 778              		.thumb_func
ARM GAS  C:\Users\brian\AppData\Local\Temp\ccibXfrV.s 			page 26


 779              		.type	mui_fds_first_token, %function
 780              	mui_fds_first_token:
 781              	.LFB3:
 182:..\u8g2\csrc/mui.c ****   ui->token = ui->fds;
 782              		.loc 1 182 0
 783              		.cfi_startproc
 784              		@ args = 0, pretend = 0, frame = 0
 785              		@ frame_needed = 0, uses_anonymous_args = 0
 786              	.LVL74:
 787 0000 38B5     		push	{r3, r4, r5, lr}
 788              		.cfi_def_cfa_offset 16
 789              		.cfi_offset 3, -16
 790              		.cfi_offset 4, -12
 791              		.cfi_offset 5, -8
 792              		.cfi_offset 14, -4
 793 0002 0546     		mov	r5, r0
 183:..\u8g2\csrc/mui.c ****   ui->token += mui_fds_get_cmd_size_without_text(ui->fds);
 794              		.loc 1 183 0
 795 0004 446B     		ldr	r4, [r0, #52]
 796 0006 C461     		str	r4, [r0, #28]
 184:..\u8g2\csrc/mui.c ****   ui->delimiter = mui_get_fds_char(ui->token);
 797              		.loc 1 184 0
 798 0008 2046     		mov	r0, r4
 799              	.LVL75:
 800 000a FFF7FEFF 		bl	mui_fds_get_cmd_size_without_text
 801              	.LVL76:
 802 000e 0444     		add	r4, r4, r0
 803 0010 EC61     		str	r4, [r5, #28]
 185:..\u8g2\csrc/mui.c ****   ui->token++;  // place ui->token on the first char of the token
 804              		.loc 1 185 0
 805 0012 2046     		mov	r0, r4
 806 0014 FFF7FEFF 		bl	mui_get_fds_char
 807              	.LVL77:
 808 0018 85F82700 		strb	r0, [r5, #39]
 186:..\u8g2\csrc/mui.c ****   return mui_fds_next_token(ui);
 809              		.loc 1 186 0
 810 001c 0134     		adds	r4, r4, #1
 811 001e EC61     		str	r4, [r5, #28]
 187:..\u8g2\csrc/mui.c **** }
 812              		.loc 1 187 0
 813 0020 2846     		mov	r0, r5
 814 0022 FFF7FEFF 		bl	mui_fds_next_token
 815              	.LVL78:
 188:..\u8g2\csrc/mui.c **** 
 816              		.loc 1 188 0
 817 0026 38BD     		pop	{r3, r4, r5, pc}
 818              		.cfi_endproc
 819              	.LFE3:
 820              		.size	mui_fds_first_token, .-mui_fds_first_token
 821              		.section	.text.mui_fds_get_nth_token,"ax",%progbits
 822              		.align	2
 823              		.global	mui_fds_get_nth_token
 824              		.thumb
 825              		.thumb_func
 826              		.type	mui_fds_get_nth_token, %function
 827              	mui_fds_get_nth_token:
 828              	.LFB5:
ARM GAS  C:\Users\brian\AppData\Local\Temp\ccibXfrV.s 			page 27


 230:..\u8g2\csrc/mui.c ****   // printf("mui_fds_get_nth_token: call, n=%d\n", n);
 829              		.loc 1 230 0
 830              		.cfi_startproc
 831              		@ args = 0, pretend = 0, frame = 0
 832              		@ frame_needed = 0, uses_anonymous_args = 0
 833              	.LVL79:
 834 0000 38B5     		push	{r3, r4, r5, lr}
 835              		.cfi_def_cfa_offset 16
 836              		.cfi_offset 3, -16
 837              		.cfi_offset 4, -12
 838              		.cfi_offset 5, -8
 839              		.cfi_offset 14, -4
 840 0002 0546     		mov	r5, r0
 841 0004 0C46     		mov	r4, r1
 232:..\u8g2\csrc/mui.c ****   {
 842              		.loc 1 232 0
 843 0006 FFF7FEFF 		bl	mui_fds_first_token
 844              	.LVL80:
 845 000a 0346     		mov	r3, r0
 846 000c 50B1     		cbz	r0, .L64
 847              	.LVL81:
 848              	.L65:
 236:..\u8g2\csrc/mui.c ****       {
 849              		.loc 1 236 0
 850 000e 44B1     		cbz	r4, .L66
 241:..\u8g2\csrc/mui.c ****     } while ( mui_fds_next_token(ui) );
 851              		.loc 1 241 0
 852 0010 013C     		subs	r4, r4, #1
 853              	.LVL82:
 854 0012 E4B2     		uxtb	r4, r4
 855              	.LVL83:
 242:..\u8g2\csrc/mui.c ****   }
 856              		.loc 1 242 0
 857 0014 2846     		mov	r0, r5
 858 0016 FFF7FEFF 		bl	mui_fds_next_token
 859              	.LVL84:
 860 001a 0346     		mov	r3, r0
 861 001c 0028     		cmp	r0, #0
 862 001e F6D1     		bne	.L65
 863 0020 00E0     		b	.L64
 864              	.L66:
 239:..\u8g2\csrc/mui.c ****       }
 865              		.loc 1 239 0
 866 0022 0123     		movs	r3, #1
 867              	.LVL85:
 868              	.L64:
 246:..\u8g2\csrc/mui.c **** 
 869              		.loc 1 246 0
 870 0024 1846     		mov	r0, r3
 871 0026 38BD     		pop	{r3, r4, r5, pc}
 872              		.cfi_endproc
 873              	.LFE5:
 874              		.size	mui_fds_get_nth_token, .-mui_fds_get_nth_token
 875              		.section	.text.mui_fds_get_token_cnt,"ax",%progbits
 876              		.align	2
 877              		.global	mui_fds_get_token_cnt
 878              		.thumb
ARM GAS  C:\Users\brian\AppData\Local\Temp\ccibXfrV.s 			page 28


 879              		.thumb_func
 880              		.type	mui_fds_get_token_cnt, %function
 881              	mui_fds_get_token_cnt:
 882              	.LFB6:
 249:..\u8g2\csrc/mui.c ****   uint8_t n = 0;
 883              		.loc 1 249 0
 884              		.cfi_startproc
 885              		@ args = 0, pretend = 0, frame = 0
 886              		@ frame_needed = 0, uses_anonymous_args = 0
 887              	.LVL86:
 888 0000 38B5     		push	{r3, r4, r5, lr}
 889              		.cfi_def_cfa_offset 16
 890              		.cfi_offset 3, -16
 891              		.cfi_offset 4, -12
 892              		.cfi_offset 5, -8
 893              		.cfi_offset 14, -4
 894 0002 0546     		mov	r5, r0
 895              	.LVL87:
 251:..\u8g2\csrc/mui.c ****   {
 896              		.loc 1 251 0
 897 0004 FFF7FEFF 		bl	mui_fds_first_token
 898              	.LVL88:
 899 0008 40B1     		cbz	r0, .L71
 900 000a 0024     		movs	r4, #0
 901              	.LVL89:
 902              	.L70:
 255:..\u8g2\csrc/mui.c ****     } while ( mui_fds_next_token(ui) );
 903              		.loc 1 255 0 discriminator 1
 904 000c 0134     		adds	r4, r4, #1
 905              	.LVL90:
 906 000e E4B2     		uxtb	r4, r4
 907              	.LVL91:
 256:..\u8g2\csrc/mui.c ****   }
 908              		.loc 1 256 0 discriminator 1
 909 0010 2846     		mov	r0, r5
 910 0012 FFF7FEFF 		bl	mui_fds_next_token
 911              	.LVL92:
 912 0016 0028     		cmp	r0, #0
 913 0018 F8D1     		bne	.L70
 914 001a 00E0     		b	.L69
 915              	.LVL93:
 916              	.L71:
 250:..\u8g2\csrc/mui.c ****   if ( mui_fds_first_token(ui) )
 917              		.loc 1 250 0
 918 001c 0024     		movs	r4, #0
 919              	.LVL94:
 920              	.L69:
 259:..\u8g2\csrc/mui.c **** 
 921              		.loc 1 259 0
 922 001e 2046     		mov	r0, r4
 923 0020 38BD     		pop	{r3, r4, r5, pc}
 924              		.cfi_endproc
 925              	.LFE6:
 926              		.size	mui_fds_get_token_cnt, .-mui_fds_get_token_cnt
 927 0022 00BF     		.section	.text.mui_Init,"ax",%progbits
 928              		.align	2
 929              		.global	mui_Init
ARM GAS  C:\Users\brian\AppData\Local\Temp\ccibXfrV.s 			page 29


 930              		.thumb
 931              		.thumb_func
 932              		.type	mui_Init, %function
 933              	mui_Init:
 934              	.LFB8:
 291:..\u8g2\csrc/mui.c ****   memset(ui, 0, sizeof(mui_t));
 935              		.loc 1 291 0
 936              		.cfi_startproc
 937              		@ args = 4, pretend = 0, frame = 0
 938              		@ frame_needed = 0, uses_anonymous_args = 0
 939              	.LVL95:
 940 0000 F8B5     		push	{r3, r4, r5, r6, r7, lr}
 941              		.cfi_def_cfa_offset 24
 942              		.cfi_offset 3, -24
 943              		.cfi_offset 4, -20
 944              		.cfi_offset 5, -16
 945              		.cfi_offset 6, -12
 946              		.cfi_offset 7, -8
 947              		.cfi_offset 14, -4
 948 0002 0446     		mov	r4, r0
 949 0004 0D46     		mov	r5, r1
 950 0006 1746     		mov	r7, r2
 951 0008 1E46     		mov	r6, r3
 292:..\u8g2\csrc/mui.c ****   ui->root_fds = fds;
 952              		.loc 1 292 0
 953 000a 7822     		movs	r2, #120
 954              	.LVL96:
 955 000c 0021     		movs	r1, #0
 956              	.LVL97:
 957 000e FFF7FEFF 		bl	memset
 958              	.LVL98:
 293:..\u8g2\csrc/mui.c ****   //ui->current_form_fds = NULL;   // not required, because there was a memset before
 959              		.loc 1 293 0
 960 0012 6760     		str	r7, [r4, #4]
 295:..\u8g2\csrc/mui.c ****   ui->muif_tcnt = muif_tcnt;
 961              		.loc 1 295 0
 962 0014 A660     		str	r6, [r4, #8]
 296:..\u8g2\csrc/mui.c ****   ui->graphics_data = graphics_data;
 963              		.loc 1 296 0
 964 0016 069B     		ldr	r3, [sp, #24]
 965 0018 E360     		str	r3, [r4, #12]
 297:..\u8g2\csrc/mui.c **** }
 966              		.loc 1 297 0
 967 001a 2560     		str	r5, [r4]
 968 001c F8BD     		pop	{r3, r4, r5, r6, r7, pc}
 969              		.cfi_endproc
 970              	.LFE8:
 971              		.size	mui_Init, .-mui_Init
 972 001e 00BF     		.section	.text.mui_find_uif,"ax",%progbits
 973              		.align	2
 974              		.global	mui_find_uif
 975              		.thumb
 976              		.thumb_func
 977              		.type	mui_find_uif, %function
 978              	mui_find_uif:
 979              	.LFB9:
 301:..\u8g2\csrc/mui.c ****   size_t i;
ARM GAS  C:\Users\brian\AppData\Local\Temp\ccibXfrV.s 			page 30


 980              		.loc 1 301 0
 981              		.cfi_startproc
 982              		@ args = 0, pretend = 0, frame = 0
 983              		@ frame_needed = 0, uses_anonymous_args = 0
 984              		@ link register save eliminated.
 985              	.LVL99:
 986 0000 70B4     		push	{r4, r5, r6}
 987              		.cfi_def_cfa_offset 12
 988              		.cfi_offset 4, -12
 989              		.cfi_offset 5, -8
 990              		.cfi_offset 6, -4
 991              	.LVL100:
 303:..\u8g2\csrc/mui.c ****   {
 992              		.loc 1 303 0
 993 0002 0023     		movs	r3, #0
 994 0004 0DE0     		b	.L76
 995              	.LVL101:
 996              	.L79:
 310:..\u8g2\csrc/mui.c ****         if ( muif_get_id1(ui->muif_tlist+i) == id1 )
 997              		.loc 1 310 0
 998 0006 8568     		ldr	r5, [r0, #8]
 999 0008 03EB4306 		add	r6, r3, r3, lsl #1
 1000 000c B400     		lsls	r4, r6, #2
 1001 000e 2E19     		adds	r6, r5, r4
 1002 0010 2C5D     		ldrb	r4, [r5, r4]	@ zero_extendqisi2
 1003 0012 8C42     		cmp	r4, r1
 1004 0014 04D1     		bne	.L77
 311:..\u8g2\csrc/mui.c ****           return i;
 1005              		.loc 1 311 0
 1006 0016 7478     		ldrb	r4, [r6, #1]	@ zero_extendqisi2
 1007 0018 9442     		cmp	r4, r2
 1008 001a 01D1     		bne	.L77
 312:..\u8g2\csrc/mui.c ****   }
 1009              		.loc 1 312 0
 1010 001c 1846     		mov	r0, r3
 1011              	.LVL102:
 1012 001e 05E0     		b	.L78
 1013              	.LVL103:
 1014              	.L77:
 303:..\u8g2\csrc/mui.c ****   {
 1015              		.loc 1 303 0 discriminator 2
 1016 0020 0133     		adds	r3, r3, #1
 1017              	.LVL104:
 1018              	.L76:
 303:..\u8g2\csrc/mui.c ****   {
 1019              		.loc 1 303 0 is_stmt 0 discriminator 1
 1020 0022 C468     		ldr	r4, [r0, #12]
 1021 0024 A342     		cmp	r3, r4
 1022 0026 EED3     		bcc	.L79
 314:..\u8g2\csrc/mui.c **** }
 1023              		.loc 1 314 0 is_stmt 1
 1024 0028 4FF0FF30 		mov	r0, #-1
 1025              	.LVL105:
 1026              	.L78:
 315:..\u8g2\csrc/mui.c **** 
 1027              		.loc 1 315 0
 1028 002c 70BC     		pop	{r4, r5, r6}
ARM GAS  C:\Users\brian\AppData\Local\Temp\ccibXfrV.s 			page 31


 1029              		.cfi_restore 6
 1030              		.cfi_restore 5
 1031              		.cfi_restore 4
 1032              		.cfi_def_cfa_offset 0
 1033 002e 7047     		bx	lr
 1034              		.cfi_endproc
 1035              	.LFE9:
 1036              		.size	mui_find_uif, .-mui_find_uif
 1037              		.section	.text.mui_prepare_current_field,"ax",%progbits
 1038              		.align	2
 1039              		.thumb
 1040              		.thumb_func
 1041              		.type	mui_prepare_current_field, %function
 1042              	mui_prepare_current_field:
 1043              	.LFB10:
 327:..\u8g2\csrc/mui.c ****   int muif_tidx;
 1044              		.loc 1 327 0
 1045              		.cfi_startproc
 1046              		@ args = 0, pretend = 0, frame = 0
 1047              		@ frame_needed = 0, uses_anonymous_args = 0
 1048              	.LVL106:
 1049 0000 70B5     		push	{r4, r5, r6, lr}
 1050              		.cfi_def_cfa_offset 16
 1051              		.cfi_offset 4, -16
 1052              		.cfi_offset 5, -12
 1053              		.cfi_offset 6, -8
 1054              		.cfi_offset 14, -4
 1055 0002 0446     		mov	r4, r0
 330:..\u8g2\csrc/mui.c ****   ui->dflags = 0;    
 1056              		.loc 1 330 0
 1057 0004 0023     		movs	r3, #0
 1058 0006 8363     		str	r3, [r0, #56]
 331:..\u8g2\csrc/mui.c ****   ui->id0 = 0;
 1059              		.loc 1 331 0
 1060 0008 80F82D30 		strb	r3, [r0, #45]
 332:..\u8g2\csrc/mui.c ****   ui->id1 = 0;
 1061              		.loc 1 332 0
 1062 000c 80F82930 		strb	r3, [r0, #41]
 333:..\u8g2\csrc/mui.c ****   ui->arg = 0;
 1063              		.loc 1 333 0
 1064 0010 80F82A30 		strb	r3, [r0, #42]
 334:..\u8g2\csrc/mui.c **** 
 1065              		.loc 1 334 0
 1066 0014 80F82E30 		strb	r3, [r0, #46]
 338:..\u8g2\csrc/mui.c ****   //printf("mui_prepare_current_field len=%d\n", ui->len);
 1067              		.loc 1 338 0
 1068 0018 416B     		ldr	r1, [r0, #52]
 1069 001a FFF7FEFF 		bl	mui_fds_get_cmd_size
 1070              	.LVL107:
 1071 001e 2063     		str	r0, [r4, #48]
 342:..\u8g2\csrc/mui.c ****   //printf("mui_prepare_current_field cmd='%c' len=%d\n", ui->cmd, ui->len);
 1072              		.loc 1 342 0
 1073 0020 666B     		ldr	r6, [r4, #52]
 1074 0022 3046     		mov	r0, r6
 1075 0024 FFF7FEFF 		bl	mui_get_fds_char
 1076              	.LVL108:
 346:..\u8g2\csrc/mui.c ****   
ARM GAS  C:\Users\brian\AppData\Local\Temp\ccibXfrV.s 			page 32


 1077              		.loc 1 346 0
 1078 0028 84F82A00 		strb	r0, [r4, #42]
 349:..\u8g2\csrc/mui.c ****   
 1079              		.loc 1 349 0
 1080 002c 00F0DF05 		and	r5, r0, #223
 1081 0030 84F82850 		strb	r5, [r4, #40]
 351:..\u8g2\csrc/mui.c ****     return 0;
 1082              		.loc 1 351 0
 1083 0034 552D     		cmp	r5, #85
 1084 0036 78D0     		beq	.L92
 351:..\u8g2\csrc/mui.c ****     return 0;
 1085              		.loc 1 351 0 is_stmt 0 discriminator 1
 1086 0038 002D     		cmp	r5, #0
 1087 003a 79D0     		beq	.L82
 355:..\u8g2\csrc/mui.c ****     ui->dflags |= MUIF_DFLAG_IS_CURSOR_FOCUS;
 1088              		.loc 1 355 0 is_stmt 1
 1089 003c 6369     		ldr	r3, [r4, #20]
 1090 003e 9E42     		cmp	r6, r3
 1091 0040 05D1     		bne	.L83
 356:..\u8g2\csrc/mui.c ****   if ( ui->fds == ui->touch_focus_fds )
 1092              		.loc 1 356 0
 1093 0042 94F82D30 		ldrb	r3, [r4, #45]	@ zero_extendqisi2
 1094 0046 43F00103 		orr	r3, r3, #1
 1095 004a 84F82D30 		strb	r3, [r4, #45]
 1096              	.L83:
 357:..\u8g2\csrc/mui.c ****     ui->dflags |= MUIF_DFLAG_IS_TOUCH_FOCUS;
 1097              		.loc 1 357 0
 1098 004e A369     		ldr	r3, [r4, #24]
 1099 0050 9E42     		cmp	r6, r3
 1100 0052 05D1     		bne	.L84
 358:..\u8g2\csrc/mui.c ****   
 1101              		.loc 1 358 0
 1102 0054 94F82D30 		ldrb	r3, [r4, #45]	@ zero_extendqisi2
 1103 0058 43F00203 		orr	r3, r3, #2
 1104 005c 84F82D30 		strb	r3, [r4, #45]
 1105              	.L84:
 362:..\u8g2\csrc/mui.c ****   {
 1106              		.loc 1 362 0
 1107 0060 462D     		cmp	r5, #70
 1108 0062 05D0     		beq	.L85
 362:..\u8g2\csrc/mui.c ****   {
 1109              		.loc 1 362 0 is_stmt 0 discriminator 1
 1110 0064 422D     		cmp	r5, #66
 1111 0066 03D0     		beq	.L85
 362:..\u8g2\csrc/mui.c ****   {
 1112              		.loc 1 362 0 discriminator 2
 1113 0068 542D     		cmp	r5, #84
 1114 006a 01D0     		beq	.L85
 362:..\u8g2\csrc/mui.c ****   {
 1115              		.loc 1 362 0 discriminator 3
 1116 006c 412D     		cmp	r5, #65
 1117 006e 1DD1     		bne	.L86
 1118              	.L85:
 364:..\u8g2\csrc/mui.c ****       ui->id1 = mui_get_fds_char(ui->fds+2);
 1119              		.loc 1 364 0 is_stmt 1
 1120 0070 701C     		adds	r0, r6, #1
 1121 0072 FFF7FEFF 		bl	mui_get_fds_char
ARM GAS  C:\Users\brian\AppData\Local\Temp\ccibXfrV.s 			page 33


 1122              	.LVL109:
 1123 0076 84F82900 		strb	r0, [r4, #41]
 365:..\u8g2\csrc/mui.c ****       ui->x = mui_get_fds_char(ui->fds+3);
 1124              		.loc 1 365 0
 1125 007a B01C     		adds	r0, r6, #2
 1126 007c FFF7FEFF 		bl	mui_get_fds_char
 1127              	.LVL110:
 1128 0080 84F82A00 		strb	r0, [r4, #42]
 366:..\u8g2\csrc/mui.c ****       ui->y = mui_get_fds_char(ui->fds+4);
 1129              		.loc 1 366 0
 1130 0084 F01C     		adds	r0, r6, #3
 1131 0086 FFF7FEFF 		bl	mui_get_fds_char
 1132              	.LVL111:
 1133 008a 84F82B00 		strb	r0, [r4, #43]
 367:..\u8g2\csrc/mui.c ****       if ( ui->cmd == 'A' || ui->cmd == 'T' )
 1134              		.loc 1 367 0
 1135 008e 301D     		adds	r0, r6, #4
 1136 0090 FFF7FEFF 		bl	mui_get_fds_char
 1137              	.LVL112:
 1138 0094 84F82C00 		strb	r0, [r4, #44]
 368:..\u8g2\csrc/mui.c ****       {
 1139              		.loc 1 368 0
 1140 0098 412D     		cmp	r5, #65
 1141 009a 01D0     		beq	.L87
 368:..\u8g2\csrc/mui.c ****       {
 1142              		.loc 1 368 0 is_stmt 0 discriminator 1
 1143 009c 542D     		cmp	r5, #84
 1144 009e 33D1     		bne	.L88
 1145              	.L87:
 370:..\u8g2\csrc/mui.c ****       }
 1146              		.loc 1 370 0 is_stmt 1
 1147 00a0 701D     		adds	r0, r6, #5
 1148 00a2 FFF7FEFF 		bl	mui_get_fds_char
 1149              	.LVL113:
 1150 00a6 84F82E00 		strb	r0, [r4, #46]
 1151 00aa 2DE0     		b	.L88
 1152              	.L86:
 373:..\u8g2\csrc/mui.c ****   {
 1153              		.loc 1 373 0
 1154 00ac 442D     		cmp	r5, #68
 1155 00ae 0AD1     		bne	.L89
 375:..\u8g2\csrc/mui.c ****       ui->id1 = mui_get_fds_char(ui->fds+2);
 1156              		.loc 1 375 0
 1157 00b0 701C     		adds	r0, r6, #1
 1158 00b2 FFF7FEFF 		bl	mui_get_fds_char
 1159              	.LVL114:
 1160 00b6 84F82900 		strb	r0, [r4, #41]
 376:..\u8g2\csrc/mui.c ****   }
 1161              		.loc 1 376 0
 1162 00ba B01C     		adds	r0, r6, #2
 1163 00bc FFF7FEFF 		bl	mui_get_fds_char
 1164              	.LVL115:
 1165 00c0 84F82A00 		strb	r0, [r4, #42]
 1166 00c4 20E0     		b	.L88
 1167              	.L89:
 378:..\u8g2\csrc/mui.c ****   {
 1168              		.loc 1 378 0
ARM GAS  C:\Users\brian\AppData\Local\Temp\ccibXfrV.s 			page 34


 1169 00c6 532D     		cmp	r5, #83
 1170 00c8 08D1     		bne	.L90
 380:..\u8g2\csrc/mui.c ****       ui->id1 = mui_get_fds_char(ui->fds+1);
 1171              		.loc 1 380 0
 1172 00ca 5323     		movs	r3, #83
 1173 00cc 84F82930 		strb	r3, [r4, #41]
 381:..\u8g2\csrc/mui.c ****   }
 1174              		.loc 1 381 0
 1175 00d0 701C     		adds	r0, r6, #1
 1176 00d2 FFF7FEFF 		bl	mui_get_fds_char
 1177              	.LVL116:
 1178 00d6 84F82A00 		strb	r0, [r4, #42]
 1179 00da 15E0     		b	.L88
 1180              	.L90:
 385:..\u8g2\csrc/mui.c ****       /* note that ui->id1 contains the original cmd value */
 1181              		.loc 1 385 0
 1182 00dc 2E23     		movs	r3, #46
 1183 00de 84F82930 		strb	r3, [r4, #41]
 387:..\u8g2\csrc/mui.c ****       ui->y = mui_get_fds_char(ui->fds+2);
 1184              		.loc 1 387 0
 1185 00e2 701C     		adds	r0, r6, #1
 1186 00e4 FFF7FEFF 		bl	mui_get_fds_char
 1187              	.LVL117:
 1188 00e8 84F82B00 		strb	r0, [r4, #43]
 388:..\u8g2\csrc/mui.c ****       if ( ui->cmd == 'G' || ui->cmd == 'M' )  /* this is also true for 'g' or 'm' */
 1189              		.loc 1 388 0
 1190 00ec B01C     		adds	r0, r6, #2
 1191 00ee FFF7FEFF 		bl	mui_get_fds_char
 1192              	.LVL118:
 1193 00f2 84F82C00 		strb	r0, [r4, #44]
 389:..\u8g2\csrc/mui.c ****       {
 1194              		.loc 1 389 0
 1195 00f6 472D     		cmp	r5, #71
 1196 00f8 01D0     		beq	.L91
 389:..\u8g2\csrc/mui.c ****       {
 1197              		.loc 1 389 0 is_stmt 0 discriminator 1
 1198 00fa 4D2D     		cmp	r5, #77
 1199 00fc 04D1     		bne	.L88
 1200              	.L91:
 391:..\u8g2\csrc/mui.c ****       }
 1201              		.loc 1 391 0 is_stmt 1
 1202 00fe F01C     		adds	r0, r6, #3
 1203 0100 FFF7FEFF 		bl	mui_get_fds_char
 1204              	.LVL119:
 1205 0104 84F82E00 		strb	r0, [r4, #46]
 1206              	.L88:
 399:..\u8g2\csrc/mui.c ****   //printf("mui_prepare_current_field: muif_tidx=%d\n", muif_tidx);
 1207              		.loc 1 399 0
 1208 0108 94F82A20 		ldrb	r2, [r4, #42]	@ zero_extendqisi2
 1209 010c 94F82910 		ldrb	r1, [r4, #41]	@ zero_extendqisi2
 1210 0110 2046     		mov	r0, r4
 1211 0112 FFF7FEFF 		bl	mui_find_uif
 1212              	.LVL120:
 401:..\u8g2\csrc/mui.c ****   {
 1213              		.loc 1 401 0
 1214 0116 0028     		cmp	r0, #0
 1215 0118 09DB     		blt	.L93
ARM GAS  C:\Users\brian\AppData\Local\Temp\ccibXfrV.s 			page 35


 403:..\u8g2\csrc/mui.c ****     return 1;
 1216              		.loc 1 403 0
 1217 011a A268     		ldr	r2, [r4, #8]
 1218 011c 00EB4000 		add	r0, r0, r0, lsl #1
 1219              	.LVL121:
 1220 0120 8300     		lsls	r3, r0, #2
 1221 0122 1344     		add	r3, r3, r2
 1222 0124 A363     		str	r3, [r4, #56]
 404:..\u8g2\csrc/mui.c ****   }
 1223              		.loc 1 404 0
 1224 0126 0125     		movs	r5, #1
 1225 0128 02E0     		b	.L82
 1226              	.L92:
 352:..\u8g2\csrc/mui.c **** 
 1227              		.loc 1 352 0
 1228 012a 0025     		movs	r5, #0
 1229 012c 00E0     		b	.L82
 1230              	.LVL122:
 1231              	.L93:
 406:..\u8g2\csrc/mui.c **** }
 1232              		.loc 1 406 0
 1233 012e 0025     		movs	r5, #0
 1234              	.LVL123:
 1235              	.L82:
 407:..\u8g2\csrc/mui.c **** 
 1236              		.loc 1 407 0
 1237 0130 2846     		mov	r0, r5
 1238 0132 70BD     		pop	{r4, r5, r6, pc}
 1239              		.cfi_endproc
 1240              	.LFE10:
 1241              		.size	mui_prepare_current_field, .-mui_prepare_current_field
 1242              		.section	.text.mui_inner_loop_over_form,"ax",%progbits
 1243              		.align	2
 1244              		.thumb
 1245              		.thumb_func
 1246              		.type	mui_inner_loop_over_form, %function
 1247              	mui_inner_loop_over_form:
 1248              	.LFB11:
 419:..\u8g2\csrc/mui.c ****   uint8_t cmd;
 1249              		.loc 1 419 0
 1250              		.cfi_startproc
 1251              		@ args = 0, pretend = 0, frame = 0
 1252              		@ frame_needed = 0, uses_anonymous_args = 0
 1253              	.LVL124:
 1254 0000 38B5     		push	{r3, r4, r5, lr}
 1255              		.cfi_def_cfa_offset 16
 1256              		.cfi_offset 3, -16
 1257              		.cfi_offset 4, -12
 1258              		.cfi_offset 5, -8
 1259              		.cfi_offset 14, -4
 1260 0002 0446     		mov	r4, r0
 1261 0004 0D46     		mov	r5, r1
 424:..\u8g2\csrc/mui.c ****   for(;;)
 1262              		.loc 1 424 0
 1263 0006 416B     		ldr	r1, [r0, #52]
 1264              	.LVL125:
 1265 0008 FFF7FEFF 		bl	mui_fds_get_cmd_size
ARM GAS  C:\Users\brian\AppData\Local\Temp\ccibXfrV.s 			page 36


 1266              	.LVL126:
 1267 000c 636B     		ldr	r3, [r4, #52]
 1268 000e 1844     		add	r0, r0, r3
 1269 0010 6063     		str	r0, [r4, #52]
 1270              	.L98:
 429:..\u8g2\csrc/mui.c ****     if ( cmd == 'U' || cmd == 0 )
 1271              		.loc 1 429 0
 1272 0012 606B     		ldr	r0, [r4, #52]
 1273 0014 FFF7FEFF 		bl	mui_get_fds_char
 1274              	.LVL127:
 430:..\u8g2\csrc/mui.c ****       break;
 1275              		.loc 1 430 0
 1276 0018 5528     		cmp	r0, #85
 1277 001a 0CD0     		beq	.L95
 430:..\u8g2\csrc/mui.c ****       break;
 1278              		.loc 1 430 0 is_stmt 0 discriminator 1
 1279 001c 58B1     		cbz	r0, .L95
 432:..\u8g2\csrc/mui.c ****       if ( task(ui) )         /* call the task, which was provided as argument to this function */
 1280              		.loc 1 432 0 is_stmt 1
 1281 001e 2046     		mov	r0, r4
 1282              	.LVL128:
 1283 0020 FFF7FEFF 		bl	mui_prepare_current_field
 1284              	.LVL129:
 1285 0024 10B1     		cbz	r0, .L97
 433:..\u8g2\csrc/mui.c ****       {
 1286              		.loc 1 433 0
 1287 0026 2046     		mov	r0, r4
 1288 0028 A847     		blx	r5
 1289              	.LVL130:
 1290 002a 20B9     		cbnz	r0, .L95
 1291              	.L97:
 438:..\u8g2\csrc/mui.c ****   }
 1292              		.loc 1 438 0
 1293 002c 236B     		ldr	r3, [r4, #48]
 1294 002e 626B     		ldr	r2, [r4, #52]
 1295 0030 1344     		add	r3, r3, r2
 1296 0032 6363     		str	r3, [r4, #52]
 439:..\u8g2\csrc/mui.c ****   
 1297              		.loc 1 439 0
 1298 0034 EDE7     		b	.L98
 1299              	.L95:
 1300 0036 38BD     		pop	{r3, r4, r5, pc}
 1301              		.cfi_endproc
 1302              	.LFE11:
 1303              		.size	mui_inner_loop_over_form, .-mui_inner_loop_over_form
 1304              		.section	.text.mui_loop_over_form,"ax",%progbits
 1305              		.align	2
 1306              		.thumb
 1307              		.thumb_func
 1308              		.type	mui_loop_over_form, %function
 1309              	mui_loop_over_form:
 1310              	.LFB12:
 446:..\u8g2\csrc/mui.c ****   if ( mui_IsFormActive(ui) == 0 )
 1311              		.loc 1 446 0
 1312              		.cfi_startproc
 1313              		@ args = 0, pretend = 0, frame = 0
 1314              		@ frame_needed = 0, uses_anonymous_args = 0
ARM GAS  C:\Users\brian\AppData\Local\Temp\ccibXfrV.s 			page 37


 1315              	.LVL131:
 1316 0000 08B5     		push	{r3, lr}
 1317              		.cfi_def_cfa_offset 8
 1318              		.cfi_offset 3, -8
 1319              		.cfi_offset 14, -4
 447:..\u8g2\csrc/mui.c ****     return;
 1320              		.loc 1 447 0
 1321 0002 0369     		ldr	r3, [r0, #16]
 1322 0004 2BB1     		cbz	r3, .L100
 450:..\u8g2\csrc/mui.c ****   ui->target_fds = NULL;
 1323              		.loc 1 450 0
 1324 0006 4363     		str	r3, [r0, #52]
 451:..\u8g2\csrc/mui.c ****   ui->tmp_fds = NULL;
 1325              		.loc 1 451 0
 1326 0008 0023     		movs	r3, #0
 1327 000a C366     		str	r3, [r0, #108]
 452:..\u8g2\csrc/mui.c ****   
 1328              		.loc 1 452 0
 1329 000c 8366     		str	r3, [r0, #104]
 454:..\u8g2\csrc/mui.c **** }
 1330              		.loc 1 454 0
 1331 000e FFF7FEFF 		bl	mui_inner_loop_over_form
 1332              	.LVL132:
 1333              	.L100:
 1334 0012 08BD     		pop	{r3, pc}
 1335              		.cfi_endproc
 1336              	.LFE12:
 1337              		.size	mui_loop_over_form, .-mui_loop_over_form
 1338              		.section	.text.mui_send_cursor_msg,"ax",%progbits
 1339              		.align	2
 1340              		.thumb
 1341              		.thumb_func
 1342              		.type	mui_send_cursor_msg, %function
 1343              	mui_send_cursor_msg:
 1344              	.LFB24:
 586:..\u8g2\csrc/mui.c **** 
 587:..\u8g2\csrc/mui.c **** uint8_t mui_task_read_nth_selectable_field(mui_t *ui)
 588:..\u8g2\csrc/mui.c **** {
 589:..\u8g2\csrc/mui.c ****   //if ( muif_get_cflags(ui->uif) & MUIF_CFLAG_IS_CURSOR_SELECTABLE )
 590:..\u8g2\csrc/mui.c ****   if ( mui_uif_is_cursor_selectable(ui) )
 591:..\u8g2\csrc/mui.c ****   {
 592:..\u8g2\csrc/mui.c ****     if ( ui->tmp8 == 0 )
 593:..\u8g2\csrc/mui.c ****       return 1;         /* stop looping */
 594:..\u8g2\csrc/mui.c ****     ui->tmp8--;
 595:..\u8g2\csrc/mui.c ****   }
 596:..\u8g2\csrc/mui.c ****   return 0;     /* continue with the loop */
 597:..\u8g2\csrc/mui.c **** }
 598:..\u8g2\csrc/mui.c **** 
 599:..\u8g2\csrc/mui.c **** 
 600:..\u8g2\csrc/mui.c **** /* === utility functions for the user API === */
 601:..\u8g2\csrc/mui.c **** 
 602:..\u8g2\csrc/mui.c **** static uint8_t mui_send_cursor_msg(mui_t *ui, uint8_t msg) MUI_NOINLINE;
 603:..\u8g2\csrc/mui.c **** static uint8_t mui_send_cursor_msg(mui_t *ui, uint8_t msg)
 604:..\u8g2\csrc/mui.c **** {
 1345              		.loc 1 604 0
 1346              		.cfi_startproc
 1347              		@ args = 0, pretend = 0, frame = 0
ARM GAS  C:\Users\brian\AppData\Local\Temp\ccibXfrV.s 			page 38


 1348              		@ frame_needed = 0, uses_anonymous_args = 0
 1349              	.LVL133:
 1350 0000 38B5     		push	{r3, r4, r5, lr}
 1351              		.cfi_def_cfa_offset 16
 1352              		.cfi_offset 3, -16
 1353              		.cfi_offset 4, -12
 1354              		.cfi_offset 5, -8
 1355              		.cfi_offset 14, -4
 605:..\u8g2\csrc/mui.c ****   if ( ui->cursor_focus_fds )
 1356              		.loc 1 605 0
 1357 0002 4369     		ldr	r3, [r0, #20]
 1358 0004 6BB1     		cbz	r3, .L105
 1359 0006 0D46     		mov	r5, r1
 1360 0008 0446     		mov	r4, r0
 606:..\u8g2\csrc/mui.c ****   {
 607:..\u8g2\csrc/mui.c ****     ui->fds = ui->cursor_focus_fds;
 1361              		.loc 1 607 0
 1362 000a 4363     		str	r3, [r0, #52]
 608:..\u8g2\csrc/mui.c ****     if ( mui_prepare_current_field(ui) )
 1363              		.loc 1 608 0
 1364 000c FFF7FEFF 		bl	mui_prepare_current_field
 1365              	.LVL134:
 1366 0010 0346     		mov	r3, r0
 1367 0012 38B1     		cbz	r0, .L104
 609:..\u8g2\csrc/mui.c ****       return muif_get_cb(ui->uif)(ui, msg);
 1368              		.loc 1 609 0
 1369 0014 A36B     		ldr	r3, [r4, #56]
 1370 0016 9B68     		ldr	r3, [r3, #8]
 1371 0018 2946     		mov	r1, r5
 1372 001a 2046     		mov	r0, r4
 1373 001c 9847     		blx	r3
 1374              	.LVL135:
 1375 001e 0346     		mov	r3, r0
 1376 0020 00E0     		b	.L104
 1377              	.LVL136:
 1378              	.L105:
 610:..\u8g2\csrc/mui.c ****   }
 611:..\u8g2\csrc/mui.c ****   return 0; /* not called, msg not handled */
 1379              		.loc 1 611 0
 1380 0022 0023     		movs	r3, #0
 1381              	.LVL137:
 1382              	.L104:
 612:..\u8g2\csrc/mui.c **** }
 1383              		.loc 1 612 0
 1384 0024 1846     		mov	r0, r3
 1385 0026 38BD     		pop	{r3, r4, r5, pc}
 1386              		.cfi_endproc
 1387              	.LFE24:
 1388              		.size	mui_send_cursor_msg, .-mui_send_cursor_msg
 1389              		.section	.text.mui_send_cursor_enter_msg,"ax",%progbits
 1390              		.align	2
 1391              		.thumb
 1392              		.thumb_func
 1393              		.type	mui_send_cursor_enter_msg, %function
 1394              	mui_send_cursor_enter_msg:
 1395              	.LFB30:
 613:..\u8g2\csrc/mui.c **** 
ARM GAS  C:\Users\brian\AppData\Local\Temp\ccibXfrV.s 			page 39


 614:..\u8g2\csrc/mui.c **** /* === user API === */
 615:..\u8g2\csrc/mui.c **** 
 616:..\u8g2\csrc/mui.c **** /* 
 617:..\u8g2\csrc/mui.c ****   returns the field pos which has the current focus 
 618:..\u8g2\csrc/mui.c ****   If the first selectable field has the focus, then 0 will be returned
 619:..\u8g2\csrc/mui.c ****   Unselectable fields (for example labels) are skipped by this count.
 620:..\u8g2\csrc/mui.c ****   If no fields are selectable, then 0 is returned
 621:..\u8g2\csrc/mui.c **** */
 622:..\u8g2\csrc/mui.c **** uint8_t mui_GetCurrentCursorFocusPosition(mui_t *ui)
 623:..\u8g2\csrc/mui.c **** {
 624:..\u8g2\csrc/mui.c ****   ui->tmp8 = 0;
 625:..\u8g2\csrc/mui.c ****   mui_loop_over_form(ui, mui_task_get_current_cursor_focus_position);
 626:..\u8g2\csrc/mui.c ****   return ui->tmp8;
 627:..\u8g2\csrc/mui.c **** }
 628:..\u8g2\csrc/mui.c **** 
 629:..\u8g2\csrc/mui.c **** 
 630:..\u8g2\csrc/mui.c **** void mui_Draw(mui_t *ui)
 631:..\u8g2\csrc/mui.c **** {
 632:..\u8g2\csrc/mui.c ****   mui_loop_over_form(ui, mui_task_draw);
 633:..\u8g2\csrc/mui.c **** }
 634:..\u8g2\csrc/mui.c **** 
 635:..\u8g2\csrc/mui.c **** void mui_next_field(mui_t *ui)
 636:..\u8g2\csrc/mui.c **** {
 637:..\u8g2\csrc/mui.c ****   mui_loop_over_form(ui, mui_task_find_next_cursor_uif);
 638:..\u8g2\csrc/mui.c ****   // ui->cursor_focus_position++;
 639:..\u8g2\csrc/mui.c ****   ui->cursor_focus_fds = ui->target_fds;      // NULL is ok  
 640:..\u8g2\csrc/mui.c ****   if ( ui->target_fds == NULL )
 641:..\u8g2\csrc/mui.c ****   {
 642:..\u8g2\csrc/mui.c ****     mui_loop_over_form(ui, mui_task_find_first_cursor_uif);
 643:..\u8g2\csrc/mui.c ****     ui->cursor_focus_fds = ui->target_fds;      // NULL is ok  
 644:..\u8g2\csrc/mui.c ****     // ui->cursor_focus_position = 0;
 645:..\u8g2\csrc/mui.c ****   }
 646:..\u8g2\csrc/mui.c **** }
 647:..\u8g2\csrc/mui.c **** 
 648:..\u8g2\csrc/mui.c **** /*
 649:..\u8g2\csrc/mui.c ****   this function will overwrite the ui field related member variables
 650:..\u8g2\csrc/mui.c ****   nth_token can be 0 if the fiel text is not a option list
 651:..\u8g2\csrc/mui.c ****   the result is stored in ui->text
 652:..\u8g2\csrc/mui.c **** */
 653:..\u8g2\csrc/mui.c **** /* OBSOLETE */
 654:..\u8g2\csrc/mui.c **** #ifdef OBSOLETE
 655:..\u8g2\csrc/mui.c **** void mui_GetSelectableFieldTextOptionByCursorPosition(mui_t *ui, uint8_t form_id, uint8_t cursor_po
 656:..\u8g2\csrc/mui.c **** {
 657:..\u8g2\csrc/mui.c ****   fds_t *fds = ui->fds;                                // backup the current fds, so that this func
 658:..\u8g2\csrc/mui.c ****   int len = ui->len;          // backup length of the current command
 659:..\u8g2\csrc/mui.c **** 
 660:..\u8g2\csrc/mui.c ****   
 661:..\u8g2\csrc/mui.c ****   ui->fds = mui_find_form(ui, form_id);          // search for the target form and overwrite the cu
 662:..\u8g2\csrc/mui.c **** 
 663:..\u8g2\csrc/mui.c ****   // use the inner_loop procedure, because ui->fds has been assigned already
 664:..\u8g2\csrc/mui.c ****   ui->tmp8 = cursor_position;   // maybe we should also backup tmp8, but at the moment tmp8 is only
 665:..\u8g2\csrc/mui.c ****   //MUI_DEBUG("mui_GetSelectableFieldTextOption\n");
 666:..\u8g2\csrc/mui.c ****   mui_inner_loop_over_form(ui, mui_task_read_nth_selectable_field);
 667:..\u8g2\csrc/mui.c ****   // at this point ui->fds contains the field which was selected from above
 668:..\u8g2\csrc/mui.c ****   
 669:..\u8g2\csrc/mui.c ****   // now get the opion string out of the text field. nth_token can be 0 if this is no opion string
 670:..\u8g2\csrc/mui.c ****   mui_fds_get_nth_token(ui, nth_token);          // return value is ignored here
ARM GAS  C:\Users\brian\AppData\Local\Temp\ccibXfrV.s 			page 40


 671:..\u8g2\csrc/mui.c ****   
 672:..\u8g2\csrc/mui.c ****   ui->fds = fds;                        // restore the previous fds position
 673:..\u8g2\csrc/mui.c ****   ui->len = len;
 674:..\u8g2\csrc/mui.c ****   // result is stored in ui->text
 675:..\u8g2\csrc/mui.c **** }
 676:..\u8g2\csrc/mui.c **** #endif
 677:..\u8g2\csrc/mui.c **** 
 678:..\u8g2\csrc/mui.c **** uint8_t mui_GetSelectableFieldTextOption(mui_t *ui, fds_t *fds, uint8_t nth_token)
 679:..\u8g2\csrc/mui.c **** {
 680:..\u8g2\csrc/mui.c ****   fds_t *fds_backup = ui->fds;                                // backup the current fds, so that th
 681:..\u8g2\csrc/mui.c ****   int len = ui->len;          // backup length of the current command, 26 sep 2021: probably this i
 682:..\u8g2\csrc/mui.c ****   uint8_t is_found;
 683:..\u8g2\csrc/mui.c ****   
 684:..\u8g2\csrc/mui.c ****   ui->fds = fds;
 685:..\u8g2\csrc/mui.c ****   // at this point ui->fds contains the field which contains the tokens  
 686:..\u8g2\csrc/mui.c ****   // now get the opion string out of the text field. nth_token can be 0 if this is no opion string
 687:..\u8g2\csrc/mui.c ****   is_found = mui_fds_get_nth_token(ui, nth_token);          // return value is ignored here
 688:..\u8g2\csrc/mui.c ****   
 689:..\u8g2\csrc/mui.c ****   ui->fds = fds_backup;                        // restore the previous fds position
 690:..\u8g2\csrc/mui.c ****   ui->len = len;
 691:..\u8g2\csrc/mui.c ****   // result is stored in ui->text
 692:..\u8g2\csrc/mui.c ****   return is_found;
 693:..\u8g2\csrc/mui.c **** }
 694:..\u8g2\csrc/mui.c **** 
 695:..\u8g2\csrc/mui.c **** /*
 696:..\u8g2\csrc/mui.c ****   this function will overwrite the ui field related member variables
 697:..\u8g2\csrc/mui.c ****   return the number of options in the referenced field
 698:..\u8g2\csrc/mui.c **** */
 699:..\u8g2\csrc/mui.c **** /* OBSOLETE */
 700:..\u8g2\csrc/mui.c **** #ifdef OBSOLETE
 701:..\u8g2\csrc/mui.c **** uint8_t mui_GetSelectableFieldOptionCntByCursorPosition(mui_t *ui, uint8_t form_id, uint8_t cursor_
 702:..\u8g2\csrc/mui.c **** {
 703:..\u8g2\csrc/mui.c ****   fds_t *fds = ui->fds;                                // backup the current fds, so that this func
 704:..\u8g2\csrc/mui.c ****   int len = ui->len;          // backup length of the current command
 705:..\u8g2\csrc/mui.c ****   uint8_t cnt = 0;
 706:..\u8g2\csrc/mui.c ****   
 707:..\u8g2\csrc/mui.c ****   ui->fds = mui_find_form(ui, form_id);          // search for the target form and overwrite the cu
 708:..\u8g2\csrc/mui.c **** 
 709:..\u8g2\csrc/mui.c ****   // use the inner_loop procedure, because ui->fds has been assigned already
 710:..\u8g2\csrc/mui.c ****   ui->tmp8 = cursor_position;   // maybe we should also backup tmp8, but at the moment tmp8 is only
 711:..\u8g2\csrc/mui.c ****   //MUI_DEBUG("mui_GetSelectableFieldOptionCnt\n");
 712:..\u8g2\csrc/mui.c ****   mui_inner_loop_over_form(ui, mui_task_read_nth_selectable_field);
 713:..\u8g2\csrc/mui.c ****   // at this point ui->fds contains the field which was selected from above
 714:..\u8g2\csrc/mui.c ****   
 715:..\u8g2\csrc/mui.c ****   // now get the opion string out of the text field. nth_token can be 0 if this is no opion string
 716:..\u8g2\csrc/mui.c ****   cnt = mui_fds_get_token_cnt(ui); 
 717:..\u8g2\csrc/mui.c ****   
 718:..\u8g2\csrc/mui.c ****   ui->fds = fds;                        // restore the previous fds position
 719:..\u8g2\csrc/mui.c ****   ui->len = len;
 720:..\u8g2\csrc/mui.c ****   // result is stored in ui->text
 721:..\u8g2\csrc/mui.c ****   return cnt;
 722:..\u8g2\csrc/mui.c **** }
 723:..\u8g2\csrc/mui.c **** #endif
 724:..\u8g2\csrc/mui.c **** 
 725:..\u8g2\csrc/mui.c **** uint8_t mui_GetSelectableFieldOptionCnt(mui_t *ui, fds_t *fds)
 726:..\u8g2\csrc/mui.c **** {
 727:..\u8g2\csrc/mui.c ****   fds_t *fds_backup = ui->fds;                                // backup the current fds, so that th
ARM GAS  C:\Users\brian\AppData\Local\Temp\ccibXfrV.s 			page 41


 728:..\u8g2\csrc/mui.c ****   int len = ui->len;          // backup length of the current command   26 sep 2021: probably this 
 729:..\u8g2\csrc/mui.c ****   uint8_t cnt = 0;
 730:..\u8g2\csrc/mui.c ****   
 731:..\u8g2\csrc/mui.c ****   ui->fds = fds;
 732:..\u8g2\csrc/mui.c ****   // at this point ui->fds contains the field which contains the tokens  
 733:..\u8g2\csrc/mui.c ****   // now get the opion string out of the text field. nth_token can be 0 if this is no opion string
 734:..\u8g2\csrc/mui.c ****   cnt = mui_fds_get_token_cnt(ui); 
 735:..\u8g2\csrc/mui.c ****   
 736:..\u8g2\csrc/mui.c ****   ui->fds = fds_backup;                        // restore the previous fds position
 737:..\u8g2\csrc/mui.c ****   ui->len = len;
 738:..\u8g2\csrc/mui.c ****   // result is stored in ui->text
 739:..\u8g2\csrc/mui.c ****   return cnt;
 740:..\u8g2\csrc/mui.c **** }
 741:..\u8g2\csrc/mui.c **** 
 742:..\u8g2\csrc/mui.c **** 
 743:..\u8g2\csrc/mui.c **** 
 744:..\u8g2\csrc/mui.c **** //static void mui_send_cursor_enter_msg(mui_t *ui) MUI_NOINLINE;
 745:..\u8g2\csrc/mui.c **** static uint8_t mui_send_cursor_enter_msg(mui_t *ui)
 746:..\u8g2\csrc/mui.c **** {
 1396              		.loc 1 746 0
 1397              		.cfi_startproc
 1398              		@ args = 0, pretend = 0, frame = 0
 1399              		@ frame_needed = 0, uses_anonymous_args = 0
 1400              	.LVL138:
 1401 0000 08B5     		push	{r3, lr}
 1402              		.cfi_def_cfa_offset 8
 1403              		.cfi_offset 3, -8
 1404              		.cfi_offset 14, -4
 747:..\u8g2\csrc/mui.c ****   ui->is_mud = 0;
 1405              		.loc 1 747 0
 1406 0002 0022     		movs	r2, #0
 1407 0004 80F82620 		strb	r2, [r0, #38]
 748:..\u8g2\csrc/mui.c ****   return mui_send_cursor_msg(ui, MUIF_MSG_CURSOR_ENTER);
 1408              		.loc 1 748 0
 1409 0008 0421     		movs	r1, #4
 1410 000a FFF7FEFF 		bl	mui_send_cursor_msg
 1411              	.LVL139:
 749:..\u8g2\csrc/mui.c **** }
 1412              		.loc 1 749 0
 1413 000e 08BD     		pop	{r3, pc}
 1414              		.cfi_endproc
 1415              	.LFE30:
 1416              		.size	mui_send_cursor_enter_msg, .-mui_send_cursor_enter_msg
 1417              		.section	.text.mui_find_form,"ax",%progbits
 1418              		.align	2
 1419              		.global	mui_find_form
 1420              		.thumb
 1421              		.thumb_func
 1422              		.type	mui_find_form, %function
 1423              	mui_find_form:
 1424              	.LFB13:
 461:..\u8g2\csrc/mui.c ****   fds_t *fds = ui->root_fds;
 1425              		.loc 1 461 0
 1426              		.cfi_startproc
 1427              		@ args = 0, pretend = 0, frame = 0
 1428              		@ frame_needed = 0, uses_anonymous_args = 0
 1429              	.LVL140:
ARM GAS  C:\Users\brian\AppData\Local\Temp\ccibXfrV.s 			page 42


 1430 0000 70B5     		push	{r4, r5, r6, lr}
 1431              		.cfi_def_cfa_offset 16
 1432              		.cfi_offset 4, -16
 1433              		.cfi_offset 5, -12
 1434              		.cfi_offset 6, -8
 1435              		.cfi_offset 14, -4
 1436 0002 0546     		mov	r5, r0
 1437 0004 0E46     		mov	r6, r1
 462:..\u8g2\csrc/mui.c ****   uint8_t cmd;
 1438              		.loc 1 462 0
 1439 0006 4468     		ldr	r4, [r0, #4]
 1440              	.LVL141:
 1441              	.L112:
 467:..\u8g2\csrc/mui.c ****     if ( cmd == 0 )
 1442              		.loc 1 467 0
 1443 0008 2046     		mov	r0, r4
 1444 000a FFF7FEFF 		bl	mui_get_fds_char
 1445              	.LVL142:
 468:..\u8g2\csrc/mui.c ****       break;
 1446              		.loc 1 468 0
 1447 000e 60B1     		cbz	r0, .L113
 470:..\u8g2\csrc/mui.c ****     {
 1448              		.loc 1 470 0
 1449 0010 5528     		cmp	r0, #85
 1450 0012 04D1     		bne	.L111
 472:..\u8g2\csrc/mui.c ****       {
 1451              		.loc 1 472 0
 1452 0014 601C     		adds	r0, r4, #1
 1453              	.LVL143:
 1454 0016 FFF7FEFF 		bl	mui_get_fds_char
 1455              	.LVL144:
 1456 001a B042     		cmp	r0, r6
 1457 001c 07D0     		beq	.L114
 1458              	.L111:
 479:..\u8g2\csrc/mui.c ****   }
 1459              		.loc 1 479 0
 1460 001e 2146     		mov	r1, r4
 1461 0020 2846     		mov	r0, r5
 1462 0022 FFF7FEFF 		bl	mui_fds_get_cmd_size
 1463              	.LVL145:
 1464 0026 0444     		add	r4, r4, r0
 1465              	.LVL146:
 480:..\u8g2\csrc/mui.c ****   return NULL;
 1466              		.loc 1 480 0
 1467 0028 EEE7     		b	.L112
 1468              	.LVL147:
 1469              	.L113:
 481:..\u8g2\csrc/mui.c **** }
 1470              		.loc 1 481 0
 1471 002a 0020     		movs	r0, #0
 1472              	.LVL148:
 1473 002c 70BD     		pop	{r4, r5, r6, pc}
 1474              	.LVL149:
 1475              	.L114:
 474:..\u8g2\csrc/mui.c ****       }
 1476              		.loc 1 474 0
 1477 002e 2046     		mov	r0, r4
ARM GAS  C:\Users\brian\AppData\Local\Temp\ccibXfrV.s 			page 43


 482:..\u8g2\csrc/mui.c **** 
 1478              		.loc 1 482 0
 1479 0030 70BD     		pop	{r4, r5, r6, pc}
 1480              		.cfi_endproc
 1481              	.LFE13:
 1482              		.size	mui_find_form, .-mui_find_form
 1483 0032 00BF     		.section	.text.mui_task_read_nth_selectable_field,"ax",%progbits
 1484              		.align	2
 1485              		.global	mui_task_read_nth_selectable_field
 1486              		.thumb
 1487              		.thumb_func
 1488              		.type	mui_task_read_nth_selectable_field, %function
 1489              	mui_task_read_nth_selectable_field:
 1490              	.LFB23:
 588:..\u8g2\csrc/mui.c ****   //if ( muif_get_cflags(ui->uif) & MUIF_CFLAG_IS_CURSOR_SELECTABLE )
 1491              		.loc 1 588 0
 1492              		.cfi_startproc
 1493              		@ args = 0, pretend = 0, frame = 0
 1494              		@ frame_needed = 0, uses_anonymous_args = 0
 1495              	.LVL150:
 1496 0000 10B5     		push	{r4, lr}
 1497              		.cfi_def_cfa_offset 8
 1498              		.cfi_offset 4, -8
 1499              		.cfi_offset 14, -4
 1500 0002 0446     		mov	r4, r0
 590:..\u8g2\csrc/mui.c ****   {
 1501              		.loc 1 590 0
 1502 0004 FFF7FEFF 		bl	mui_uif_is_cursor_selectable
 1503              	.LVL151:
 1504 0008 0346     		mov	r3, r0
 1505 000a 40B1     		cbz	r0, .L117
 592:..\u8g2\csrc/mui.c ****       return 1;         /* stop looping */
 1506              		.loc 1 592 0
 1507 000c 94F82530 		ldrb	r3, [r4, #37]	@ zero_extendqisi2
 1508 0010 23B1     		cbz	r3, .L118
 594:..\u8g2\csrc/mui.c ****   }
 1509              		.loc 1 594 0
 1510 0012 013B     		subs	r3, r3, #1
 1511 0014 84F82530 		strb	r3, [r4, #37]
 596:..\u8g2\csrc/mui.c **** }
 1512              		.loc 1 596 0
 1513 0018 0023     		movs	r3, #0
 1514 001a 00E0     		b	.L117
 1515              	.L118:
 593:..\u8g2\csrc/mui.c ****     ui->tmp8--;
 1516              		.loc 1 593 0
 1517 001c 0123     		movs	r3, #1
 1518              	.L117:
 597:..\u8g2\csrc/mui.c **** 
 1519              		.loc 1 597 0
 1520 001e 1846     		mov	r0, r3
 1521 0020 10BD     		pop	{r4, pc}
 1522              		.cfi_endproc
 1523              	.LFE23:
 1524              		.size	mui_task_read_nth_selectable_field, .-mui_task_read_nth_selectable_field
 1525 0022 00BF     		.section	.text.mui_GetCurrentCursorFocusPosition,"ax",%progbits
 1526              		.align	2
ARM GAS  C:\Users\brian\AppData\Local\Temp\ccibXfrV.s 			page 44


 1527              		.global	mui_GetCurrentCursorFocusPosition
 1528              		.thumb
 1529              		.thumb_func
 1530              		.type	mui_GetCurrentCursorFocusPosition, %function
 1531              	mui_GetCurrentCursorFocusPosition:
 1532              	.LFB25:
 623:..\u8g2\csrc/mui.c ****   ui->tmp8 = 0;
 1533              		.loc 1 623 0
 1534              		.cfi_startproc
 1535              		@ args = 0, pretend = 0, frame = 0
 1536              		@ frame_needed = 0, uses_anonymous_args = 0
 1537              	.LVL152:
 1538 0000 10B5     		push	{r4, lr}
 1539              		.cfi_def_cfa_offset 8
 1540              		.cfi_offset 4, -8
 1541              		.cfi_offset 14, -4
 1542 0002 0446     		mov	r4, r0
 624:..\u8g2\csrc/mui.c ****   mui_loop_over_form(ui, mui_task_get_current_cursor_focus_position);
 1543              		.loc 1 624 0
 1544 0004 0023     		movs	r3, #0
 1545 0006 80F82530 		strb	r3, [r0, #37]
 625:..\u8g2\csrc/mui.c ****   return ui->tmp8;
 1546              		.loc 1 625 0
 1547 000a 0349     		ldr	r1, .L122
 1548 000c FFF7FEFF 		bl	mui_loop_over_form
 1549              	.LVL153:
 627:..\u8g2\csrc/mui.c **** 
 1550              		.loc 1 627 0
 1551 0010 94F82500 		ldrb	r0, [r4, #37]	@ zero_extendqisi2
 1552 0014 10BD     		pop	{r4, pc}
 1553              	.LVL154:
 1554              	.L123:
 1555 0016 00BF     		.align	2
 1556              	.L122:
 1557 0018 00000000 		.word	mui_task_get_current_cursor_focus_position
 1558              		.cfi_endproc
 1559              	.LFE25:
 1560              		.size	mui_GetCurrentCursorFocusPosition, .-mui_GetCurrentCursorFocusPosition
 1561              		.section	.text.mui_Draw,"ax",%progbits
 1562              		.align	2
 1563              		.global	mui_Draw
 1564              		.thumb
 1565              		.thumb_func
 1566              		.type	mui_Draw, %function
 1567              	mui_Draw:
 1568              	.LFB26:
 631:..\u8g2\csrc/mui.c ****   mui_loop_over_form(ui, mui_task_draw);
 1569              		.loc 1 631 0
 1570              		.cfi_startproc
 1571              		@ args = 0, pretend = 0, frame = 0
 1572              		@ frame_needed = 0, uses_anonymous_args = 0
 1573              	.LVL155:
 1574 0000 08B5     		push	{r3, lr}
 1575              		.cfi_def_cfa_offset 8
 1576              		.cfi_offset 3, -8
 1577              		.cfi_offset 14, -4
 632:..\u8g2\csrc/mui.c **** }
ARM GAS  C:\Users\brian\AppData\Local\Temp\ccibXfrV.s 			page 45


 1578              		.loc 1 632 0
 1579 0002 0249     		ldr	r1, .L126
 1580 0004 FFF7FEFF 		bl	mui_loop_over_form
 1581              	.LVL156:
 1582 0008 08BD     		pop	{r3, pc}
 1583              	.L127:
 1584 000a 00BF     		.align	2
 1585              	.L126:
 1586 000c 00000000 		.word	mui_task_draw
 1587              		.cfi_endproc
 1588              	.LFE26:
 1589              		.size	mui_Draw, .-mui_Draw
 1590              		.section	.text.mui_next_field,"ax",%progbits
 1591              		.align	2
 1592              		.global	mui_next_field
 1593              		.thumb
 1594              		.thumb_func
 1595              		.type	mui_next_field, %function
 1596              	mui_next_field:
 1597              	.LFB27:
 636:..\u8g2\csrc/mui.c ****   mui_loop_over_form(ui, mui_task_find_next_cursor_uif);
 1598              		.loc 1 636 0
 1599              		.cfi_startproc
 1600              		@ args = 0, pretend = 0, frame = 0
 1601              		@ frame_needed = 0, uses_anonymous_args = 0
 1602              	.LVL157:
 1603 0000 10B5     		push	{r4, lr}
 1604              		.cfi_def_cfa_offset 8
 1605              		.cfi_offset 4, -8
 1606              		.cfi_offset 14, -4
 1607 0002 0446     		mov	r4, r0
 637:..\u8g2\csrc/mui.c ****   // ui->cursor_focus_position++;
 1608              		.loc 1 637 0
 1609 0004 0649     		ldr	r1, .L131
 1610 0006 FFF7FEFF 		bl	mui_loop_over_form
 1611              	.LVL158:
 639:..\u8g2\csrc/mui.c ****   if ( ui->target_fds == NULL )
 1612              		.loc 1 639 0
 1613 000a E36E     		ldr	r3, [r4, #108]
 1614 000c 6361     		str	r3, [r4, #20]
 640:..\u8g2\csrc/mui.c ****   {
 1615              		.loc 1 640 0
 1616 000e 2BB9     		cbnz	r3, .L128
 642:..\u8g2\csrc/mui.c ****     ui->cursor_focus_fds = ui->target_fds;      // NULL is ok  
 1617              		.loc 1 642 0
 1618 0010 0449     		ldr	r1, .L131+4
 1619 0012 2046     		mov	r0, r4
 1620 0014 FFF7FEFF 		bl	mui_loop_over_form
 1621              	.LVL159:
 643:..\u8g2\csrc/mui.c ****     // ui->cursor_focus_position = 0;
 1622              		.loc 1 643 0
 1623 0018 E36E     		ldr	r3, [r4, #108]
 1624 001a 6361     		str	r3, [r4, #20]
 1625              	.L128:
 1626 001c 10BD     		pop	{r4, pc}
 1627              	.LVL160:
 1628              	.L132:
ARM GAS  C:\Users\brian\AppData\Local\Temp\ccibXfrV.s 			page 46


 1629 001e 00BF     		.align	2
 1630              	.L131:
 1631 0020 00000000 		.word	mui_task_find_next_cursor_uif
 1632 0024 00000000 		.word	mui_task_find_first_cursor_uif
 1633              		.cfi_endproc
 1634              	.LFE27:
 1635              		.size	mui_next_field, .-mui_next_field
 1636              		.section	.text.mui_GetSelectableFieldTextOption,"ax",%progbits
 1637              		.align	2
 1638              		.global	mui_GetSelectableFieldTextOption
 1639              		.thumb
 1640              		.thumb_func
 1641              		.type	mui_GetSelectableFieldTextOption, %function
 1642              	mui_GetSelectableFieldTextOption:
 1643              	.LFB28:
 679:..\u8g2\csrc/mui.c ****   fds_t *fds_backup = ui->fds;                                // backup the current fds, so that th
 1644              		.loc 1 679 0
 1645              		.cfi_startproc
 1646              		@ args = 0, pretend = 0, frame = 0
 1647              		@ frame_needed = 0, uses_anonymous_args = 0
 1648              	.LVL161:
 1649 0000 70B5     		push	{r4, r5, r6, lr}
 1650              		.cfi_def_cfa_offset 16
 1651              		.cfi_offset 4, -16
 1652              		.cfi_offset 5, -12
 1653              		.cfi_offset 6, -8
 1654              		.cfi_offset 14, -4
 1655 0002 0446     		mov	r4, r0
 680:..\u8g2\csrc/mui.c ****   int len = ui->len;          // backup length of the current command, 26 sep 2021: probably this i
 1656              		.loc 1 680 0
 1657 0004 466B     		ldr	r6, [r0, #52]
 1658              	.LVL162:
 681:..\u8g2\csrc/mui.c ****   uint8_t is_found;
 1659              		.loc 1 681 0
 1660 0006 056B     		ldr	r5, [r0, #48]
 1661              	.LVL163:
 684:..\u8g2\csrc/mui.c ****   // at this point ui->fds contains the field which contains the tokens  
 1662              		.loc 1 684 0
 1663 0008 4163     		str	r1, [r0, #52]
 687:..\u8g2\csrc/mui.c ****   
 1664              		.loc 1 687 0
 1665 000a 1146     		mov	r1, r2
 1666              	.LVL164:
 1667 000c FFF7FEFF 		bl	mui_fds_get_nth_token
 1668              	.LVL165:
 689:..\u8g2\csrc/mui.c ****   ui->len = len;
 1669              		.loc 1 689 0
 1670 0010 6663     		str	r6, [r4, #52]
 690:..\u8g2\csrc/mui.c ****   // result is stored in ui->text
 1671              		.loc 1 690 0
 1672 0012 2563     		str	r5, [r4, #48]
 693:..\u8g2\csrc/mui.c **** 
 1673              		.loc 1 693 0
 1674 0014 70BD     		pop	{r4, r5, r6, pc}
 1675              		.cfi_endproc
 1676              	.LFE28:
 1677              		.size	mui_GetSelectableFieldTextOption, .-mui_GetSelectableFieldTextOption
ARM GAS  C:\Users\brian\AppData\Local\Temp\ccibXfrV.s 			page 47


 1678 0016 00BF     		.section	.text.mui_GetSelectableFieldOptionCnt,"ax",%progbits
 1679              		.align	2
 1680              		.global	mui_GetSelectableFieldOptionCnt
 1681              		.thumb
 1682              		.thumb_func
 1683              		.type	mui_GetSelectableFieldOptionCnt, %function
 1684              	mui_GetSelectableFieldOptionCnt:
 1685              	.LFB29:
 726:..\u8g2\csrc/mui.c ****   fds_t *fds_backup = ui->fds;                                // backup the current fds, so that th
 1686              		.loc 1 726 0
 1687              		.cfi_startproc
 1688              		@ args = 0, pretend = 0, frame = 0
 1689              		@ frame_needed = 0, uses_anonymous_args = 0
 1690              	.LVL166:
 1691 0000 70B5     		push	{r4, r5, r6, lr}
 1692              		.cfi_def_cfa_offset 16
 1693              		.cfi_offset 4, -16
 1694              		.cfi_offset 5, -12
 1695              		.cfi_offset 6, -8
 1696              		.cfi_offset 14, -4
 1697 0002 0446     		mov	r4, r0
 727:..\u8g2\csrc/mui.c ****   int len = ui->len;          // backup length of the current command   26 sep 2021: probably this 
 1698              		.loc 1 727 0
 1699 0004 466B     		ldr	r6, [r0, #52]
 1700              	.LVL167:
 728:..\u8g2\csrc/mui.c ****   uint8_t cnt = 0;
 1701              		.loc 1 728 0
 1702 0006 056B     		ldr	r5, [r0, #48]
 1703              	.LVL168:
 731:..\u8g2\csrc/mui.c ****   // at this point ui->fds contains the field which contains the tokens  
 1704              		.loc 1 731 0
 1705 0008 4163     		str	r1, [r0, #52]
 734:..\u8g2\csrc/mui.c ****   
 1706              		.loc 1 734 0
 1707 000a FFF7FEFF 		bl	mui_fds_get_token_cnt
 1708              	.LVL169:
 736:..\u8g2\csrc/mui.c ****   ui->len = len;
 1709              		.loc 1 736 0
 1710 000e 6663     		str	r6, [r4, #52]
 737:..\u8g2\csrc/mui.c ****   // result is stored in ui->text
 1711              		.loc 1 737 0
 1712 0010 2563     		str	r5, [r4, #48]
 740:..\u8g2\csrc/mui.c **** 
 1713              		.loc 1 740 0
 1714 0012 70BD     		pop	{r4, r5, r6, pc}
 1715              		.cfi_endproc
 1716              	.LFE29:
 1717              		.size	mui_GetSelectableFieldOptionCnt, .-mui_GetSelectableFieldOptionCnt
 1718              		.section	.text.mui_LeaveForm,"ax",%progbits
 1719              		.align	2
 1720              		.global	mui_LeaveForm
 1721              		.thumb
 1722              		.thumb_func
 1723              		.type	mui_LeaveForm, %function
 1724              	mui_LeaveForm:
 1725              	.LFB32:
 750:..\u8g2\csrc/mui.c **** 
ARM GAS  C:\Users\brian\AppData\Local\Temp\ccibXfrV.s 			page 48


 751:..\u8g2\csrc/mui.c **** /* 
 752:..\u8g2\csrc/mui.c ****   if called from a field function, then the current field variables are destroyed, so that call sho
 753:..\u8g2\csrc/mui.c ****   mui_EnterForm is similar to mui_GotoForm and differes only in the second argument (which is the f
 754:..\u8g2\csrc/mui.c **** */
 755:..\u8g2\csrc/mui.c **** void mui_EnterForm(mui_t *ui, fds_t *fds, uint8_t initial_cursor_position)
 756:..\u8g2\csrc/mui.c **** {
 757:..\u8g2\csrc/mui.c ****   /* exit any previous form, will not do anything if there is no current form */
 758:..\u8g2\csrc/mui.c ****   mui_LeaveForm(ui);
 759:..\u8g2\csrc/mui.c ****   
 760:..\u8g2\csrc/mui.c ****   /* clean focus fields */
 761:..\u8g2\csrc/mui.c ****   ui->touch_focus_fds = NULL;
 762:..\u8g2\csrc/mui.c ****   ui->cursor_focus_fds = NULL;
 763:..\u8g2\csrc/mui.c ****   
 764:..\u8g2\csrc/mui.c ****   /* reset all the scoll values */
 765:..\u8g2\csrc/mui.c ****   ui->form_scroll_top = 0;
 766:..\u8g2\csrc/mui.c ****   ui->form_scroll_visible = 0;
 767:..\u8g2\csrc/mui.c ****   ui->form_scroll_total = 0;
 768:..\u8g2\csrc/mui.c ****   
 769:..\u8g2\csrc/mui.c ****   /* assign the form, which should be entered */
 770:..\u8g2\csrc/mui.c ****   ui->current_form_fds = fds;
 771:..\u8g2\csrc/mui.c ****   
 772:..\u8g2\csrc/mui.c ****   /* inform all fields that we start a new form */
 773:..\u8g2\csrc/mui.c ****   MUI_DEBUG("mui_EnterForm: form_start\n");
 774:..\u8g2\csrc/mui.c ****   mui_loop_over_form(ui, mui_task_form_start);
 775:..\u8g2\csrc/mui.c ****   
 776:..\u8g2\csrc/mui.c ****   /* assign initional cursor focus */
 777:..\u8g2\csrc/mui.c ****   MUI_DEBUG("mui_EnterForm: find_first_cursor_uif\n");
 778:..\u8g2\csrc/mui.c ****   mui_loop_over_form(ui, mui_task_find_first_cursor_uif);  
 779:..\u8g2\csrc/mui.c ****   ui->cursor_focus_fds = ui->target_fds;      // NULL is ok  
 780:..\u8g2\csrc/mui.c ****   MUI_DEBUG("mui_EnterForm: find_first_cursor_uif target_fds=%p\n", ui->target_fds);
 781:..\u8g2\csrc/mui.c ****   
 782:..\u8g2\csrc/mui.c ****   while( initial_cursor_position > 0 )
 783:..\u8g2\csrc/mui.c ****   {
 784:..\u8g2\csrc/mui.c ****     mui_NextField(ui);          // mui_next_field(ui) is not sufficient in case of scrolling
 785:..\u8g2\csrc/mui.c ****     initial_cursor_position--;
 786:..\u8g2\csrc/mui.c ****   }
 787:..\u8g2\csrc/mui.c ****   
 788:..\u8g2\csrc/mui.c ****   while( mui_send_cursor_enter_msg(ui) == 255 )
 789:..\u8g2\csrc/mui.c ****   {
 790:..\u8g2\csrc/mui.c ****     mui_NextField(ui);          // mui_next_field(ui) is not sufficient in case of scrolling
 791:..\u8g2\csrc/mui.c ****   }
 792:..\u8g2\csrc/mui.c **** }
 793:..\u8g2\csrc/mui.c **** 
 794:..\u8g2\csrc/mui.c **** /* input: current_form_fds */
 795:..\u8g2\csrc/mui.c **** /*
 796:..\u8g2\csrc/mui.c ****   if called from a field function, then the current field variables are destroyed, so that call sho
 797:..\u8g2\csrc/mui.c **** */
 798:..\u8g2\csrc/mui.c **** void mui_LeaveForm(mui_t *ui)
 799:..\u8g2\csrc/mui.c **** {
 1726              		.loc 1 799 0
 1727              		.cfi_startproc
 1728              		@ args = 0, pretend = 0, frame = 0
 1729              		@ frame_needed = 0, uses_anonymous_args = 0
 1730              	.LVL170:
 1731 0000 38B5     		push	{r3, r4, r5, lr}
 1732              		.cfi_def_cfa_offset 16
 1733              		.cfi_offset 3, -16
ARM GAS  C:\Users\brian\AppData\Local\Temp\ccibXfrV.s 			page 49


 1734              		.cfi_offset 4, -12
 1735              		.cfi_offset 5, -8
 1736              		.cfi_offset 14, -4
 800:..\u8g2\csrc/mui.c ****   if ( mui_IsFormActive(ui) == 0 )
 1737              		.loc 1 800 0
 1738 0002 0369     		ldr	r3, [r0, #16]
 1739 0004 53B1     		cbz	r3, .L137
 1740 0006 0446     		mov	r4, r0
 801:..\u8g2\csrc/mui.c ****     return;
 802:..\u8g2\csrc/mui.c ****   
 803:..\u8g2\csrc/mui.c ****   mui_send_cursor_msg(ui, MUIF_MSG_CURSOR_LEAVE);
 1741              		.loc 1 803 0
 1742 0008 0621     		movs	r1, #6
 1743 000a FFF7FEFF 		bl	mui_send_cursor_msg
 1744              	.LVL171:
 804:..\u8g2\csrc/mui.c ****   ui->cursor_focus_fds = NULL;
 1745              		.loc 1 804 0
 1746 000e 0025     		movs	r5, #0
 1747 0010 6561     		str	r5, [r4, #20]
 805:..\u8g2\csrc/mui.c ****   
 806:..\u8g2\csrc/mui.c ****   /* inform all fields that we leave the form */
 807:..\u8g2\csrc/mui.c ****   MUI_DEBUG("mui_LeaveForm: form_end\n");
 808:..\u8g2\csrc/mui.c ****   mui_loop_over_form(ui, mui_task_form_end);  
 1748              		.loc 1 808 0
 1749 0012 0349     		ldr	r1, .L140
 1750 0014 2046     		mov	r0, r4
 1751 0016 FFF7FEFF 		bl	mui_loop_over_form
 1752              	.LVL172:
 809:..\u8g2\csrc/mui.c ****   ui->current_form_fds = NULL;
 1753              		.loc 1 809 0
 1754 001a 2561     		str	r5, [r4, #16]
 1755              	.LVL173:
 1756              	.L137:
 1757 001c 38BD     		pop	{r3, r4, r5, pc}
 1758              	.L141:
 1759 001e 00BF     		.align	2
 1760              	.L140:
 1761 0020 00000000 		.word	mui_task_form_end
 1762              		.cfi_endproc
 1763              	.LFE32:
 1764              		.size	mui_LeaveForm, .-mui_LeaveForm
 1765              		.section	.text.mui_SaveForm,"ax",%progbits
 1766              		.align	2
 1767              		.global	mui_SaveForm
 1768              		.thumb
 1769              		.thumb_func
 1770              		.type	mui_SaveForm, %function
 1771              	mui_SaveForm:
 1772              	.LFB34:
 810:..\u8g2\csrc/mui.c **** }
 811:..\u8g2\csrc/mui.c **** 
 812:..\u8g2\csrc/mui.c **** /* 0: error, form not found */
 813:..\u8g2\csrc/mui.c **** /*
 814:..\u8g2\csrc/mui.c ****   if called from a field function, then the current field variables are destroyed, so that call sho
 815:..\u8g2\csrc/mui.c **** */
 816:..\u8g2\csrc/mui.c **** uint8_t mui_GotoForm(mui_t *ui, uint8_t form_id, uint8_t initial_cursor_position)
 817:..\u8g2\csrc/mui.c **** {
ARM GAS  C:\Users\brian\AppData\Local\Temp\ccibXfrV.s 			page 50


 818:..\u8g2\csrc/mui.c ****   fds_t *fds = mui_find_form(ui, form_id);
 819:..\u8g2\csrc/mui.c ****   if ( fds == NULL )
 820:..\u8g2\csrc/mui.c ****     return 0;
 821:..\u8g2\csrc/mui.c ****   /* EnterForm will also leave any previous form */
 822:..\u8g2\csrc/mui.c ****   mui_EnterForm(ui, fds, initial_cursor_position);
 823:..\u8g2\csrc/mui.c ****   return 1;
 824:..\u8g2\csrc/mui.c **** }
 825:..\u8g2\csrc/mui.c **** 
 826:..\u8g2\csrc/mui.c **** void mui_SaveForm(mui_t *ui)
 827:..\u8g2\csrc/mui.c **** {
 1773              		.loc 1 827 0
 1774              		.cfi_startproc
 1775              		@ args = 0, pretend = 0, frame = 0
 1776              		@ frame_needed = 0, uses_anonymous_args = 0
 1777              	.LVL174:
 828:..\u8g2\csrc/mui.c ****   if ( mui_IsFormActive(ui) == 0 )
 1778              		.loc 1 828 0
 1779 0000 0369     		ldr	r3, [r0, #16]
 1780 0002 73B1     		cbz	r3, .L145
 827:..\u8g2\csrc/mui.c ****   if ( mui_IsFormActive(ui) == 0 )
 1781              		.loc 1 827 0
 1782 0004 10B5     		push	{r4, lr}
 1783              		.cfi_def_cfa_offset 8
 1784              		.cfi_offset 4, -8
 1785              		.cfi_offset 14, -4
 1786 0006 0446     		mov	r4, r0
 829:..\u8g2\csrc/mui.c ****     return;
 830:..\u8g2\csrc/mui.c ****   
 831:..\u8g2\csrc/mui.c ****   ui->last_form_fds = ui->cursor_focus_fds;
 1787              		.loc 1 831 0
 1788 0008 4269     		ldr	r2, [r0, #20]
 1789 000a 4267     		str	r2, [r0, #116]
 832:..\u8g2\csrc/mui.c ****   ui->last_form_id = mui_get_fds_char(ui->current_form_fds+1);
 1790              		.loc 1 832 0
 1791 000c 581C     		adds	r0, r3, #1
 1792              	.LVL175:
 1793 000e FFF7FEFF 		bl	mui_get_fds_char
 1794              	.LVL176:
 1795 0012 84F87000 		strb	r0, [r4, #112]
 833:..\u8g2\csrc/mui.c ****   ui->last_form_cursor_focus_position = mui_GetCurrentCursorFocusPosition(ui);
 1796              		.loc 1 833 0
 1797 0016 2046     		mov	r0, r4
 1798 0018 FFF7FEFF 		bl	mui_GetCurrentCursorFocusPosition
 1799              	.LVL177:
 1800 001c 84F87100 		strb	r0, [r4, #113]
 1801 0020 10BD     		pop	{r4, pc}
 1802              	.LVL178:
 1803              	.L145:
 1804              		.cfi_def_cfa_offset 0
 1805              		.cfi_restore 4
 1806              		.cfi_restore 14
 1807 0022 7047     		bx	lr
 1808              		.cfi_endproc
 1809              	.LFE34:
 1810              		.size	mui_SaveForm, .-mui_SaveForm
 1811              		.section	.text.mui_NextField,"ax",%progbits
 1812              		.align	2
ARM GAS  C:\Users\brian\AppData\Local\Temp\ccibXfrV.s 			page 51


 1813              		.global	mui_NextField
 1814              		.thumb
 1815              		.thumb_func
 1816              		.type	mui_NextField, %function
 1817              	mui_NextField:
 1818              	.LFB36:
 834:..\u8g2\csrc/mui.c **** }
 835:..\u8g2\csrc/mui.c **** 
 836:..\u8g2\csrc/mui.c **** /*
 837:..\u8g2\csrc/mui.c ****   if called from a field function, then the current field variables are destroyed, so that call sho
 838:..\u8g2\csrc/mui.c **** */
 839:..\u8g2\csrc/mui.c **** void mui_RestoreForm(mui_t *ui)
 840:..\u8g2\csrc/mui.c **** {
 841:..\u8g2\csrc/mui.c ****   mui_GotoForm(ui, ui->last_form_id, ui->last_form_cursor_focus_position);
 842:..\u8g2\csrc/mui.c **** }
 843:..\u8g2\csrc/mui.c **** 
 844:..\u8g2\csrc/mui.c **** /*
 845:..\u8g2\csrc/mui.c ****   updates "ui->cursor_focus_fds"
 846:..\u8g2\csrc/mui.c **** */
 847:..\u8g2\csrc/mui.c **** /*
 848:..\u8g2\csrc/mui.c ****   if called from a field function, then the current field variables are destroyed, so that call sho
 849:..\u8g2\csrc/mui.c **** */
 850:..\u8g2\csrc/mui.c **** void mui_NextField(mui_t *ui)
 851:..\u8g2\csrc/mui.c **** {
 1819              		.loc 1 851 0
 1820              		.cfi_startproc
 1821              		@ args = 0, pretend = 0, frame = 0
 1822              		@ frame_needed = 0, uses_anonymous_args = 0
 1823              	.LVL179:
 1824 0000 10B5     		push	{r4, lr}
 1825              		.cfi_def_cfa_offset 8
 1826              		.cfi_offset 4, -8
 1827              		.cfi_offset 14, -4
 1828 0002 0446     		mov	r4, r0
 1829              	.LVL180:
 1830              	.L148:
 852:..\u8g2\csrc/mui.c ****   do 
 853:..\u8g2\csrc/mui.c ****   {
 854:..\u8g2\csrc/mui.c ****     if ( mui_send_cursor_msg(ui, MUIF_MSG_EVENT_NEXT) )
 1831              		.loc 1 854 0
 1832 0004 0921     		movs	r1, #9
 1833 0006 2046     		mov	r0, r4
 1834 0008 FFF7FEFF 		bl	mui_send_cursor_msg
 1835              	.LVL181:
 1836 000c 58B9     		cbnz	r0, .L146
 855:..\u8g2\csrc/mui.c ****       return;
 856:..\u8g2\csrc/mui.c ****     mui_send_cursor_msg(ui, MUIF_MSG_CURSOR_LEAVE);
 1837              		.loc 1 856 0
 1838 000e 0621     		movs	r1, #6
 1839 0010 2046     		mov	r0, r4
 1840 0012 FFF7FEFF 		bl	mui_send_cursor_msg
 1841              	.LVL182:
 857:..\u8g2\csrc/mui.c ****     mui_next_field(ui);
 1842              		.loc 1 857 0
 1843 0016 2046     		mov	r0, r4
 1844 0018 FFF7FEFF 		bl	mui_next_field
 1845              	.LVL183:
ARM GAS  C:\Users\brian\AppData\Local\Temp\ccibXfrV.s 			page 52


 858:..\u8g2\csrc/mui.c ****   } while ( mui_send_cursor_enter_msg(ui) == 255 );
 1846              		.loc 1 858 0
 1847 001c 2046     		mov	r0, r4
 1848 001e FFF7FEFF 		bl	mui_send_cursor_enter_msg
 1849              	.LVL184:
 1850 0022 FF28     		cmp	r0, #255
 1851 0024 EED0     		beq	.L148
 1852              	.L146:
 1853 0026 10BD     		pop	{r4, pc}
 1854              		.cfi_endproc
 1855              	.LFE36:
 1856              		.size	mui_NextField, .-mui_NextField
 1857              		.section	.text.mui_EnterForm,"ax",%progbits
 1858              		.align	2
 1859              		.global	mui_EnterForm
 1860              		.thumb
 1861              		.thumb_func
 1862              		.type	mui_EnterForm, %function
 1863              	mui_EnterForm:
 1864              	.LFB31:
 756:..\u8g2\csrc/mui.c ****   /* exit any previous form, will not do anything if there is no current form */
 1865              		.loc 1 756 0
 1866              		.cfi_startproc
 1867              		@ args = 0, pretend = 0, frame = 0
 1868              		@ frame_needed = 0, uses_anonymous_args = 0
 1869              	.LVL185:
 1870 0000 70B5     		push	{r4, r5, r6, lr}
 1871              		.cfi_def_cfa_offset 16
 1872              		.cfi_offset 4, -16
 1873              		.cfi_offset 5, -12
 1874              		.cfi_offset 6, -8
 1875              		.cfi_offset 14, -4
 1876 0002 0546     		mov	r5, r0
 1877 0004 0E46     		mov	r6, r1
 1878 0006 1446     		mov	r4, r2
 758:..\u8g2\csrc/mui.c ****   
 1879              		.loc 1 758 0
 1880 0008 FFF7FEFF 		bl	mui_LeaveForm
 1881              	.LVL186:
 761:..\u8g2\csrc/mui.c ****   ui->cursor_focus_fds = NULL;
 1882              		.loc 1 761 0
 1883 000c 0023     		movs	r3, #0
 1884 000e AB61     		str	r3, [r5, #24]
 762:..\u8g2\csrc/mui.c ****   
 1885              		.loc 1 762 0
 1886 0010 6B61     		str	r3, [r5, #20]
 765:..\u8g2\csrc/mui.c ****   ui->form_scroll_visible = 0;
 1887              		.loc 1 765 0
 1888 0012 6B84     		strh	r3, [r5, #34]	@ movhi
 766:..\u8g2\csrc/mui.c ****   ui->form_scroll_total = 0;
 1889              		.loc 1 766 0
 1890 0014 85F82430 		strb	r3, [r5, #36]
 767:..\u8g2\csrc/mui.c ****   
 1891              		.loc 1 767 0
 1892 0018 2B84     		strh	r3, [r5, #32]	@ movhi
 770:..\u8g2\csrc/mui.c ****   
 1893              		.loc 1 770 0
ARM GAS  C:\Users\brian\AppData\Local\Temp\ccibXfrV.s 			page 53


 1894 001a 2E61     		str	r6, [r5, #16]
 774:..\u8g2\csrc/mui.c ****   
 1895              		.loc 1 774 0
 1896 001c 0D49     		ldr	r1, .L156
 1897 001e 2846     		mov	r0, r5
 1898 0020 FFF7FEFF 		bl	mui_loop_over_form
 1899              	.LVL187:
 778:..\u8g2\csrc/mui.c ****   ui->cursor_focus_fds = ui->target_fds;      // NULL is ok  
 1900              		.loc 1 778 0
 1901 0024 0C49     		ldr	r1, .L156+4
 1902 0026 2846     		mov	r0, r5
 1903 0028 FFF7FEFF 		bl	mui_loop_over_form
 1904              	.LVL188:
 779:..\u8g2\csrc/mui.c ****   MUI_DEBUG("mui_EnterForm: find_first_cursor_uif target_fds=%p\n", ui->target_fds);
 1905              		.loc 1 779 0
 1906 002c EB6E     		ldr	r3, [r5, #108]
 1907 002e 6B61     		str	r3, [r5, #20]
 782:..\u8g2\csrc/mui.c ****   {
 1908              		.loc 1 782 0
 1909 0030 04E0     		b	.L151
 1910              	.LVL189:
 1911              	.L152:
 784:..\u8g2\csrc/mui.c ****     initial_cursor_position--;
 1912              		.loc 1 784 0
 1913 0032 2846     		mov	r0, r5
 1914 0034 FFF7FEFF 		bl	mui_NextField
 1915              	.LVL190:
 785:..\u8g2\csrc/mui.c ****   }
 1916              		.loc 1 785 0
 1917 0038 013C     		subs	r4, r4, #1
 1918              	.LVL191:
 1919 003a E4B2     		uxtb	r4, r4
 1920              	.LVL192:
 1921              	.L151:
 782:..\u8g2\csrc/mui.c ****   {
 1922              		.loc 1 782 0
 1923 003c 002C     		cmp	r4, #0
 1924 003e F8D1     		bne	.L152
 1925 0040 02E0     		b	.L153
 1926              	.L154:
 790:..\u8g2\csrc/mui.c ****   }
 1927              		.loc 1 790 0
 1928 0042 2846     		mov	r0, r5
 1929 0044 FFF7FEFF 		bl	mui_NextField
 1930              	.LVL193:
 1931              	.L153:
 788:..\u8g2\csrc/mui.c ****   {
 1932              		.loc 1 788 0
 1933 0048 2846     		mov	r0, r5
 1934 004a FFF7FEFF 		bl	mui_send_cursor_enter_msg
 1935              	.LVL194:
 1936 004e FF28     		cmp	r0, #255
 1937 0050 F7D0     		beq	.L154
 792:..\u8g2\csrc/mui.c **** 
 1938              		.loc 1 792 0
 1939 0052 70BD     		pop	{r4, r5, r6, pc}
 1940              	.LVL195:
ARM GAS  C:\Users\brian\AppData\Local\Temp\ccibXfrV.s 			page 54


 1941              	.L157:
 1942              		.align	2
 1943              	.L156:
 1944 0054 00000000 		.word	mui_task_form_start
 1945 0058 00000000 		.word	mui_task_find_first_cursor_uif
 1946              		.cfi_endproc
 1947              	.LFE31:
 1948              		.size	mui_EnterForm, .-mui_EnterForm
 1949              		.section	.text.mui_GotoForm,"ax",%progbits
 1950              		.align	2
 1951              		.global	mui_GotoForm
 1952              		.thumb
 1953              		.thumb_func
 1954              		.type	mui_GotoForm, %function
 1955              	mui_GotoForm:
 1956              	.LFB33:
 817:..\u8g2\csrc/mui.c ****   fds_t *fds = mui_find_form(ui, form_id);
 1957              		.loc 1 817 0
 1958              		.cfi_startproc
 1959              		@ args = 0, pretend = 0, frame = 0
 1960              		@ frame_needed = 0, uses_anonymous_args = 0
 1961              	.LVL196:
 1962 0000 38B5     		push	{r3, r4, r5, lr}
 1963              		.cfi_def_cfa_offset 16
 1964              		.cfi_offset 3, -16
 1965              		.cfi_offset 4, -12
 1966              		.cfi_offset 5, -8
 1967              		.cfi_offset 14, -4
 1968 0002 0446     		mov	r4, r0
 1969 0004 1546     		mov	r5, r2
 818:..\u8g2\csrc/mui.c ****   if ( fds == NULL )
 1970              		.loc 1 818 0
 1971 0006 FFF7FEFF 		bl	mui_find_form
 1972              	.LVL197:
 819:..\u8g2\csrc/mui.c ****     return 0;
 1973              		.loc 1 819 0
 1974 000a 30B1     		cbz	r0, .L160
 1975 000c 0146     		mov	r1, r0
 822:..\u8g2\csrc/mui.c ****   return 1;
 1976              		.loc 1 822 0
 1977 000e 2A46     		mov	r2, r5
 1978 0010 2046     		mov	r0, r4
 1979              	.LVL198:
 1980 0012 FFF7FEFF 		bl	mui_EnterForm
 1981              	.LVL199:
 823:..\u8g2\csrc/mui.c **** }
 1982              		.loc 1 823 0
 1983 0016 0120     		movs	r0, #1
 1984 0018 38BD     		pop	{r3, r4, r5, pc}
 1985              	.LVL200:
 1986              	.L160:
 820:..\u8g2\csrc/mui.c ****   /* EnterForm will also leave any previous form */
 1987              		.loc 1 820 0
 1988 001a 0020     		movs	r0, #0
 1989              	.LVL201:
 824:..\u8g2\csrc/mui.c **** 
 1990              		.loc 1 824 0
ARM GAS  C:\Users\brian\AppData\Local\Temp\ccibXfrV.s 			page 55


 1991 001c 38BD     		pop	{r3, r4, r5, pc}
 1992              		.cfi_endproc
 1993              	.LFE33:
 1994              		.size	mui_GotoForm, .-mui_GotoForm
 1995 001e 00BF     		.section	.text.mui_RestoreForm,"ax",%progbits
 1996              		.align	2
 1997              		.global	mui_RestoreForm
 1998              		.thumb
 1999              		.thumb_func
 2000              		.type	mui_RestoreForm, %function
 2001              	mui_RestoreForm:
 2002              	.LFB35:
 840:..\u8g2\csrc/mui.c ****   mui_GotoForm(ui, ui->last_form_id, ui->last_form_cursor_focus_position);
 2003              		.loc 1 840 0
 2004              		.cfi_startproc
 2005              		@ args = 0, pretend = 0, frame = 0
 2006              		@ frame_needed = 0, uses_anonymous_args = 0
 2007              	.LVL202:
 2008 0000 08B5     		push	{r3, lr}
 2009              		.cfi_def_cfa_offset 8
 2010              		.cfi_offset 3, -8
 2011              		.cfi_offset 14, -4
 841:..\u8g2\csrc/mui.c **** }
 2012              		.loc 1 841 0
 2013 0002 90F87120 		ldrb	r2, [r0, #113]	@ zero_extendqisi2
 2014 0006 90F87010 		ldrb	r1, [r0, #112]	@ zero_extendqisi2
 2015 000a FFF7FEFF 		bl	mui_GotoForm
 2016              	.LVL203:
 2017 000e 08BD     		pop	{r3, pc}
 2018              		.cfi_endproc
 2019              	.LFE35:
 2020              		.size	mui_RestoreForm, .-mui_RestoreForm
 2021              		.section	.text.mui_PrevField,"ax",%progbits
 2022              		.align	2
 2023              		.global	mui_PrevField
 2024              		.thumb
 2025              		.thumb_func
 2026              		.type	mui_PrevField, %function
 2027              	mui_PrevField:
 2028              	.LFB37:
 859:..\u8g2\csrc/mui.c **** }
 860:..\u8g2\csrc/mui.c **** 
 861:..\u8g2\csrc/mui.c **** /*
 862:..\u8g2\csrc/mui.c ****   updates "ui->cursor_focus_fds"
 863:..\u8g2\csrc/mui.c **** */
 864:..\u8g2\csrc/mui.c **** /*
 865:..\u8g2\csrc/mui.c ****   if called from a field function, then the current field variables are destroyed, so that call sho
 866:..\u8g2\csrc/mui.c **** */
 867:..\u8g2\csrc/mui.c **** void mui_PrevField(mui_t *ui)
 868:..\u8g2\csrc/mui.c **** {
 2029              		.loc 1 868 0
 2030              		.cfi_startproc
 2031              		@ args = 0, pretend = 0, frame = 0
 2032              		@ frame_needed = 0, uses_anonymous_args = 0
 2033              	.LVL204:
 2034 0000 10B5     		push	{r4, lr}
 2035              		.cfi_def_cfa_offset 8
ARM GAS  C:\Users\brian\AppData\Local\Temp\ccibXfrV.s 			page 56


 2036              		.cfi_offset 4, -8
 2037              		.cfi_offset 14, -4
 2038 0002 0446     		mov	r4, r0
 2039              	.LVL205:
 2040              	.L167:
 869:..\u8g2\csrc/mui.c ****   do
 870:..\u8g2\csrc/mui.c ****   {
 871:..\u8g2\csrc/mui.c ****     if ( mui_send_cursor_msg(ui, MUIF_MSG_EVENT_PREV) )
 2041              		.loc 1 871 0
 2042 0004 0A21     		movs	r1, #10
 2043 0006 2046     		mov	r0, r4
 2044 0008 FFF7FEFF 		bl	mui_send_cursor_msg
 2045              	.LVL206:
 2046 000c A8B9     		cbnz	r0, .L164
 872:..\u8g2\csrc/mui.c ****       return;
 873:..\u8g2\csrc/mui.c ****     mui_send_cursor_msg(ui, MUIF_MSG_CURSOR_LEAVE);
 2047              		.loc 1 873 0
 2048 000e 0621     		movs	r1, #6
 2049 0010 2046     		mov	r0, r4
 2050 0012 FFF7FEFF 		bl	mui_send_cursor_msg
 2051              	.LVL207:
 874:..\u8g2\csrc/mui.c ****  
 875:..\u8g2\csrc/mui.c ****     mui_loop_over_form(ui, mui_task_find_prev_cursor_uif);
 2052              		.loc 1 875 0
 2053 0016 0949     		ldr	r1, .L169
 2054 0018 2046     		mov	r0, r4
 2055 001a FFF7FEFF 		bl	mui_loop_over_form
 2056              	.LVL208:
 876:..\u8g2\csrc/mui.c ****     ui->cursor_focus_fds = ui->target_fds;      // NULL is ok  
 2057              		.loc 1 876 0
 2058 001e E36E     		ldr	r3, [r4, #108]
 2059 0020 6361     		str	r3, [r4, #20]
 877:..\u8g2\csrc/mui.c ****     if ( ui->target_fds == NULL )
 2060              		.loc 1 877 0
 2061 0022 2BB9     		cbnz	r3, .L166
 878:..\u8g2\csrc/mui.c ****     {
 879:..\u8g2\csrc/mui.c ****       //ui->cursor_focus_position = 0;
 880:..\u8g2\csrc/mui.c ****       mui_loop_over_form(ui, mui_task_find_last_cursor_uif);
 2062              		.loc 1 880 0
 2063 0024 0649     		ldr	r1, .L169+4
 2064 0026 2046     		mov	r0, r4
 2065 0028 FFF7FEFF 		bl	mui_loop_over_form
 2066              	.LVL209:
 881:..\u8g2\csrc/mui.c ****       ui->cursor_focus_fds = ui->target_fds;      // NULL is ok  
 2067              		.loc 1 881 0
 2068 002c E36E     		ldr	r3, [r4, #108]
 2069 002e 6361     		str	r3, [r4, #20]
 2070              	.L166:
 882:..\u8g2\csrc/mui.c ****     }
 883:..\u8g2\csrc/mui.c ****   } while( mui_send_cursor_enter_msg(ui) == 255 );
 2071              		.loc 1 883 0
 2072 0030 2046     		mov	r0, r4
 2073 0032 FFF7FEFF 		bl	mui_send_cursor_enter_msg
 2074              	.LVL210:
 2075 0036 FF28     		cmp	r0, #255
 2076 0038 E4D0     		beq	.L167
 2077              	.L164:
ARM GAS  C:\Users\brian\AppData\Local\Temp\ccibXfrV.s 			page 57


 2078 003a 10BD     		pop	{r4, pc}
 2079              	.LVL211:
 2080              	.L170:
 2081              		.align	2
 2082              	.L169:
 2083 003c 00000000 		.word	mui_task_find_prev_cursor_uif
 2084 0040 00000000 		.word	mui_task_find_last_cursor_uif
 2085              		.cfi_endproc
 2086              	.LFE37:
 2087              		.size	mui_PrevField, .-mui_PrevField
 2088              		.section	.text.mui_SendSelect,"ax",%progbits
 2089              		.align	2
 2090              		.global	mui_SendSelect
 2091              		.thumb
 2092              		.thumb_func
 2093              		.type	mui_SendSelect, %function
 2094              	mui_SendSelect:
 2095              	.LFB38:
 884:..\u8g2\csrc/mui.c **** }
 885:..\u8g2\csrc/mui.c **** 
 886:..\u8g2\csrc/mui.c **** 
 887:..\u8g2\csrc/mui.c **** void mui_SendSelect(mui_t *ui)
 888:..\u8g2\csrc/mui.c **** {
 2096              		.loc 1 888 0
 2097              		.cfi_startproc
 2098              		@ args = 0, pretend = 0, frame = 0
 2099              		@ frame_needed = 0, uses_anonymous_args = 0
 2100              	.LVL212:
 2101 0000 08B5     		push	{r3, lr}
 2102              		.cfi_def_cfa_offset 8
 2103              		.cfi_offset 3, -8
 2104              		.cfi_offset 14, -4
 889:..\u8g2\csrc/mui.c ****   mui_send_cursor_msg(ui, MUIF_MSG_CURSOR_SELECT);  
 2105              		.loc 1 889 0
 2106 0002 0521     		movs	r1, #5
 2107 0004 FFF7FEFF 		bl	mui_send_cursor_msg
 2108              	.LVL213:
 2109 0008 08BD     		pop	{r3, pc}
 2110              		.cfi_endproc
 2111              	.LFE38:
 2112              		.size	mui_SendSelect, .-mui_SendSelect
 2113 000a 00BF     		.text
 2114              	.Letext0:
 2115              		.file 2 "c:\\program files (x86)\\cypress\\psoc creator\\4.4\\psoc creator\\import\\gnu\\arm\\5.4.
 2116              		.file 3 "c:\\program files (x86)\\cypress\\psoc creator\\4.4\\psoc creator\\import\\gnu\\arm\\5.4.
 2117              		.file 4 "c:\\program files (x86)\\cypress\\psoc creator\\4.4\\psoc creator\\import\\gnu\\arm\\5.4.
 2118              		.file 5 "..\\u8g2\\csrc\\mui.h"
 2119              		.section	.debug_info,"",%progbits
 2120              	.Ldebug_info0:
 2121 0000 A2110000 		.4byte	0x11a2
 2122 0004 0400     		.2byte	0x4
 2123 0006 00000000 		.4byte	.Ldebug_abbrev0
 2124 000a 04       		.byte	0x4
 2125 000b 01       		.uleb128 0x1
 2126 000c 4A040000 		.4byte	.LASF93
 2127 0010 0C       		.byte	0xc
 2128 0011 17000000 		.4byte	.LASF94
ARM GAS  C:\Users\brian\AppData\Local\Temp\ccibXfrV.s 			page 58


 2129 0015 2E030000 		.4byte	.LASF95
 2130 0019 00000000 		.4byte	.Ldebug_ranges0+0
 2131 001d 00000000 		.4byte	0
 2132 0021 00000000 		.4byte	.Ldebug_line0
 2133 0025 02       		.uleb128 0x2
 2134 0026 04       		.byte	0x4
 2135 0027 05       		.byte	0x5
 2136 0028 696E7400 		.ascii	"int\000"
 2137 002c 03       		.uleb128 0x3
 2138 002d 2A000000 		.4byte	.LASF4
 2139 0031 02       		.byte	0x2
 2140 0032 D8       		.byte	0xd8
 2141 0033 37000000 		.4byte	0x37
 2142 0037 04       		.uleb128 0x4
 2143 0038 04       		.byte	0x4
 2144 0039 07       		.byte	0x7
 2145 003a E2010000 		.4byte	.LASF0
 2146 003e 04       		.uleb128 0x4
 2147 003f 08       		.byte	0x8
 2148 0040 05       		.byte	0x5
 2149 0041 B1000000 		.4byte	.LASF1
 2150 0045 04       		.uleb128 0x4
 2151 0046 08       		.byte	0x8
 2152 0047 04       		.byte	0x4
 2153 0048 B4020000 		.4byte	.LASF2
 2154 004c 04       		.uleb128 0x4
 2155 004d 01       		.byte	0x1
 2156 004e 06       		.byte	0x6
 2157 004f BF000000 		.4byte	.LASF3
 2158 0053 03       		.uleb128 0x3
 2159 0054 41000000 		.4byte	.LASF5
 2160 0058 03       		.byte	0x3
 2161 0059 1D       		.byte	0x1d
 2162 005a 5E000000 		.4byte	0x5e
 2163 005e 04       		.uleb128 0x4
 2164 005f 01       		.byte	0x1
 2165 0060 08       		.byte	0x8
 2166 0061 04040000 		.4byte	.LASF6
 2167 0065 04       		.uleb128 0x4
 2168 0066 02       		.byte	0x2
 2169 0067 05       		.byte	0x5
 2170 0068 20040000 		.4byte	.LASF7
 2171 006c 03       		.uleb128 0x3
 2172 006d 11050000 		.4byte	.LASF8
 2173 0071 03       		.byte	0x3
 2174 0072 2B       		.byte	0x2b
 2175 0073 77000000 		.4byte	0x77
 2176 0077 04       		.uleb128 0x4
 2177 0078 02       		.byte	0x2
 2178 0079 07       		.byte	0x7
 2179 007a 40020000 		.4byte	.LASF9
 2180 007e 04       		.uleb128 0x4
 2181 007f 04       		.byte	0x4
 2182 0080 05       		.byte	0x5
 2183 0081 47010000 		.4byte	.LASF10
 2184 0085 04       		.uleb128 0x4
 2185 0086 04       		.byte	0x4
ARM GAS  C:\Users\brian\AppData\Local\Temp\ccibXfrV.s 			page 59


 2186 0087 07       		.byte	0x7
 2187 0088 1A020000 		.4byte	.LASF11
 2188 008c 04       		.uleb128 0x4
 2189 008d 08       		.byte	0x8
 2190 008e 07       		.byte	0x7
 2191 008f 64000000 		.4byte	.LASF12
 2192 0093 03       		.uleb128 0x3
 2193 0094 36060000 		.4byte	.LASF13
 2194 0098 04       		.byte	0x4
 2195 0099 18       		.byte	0x18
 2196 009a 53000000 		.4byte	0x53
 2197 009e 03       		.uleb128 0x3
 2198 009f 63010000 		.4byte	.LASF14
 2199 00a3 04       		.byte	0x4
 2200 00a4 24       		.byte	0x24
 2201 00a5 6C000000 		.4byte	0x6c
 2202 00a9 04       		.uleb128 0x4
 2203 00aa 04       		.byte	0x4
 2204 00ab 07       		.byte	0x7
 2205 00ac 82020000 		.4byte	.LASF15
 2206 00b0 05       		.uleb128 0x5
 2207 00b1 04       		.byte	0x4
 2208 00b2 04       		.uleb128 0x4
 2209 00b3 01       		.byte	0x1
 2210 00b4 08       		.byte	0x8
 2211 00b5 07050000 		.4byte	.LASF16
 2212 00b9 06       		.uleb128 0x6
 2213 00ba B2000000 		.4byte	0xb2
 2214 00be 03       		.uleb128 0x3
 2215 00bf 8F050000 		.4byte	.LASF17
 2216 00c3 05       		.byte	0x5
 2217 00c4 68       		.byte	0x68
 2218 00c5 C9000000 		.4byte	0xc9
 2219 00c9 07       		.uleb128 0x7
 2220 00ca E2050000 		.4byte	.LASF40
 2221 00ce 78       		.byte	0x78
 2222 00cf 05       		.byte	0x5
 2223 00d0 B1       		.byte	0xb1
 2224 00d1 3A020000 		.4byte	0x23a
 2225 00d5 08       		.uleb128 0x8
 2226 00d6 2E010000 		.4byte	.LASF18
 2227 00da 05       		.byte	0x5
 2228 00db B3       		.byte	0xb3
 2229 00dc B0000000 		.4byte	0xb0
 2230 00e0 00       		.byte	0
 2231 00e1 08       		.uleb128 0x8
 2232 00e2 92010000 		.4byte	.LASF19
 2233 00e6 05       		.byte	0x5
 2234 00e7 B4       		.byte	0xb4
 2235 00e8 D4020000 		.4byte	0x2d4
 2236 00ec 04       		.byte	0x4
 2237 00ed 08       		.uleb128 0x8
 2238 00ee 3C010000 		.4byte	.LASF20
 2239 00f2 05       		.byte	0x5
 2240 00f3 B6       		.byte	0xb6
 2241 00f4 DA020000 		.4byte	0x2da
 2242 00f8 08       		.byte	0x8
ARM GAS  C:\Users\brian\AppData\Local\Temp\ccibXfrV.s 			page 60


 2243 00f9 08       		.uleb128 0x8
 2244 00fa 0D000000 		.4byte	.LASF21
 2245 00fe 05       		.byte	0x5
 2246 00ff B7       		.byte	0xb7
 2247 0100 2C000000 		.4byte	0x2c
 2248 0104 0C       		.byte	0xc
 2249 0105 08       		.uleb128 0x8
 2250 0106 E5040000 		.4byte	.LASF22
 2251 010a 05       		.byte	0x5
 2252 010b B9       		.byte	0xb9
 2253 010c D4020000 		.4byte	0x2d4
 2254 0110 10       		.byte	0x10
 2255 0111 08       		.uleb128 0x8
 2256 0112 E1020000 		.4byte	.LASF23
 2257 0116 05       		.byte	0x5
 2258 0117 BA       		.byte	0xba
 2259 0118 D4020000 		.4byte	0x2d4
 2260 011c 14       		.byte	0x14
 2261 011d 08       		.uleb128 0x8
 2262 011e F2020000 		.4byte	.LASF24
 2263 0122 05       		.byte	0x5
 2264 0123 BB       		.byte	0xbb
 2265 0124 D4020000 		.4byte	0x2d4
 2266 0128 18       		.byte	0x18
 2267 0129 08       		.uleb128 0x8
 2268 012a 86030000 		.4byte	.LASF25
 2269 012e 05       		.byte	0x5
 2270 012f BD       		.byte	0xbd
 2271 0130 D4020000 		.4byte	0x2d4
 2272 0134 1C       		.byte	0x1c
 2273 0135 08       		.uleb128 0x8
 2274 0136 FB000000 		.4byte	.LASF26
 2275 013a 05       		.byte	0x5
 2276 013b BF       		.byte	0xbf
 2277 013c 9E000000 		.4byte	0x9e
 2278 0140 20       		.byte	0x20
 2279 0141 08       		.uleb128 0x8
 2280 0142 6C010000 		.4byte	.LASF27
 2281 0146 05       		.byte	0x5
 2282 0147 C0       		.byte	0xc0
 2283 0148 9E000000 		.4byte	0x9e
 2284 014c 22       		.byte	0x22
 2285 014d 08       		.uleb128 0x8
 2286 014e 1A010000 		.4byte	.LASF28
 2287 0152 05       		.byte	0x5
 2288 0153 C1       		.byte	0xc1
 2289 0154 93000000 		.4byte	0x93
 2290 0158 24       		.byte	0x24
 2291 0159 08       		.uleb128 0x8
 2292 015a CB000000 		.4byte	.LASF29
 2293 015e 05       		.byte	0x5
 2294 015f C5       		.byte	0xc5
 2295 0160 93000000 		.4byte	0x93
 2296 0164 25       		.byte	0x25
 2297 0165 08       		.uleb128 0x8
 2298 0166 18030000 		.4byte	.LASF30
 2299 016a 05       		.byte	0x5
ARM GAS  C:\Users\brian\AppData\Local\Temp\ccibXfrV.s 			page 61


 2300 016b C8       		.byte	0xc8
 2301 016c 93000000 		.4byte	0x93
 2302 0170 26       		.byte	0x26
 2303 0171 08       		.uleb128 0x8
 2304 0172 D8050000 		.4byte	.LASF31
 2305 0176 05       		.byte	0x5
 2306 0177 CC       		.byte	0xcc
 2307 0178 93000000 		.4byte	0x93
 2308 017c 27       		.byte	0x27
 2309 017d 09       		.uleb128 0x9
 2310 017e 636D6400 		.ascii	"cmd\000"
 2311 0182 05       		.byte	0x5
 2312 0183 CD       		.byte	0xcd
 2313 0184 93000000 		.4byte	0x93
 2314 0188 28       		.byte	0x28
 2315 0189 09       		.uleb128 0x9
 2316 018a 69643000 		.ascii	"id0\000"
 2317 018e 05       		.byte	0x5
 2318 018f CE       		.byte	0xce
 2319 0190 93000000 		.4byte	0x93
 2320 0194 29       		.byte	0x29
 2321 0195 09       		.uleb128 0x9
 2322 0196 69643100 		.ascii	"id1\000"
 2323 019a 05       		.byte	0x5
 2324 019b CF       		.byte	0xcf
 2325 019c 93000000 		.4byte	0x93
 2326 01a0 2A       		.byte	0x2a
 2327 01a1 09       		.uleb128 0x9
 2328 01a2 7800     		.ascii	"x\000"
 2329 01a4 05       		.byte	0x5
 2330 01a5 D0       		.byte	0xd0
 2331 01a6 93000000 		.4byte	0x93
 2332 01aa 2B       		.byte	0x2b
 2333 01ab 09       		.uleb128 0x9
 2334 01ac 7900     		.ascii	"y\000"
 2335 01ae 05       		.byte	0x5
 2336 01af D1       		.byte	0xd1
 2337 01b0 93000000 		.4byte	0x93
 2338 01b4 2C       		.byte	0x2c
 2339 01b5 08       		.uleb128 0x8
 2340 01b6 7B000000 		.4byte	.LASF32
 2341 01ba 05       		.byte	0x5
 2342 01bb D2       		.byte	0xd2
 2343 01bc 93000000 		.4byte	0x93
 2344 01c0 2D       		.byte	0x2d
 2345 01c1 09       		.uleb128 0x9
 2346 01c2 61726700 		.ascii	"arg\000"
 2347 01c6 05       		.byte	0x5
 2348 01c7 D3       		.byte	0xd3
 2349 01c8 93000000 		.4byte	0x93
 2350 01cc 2E       		.byte	0x2e
 2351 01cd 09       		.uleb128 0x9
 2352 01ce 6C656E00 		.ascii	"len\000"
 2353 01d2 05       		.byte	0x5
 2354 01d3 D4       		.byte	0xd4
 2355 01d4 25000000 		.4byte	0x25
 2356 01d8 30       		.byte	0x30
ARM GAS  C:\Users\brian\AppData\Local\Temp\ccibXfrV.s 			page 62


 2357 01d9 09       		.uleb128 0x9
 2358 01da 66647300 		.ascii	"fds\000"
 2359 01de 05       		.byte	0x5
 2360 01df D5       		.byte	0xd5
 2361 01e0 D4020000 		.4byte	0x2d4
 2362 01e4 34       		.byte	0x34
 2363 01e5 09       		.uleb128 0x9
 2364 01e6 75696600 		.ascii	"uif\000"
 2365 01ea 05       		.byte	0x5
 2366 01eb D6       		.byte	0xd6
 2367 01ec DA020000 		.4byte	0x2da
 2368 01f0 38       		.byte	0x38
 2369 01f1 08       		.uleb128 0x8
 2370 01f2 0C050000 		.4byte	.LASF33
 2371 01f6 05       		.byte	0x5
 2372 01f7 D7       		.byte	0xd7
 2373 01f8 E0020000 		.4byte	0x2e0
 2374 01fc 3C       		.byte	0x3c
 2375 01fd 08       		.uleb128 0x8
 2376 01fe 5C000000 		.4byte	.LASF34
 2377 0202 05       		.byte	0x5
 2378 0203 DA       		.byte	0xda
 2379 0204 D4020000 		.4byte	0x2d4
 2380 0208 68       		.byte	0x68
 2381 0209 08       		.uleb128 0x8
 2382 020a FB010000 		.4byte	.LASF35
 2383 020e 05       		.byte	0x5
 2384 020f DB       		.byte	0xdb
 2385 0210 D4020000 		.4byte	0x2d4
 2386 0214 6C       		.byte	0x6c
 2387 0215 08       		.uleb128 0x8
 2388 0216 D8040000 		.4byte	.LASF36
 2389 021a 05       		.byte	0x5
 2390 021b DE       		.byte	0xde
 2391 021c 93000000 		.4byte	0x93
 2392 0220 70       		.byte	0x70
 2393 0221 08       		.uleb128 0x8
 2394 0222 2A040000 		.4byte	.LASF37
 2395 0226 05       		.byte	0x5
 2396 0227 DF       		.byte	0xdf
 2397 0228 93000000 		.4byte	0x93
 2398 022c 71       		.byte	0x71
 2399 022d 08       		.uleb128 0x8
 2400 022e C6010000 		.4byte	.LASF38
 2401 0232 05       		.byte	0x5
 2402 0233 E0       		.byte	0xe0
 2403 0234 D4020000 		.4byte	0x2d4
 2404 0238 74       		.byte	0x74
 2405 0239 00       		.byte	0
 2406 023a 03       		.uleb128 0x3
 2407 023b 69060000 		.4byte	.LASF39
 2408 023f 05       		.byte	0x5
 2409 0240 69       		.byte	0x69
 2410 0241 99020000 		.4byte	0x299
 2411 0245 07       		.uleb128 0x7
 2412 0246 EF010000 		.4byte	.LASF41
 2413 024a 0C       		.byte	0xc
ARM GAS  C:\Users\brian\AppData\Local\Temp\ccibXfrV.s 			page 63


 2414 024b 05       		.byte	0x5
 2415 024c 71       		.byte	0x71
 2416 024d 99020000 		.4byte	0x299
 2417 0251 09       		.uleb128 0x9
 2418 0252 69643000 		.ascii	"id0\000"
 2419 0256 05       		.byte	0x5
 2420 0257 73       		.byte	0x73
 2421 0258 93000000 		.4byte	0x93
 2422 025c 00       		.byte	0
 2423 025d 09       		.uleb128 0x9
 2424 025e 69643100 		.ascii	"id1\000"
 2425 0262 05       		.byte	0x5
 2426 0263 74       		.byte	0x74
 2427 0264 93000000 		.4byte	0x93
 2428 0268 01       		.byte	0x1
 2429 0269 08       		.uleb128 0x8
 2430 026a 87060000 		.4byte	.LASF42
 2431 026e 05       		.byte	0x5
 2432 026f 75       		.byte	0x75
 2433 0270 93000000 		.4byte	0x93
 2434 0274 02       		.byte	0x2
 2435 0275 08       		.uleb128 0x8
 2436 0276 70060000 		.4byte	.LASF43
 2437 027a 05       		.byte	0x5
 2438 027b 76       		.byte	0x76
 2439 027c 93000000 		.4byte	0x93
 2440 0280 03       		.byte	0x3
 2441 0281 08       		.uleb128 0x8
 2442 0282 3B020000 		.4byte	.LASF44
 2443 0286 05       		.byte	0x5
 2444 0287 77       		.byte	0x77
 2445 0288 B0000000 		.4byte	0xb0
 2446 028c 04       		.byte	0x4
 2447 028d 09       		.uleb128 0x9
 2448 028e 636200   		.ascii	"cb\000"
 2449 0291 05       		.byte	0x5
 2450 0292 78       		.byte	0x78
 2451 0293 9E020000 		.4byte	0x29e
 2452 0297 08       		.byte	0x8
 2453 0298 00       		.byte	0
 2454 0299 06       		.uleb128 0x6
 2455 029a 45020000 		.4byte	0x245
 2456 029e 03       		.uleb128 0x3
 2457 029f 7F060000 		.4byte	.LASF45
 2458 02a3 05       		.byte	0x5
 2459 02a4 6A       		.byte	0x6a
 2460 02a5 A9020000 		.4byte	0x2a9
 2461 02a9 0A       		.uleb128 0xa
 2462 02aa 04       		.byte	0x4
 2463 02ab AF020000 		.4byte	0x2af
 2464 02af 0B       		.uleb128 0xb
 2465 02b0 93000000 		.4byte	0x93
 2466 02b4 C3020000 		.4byte	0x2c3
 2467 02b8 0C       		.uleb128 0xc
 2468 02b9 C3020000 		.4byte	0x2c3
 2469 02bd 0C       		.uleb128 0xc
 2470 02be 93000000 		.4byte	0x93
ARM GAS  C:\Users\brian\AppData\Local\Temp\ccibXfrV.s 			page 64


 2471 02c2 00       		.byte	0
 2472 02c3 0A       		.uleb128 0xa
 2473 02c4 04       		.byte	0x4
 2474 02c5 BE000000 		.4byte	0xbe
 2475 02c9 03       		.uleb128 0x3
 2476 02ca 7C020000 		.4byte	.LASF46
 2477 02ce 05       		.byte	0x5
 2478 02cf 6B       		.byte	0x6b
 2479 02d0 B9000000 		.4byte	0xb9
 2480 02d4 0A       		.uleb128 0xa
 2481 02d5 04       		.byte	0x4
 2482 02d6 C9020000 		.4byte	0x2c9
 2483 02da 0A       		.uleb128 0xa
 2484 02db 04       		.byte	0x4
 2485 02dc 3A020000 		.4byte	0x23a
 2486 02e0 0D       		.uleb128 0xd
 2487 02e1 B2000000 		.4byte	0xb2
 2488 02e5 F0020000 		.4byte	0x2f0
 2489 02e9 0E       		.uleb128 0xe
 2490 02ea A9000000 		.4byte	0xa9
 2491 02ee 29       		.byte	0x29
 2492 02ef 00       		.byte	0
 2493 02f0 0F       		.uleb128 0xf
 2494 02f1 90000000 		.4byte	.LASF47
 2495 02f5 01       		.byte	0x1
 2496 02f6 E701     		.2byte	0x1e7
 2497 02f8 93000000 		.4byte	0x93
 2498 02fc 00000000 		.4byte	.LFB14
 2499 0300 0E000000 		.4byte	.LFE14-.LFB14
 2500 0304 01       		.uleb128 0x1
 2501 0305 9C       		.byte	0x9c
 2502 0306 2C030000 		.4byte	0x32c
 2503 030a 10       		.uleb128 0x10
 2504 030b 756900   		.ascii	"ui\000"
 2505 030e 01       		.byte	0x1
 2506 030f E701     		.2byte	0x1e7
 2507 0311 C3020000 		.4byte	0x2c3
 2508 0315 00000000 		.4byte	.LLST0
 2509 0319 11       		.uleb128 0x11
 2510 031a 0A000000 		.4byte	.LVL1
 2511 031e 12       		.uleb128 0x12
 2512 031f 01       		.uleb128 0x1
 2513 0320 50       		.byte	0x50
 2514 0321 03       		.uleb128 0x3
 2515 0322 F3       		.byte	0xf3
 2516 0323 01       		.uleb128 0x1
 2517 0324 50       		.byte	0x50
 2518 0325 12       		.uleb128 0x12
 2519 0326 01       		.uleb128 0x1
 2520 0327 51       		.byte	0x51
 2521 0328 01       		.uleb128 0x1
 2522 0329 31       		.byte	0x31
 2523 032a 00       		.byte	0
 2524 032b 00       		.byte	0
 2525 032c 0F       		.uleb128 0xf
 2526 032d 8B020000 		.4byte	.LASF48
 2527 0331 01       		.byte	0x1
ARM GAS  C:\Users\brian\AppData\Local\Temp\ccibXfrV.s 			page 65


 2528 0332 EE01     		.2byte	0x1ee
 2529 0334 93000000 		.4byte	0x93
 2530 0338 00000000 		.4byte	.LFB15
 2531 033c 0E000000 		.4byte	.LFE15-.LFB15
 2532 0340 01       		.uleb128 0x1
 2533 0341 9C       		.byte	0x9c
 2534 0342 68030000 		.4byte	0x368
 2535 0346 10       		.uleb128 0x10
 2536 0347 756900   		.ascii	"ui\000"
 2537 034a 01       		.byte	0x1
 2538 034b EE01     		.2byte	0x1ee
 2539 034d C3020000 		.4byte	0x2c3
 2540 0351 21000000 		.4byte	.LLST1
 2541 0355 11       		.uleb128 0x11
 2542 0356 0A000000 		.4byte	.LVL3
 2543 035a 12       		.uleb128 0x12
 2544 035b 01       		.uleb128 0x1
 2545 035c 50       		.byte	0x50
 2546 035d 03       		.uleb128 0x3
 2547 035e F3       		.byte	0xf3
 2548 035f 01       		.uleb128 0x1
 2549 0360 50       		.byte	0x50
 2550 0361 12       		.uleb128 0x12
 2551 0362 01       		.uleb128 0x1
 2552 0363 51       		.byte	0x51
 2553 0364 01       		.uleb128 0x1
 2554 0365 32       		.byte	0x32
 2555 0366 00       		.byte	0
 2556 0367 00       		.byte	0
 2557 0368 0F       		.uleb128 0xf
 2558 0369 57060000 		.4byte	.LASF49
 2559 036d 01       		.byte	0x1
 2560 036e F401     		.2byte	0x1f4
 2561 0370 93000000 		.4byte	0x93
 2562 0374 00000000 		.4byte	.LFB16
 2563 0378 0E000000 		.4byte	.LFE16-.LFB16
 2564 037c 01       		.uleb128 0x1
 2565 037d 9C       		.byte	0x9c
 2566 037e A4030000 		.4byte	0x3a4
 2567 0382 10       		.uleb128 0x10
 2568 0383 756900   		.ascii	"ui\000"
 2569 0386 01       		.byte	0x1
 2570 0387 F401     		.2byte	0x1f4
 2571 0389 C3020000 		.4byte	0x2c3
 2572 038d 42000000 		.4byte	.LLST2
 2573 0391 11       		.uleb128 0x11
 2574 0392 0A000000 		.4byte	.LVL5
 2575 0396 12       		.uleb128 0x12
 2576 0397 01       		.uleb128 0x1
 2577 0398 50       		.byte	0x50
 2578 0399 03       		.uleb128 0x3
 2579 039a F3       		.byte	0xf3
 2580 039b 01       		.uleb128 0x1
 2581 039c 50       		.byte	0x50
 2582 039d 12       		.uleb128 0x12
 2583 039e 01       		.uleb128 0x1
 2584 039f 51       		.byte	0x51
ARM GAS  C:\Users\brian\AppData\Local\Temp\ccibXfrV.s 			page 66


 2585 03a0 01       		.uleb128 0x1
 2586 03a1 33       		.byte	0x33
 2587 03a2 00       		.byte	0
 2588 03a3 00       		.byte	0
 2589 03a4 13       		.uleb128 0x13
 2590 03a5 B4050000 		.4byte	.LASF56
 2591 03a9 01       		.byte	0x1
 2592 03aa FB01     		.2byte	0x1fb
 2593 03ac 93000000 		.4byte	0x93
 2594 03b0 00000000 		.4byte	.LFB17
 2595 03b4 0E000000 		.4byte	.LFE17-.LFB17
 2596 03b8 01       		.uleb128 0x1
 2597 03b9 9C       		.byte	0x9c
 2598 03ba CE030000 		.4byte	0x3ce
 2599 03be 10       		.uleb128 0x10
 2600 03bf 756900   		.ascii	"ui\000"
 2601 03c2 01       		.byte	0x1
 2602 03c3 FB01     		.2byte	0x1fb
 2603 03c5 C3020000 		.4byte	0x2c3
 2604 03c9 63000000 		.4byte	.LLST3
 2605 03cd 00       		.byte	0
 2606 03ce 0F       		.uleb128 0xf
 2607 03cf E6030000 		.4byte	.LASF50
 2608 03d3 01       		.byte	0x1
 2609 03d4 0402     		.2byte	0x204
 2610 03d6 93000000 		.4byte	0x93
 2611 03da 00000000 		.4byte	.LFB18
 2612 03de 24000000 		.4byte	.LFE18-.LFB18
 2613 03e2 01       		.uleb128 0x1
 2614 03e3 9C       		.byte	0x9c
 2615 03e4 08040000 		.4byte	0x408
 2616 03e8 10       		.uleb128 0x10
 2617 03e9 756900   		.ascii	"ui\000"
 2618 03ec 01       		.byte	0x1
 2619 03ed 0402     		.2byte	0x204
 2620 03ef C3020000 		.4byte	0x2c3
 2621 03f3 84000000 		.4byte	.LLST4
 2622 03f7 14       		.uleb128 0x14
 2623 03f8 08000000 		.4byte	.LVL9
 2624 03fc A4030000 		.4byte	0x3a4
 2625 0400 12       		.uleb128 0x12
 2626 0401 01       		.uleb128 0x1
 2627 0402 50       		.byte	0x50
 2628 0403 02       		.uleb128 0x2
 2629 0404 74       		.byte	0x74
 2630 0405 00       		.sleb128 0
 2631 0406 00       		.byte	0
 2632 0407 00       		.byte	0
 2633 0408 0F       		.uleb128 0xf
 2634 0409 95050000 		.4byte	.LASF51
 2635 040d 01       		.byte	0x1
 2636 040e 1302     		.2byte	0x213
 2637 0410 93000000 		.4byte	0x93
 2638 0414 00000000 		.4byte	.LFB19
 2639 0418 16000000 		.4byte	.LFE19-.LFB19
 2640 041c 01       		.uleb128 0x1
 2641 041d 9C       		.byte	0x9c
ARM GAS  C:\Users\brian\AppData\Local\Temp\ccibXfrV.s 			page 67


 2642 041e 42040000 		.4byte	0x442
 2643 0422 10       		.uleb128 0x10
 2644 0423 756900   		.ascii	"ui\000"
 2645 0426 01       		.byte	0x1
 2646 0427 1302     		.2byte	0x213
 2647 0429 C3020000 		.4byte	0x2c3
 2648 042d A2000000 		.4byte	.LLST5
 2649 0431 14       		.uleb128 0x14
 2650 0432 08000000 		.4byte	.LVL11
 2651 0436 A4030000 		.4byte	0x3a4
 2652 043a 12       		.uleb128 0x12
 2653 043b 01       		.uleb128 0x1
 2654 043c 50       		.byte	0x50
 2655 043d 02       		.uleb128 0x2
 2656 043e 74       		.byte	0x74
 2657 043f 00       		.sleb128 0
 2658 0440 00       		.byte	0
 2659 0441 00       		.byte	0
 2660 0442 0F       		.uleb128 0xf
 2661 0443 71050000 		.4byte	.LASF52
 2662 0447 01       		.byte	0x1
 2663 0448 2102     		.2byte	0x221
 2664 044a 93000000 		.4byte	0x93
 2665 044e 00000000 		.4byte	.LFB20
 2666 0452 12000000 		.4byte	.LFE20-.LFB20
 2667 0456 01       		.uleb128 0x1
 2668 0457 9C       		.byte	0x9c
 2669 0458 7C040000 		.4byte	0x47c
 2670 045c 10       		.uleb128 0x10
 2671 045d 756900   		.ascii	"ui\000"
 2672 0460 01       		.byte	0x1
 2673 0461 2102     		.2byte	0x221
 2674 0463 C3020000 		.4byte	0x2c3
 2675 0467 C0000000 		.4byte	.LLST6
 2676 046b 14       		.uleb128 0x14
 2677 046c 08000000 		.4byte	.LVL13
 2678 0470 A4030000 		.4byte	0x3a4
 2679 0474 12       		.uleb128 0x12
 2680 0475 01       		.uleb128 0x1
 2681 0476 50       		.byte	0x50
 2682 0477 02       		.uleb128 0x2
 2683 0478 74       		.byte	0x74
 2684 0479 00       		.sleb128 0
 2685 047a 00       		.byte	0
 2686 047b 00       		.byte	0
 2687 047c 0F       		.uleb128 0xf
 2688 047d 0D060000 		.4byte	.LASF53
 2689 0481 01       		.byte	0x1
 2690 0482 2C02     		.2byte	0x22c
 2691 0484 93000000 		.4byte	0x93
 2692 0488 00000000 		.4byte	.LFB21
 2693 048c 30000000 		.4byte	.LFE21-.LFB21
 2694 0490 01       		.uleb128 0x1
 2695 0491 9C       		.byte	0x9c
 2696 0492 B6040000 		.4byte	0x4b6
 2697 0496 10       		.uleb128 0x10
 2698 0497 756900   		.ascii	"ui\000"
ARM GAS  C:\Users\brian\AppData\Local\Temp\ccibXfrV.s 			page 68


 2699 049a 01       		.byte	0x1
 2700 049b 2C02     		.2byte	0x22c
 2701 049d C3020000 		.4byte	0x2c3
 2702 04a1 DE000000 		.4byte	.LLST7
 2703 04a5 14       		.uleb128 0x14
 2704 04a6 08000000 		.4byte	.LVL15
 2705 04aa A4030000 		.4byte	0x3a4
 2706 04ae 12       		.uleb128 0x12
 2707 04af 01       		.uleb128 0x1
 2708 04b0 50       		.byte	0x50
 2709 04b1 02       		.uleb128 0x2
 2710 04b2 74       		.byte	0x74
 2711 04b3 00       		.sleb128 0
 2712 04b4 00       		.byte	0
 2713 04b5 00       		.byte	0
 2714 04b6 0F       		.uleb128 0xf
 2715 04b7 D0000000 		.4byte	.LASF54
 2716 04bb 01       		.byte	0x1
 2717 04bc 3F02     		.2byte	0x23f
 2718 04be 93000000 		.4byte	0x93
 2719 04c2 00000000 		.4byte	.LFB22
 2720 04c6 28000000 		.4byte	.LFE22-.LFB22
 2721 04ca 01       		.uleb128 0x1
 2722 04cb 9C       		.byte	0x9c
 2723 04cc F0040000 		.4byte	0x4f0
 2724 04d0 10       		.uleb128 0x10
 2725 04d1 756900   		.ascii	"ui\000"
 2726 04d4 01       		.byte	0x1
 2727 04d5 3F02     		.2byte	0x23f
 2728 04d7 C3020000 		.4byte	0x2c3
 2729 04db FC000000 		.4byte	.LLST8
 2730 04df 14       		.uleb128 0x14
 2731 04e0 08000000 		.4byte	.LVL17
 2732 04e4 A4030000 		.4byte	0x3a4
 2733 04e8 12       		.uleb128 0x12
 2734 04e9 01       		.uleb128 0x1
 2735 04ea 50       		.byte	0x50
 2736 04eb 02       		.uleb128 0x2
 2737 04ec 74       		.byte	0x74
 2738 04ed 00       		.sleb128 0
 2739 04ee 00       		.byte	0
 2740 04ef 00       		.byte	0
 2741 04f0 15       		.uleb128 0x15
 2742 04f1 4B000000 		.4byte	.LASF55
 2743 04f5 01       		.byte	0x1
 2744 04f6 57       		.byte	0x57
 2745 04f7 93000000 		.4byte	0x93
 2746 04fb 00000000 		.4byte	.LFB0
 2747 04ff 04000000 		.4byte	.LFE0-.LFB0
 2748 0503 01       		.uleb128 0x1
 2749 0504 9C       		.byte	0x9c
 2750 0505 17050000 		.4byte	0x517
 2751 0509 16       		.uleb128 0x16
 2752 050a 7300     		.ascii	"s\000"
 2753 050c 01       		.byte	0x1
 2754 050d 57       		.byte	0x57
 2755 050e D4020000 		.4byte	0x2d4
ARM GAS  C:\Users\brian\AppData\Local\Temp\ccibXfrV.s 			page 69


 2756 0512 1A010000 		.4byte	.LLST9
 2757 0516 00       		.byte	0
 2758 0517 17       		.uleb128 0x17
 2759 0518 64030000 		.4byte	.LASF57
 2760 051c 01       		.byte	0x1
 2761 051d 62       		.byte	0x62
 2762 051e 2C000000 		.4byte	0x2c
 2763 0522 00000000 		.4byte	.LFB1
 2764 0526 8C000000 		.4byte	.LFE1-.LFB1
 2765 052a 01       		.uleb128 0x1
 2766 052b 9C       		.byte	0x9c
 2767 052c 5C050000 		.4byte	0x55c
 2768 0530 16       		.uleb128 0x16
 2769 0531 7300     		.ascii	"s\000"
 2770 0533 01       		.byte	0x1
 2771 0534 62       		.byte	0x62
 2772 0535 D4020000 		.4byte	0x2d4
 2773 0539 3B010000 		.4byte	.LLST10
 2774 053d 18       		.uleb128 0x18
 2775 053e 6300     		.ascii	"c\000"
 2776 0540 01       		.byte	0x1
 2777 0541 64       		.byte	0x64
 2778 0542 93000000 		.4byte	0x93
 2779 0546 5C010000 		.4byte	.LLST11
 2780 054a 14       		.uleb128 0x14
 2781 054b 06000000 		.4byte	.LVL21
 2782 054f F0040000 		.4byte	0x4f0
 2783 0553 12       		.uleb128 0x12
 2784 0554 01       		.uleb128 0x1
 2785 0555 50       		.byte	0x50
 2786 0556 03       		.uleb128 0x3
 2787 0557 F3       		.byte	0xf3
 2788 0558 01       		.uleb128 0x1
 2789 0559 50       		.byte	0x50
 2790 055a 00       		.byte	0
 2791 055b 00       		.byte	0
 2792 055c 17       		.uleb128 0x17
 2793 055d 5E050000 		.4byte	.LASF58
 2794 0561 01       		.byte	0x1
 2795 0562 7F       		.byte	0x7f
 2796 0563 2C000000 		.4byte	0x2c
 2797 0567 00000000 		.4byte	.LFB2
 2798 056b 50000000 		.4byte	.LFE2-.LFB2
 2799 056f 01       		.uleb128 0x1
 2800 0570 9C       		.byte	0x9c
 2801 0571 DC050000 		.4byte	0x5dc
 2802 0575 16       		.uleb128 0x16
 2803 0576 756900   		.ascii	"ui\000"
 2804 0579 01       		.byte	0x1
 2805 057a 7F       		.byte	0x7f
 2806 057b C3020000 		.4byte	0x2c3
 2807 057f C7010000 		.4byte	.LLST12
 2808 0583 16       		.uleb128 0x16
 2809 0584 7300     		.ascii	"s\000"
 2810 0586 01       		.byte	0x1
 2811 0587 7F       		.byte	0x7f
 2812 0588 D4020000 		.4byte	0x2d4
ARM GAS  C:\Users\brian\AppData\Local\Temp\ccibXfrV.s 			page 70


 2813 058c E5010000 		.4byte	.LLST13
 2814 0590 18       		.uleb128 0x18
 2815 0591 6900     		.ascii	"i\000"
 2816 0593 01       		.byte	0x1
 2817 0594 81       		.byte	0x81
 2818 0595 93000000 		.4byte	0x93
 2819 0599 03020000 		.4byte	.LLST14
 2820 059d 18       		.uleb128 0x18
 2821 059e 6300     		.ascii	"c\000"
 2822 05a0 01       		.byte	0x1
 2823 05a1 83       		.byte	0x83
 2824 05a2 93000000 		.4byte	0x93
 2825 05a6 44020000 		.4byte	.LLST15
 2826 05aa 18       		.uleb128 0x18
 2827 05ab 7400     		.ascii	"t\000"
 2828 05ad 01       		.byte	0x1
 2829 05ae 84       		.byte	0x84
 2830 05af D4020000 		.4byte	0x2d4
 2831 05b3 57020000 		.4byte	.LLST16
 2832 05b7 19       		.uleb128 0x19
 2833 05b8 0E000000 		.4byte	.LVL43
 2834 05bc F0040000 		.4byte	0x4f0
 2835 05c0 CB050000 		.4byte	0x5cb
 2836 05c4 12       		.uleb128 0x12
 2837 05c5 01       		.uleb128 0x1
 2838 05c6 50       		.byte	0x50
 2839 05c7 02       		.uleb128 0x2
 2840 05c8 77       		.byte	0x77
 2841 05c9 00       		.sleb128 0
 2842 05ca 00       		.byte	0
 2843 05cb 14       		.uleb128 0x14
 2844 05cc 20000000 		.4byte	.LVL47
 2845 05d0 F0040000 		.4byte	0x4f0
 2846 05d4 12       		.uleb128 0x12
 2847 05d5 01       		.uleb128 0x1
 2848 05d6 50       		.byte	0x50
 2849 05d7 02       		.uleb128 0x2
 2850 05d8 75       		.byte	0x75
 2851 05d9 00       		.sleb128 0
 2852 05da 00       		.byte	0
 2853 05db 00       		.byte	0
 2854 05dc 13       		.uleb128 0x13
 2855 05dd 9F020000 		.4byte	.LASF59
 2856 05e1 01       		.byte	0x1
 2857 05e2 1101     		.2byte	0x111
 2858 05e4 2C000000 		.4byte	0x2c
 2859 05e8 00000000 		.4byte	.LFB7
 2860 05ec 38000000 		.4byte	.LFE7-.LFB7
 2861 05f0 01       		.uleb128 0x1
 2862 05f1 9C       		.byte	0x9c
 2863 05f2 71060000 		.4byte	0x671
 2864 05f6 10       		.uleb128 0x10
 2865 05f7 756900   		.ascii	"ui\000"
 2866 05fa 01       		.byte	0x1
 2867 05fb 1101     		.2byte	0x111
 2868 05fd C3020000 		.4byte	0x2c3
 2869 0601 80020000 		.4byte	.LLST17
ARM GAS  C:\Users\brian\AppData\Local\Temp\ccibXfrV.s 			page 71


 2870 0605 10       		.uleb128 0x10
 2871 0606 7300     		.ascii	"s\000"
 2872 0608 01       		.byte	0x1
 2873 0609 1101     		.2byte	0x111
 2874 060b D4020000 		.4byte	0x2d4
 2875 060f 9E020000 		.4byte	.LLST18
 2876 0613 1A       		.uleb128 0x1a
 2877 0614 6C00     		.ascii	"l\000"
 2878 0616 01       		.byte	0x1
 2879 0617 1301     		.2byte	0x113
 2880 0619 2C000000 		.4byte	0x2c
 2881 061d BC020000 		.4byte	.LLST19
 2882 0621 1A       		.uleb128 0x1a
 2883 0622 6300     		.ascii	"c\000"
 2884 0624 01       		.byte	0x1
 2885 0625 1401     		.2byte	0x114
 2886 0627 93000000 		.4byte	0x93
 2887 062b DA020000 		.4byte	.LLST20
 2888 062f 19       		.uleb128 0x19
 2889 0630 0C000000 		.4byte	.LVL57
 2890 0634 17050000 		.4byte	0x517
 2891 0638 43060000 		.4byte	0x643
 2892 063c 12       		.uleb128 0x12
 2893 063d 01       		.uleb128 0x1
 2894 063e 50       		.byte	0x50
 2895 063f 02       		.uleb128 0x2
 2896 0640 74       		.byte	0x74
 2897 0641 00       		.sleb128 0
 2898 0642 00       		.byte	0
 2899 0643 19       		.uleb128 0x19
 2900 0644 14000000 		.4byte	.LVL60
 2901 0648 F0040000 		.4byte	0x4f0
 2902 064c 57060000 		.4byte	0x657
 2903 0650 12       		.uleb128 0x12
 2904 0651 01       		.uleb128 0x1
 2905 0652 50       		.byte	0x50
 2906 0653 02       		.uleb128 0x2
 2907 0654 74       		.byte	0x74
 2908 0655 00       		.sleb128 0
 2909 0656 00       		.byte	0
 2910 0657 14       		.uleb128 0x14
 2911 0658 32000000 		.4byte	.LVL62
 2912 065c 5C050000 		.4byte	0x55c
 2913 0660 12       		.uleb128 0x12
 2914 0661 01       		.uleb128 0x1
 2915 0662 50       		.byte	0x50
 2916 0663 02       		.uleb128 0x2
 2917 0664 76       		.byte	0x76
 2918 0665 00       		.sleb128 0
 2919 0666 12       		.uleb128 0x12
 2920 0667 01       		.uleb128 0x1
 2921 0668 51       		.byte	0x51
 2922 0669 05       		.uleb128 0x5
 2923 066a 74       		.byte	0x74
 2924 066b 00       		.sleb128 0
 2925 066c 75       		.byte	0x75
 2926 066d 00       		.sleb128 0
ARM GAS  C:\Users\brian\AppData\Local\Temp\ccibXfrV.s 			page 72


 2927 066e 22       		.byte	0x22
 2928 066f 00       		.byte	0
 2929 0670 00       		.byte	0
 2930 0671 15       		.uleb128 0x15
 2931 0672 50010000 		.4byte	.LASF60
 2932 0676 01       		.byte	0x1
 2933 0677 BF       		.byte	0xbf
 2934 0678 93000000 		.4byte	0x93
 2935 067c 00000000 		.4byte	.LFB4
 2936 0680 48000000 		.4byte	.LFE4-.LFB4
 2937 0684 01       		.uleb128 0x1
 2938 0685 9C       		.byte	0x9c
 2939 0686 C3060000 		.4byte	0x6c3
 2940 068a 16       		.uleb128 0x16
 2941 068b 756900   		.ascii	"ui\000"
 2942 068e 01       		.byte	0x1
 2943 068f BF       		.byte	0xbf
 2944 0690 C3020000 		.4byte	0x2c3
 2945 0694 ED020000 		.4byte	.LLST21
 2946 0698 18       		.uleb128 0x18
 2947 0699 6300     		.ascii	"c\000"
 2948 069b 01       		.byte	0x1
 2949 069c C1       		.byte	0xc1
 2950 069d 93000000 		.4byte	0x93
 2951 06a1 19030000 		.4byte	.LLST22
 2952 06a5 18       		.uleb128 0x18
 2953 06a6 6900     		.ascii	"i\000"
 2954 06a8 01       		.byte	0x1
 2955 06a9 C2       		.byte	0xc2
 2956 06aa 93000000 		.4byte	0x93
 2957 06ae 37030000 		.4byte	.LLST23
 2958 06b2 14       		.uleb128 0x14
 2959 06b3 0E000000 		.4byte	.LVL67
 2960 06b7 F0040000 		.4byte	0x4f0
 2961 06bb 12       		.uleb128 0x12
 2962 06bc 01       		.uleb128 0x1
 2963 06bd 50       		.byte	0x50
 2964 06be 02       		.uleb128 0x2
 2965 06bf 74       		.byte	0x74
 2966 06c0 00       		.sleb128 0
 2967 06c1 00       		.byte	0
 2968 06c2 00       		.byte	0
 2969 06c3 15       		.uleb128 0x15
 2970 06c4 D2030000 		.4byte	.LASF61
 2971 06c8 01       		.byte	0x1
 2972 06c9 B5       		.byte	0xb5
 2973 06ca 93000000 		.4byte	0x93
 2974 06ce 00000000 		.4byte	.LFB3
 2975 06d2 28000000 		.4byte	.LFE3-.LFB3
 2976 06d6 01       		.uleb128 0x1
 2977 06d7 9C       		.byte	0x9c
 2978 06d8 23070000 		.4byte	0x723
 2979 06dc 16       		.uleb128 0x16
 2980 06dd 756900   		.ascii	"ui\000"
 2981 06e0 01       		.byte	0x1
 2982 06e1 B5       		.byte	0xb5
 2983 06e2 C3020000 		.4byte	0x2c3
ARM GAS  C:\Users\brian\AppData\Local\Temp\ccibXfrV.s 			page 73


 2984 06e6 6C030000 		.4byte	.LLST24
 2985 06ea 19       		.uleb128 0x19
 2986 06eb 0E000000 		.4byte	.LVL76
 2987 06ef 17050000 		.4byte	0x517
 2988 06f3 FE060000 		.4byte	0x6fe
 2989 06f7 12       		.uleb128 0x12
 2990 06f8 01       		.uleb128 0x1
 2991 06f9 50       		.byte	0x50
 2992 06fa 02       		.uleb128 0x2
 2993 06fb 74       		.byte	0x74
 2994 06fc 00       		.sleb128 0
 2995 06fd 00       		.byte	0
 2996 06fe 19       		.uleb128 0x19
 2997 06ff 18000000 		.4byte	.LVL77
 2998 0703 F0040000 		.4byte	0x4f0
 2999 0707 12070000 		.4byte	0x712
 3000 070b 12       		.uleb128 0x12
 3001 070c 01       		.uleb128 0x1
 3002 070d 50       		.byte	0x50
 3003 070e 02       		.uleb128 0x2
 3004 070f 74       		.byte	0x74
 3005 0710 00       		.sleb128 0
 3006 0711 00       		.byte	0
 3007 0712 14       		.uleb128 0x14
 3008 0713 26000000 		.4byte	.LVL78
 3009 0717 71060000 		.4byte	0x671
 3010 071b 12       		.uleb128 0x12
 3011 071c 01       		.uleb128 0x1
 3012 071d 50       		.byte	0x50
 3013 071e 02       		.uleb128 0x2
 3014 071f 75       		.byte	0x75
 3015 0720 00       		.sleb128 0
 3016 0721 00       		.byte	0
 3017 0722 00       		.byte	0
 3018 0723 15       		.uleb128 0x15
 3019 0724 02030000 		.4byte	.LASF62
 3020 0728 01       		.byte	0x1
 3021 0729 E5       		.byte	0xe5
 3022 072a 93000000 		.4byte	0x93
 3023 072e 00000000 		.4byte	.LFB5
 3024 0732 28000000 		.4byte	.LFE5-.LFB5
 3025 0736 01       		.uleb128 0x1
 3026 0737 9C       		.byte	0x9c
 3027 0738 7C070000 		.4byte	0x77c
 3028 073c 16       		.uleb128 0x16
 3029 073d 756900   		.ascii	"ui\000"
 3030 0740 01       		.byte	0x1
 3031 0741 E5       		.byte	0xe5
 3032 0742 C3020000 		.4byte	0x2c3
 3033 0746 8A030000 		.4byte	.LLST25
 3034 074a 16       		.uleb128 0x16
 3035 074b 6E00     		.ascii	"n\000"
 3036 074d 01       		.byte	0x1
 3037 074e E5       		.byte	0xe5
 3038 074f 93000000 		.4byte	0x93
 3039 0753 A8030000 		.4byte	.LLST26
 3040 0757 19       		.uleb128 0x19
ARM GAS  C:\Users\brian\AppData\Local\Temp\ccibXfrV.s 			page 74


 3041 0758 0A000000 		.4byte	.LVL80
 3042 075c C3060000 		.4byte	0x6c3
 3043 0760 6B070000 		.4byte	0x76b
 3044 0764 12       		.uleb128 0x12
 3045 0765 01       		.uleb128 0x1
 3046 0766 50       		.byte	0x50
 3047 0767 02       		.uleb128 0x2
 3048 0768 75       		.byte	0x75
 3049 0769 00       		.sleb128 0
 3050 076a 00       		.byte	0
 3051 076b 14       		.uleb128 0x14
 3052 076c 1A000000 		.4byte	.LVL84
 3053 0770 71060000 		.4byte	0x671
 3054 0774 12       		.uleb128 0x12
 3055 0775 01       		.uleb128 0x1
 3056 0776 50       		.byte	0x50
 3057 0777 02       		.uleb128 0x2
 3058 0778 75       		.byte	0x75
 3059 0779 00       		.sleb128 0
 3060 077a 00       		.byte	0
 3061 077b 00       		.byte	0
 3062 077c 15       		.uleb128 0x15
 3063 077d 7C010000 		.4byte	.LASF63
 3064 0781 01       		.byte	0x1
 3065 0782 F8       		.byte	0xf8
 3066 0783 93000000 		.4byte	0x93
 3067 0787 00000000 		.4byte	.LFB6
 3068 078b 22000000 		.4byte	.LFE6-.LFB6
 3069 078f 01       		.uleb128 0x1
 3070 0790 9C       		.byte	0x9c
 3071 0791 D5070000 		.4byte	0x7d5
 3072 0795 16       		.uleb128 0x16
 3073 0796 756900   		.ascii	"ui\000"
 3074 0799 01       		.byte	0x1
 3075 079a F8       		.byte	0xf8
 3076 079b C3020000 		.4byte	0x2c3
 3077 079f DF030000 		.4byte	.LLST27
 3078 07a3 18       		.uleb128 0x18
 3079 07a4 6E00     		.ascii	"n\000"
 3080 07a6 01       		.byte	0x1
 3081 07a7 FA       		.byte	0xfa
 3082 07a8 93000000 		.4byte	0x93
 3083 07ac FD030000 		.4byte	.LLST28
 3084 07b0 19       		.uleb128 0x19
 3085 07b1 08000000 		.4byte	.LVL88
 3086 07b5 C3060000 		.4byte	0x6c3
 3087 07b9 C4070000 		.4byte	0x7c4
 3088 07bd 12       		.uleb128 0x12
 3089 07be 01       		.uleb128 0x1
 3090 07bf 50       		.byte	0x50
 3091 07c0 02       		.uleb128 0x2
 3092 07c1 75       		.byte	0x75
 3093 07c2 00       		.sleb128 0
 3094 07c3 00       		.byte	0
 3095 07c4 14       		.uleb128 0x14
 3096 07c5 16000000 		.4byte	.LVL92
 3097 07c9 71060000 		.4byte	0x671
ARM GAS  C:\Users\brian\AppData\Local\Temp\ccibXfrV.s 			page 75


 3098 07cd 12       		.uleb128 0x12
 3099 07ce 01       		.uleb128 0x1
 3100 07cf 50       		.byte	0x50
 3101 07d0 02       		.uleb128 0x2
 3102 07d1 75       		.byte	0x75
 3103 07d2 00       		.sleb128 0
 3104 07d3 00       		.byte	0
 3105 07d4 00       		.byte	0
 3106 07d5 1B       		.uleb128 0x1b
 3107 07d6 76060000 		.4byte	.LASF75
 3108 07da 01       		.byte	0x1
 3109 07db 2201     		.2byte	0x122
 3110 07dd 00000000 		.4byte	.LFB8
 3111 07e1 1E000000 		.4byte	.LFE8-.LFB8
 3112 07e5 01       		.uleb128 0x1
 3113 07e6 9C       		.byte	0x9c
 3114 07e7 55080000 		.4byte	0x855
 3115 07eb 10       		.uleb128 0x10
 3116 07ec 756900   		.ascii	"ui\000"
 3117 07ef 01       		.byte	0x1
 3118 07f0 2201     		.2byte	0x122
 3119 07f2 C3020000 		.4byte	0x2c3
 3120 07f6 3E040000 		.4byte	.LLST29
 3121 07fa 1C       		.uleb128 0x1c
 3122 07fb 2E010000 		.4byte	.LASF18
 3123 07ff 01       		.byte	0x1
 3124 0800 2201     		.2byte	0x122
 3125 0802 B0000000 		.4byte	0xb0
 3126 0806 5C040000 		.4byte	.LLST30
 3127 080a 10       		.uleb128 0x10
 3128 080b 66647300 		.ascii	"fds\000"
 3129 080f 01       		.byte	0x1
 3130 0810 2201     		.2byte	0x122
 3131 0812 D4020000 		.4byte	0x2d4
 3132 0816 7A040000 		.4byte	.LLST31
 3133 081a 1C       		.uleb128 0x1c
 3134 081b 3C010000 		.4byte	.LASF20
 3135 081f 01       		.byte	0x1
 3136 0820 2201     		.2byte	0x122
 3137 0822 DA020000 		.4byte	0x2da
 3138 0826 98040000 		.4byte	.LLST32
 3139 082a 1D       		.uleb128 0x1d
 3140 082b 0D000000 		.4byte	.LASF21
 3141 082f 01       		.byte	0x1
 3142 0830 2201     		.2byte	0x122
 3143 0832 2C000000 		.4byte	0x2c
 3144 0836 02       		.uleb128 0x2
 3145 0837 91       		.byte	0x91
 3146 0838 00       		.sleb128 0
 3147 0839 14       		.uleb128 0x14
 3148 083a 12000000 		.4byte	.LVL98
 3149 083e 9C110000 		.4byte	0x119c
 3150 0842 12       		.uleb128 0x12
 3151 0843 01       		.uleb128 0x1
 3152 0844 50       		.byte	0x50
 3153 0845 02       		.uleb128 0x2
 3154 0846 74       		.byte	0x74
ARM GAS  C:\Users\brian\AppData\Local\Temp\ccibXfrV.s 			page 76


 3155 0847 00       		.sleb128 0
 3156 0848 12       		.uleb128 0x12
 3157 0849 01       		.uleb128 0x1
 3158 084a 51       		.byte	0x51
 3159 084b 01       		.uleb128 0x1
 3160 084c 30       		.byte	0x30
 3161 084d 12       		.uleb128 0x12
 3162 084e 01       		.uleb128 0x1
 3163 084f 52       		.byte	0x52
 3164 0850 02       		.uleb128 0x2
 3165 0851 08       		.byte	0x8
 3166 0852 78       		.byte	0x78
 3167 0853 00       		.byte	0
 3168 0854 00       		.byte	0
 3169 0855 0F       		.uleb128 0xf
 3170 0856 0D010000 		.4byte	.LASF64
 3171 085a 01       		.byte	0x1
 3172 085b 2C01     		.2byte	0x12c
 3173 085d 25000000 		.4byte	0x25
 3174 0861 00000000 		.4byte	.LFB9
 3175 0865 30000000 		.4byte	.LFE9-.LFB9
 3176 0869 01       		.uleb128 0x1
 3177 086a 9C       		.byte	0x9c
 3178 086b A9080000 		.4byte	0x8a9
 3179 086f 10       		.uleb128 0x10
 3180 0870 756900   		.ascii	"ui\000"
 3181 0873 01       		.byte	0x1
 3182 0874 2C01     		.2byte	0x12c
 3183 0876 C3020000 		.4byte	0x2c3
 3184 087a B6040000 		.4byte	.LLST33
 3185 087e 1E       		.uleb128 0x1e
 3186 087f 69643000 		.ascii	"id0\000"
 3187 0883 01       		.byte	0x1
 3188 0884 2C01     		.2byte	0x12c
 3189 0886 93000000 		.4byte	0x93
 3190 088a 01       		.uleb128 0x1
 3191 088b 51       		.byte	0x51
 3192 088c 1E       		.uleb128 0x1e
 3193 088d 69643100 		.ascii	"id1\000"
 3194 0891 01       		.byte	0x1
 3195 0892 2C01     		.2byte	0x12c
 3196 0894 93000000 		.4byte	0x93
 3197 0898 01       		.uleb128 0x1
 3198 0899 52       		.byte	0x52
 3199 089a 1A       		.uleb128 0x1a
 3200 089b 6900     		.ascii	"i\000"
 3201 089d 01       		.byte	0x1
 3202 089e 2E01     		.2byte	0x12e
 3203 08a0 2C000000 		.4byte	0x2c
 3204 08a4 F0040000 		.4byte	.LLST34
 3205 08a8 00       		.byte	0
 3206 08a9 13       		.uleb128 0x13
 3207 08aa AE030000 		.4byte	.LASF65
 3208 08ae 01       		.byte	0x1
 3209 08af 4601     		.2byte	0x146
 3210 08b1 93000000 		.4byte	0x93
 3211 08b5 00000000 		.4byte	.LFB10
ARM GAS  C:\Users\brian\AppData\Local\Temp\ccibXfrV.s 			page 77


 3212 08b9 34010000 		.4byte	.LFE10-.LFB10
 3213 08bd 01       		.uleb128 0x1
 3214 08be 9C       		.byte	0x9c
 3215 08bf F7090000 		.4byte	0x9f7
 3216 08c3 10       		.uleb128 0x10
 3217 08c4 756900   		.ascii	"ui\000"
 3218 08c7 01       		.byte	0x1
 3219 08c8 4601     		.2byte	0x146
 3220 08ca C3020000 		.4byte	0x2c3
 3221 08ce 0F050000 		.4byte	.LLST35
 3222 08d2 1F       		.uleb128 0x1f
 3223 08d3 C8030000 		.4byte	.LASF66
 3224 08d7 01       		.byte	0x1
 3225 08d8 4801     		.2byte	0x148
 3226 08da 25000000 		.4byte	0x25
 3227 08de 2D050000 		.4byte	.LLST36
 3228 08e2 19       		.uleb128 0x19
 3229 08e3 1E000000 		.4byte	.LVL107
 3230 08e7 DC050000 		.4byte	0x5dc
 3231 08eb F6080000 		.4byte	0x8f6
 3232 08ef 12       		.uleb128 0x12
 3233 08f0 01       		.uleb128 0x1
 3234 08f1 50       		.byte	0x50
 3235 08f2 02       		.uleb128 0x2
 3236 08f3 74       		.byte	0x74
 3237 08f4 00       		.sleb128 0
 3238 08f5 00       		.byte	0
 3239 08f6 19       		.uleb128 0x19
 3240 08f7 28000000 		.4byte	.LVL108
 3241 08fb F0040000 		.4byte	0x4f0
 3242 08ff 0A090000 		.4byte	0x90a
 3243 0903 12       		.uleb128 0x12
 3244 0904 01       		.uleb128 0x1
 3245 0905 50       		.byte	0x50
 3246 0906 02       		.uleb128 0x2
 3247 0907 76       		.byte	0x76
 3248 0908 00       		.sleb128 0
 3249 0909 00       		.byte	0
 3250 090a 19       		.uleb128 0x19
 3251 090b 76000000 		.4byte	.LVL109
 3252 090f F0040000 		.4byte	0x4f0
 3253 0913 1E090000 		.4byte	0x91e
 3254 0917 12       		.uleb128 0x12
 3255 0918 01       		.uleb128 0x1
 3256 0919 50       		.byte	0x50
 3257 091a 02       		.uleb128 0x2
 3258 091b 76       		.byte	0x76
 3259 091c 01       		.sleb128 1
 3260 091d 00       		.byte	0
 3261 091e 19       		.uleb128 0x19
 3262 091f 80000000 		.4byte	.LVL110
 3263 0923 F0040000 		.4byte	0x4f0
 3264 0927 32090000 		.4byte	0x932
 3265 092b 12       		.uleb128 0x12
 3266 092c 01       		.uleb128 0x1
 3267 092d 50       		.byte	0x50
 3268 092e 02       		.uleb128 0x2
ARM GAS  C:\Users\brian\AppData\Local\Temp\ccibXfrV.s 			page 78


 3269 092f 76       		.byte	0x76
 3270 0930 02       		.sleb128 2
 3271 0931 00       		.byte	0
 3272 0932 19       		.uleb128 0x19
 3273 0933 8A000000 		.4byte	.LVL111
 3274 0937 F0040000 		.4byte	0x4f0
 3275 093b 46090000 		.4byte	0x946
 3276 093f 12       		.uleb128 0x12
 3277 0940 01       		.uleb128 0x1
 3278 0941 50       		.byte	0x50
 3279 0942 02       		.uleb128 0x2
 3280 0943 76       		.byte	0x76
 3281 0944 03       		.sleb128 3
 3282 0945 00       		.byte	0
 3283 0946 19       		.uleb128 0x19
 3284 0947 94000000 		.4byte	.LVL112
 3285 094b F0040000 		.4byte	0x4f0
 3286 094f 5A090000 		.4byte	0x95a
 3287 0953 12       		.uleb128 0x12
 3288 0954 01       		.uleb128 0x1
 3289 0955 50       		.byte	0x50
 3290 0956 02       		.uleb128 0x2
 3291 0957 76       		.byte	0x76
 3292 0958 04       		.sleb128 4
 3293 0959 00       		.byte	0
 3294 095a 19       		.uleb128 0x19
 3295 095b A6000000 		.4byte	.LVL113
 3296 095f F0040000 		.4byte	0x4f0
 3297 0963 6E090000 		.4byte	0x96e
 3298 0967 12       		.uleb128 0x12
 3299 0968 01       		.uleb128 0x1
 3300 0969 50       		.byte	0x50
 3301 096a 02       		.uleb128 0x2
 3302 096b 76       		.byte	0x76
 3303 096c 05       		.sleb128 5
 3304 096d 00       		.byte	0
 3305 096e 19       		.uleb128 0x19
 3306 096f B6000000 		.4byte	.LVL114
 3307 0973 F0040000 		.4byte	0x4f0
 3308 0977 82090000 		.4byte	0x982
 3309 097b 12       		.uleb128 0x12
 3310 097c 01       		.uleb128 0x1
 3311 097d 50       		.byte	0x50
 3312 097e 02       		.uleb128 0x2
 3313 097f 76       		.byte	0x76
 3314 0980 01       		.sleb128 1
 3315 0981 00       		.byte	0
 3316 0982 19       		.uleb128 0x19
 3317 0983 C0000000 		.4byte	.LVL115
 3318 0987 F0040000 		.4byte	0x4f0
 3319 098b 96090000 		.4byte	0x996
 3320 098f 12       		.uleb128 0x12
 3321 0990 01       		.uleb128 0x1
 3322 0991 50       		.byte	0x50
 3323 0992 02       		.uleb128 0x2
 3324 0993 76       		.byte	0x76
 3325 0994 02       		.sleb128 2
ARM GAS  C:\Users\brian\AppData\Local\Temp\ccibXfrV.s 			page 79


 3326 0995 00       		.byte	0
 3327 0996 19       		.uleb128 0x19
 3328 0997 D6000000 		.4byte	.LVL116
 3329 099b F0040000 		.4byte	0x4f0
 3330 099f AA090000 		.4byte	0x9aa
 3331 09a3 12       		.uleb128 0x12
 3332 09a4 01       		.uleb128 0x1
 3333 09a5 50       		.byte	0x50
 3334 09a6 02       		.uleb128 0x2
 3335 09a7 76       		.byte	0x76
 3336 09a8 01       		.sleb128 1
 3337 09a9 00       		.byte	0
 3338 09aa 19       		.uleb128 0x19
 3339 09ab E8000000 		.4byte	.LVL117
 3340 09af F0040000 		.4byte	0x4f0
 3341 09b3 BE090000 		.4byte	0x9be
 3342 09b7 12       		.uleb128 0x12
 3343 09b8 01       		.uleb128 0x1
 3344 09b9 50       		.byte	0x50
 3345 09ba 02       		.uleb128 0x2
 3346 09bb 76       		.byte	0x76
 3347 09bc 01       		.sleb128 1
 3348 09bd 00       		.byte	0
 3349 09be 19       		.uleb128 0x19
 3350 09bf F2000000 		.4byte	.LVL118
 3351 09c3 F0040000 		.4byte	0x4f0
 3352 09c7 D2090000 		.4byte	0x9d2
 3353 09cb 12       		.uleb128 0x12
 3354 09cc 01       		.uleb128 0x1
 3355 09cd 50       		.byte	0x50
 3356 09ce 02       		.uleb128 0x2
 3357 09cf 76       		.byte	0x76
 3358 09d0 02       		.sleb128 2
 3359 09d1 00       		.byte	0
 3360 09d2 19       		.uleb128 0x19
 3361 09d3 04010000 		.4byte	.LVL119
 3362 09d7 F0040000 		.4byte	0x4f0
 3363 09db E6090000 		.4byte	0x9e6
 3364 09df 12       		.uleb128 0x12
 3365 09e0 01       		.uleb128 0x1
 3366 09e1 50       		.byte	0x50
 3367 09e2 02       		.uleb128 0x2
 3368 09e3 76       		.byte	0x76
 3369 09e4 03       		.sleb128 3
 3370 09e5 00       		.byte	0
 3371 09e6 14       		.uleb128 0x14
 3372 09e7 16010000 		.4byte	.LVL120
 3373 09eb 55080000 		.4byte	0x855
 3374 09ef 12       		.uleb128 0x12
 3375 09f0 01       		.uleb128 0x1
 3376 09f1 50       		.byte	0x50
 3377 09f2 02       		.uleb128 0x2
 3378 09f3 74       		.byte	0x74
 3379 09f4 00       		.sleb128 0
 3380 09f5 00       		.byte	0
 3381 09f6 00       		.byte	0
 3382 09f7 20       		.uleb128 0x20
ARM GAS  C:\Users\brian\AppData\Local\Temp\ccibXfrV.s 			page 80


 3383 09f8 3E060000 		.4byte	.LASF68
 3384 09fc 01       		.byte	0x1
 3385 09fd A201     		.2byte	0x1a2
 3386 09ff 00000000 		.4byte	.LFB11
 3387 0a03 38000000 		.4byte	.LFE11-.LFB11
 3388 0a07 01       		.uleb128 0x1
 3389 0a08 9C       		.byte	0x9c
 3390 0a09 7A0A0000 		.4byte	0xa7a
 3391 0a0d 10       		.uleb128 0x10
 3392 0a0e 756900   		.ascii	"ui\000"
 3393 0a11 01       		.byte	0x1
 3394 0a12 A201     		.2byte	0x1a2
 3395 0a14 C3020000 		.4byte	0x2c3
 3396 0a18 4B050000 		.4byte	.LLST37
 3397 0a1c 1C       		.uleb128 0x1c
 3398 0a1d 59050000 		.4byte	.LASF67
 3399 0a21 01       		.byte	0x1
 3400 0a22 A201     		.2byte	0x1a2
 3401 0a24 890A0000 		.4byte	0xa89
 3402 0a28 69050000 		.4byte	.LLST38
 3403 0a2c 1A       		.uleb128 0x1a
 3404 0a2d 636D6400 		.ascii	"cmd\000"
 3405 0a31 01       		.byte	0x1
 3406 0a32 A401     		.2byte	0x1a4
 3407 0a34 93000000 		.4byte	0x93
 3408 0a38 87050000 		.4byte	.LLST39
 3409 0a3c 19       		.uleb128 0x19
 3410 0a3d 0C000000 		.4byte	.LVL126
 3411 0a41 DC050000 		.4byte	0x5dc
 3412 0a45 500A0000 		.4byte	0xa50
 3413 0a49 12       		.uleb128 0x12
 3414 0a4a 01       		.uleb128 0x1
 3415 0a4b 50       		.byte	0x50
 3416 0a4c 02       		.uleb128 0x2
 3417 0a4d 74       		.byte	0x74
 3418 0a4e 00       		.sleb128 0
 3419 0a4f 00       		.byte	0
 3420 0a50 21       		.uleb128 0x21
 3421 0a51 18000000 		.4byte	.LVL127
 3422 0a55 F0040000 		.4byte	0x4f0
 3423 0a59 19       		.uleb128 0x19
 3424 0a5a 24000000 		.4byte	.LVL129
 3425 0a5e A9080000 		.4byte	0x8a9
 3426 0a62 6D0A0000 		.4byte	0xa6d
 3427 0a66 12       		.uleb128 0x12
 3428 0a67 01       		.uleb128 0x1
 3429 0a68 50       		.byte	0x50
 3430 0a69 02       		.uleb128 0x2
 3431 0a6a 74       		.byte	0x74
 3432 0a6b 00       		.sleb128 0
 3433 0a6c 00       		.byte	0
 3434 0a6d 11       		.uleb128 0x11
 3435 0a6e 2A000000 		.4byte	.LVL130
 3436 0a72 12       		.uleb128 0x12
 3437 0a73 01       		.uleb128 0x1
 3438 0a74 50       		.byte	0x50
 3439 0a75 02       		.uleb128 0x2
ARM GAS  C:\Users\brian\AppData\Local\Temp\ccibXfrV.s 			page 81


 3440 0a76 74       		.byte	0x74
 3441 0a77 00       		.sleb128 0
 3442 0a78 00       		.byte	0
 3443 0a79 00       		.byte	0
 3444 0a7a 0B       		.uleb128 0xb
 3445 0a7b 93000000 		.4byte	0x93
 3446 0a7f 890A0000 		.4byte	0xa89
 3447 0a83 0C       		.uleb128 0xc
 3448 0a84 C3020000 		.4byte	0x2c3
 3449 0a88 00       		.byte	0
 3450 0a89 0A       		.uleb128 0xa
 3451 0a8a 04       		.byte	0x4
 3452 0a8b 7A0A0000 		.4byte	0xa7a
 3453 0a8f 20       		.uleb128 0x20
 3454 0a90 9E000000 		.4byte	.LASF69
 3455 0a94 01       		.byte	0x1
 3456 0a95 BD01     		.2byte	0x1bd
 3457 0a97 00000000 		.4byte	.LFB12
 3458 0a9b 14000000 		.4byte	.LFE12-.LFB12
 3459 0a9f 01       		.uleb128 0x1
 3460 0aa0 9C       		.byte	0x9c
 3461 0aa1 DD0A0000 		.4byte	0xadd
 3462 0aa5 10       		.uleb128 0x10
 3463 0aa6 756900   		.ascii	"ui\000"
 3464 0aa9 01       		.byte	0x1
 3465 0aaa BD01     		.2byte	0x1bd
 3466 0aac C3020000 		.4byte	0x2c3
 3467 0ab0 9A050000 		.4byte	.LLST40
 3468 0ab4 1C       		.uleb128 0x1c
 3469 0ab5 59050000 		.4byte	.LASF67
 3470 0ab9 01       		.byte	0x1
 3471 0aba BD01     		.2byte	0x1bd
 3472 0abc 890A0000 		.4byte	0xa89
 3473 0ac0 BB050000 		.4byte	.LLST41
 3474 0ac4 14       		.uleb128 0x14
 3475 0ac5 12000000 		.4byte	.LVL132
 3476 0ac9 F7090000 		.4byte	0x9f7
 3477 0acd 12       		.uleb128 0x12
 3478 0ace 01       		.uleb128 0x1
 3479 0acf 50       		.byte	0x50
 3480 0ad0 03       		.uleb128 0x3
 3481 0ad1 F3       		.byte	0xf3
 3482 0ad2 01       		.uleb128 0x1
 3483 0ad3 50       		.byte	0x50
 3484 0ad4 12       		.uleb128 0x12
 3485 0ad5 01       		.uleb128 0x1
 3486 0ad6 51       		.byte	0x51
 3487 0ad7 03       		.uleb128 0x3
 3488 0ad8 F3       		.byte	0xf3
 3489 0ad9 01       		.uleb128 0x1
 3490 0ada 51       		.byte	0x51
 3491 0adb 00       		.byte	0
 3492 0adc 00       		.byte	0
 3493 0add 13       		.uleb128 0x13
 3494 0ade 06020000 		.4byte	.LASF70
 3495 0ae2 01       		.byte	0x1
 3496 0ae3 5B02     		.2byte	0x25b
ARM GAS  C:\Users\brian\AppData\Local\Temp\ccibXfrV.s 			page 82


 3497 0ae5 93000000 		.4byte	0x93
 3498 0ae9 00000000 		.4byte	.LFB24
 3499 0aed 28000000 		.4byte	.LFE24-.LFB24
 3500 0af1 01       		.uleb128 0x1
 3501 0af2 9C       		.byte	0x9c
 3502 0af3 3D0B0000 		.4byte	0xb3d
 3503 0af7 10       		.uleb128 0x10
 3504 0af8 756900   		.ascii	"ui\000"
 3505 0afb 01       		.byte	0x1
 3506 0afc 5B02     		.2byte	0x25b
 3507 0afe C3020000 		.4byte	0x2c3
 3508 0b02 DC050000 		.4byte	.LLST42
 3509 0b06 10       		.uleb128 0x10
 3510 0b07 6D736700 		.ascii	"msg\000"
 3511 0b0b 01       		.byte	0x1
 3512 0b0c 5B02     		.2byte	0x25b
 3513 0b0e 93000000 		.4byte	0x93
 3514 0b12 13060000 		.4byte	.LLST43
 3515 0b16 19       		.uleb128 0x19
 3516 0b17 10000000 		.4byte	.LVL134
 3517 0b1b A9080000 		.4byte	0x8a9
 3518 0b1f 2A0B0000 		.4byte	0xb2a
 3519 0b23 12       		.uleb128 0x12
 3520 0b24 01       		.uleb128 0x1
 3521 0b25 50       		.byte	0x50
 3522 0b26 02       		.uleb128 0x2
 3523 0b27 74       		.byte	0x74
 3524 0b28 00       		.sleb128 0
 3525 0b29 00       		.byte	0
 3526 0b2a 11       		.uleb128 0x11
 3527 0b2b 1E000000 		.4byte	.LVL135
 3528 0b2f 12       		.uleb128 0x12
 3529 0b30 01       		.uleb128 0x1
 3530 0b31 50       		.byte	0x50
 3531 0b32 02       		.uleb128 0x2
 3532 0b33 74       		.byte	0x74
 3533 0b34 00       		.sleb128 0
 3534 0b35 12       		.uleb128 0x12
 3535 0b36 01       		.uleb128 0x1
 3536 0b37 51       		.byte	0x51
 3537 0b38 02       		.uleb128 0x2
 3538 0b39 75       		.byte	0x75
 3539 0b3a 00       		.sleb128 0
 3540 0b3b 00       		.byte	0
 3541 0b3c 00       		.byte	0
 3542 0b3d 13       		.uleb128 0x13
 3543 0b3e 3F050000 		.4byte	.LASF71
 3544 0b42 01       		.byte	0x1
 3545 0b43 E902     		.2byte	0x2e9
 3546 0b45 93000000 		.4byte	0x93
 3547 0b49 00000000 		.4byte	.LFB30
 3548 0b4d 10000000 		.4byte	.LFE30-.LFB30
 3549 0b51 01       		.uleb128 0x1
 3550 0b52 9C       		.byte	0x9c
 3551 0b53 7D0B0000 		.4byte	0xb7d
 3552 0b57 10       		.uleb128 0x10
 3553 0b58 756900   		.ascii	"ui\000"
ARM GAS  C:\Users\brian\AppData\Local\Temp\ccibXfrV.s 			page 83


 3554 0b5b 01       		.byte	0x1
 3555 0b5c E902     		.2byte	0x2e9
 3556 0b5e C3020000 		.4byte	0x2c3
 3557 0b62 4D060000 		.4byte	.LLST44
 3558 0b66 14       		.uleb128 0x14
 3559 0b67 0E000000 		.4byte	.LVL139
 3560 0b6b DD0A0000 		.4byte	0xadd
 3561 0b6f 12       		.uleb128 0x12
 3562 0b70 01       		.uleb128 0x1
 3563 0b71 50       		.byte	0x50
 3564 0b72 03       		.uleb128 0x3
 3565 0b73 F3       		.byte	0xf3
 3566 0b74 01       		.uleb128 0x1
 3567 0b75 50       		.byte	0x50
 3568 0b76 12       		.uleb128 0x12
 3569 0b77 01       		.uleb128 0x1
 3570 0b78 51       		.byte	0x51
 3571 0b79 01       		.uleb128 0x1
 3572 0b7a 34       		.byte	0x34
 3573 0b7b 00       		.byte	0
 3574 0b7c 00       		.byte	0
 3575 0b7d 0F       		.uleb128 0xf
 3576 0b7e 82000000 		.4byte	.LASF72
 3577 0b82 01       		.byte	0x1
 3578 0b83 CC01     		.2byte	0x1cc
 3579 0b85 D4020000 		.4byte	0x2d4
 3580 0b89 00000000 		.4byte	.LFB13
 3581 0b8d 32000000 		.4byte	.LFE13-.LFB13
 3582 0b91 01       		.uleb128 0x1
 3583 0b92 9C       		.byte	0x9c
 3584 0b93 110C0000 		.4byte	0xc11
 3585 0b97 10       		.uleb128 0x10
 3586 0b98 756900   		.ascii	"ui\000"
 3587 0b9b 01       		.byte	0x1
 3588 0b9c CC01     		.2byte	0x1cc
 3589 0b9e C3020000 		.4byte	0x2c3
 3590 0ba2 6E060000 		.4byte	.LLST45
 3591 0ba6 10       		.uleb128 0x10
 3592 0ba7 6E00     		.ascii	"n\000"
 3593 0ba9 01       		.byte	0x1
 3594 0baa CC01     		.2byte	0x1cc
 3595 0bac 93000000 		.4byte	0x93
 3596 0bb0 8C060000 		.4byte	.LLST46
 3597 0bb4 22       		.uleb128 0x22
 3598 0bb5 66647300 		.ascii	"fds\000"
 3599 0bb9 01       		.byte	0x1
 3600 0bba CE01     		.2byte	0x1ce
 3601 0bbc D4020000 		.4byte	0x2d4
 3602 0bc0 01       		.uleb128 0x1
 3603 0bc1 54       		.byte	0x54
 3604 0bc2 1A       		.uleb128 0x1a
 3605 0bc3 636D6400 		.ascii	"cmd\000"
 3606 0bc7 01       		.byte	0x1
 3607 0bc8 CF01     		.2byte	0x1cf
 3608 0bca 93000000 		.4byte	0x93
 3609 0bce AD060000 		.4byte	.LLST47
 3610 0bd2 19       		.uleb128 0x19
ARM GAS  C:\Users\brian\AppData\Local\Temp\ccibXfrV.s 			page 84


 3611 0bd3 0E000000 		.4byte	.LVL142
 3612 0bd7 F0040000 		.4byte	0x4f0
 3613 0bdb E60B0000 		.4byte	0xbe6
 3614 0bdf 12       		.uleb128 0x12
 3615 0be0 01       		.uleb128 0x1
 3616 0be1 50       		.byte	0x50
 3617 0be2 02       		.uleb128 0x2
 3618 0be3 74       		.byte	0x74
 3619 0be4 00       		.sleb128 0
 3620 0be5 00       		.byte	0
 3621 0be6 19       		.uleb128 0x19
 3622 0be7 1A000000 		.4byte	.LVL144
 3623 0beb F0040000 		.4byte	0x4f0
 3624 0bef FA0B0000 		.4byte	0xbfa
 3625 0bf3 12       		.uleb128 0x12
 3626 0bf4 01       		.uleb128 0x1
 3627 0bf5 50       		.byte	0x50
 3628 0bf6 02       		.uleb128 0x2
 3629 0bf7 74       		.byte	0x74
 3630 0bf8 01       		.sleb128 1
 3631 0bf9 00       		.byte	0
 3632 0bfa 14       		.uleb128 0x14
 3633 0bfb 26000000 		.4byte	.LVL145
 3634 0bff DC050000 		.4byte	0x5dc
 3635 0c03 12       		.uleb128 0x12
 3636 0c04 01       		.uleb128 0x1
 3637 0c05 50       		.byte	0x50
 3638 0c06 02       		.uleb128 0x2
 3639 0c07 75       		.byte	0x75
 3640 0c08 00       		.sleb128 0
 3641 0c09 12       		.uleb128 0x12
 3642 0c0a 01       		.uleb128 0x1
 3643 0c0b 51       		.byte	0x51
 3644 0c0c 02       		.uleb128 0x2
 3645 0c0d 74       		.byte	0x74
 3646 0c0e 00       		.sleb128 0
 3647 0c0f 00       		.byte	0
 3648 0c10 00       		.byte	0
 3649 0c11 0F       		.uleb128 0xf
 3650 0c12 1C050000 		.4byte	.LASF73
 3651 0c16 01       		.byte	0x1
 3652 0c17 4B02     		.2byte	0x24b
 3653 0c19 93000000 		.4byte	0x93
 3654 0c1d 00000000 		.4byte	.LFB23
 3655 0c21 22000000 		.4byte	.LFE23-.LFB23
 3656 0c25 01       		.uleb128 0x1
 3657 0c26 9C       		.byte	0x9c
 3658 0c27 4B0C0000 		.4byte	0xc4b
 3659 0c2b 10       		.uleb128 0x10
 3660 0c2c 756900   		.ascii	"ui\000"
 3661 0c2f 01       		.byte	0x1
 3662 0c30 4B02     		.2byte	0x24b
 3663 0c32 C3020000 		.4byte	0x2c3
 3664 0c36 CB060000 		.4byte	.LLST48
 3665 0c3a 14       		.uleb128 0x14
 3666 0c3b 08000000 		.4byte	.LVL151
 3667 0c3f A4030000 		.4byte	0x3a4
ARM GAS  C:\Users\brian\AppData\Local\Temp\ccibXfrV.s 			page 85


 3668 0c43 12       		.uleb128 0x12
 3669 0c44 01       		.uleb128 0x1
 3670 0c45 50       		.byte	0x50
 3671 0c46 02       		.uleb128 0x2
 3672 0c47 74       		.byte	0x74
 3673 0c48 00       		.sleb128 0
 3674 0c49 00       		.byte	0
 3675 0c4a 00       		.byte	0
 3676 0c4b 0F       		.uleb128 0xf
 3677 0c4c 9B010000 		.4byte	.LASF74
 3678 0c50 01       		.byte	0x1
 3679 0c51 6E02     		.2byte	0x26e
 3680 0c53 93000000 		.4byte	0x93
 3681 0c57 00000000 		.4byte	.LFB25
 3682 0c5b 1C000000 		.4byte	.LFE25-.LFB25
 3683 0c5f 01       		.uleb128 0x1
 3684 0c60 9C       		.byte	0x9c
 3685 0c61 8E0C0000 		.4byte	0xc8e
 3686 0c65 10       		.uleb128 0x10
 3687 0c66 756900   		.ascii	"ui\000"
 3688 0c69 01       		.byte	0x1
 3689 0c6a 6E02     		.2byte	0x26e
 3690 0c6c C3020000 		.4byte	0x2c3
 3691 0c70 E9060000 		.4byte	.LLST49
 3692 0c74 14       		.uleb128 0x14
 3693 0c75 10000000 		.4byte	.LVL153
 3694 0c79 8F0A0000 		.4byte	0xa8f
 3695 0c7d 12       		.uleb128 0x12
 3696 0c7e 01       		.uleb128 0x1
 3697 0c7f 50       		.byte	0x50
 3698 0c80 02       		.uleb128 0x2
 3699 0c81 74       		.byte	0x74
 3700 0c82 00       		.sleb128 0
 3701 0c83 12       		.uleb128 0x12
 3702 0c84 01       		.uleb128 0x1
 3703 0c85 51       		.byte	0x51
 3704 0c86 05       		.uleb128 0x5
 3705 0c87 03       		.byte	0x3
 3706 0c88 00000000 		.4byte	mui_task_get_current_cursor_focus_position
 3707 0c8c 00       		.byte	0
 3708 0c8d 00       		.byte	0
 3709 0c8e 1B       		.uleb128 0x1b
 3710 0c8f FE040000 		.4byte	.LASF76
 3711 0c93 01       		.byte	0x1
 3712 0c94 7602     		.2byte	0x276
 3713 0c96 00000000 		.4byte	.LFB26
 3714 0c9a 10000000 		.4byte	.LFE26-.LFB26
 3715 0c9e 01       		.uleb128 0x1
 3716 0c9f 9C       		.byte	0x9c
 3717 0ca0 CE0C0000 		.4byte	0xcce
 3718 0ca4 10       		.uleb128 0x10
 3719 0ca5 756900   		.ascii	"ui\000"
 3720 0ca8 01       		.byte	0x1
 3721 0ca9 7602     		.2byte	0x276
 3722 0cab C3020000 		.4byte	0x2c3
 3723 0caf 15070000 		.4byte	.LLST50
 3724 0cb3 14       		.uleb128 0x14
ARM GAS  C:\Users\brian\AppData\Local\Temp\ccibXfrV.s 			page 86


 3725 0cb4 08000000 		.4byte	.LVL156
 3726 0cb8 8F0A0000 		.4byte	0xa8f
 3727 0cbc 12       		.uleb128 0x12
 3728 0cbd 01       		.uleb128 0x1
 3729 0cbe 50       		.byte	0x50
 3730 0cbf 03       		.uleb128 0x3
 3731 0cc0 F3       		.byte	0xf3
 3732 0cc1 01       		.uleb128 0x1
 3733 0cc2 50       		.byte	0x50
 3734 0cc3 12       		.uleb128 0x12
 3735 0cc4 01       		.uleb128 0x1
 3736 0cc5 51       		.byte	0x51
 3737 0cc6 05       		.uleb128 0x5
 3738 0cc7 03       		.byte	0x3
 3739 0cc8 00000000 		.4byte	mui_task_draw
 3740 0ccc 00       		.byte	0
 3741 0ccd 00       		.byte	0
 3742 0cce 1B       		.uleb128 0x1b
 3743 0ccf 2C020000 		.4byte	.LASF77
 3744 0cd3 01       		.byte	0x1
 3745 0cd4 7B02     		.2byte	0x27b
 3746 0cd6 00000000 		.4byte	.LFB27
 3747 0cda 28000000 		.4byte	.LFE27-.LFB27
 3748 0cde 01       		.uleb128 0x1
 3749 0cdf 9C       		.byte	0x9c
 3750 0ce0 2A0D0000 		.4byte	0xd2a
 3751 0ce4 10       		.uleb128 0x10
 3752 0ce5 756900   		.ascii	"ui\000"
 3753 0ce8 01       		.byte	0x1
 3754 0ce9 7B02     		.2byte	0x27b
 3755 0ceb C3020000 		.4byte	0x2c3
 3756 0cef 36070000 		.4byte	.LLST51
 3757 0cf3 19       		.uleb128 0x19
 3758 0cf4 0A000000 		.4byte	.LVL158
 3759 0cf8 8F0A0000 		.4byte	0xa8f
 3760 0cfc 100D0000 		.4byte	0xd10
 3761 0d00 12       		.uleb128 0x12
 3762 0d01 01       		.uleb128 0x1
 3763 0d02 50       		.byte	0x50
 3764 0d03 02       		.uleb128 0x2
 3765 0d04 74       		.byte	0x74
 3766 0d05 00       		.sleb128 0
 3767 0d06 12       		.uleb128 0x12
 3768 0d07 01       		.uleb128 0x1
 3769 0d08 51       		.byte	0x51
 3770 0d09 05       		.uleb128 0x5
 3771 0d0a 03       		.byte	0x3
 3772 0d0b 00000000 		.4byte	mui_task_find_next_cursor_uif
 3773 0d0f 00       		.byte	0
 3774 0d10 14       		.uleb128 0x14
 3775 0d11 18000000 		.4byte	.LVL159
 3776 0d15 8F0A0000 		.4byte	0xa8f
 3777 0d19 12       		.uleb128 0x12
 3778 0d1a 01       		.uleb128 0x1
 3779 0d1b 50       		.byte	0x50
 3780 0d1c 02       		.uleb128 0x2
 3781 0d1d 74       		.byte	0x74
ARM GAS  C:\Users\brian\AppData\Local\Temp\ccibXfrV.s 			page 87


 3782 0d1e 00       		.sleb128 0
 3783 0d1f 12       		.uleb128 0x12
 3784 0d20 01       		.uleb128 0x1
 3785 0d21 51       		.byte	0x51
 3786 0d22 05       		.uleb128 0x5
 3787 0d23 03       		.byte	0x3
 3788 0d24 00000000 		.4byte	mui_task_find_first_cursor_uif
 3789 0d28 00       		.byte	0
 3790 0d29 00       		.byte	0
 3791 0d2a 0F       		.uleb128 0xf
 3792 0d2b C0020000 		.4byte	.LASF78
 3793 0d2f 01       		.byte	0x1
 3794 0d30 A602     		.2byte	0x2a6
 3795 0d32 93000000 		.4byte	0x93
 3796 0d36 00000000 		.4byte	.LFB28
 3797 0d3a 16000000 		.4byte	.LFE28-.LFB28
 3798 0d3e 01       		.uleb128 0x1
 3799 0d3f 9C       		.byte	0x9c
 3800 0d40 AE0D0000 		.4byte	0xdae
 3801 0d44 10       		.uleb128 0x10
 3802 0d45 756900   		.ascii	"ui\000"
 3803 0d48 01       		.byte	0x1
 3804 0d49 A602     		.2byte	0x2a6
 3805 0d4b C3020000 		.4byte	0x2c3
 3806 0d4f 62070000 		.4byte	.LLST52
 3807 0d53 10       		.uleb128 0x10
 3808 0d54 66647300 		.ascii	"fds\000"
 3809 0d58 01       		.byte	0x1
 3810 0d59 A602     		.2byte	0x2a6
 3811 0d5b D4020000 		.4byte	0x2d4
 3812 0d5f 80070000 		.4byte	.LLST53
 3813 0d63 1C       		.uleb128 0x1c
 3814 0d64 8C030000 		.4byte	.LASF79
 3815 0d68 01       		.byte	0x1
 3816 0d69 A602     		.2byte	0x2a6
 3817 0d6b 93000000 		.4byte	0x93
 3818 0d6f AD070000 		.4byte	.LLST54
 3819 0d73 23       		.uleb128 0x23
 3820 0d74 2B060000 		.4byte	.LASF80
 3821 0d78 01       		.byte	0x1
 3822 0d79 A802     		.2byte	0x2a8
 3823 0d7b D4020000 		.4byte	0x2d4
 3824 0d7f 01       		.uleb128 0x1
 3825 0d80 56       		.byte	0x56
 3826 0d81 22       		.uleb128 0x22
 3827 0d82 6C656E00 		.ascii	"len\000"
 3828 0d86 01       		.byte	0x1
 3829 0d87 A902     		.2byte	0x2a9
 3830 0d89 25000000 		.4byte	0x25
 3831 0d8d 01       		.uleb128 0x1
 3832 0d8e 55       		.byte	0x55
 3833 0d8f 23       		.uleb128 0x23
 3834 0d90 BD010000 		.4byte	.LASF81
 3835 0d94 01       		.byte	0x1
 3836 0d95 AA02     		.2byte	0x2aa
 3837 0d97 93000000 		.4byte	0x93
 3838 0d9b 01       		.uleb128 0x1
ARM GAS  C:\Users\brian\AppData\Local\Temp\ccibXfrV.s 			page 88


 3839 0d9c 50       		.byte	0x50
 3840 0d9d 14       		.uleb128 0x14
 3841 0d9e 10000000 		.4byte	.LVL165
 3842 0da2 23070000 		.4byte	0x723
 3843 0da6 12       		.uleb128 0x12
 3844 0da7 01       		.uleb128 0x1
 3845 0da8 50       		.byte	0x50
 3846 0da9 02       		.uleb128 0x2
 3847 0daa 74       		.byte	0x74
 3848 0dab 00       		.sleb128 0
 3849 0dac 00       		.byte	0
 3850 0dad 00       		.byte	0
 3851 0dae 0F       		.uleb128 0xf
 3852 0daf ED050000 		.4byte	.LASF82
 3853 0db3 01       		.byte	0x1
 3854 0db4 D502     		.2byte	0x2d5
 3855 0db6 93000000 		.4byte	0x93
 3856 0dba 00000000 		.4byte	.LFB29
 3857 0dbe 14000000 		.4byte	.LFE29-.LFB29
 3858 0dc2 01       		.uleb128 0x1
 3859 0dc3 9C       		.byte	0x9c
 3860 0dc4 240E0000 		.4byte	0xe24
 3861 0dc8 10       		.uleb128 0x10
 3862 0dc9 756900   		.ascii	"ui\000"
 3863 0dcc 01       		.byte	0x1
 3864 0dcd D502     		.2byte	0x2d5
 3865 0dcf C3020000 		.4byte	0x2c3
 3866 0dd3 CE070000 		.4byte	.LLST55
 3867 0dd7 10       		.uleb128 0x10
 3868 0dd8 66647300 		.ascii	"fds\000"
 3869 0ddc 01       		.byte	0x1
 3870 0ddd D502     		.2byte	0x2d5
 3871 0ddf D4020000 		.4byte	0x2d4
 3872 0de3 EC070000 		.4byte	.LLST56
 3873 0de7 23       		.uleb128 0x23
 3874 0de8 2B060000 		.4byte	.LASF80
 3875 0dec 01       		.byte	0x1
 3876 0ded D702     		.2byte	0x2d7
 3877 0def D4020000 		.4byte	0x2d4
 3878 0df3 01       		.uleb128 0x1
 3879 0df4 56       		.byte	0x56
 3880 0df5 22       		.uleb128 0x22
 3881 0df6 6C656E00 		.ascii	"len\000"
 3882 0dfa 01       		.byte	0x1
 3883 0dfb D802     		.2byte	0x2d8
 3884 0dfd 25000000 		.4byte	0x25
 3885 0e01 01       		.uleb128 0x1
 3886 0e02 55       		.byte	0x55
 3887 0e03 1A       		.uleb128 0x1a
 3888 0e04 636E7400 		.ascii	"cnt\000"
 3889 0e08 01       		.byte	0x1
 3890 0e09 D902     		.2byte	0x2d9
 3891 0e0b 93000000 		.4byte	0x93
 3892 0e0f 0D080000 		.4byte	.LLST57
 3893 0e13 14       		.uleb128 0x14
 3894 0e14 0E000000 		.4byte	.LVL169
 3895 0e18 7C070000 		.4byte	0x77c
ARM GAS  C:\Users\brian\AppData\Local\Temp\ccibXfrV.s 			page 89


 3896 0e1c 12       		.uleb128 0x12
 3897 0e1d 01       		.uleb128 0x1
 3898 0e1e 50       		.byte	0x50
 3899 0e1f 02       		.uleb128 0x2
 3900 0e20 74       		.byte	0x74
 3901 0e21 00       		.sleb128 0
 3902 0e22 00       		.byte	0
 3903 0e23 00       		.byte	0
 3904 0e24 1B       		.uleb128 0x1b
 3905 0e25 6E020000 		.4byte	.LASF83
 3906 0e29 01       		.byte	0x1
 3907 0e2a 1E03     		.2byte	0x31e
 3908 0e2c 00000000 		.4byte	.LFB32
 3909 0e30 24000000 		.4byte	.LFE32-.LFB32
 3910 0e34 01       		.uleb128 0x1
 3911 0e35 9C       		.byte	0x9c
 3912 0e36 7C0E0000 		.4byte	0xe7c
 3913 0e3a 10       		.uleb128 0x10
 3914 0e3b 756900   		.ascii	"ui\000"
 3915 0e3e 01       		.byte	0x1
 3916 0e3f 1E03     		.2byte	0x31e
 3917 0e41 C3020000 		.4byte	0x2c3
 3918 0e45 2C080000 		.4byte	.LLST58
 3919 0e49 19       		.uleb128 0x19
 3920 0e4a 0E000000 		.4byte	.LVL171
 3921 0e4e DD0A0000 		.4byte	0xadd
 3922 0e52 620E0000 		.4byte	0xe62
 3923 0e56 12       		.uleb128 0x12
 3924 0e57 01       		.uleb128 0x1
 3925 0e58 50       		.byte	0x50
 3926 0e59 02       		.uleb128 0x2
 3927 0e5a 74       		.byte	0x74
 3928 0e5b 00       		.sleb128 0
 3929 0e5c 12       		.uleb128 0x12
 3930 0e5d 01       		.uleb128 0x1
 3931 0e5e 51       		.byte	0x51
 3932 0e5f 01       		.uleb128 0x1
 3933 0e60 36       		.byte	0x36
 3934 0e61 00       		.byte	0
 3935 0e62 14       		.uleb128 0x14
 3936 0e63 1A000000 		.4byte	.LVL172
 3937 0e67 8F0A0000 		.4byte	0xa8f
 3938 0e6b 12       		.uleb128 0x12
 3939 0e6c 01       		.uleb128 0x1
 3940 0e6d 50       		.byte	0x50
 3941 0e6e 02       		.uleb128 0x2
 3942 0e6f 74       		.byte	0x74
 3943 0e70 00       		.sleb128 0
 3944 0e71 12       		.uleb128 0x12
 3945 0e72 01       		.uleb128 0x1
 3946 0e73 51       		.byte	0x51
 3947 0e74 05       		.uleb128 0x5
 3948 0e75 03       		.byte	0x3
 3949 0e76 00000000 		.4byte	mui_task_form_end
 3950 0e7a 00       		.byte	0
 3951 0e7b 00       		.byte	0
 3952 0e7c 1B       		.uleb128 0x1b
ARM GAS  C:\Users\brian\AppData\Local\Temp\ccibXfrV.s 			page 90


 3953 0e7d 53020000 		.4byte	.LASF84
 3954 0e81 01       		.byte	0x1
 3955 0e82 3A03     		.2byte	0x33a
 3956 0e84 00000000 		.4byte	.LFB34
 3957 0e88 24000000 		.4byte	.LFE34-.LFB34
 3958 0e8c 01       		.uleb128 0x1
 3959 0e8d 9C       		.byte	0x9c
 3960 0e8e BB0E0000 		.4byte	0xebb
 3961 0e92 10       		.uleb128 0x10
 3962 0e93 756900   		.ascii	"ui\000"
 3963 0e96 01       		.byte	0x1
 3964 0e97 3A03     		.2byte	0x33a
 3965 0e99 C3020000 		.4byte	0x2c3
 3966 0e9d 58080000 		.4byte	.LLST59
 3967 0ea1 21       		.uleb128 0x21
 3968 0ea2 12000000 		.4byte	.LVL176
 3969 0ea6 F0040000 		.4byte	0x4f0
 3970 0eaa 14       		.uleb128 0x14
 3971 0eab 1C000000 		.4byte	.LVL177
 3972 0eaf 4B0C0000 		.4byte	0xc4b
 3973 0eb3 12       		.uleb128 0x12
 3974 0eb4 01       		.uleb128 0x1
 3975 0eb5 50       		.byte	0x50
 3976 0eb6 02       		.uleb128 0x2
 3977 0eb7 74       		.byte	0x74
 3978 0eb8 00       		.sleb128 0
 3979 0eb9 00       		.byte	0
 3980 0eba 00       		.byte	0
 3981 0ebb 1B       		.uleb128 0x1b
 3982 0ebc D4010000 		.4byte	.LASF85
 3983 0ec0 01       		.byte	0x1
 3984 0ec1 5203     		.2byte	0x352
 3985 0ec3 00000000 		.4byte	.LFB36
 3986 0ec7 28000000 		.4byte	.LFE36-.LFB36
 3987 0ecb 01       		.uleb128 0x1
 3988 0ecc 9C       		.byte	0x9c
 3989 0ecd 370F0000 		.4byte	0xf37
 3990 0ed1 10       		.uleb128 0x10
 3991 0ed2 756900   		.ascii	"ui\000"
 3992 0ed5 01       		.byte	0x1
 3993 0ed6 5203     		.2byte	0x352
 3994 0ed8 C3020000 		.4byte	0x2c3
 3995 0edc 81080000 		.4byte	.LLST60
 3996 0ee0 19       		.uleb128 0x19
 3997 0ee1 0C000000 		.4byte	.LVL181
 3998 0ee5 DD0A0000 		.4byte	0xadd
 3999 0ee9 F90E0000 		.4byte	0xef9
 4000 0eed 12       		.uleb128 0x12
 4001 0eee 01       		.uleb128 0x1
 4002 0eef 50       		.byte	0x50
 4003 0ef0 02       		.uleb128 0x2
 4004 0ef1 74       		.byte	0x74
 4005 0ef2 00       		.sleb128 0
 4006 0ef3 12       		.uleb128 0x12
 4007 0ef4 01       		.uleb128 0x1
 4008 0ef5 51       		.byte	0x51
 4009 0ef6 01       		.uleb128 0x1
ARM GAS  C:\Users\brian\AppData\Local\Temp\ccibXfrV.s 			page 91


 4010 0ef7 39       		.byte	0x39
 4011 0ef8 00       		.byte	0
 4012 0ef9 19       		.uleb128 0x19
 4013 0efa 16000000 		.4byte	.LVL182
 4014 0efe DD0A0000 		.4byte	0xadd
 4015 0f02 120F0000 		.4byte	0xf12
 4016 0f06 12       		.uleb128 0x12
 4017 0f07 01       		.uleb128 0x1
 4018 0f08 50       		.byte	0x50
 4019 0f09 02       		.uleb128 0x2
 4020 0f0a 74       		.byte	0x74
 4021 0f0b 00       		.sleb128 0
 4022 0f0c 12       		.uleb128 0x12
 4023 0f0d 01       		.uleb128 0x1
 4024 0f0e 51       		.byte	0x51
 4025 0f0f 01       		.uleb128 0x1
 4026 0f10 36       		.byte	0x36
 4027 0f11 00       		.byte	0
 4028 0f12 19       		.uleb128 0x19
 4029 0f13 1C000000 		.4byte	.LVL183
 4030 0f17 CE0C0000 		.4byte	0xcce
 4031 0f1b 260F0000 		.4byte	0xf26
 4032 0f1f 12       		.uleb128 0x12
 4033 0f20 01       		.uleb128 0x1
 4034 0f21 50       		.byte	0x50
 4035 0f22 02       		.uleb128 0x2
 4036 0f23 74       		.byte	0x74
 4037 0f24 00       		.sleb128 0
 4038 0f25 00       		.byte	0
 4039 0f26 14       		.uleb128 0x14
 4040 0f27 22000000 		.4byte	.LVL184
 4041 0f2b 3D0B0000 		.4byte	0xb3d
 4042 0f2f 12       		.uleb128 0x12
 4043 0f30 01       		.uleb128 0x1
 4044 0f31 50       		.byte	0x50
 4045 0f32 02       		.uleb128 0x2
 4046 0f33 74       		.byte	0x74
 4047 0f34 00       		.sleb128 0
 4048 0f35 00       		.byte	0
 4049 0f36 00       		.byte	0
 4050 0f37 1B       		.uleb128 0x1b
 4051 0f38 12040000 		.4byte	.LASF86
 4052 0f3c 01       		.byte	0x1
 4053 0f3d F302     		.2byte	0x2f3
 4054 0f3f 00000000 		.4byte	.LFB31
 4055 0f43 5C000000 		.4byte	.LFE31-.LFB31
 4056 0f47 01       		.uleb128 0x1
 4057 0f48 9C       		.byte	0x9c
 4058 0f49 03100000 		.4byte	0x1003
 4059 0f4d 10       		.uleb128 0x10
 4060 0f4e 756900   		.ascii	"ui\000"
 4061 0f51 01       		.byte	0x1
 4062 0f52 F302     		.2byte	0x2f3
 4063 0f54 C3020000 		.4byte	0x2c3
 4064 0f58 9F080000 		.4byte	.LLST61
 4065 0f5c 10       		.uleb128 0x10
 4066 0f5d 66647300 		.ascii	"fds\000"
ARM GAS  C:\Users\brian\AppData\Local\Temp\ccibXfrV.s 			page 92


 4067 0f61 01       		.byte	0x1
 4068 0f62 F302     		.2byte	0x2f3
 4069 0f64 D4020000 		.4byte	0x2d4
 4070 0f68 CB080000 		.4byte	.LLST62
 4071 0f6c 1C       		.uleb128 0x1c
 4072 0f6d 96030000 		.4byte	.LASF87
 4073 0f71 01       		.byte	0x1
 4074 0f72 F302     		.2byte	0x2f3
 4075 0f74 93000000 		.4byte	0x93
 4076 0f78 F7080000 		.4byte	.LLST63
 4077 0f7c 19       		.uleb128 0x19
 4078 0f7d 0C000000 		.4byte	.LVL186
 4079 0f81 240E0000 		.4byte	0xe24
 4080 0f85 900F0000 		.4byte	0xf90
 4081 0f89 12       		.uleb128 0x12
 4082 0f8a 01       		.uleb128 0x1
 4083 0f8b 50       		.byte	0x50
 4084 0f8c 02       		.uleb128 0x2
 4085 0f8d 75       		.byte	0x75
 4086 0f8e 00       		.sleb128 0
 4087 0f8f 00       		.byte	0
 4088 0f90 19       		.uleb128 0x19
 4089 0f91 24000000 		.4byte	.LVL187
 4090 0f95 8F0A0000 		.4byte	0xa8f
 4091 0f99 AD0F0000 		.4byte	0xfad
 4092 0f9d 12       		.uleb128 0x12
 4093 0f9e 01       		.uleb128 0x1
 4094 0f9f 50       		.byte	0x50
 4095 0fa0 02       		.uleb128 0x2
 4096 0fa1 75       		.byte	0x75
 4097 0fa2 00       		.sleb128 0
 4098 0fa3 12       		.uleb128 0x12
 4099 0fa4 01       		.uleb128 0x1
 4100 0fa5 51       		.byte	0x51
 4101 0fa6 05       		.uleb128 0x5
 4102 0fa7 03       		.byte	0x3
 4103 0fa8 00000000 		.4byte	mui_task_form_start
 4104 0fac 00       		.byte	0
 4105 0fad 19       		.uleb128 0x19
 4106 0fae 2C000000 		.4byte	.LVL188
 4107 0fb2 8F0A0000 		.4byte	0xa8f
 4108 0fb6 CA0F0000 		.4byte	0xfca
 4109 0fba 12       		.uleb128 0x12
 4110 0fbb 01       		.uleb128 0x1
 4111 0fbc 50       		.byte	0x50
 4112 0fbd 02       		.uleb128 0x2
 4113 0fbe 75       		.byte	0x75
 4114 0fbf 00       		.sleb128 0
 4115 0fc0 12       		.uleb128 0x12
 4116 0fc1 01       		.uleb128 0x1
 4117 0fc2 51       		.byte	0x51
 4118 0fc3 05       		.uleb128 0x5
 4119 0fc4 03       		.byte	0x3
 4120 0fc5 00000000 		.4byte	mui_task_find_first_cursor_uif
 4121 0fc9 00       		.byte	0
 4122 0fca 19       		.uleb128 0x19
 4123 0fcb 38000000 		.4byte	.LVL190
ARM GAS  C:\Users\brian\AppData\Local\Temp\ccibXfrV.s 			page 93


 4124 0fcf BB0E0000 		.4byte	0xebb
 4125 0fd3 DE0F0000 		.4byte	0xfde
 4126 0fd7 12       		.uleb128 0x12
 4127 0fd8 01       		.uleb128 0x1
 4128 0fd9 50       		.byte	0x50
 4129 0fda 02       		.uleb128 0x2
 4130 0fdb 75       		.byte	0x75
 4131 0fdc 00       		.sleb128 0
 4132 0fdd 00       		.byte	0
 4133 0fde 19       		.uleb128 0x19
 4134 0fdf 48000000 		.4byte	.LVL193
 4135 0fe3 BB0E0000 		.4byte	0xebb
 4136 0fe7 F20F0000 		.4byte	0xff2
 4137 0feb 12       		.uleb128 0x12
 4138 0fec 01       		.uleb128 0x1
 4139 0fed 50       		.byte	0x50
 4140 0fee 02       		.uleb128 0x2
 4141 0fef 75       		.byte	0x75
 4142 0ff0 00       		.sleb128 0
 4143 0ff1 00       		.byte	0
 4144 0ff2 14       		.uleb128 0x14
 4145 0ff3 4E000000 		.4byte	.LVL194
 4146 0ff7 3D0B0000 		.4byte	0xb3d
 4147 0ffb 12       		.uleb128 0x12
 4148 0ffc 01       		.uleb128 0x1
 4149 0ffd 50       		.byte	0x50
 4150 0ffe 02       		.uleb128 0x2
 4151 0fff 75       		.byte	0x75
 4152 1000 00       		.sleb128 0
 4153 1001 00       		.byte	0
 4154 1002 00       		.byte	0
 4155 1003 0F       		.uleb128 0xf
 4156 1004 00000000 		.4byte	.LASF88
 4157 1008 01       		.byte	0x1
 4158 1009 3003     		.2byte	0x330
 4159 100b 93000000 		.4byte	0x93
 4160 100f 00000000 		.4byte	.LFB33
 4161 1013 1E000000 		.4byte	.LFE33-.LFB33
 4162 1017 01       		.uleb128 0x1
 4163 1018 9C       		.byte	0x9c
 4164 1019 87100000 		.4byte	0x1087
 4165 101d 10       		.uleb128 0x10
 4166 101e 756900   		.ascii	"ui\000"
 4167 1021 01       		.byte	0x1
 4168 1022 3003     		.2byte	0x330
 4169 1024 C3020000 		.4byte	0x2c3
 4170 1028 2E090000 		.4byte	.LLST64
 4171 102c 1C       		.uleb128 0x1c
 4172 102d F6040000 		.4byte	.LASF89
 4173 1031 01       		.byte	0x1
 4174 1032 3003     		.2byte	0x330
 4175 1034 93000000 		.4byte	0x93
 4176 1038 4C090000 		.4byte	.LLST65
 4177 103c 1C       		.uleb128 0x1c
 4178 103d 96030000 		.4byte	.LASF87
 4179 1041 01       		.byte	0x1
 4180 1042 3003     		.2byte	0x330
ARM GAS  C:\Users\brian\AppData\Local\Temp\ccibXfrV.s 			page 94


 4181 1044 93000000 		.4byte	0x93
 4182 1048 6D090000 		.4byte	.LLST66
 4183 104c 1A       		.uleb128 0x1a
 4184 104d 66647300 		.ascii	"fds\000"
 4185 1051 01       		.byte	0x1
 4186 1052 3203     		.2byte	0x332
 4187 1054 D4020000 		.4byte	0x2d4
 4188 1058 8E090000 		.4byte	.LLST67
 4189 105c 19       		.uleb128 0x19
 4190 105d 0A000000 		.4byte	.LVL197
 4191 1061 7D0B0000 		.4byte	0xb7d
 4192 1065 70100000 		.4byte	0x1070
 4193 1069 12       		.uleb128 0x12
 4194 106a 01       		.uleb128 0x1
 4195 106b 50       		.byte	0x50
 4196 106c 02       		.uleb128 0x2
 4197 106d 74       		.byte	0x74
 4198 106e 00       		.sleb128 0
 4199 106f 00       		.byte	0
 4200 1070 14       		.uleb128 0x14
 4201 1071 16000000 		.4byte	.LVL199
 4202 1075 370F0000 		.4byte	0xf37
 4203 1079 12       		.uleb128 0x12
 4204 107a 01       		.uleb128 0x1
 4205 107b 50       		.byte	0x50
 4206 107c 02       		.uleb128 0x2
 4207 107d 74       		.byte	0x74
 4208 107e 00       		.sleb128 0
 4209 107f 12       		.uleb128 0x12
 4210 1080 01       		.uleb128 0x1
 4211 1081 52       		.byte	0x52
 4212 1082 02       		.uleb128 0x2
 4213 1083 75       		.byte	0x75
 4214 1084 00       		.sleb128 0
 4215 1085 00       		.byte	0
 4216 1086 00       		.byte	0
 4217 1087 1B       		.uleb128 0x1b
 4218 1088 31000000 		.4byte	.LASF90
 4219 108c 01       		.byte	0x1
 4220 108d 4703     		.2byte	0x347
 4221 108f 00000000 		.4byte	.LFB35
 4222 1093 10000000 		.4byte	.LFE35-.LFB35
 4223 1097 01       		.uleb128 0x1
 4224 1098 9C       		.byte	0x9c
 4225 1099 BE100000 		.4byte	0x10be
 4226 109d 10       		.uleb128 0x10
 4227 109e 756900   		.ascii	"ui\000"
 4228 10a1 01       		.byte	0x1
 4229 10a2 4703     		.2byte	0x347
 4230 10a4 C3020000 		.4byte	0x2c3
 4231 10a8 B7090000 		.4byte	.LLST68
 4232 10ac 14       		.uleb128 0x14
 4233 10ad 0E000000 		.4byte	.LVL203
 4234 10b1 03100000 		.4byte	0x1003
 4235 10b5 12       		.uleb128 0x12
 4236 10b6 01       		.uleb128 0x1
 4237 10b7 50       		.byte	0x50
ARM GAS  C:\Users\brian\AppData\Local\Temp\ccibXfrV.s 			page 95


 4238 10b8 03       		.uleb128 0x3
 4239 10b9 F3       		.byte	0xf3
 4240 10ba 01       		.uleb128 0x1
 4241 10bb 50       		.byte	0x50
 4242 10bc 00       		.byte	0
 4243 10bd 00       		.byte	0
 4244 10be 1B       		.uleb128 0x1b
 4245 10bf 60020000 		.4byte	.LASF91
 4246 10c3 01       		.byte	0x1
 4247 10c4 6303     		.2byte	0x363
 4248 10c6 00000000 		.4byte	.LFB37
 4249 10ca 44000000 		.4byte	.LFE37-.LFB37
 4250 10ce 01       		.uleb128 0x1
 4251 10cf 9C       		.byte	0x9c
 4252 10d0 60110000 		.4byte	0x1160
 4253 10d4 10       		.uleb128 0x10
 4254 10d5 756900   		.ascii	"ui\000"
 4255 10d8 01       		.byte	0x1
 4256 10d9 6303     		.2byte	0x363
 4257 10db C3020000 		.4byte	0x2c3
 4258 10df D8090000 		.4byte	.LLST69
 4259 10e3 19       		.uleb128 0x19
 4260 10e4 0C000000 		.4byte	.LVL206
 4261 10e8 DD0A0000 		.4byte	0xadd
 4262 10ec FC100000 		.4byte	0x10fc
 4263 10f0 12       		.uleb128 0x12
 4264 10f1 01       		.uleb128 0x1
 4265 10f2 50       		.byte	0x50
 4266 10f3 02       		.uleb128 0x2
 4267 10f4 74       		.byte	0x74
 4268 10f5 00       		.sleb128 0
 4269 10f6 12       		.uleb128 0x12
 4270 10f7 01       		.uleb128 0x1
 4271 10f8 51       		.byte	0x51
 4272 10f9 01       		.uleb128 0x1
 4273 10fa 3A       		.byte	0x3a
 4274 10fb 00       		.byte	0
 4275 10fc 19       		.uleb128 0x19
 4276 10fd 16000000 		.4byte	.LVL207
 4277 1101 DD0A0000 		.4byte	0xadd
 4278 1105 15110000 		.4byte	0x1115
 4279 1109 12       		.uleb128 0x12
 4280 110a 01       		.uleb128 0x1
 4281 110b 50       		.byte	0x50
 4282 110c 02       		.uleb128 0x2
 4283 110d 74       		.byte	0x74
 4284 110e 00       		.sleb128 0
 4285 110f 12       		.uleb128 0x12
 4286 1110 01       		.uleb128 0x1
 4287 1111 51       		.byte	0x51
 4288 1112 01       		.uleb128 0x1
 4289 1113 36       		.byte	0x36
 4290 1114 00       		.byte	0
 4291 1115 19       		.uleb128 0x19
 4292 1116 1E000000 		.4byte	.LVL208
 4293 111a 8F0A0000 		.4byte	0xa8f
 4294 111e 32110000 		.4byte	0x1132
ARM GAS  C:\Users\brian\AppData\Local\Temp\ccibXfrV.s 			page 96


 4295 1122 12       		.uleb128 0x12
 4296 1123 01       		.uleb128 0x1
 4297 1124 50       		.byte	0x50
 4298 1125 02       		.uleb128 0x2
 4299 1126 74       		.byte	0x74
 4300 1127 00       		.sleb128 0
 4301 1128 12       		.uleb128 0x12
 4302 1129 01       		.uleb128 0x1
 4303 112a 51       		.byte	0x51
 4304 112b 05       		.uleb128 0x5
 4305 112c 03       		.byte	0x3
 4306 112d 00000000 		.4byte	mui_task_find_prev_cursor_uif
 4307 1131 00       		.byte	0
 4308 1132 19       		.uleb128 0x19
 4309 1133 2C000000 		.4byte	.LVL209
 4310 1137 8F0A0000 		.4byte	0xa8f
 4311 113b 4F110000 		.4byte	0x114f
 4312 113f 12       		.uleb128 0x12
 4313 1140 01       		.uleb128 0x1
 4314 1141 50       		.byte	0x50
 4315 1142 02       		.uleb128 0x2
 4316 1143 74       		.byte	0x74
 4317 1144 00       		.sleb128 0
 4318 1145 12       		.uleb128 0x12
 4319 1146 01       		.uleb128 0x1
 4320 1147 51       		.byte	0x51
 4321 1148 05       		.uleb128 0x5
 4322 1149 03       		.byte	0x3
 4323 114a 00000000 		.4byte	mui_task_find_last_cursor_uif
 4324 114e 00       		.byte	0
 4325 114f 14       		.uleb128 0x14
 4326 1150 36000000 		.4byte	.LVL210
 4327 1154 3D0B0000 		.4byte	0xb3d
 4328 1158 12       		.uleb128 0x12
 4329 1159 01       		.uleb128 0x1
 4330 115a 50       		.byte	0x50
 4331 115b 02       		.uleb128 0x2
 4332 115c 74       		.byte	0x74
 4333 115d 00       		.sleb128 0
 4334 115e 00       		.byte	0
 4335 115f 00       		.byte	0
 4336 1160 1B       		.uleb128 0x1b
 4337 1161 1F030000 		.4byte	.LASF92
 4338 1165 01       		.byte	0x1
 4339 1166 7703     		.2byte	0x377
 4340 1168 00000000 		.4byte	.LFB38
 4341 116c 0A000000 		.4byte	.LFE38-.LFB38
 4342 1170 01       		.uleb128 0x1
 4343 1171 9C       		.byte	0x9c
 4344 1172 9C110000 		.4byte	0x119c
 4345 1176 10       		.uleb128 0x10
 4346 1177 756900   		.ascii	"ui\000"
 4347 117a 01       		.byte	0x1
 4348 117b 7703     		.2byte	0x377
 4349 117d C3020000 		.4byte	0x2c3
 4350 1181 040A0000 		.4byte	.LLST70
 4351 1185 14       		.uleb128 0x14
ARM GAS  C:\Users\brian\AppData\Local\Temp\ccibXfrV.s 			page 97


 4352 1186 08000000 		.4byte	.LVL213
 4353 118a DD0A0000 		.4byte	0xadd
 4354 118e 12       		.uleb128 0x12
 4355 118f 01       		.uleb128 0x1
 4356 1190 50       		.byte	0x50
 4357 1191 03       		.uleb128 0x3
 4358 1192 F3       		.byte	0xf3
 4359 1193 01       		.uleb128 0x1
 4360 1194 50       		.byte	0x50
 4361 1195 12       		.uleb128 0x12
 4362 1196 01       		.uleb128 0x1
 4363 1197 51       		.byte	0x51
 4364 1198 01       		.uleb128 0x1
 4365 1199 35       		.byte	0x35
 4366 119a 00       		.byte	0
 4367 119b 00       		.byte	0
 4368 119c 24       		.uleb128 0x24
 4369 119d D1050000 		.4byte	.LASF96
 4370 11a1 D1050000 		.4byte	.LASF96
 4371 11a5 00       		.byte	0
 4372              		.section	.debug_abbrev,"",%progbits
 4373              	.Ldebug_abbrev0:
 4374 0000 01       		.uleb128 0x1
 4375 0001 11       		.uleb128 0x11
 4376 0002 01       		.byte	0x1
 4377 0003 25       		.uleb128 0x25
 4378 0004 0E       		.uleb128 0xe
 4379 0005 13       		.uleb128 0x13
 4380 0006 0B       		.uleb128 0xb
 4381 0007 03       		.uleb128 0x3
 4382 0008 0E       		.uleb128 0xe
 4383 0009 1B       		.uleb128 0x1b
 4384 000a 0E       		.uleb128 0xe
 4385 000b 55       		.uleb128 0x55
 4386 000c 17       		.uleb128 0x17
 4387 000d 11       		.uleb128 0x11
 4388 000e 01       		.uleb128 0x1
 4389 000f 10       		.uleb128 0x10
 4390 0010 17       		.uleb128 0x17
 4391 0011 00       		.byte	0
 4392 0012 00       		.byte	0
 4393 0013 02       		.uleb128 0x2
 4394 0014 24       		.uleb128 0x24
 4395 0015 00       		.byte	0
 4396 0016 0B       		.uleb128 0xb
 4397 0017 0B       		.uleb128 0xb
 4398 0018 3E       		.uleb128 0x3e
 4399 0019 0B       		.uleb128 0xb
 4400 001a 03       		.uleb128 0x3
 4401 001b 08       		.uleb128 0x8
 4402 001c 00       		.byte	0
 4403 001d 00       		.byte	0
 4404 001e 03       		.uleb128 0x3
 4405 001f 16       		.uleb128 0x16
 4406 0020 00       		.byte	0
 4407 0021 03       		.uleb128 0x3
 4408 0022 0E       		.uleb128 0xe
ARM GAS  C:\Users\brian\AppData\Local\Temp\ccibXfrV.s 			page 98


 4409 0023 3A       		.uleb128 0x3a
 4410 0024 0B       		.uleb128 0xb
 4411 0025 3B       		.uleb128 0x3b
 4412 0026 0B       		.uleb128 0xb
 4413 0027 49       		.uleb128 0x49
 4414 0028 13       		.uleb128 0x13
 4415 0029 00       		.byte	0
 4416 002a 00       		.byte	0
 4417 002b 04       		.uleb128 0x4
 4418 002c 24       		.uleb128 0x24
 4419 002d 00       		.byte	0
 4420 002e 0B       		.uleb128 0xb
 4421 002f 0B       		.uleb128 0xb
 4422 0030 3E       		.uleb128 0x3e
 4423 0031 0B       		.uleb128 0xb
 4424 0032 03       		.uleb128 0x3
 4425 0033 0E       		.uleb128 0xe
 4426 0034 00       		.byte	0
 4427 0035 00       		.byte	0
 4428 0036 05       		.uleb128 0x5
 4429 0037 0F       		.uleb128 0xf
 4430 0038 00       		.byte	0
 4431 0039 0B       		.uleb128 0xb
 4432 003a 0B       		.uleb128 0xb
 4433 003b 00       		.byte	0
 4434 003c 00       		.byte	0
 4435 003d 06       		.uleb128 0x6
 4436 003e 26       		.uleb128 0x26
 4437 003f 00       		.byte	0
 4438 0040 49       		.uleb128 0x49
 4439 0041 13       		.uleb128 0x13
 4440 0042 00       		.byte	0
 4441 0043 00       		.byte	0
 4442 0044 07       		.uleb128 0x7
 4443 0045 13       		.uleb128 0x13
 4444 0046 01       		.byte	0x1
 4445 0047 03       		.uleb128 0x3
 4446 0048 0E       		.uleb128 0xe
 4447 0049 0B       		.uleb128 0xb
 4448 004a 0B       		.uleb128 0xb
 4449 004b 3A       		.uleb128 0x3a
 4450 004c 0B       		.uleb128 0xb
 4451 004d 3B       		.uleb128 0x3b
 4452 004e 0B       		.uleb128 0xb
 4453 004f 01       		.uleb128 0x1
 4454 0050 13       		.uleb128 0x13
 4455 0051 00       		.byte	0
 4456 0052 00       		.byte	0
 4457 0053 08       		.uleb128 0x8
 4458 0054 0D       		.uleb128 0xd
 4459 0055 00       		.byte	0
 4460 0056 03       		.uleb128 0x3
 4461 0057 0E       		.uleb128 0xe
 4462 0058 3A       		.uleb128 0x3a
 4463 0059 0B       		.uleb128 0xb
 4464 005a 3B       		.uleb128 0x3b
 4465 005b 0B       		.uleb128 0xb
ARM GAS  C:\Users\brian\AppData\Local\Temp\ccibXfrV.s 			page 99


 4466 005c 49       		.uleb128 0x49
 4467 005d 13       		.uleb128 0x13
 4468 005e 38       		.uleb128 0x38
 4469 005f 0B       		.uleb128 0xb
 4470 0060 00       		.byte	0
 4471 0061 00       		.byte	0
 4472 0062 09       		.uleb128 0x9
 4473 0063 0D       		.uleb128 0xd
 4474 0064 00       		.byte	0
 4475 0065 03       		.uleb128 0x3
 4476 0066 08       		.uleb128 0x8
 4477 0067 3A       		.uleb128 0x3a
 4478 0068 0B       		.uleb128 0xb
 4479 0069 3B       		.uleb128 0x3b
 4480 006a 0B       		.uleb128 0xb
 4481 006b 49       		.uleb128 0x49
 4482 006c 13       		.uleb128 0x13
 4483 006d 38       		.uleb128 0x38
 4484 006e 0B       		.uleb128 0xb
 4485 006f 00       		.byte	0
 4486 0070 00       		.byte	0
 4487 0071 0A       		.uleb128 0xa
 4488 0072 0F       		.uleb128 0xf
 4489 0073 00       		.byte	0
 4490 0074 0B       		.uleb128 0xb
 4491 0075 0B       		.uleb128 0xb
 4492 0076 49       		.uleb128 0x49
 4493 0077 13       		.uleb128 0x13
 4494 0078 00       		.byte	0
 4495 0079 00       		.byte	0
 4496 007a 0B       		.uleb128 0xb
 4497 007b 15       		.uleb128 0x15
 4498 007c 01       		.byte	0x1
 4499 007d 27       		.uleb128 0x27
 4500 007e 19       		.uleb128 0x19
 4501 007f 49       		.uleb128 0x49
 4502 0080 13       		.uleb128 0x13
 4503 0081 01       		.uleb128 0x1
 4504 0082 13       		.uleb128 0x13
 4505 0083 00       		.byte	0
 4506 0084 00       		.byte	0
 4507 0085 0C       		.uleb128 0xc
 4508 0086 05       		.uleb128 0x5
 4509 0087 00       		.byte	0
 4510 0088 49       		.uleb128 0x49
 4511 0089 13       		.uleb128 0x13
 4512 008a 00       		.byte	0
 4513 008b 00       		.byte	0
 4514 008c 0D       		.uleb128 0xd
 4515 008d 01       		.uleb128 0x1
 4516 008e 01       		.byte	0x1
 4517 008f 49       		.uleb128 0x49
 4518 0090 13       		.uleb128 0x13
 4519 0091 01       		.uleb128 0x1
 4520 0092 13       		.uleb128 0x13
 4521 0093 00       		.byte	0
 4522 0094 00       		.byte	0
ARM GAS  C:\Users\brian\AppData\Local\Temp\ccibXfrV.s 			page 100


 4523 0095 0E       		.uleb128 0xe
 4524 0096 21       		.uleb128 0x21
 4525 0097 00       		.byte	0
 4526 0098 49       		.uleb128 0x49
 4527 0099 13       		.uleb128 0x13
 4528 009a 2F       		.uleb128 0x2f
 4529 009b 0B       		.uleb128 0xb
 4530 009c 00       		.byte	0
 4531 009d 00       		.byte	0
 4532 009e 0F       		.uleb128 0xf
 4533 009f 2E       		.uleb128 0x2e
 4534 00a0 01       		.byte	0x1
 4535 00a1 3F       		.uleb128 0x3f
 4536 00a2 19       		.uleb128 0x19
 4537 00a3 03       		.uleb128 0x3
 4538 00a4 0E       		.uleb128 0xe
 4539 00a5 3A       		.uleb128 0x3a
 4540 00a6 0B       		.uleb128 0xb
 4541 00a7 3B       		.uleb128 0x3b
 4542 00a8 05       		.uleb128 0x5
 4543 00a9 27       		.uleb128 0x27
 4544 00aa 19       		.uleb128 0x19
 4545 00ab 49       		.uleb128 0x49
 4546 00ac 13       		.uleb128 0x13
 4547 00ad 11       		.uleb128 0x11
 4548 00ae 01       		.uleb128 0x1
 4549 00af 12       		.uleb128 0x12
 4550 00b0 06       		.uleb128 0x6
 4551 00b1 40       		.uleb128 0x40
 4552 00b2 18       		.uleb128 0x18
 4553 00b3 9742     		.uleb128 0x2117
 4554 00b5 19       		.uleb128 0x19
 4555 00b6 01       		.uleb128 0x1
 4556 00b7 13       		.uleb128 0x13
 4557 00b8 00       		.byte	0
 4558 00b9 00       		.byte	0
 4559 00ba 10       		.uleb128 0x10
 4560 00bb 05       		.uleb128 0x5
 4561 00bc 00       		.byte	0
 4562 00bd 03       		.uleb128 0x3
 4563 00be 08       		.uleb128 0x8
 4564 00bf 3A       		.uleb128 0x3a
 4565 00c0 0B       		.uleb128 0xb
 4566 00c1 3B       		.uleb128 0x3b
 4567 00c2 05       		.uleb128 0x5
 4568 00c3 49       		.uleb128 0x49
 4569 00c4 13       		.uleb128 0x13
 4570 00c5 02       		.uleb128 0x2
 4571 00c6 17       		.uleb128 0x17
 4572 00c7 00       		.byte	0
 4573 00c8 00       		.byte	0
 4574 00c9 11       		.uleb128 0x11
 4575 00ca 898201   		.uleb128 0x4109
 4576 00cd 01       		.byte	0x1
 4577 00ce 11       		.uleb128 0x11
 4578 00cf 01       		.uleb128 0x1
 4579 00d0 00       		.byte	0
ARM GAS  C:\Users\brian\AppData\Local\Temp\ccibXfrV.s 			page 101


 4580 00d1 00       		.byte	0
 4581 00d2 12       		.uleb128 0x12
 4582 00d3 8A8201   		.uleb128 0x410a
 4583 00d6 00       		.byte	0
 4584 00d7 02       		.uleb128 0x2
 4585 00d8 18       		.uleb128 0x18
 4586 00d9 9142     		.uleb128 0x2111
 4587 00db 18       		.uleb128 0x18
 4588 00dc 00       		.byte	0
 4589 00dd 00       		.byte	0
 4590 00de 13       		.uleb128 0x13
 4591 00df 2E       		.uleb128 0x2e
 4592 00e0 01       		.byte	0x1
 4593 00e1 03       		.uleb128 0x3
 4594 00e2 0E       		.uleb128 0xe
 4595 00e3 3A       		.uleb128 0x3a
 4596 00e4 0B       		.uleb128 0xb
 4597 00e5 3B       		.uleb128 0x3b
 4598 00e6 05       		.uleb128 0x5
 4599 00e7 27       		.uleb128 0x27
 4600 00e8 19       		.uleb128 0x19
 4601 00e9 49       		.uleb128 0x49
 4602 00ea 13       		.uleb128 0x13
 4603 00eb 11       		.uleb128 0x11
 4604 00ec 01       		.uleb128 0x1
 4605 00ed 12       		.uleb128 0x12
 4606 00ee 06       		.uleb128 0x6
 4607 00ef 40       		.uleb128 0x40
 4608 00f0 18       		.uleb128 0x18
 4609 00f1 9742     		.uleb128 0x2117
 4610 00f3 19       		.uleb128 0x19
 4611 00f4 01       		.uleb128 0x1
 4612 00f5 13       		.uleb128 0x13
 4613 00f6 00       		.byte	0
 4614 00f7 00       		.byte	0
 4615 00f8 14       		.uleb128 0x14
 4616 00f9 898201   		.uleb128 0x4109
 4617 00fc 01       		.byte	0x1
 4618 00fd 11       		.uleb128 0x11
 4619 00fe 01       		.uleb128 0x1
 4620 00ff 31       		.uleb128 0x31
 4621 0100 13       		.uleb128 0x13
 4622 0101 00       		.byte	0
 4623 0102 00       		.byte	0
 4624 0103 15       		.uleb128 0x15
 4625 0104 2E       		.uleb128 0x2e
 4626 0105 01       		.byte	0x1
 4627 0106 3F       		.uleb128 0x3f
 4628 0107 19       		.uleb128 0x19
 4629 0108 03       		.uleb128 0x3
 4630 0109 0E       		.uleb128 0xe
 4631 010a 3A       		.uleb128 0x3a
 4632 010b 0B       		.uleb128 0xb
 4633 010c 3B       		.uleb128 0x3b
 4634 010d 0B       		.uleb128 0xb
 4635 010e 27       		.uleb128 0x27
 4636 010f 19       		.uleb128 0x19
ARM GAS  C:\Users\brian\AppData\Local\Temp\ccibXfrV.s 			page 102


 4637 0110 49       		.uleb128 0x49
 4638 0111 13       		.uleb128 0x13
 4639 0112 11       		.uleb128 0x11
 4640 0113 01       		.uleb128 0x1
 4641 0114 12       		.uleb128 0x12
 4642 0115 06       		.uleb128 0x6
 4643 0116 40       		.uleb128 0x40
 4644 0117 18       		.uleb128 0x18
 4645 0118 9742     		.uleb128 0x2117
 4646 011a 19       		.uleb128 0x19
 4647 011b 01       		.uleb128 0x1
 4648 011c 13       		.uleb128 0x13
 4649 011d 00       		.byte	0
 4650 011e 00       		.byte	0
 4651 011f 16       		.uleb128 0x16
 4652 0120 05       		.uleb128 0x5
 4653 0121 00       		.byte	0
 4654 0122 03       		.uleb128 0x3
 4655 0123 08       		.uleb128 0x8
 4656 0124 3A       		.uleb128 0x3a
 4657 0125 0B       		.uleb128 0xb
 4658 0126 3B       		.uleb128 0x3b
 4659 0127 0B       		.uleb128 0xb
 4660 0128 49       		.uleb128 0x49
 4661 0129 13       		.uleb128 0x13
 4662 012a 02       		.uleb128 0x2
 4663 012b 17       		.uleb128 0x17
 4664 012c 00       		.byte	0
 4665 012d 00       		.byte	0
 4666 012e 17       		.uleb128 0x17
 4667 012f 2E       		.uleb128 0x2e
 4668 0130 01       		.byte	0x1
 4669 0131 03       		.uleb128 0x3
 4670 0132 0E       		.uleb128 0xe
 4671 0133 3A       		.uleb128 0x3a
 4672 0134 0B       		.uleb128 0xb
 4673 0135 3B       		.uleb128 0x3b
 4674 0136 0B       		.uleb128 0xb
 4675 0137 27       		.uleb128 0x27
 4676 0138 19       		.uleb128 0x19
 4677 0139 49       		.uleb128 0x49
 4678 013a 13       		.uleb128 0x13
 4679 013b 11       		.uleb128 0x11
 4680 013c 01       		.uleb128 0x1
 4681 013d 12       		.uleb128 0x12
 4682 013e 06       		.uleb128 0x6
 4683 013f 40       		.uleb128 0x40
 4684 0140 18       		.uleb128 0x18
 4685 0141 9742     		.uleb128 0x2117
 4686 0143 19       		.uleb128 0x19
 4687 0144 01       		.uleb128 0x1
 4688 0145 13       		.uleb128 0x13
 4689 0146 00       		.byte	0
 4690 0147 00       		.byte	0
 4691 0148 18       		.uleb128 0x18
 4692 0149 34       		.uleb128 0x34
 4693 014a 00       		.byte	0
ARM GAS  C:\Users\brian\AppData\Local\Temp\ccibXfrV.s 			page 103


 4694 014b 03       		.uleb128 0x3
 4695 014c 08       		.uleb128 0x8
 4696 014d 3A       		.uleb128 0x3a
 4697 014e 0B       		.uleb128 0xb
 4698 014f 3B       		.uleb128 0x3b
 4699 0150 0B       		.uleb128 0xb
 4700 0151 49       		.uleb128 0x49
 4701 0152 13       		.uleb128 0x13
 4702 0153 02       		.uleb128 0x2
 4703 0154 17       		.uleb128 0x17
 4704 0155 00       		.byte	0
 4705 0156 00       		.byte	0
 4706 0157 19       		.uleb128 0x19
 4707 0158 898201   		.uleb128 0x4109
 4708 015b 01       		.byte	0x1
 4709 015c 11       		.uleb128 0x11
 4710 015d 01       		.uleb128 0x1
 4711 015e 31       		.uleb128 0x31
 4712 015f 13       		.uleb128 0x13
 4713 0160 01       		.uleb128 0x1
 4714 0161 13       		.uleb128 0x13
 4715 0162 00       		.byte	0
 4716 0163 00       		.byte	0
 4717 0164 1A       		.uleb128 0x1a
 4718 0165 34       		.uleb128 0x34
 4719 0166 00       		.byte	0
 4720 0167 03       		.uleb128 0x3
 4721 0168 08       		.uleb128 0x8
 4722 0169 3A       		.uleb128 0x3a
 4723 016a 0B       		.uleb128 0xb
 4724 016b 3B       		.uleb128 0x3b
 4725 016c 05       		.uleb128 0x5
 4726 016d 49       		.uleb128 0x49
 4727 016e 13       		.uleb128 0x13
 4728 016f 02       		.uleb128 0x2
 4729 0170 17       		.uleb128 0x17
 4730 0171 00       		.byte	0
 4731 0172 00       		.byte	0
 4732 0173 1B       		.uleb128 0x1b
 4733 0174 2E       		.uleb128 0x2e
 4734 0175 01       		.byte	0x1
 4735 0176 3F       		.uleb128 0x3f
 4736 0177 19       		.uleb128 0x19
 4737 0178 03       		.uleb128 0x3
 4738 0179 0E       		.uleb128 0xe
 4739 017a 3A       		.uleb128 0x3a
 4740 017b 0B       		.uleb128 0xb
 4741 017c 3B       		.uleb128 0x3b
 4742 017d 05       		.uleb128 0x5
 4743 017e 27       		.uleb128 0x27
 4744 017f 19       		.uleb128 0x19
 4745 0180 11       		.uleb128 0x11
 4746 0181 01       		.uleb128 0x1
 4747 0182 12       		.uleb128 0x12
 4748 0183 06       		.uleb128 0x6
 4749 0184 40       		.uleb128 0x40
 4750 0185 18       		.uleb128 0x18
ARM GAS  C:\Users\brian\AppData\Local\Temp\ccibXfrV.s 			page 104


 4751 0186 9742     		.uleb128 0x2117
 4752 0188 19       		.uleb128 0x19
 4753 0189 01       		.uleb128 0x1
 4754 018a 13       		.uleb128 0x13
 4755 018b 00       		.byte	0
 4756 018c 00       		.byte	0
 4757 018d 1C       		.uleb128 0x1c
 4758 018e 05       		.uleb128 0x5
 4759 018f 00       		.byte	0
 4760 0190 03       		.uleb128 0x3
 4761 0191 0E       		.uleb128 0xe
 4762 0192 3A       		.uleb128 0x3a
 4763 0193 0B       		.uleb128 0xb
 4764 0194 3B       		.uleb128 0x3b
 4765 0195 05       		.uleb128 0x5
 4766 0196 49       		.uleb128 0x49
 4767 0197 13       		.uleb128 0x13
 4768 0198 02       		.uleb128 0x2
 4769 0199 17       		.uleb128 0x17
 4770 019a 00       		.byte	0
 4771 019b 00       		.byte	0
 4772 019c 1D       		.uleb128 0x1d
 4773 019d 05       		.uleb128 0x5
 4774 019e 00       		.byte	0
 4775 019f 03       		.uleb128 0x3
 4776 01a0 0E       		.uleb128 0xe
 4777 01a1 3A       		.uleb128 0x3a
 4778 01a2 0B       		.uleb128 0xb
 4779 01a3 3B       		.uleb128 0x3b
 4780 01a4 05       		.uleb128 0x5
 4781 01a5 49       		.uleb128 0x49
 4782 01a6 13       		.uleb128 0x13
 4783 01a7 02       		.uleb128 0x2
 4784 01a8 18       		.uleb128 0x18
 4785 01a9 00       		.byte	0
 4786 01aa 00       		.byte	0
 4787 01ab 1E       		.uleb128 0x1e
 4788 01ac 05       		.uleb128 0x5
 4789 01ad 00       		.byte	0
 4790 01ae 03       		.uleb128 0x3
 4791 01af 08       		.uleb128 0x8
 4792 01b0 3A       		.uleb128 0x3a
 4793 01b1 0B       		.uleb128 0xb
 4794 01b2 3B       		.uleb128 0x3b
 4795 01b3 05       		.uleb128 0x5
 4796 01b4 49       		.uleb128 0x49
 4797 01b5 13       		.uleb128 0x13
 4798 01b6 02       		.uleb128 0x2
 4799 01b7 18       		.uleb128 0x18
 4800 01b8 00       		.byte	0
 4801 01b9 00       		.byte	0
 4802 01ba 1F       		.uleb128 0x1f
 4803 01bb 34       		.uleb128 0x34
 4804 01bc 00       		.byte	0
 4805 01bd 03       		.uleb128 0x3
 4806 01be 0E       		.uleb128 0xe
 4807 01bf 3A       		.uleb128 0x3a
ARM GAS  C:\Users\brian\AppData\Local\Temp\ccibXfrV.s 			page 105


 4808 01c0 0B       		.uleb128 0xb
 4809 01c1 3B       		.uleb128 0x3b
 4810 01c2 05       		.uleb128 0x5
 4811 01c3 49       		.uleb128 0x49
 4812 01c4 13       		.uleb128 0x13
 4813 01c5 02       		.uleb128 0x2
 4814 01c6 17       		.uleb128 0x17
 4815 01c7 00       		.byte	0
 4816 01c8 00       		.byte	0
 4817 01c9 20       		.uleb128 0x20
 4818 01ca 2E       		.uleb128 0x2e
 4819 01cb 01       		.byte	0x1
 4820 01cc 03       		.uleb128 0x3
 4821 01cd 0E       		.uleb128 0xe
 4822 01ce 3A       		.uleb128 0x3a
 4823 01cf 0B       		.uleb128 0xb
 4824 01d0 3B       		.uleb128 0x3b
 4825 01d1 05       		.uleb128 0x5
 4826 01d2 27       		.uleb128 0x27
 4827 01d3 19       		.uleb128 0x19
 4828 01d4 11       		.uleb128 0x11
 4829 01d5 01       		.uleb128 0x1
 4830 01d6 12       		.uleb128 0x12
 4831 01d7 06       		.uleb128 0x6
 4832 01d8 40       		.uleb128 0x40
 4833 01d9 18       		.uleb128 0x18
 4834 01da 9742     		.uleb128 0x2117
 4835 01dc 19       		.uleb128 0x19
 4836 01dd 01       		.uleb128 0x1
 4837 01de 13       		.uleb128 0x13
 4838 01df 00       		.byte	0
 4839 01e0 00       		.byte	0
 4840 01e1 21       		.uleb128 0x21
 4841 01e2 898201   		.uleb128 0x4109
 4842 01e5 00       		.byte	0
 4843 01e6 11       		.uleb128 0x11
 4844 01e7 01       		.uleb128 0x1
 4845 01e8 31       		.uleb128 0x31
 4846 01e9 13       		.uleb128 0x13
 4847 01ea 00       		.byte	0
 4848 01eb 00       		.byte	0
 4849 01ec 22       		.uleb128 0x22
 4850 01ed 34       		.uleb128 0x34
 4851 01ee 00       		.byte	0
 4852 01ef 03       		.uleb128 0x3
 4853 01f0 08       		.uleb128 0x8
 4854 01f1 3A       		.uleb128 0x3a
 4855 01f2 0B       		.uleb128 0xb
 4856 01f3 3B       		.uleb128 0x3b
 4857 01f4 05       		.uleb128 0x5
 4858 01f5 49       		.uleb128 0x49
 4859 01f6 13       		.uleb128 0x13
 4860 01f7 02       		.uleb128 0x2
 4861 01f8 18       		.uleb128 0x18
 4862 01f9 00       		.byte	0
 4863 01fa 00       		.byte	0
 4864 01fb 23       		.uleb128 0x23
ARM GAS  C:\Users\brian\AppData\Local\Temp\ccibXfrV.s 			page 106


 4865 01fc 34       		.uleb128 0x34
 4866 01fd 00       		.byte	0
 4867 01fe 03       		.uleb128 0x3
 4868 01ff 0E       		.uleb128 0xe
 4869 0200 3A       		.uleb128 0x3a
 4870 0201 0B       		.uleb128 0xb
 4871 0202 3B       		.uleb128 0x3b
 4872 0203 05       		.uleb128 0x5
 4873 0204 49       		.uleb128 0x49
 4874 0205 13       		.uleb128 0x13
 4875 0206 02       		.uleb128 0x2
 4876 0207 18       		.uleb128 0x18
 4877 0208 00       		.byte	0
 4878 0209 00       		.byte	0
 4879 020a 24       		.uleb128 0x24
 4880 020b 2E       		.uleb128 0x2e
 4881 020c 00       		.byte	0
 4882 020d 3F       		.uleb128 0x3f
 4883 020e 19       		.uleb128 0x19
 4884 020f 3C       		.uleb128 0x3c
 4885 0210 19       		.uleb128 0x19
 4886 0211 6E       		.uleb128 0x6e
 4887 0212 0E       		.uleb128 0xe
 4888 0213 03       		.uleb128 0x3
 4889 0214 0E       		.uleb128 0xe
 4890 0215 00       		.byte	0
 4891 0216 00       		.byte	0
 4892 0217 00       		.byte	0
 4893              		.section	.debug_loc,"",%progbits
 4894              	.Ldebug_loc0:
 4895              	.LLST0:
 4896 0000 00000000 		.4byte	.LVL0
 4897 0004 09000000 		.4byte	.LVL1-1
 4898 0008 0100     		.2byte	0x1
 4899 000a 50       		.byte	0x50
 4900 000b 09000000 		.4byte	.LVL1-1
 4901 000f 0E000000 		.4byte	.LFE14
 4902 0013 0400     		.2byte	0x4
 4903 0015 F3       		.byte	0xf3
 4904 0016 01       		.uleb128 0x1
 4905 0017 50       		.byte	0x50
 4906 0018 9F       		.byte	0x9f
 4907 0019 00000000 		.4byte	0
 4908 001d 00000000 		.4byte	0
 4909              	.LLST1:
 4910 0021 00000000 		.4byte	.LVL2
 4911 0025 09000000 		.4byte	.LVL3-1
 4912 0029 0100     		.2byte	0x1
 4913 002b 50       		.byte	0x50
 4914 002c 09000000 		.4byte	.LVL3-1
 4915 0030 0E000000 		.4byte	.LFE15
 4916 0034 0400     		.2byte	0x4
 4917 0036 F3       		.byte	0xf3
 4918 0037 01       		.uleb128 0x1
 4919 0038 50       		.byte	0x50
 4920 0039 9F       		.byte	0x9f
 4921 003a 00000000 		.4byte	0
ARM GAS  C:\Users\brian\AppData\Local\Temp\ccibXfrV.s 			page 107


 4922 003e 00000000 		.4byte	0
 4923              	.LLST2:
 4924 0042 00000000 		.4byte	.LVL4
 4925 0046 09000000 		.4byte	.LVL5-1
 4926 004a 0100     		.2byte	0x1
 4927 004c 50       		.byte	0x50
 4928 004d 09000000 		.4byte	.LVL5-1
 4929 0051 0E000000 		.4byte	.LFE16
 4930 0055 0400     		.2byte	0x4
 4931 0057 F3       		.byte	0xf3
 4932 0058 01       		.uleb128 0x1
 4933 0059 50       		.byte	0x50
 4934 005a 9F       		.byte	0x9f
 4935 005b 00000000 		.4byte	0
 4936 005f 00000000 		.4byte	0
 4937              	.LLST3:
 4938 0063 00000000 		.4byte	.LVL6
 4939 0067 04000000 		.4byte	.LVL7
 4940 006b 0100     		.2byte	0x1
 4941 006d 50       		.byte	0x50
 4942 006e 04000000 		.4byte	.LVL7
 4943 0072 0E000000 		.4byte	.LFE17
 4944 0076 0400     		.2byte	0x4
 4945 0078 F3       		.byte	0xf3
 4946 0079 01       		.uleb128 0x1
 4947 007a 50       		.byte	0x50
 4948 007b 9F       		.byte	0x9f
 4949 007c 00000000 		.4byte	0
 4950 0080 00000000 		.4byte	0
 4951              	.LLST4:
 4952 0084 00000000 		.4byte	.LVL8
 4953 0088 07000000 		.4byte	.LVL9-1
 4954 008c 0100     		.2byte	0x1
 4955 008e 50       		.byte	0x50
 4956 008f 07000000 		.4byte	.LVL9-1
 4957 0093 24000000 		.4byte	.LFE18
 4958 0097 0100     		.2byte	0x1
 4959 0099 54       		.byte	0x54
 4960 009a 00000000 		.4byte	0
 4961 009e 00000000 		.4byte	0
 4962              	.LLST5:
 4963 00a2 00000000 		.4byte	.LVL10
 4964 00a6 07000000 		.4byte	.LVL11-1
 4965 00aa 0100     		.2byte	0x1
 4966 00ac 50       		.byte	0x50
 4967 00ad 07000000 		.4byte	.LVL11-1
 4968 00b1 16000000 		.4byte	.LFE19
 4969 00b5 0100     		.2byte	0x1
 4970 00b7 54       		.byte	0x54
 4971 00b8 00000000 		.4byte	0
 4972 00bc 00000000 		.4byte	0
 4973              	.LLST6:
 4974 00c0 00000000 		.4byte	.LVL12
 4975 00c4 07000000 		.4byte	.LVL13-1
 4976 00c8 0100     		.2byte	0x1
 4977 00ca 50       		.byte	0x50
 4978 00cb 07000000 		.4byte	.LVL13-1
ARM GAS  C:\Users\brian\AppData\Local\Temp\ccibXfrV.s 			page 108


 4979 00cf 12000000 		.4byte	.LFE20
 4980 00d3 0100     		.2byte	0x1
 4981 00d5 54       		.byte	0x54
 4982 00d6 00000000 		.4byte	0
 4983 00da 00000000 		.4byte	0
 4984              	.LLST7:
 4985 00de 00000000 		.4byte	.LVL14
 4986 00e2 07000000 		.4byte	.LVL15-1
 4987 00e6 0100     		.2byte	0x1
 4988 00e8 50       		.byte	0x50
 4989 00e9 07000000 		.4byte	.LVL15-1
 4990 00ed 30000000 		.4byte	.LFE21
 4991 00f1 0100     		.2byte	0x1
 4992 00f3 54       		.byte	0x54
 4993 00f4 00000000 		.4byte	0
 4994 00f8 00000000 		.4byte	0
 4995              	.LLST8:
 4996 00fc 00000000 		.4byte	.LVL16
 4997 0100 07000000 		.4byte	.LVL17-1
 4998 0104 0100     		.2byte	0x1
 4999 0106 50       		.byte	0x50
 5000 0107 07000000 		.4byte	.LVL17-1
 5001 010b 28000000 		.4byte	.LFE22
 5002 010f 0100     		.2byte	0x1
 5003 0111 54       		.byte	0x54
 5004 0112 00000000 		.4byte	0
 5005 0116 00000000 		.4byte	0
 5006              	.LLST9:
 5007 011a 00000000 		.4byte	.LVL18
 5008 011e 02000000 		.4byte	.LVL19
 5009 0122 0100     		.2byte	0x1
 5010 0124 50       		.byte	0x50
 5011 0125 02000000 		.4byte	.LVL19
 5012 0129 04000000 		.4byte	.LFE0
 5013 012d 0400     		.2byte	0x4
 5014 012f F3       		.byte	0xf3
 5015 0130 01       		.uleb128 0x1
 5016 0131 50       		.byte	0x50
 5017 0132 9F       		.byte	0x9f
 5018 0133 00000000 		.4byte	0
 5019 0137 00000000 		.4byte	0
 5020              	.LLST10:
 5021 013b 00000000 		.4byte	.LVL20
 5022 013f 05000000 		.4byte	.LVL21-1
 5023 0143 0100     		.2byte	0x1
 5024 0145 50       		.byte	0x50
 5025 0146 05000000 		.4byte	.LVL21-1
 5026 014a 8C000000 		.4byte	.LFE1
 5027 014e 0400     		.2byte	0x4
 5028 0150 F3       		.byte	0xf3
 5029 0151 01       		.uleb128 0x1
 5030 0152 50       		.byte	0x50
 5031 0153 9F       		.byte	0x9f
 5032 0154 00000000 		.4byte	0
 5033 0158 00000000 		.4byte	0
 5034              	.LLST11:
 5035 015c 06000000 		.4byte	.LVL21
ARM GAS  C:\Users\brian\AppData\Local\Temp\ccibXfrV.s 			page 109


 5036 0160 6A000000 		.4byte	.LVL23
 5037 0164 0100     		.2byte	0x1
 5038 0166 50       		.byte	0x50
 5039 0167 6C000000 		.4byte	.LVL24
 5040 016b 6E000000 		.4byte	.LVL25
 5041 016f 0100     		.2byte	0x1
 5042 0171 50       		.byte	0x50
 5043 0172 70000000 		.4byte	.LVL26
 5044 0176 72000000 		.4byte	.LVL27
 5045 017a 0100     		.2byte	0x1
 5046 017c 50       		.byte	0x50
 5047 017d 74000000 		.4byte	.LVL28
 5048 0181 76000000 		.4byte	.LVL29
 5049 0185 0100     		.2byte	0x1
 5050 0187 50       		.byte	0x50
 5051 0188 78000000 		.4byte	.LVL30
 5052 018c 7A000000 		.4byte	.LVL31
 5053 0190 0100     		.2byte	0x1
 5054 0192 50       		.byte	0x50
 5055 0193 7C000000 		.4byte	.LVL32
 5056 0197 7E000000 		.4byte	.LVL33
 5057 019b 0100     		.2byte	0x1
 5058 019d 50       		.byte	0x50
 5059 019e 80000000 		.4byte	.LVL34
 5060 01a2 82000000 		.4byte	.LVL35
 5061 01a6 0100     		.2byte	0x1
 5062 01a8 50       		.byte	0x50
 5063 01a9 84000000 		.4byte	.LVL36
 5064 01ad 86000000 		.4byte	.LVL37
 5065 01b1 0100     		.2byte	0x1
 5066 01b3 50       		.byte	0x50
 5067 01b4 88000000 		.4byte	.LVL38
 5068 01b8 8A000000 		.4byte	.LVL39
 5069 01bc 0100     		.2byte	0x1
 5070 01be 50       		.byte	0x50
 5071 01bf 00000000 		.4byte	0
 5072 01c3 00000000 		.4byte	0
 5073              	.LLST12:
 5074 01c7 00000000 		.4byte	.LVL40
 5075 01cb 0A000000 		.4byte	.LVL42
 5076 01cf 0100     		.2byte	0x1
 5077 01d1 50       		.byte	0x50
 5078 01d2 0A000000 		.4byte	.LVL42
 5079 01d6 50000000 		.4byte	.LFE2
 5080 01da 0100     		.2byte	0x1
 5081 01dc 58       		.byte	0x58
 5082 01dd 00000000 		.4byte	0
 5083 01e1 00000000 		.4byte	0
 5084              	.LLST13:
 5085 01e5 00000000 		.4byte	.LVL40
 5086 01e9 0D000000 		.4byte	.LVL43-1
 5087 01ed 0100     		.2byte	0x1
 5088 01ef 51       		.byte	0x51
 5089 01f0 0D000000 		.4byte	.LVL43-1
 5090 01f4 50000000 		.4byte	.LFE2
 5091 01f8 0100     		.2byte	0x1
 5092 01fa 57       		.byte	0x57
ARM GAS  C:\Users\brian\AppData\Local\Temp\ccibXfrV.s 			page 110


 5093 01fb 00000000 		.4byte	0
 5094 01ff 00000000 		.4byte	0
 5095              	.LLST14:
 5096 0203 08000000 		.4byte	.LVL41
 5097 0207 1A000000 		.4byte	.LVL46
 5098 020b 0200     		.2byte	0x2
 5099 020d 30       		.byte	0x30
 5100 020e 9F       		.byte	0x9f
 5101 020f 1A000000 		.4byte	.LVL46
 5102 0213 30000000 		.4byte	.LVL49
 5103 0217 0100     		.2byte	0x1
 5104 0219 54       		.byte	0x54
 5105 021a 30000000 		.4byte	.LVL49
 5106 021e 38000000 		.4byte	.LVL50
 5107 0222 0100     		.2byte	0x1
 5108 0224 52       		.byte	0x52
 5109 0225 38000000 		.4byte	.LVL50
 5110 0229 3E000000 		.4byte	.LVL52
 5111 022d 0100     		.2byte	0x1
 5112 022f 54       		.byte	0x54
 5113 0230 4A000000 		.4byte	.LVL54
 5114 0234 50000000 		.4byte	.LFE2
 5115 0238 0200     		.2byte	0x2
 5116 023a 30       		.byte	0x30
 5117 023b 9F       		.byte	0x9f
 5118 023c 00000000 		.4byte	0
 5119 0240 00000000 		.4byte	0
 5120              	.LLST15:
 5121 0244 20000000 		.4byte	.LVL47
 5122 0248 46000000 		.4byte	.LVL53
 5123 024c 0100     		.2byte	0x1
 5124 024e 50       		.byte	0x50
 5125 024f 00000000 		.4byte	0
 5126 0253 00000000 		.4byte	0
 5127              	.LLST16:
 5128 0257 12000000 		.4byte	.LVL44
 5129 025b 18000000 		.4byte	.LVL45
 5130 025f 0100     		.2byte	0x1
 5131 0261 57       		.byte	0x57
 5132 0262 18000000 		.4byte	.LVL45
 5133 0266 4A000000 		.4byte	.LVL54
 5134 026a 0100     		.2byte	0x1
 5135 026c 55       		.byte	0x55
 5136 026d 4A000000 		.4byte	.LVL54
 5137 0271 50000000 		.4byte	.LFE2
 5138 0275 0100     		.2byte	0x1
 5139 0277 57       		.byte	0x57
 5140 0278 00000000 		.4byte	0
 5141 027c 00000000 		.4byte	0
 5142              	.LLST17:
 5143 0280 00000000 		.4byte	.LVL55
 5144 0284 08000000 		.4byte	.LVL56
 5145 0288 0100     		.2byte	0x1
 5146 028a 50       		.byte	0x50
 5147 028b 08000000 		.4byte	.LVL56
 5148 028f 38000000 		.4byte	.LFE7
 5149 0293 0100     		.2byte	0x1
ARM GAS  C:\Users\brian\AppData\Local\Temp\ccibXfrV.s 			page 111


 5150 0295 56       		.byte	0x56
 5151 0296 00000000 		.4byte	0
 5152 029a 00000000 		.4byte	0
 5153              	.LLST18:
 5154 029e 00000000 		.4byte	.LVL55
 5155 02a2 0B000000 		.4byte	.LVL57-1
 5156 02a6 0100     		.2byte	0x1
 5157 02a8 51       		.byte	0x51
 5158 02a9 0B000000 		.4byte	.LVL57-1
 5159 02ad 38000000 		.4byte	.LFE7
 5160 02b1 0100     		.2byte	0x1
 5161 02b3 54       		.byte	0x54
 5162 02b4 00000000 		.4byte	0
 5163 02b8 00000000 		.4byte	0
 5164              	.LLST19:
 5165 02bc 0E000000 		.4byte	.LVL58
 5166 02c0 10000000 		.4byte	.LVL59
 5167 02c4 0100     		.2byte	0x1
 5168 02c6 50       		.byte	0x50
 5169 02c7 10000000 		.4byte	.LVL59
 5170 02cb 38000000 		.4byte	.LFE7
 5171 02cf 0100     		.2byte	0x1
 5172 02d1 55       		.byte	0x55
 5173 02d2 00000000 		.4byte	0
 5174 02d6 00000000 		.4byte	0
 5175              	.LLST20:
 5176 02da 14000000 		.4byte	.LVL60
 5177 02de 2E000000 		.4byte	.LVL61
 5178 02e2 0100     		.2byte	0x1
 5179 02e4 50       		.byte	0x50
 5180 02e5 00000000 		.4byte	0
 5181 02e9 00000000 		.4byte	0
 5182              	.LLST21:
 5183 02ed 00000000 		.4byte	.LVL64
 5184 02f1 06000000 		.4byte	.LVL66
 5185 02f5 0100     		.2byte	0x1
 5186 02f7 50       		.byte	0x50
 5187 02f8 06000000 		.4byte	.LVL66
 5188 02fc 38000000 		.4byte	.LVL70
 5189 0300 0100     		.2byte	0x1
 5190 0302 55       		.byte	0x55
 5191 0303 38000000 		.4byte	.LVL70
 5192 0307 48000000 		.4byte	.LFE4
 5193 030b 0400     		.2byte	0x4
 5194 030d F3       		.byte	0xf3
 5195 030e 01       		.uleb128 0x1
 5196 030f 50       		.byte	0x50
 5197 0310 9F       		.byte	0x9f
 5198 0311 00000000 		.4byte	0
 5199 0315 00000000 		.4byte	0
 5200              	.LLST22:
 5201 0319 0E000000 		.4byte	.LVL67
 5202 031d 42000000 		.4byte	.LVL71
 5203 0321 0100     		.2byte	0x1
 5204 0323 50       		.byte	0x50
 5205 0324 44000000 		.4byte	.LVL72
 5206 0328 46000000 		.4byte	.LVL73
ARM GAS  C:\Users\brian\AppData\Local\Temp\ccibXfrV.s 			page 112


 5207 032c 0100     		.2byte	0x1
 5208 032e 50       		.byte	0x50
 5209 032f 00000000 		.4byte	0
 5210 0333 00000000 		.4byte	0
 5211              	.LLST23:
 5212 0337 04000000 		.4byte	.LVL65
 5213 033b 06000000 		.4byte	.LVL66
 5214 033f 0200     		.2byte	0x2
 5215 0341 30       		.byte	0x30
 5216 0342 9F       		.byte	0x9f
 5217 0343 06000000 		.4byte	.LVL66
 5218 0347 28000000 		.4byte	.LVL68
 5219 034b 0100     		.2byte	0x1
 5220 034d 56       		.byte	0x56
 5221 034e 28000000 		.4byte	.LVL68
 5222 0352 30000000 		.4byte	.LVL69
 5223 0356 0100     		.2byte	0x1
 5224 0358 52       		.byte	0x52
 5225 0359 30000000 		.4byte	.LVL69
 5226 035d 48000000 		.4byte	.LFE4
 5227 0361 0100     		.2byte	0x1
 5228 0363 56       		.byte	0x56
 5229 0364 00000000 		.4byte	0
 5230 0368 00000000 		.4byte	0
 5231              	.LLST24:
 5232 036c 00000000 		.4byte	.LVL74
 5233 0370 0A000000 		.4byte	.LVL75
 5234 0374 0100     		.2byte	0x1
 5235 0376 50       		.byte	0x50
 5236 0377 0A000000 		.4byte	.LVL75
 5237 037b 28000000 		.4byte	.LFE3
 5238 037f 0100     		.2byte	0x1
 5239 0381 55       		.byte	0x55
 5240 0382 00000000 		.4byte	0
 5241 0386 00000000 		.4byte	0
 5242              	.LLST25:
 5243 038a 00000000 		.4byte	.LVL79
 5244 038e 09000000 		.4byte	.LVL80-1
 5245 0392 0100     		.2byte	0x1
 5246 0394 50       		.byte	0x50
 5247 0395 09000000 		.4byte	.LVL80-1
 5248 0399 28000000 		.4byte	.LFE5
 5249 039d 0100     		.2byte	0x1
 5250 039f 55       		.byte	0x55
 5251 03a0 00000000 		.4byte	0
 5252 03a4 00000000 		.4byte	0
 5253              	.LLST26:
 5254 03a8 00000000 		.4byte	.LVL79
 5255 03ac 09000000 		.4byte	.LVL80-1
 5256 03b0 0100     		.2byte	0x1
 5257 03b2 51       		.byte	0x51
 5258 03b3 09000000 		.4byte	.LVL80-1
 5259 03b7 0E000000 		.4byte	.LVL81
 5260 03bb 0400     		.2byte	0x4
 5261 03bd F3       		.byte	0xf3
 5262 03be 01       		.uleb128 0x1
 5263 03bf 51       		.byte	0x51
ARM GAS  C:\Users\brian\AppData\Local\Temp\ccibXfrV.s 			page 113


 5264 03c0 9F       		.byte	0x9f
 5265 03c1 0E000000 		.4byte	.LVL81
 5266 03c5 12000000 		.4byte	.LVL82
 5267 03c9 0100     		.2byte	0x1
 5268 03cb 54       		.byte	0x54
 5269 03cc 14000000 		.4byte	.LVL83
 5270 03d0 24000000 		.4byte	.LVL85
 5271 03d4 0100     		.2byte	0x1
 5272 03d6 54       		.byte	0x54
 5273 03d7 00000000 		.4byte	0
 5274 03db 00000000 		.4byte	0
 5275              	.LLST27:
 5276 03df 00000000 		.4byte	.LVL86
 5277 03e3 07000000 		.4byte	.LVL88-1
 5278 03e7 0100     		.2byte	0x1
 5279 03e9 50       		.byte	0x50
 5280 03ea 07000000 		.4byte	.LVL88-1
 5281 03ee 22000000 		.4byte	.LFE6
 5282 03f2 0100     		.2byte	0x1
 5283 03f4 55       		.byte	0x55
 5284 03f5 00000000 		.4byte	0
 5285 03f9 00000000 		.4byte	0
 5286              	.LLST28:
 5287 03fd 04000000 		.4byte	.LVL87
 5288 0401 0C000000 		.4byte	.LVL89
 5289 0405 0200     		.2byte	0x2
 5290 0407 30       		.byte	0x30
 5291 0408 9F       		.byte	0x9f
 5292 0409 0C000000 		.4byte	.LVL89
 5293 040d 0E000000 		.4byte	.LVL90
 5294 0411 0100     		.2byte	0x1
 5295 0413 54       		.byte	0x54
 5296 0414 10000000 		.4byte	.LVL91
 5297 0418 1C000000 		.4byte	.LVL93
 5298 041c 0100     		.2byte	0x1
 5299 041e 54       		.byte	0x54
 5300 041f 1C000000 		.4byte	.LVL93
 5301 0423 1E000000 		.4byte	.LVL94
 5302 0427 0200     		.2byte	0x2
 5303 0429 30       		.byte	0x30
 5304 042a 9F       		.byte	0x9f
 5305 042b 1E000000 		.4byte	.LVL94
 5306 042f 22000000 		.4byte	.LFE6
 5307 0433 0100     		.2byte	0x1
 5308 0435 54       		.byte	0x54
 5309 0436 00000000 		.4byte	0
 5310 043a 00000000 		.4byte	0
 5311              	.LLST29:
 5312 043e 00000000 		.4byte	.LVL95
 5313 0442 11000000 		.4byte	.LVL98-1
 5314 0446 0100     		.2byte	0x1
 5315 0448 50       		.byte	0x50
 5316 0449 11000000 		.4byte	.LVL98-1
 5317 044d 1E000000 		.4byte	.LFE8
 5318 0451 0100     		.2byte	0x1
 5319 0453 54       		.byte	0x54
 5320 0454 00000000 		.4byte	0
ARM GAS  C:\Users\brian\AppData\Local\Temp\ccibXfrV.s 			page 114


 5321 0458 00000000 		.4byte	0
 5322              	.LLST30:
 5323 045c 00000000 		.4byte	.LVL95
 5324 0460 0E000000 		.4byte	.LVL97
 5325 0464 0100     		.2byte	0x1
 5326 0466 51       		.byte	0x51
 5327 0467 0E000000 		.4byte	.LVL97
 5328 046b 1E000000 		.4byte	.LFE8
 5329 046f 0100     		.2byte	0x1
 5330 0471 55       		.byte	0x55
 5331 0472 00000000 		.4byte	0
 5332 0476 00000000 		.4byte	0
 5333              	.LLST31:
 5334 047a 00000000 		.4byte	.LVL95
 5335 047e 0C000000 		.4byte	.LVL96
 5336 0482 0100     		.2byte	0x1
 5337 0484 52       		.byte	0x52
 5338 0485 0C000000 		.4byte	.LVL96
 5339 0489 1E000000 		.4byte	.LFE8
 5340 048d 0100     		.2byte	0x1
 5341 048f 57       		.byte	0x57
 5342 0490 00000000 		.4byte	0
 5343 0494 00000000 		.4byte	0
 5344              	.LLST32:
 5345 0498 00000000 		.4byte	.LVL95
 5346 049c 11000000 		.4byte	.LVL98-1
 5347 04a0 0100     		.2byte	0x1
 5348 04a2 53       		.byte	0x53
 5349 04a3 11000000 		.4byte	.LVL98-1
 5350 04a7 1E000000 		.4byte	.LFE8
 5351 04ab 0100     		.2byte	0x1
 5352 04ad 56       		.byte	0x56
 5353 04ae 00000000 		.4byte	0
 5354 04b2 00000000 		.4byte	0
 5355              	.LLST33:
 5356 04b6 00000000 		.4byte	.LVL99
 5357 04ba 1E000000 		.4byte	.LVL102
 5358 04be 0100     		.2byte	0x1
 5359 04c0 50       		.byte	0x50
 5360 04c1 1E000000 		.4byte	.LVL102
 5361 04c5 20000000 		.4byte	.LVL103
 5362 04c9 0400     		.2byte	0x4
 5363 04cb F3       		.byte	0xf3
 5364 04cc 01       		.uleb128 0x1
 5365 04cd 50       		.byte	0x50
 5366 04ce 9F       		.byte	0x9f
 5367 04cf 20000000 		.4byte	.LVL103
 5368 04d3 2C000000 		.4byte	.LVL105
 5369 04d7 0100     		.2byte	0x1
 5370 04d9 50       		.byte	0x50
 5371 04da 2C000000 		.4byte	.LVL105
 5372 04de 30000000 		.4byte	.LFE9
 5373 04e2 0400     		.2byte	0x4
 5374 04e4 F3       		.byte	0xf3
 5375 04e5 01       		.uleb128 0x1
 5376 04e6 50       		.byte	0x50
 5377 04e7 9F       		.byte	0x9f
ARM GAS  C:\Users\brian\AppData\Local\Temp\ccibXfrV.s 			page 115


 5378 04e8 00000000 		.4byte	0
 5379 04ec 00000000 		.4byte	0
 5380              	.LLST34:
 5381 04f0 02000000 		.4byte	.LVL100
 5382 04f4 06000000 		.4byte	.LVL101
 5383 04f8 0200     		.2byte	0x2
 5384 04fa 30       		.byte	0x30
 5385 04fb 9F       		.byte	0x9f
 5386 04fc 06000000 		.4byte	.LVL101
 5387 0500 30000000 		.4byte	.LFE9
 5388 0504 0100     		.2byte	0x1
 5389 0506 53       		.byte	0x53
 5390 0507 00000000 		.4byte	0
 5391 050b 00000000 		.4byte	0
 5392              	.LLST35:
 5393 050f 00000000 		.4byte	.LVL106
 5394 0513 1D000000 		.4byte	.LVL107-1
 5395 0517 0100     		.2byte	0x1
 5396 0519 50       		.byte	0x50
 5397 051a 1D000000 		.4byte	.LVL107-1
 5398 051e 34010000 		.4byte	.LFE10
 5399 0522 0100     		.2byte	0x1
 5400 0524 54       		.byte	0x54
 5401 0525 00000000 		.4byte	0
 5402 0529 00000000 		.4byte	0
 5403              	.LLST36:
 5404 052d 16010000 		.4byte	.LVL120
 5405 0531 20010000 		.4byte	.LVL121
 5406 0535 0100     		.2byte	0x1
 5407 0537 50       		.byte	0x50
 5408 0538 2E010000 		.4byte	.LVL122
 5409 053c 30010000 		.4byte	.LVL123
 5410 0540 0100     		.2byte	0x1
 5411 0542 50       		.byte	0x50
 5412 0543 00000000 		.4byte	0
 5413 0547 00000000 		.4byte	0
 5414              	.LLST37:
 5415 054b 00000000 		.4byte	.LVL124
 5416 054f 0B000000 		.4byte	.LVL126-1
 5417 0553 0100     		.2byte	0x1
 5418 0555 50       		.byte	0x50
 5419 0556 0B000000 		.4byte	.LVL126-1
 5420 055a 38000000 		.4byte	.LFE11
 5421 055e 0100     		.2byte	0x1
 5422 0560 54       		.byte	0x54
 5423 0561 00000000 		.4byte	0
 5424 0565 00000000 		.4byte	0
 5425              	.LLST38:
 5426 0569 00000000 		.4byte	.LVL124
 5427 056d 08000000 		.4byte	.LVL125
 5428 0571 0100     		.2byte	0x1
 5429 0573 51       		.byte	0x51
 5430 0574 08000000 		.4byte	.LVL125
 5431 0578 38000000 		.4byte	.LFE11
 5432 057c 0100     		.2byte	0x1
 5433 057e 55       		.byte	0x55
 5434 057f 00000000 		.4byte	0
ARM GAS  C:\Users\brian\AppData\Local\Temp\ccibXfrV.s 			page 116


 5435 0583 00000000 		.4byte	0
 5436              	.LLST39:
 5437 0587 18000000 		.4byte	.LVL127
 5438 058b 20000000 		.4byte	.LVL128
 5439 058f 0100     		.2byte	0x1
 5440 0591 50       		.byte	0x50
 5441 0592 00000000 		.4byte	0
 5442 0596 00000000 		.4byte	0
 5443              	.LLST40:
 5444 059a 00000000 		.4byte	.LVL131
 5445 059e 11000000 		.4byte	.LVL132-1
 5446 05a2 0100     		.2byte	0x1
 5447 05a4 50       		.byte	0x50
 5448 05a5 11000000 		.4byte	.LVL132-1
 5449 05a9 14000000 		.4byte	.LFE12
 5450 05ad 0400     		.2byte	0x4
 5451 05af F3       		.byte	0xf3
 5452 05b0 01       		.uleb128 0x1
 5453 05b1 50       		.byte	0x50
 5454 05b2 9F       		.byte	0x9f
 5455 05b3 00000000 		.4byte	0
 5456 05b7 00000000 		.4byte	0
 5457              	.LLST41:
 5458 05bb 00000000 		.4byte	.LVL131
 5459 05bf 11000000 		.4byte	.LVL132-1
 5460 05c3 0100     		.2byte	0x1
 5461 05c5 51       		.byte	0x51
 5462 05c6 11000000 		.4byte	.LVL132-1
 5463 05ca 14000000 		.4byte	.LFE12
 5464 05ce 0400     		.2byte	0x4
 5465 05d0 F3       		.byte	0xf3
 5466 05d1 01       		.uleb128 0x1
 5467 05d2 51       		.byte	0x51
 5468 05d3 9F       		.byte	0x9f
 5469 05d4 00000000 		.4byte	0
 5470 05d8 00000000 		.4byte	0
 5471              	.LLST42:
 5472 05dc 00000000 		.4byte	.LVL133
 5473 05e0 0F000000 		.4byte	.LVL134-1
 5474 05e4 0100     		.2byte	0x1
 5475 05e6 50       		.byte	0x50
 5476 05e7 0F000000 		.4byte	.LVL134-1
 5477 05eb 22000000 		.4byte	.LVL136
 5478 05ef 0100     		.2byte	0x1
 5479 05f1 54       		.byte	0x54
 5480 05f2 22000000 		.4byte	.LVL136
 5481 05f6 24000000 		.4byte	.LVL137
 5482 05fa 0100     		.2byte	0x1
 5483 05fc 50       		.byte	0x50
 5484 05fd 24000000 		.4byte	.LVL137
 5485 0601 28000000 		.4byte	.LFE24
 5486 0605 0400     		.2byte	0x4
 5487 0607 F3       		.byte	0xf3
 5488 0608 01       		.uleb128 0x1
 5489 0609 50       		.byte	0x50
 5490 060a 9F       		.byte	0x9f
 5491 060b 00000000 		.4byte	0
ARM GAS  C:\Users\brian\AppData\Local\Temp\ccibXfrV.s 			page 117


 5492 060f 00000000 		.4byte	0
 5493              	.LLST43:
 5494 0613 00000000 		.4byte	.LVL133
 5495 0617 0F000000 		.4byte	.LVL134-1
 5496 061b 0100     		.2byte	0x1
 5497 061d 51       		.byte	0x51
 5498 061e 0F000000 		.4byte	.LVL134-1
 5499 0622 22000000 		.4byte	.LVL136
 5500 0626 0400     		.2byte	0x4
 5501 0628 F3       		.byte	0xf3
 5502 0629 01       		.uleb128 0x1
 5503 062a 51       		.byte	0x51
 5504 062b 9F       		.byte	0x9f
 5505 062c 22000000 		.4byte	.LVL136
 5506 0630 24000000 		.4byte	.LVL137
 5507 0634 0100     		.2byte	0x1
 5508 0636 51       		.byte	0x51
 5509 0637 24000000 		.4byte	.LVL137
 5510 063b 28000000 		.4byte	.LFE24
 5511 063f 0400     		.2byte	0x4
 5512 0641 F3       		.byte	0xf3
 5513 0642 01       		.uleb128 0x1
 5514 0643 51       		.byte	0x51
 5515 0644 9F       		.byte	0x9f
 5516 0645 00000000 		.4byte	0
 5517 0649 00000000 		.4byte	0
 5518              	.LLST44:
 5519 064d 00000000 		.4byte	.LVL138
 5520 0651 0D000000 		.4byte	.LVL139-1
 5521 0655 0100     		.2byte	0x1
 5522 0657 50       		.byte	0x50
 5523 0658 0D000000 		.4byte	.LVL139-1
 5524 065c 10000000 		.4byte	.LFE30
 5525 0660 0400     		.2byte	0x4
 5526 0662 F3       		.byte	0xf3
 5527 0663 01       		.uleb128 0x1
 5528 0664 50       		.byte	0x50
 5529 0665 9F       		.byte	0x9f
 5530 0666 00000000 		.4byte	0
 5531 066a 00000000 		.4byte	0
 5532              	.LLST45:
 5533 066e 00000000 		.4byte	.LVL140
 5534 0672 08000000 		.4byte	.LVL141
 5535 0676 0100     		.2byte	0x1
 5536 0678 50       		.byte	0x50
 5537 0679 08000000 		.4byte	.LVL141
 5538 067d 32000000 		.4byte	.LFE13
 5539 0681 0100     		.2byte	0x1
 5540 0683 55       		.byte	0x55
 5541 0684 00000000 		.4byte	0
 5542 0688 00000000 		.4byte	0
 5543              	.LLST46:
 5544 068c 00000000 		.4byte	.LVL140
 5545 0690 08000000 		.4byte	.LVL141
 5546 0694 0100     		.2byte	0x1
 5547 0696 51       		.byte	0x51
 5548 0697 08000000 		.4byte	.LVL141
ARM GAS  C:\Users\brian\AppData\Local\Temp\ccibXfrV.s 			page 118


 5549 069b 32000000 		.4byte	.LFE13
 5550 069f 0400     		.2byte	0x4
 5551 06a1 F3       		.byte	0xf3
 5552 06a2 01       		.uleb128 0x1
 5553 06a3 51       		.byte	0x51
 5554 06a4 9F       		.byte	0x9f
 5555 06a5 00000000 		.4byte	0
 5556 06a9 00000000 		.4byte	0
 5557              	.LLST47:
 5558 06ad 0E000000 		.4byte	.LVL142
 5559 06b1 16000000 		.4byte	.LVL143
 5560 06b5 0100     		.2byte	0x1
 5561 06b7 50       		.byte	0x50
 5562 06b8 2A000000 		.4byte	.LVL147
 5563 06bc 2C000000 		.4byte	.LVL148
 5564 06c0 0100     		.2byte	0x1
 5565 06c2 50       		.byte	0x50
 5566 06c3 00000000 		.4byte	0
 5567 06c7 00000000 		.4byte	0
 5568              	.LLST48:
 5569 06cb 00000000 		.4byte	.LVL150
 5570 06cf 07000000 		.4byte	.LVL151-1
 5571 06d3 0100     		.2byte	0x1
 5572 06d5 50       		.byte	0x50
 5573 06d6 07000000 		.4byte	.LVL151-1
 5574 06da 22000000 		.4byte	.LFE23
 5575 06de 0100     		.2byte	0x1
 5576 06e0 54       		.byte	0x54
 5577 06e1 00000000 		.4byte	0
 5578 06e5 00000000 		.4byte	0
 5579              	.LLST49:
 5580 06e9 00000000 		.4byte	.LVL152
 5581 06ed 0F000000 		.4byte	.LVL153-1
 5582 06f1 0100     		.2byte	0x1
 5583 06f3 50       		.byte	0x50
 5584 06f4 0F000000 		.4byte	.LVL153-1
 5585 06f8 16000000 		.4byte	.LVL154
 5586 06fc 0100     		.2byte	0x1
 5587 06fe 54       		.byte	0x54
 5588 06ff 16000000 		.4byte	.LVL154
 5589 0703 1C000000 		.4byte	.LFE25
 5590 0707 0400     		.2byte	0x4
 5591 0709 F3       		.byte	0xf3
 5592 070a 01       		.uleb128 0x1
 5593 070b 50       		.byte	0x50
 5594 070c 9F       		.byte	0x9f
 5595 070d 00000000 		.4byte	0
 5596 0711 00000000 		.4byte	0
 5597              	.LLST50:
 5598 0715 00000000 		.4byte	.LVL155
 5599 0719 07000000 		.4byte	.LVL156-1
 5600 071d 0100     		.2byte	0x1
 5601 071f 50       		.byte	0x50
 5602 0720 07000000 		.4byte	.LVL156-1
 5603 0724 10000000 		.4byte	.LFE26
 5604 0728 0400     		.2byte	0x4
 5605 072a F3       		.byte	0xf3
ARM GAS  C:\Users\brian\AppData\Local\Temp\ccibXfrV.s 			page 119


 5606 072b 01       		.uleb128 0x1
 5607 072c 50       		.byte	0x50
 5608 072d 9F       		.byte	0x9f
 5609 072e 00000000 		.4byte	0
 5610 0732 00000000 		.4byte	0
 5611              	.LLST51:
 5612 0736 00000000 		.4byte	.LVL157
 5613 073a 09000000 		.4byte	.LVL158-1
 5614 073e 0100     		.2byte	0x1
 5615 0740 50       		.byte	0x50
 5616 0741 09000000 		.4byte	.LVL158-1
 5617 0745 1E000000 		.4byte	.LVL160
 5618 0749 0100     		.2byte	0x1
 5619 074b 54       		.byte	0x54
 5620 074c 1E000000 		.4byte	.LVL160
 5621 0750 28000000 		.4byte	.LFE27
 5622 0754 0400     		.2byte	0x4
 5623 0756 F3       		.byte	0xf3
 5624 0757 01       		.uleb128 0x1
 5625 0758 50       		.byte	0x50
 5626 0759 9F       		.byte	0x9f
 5627 075a 00000000 		.4byte	0
 5628 075e 00000000 		.4byte	0
 5629              	.LLST52:
 5630 0762 00000000 		.4byte	.LVL161
 5631 0766 0F000000 		.4byte	.LVL165-1
 5632 076a 0100     		.2byte	0x1
 5633 076c 50       		.byte	0x50
 5634 076d 0F000000 		.4byte	.LVL165-1
 5635 0771 16000000 		.4byte	.LFE28
 5636 0775 0100     		.2byte	0x1
 5637 0777 54       		.byte	0x54
 5638 0778 00000000 		.4byte	0
 5639 077c 00000000 		.4byte	0
 5640              	.LLST53:
 5641 0780 00000000 		.4byte	.LVL161
 5642 0784 0C000000 		.4byte	.LVL164
 5643 0788 0100     		.2byte	0x1
 5644 078a 51       		.byte	0x51
 5645 078b 0C000000 		.4byte	.LVL164
 5646 078f 0F000000 		.4byte	.LVL165-1
 5647 0793 0200     		.2byte	0x2
 5648 0795 70       		.byte	0x70
 5649 0796 34       		.sleb128 52
 5650 0797 0F000000 		.4byte	.LVL165-1
 5651 079b 16000000 		.4byte	.LFE28
 5652 079f 0400     		.2byte	0x4
 5653 07a1 F3       		.byte	0xf3
 5654 07a2 01       		.uleb128 0x1
 5655 07a3 51       		.byte	0x51
 5656 07a4 9F       		.byte	0x9f
 5657 07a5 00000000 		.4byte	0
 5658 07a9 00000000 		.4byte	0
 5659              	.LLST54:
 5660 07ad 00000000 		.4byte	.LVL161
 5661 07b1 0F000000 		.4byte	.LVL165-1
 5662 07b5 0100     		.2byte	0x1
ARM GAS  C:\Users\brian\AppData\Local\Temp\ccibXfrV.s 			page 120


 5663 07b7 52       		.byte	0x52
 5664 07b8 0F000000 		.4byte	.LVL165-1
 5665 07bc 16000000 		.4byte	.LFE28
 5666 07c0 0400     		.2byte	0x4
 5667 07c2 F3       		.byte	0xf3
 5668 07c3 01       		.uleb128 0x1
 5669 07c4 52       		.byte	0x52
 5670 07c5 9F       		.byte	0x9f
 5671 07c6 00000000 		.4byte	0
 5672 07ca 00000000 		.4byte	0
 5673              	.LLST55:
 5674 07ce 00000000 		.4byte	.LVL166
 5675 07d2 0D000000 		.4byte	.LVL169-1
 5676 07d6 0100     		.2byte	0x1
 5677 07d8 50       		.byte	0x50
 5678 07d9 0D000000 		.4byte	.LVL169-1
 5679 07dd 14000000 		.4byte	.LFE29
 5680 07e1 0100     		.2byte	0x1
 5681 07e3 54       		.byte	0x54
 5682 07e4 00000000 		.4byte	0
 5683 07e8 00000000 		.4byte	0
 5684              	.LLST56:
 5685 07ec 00000000 		.4byte	.LVL166
 5686 07f0 0D000000 		.4byte	.LVL169-1
 5687 07f4 0100     		.2byte	0x1
 5688 07f6 51       		.byte	0x51
 5689 07f7 0D000000 		.4byte	.LVL169-1
 5690 07fb 14000000 		.4byte	.LFE29
 5691 07ff 0400     		.2byte	0x4
 5692 0801 F3       		.byte	0xf3
 5693 0802 01       		.uleb128 0x1
 5694 0803 51       		.byte	0x51
 5695 0804 9F       		.byte	0x9f
 5696 0805 00000000 		.4byte	0
 5697 0809 00000000 		.4byte	0
 5698              	.LLST57:
 5699 080d 08000000 		.4byte	.LVL168
 5700 0811 0E000000 		.4byte	.LVL169
 5701 0815 0200     		.2byte	0x2
 5702 0817 30       		.byte	0x30
 5703 0818 9F       		.byte	0x9f
 5704 0819 0E000000 		.4byte	.LVL169
 5705 081d 14000000 		.4byte	.LFE29
 5706 0821 0100     		.2byte	0x1
 5707 0823 50       		.byte	0x50
 5708 0824 00000000 		.4byte	0
 5709 0828 00000000 		.4byte	0
 5710              	.LLST58:
 5711 082c 00000000 		.4byte	.LVL170
 5712 0830 0D000000 		.4byte	.LVL171-1
 5713 0834 0100     		.2byte	0x1
 5714 0836 50       		.byte	0x50
 5715 0837 0D000000 		.4byte	.LVL171-1
 5716 083b 1C000000 		.4byte	.LVL173
 5717 083f 0100     		.2byte	0x1
 5718 0841 54       		.byte	0x54
 5719 0842 1C000000 		.4byte	.LVL173
ARM GAS  C:\Users\brian\AppData\Local\Temp\ccibXfrV.s 			page 121


 5720 0846 24000000 		.4byte	.LFE32
 5721 084a 0400     		.2byte	0x4
 5722 084c F3       		.byte	0xf3
 5723 084d 01       		.uleb128 0x1
 5724 084e 50       		.byte	0x50
 5725 084f 9F       		.byte	0x9f
 5726 0850 00000000 		.4byte	0
 5727 0854 00000000 		.4byte	0
 5728              	.LLST59:
 5729 0858 00000000 		.4byte	.LVL174
 5730 085c 0E000000 		.4byte	.LVL175
 5731 0860 0100     		.2byte	0x1
 5732 0862 50       		.byte	0x50
 5733 0863 0E000000 		.4byte	.LVL175
 5734 0867 22000000 		.4byte	.LVL178
 5735 086b 0100     		.2byte	0x1
 5736 086d 54       		.byte	0x54
 5737 086e 22000000 		.4byte	.LVL178
 5738 0872 24000000 		.4byte	.LFE34
 5739 0876 0100     		.2byte	0x1
 5740 0878 50       		.byte	0x50
 5741 0879 00000000 		.4byte	0
 5742 087d 00000000 		.4byte	0
 5743              	.LLST60:
 5744 0881 00000000 		.4byte	.LVL179
 5745 0885 04000000 		.4byte	.LVL180
 5746 0889 0100     		.2byte	0x1
 5747 088b 50       		.byte	0x50
 5748 088c 04000000 		.4byte	.LVL180
 5749 0890 28000000 		.4byte	.LFE36
 5750 0894 0100     		.2byte	0x1
 5751 0896 54       		.byte	0x54
 5752 0897 00000000 		.4byte	0
 5753 089b 00000000 		.4byte	0
 5754              	.LLST61:
 5755 089f 00000000 		.4byte	.LVL185
 5756 08a3 0B000000 		.4byte	.LVL186-1
 5757 08a7 0100     		.2byte	0x1
 5758 08a9 50       		.byte	0x50
 5759 08aa 0B000000 		.4byte	.LVL186-1
 5760 08ae 54000000 		.4byte	.LVL195
 5761 08b2 0100     		.2byte	0x1
 5762 08b4 55       		.byte	0x55
 5763 08b5 54000000 		.4byte	.LVL195
 5764 08b9 5C000000 		.4byte	.LFE31
 5765 08bd 0400     		.2byte	0x4
 5766 08bf F3       		.byte	0xf3
 5767 08c0 01       		.uleb128 0x1
 5768 08c1 50       		.byte	0x50
 5769 08c2 9F       		.byte	0x9f
 5770 08c3 00000000 		.4byte	0
 5771 08c7 00000000 		.4byte	0
 5772              	.LLST62:
 5773 08cb 00000000 		.4byte	.LVL185
 5774 08cf 0B000000 		.4byte	.LVL186-1
 5775 08d3 0100     		.2byte	0x1
 5776 08d5 51       		.byte	0x51
ARM GAS  C:\Users\brian\AppData\Local\Temp\ccibXfrV.s 			page 122


 5777 08d6 0B000000 		.4byte	.LVL186-1
 5778 08da 54000000 		.4byte	.LVL195
 5779 08de 0100     		.2byte	0x1
 5780 08e0 56       		.byte	0x56
 5781 08e1 54000000 		.4byte	.LVL195
 5782 08e5 5C000000 		.4byte	.LFE31
 5783 08e9 0400     		.2byte	0x4
 5784 08eb F3       		.byte	0xf3
 5785 08ec 01       		.uleb128 0x1
 5786 08ed 51       		.byte	0x51
 5787 08ee 9F       		.byte	0x9f
 5788 08ef 00000000 		.4byte	0
 5789 08f3 00000000 		.4byte	0
 5790              	.LLST63:
 5791 08f7 00000000 		.4byte	.LVL185
 5792 08fb 0B000000 		.4byte	.LVL186-1
 5793 08ff 0100     		.2byte	0x1
 5794 0901 52       		.byte	0x52
 5795 0902 0B000000 		.4byte	.LVL186-1
 5796 0906 32000000 		.4byte	.LVL189
 5797 090a 0400     		.2byte	0x4
 5798 090c F3       		.byte	0xf3
 5799 090d 01       		.uleb128 0x1
 5800 090e 52       		.byte	0x52
 5801 090f 9F       		.byte	0x9f
 5802 0910 32000000 		.4byte	.LVL189
 5803 0914 3A000000 		.4byte	.LVL191
 5804 0918 0100     		.2byte	0x1
 5805 091a 54       		.byte	0x54
 5806 091b 3C000000 		.4byte	.LVL192
 5807 091f 54000000 		.4byte	.LVL195
 5808 0923 0100     		.2byte	0x1
 5809 0925 54       		.byte	0x54
 5810 0926 00000000 		.4byte	0
 5811 092a 00000000 		.4byte	0
 5812              	.LLST64:
 5813 092e 00000000 		.4byte	.LVL196
 5814 0932 09000000 		.4byte	.LVL197-1
 5815 0936 0100     		.2byte	0x1
 5816 0938 50       		.byte	0x50
 5817 0939 09000000 		.4byte	.LVL197-1
 5818 093d 1E000000 		.4byte	.LFE33
 5819 0941 0100     		.2byte	0x1
 5820 0943 54       		.byte	0x54
 5821 0944 00000000 		.4byte	0
 5822 0948 00000000 		.4byte	0
 5823              	.LLST65:
 5824 094c 00000000 		.4byte	.LVL196
 5825 0950 09000000 		.4byte	.LVL197-1
 5826 0954 0100     		.2byte	0x1
 5827 0956 51       		.byte	0x51
 5828 0957 09000000 		.4byte	.LVL197-1
 5829 095b 1E000000 		.4byte	.LFE33
 5830 095f 0400     		.2byte	0x4
 5831 0961 F3       		.byte	0xf3
 5832 0962 01       		.uleb128 0x1
 5833 0963 51       		.byte	0x51
ARM GAS  C:\Users\brian\AppData\Local\Temp\ccibXfrV.s 			page 123


 5834 0964 9F       		.byte	0x9f
 5835 0965 00000000 		.4byte	0
 5836 0969 00000000 		.4byte	0
 5837              	.LLST66:
 5838 096d 00000000 		.4byte	.LVL196
 5839 0971 09000000 		.4byte	.LVL197-1
 5840 0975 0100     		.2byte	0x1
 5841 0977 52       		.byte	0x52
 5842 0978 09000000 		.4byte	.LVL197-1
 5843 097c 1E000000 		.4byte	.LFE33
 5844 0980 0400     		.2byte	0x4
 5845 0982 F3       		.byte	0xf3
 5846 0983 01       		.uleb128 0x1
 5847 0984 52       		.byte	0x52
 5848 0985 9F       		.byte	0x9f
 5849 0986 00000000 		.4byte	0
 5850 098a 00000000 		.4byte	0
 5851              	.LLST67:
 5852 098e 0A000000 		.4byte	.LVL197
 5853 0992 12000000 		.4byte	.LVL198
 5854 0996 0100     		.2byte	0x1
 5855 0998 50       		.byte	0x50
 5856 0999 12000000 		.4byte	.LVL198
 5857 099d 15000000 		.4byte	.LVL199-1
 5858 09a1 0100     		.2byte	0x1
 5859 09a3 51       		.byte	0x51
 5860 09a4 1A000000 		.4byte	.LVL200
 5861 09a8 1C000000 		.4byte	.LVL201
 5862 09ac 0100     		.2byte	0x1
 5863 09ae 50       		.byte	0x50
 5864 09af 00000000 		.4byte	0
 5865 09b3 00000000 		.4byte	0
 5866              	.LLST68:
 5867 09b7 00000000 		.4byte	.LVL202
 5868 09bb 0D000000 		.4byte	.LVL203-1
 5869 09bf 0100     		.2byte	0x1
 5870 09c1 50       		.byte	0x50
 5871 09c2 0D000000 		.4byte	.LVL203-1
 5872 09c6 10000000 		.4byte	.LFE35
 5873 09ca 0400     		.2byte	0x4
 5874 09cc F3       		.byte	0xf3
 5875 09cd 01       		.uleb128 0x1
 5876 09ce 50       		.byte	0x50
 5877 09cf 9F       		.byte	0x9f
 5878 09d0 00000000 		.4byte	0
 5879 09d4 00000000 		.4byte	0
 5880              	.LLST69:
 5881 09d8 00000000 		.4byte	.LVL204
 5882 09dc 04000000 		.4byte	.LVL205
 5883 09e0 0100     		.2byte	0x1
 5884 09e2 50       		.byte	0x50
 5885 09e3 04000000 		.4byte	.LVL205
 5886 09e7 3C000000 		.4byte	.LVL211
 5887 09eb 0100     		.2byte	0x1
 5888 09ed 54       		.byte	0x54
 5889 09ee 3C000000 		.4byte	.LVL211
 5890 09f2 44000000 		.4byte	.LFE37
ARM GAS  C:\Users\brian\AppData\Local\Temp\ccibXfrV.s 			page 124


 5891 09f6 0400     		.2byte	0x4
 5892 09f8 F3       		.byte	0xf3
 5893 09f9 01       		.uleb128 0x1
 5894 09fa 50       		.byte	0x50
 5895 09fb 9F       		.byte	0x9f
 5896 09fc 00000000 		.4byte	0
 5897 0a00 00000000 		.4byte	0
 5898              	.LLST70:
 5899 0a04 00000000 		.4byte	.LVL212
 5900 0a08 07000000 		.4byte	.LVL213-1
 5901 0a0c 0100     		.2byte	0x1
 5902 0a0e 50       		.byte	0x50
 5903 0a0f 07000000 		.4byte	.LVL213-1
 5904 0a13 0A000000 		.4byte	.LFE38
 5905 0a17 0400     		.2byte	0x4
 5906 0a19 F3       		.byte	0xf3
 5907 0a1a 01       		.uleb128 0x1
 5908 0a1b 50       		.byte	0x50
 5909 0a1c 9F       		.byte	0x9f
 5910 0a1d 00000000 		.4byte	0
 5911 0a21 00000000 		.4byte	0
 5912              		.section	.debug_aranges,"",%progbits
 5913 0000 4C010000 		.4byte	0x14c
 5914 0004 0200     		.2byte	0x2
 5915 0006 00000000 		.4byte	.Ldebug_info0
 5916 000a 04       		.byte	0x4
 5917 000b 00       		.byte	0
 5918 000c 0000     		.2byte	0
 5919 000e 0000     		.2byte	0
 5920 0010 00000000 		.4byte	.LFB14
 5921 0014 0E000000 		.4byte	.LFE14-.LFB14
 5922 0018 00000000 		.4byte	.LFB15
 5923 001c 0E000000 		.4byte	.LFE15-.LFB15
 5924 0020 00000000 		.4byte	.LFB16
 5925 0024 0E000000 		.4byte	.LFE16-.LFB16
 5926 0028 00000000 		.4byte	.LFB17
 5927 002c 0E000000 		.4byte	.LFE17-.LFB17
 5928 0030 00000000 		.4byte	.LFB18
 5929 0034 24000000 		.4byte	.LFE18-.LFB18
 5930 0038 00000000 		.4byte	.LFB19
 5931 003c 16000000 		.4byte	.LFE19-.LFB19
 5932 0040 00000000 		.4byte	.LFB20
 5933 0044 12000000 		.4byte	.LFE20-.LFB20
 5934 0048 00000000 		.4byte	.LFB21
 5935 004c 30000000 		.4byte	.LFE21-.LFB21
 5936 0050 00000000 		.4byte	.LFB22
 5937 0054 28000000 		.4byte	.LFE22-.LFB22
 5938 0058 00000000 		.4byte	.LFB0
 5939 005c 04000000 		.4byte	.LFE0-.LFB0
 5940 0060 00000000 		.4byte	.LFB1
 5941 0064 8C000000 		.4byte	.LFE1-.LFB1
 5942 0068 00000000 		.4byte	.LFB2
 5943 006c 50000000 		.4byte	.LFE2-.LFB2
 5944 0070 00000000 		.4byte	.LFB7
 5945 0074 38000000 		.4byte	.LFE7-.LFB7
 5946 0078 00000000 		.4byte	.LFB4
 5947 007c 48000000 		.4byte	.LFE4-.LFB4
ARM GAS  C:\Users\brian\AppData\Local\Temp\ccibXfrV.s 			page 125


 5948 0080 00000000 		.4byte	.LFB3
 5949 0084 28000000 		.4byte	.LFE3-.LFB3
 5950 0088 00000000 		.4byte	.LFB5
 5951 008c 28000000 		.4byte	.LFE5-.LFB5
 5952 0090 00000000 		.4byte	.LFB6
 5953 0094 22000000 		.4byte	.LFE6-.LFB6
 5954 0098 00000000 		.4byte	.LFB8
 5955 009c 1E000000 		.4byte	.LFE8-.LFB8
 5956 00a0 00000000 		.4byte	.LFB9
 5957 00a4 30000000 		.4byte	.LFE9-.LFB9
 5958 00a8 00000000 		.4byte	.LFB10
 5959 00ac 34010000 		.4byte	.LFE10-.LFB10
 5960 00b0 00000000 		.4byte	.LFB11
 5961 00b4 38000000 		.4byte	.LFE11-.LFB11
 5962 00b8 00000000 		.4byte	.LFB12
 5963 00bc 14000000 		.4byte	.LFE12-.LFB12
 5964 00c0 00000000 		.4byte	.LFB24
 5965 00c4 28000000 		.4byte	.LFE24-.LFB24
 5966 00c8 00000000 		.4byte	.LFB30
 5967 00cc 10000000 		.4byte	.LFE30-.LFB30
 5968 00d0 00000000 		.4byte	.LFB13
 5969 00d4 32000000 		.4byte	.LFE13-.LFB13
 5970 00d8 00000000 		.4byte	.LFB23
 5971 00dc 22000000 		.4byte	.LFE23-.LFB23
 5972 00e0 00000000 		.4byte	.LFB25
 5973 00e4 1C000000 		.4byte	.LFE25-.LFB25
 5974 00e8 00000000 		.4byte	.LFB26
 5975 00ec 10000000 		.4byte	.LFE26-.LFB26
 5976 00f0 00000000 		.4byte	.LFB27
 5977 00f4 28000000 		.4byte	.LFE27-.LFB27
 5978 00f8 00000000 		.4byte	.LFB28
 5979 00fc 16000000 		.4byte	.LFE28-.LFB28
 5980 0100 00000000 		.4byte	.LFB29
 5981 0104 14000000 		.4byte	.LFE29-.LFB29
 5982 0108 00000000 		.4byte	.LFB32
 5983 010c 24000000 		.4byte	.LFE32-.LFB32
 5984 0110 00000000 		.4byte	.LFB34
 5985 0114 24000000 		.4byte	.LFE34-.LFB34
 5986 0118 00000000 		.4byte	.LFB36
 5987 011c 28000000 		.4byte	.LFE36-.LFB36
 5988 0120 00000000 		.4byte	.LFB31
 5989 0124 5C000000 		.4byte	.LFE31-.LFB31
 5990 0128 00000000 		.4byte	.LFB33
 5991 012c 1E000000 		.4byte	.LFE33-.LFB33
 5992 0130 00000000 		.4byte	.LFB35
 5993 0134 10000000 		.4byte	.LFE35-.LFB35
 5994 0138 00000000 		.4byte	.LFB37
 5995 013c 44000000 		.4byte	.LFE37-.LFB37
 5996 0140 00000000 		.4byte	.LFB38
 5997 0144 0A000000 		.4byte	.LFE38-.LFB38
 5998 0148 00000000 		.4byte	0
 5999 014c 00000000 		.4byte	0
 6000              		.section	.debug_ranges,"",%progbits
 6001              	.Ldebug_ranges0:
 6002 0000 00000000 		.4byte	.LFB14
 6003 0004 0E000000 		.4byte	.LFE14
 6004 0008 00000000 		.4byte	.LFB15
ARM GAS  C:\Users\brian\AppData\Local\Temp\ccibXfrV.s 			page 126


 6005 000c 0E000000 		.4byte	.LFE15
 6006 0010 00000000 		.4byte	.LFB16
 6007 0014 0E000000 		.4byte	.LFE16
 6008 0018 00000000 		.4byte	.LFB17
 6009 001c 0E000000 		.4byte	.LFE17
 6010 0020 00000000 		.4byte	.LFB18
 6011 0024 24000000 		.4byte	.LFE18
 6012 0028 00000000 		.4byte	.LFB19
 6013 002c 16000000 		.4byte	.LFE19
 6014 0030 00000000 		.4byte	.LFB20
 6015 0034 12000000 		.4byte	.LFE20
 6016 0038 00000000 		.4byte	.LFB21
 6017 003c 30000000 		.4byte	.LFE21
 6018 0040 00000000 		.4byte	.LFB22
 6019 0044 28000000 		.4byte	.LFE22
 6020 0048 00000000 		.4byte	.LFB0
 6021 004c 04000000 		.4byte	.LFE0
 6022 0050 00000000 		.4byte	.LFB1
 6023 0054 8C000000 		.4byte	.LFE1
 6024 0058 00000000 		.4byte	.LFB2
 6025 005c 50000000 		.4byte	.LFE2
 6026 0060 00000000 		.4byte	.LFB7
 6027 0064 38000000 		.4byte	.LFE7
 6028 0068 00000000 		.4byte	.LFB4
 6029 006c 48000000 		.4byte	.LFE4
 6030 0070 00000000 		.4byte	.LFB3
 6031 0074 28000000 		.4byte	.LFE3
 6032 0078 00000000 		.4byte	.LFB5
 6033 007c 28000000 		.4byte	.LFE5
 6034 0080 00000000 		.4byte	.LFB6
 6035 0084 22000000 		.4byte	.LFE6
 6036 0088 00000000 		.4byte	.LFB8
 6037 008c 1E000000 		.4byte	.LFE8
 6038 0090 00000000 		.4byte	.LFB9
 6039 0094 30000000 		.4byte	.LFE9
 6040 0098 00000000 		.4byte	.LFB10
 6041 009c 34010000 		.4byte	.LFE10
 6042 00a0 00000000 		.4byte	.LFB11
 6043 00a4 38000000 		.4byte	.LFE11
 6044 00a8 00000000 		.4byte	.LFB12
 6045 00ac 14000000 		.4byte	.LFE12
 6046 00b0 00000000 		.4byte	.LFB24
 6047 00b4 28000000 		.4byte	.LFE24
 6048 00b8 00000000 		.4byte	.LFB30
 6049 00bc 10000000 		.4byte	.LFE30
 6050 00c0 00000000 		.4byte	.LFB13
 6051 00c4 32000000 		.4byte	.LFE13
 6052 00c8 00000000 		.4byte	.LFB23
 6053 00cc 22000000 		.4byte	.LFE23
 6054 00d0 00000000 		.4byte	.LFB25
 6055 00d4 1C000000 		.4byte	.LFE25
 6056 00d8 00000000 		.4byte	.LFB26
 6057 00dc 10000000 		.4byte	.LFE26
 6058 00e0 00000000 		.4byte	.LFB27
 6059 00e4 28000000 		.4byte	.LFE27
 6060 00e8 00000000 		.4byte	.LFB28
 6061 00ec 16000000 		.4byte	.LFE28
ARM GAS  C:\Users\brian\AppData\Local\Temp\ccibXfrV.s 			page 127


 6062 00f0 00000000 		.4byte	.LFB29
 6063 00f4 14000000 		.4byte	.LFE29
 6064 00f8 00000000 		.4byte	.LFB32
 6065 00fc 24000000 		.4byte	.LFE32
 6066 0100 00000000 		.4byte	.LFB34
 6067 0104 24000000 		.4byte	.LFE34
 6068 0108 00000000 		.4byte	.LFB36
 6069 010c 28000000 		.4byte	.LFE36
 6070 0110 00000000 		.4byte	.LFB31
 6071 0114 5C000000 		.4byte	.LFE31
 6072 0118 00000000 		.4byte	.LFB33
 6073 011c 1E000000 		.4byte	.LFE33
 6074 0120 00000000 		.4byte	.LFB35
 6075 0124 10000000 		.4byte	.LFE35
 6076 0128 00000000 		.4byte	.LFB37
 6077 012c 44000000 		.4byte	.LFE37
 6078 0130 00000000 		.4byte	.LFB38
 6079 0134 0A000000 		.4byte	.LFE38
 6080 0138 00000000 		.4byte	0
 6081 013c 00000000 		.4byte	0
 6082              		.section	.debug_line,"",%progbits
 6083              	.Ldebug_line0:
 6084 0000 9E050000 		.section	.debug_str,"MS",%progbits,1
 6084      0200B101 
 6084      00000201 
 6084      FB0E0D00 
 6084      01010101 
 6085              	.LASF88:
 6086 0000 6D75695F 		.ascii	"mui_GotoForm\000"
 6086      476F746F 
 6086      466F726D 
 6086      00
 6087              	.LASF21:
 6088 000d 6D756966 		.ascii	"muif_tcnt\000"
 6088      5F74636E 
 6088      7400
 6089              	.LASF94:
 6090 0017 2E2E5C75 		.ascii	"..\\u8g2\\csrc\\mui.c\000"
 6090      3867325C 
 6090      63737263 
 6090      5C6D7569 
 6090      2E6300
 6091              	.LASF4:
 6092 002a 73697A65 		.ascii	"size_t\000"
 6092      5F7400
 6093              	.LASF90:
 6094 0031 6D75695F 		.ascii	"mui_RestoreForm\000"
 6094      52657374 
 6094      6F726546 
 6094      6F726D00 
 6095              	.LASF5:
 6096 0041 5F5F7569 		.ascii	"__uint8_t\000"
 6096      6E74385F 
 6096      7400
 6097              	.LASF55:
 6098 004b 6D75695F 		.ascii	"mui_get_fds_char\000"
 6098      6765745F 
ARM GAS  C:\Users\brian\AppData\Local\Temp\ccibXfrV.s 			page 128


 6098      6664735F 
 6098      63686172 
 6098      00
 6099              	.LASF34:
 6100 005c 746D705F 		.ascii	"tmp_fds\000"
 6100      66647300 
 6101              	.LASF12:
 6102 0064 6C6F6E67 		.ascii	"long long unsigned int\000"
 6102      206C6F6E 
 6102      6720756E 
 6102      7369676E 
 6102      65642069 
 6103              	.LASF32:
 6104 007b 64666C61 		.ascii	"dflags\000"
 6104      677300
 6105              	.LASF72:
 6106 0082 6D75695F 		.ascii	"mui_find_form\000"
 6106      66696E64 
 6106      5F666F72 
 6106      6D00
 6107              	.LASF47:
 6108 0090 6D75695F 		.ascii	"mui_task_draw\000"
 6108      7461736B 
 6108      5F647261 
 6108      7700
 6109              	.LASF69:
 6110 009e 6D75695F 		.ascii	"mui_loop_over_form\000"
 6110      6C6F6F70 
 6110      5F6F7665 
 6110      725F666F 
 6110      726D00
 6111              	.LASF1:
 6112 00b1 6C6F6E67 		.ascii	"long long int\000"
 6112      206C6F6E 
 6112      6720696E 
 6112      7400
 6113              	.LASF3:
 6114 00bf 7369676E 		.ascii	"signed char\000"
 6114      65642063 
 6114      68617200 
 6115              	.LASF29:
 6116 00cb 746D7038 		.ascii	"tmp8\000"
 6116      00
 6117              	.LASF54:
 6118 00d0 6D75695F 		.ascii	"mui_task_get_current_cursor_focus_position\000"
 6118      7461736B 
 6118      5F676574 
 6118      5F637572 
 6118      72656E74 
 6119              	.LASF26:
 6120 00fb 666F726D 		.ascii	"form_scroll_total\000"
 6120      5F736372 
 6120      6F6C6C5F 
 6120      746F7461 
 6120      6C00
 6121              	.LASF64:
 6122 010d 6D75695F 		.ascii	"mui_find_uif\000"
ARM GAS  C:\Users\brian\AppData\Local\Temp\ccibXfrV.s 			page 129


 6122      66696E64 
 6122      5F756966 
 6122      00
 6123              	.LASF28:
 6124 011a 666F726D 		.ascii	"form_scroll_visible\000"
 6124      5F736372 
 6124      6F6C6C5F 
 6124      76697369 
 6124      626C6500 
 6125              	.LASF18:
 6126 012e 67726170 		.ascii	"graphics_data\000"
 6126      68696373 
 6126      5F646174 
 6126      6100
 6127              	.LASF20:
 6128 013c 6D756966 		.ascii	"muif_tlist\000"
 6128      5F746C69 
 6128      737400
 6129              	.LASF10:
 6130 0147 6C6F6E67 		.ascii	"long int\000"
 6130      20696E74 
 6130      00
 6131              	.LASF60:
 6132 0150 6D75695F 		.ascii	"mui_fds_next_token\000"
 6132      6664735F 
 6132      6E657874 
 6132      5F746F6B 
 6132      656E00
 6133              	.LASF14:
 6134 0163 75696E74 		.ascii	"uint16_t\000"
 6134      31365F74 
 6134      00
 6135              	.LASF27:
 6136 016c 666F726D 		.ascii	"form_scroll_top\000"
 6136      5F736372 
 6136      6F6C6C5F 
 6136      746F7000 
 6137              	.LASF63:
 6138 017c 6D75695F 		.ascii	"mui_fds_get_token_cnt\000"
 6138      6664735F 
 6138      6765745F 
 6138      746F6B65 
 6138      6E5F636E 
 6139              	.LASF19:
 6140 0192 726F6F74 		.ascii	"root_fds\000"
 6140      5F666473 
 6140      00
 6141              	.LASF74:
 6142 019b 6D75695F 		.ascii	"mui_GetCurrentCursorFocusPosition\000"
 6142      47657443 
 6142      75727265 
 6142      6E744375 
 6142      72736F72 
 6143              	.LASF81:
 6144 01bd 69735F66 		.ascii	"is_found\000"
 6144      6F756E64 
 6144      00
ARM GAS  C:\Users\brian\AppData\Local\Temp\ccibXfrV.s 			page 130


 6145              	.LASF38:
 6146 01c6 6C617374 		.ascii	"last_form_fds\000"
 6146      5F666F72 
 6146      6D5F6664 
 6146      7300
 6147              	.LASF85:
 6148 01d4 6D75695F 		.ascii	"mui_NextField\000"
 6148      4E657874 
 6148      4669656C 
 6148      6400
 6149              	.LASF0:
 6150 01e2 756E7369 		.ascii	"unsigned int\000"
 6150      676E6564 
 6150      20696E74 
 6150      00
 6151              	.LASF41:
 6152 01ef 6D756966 		.ascii	"muif_struct\000"
 6152      5F737472 
 6152      75637400 
 6153              	.LASF35:
 6154 01fb 74617267 		.ascii	"target_fds\000"
 6154      65745F66 
 6154      647300
 6155              	.LASF70:
 6156 0206 6D75695F 		.ascii	"mui_send_cursor_msg\000"
 6156      73656E64 
 6156      5F637572 
 6156      736F725F 
 6156      6D736700 
 6157              	.LASF11:
 6158 021a 6C6F6E67 		.ascii	"long unsigned int\000"
 6158      20756E73 
 6158      69676E65 
 6158      6420696E 
 6158      7400
 6159              	.LASF77:
 6160 022c 6D75695F 		.ascii	"mui_next_field\000"
 6160      6E657874 
 6160      5F666965 
 6160      6C6400
 6161              	.LASF44:
 6162 023b 64617461 		.ascii	"data\000"
 6162      00
 6163              	.LASF9:
 6164 0240 73686F72 		.ascii	"short unsigned int\000"
 6164      7420756E 
 6164      7369676E 
 6164      65642069 
 6164      6E7400
 6165              	.LASF84:
 6166 0253 6D75695F 		.ascii	"mui_SaveForm\000"
 6166      53617665 
 6166      466F726D 
 6166      00
 6167              	.LASF91:
 6168 0260 6D75695F 		.ascii	"mui_PrevField\000"
 6168      50726576 
ARM GAS  C:\Users\brian\AppData\Local\Temp\ccibXfrV.s 			page 131


 6168      4669656C 
 6168      6400
 6169              	.LASF83:
 6170 026e 6D75695F 		.ascii	"mui_LeaveForm\000"
 6170      4C656176 
 6170      65466F72 
 6170      6D00
 6171              	.LASF46:
 6172 027c 6664735F 		.ascii	"fds_t\000"
 6172      7400
 6173              	.LASF15:
 6174 0282 73697A65 		.ascii	"sizetype\000"
 6174      74797065 
 6174      00
 6175              	.LASF48:
 6176 028b 6D75695F 		.ascii	"mui_task_form_start\000"
 6176      7461736B 
 6176      5F666F72 
 6176      6D5F7374 
 6176      61727400 
 6177              	.LASF59:
 6178 029f 6D75695F 		.ascii	"mui_fds_get_cmd_size\000"
 6178      6664735F 
 6178      6765745F 
 6178      636D645F 
 6178      73697A65 
 6179              	.LASF2:
 6180 02b4 6C6F6E67 		.ascii	"long double\000"
 6180      20646F75 
 6180      626C6500 
 6181              	.LASF78:
 6182 02c0 6D75695F 		.ascii	"mui_GetSelectableFieldTextOption\000"
 6182      47657453 
 6182      656C6563 
 6182      7461626C 
 6182      65466965 
 6183              	.LASF23:
 6184 02e1 63757273 		.ascii	"cursor_focus_fds\000"
 6184      6F725F66 
 6184      6F637573 
 6184      5F666473 
 6184      00
 6185              	.LASF24:
 6186 02f2 746F7563 		.ascii	"touch_focus_fds\000"
 6186      685F666F 
 6186      6375735F 
 6186      66647300 
 6187              	.LASF62:
 6188 0302 6D75695F 		.ascii	"mui_fds_get_nth_token\000"
 6188      6664735F 
 6188      6765745F 
 6188      6E74685F 
 6188      746F6B65 
 6189              	.LASF30:
 6190 0318 69735F6D 		.ascii	"is_mud\000"
 6190      756400
 6191              	.LASF92:
ARM GAS  C:\Users\brian\AppData\Local\Temp\ccibXfrV.s 			page 132


 6192 031f 6D75695F 		.ascii	"mui_SendSelect\000"
 6192      53656E64 
 6192      53656C65 
 6192      637400
 6193              	.LASF95:
 6194 032e 433A5C55 		.ascii	"C:\\Users\\brian\\Documents\\PSoC Creator\\Lab7\\La"
 6194      73657273 
 6194      5C627269 
 6194      616E5C44 
 6194      6F63756D 
 6195 035b 62372E63 		.ascii	"b7.cydsn\000"
 6195      7964736E 
 6195      00
 6196              	.LASF57:
 6197 0364 6D75695F 		.ascii	"mui_fds_get_cmd_size_without_text\000"
 6197      6664735F 
 6197      6765745F 
 6197      636D645F 
 6197      73697A65 
 6198              	.LASF25:
 6199 0386 746F6B65 		.ascii	"token\000"
 6199      6E00
 6200              	.LASF79:
 6201 038c 6E74685F 		.ascii	"nth_token\000"
 6201      746F6B65 
 6201      6E00
 6202              	.LASF87:
 6203 0396 696E6974 		.ascii	"initial_cursor_position\000"
 6203      69616C5F 
 6203      63757273 
 6203      6F725F70 
 6203      6F736974 
 6204              	.LASF65:
 6205 03ae 6D75695F 		.ascii	"mui_prepare_current_field\000"
 6205      70726570 
 6205      6172655F 
 6205      63757272 
 6205      656E745F 
 6206              	.LASF66:
 6207 03c8 6D756966 		.ascii	"muif_tidx\000"
 6207      5F746964 
 6207      7800
 6208              	.LASF61:
 6209 03d2 6D75695F 		.ascii	"mui_fds_first_token\000"
 6209      6664735F 
 6209      66697273 
 6209      745F746F 
 6209      6B656E00 
 6210              	.LASF50:
 6211 03e6 6D75695F 		.ascii	"mui_task_find_prev_cursor_uif\000"
 6211      7461736B 
 6211      5F66696E 
 6211      645F7072 
 6211      65765F63 
 6212              	.LASF6:
 6213 0404 756E7369 		.ascii	"unsigned char\000"
 6213      676E6564 
ARM GAS  C:\Users\brian\AppData\Local\Temp\ccibXfrV.s 			page 133


 6213      20636861 
 6213      7200
 6214              	.LASF86:
 6215 0412 6D75695F 		.ascii	"mui_EnterForm\000"
 6215      456E7465 
 6215      72466F72 
 6215      6D00
 6216              	.LASF7:
 6217 0420 73686F72 		.ascii	"short int\000"
 6217      7420696E 
 6217      7400
 6218              	.LASF37:
 6219 042a 6C617374 		.ascii	"last_form_cursor_focus_position\000"
 6219      5F666F72 
 6219      6D5F6375 
 6219      72736F72 
 6219      5F666F63 
 6220              	.LASF93:
 6221 044a 474E5520 		.ascii	"GNU C11 5.4.1 20160609 (release) [ARM/embedded-5-br"
 6221      43313120 
 6221      352E342E 
 6221      31203230 
 6221      31363036 
 6222 047d 616E6368 		.ascii	"anch revision 237715] -mcpu=cortex-m3 -mthumb -g -O"
 6222      20726576 
 6222      6973696F 
 6222      6E203233 
 6222      37373135 
 6223 04b0 67202D66 		.ascii	"g -ffunction-sections -ffat-lto-objects\000"
 6223      66756E63 
 6223      74696F6E 
 6223      2D736563 
 6223      74696F6E 
 6224              	.LASF36:
 6225 04d8 6C617374 		.ascii	"last_form_id\000"
 6225      5F666F72 
 6225      6D5F6964 
 6225      00
 6226              	.LASF22:
 6227 04e5 63757272 		.ascii	"current_form_fds\000"
 6227      656E745F 
 6227      666F726D 
 6227      5F666473 
 6227      00
 6228              	.LASF89:
 6229 04f6 666F726D 		.ascii	"form_id\000"
 6229      5F696400 
 6230              	.LASF76:
 6231 04fe 6D75695F 		.ascii	"mui_Draw\000"
 6231      44726177 
 6231      00
 6232              	.LASF16:
 6233 0507 63686172 		.ascii	"char\000"
 6233      00
 6234              	.LASF33:
 6235 050c 74657874 		.ascii	"text\000"
 6235      00
ARM GAS  C:\Users\brian\AppData\Local\Temp\ccibXfrV.s 			page 134


 6236              	.LASF8:
 6237 0511 5F5F7569 		.ascii	"__uint16_t\000"
 6237      6E743136 
 6237      5F7400
 6238              	.LASF73:
 6239 051c 6D75695F 		.ascii	"mui_task_read_nth_selectable_field\000"
 6239      7461736B 
 6239      5F726561 
 6239      645F6E74 
 6239      685F7365 
 6240              	.LASF71:
 6241 053f 6D75695F 		.ascii	"mui_send_cursor_enter_msg\000"
 6241      73656E64 
 6241      5F637572 
 6241      736F725F 
 6241      656E7465 
 6242              	.LASF67:
 6243 0559 7461736B 		.ascii	"task\000"
 6243      00
 6244              	.LASF58:
 6245 055e 6D75695F 		.ascii	"mui_fds_parse_text\000"
 6245      6664735F 
 6245      70617273 
 6245      655F7465 
 6245      787400
 6246              	.LASF52:
 6247 0571 6D75695F 		.ascii	"mui_task_find_last_cursor_uif\000"
 6247      7461736B 
 6247      5F66696E 
 6247      645F6C61 
 6247      73745F63 
 6248              	.LASF17:
 6249 058f 6D75695F 		.ascii	"mui_t\000"
 6249      7400
 6250              	.LASF51:
 6251 0595 6D75695F 		.ascii	"mui_task_find_first_cursor_uif\000"
 6251      7461736B 
 6251      5F66696E 
 6251      645F6669 
 6251      7273745F 
 6252              	.LASF56:
 6253 05b4 6D75695F 		.ascii	"mui_uif_is_cursor_selectable\000"
 6253      7569665F 
 6253      69735F63 
 6253      7572736F 
 6253      725F7365 
 6254              	.LASF96:
 6255 05d1 6D656D73 		.ascii	"memset\000"
 6255      657400
 6256              	.LASF31:
 6257 05d8 64656C69 		.ascii	"delimiter\000"
 6257      6D697465 
 6257      7200
 6258              	.LASF40:
 6259 05e2 6D75695F 		.ascii	"mui_struct\000"
 6259      73747275 
 6259      637400
ARM GAS  C:\Users\brian\AppData\Local\Temp\ccibXfrV.s 			page 135


 6260              	.LASF82:
 6261 05ed 6D75695F 		.ascii	"mui_GetSelectableFieldOptionCnt\000"
 6261      47657453 
 6261      656C6563 
 6261      7461626C 
 6261      65466965 
 6262              	.LASF53:
 6263 060d 6D75695F 		.ascii	"mui_task_find_next_cursor_uif\000"
 6263      7461736B 
 6263      5F66696E 
 6263      645F6E65 
 6263      78745F63 
 6264              	.LASF80:
 6265 062b 6664735F 		.ascii	"fds_backup\000"
 6265      6261636B 
 6265      757000
 6266              	.LASF13:
 6267 0636 75696E74 		.ascii	"uint8_t\000"
 6267      385F7400 
 6268              	.LASF68:
 6269 063e 6D75695F 		.ascii	"mui_inner_loop_over_form\000"
 6269      696E6E65 
 6269      725F6C6F 
 6269      6F705F6F 
 6269      7665725F 
 6270              	.LASF49:
 6271 0657 6D75695F 		.ascii	"mui_task_form_end\000"
 6271      7461736B 
 6271      5F666F72 
 6271      6D5F656E 
 6271      6400
 6272              	.LASF39:
 6273 0669 6D756966 		.ascii	"muif_t\000"
 6273      5F7400
 6274              	.LASF43:
 6275 0670 65787472 		.ascii	"extra\000"
 6275      6100
 6276              	.LASF75:
 6277 0676 6D75695F 		.ascii	"mui_Init\000"
 6277      496E6974 
 6277      00
 6278              	.LASF45:
 6279 067f 6D756966 		.ascii	"muif_cb\000"
 6279      5F636200 
 6280              	.LASF42:
 6281 0687 63666C61 		.ascii	"cflags\000"
 6281      677300
 6282              		.ident	"GCC: (GNU Tools for ARM Embedded Processors) 5.4.1 20160609 (release) [ARM/embedded-5-bran
