ARM GAS  C:\Users\brian\AppData\Local\Temp\ccibXfrV.s 			page 1


   1              		.syntax unified
   2              		.cpu cortex-m3
   3              		.fpu softvfp
   4              		.eabi_attribute 20, 1
   5              		.eabi_attribute 21, 1
   6              		.eabi_attribute 23, 3
   7              		.eabi_attribute 24, 1
   8              		.eabi_attribute 25, 1
   9              		.eabi_attribute 26, 1
  10              		.eabi_attribute 30, 1
  11              		.eabi_attribute 34, 1
  12              		.eabi_attribute 18, 4
  13              		.thumb
  14              		.syntax unified
  15              		.file	"mui.c"
  16              		.text
  17              	.Ltext0:
  18              		.cfi_sections	.debug_frame
  19              		.section	.text.mui_task_draw,"ax",%progbits
  20              		.align	2
  21              		.global	mui_task_draw
  22              		.thumb
  23              		.thumb_func
  24              		.type	mui_task_draw, %function
  25              	mui_task_draw:
  26              	.LFB14:
  27              		.file 1 "..\\u8g2\\csrc\\mui.c"
   1:..\u8g2\csrc/mui.c **** /*
   2:..\u8g2\csrc/mui.c **** 
   3:..\u8g2\csrc/mui.c ****   mui.c
   4:..\u8g2\csrc/mui.c ****   
   5:..\u8g2\csrc/mui.c ****   Monochrome minimal user interface: Core library.
   6:..\u8g2\csrc/mui.c **** 
   7:..\u8g2\csrc/mui.c ****   Universal 8bit Graphics Library (https://github.com/olikraus/u8g2/)
   8:..\u8g2\csrc/mui.c **** 
   9:..\u8g2\csrc/mui.c ****   Copyright (c) 2021, olikraus@gmail.com
  10:..\u8g2\csrc/mui.c ****   All rights reserved.
  11:..\u8g2\csrc/mui.c **** 
  12:..\u8g2\csrc/mui.c ****   Redistribution and use in source and binary forms, with or without modification, 
  13:..\u8g2\csrc/mui.c ****   are permitted provided that the following conditions are met:
  14:..\u8g2\csrc/mui.c **** 
  15:..\u8g2\csrc/mui.c ****   * Redistributions of source code must retain the above copyright notice, this list 
  16:..\u8g2\csrc/mui.c ****     of conditions and the following disclaimer.
  17:..\u8g2\csrc/mui.c ****     
  18:..\u8g2\csrc/mui.c ****   * Redistributions in binary form must reproduce the above copyright notice, this 
  19:..\u8g2\csrc/mui.c ****     list of conditions and the following disclaimer in the documentation and/or other 
  20:..\u8g2\csrc/mui.c ****     materials provided with the distribution.
  21:..\u8g2\csrc/mui.c **** 
  22:..\u8g2\csrc/mui.c ****   THIS SOFTWARE IS PROVIDED BY THE COPYRIGHT HOLDERS AND 
  23:..\u8g2\csrc/mui.c ****   CONTRIBUTORS "AS IS" AND ANY EXPRESS OR IMPLIED WARRANTIES, 
  24:..\u8g2\csrc/mui.c ****   INCLUDING, BUT NOT LIMITED TO, THE IMPLIED WARRANTIES OF 
  25:..\u8g2\csrc/mui.c ****   MERCHANTABILITY AND FITNESS FOR A PARTICULAR PURPOSE ARE 
  26:..\u8g2\csrc/mui.c ****   DISCLAIMED. IN NO EVENT SHALL THE COPYRIGHT HOLDER OR 
  27:..\u8g2\csrc/mui.c ****   CONTRIBUTORS BE LIABLE FOR ANY DIRECT, INDIRECT, INCIDENTAL, 
  28:..\u8g2\csrc/mui.c ****   SPECIAL, EXEMPLARY, OR CONSEQUENTIAL DAMAGES (INCLUDING, BUT 
  29:..\u8g2\csrc/mui.c ****   NOT LIMITED TO, PROCUREMENT OF SUBSTITUTE GOODS OR SERVICES; 
  30:..\u8g2\csrc/mui.c ****   LOSS OF USE, DATA, OR PROFITS; OR BUSINESS INTERRUPTION) HOWEVER 
ARM GAS  C:\Users\brian\AppData\Local\Temp\ccibXfrV.s 			page 2


  31:..\u8g2\csrc/mui.c ****   CAUSED AND ON ANY THEORY OF LIABILITY, WHETHER IN CONTRACT, 
  32:..\u8g2\csrc/mui.c ****   STRICT LIABILITY, OR TORT (INCLUDING NEGLIGENCE OR OTHERWISE) 
  33:..\u8g2\csrc/mui.c ****   ARISING IN ANY WAY OUT OF THE USE OF THIS SOFTWARE, EVEN IF 
  34:..\u8g2\csrc/mui.c ****   ADVISED OF THE POSSIBILITY OF SUCH DAMAGE.  
  35:..\u8g2\csrc/mui.c **** 
  36:..\u8g2\csrc/mui.c ****   
  37:..\u8g2\csrc/mui.c **** 
  38:..\u8g2\csrc/mui.c ****   "mui.c" is a graphical user interface, developed as part of u8g2.
  39:..\u8g2\csrc/mui.c ****   However "mui.c" is independent of u8g2 and can be used without u8g2 code.
  40:..\u8g2\csrc/mui.c ****   The glue code between "mui.c" and u8g2 is located in "mui_u8g2.c"
  41:..\u8g2\csrc/mui.c **** 
  42:..\u8g2\csrc/mui.c ****   c: cmd
  43:..\u8g2\csrc/mui.c ****   i:  ID0
  44:..\u8g2\csrc/mui.c ****   j: ID1
  45:..\u8g2\csrc/mui.c ****   xy: Position (x and y)
  46:..\u8g2\csrc/mui.c ****   /text/: some text. The text can start with any delimiter (except 0 and |), but also has to end wi
  47:..\u8g2\csrc/mui.c ****   a: Single char argument
  48:..\u8g2\csrc/mui.c ****   u: Single char argument with the user interface form number
  49:..\u8g2\csrc/mui.c **** 
  50:..\u8g2\csrc/mui.c ****   "Uu" the interface                                                    --> no ID
  51:..\u8g2\csrc/mui.c ****   
  52:..\u8g2\csrc/mui.c ****   Manual ID:
  53:..\u8g2\csrc/mui.c ****   "Fijxy"  Generic field: Places field with id ii at x/y        --> ID=ij
  54:..\u8g2\csrc/mui.c ****   "Bijxy/text/"   Generic field (Button) with Text   --> ID=ij
  55:..\u8g2\csrc/mui.c ****   "Tiixya/text/"  Generic field with argument and text --> ID = ij
  56:..\u8g2\csrc/mui.c ****   "Aiixya"
  57:..\u8g2\csrc/mui.c ****   
  58:..\u8g2\csrc/mui.c ****   Fixed ID:
  59:..\u8g2\csrc/mui.c ****   "Si" the style                                                        --> ID=@i
  60:..\u8g2\csrc/mui.c ****   "Lxy/labeltext/"  Places a text at the specified position, field with   -     -> ID=.L, .l
  61:..\u8g2\csrc/mui.c ****   "Gxyu/menutext/"  Go to the specified menu without placing the user interface form on the stack  
  62:..\u8g2\csrc/mui.c ****   
  63:..\u8g2\csrc/mui.c ****   
  64:..\u8g2\csrc/mui.c ****   cijxy
  65:..\u8g2\csrc/mui.c ****   cijxy/text/
  66:..\u8g2\csrc/mui.c ****   cijxya/text/
  67:..\u8g2\csrc/mui.c ****   
  68:..\u8g2\csrc/mui.c ****   cxy/text/
  69:..\u8g2\csrc/mui.c ****   cxya/text/
  70:..\u8g2\csrc/mui.c ****   
  71:..\u8g2\csrc/mui.c **** */
  72:..\u8g2\csrc/mui.c **** 
  73:..\u8g2\csrc/mui.c **** 
  74:..\u8g2\csrc/mui.c **** 
  75:..\u8g2\csrc/mui.c **** #include "mui.h"
  76:..\u8g2\csrc/mui.c **** 
  77:..\u8g2\csrc/mui.c **** 
  78:..\u8g2\csrc/mui.c **** 
  79:..\u8g2\csrc/mui.c **** 
  80:..\u8g2\csrc/mui.c **** 
  81:..\u8g2\csrc/mui.c **** //#define mui_get_fds_char(s) ((uint8_t)(*s))
  82:..\u8g2\csrc/mui.c **** 
  83:..\u8g2\csrc/mui.c **** //#include <stdio.h>
  84:..\u8g2\csrc/mui.c **** //#define MUI_DEBUG(...) printf(__VA_ARGS__)
  85:..\u8g2\csrc/mui.c **** #define MUI_DEBUG(...)
  86:..\u8g2\csrc/mui.c **** 
  87:..\u8g2\csrc/mui.c **** uint8_t mui_get_fds_char(fds_t *s)
ARM GAS  C:\Users\brian\AppData\Local\Temp\ccibXfrV.s 			page 3


  88:..\u8g2\csrc/mui.c **** {
  89:..\u8g2\csrc/mui.c ****   //return (uint8_t)(*s);
  90:..\u8g2\csrc/mui.c ****   return (uint8_t)mui_pgm_read(s);
  91:..\u8g2\csrc/mui.c **** }
  92:..\u8g2\csrc/mui.c **** 
  93:..\u8g2\csrc/mui.c **** 
  94:..\u8g2\csrc/mui.c **** /*
  95:..\u8g2\csrc/mui.c ****   s must point to a valid command within FDS
  96:..\u8g2\csrc/mui.c **** */
  97:..\u8g2\csrc/mui.c **** static size_t mui_fds_get_cmd_size_without_text(fds_t *s) MUI_NOINLINE;
  98:..\u8g2\csrc/mui.c **** static size_t mui_fds_get_cmd_size_without_text(fds_t *s)
  99:..\u8g2\csrc/mui.c **** {
 100:..\u8g2\csrc/mui.c ****   uint8_t c = mui_get_fds_char(s);
 101:..\u8g2\csrc/mui.c ****   c &= 0xdf; /* consider upper and lower case */
 102:..\u8g2\csrc/mui.c ****   switch(c)
 103:..\u8g2\csrc/mui.c ****   {
 104:..\u8g2\csrc/mui.c ****     case 'U': return 2;         // User Form: CMD  (1 Byte), Form-Id (1 Byte)
 105:..\u8g2\csrc/mui.c ****     case 'S': return 2;         // Style: CMD (1 Byte), Style Id (1 Byte)
 106:..\u8g2\csrc/mui.c ****     case 'D': return 3;         // Data within Text: CMD (1 Byte), ID (2 Bytes), Text (does not cou
 107:..\u8g2\csrc/mui.c ****     case 'F': return 5;         // Field without arg & text: CMD (1 Byte), ID (2 Bytes), X, Y
 108:..\u8g2\csrc/mui.c ****     case 'B': return 5;         // Field with text: CMD (1 Byte), ID (2 Bytes), X, Y, Text (does no
 109:..\u8g2\csrc/mui.c ****     case 'T': return 6;         // Field with arg & text: CMD (1 Byte), ID (2 Bytes), X, Y, Arg, Te
 110:..\u8g2\csrc/mui.c ****     case 'A': return 6;         // Field with arg (no text): CMD (1 Byte), ID (2 Bytes), X, Y, Arg,
 111:..\u8g2\csrc/mui.c ****     case 'L': return 3;          // Text Label: CMD (1 Byte), X, Y (same as 'B' but with fixed ID '
 112:..\u8g2\csrc/mui.c ****     case 'G': return 4;         // Goto Btutton: CMD (1Byte), X, Y, Arg, Text  (same as 'T' but wit
 113:..\u8g2\csrc/mui.c ****     case 0: return 0;
 114:..\u8g2\csrc/mui.c ****   }
 115:..\u8g2\csrc/mui.c ****   return 1;
 116:..\u8g2\csrc/mui.c **** }
 117:..\u8g2\csrc/mui.c **** 
 118:..\u8g2\csrc/mui.c **** 
 119:..\u8g2\csrc/mui.c **** 
 120:..\u8g2\csrc/mui.c **** /*
 121:..\u8g2\csrc/mui.c ****   s must point to the string delimiter start: first '/' for "B00ab/ok/"
 122:..\u8g2\csrc/mui.c ****     - '/' actually is 0xff
 123:..\u8g2\csrc/mui.c ****     - return the total size of the string, including the delimiter
 124:..\u8g2\csrc/mui.c ****     - copies the content of the string ("ok") to the ui text buffer
 125:..\u8g2\csrc/mui.c **** 
 126:..\u8g2\csrc/mui.c **** */
 127:..\u8g2\csrc/mui.c **** static size_t mui_fds_parse_text(mui_t *ui, fds_t *s)
 128:..\u8g2\csrc/mui.c **** {
 129:..\u8g2\csrc/mui.c ****   uint8_t i = 0;
 130:..\u8g2\csrc/mui.c ****   ui->delimiter = mui_get_fds_char(s);
 131:..\u8g2\csrc/mui.c ****   uint8_t c;
 132:..\u8g2\csrc/mui.c ****   fds_t *t = s;
 133:..\u8g2\csrc/mui.c ****   
 134:..\u8g2\csrc/mui.c ****   //printf("mui_fds_parse_text del=%d\n", delimiter);
 135:..\u8g2\csrc/mui.c **** #ifdef MUI_CHECK_EOFDS
 136:..\u8g2\csrc/mui.c ****   if ( ui->delimiter == 0 )
 137:..\u8g2\csrc/mui.c ****     return 0;
 138:..\u8g2\csrc/mui.c **** #endif 
 139:..\u8g2\csrc/mui.c ****   t++;
 140:..\u8g2\csrc/mui.c ****   for( ;; )
 141:..\u8g2\csrc/mui.c ****   {
 142:..\u8g2\csrc/mui.c ****     c = mui_get_fds_char(t);
 143:..\u8g2\csrc/mui.c ****   //printf("mui_fds_parse_text i=%d, c=%c\n", i, c);
 144:..\u8g2\csrc/mui.c **** #ifdef MUI_CHECK_EOFDS
ARM GAS  C:\Users\brian\AppData\Local\Temp\ccibXfrV.s 			page 4


 145:..\u8g2\csrc/mui.c ****     if ( c == 0 )
 146:..\u8g2\csrc/mui.c ****       break;
 147:..\u8g2\csrc/mui.c **** #endif 
 148:..\u8g2\csrc/mui.c ****     if ( c == ui->delimiter )
 149:..\u8g2\csrc/mui.c ****     {
 150:..\u8g2\csrc/mui.c ****       t++;
 151:..\u8g2\csrc/mui.c ****       break;
 152:..\u8g2\csrc/mui.c ****     }
 153:..\u8g2\csrc/mui.c ****     if ( i < MUI_MAX_TEXT_LEN )
 154:..\u8g2\csrc/mui.c ****     {
 155:..\u8g2\csrc/mui.c ****       ui->text[i++] = c;
 156:..\u8g2\csrc/mui.c ****     }
 157:..\u8g2\csrc/mui.c ****     t++;
 158:..\u8g2\csrc/mui.c ****   }
 159:..\u8g2\csrc/mui.c ****   ui->text[i] = '\0' ;
 160:..\u8g2\csrc/mui.c ****   return t-s;
 161:..\u8g2\csrc/mui.c **** }
 162:..\u8g2\csrc/mui.c **** 
 163:..\u8g2\csrc/mui.c **** /*
 164:..\u8g2\csrc/mui.c ****   get the first token within a text argument.
 165:..\u8g2\csrc/mui.c ****   The text argument may look like this:
 166:..\u8g2\csrc/mui.c ****     "B00ab/banana|apple|peach|cherry/"
 167:..\u8g2\csrc/mui.c ****   The outer delimiter "/" is not fixed and can be any char except "|" and "\0"
 168:..\u8g2\csrc/mui.c ****   The inner delimiter "|" is fixed. It must be the pipe symbol.
 169:..\u8g2\csrc/mui.c ****   This function will place "banana" into ui->text if the result is not 0
 170:..\u8g2\csrc/mui.c **** 
 171:..\u8g2\csrc/mui.c ****   if ( mui_fds_first_token(ui) )
 172:..\u8g2\csrc/mui.c ****   {
 173:..\u8g2\csrc/mui.c ****     do 
 174:..\u8g2\csrc/mui.c ****     {
 175:..\u8g2\csrc/mui.c ****       // handle token in ui->text
 176:..\u8g2\csrc/mui.c ****     } while ( mui_fds_next_token(ui) )
 177:..\u8g2\csrc/mui.c ****   }
 178:..\u8g2\csrc/mui.c **** 
 179:..\u8g2\csrc/mui.c **** */
 180:..\u8g2\csrc/mui.c **** 
 181:..\u8g2\csrc/mui.c **** uint8_t mui_fds_first_token(mui_t *ui)
 182:..\u8g2\csrc/mui.c **** {
 183:..\u8g2\csrc/mui.c ****   ui->token = ui->fds;
 184:..\u8g2\csrc/mui.c ****   ui->token += mui_fds_get_cmd_size_without_text(ui->fds);
 185:..\u8g2\csrc/mui.c ****   ui->delimiter = mui_get_fds_char(ui->token);
 186:..\u8g2\csrc/mui.c ****   ui->token++;  // place ui->token on the first char of the token
 187:..\u8g2\csrc/mui.c ****   return mui_fds_next_token(ui);
 188:..\u8g2\csrc/mui.c **** }
 189:..\u8g2\csrc/mui.c **** 
 190:..\u8g2\csrc/mui.c **** 
 191:..\u8g2\csrc/mui.c **** uint8_t mui_fds_next_token(mui_t *ui)
 192:..\u8g2\csrc/mui.c **** {
 193:..\u8g2\csrc/mui.c ****   uint8_t c;
 194:..\u8g2\csrc/mui.c ****   uint8_t i = 0;
 195:..\u8g2\csrc/mui.c ****   // printf("mui_fds_next_token: call, ui->token=%p\n", ui->token);
 196:..\u8g2\csrc/mui.c ****   for( ;; )
 197:..\u8g2\csrc/mui.c ****   {
 198:..\u8g2\csrc/mui.c ****     c = mui_get_fds_char(ui->token);
 199:..\u8g2\csrc/mui.c ****     // printf("mui_fds_next_token: i=%d c=%c\n", i, c);
 200:..\u8g2\csrc/mui.c **** #ifdef MUI_CHECK_EOFDS
 201:..\u8g2\csrc/mui.c ****     if ( c == 0 )
ARM GAS  C:\Users\brian\AppData\Local\Temp\ccibXfrV.s 			page 5


 202:..\u8g2\csrc/mui.c ****       break;
 203:..\u8g2\csrc/mui.c **** #endif 
 204:..\u8g2\csrc/mui.c ****     if ( c == ui->delimiter )
 205:..\u8g2\csrc/mui.c ****       break;
 206:..\u8g2\csrc/mui.c ****     if ( c == '|'  )
 207:..\u8g2\csrc/mui.c ****     {
 208:..\u8g2\csrc/mui.c ****       ui->token++;  // place ui->token on the first char of the next token
 209:..\u8g2\csrc/mui.c ****       break;
 210:..\u8g2\csrc/mui.c ****     }
 211:..\u8g2\csrc/mui.c ****     
 212:..\u8g2\csrc/mui.c ****     if ( i < MUI_MAX_TEXT_LEN )
 213:..\u8g2\csrc/mui.c ****     {
 214:..\u8g2\csrc/mui.c ****       ui->text[i++] = c;
 215:..\u8g2\csrc/mui.c ****     }
 216:..\u8g2\csrc/mui.c ****     
 217:..\u8g2\csrc/mui.c ****     ui->token++;
 218:..\u8g2\csrc/mui.c ****   }
 219:..\u8g2\csrc/mui.c ****   ui->text[i] = '\0' ;
 220:..\u8g2\csrc/mui.c ****   if ( i == 0 )
 221:..\u8g2\csrc/mui.c ****     return 0;   // no further token found
 222:..\u8g2\csrc/mui.c ****   return 1;  // token placed in ui->text
 223:..\u8g2\csrc/mui.c **** }
 224:..\u8g2\csrc/mui.c **** 
 225:..\u8g2\csrc/mui.c **** /*
 226:..\u8g2\csrc/mui.c ****   find nth token, return 0 if n exceeds the number of tokens, 1 otherwise
 227:..\u8g2\csrc/mui.c ****   the result is stored in ui->text
 228:..\u8g2\csrc/mui.c **** */
 229:..\u8g2\csrc/mui.c **** uint8_t mui_fds_get_nth_token(mui_t *ui, uint8_t n)
 230:..\u8g2\csrc/mui.c **** {  
 231:..\u8g2\csrc/mui.c ****   // printf("mui_fds_get_nth_token: call, n=%d\n", n);
 232:..\u8g2\csrc/mui.c ****   if ( mui_fds_first_token(ui) )
 233:..\u8g2\csrc/mui.c ****   {
 234:..\u8g2\csrc/mui.c ****     do 
 235:..\u8g2\csrc/mui.c ****     {
 236:..\u8g2\csrc/mui.c ****       if ( n == 0 )
 237:..\u8g2\csrc/mui.c ****       {
 238:..\u8g2\csrc/mui.c ****         // printf("mui_fds_get_nth_token: found");
 239:..\u8g2\csrc/mui.c ****         return 1;
 240:..\u8g2\csrc/mui.c ****       }
 241:..\u8g2\csrc/mui.c ****       n--;
 242:..\u8g2\csrc/mui.c ****     } while ( mui_fds_next_token(ui) );
 243:..\u8g2\csrc/mui.c ****   }
 244:..\u8g2\csrc/mui.c ****   //printf("mui_fds_get_nth_token: NOT found\n");
 245:..\u8g2\csrc/mui.c ****   return 0;
 246:..\u8g2\csrc/mui.c **** }
 247:..\u8g2\csrc/mui.c **** 
 248:..\u8g2\csrc/mui.c **** uint8_t mui_fds_get_token_cnt(mui_t *ui)
 249:..\u8g2\csrc/mui.c **** {
 250:..\u8g2\csrc/mui.c ****   uint8_t n = 0;
 251:..\u8g2\csrc/mui.c ****   if ( mui_fds_first_token(ui) )
 252:..\u8g2\csrc/mui.c ****   {
 253:..\u8g2\csrc/mui.c ****     do 
 254:..\u8g2\csrc/mui.c ****     {
 255:..\u8g2\csrc/mui.c ****       n++;
 256:..\u8g2\csrc/mui.c ****     } while ( mui_fds_next_token(ui) );
 257:..\u8g2\csrc/mui.c ****   }
 258:..\u8g2\csrc/mui.c ****   return n;
ARM GAS  C:\Users\brian\AppData\Local\Temp\ccibXfrV.s 			page 6


 259:..\u8g2\csrc/mui.c **** }
 260:..\u8g2\csrc/mui.c **** 
 261:..\u8g2\csrc/mui.c **** 
 262:..\u8g2\csrc/mui.c **** #define mui_fds_is_text(c) ( (c) == 'U' || (c) == 'S' || (c) == 'F' || (c) == 'A' ? 0 : 1 )
 263:..\u8g2\csrc/mui.c **** 
 264:..\u8g2\csrc/mui.c **** /*
 265:..\u8g2\csrc/mui.c ****   s must point to a valid command within FDS
 266:..\u8g2\csrc/mui.c ****   return
 267:..\u8g2\csrc/mui.c ****     The complete length of the command (including any text part)
 268:..\u8g2\csrc/mui.c ****   sideeffect:
 269:..\u8g2\csrc/mui.c ****     Any existing text part will be copied into ui->text
 270:..\u8g2\csrc/mui.c ****     ui->text will be assigned to empty string if there is no text argument
 271:..\u8g2\csrc/mui.c **** */
 272:..\u8g2\csrc/mui.c **** static size_t mui_fds_get_cmd_size(mui_t *ui, fds_t *s) MUI_NOINLINE;
 273:..\u8g2\csrc/mui.c **** static size_t mui_fds_get_cmd_size(mui_t *ui, fds_t *s)
 274:..\u8g2\csrc/mui.c **** {
 275:..\u8g2\csrc/mui.c ****   size_t l = mui_fds_get_cmd_size_without_text(s);
 276:..\u8g2\csrc/mui.c ****   uint8_t c = mui_get_fds_char(s);
 277:..\u8g2\csrc/mui.c ****  ui->text[0] = '\0' ;   /* always reset the text buffer */
 278:..\u8g2\csrc/mui.c ****  if ( mui_fds_is_text(c) )
 279:..\u8g2\csrc/mui.c ****   {
 280:..\u8g2\csrc/mui.c ****     l += mui_fds_parse_text(ui, s+l);
 281:..\u8g2\csrc/mui.c ****   }
 282:..\u8g2\csrc/mui.c ****   return l;
 283:..\u8g2\csrc/mui.c **** }
 284:..\u8g2\csrc/mui.c **** 
 285:..\u8g2\csrc/mui.c **** 
 286:..\u8g2\csrc/mui.c **** /*
 287:..\u8g2\csrc/mui.c ****   mui_Init() will setup the menu system but will not activate or display anything.
 288:..\u8g2\csrc/mui.c ****   Use mui_GotoForm() after this command, then use mui_Draw() to draw the menu on a display.
 289:..\u8g2\csrc/mui.c **** */
 290:..\u8g2\csrc/mui.c **** void mui_Init(mui_t *ui, void *graphics_data, fds_t *fds, muif_t *muif_tlist, size_t muif_tcnt)
 291:..\u8g2\csrc/mui.c **** {
 292:..\u8g2\csrc/mui.c ****   memset(ui, 0, sizeof(mui_t));
 293:..\u8g2\csrc/mui.c ****   ui->root_fds = fds;
 294:..\u8g2\csrc/mui.c ****   //ui->current_form_fds = NULL;   // not required, because there was a memset before
 295:..\u8g2\csrc/mui.c ****   ui->muif_tlist = muif_tlist;
 296:..\u8g2\csrc/mui.c ****   ui->muif_tcnt = muif_tcnt;
 297:..\u8g2\csrc/mui.c ****   ui->graphics_data = graphics_data;
 298:..\u8g2\csrc/mui.c **** }
 299:..\u8g2\csrc/mui.c **** 
 300:..\u8g2\csrc/mui.c **** int mui_find_uif(mui_t *ui, uint8_t id0, uint8_t id1)
 301:..\u8g2\csrc/mui.c **** {
 302:..\u8g2\csrc/mui.c ****   size_t i;
 303:..\u8g2\csrc/mui.c ****   for( i = 0; i < ui->muif_tcnt; i++ )
 304:..\u8g2\csrc/mui.c ****   {
 305:..\u8g2\csrc/mui.c ****     /*
 306:..\u8g2\csrc/mui.c ****       if ( ui->muif_tlist[i].id0 == id0 )
 307:..\u8g2\csrc/mui.c ****         if ( ui->muif_tlist[i].id1 == id1 )
 308:..\u8g2\csrc/mui.c ****           return i;
 309:..\u8g2\csrc/mui.c ****     */
 310:..\u8g2\csrc/mui.c ****       if ( muif_get_id0(ui->muif_tlist+i) == id0 )
 311:..\u8g2\csrc/mui.c ****         if ( muif_get_id1(ui->muif_tlist+i) == id1 )
 312:..\u8g2\csrc/mui.c ****           return i;
 313:..\u8g2\csrc/mui.c ****   }
 314:..\u8g2\csrc/mui.c ****   return -1;
 315:..\u8g2\csrc/mui.c **** }
ARM GAS  C:\Users\brian\AppData\Local\Temp\ccibXfrV.s 			page 7


 316:..\u8g2\csrc/mui.c **** 
 317:..\u8g2\csrc/mui.c **** 
 318:..\u8g2\csrc/mui.c **** /*
 319:..\u8g2\csrc/mui.c ****   assumes a valid position in ui->fds and calculates all the other variables
 320:..\u8g2\csrc/mui.c ****   some fields are alway calculated like the ui->cmd and ui->len field
 321:..\u8g2\csrc/mui.c ****   other member vars are calculated only if the return value is 1
 322:..\u8g2\csrc/mui.c ****   will return 1 if the field id was found.
 323:..\u8g2\csrc/mui.c ****   will return 0 if the field id was not found in uif or if ui->fds points to something else than a 
 324:..\u8g2\csrc/mui.c **** */
 325:..\u8g2\csrc/mui.c **** static uint8_t mui_prepare_current_field(mui_t *ui) MUI_NOINLINE;
 326:..\u8g2\csrc/mui.c **** static uint8_t mui_prepare_current_field(mui_t *ui)
 327:..\u8g2\csrc/mui.c **** {
 328:..\u8g2\csrc/mui.c ****   int muif_tidx;
 329:..\u8g2\csrc/mui.c **** 
 330:..\u8g2\csrc/mui.c ****   ui->uif = NULL;
 331:..\u8g2\csrc/mui.c ****   ui->dflags = 0;    
 332:..\u8g2\csrc/mui.c ****   ui->id0 = 0;
 333:..\u8g2\csrc/mui.c ****   ui->id1 = 0;
 334:..\u8g2\csrc/mui.c ****   ui->arg = 0;
 335:..\u8g2\csrc/mui.c **** 
 336:..\u8g2\csrc/mui.c ****   /* calculate the length of the command and copy the text argument */
 337:..\u8g2\csrc/mui.c ****   /* this will also clear the text in cases where there is no text argument */
 338:..\u8g2\csrc/mui.c ****   ui->len = mui_fds_get_cmd_size(ui, ui->fds); 
 339:..\u8g2\csrc/mui.c ****   //printf("mui_prepare_current_field len=%d\n", ui->len);
 340:..\u8g2\csrc/mui.c **** 
 341:..\u8g2\csrc/mui.c ****   /* get the command and check whether end of form is reached */
 342:..\u8g2\csrc/mui.c ****   ui->cmd = mui_get_fds_char(ui->fds);
 343:..\u8g2\csrc/mui.c ****   //printf("mui_prepare_current_field cmd='%c' len=%d\n", ui->cmd, ui->len);
 344:..\u8g2\csrc/mui.c ****   
 345:..\u8g2\csrc/mui.c ****   /* Copy the cmd also to second id value. This is required for some commands, others will overwrit
 346:..\u8g2\csrc/mui.c ****   ui->id1 = ui->cmd;
 347:..\u8g2\csrc/mui.c ****   
 348:..\u8g2\csrc/mui.c ****   /* now make the command uppercase so that both, upper and lower case are considered */
 349:..\u8g2\csrc/mui.c ****   ui->cmd &= 0xdf; /* consider upper and lower case */
 350:..\u8g2\csrc/mui.c ****   
 351:..\u8g2\csrc/mui.c ****   if ( ui->cmd == 'U' || ui->cmd == 0 )
 352:..\u8g2\csrc/mui.c ****     return 0;
 353:..\u8g2\csrc/mui.c **** 
 354:..\u8g2\csrc/mui.c ****   /* calculate the dynamic flags */
 355:..\u8g2\csrc/mui.c ****   if ( ui->fds == ui->cursor_focus_fds )
 356:..\u8g2\csrc/mui.c ****     ui->dflags |= MUIF_DFLAG_IS_CURSOR_FOCUS;
 357:..\u8g2\csrc/mui.c ****   if ( ui->fds == ui->touch_focus_fds )
 358:..\u8g2\csrc/mui.c ****     ui->dflags |= MUIF_DFLAG_IS_TOUCH_FOCUS;
 359:..\u8g2\csrc/mui.c ****   
 360:..\u8g2\csrc/mui.c **** 
 361:..\u8g2\csrc/mui.c ****   /* get the id0 and id1 values */
 362:..\u8g2\csrc/mui.c ****   if  ( ui->cmd == 'F' || ui->cmd == 'B' || ui->cmd == 'T' || ui->cmd == 'A' )
 363:..\u8g2\csrc/mui.c ****   {
 364:..\u8g2\csrc/mui.c ****       ui->id0 = mui_get_fds_char(ui->fds+1);
 365:..\u8g2\csrc/mui.c ****       ui->id1 = mui_get_fds_char(ui->fds+2);
 366:..\u8g2\csrc/mui.c ****       ui->x = mui_get_fds_char(ui->fds+3);
 367:..\u8g2\csrc/mui.c ****       ui->y = mui_get_fds_char(ui->fds+4);
 368:..\u8g2\csrc/mui.c ****       if ( ui->cmd == 'A' || ui->cmd == 'T' )
 369:..\u8g2\csrc/mui.c ****       {
 370:..\u8g2\csrc/mui.c ****         ui->arg = mui_get_fds_char(ui->fds+5);
 371:..\u8g2\csrc/mui.c ****       }
 372:..\u8g2\csrc/mui.c ****   }
ARM GAS  C:\Users\brian\AppData\Local\Temp\ccibXfrV.s 			page 8


 373:..\u8g2\csrc/mui.c ****   else if ( ui->cmd == 'D' )
 374:..\u8g2\csrc/mui.c ****   {
 375:..\u8g2\csrc/mui.c ****       ui->id0 = mui_get_fds_char(ui->fds+1);
 376:..\u8g2\csrc/mui.c ****       ui->id1 = mui_get_fds_char(ui->fds+2);
 377:..\u8g2\csrc/mui.c ****   }
 378:..\u8g2\csrc/mui.c ****   else if ( ui->cmd == 'S' )
 379:..\u8g2\csrc/mui.c ****   {
 380:..\u8g2\csrc/mui.c ****       ui->id0 = 'S';
 381:..\u8g2\csrc/mui.c ****       ui->id1 = mui_get_fds_char(ui->fds+1);
 382:..\u8g2\csrc/mui.c ****   }
 383:..\u8g2\csrc/mui.c ****   else
 384:..\u8g2\csrc/mui.c ****   {
 385:..\u8g2\csrc/mui.c ****       ui->id0 = '.';
 386:..\u8g2\csrc/mui.c ****       /* note that ui->id1 contains the original cmd value */
 387:..\u8g2\csrc/mui.c ****       ui->x = mui_get_fds_char(ui->fds+1);
 388:..\u8g2\csrc/mui.c ****       ui->y = mui_get_fds_char(ui->fds+2);
 389:..\u8g2\csrc/mui.c ****       if ( ui->cmd == 'G' || ui->cmd == 'M' )  /* this is also true for 'g' or 'm' */
 390:..\u8g2\csrc/mui.c ****       {
 391:..\u8g2\csrc/mui.c ****         ui->arg = mui_get_fds_char(ui->fds+3);
 392:..\u8g2\csrc/mui.c ****       }
 393:..\u8g2\csrc/mui.c ****   }
 394:..\u8g2\csrc/mui.c **** 
 395:..\u8g2\csrc/mui.c ****   //MUI_DEBUG("mui_prepare_current_field cmd='%c' len=%d arg=%d\n", ui->cmd, ui->len, ui->arg);
 396:..\u8g2\csrc/mui.c **** 
 397:..\u8g2\csrc/mui.c ****   
 398:..\u8g2\csrc/mui.c ****   /* find the field  */
 399:..\u8g2\csrc/mui.c ****   muif_tidx = mui_find_uif(ui, ui->id0, ui->id1);
 400:..\u8g2\csrc/mui.c ****   //printf("mui_prepare_current_field: muif_tidx=%d\n", muif_tidx);
 401:..\u8g2\csrc/mui.c ****   if ( muif_tidx >= 0 )
 402:..\u8g2\csrc/mui.c ****   {
 403:..\u8g2\csrc/mui.c ****     ui->uif = ui->muif_tlist + muif_tidx;
 404:..\u8g2\csrc/mui.c ****     return 1;
 405:..\u8g2\csrc/mui.c ****   }
 406:..\u8g2\csrc/mui.c ****   return 0;
 407:..\u8g2\csrc/mui.c **** }
 408:..\u8g2\csrc/mui.c **** 
 409:..\u8g2\csrc/mui.c **** /* 
 410:..\u8g2\csrc/mui.c ****   assumes that ui->fds has been assigned correctly 
 411:..\u8g2\csrc/mui.c ****   and that ui->target_fds and ui->tmp_fds had been cleared if required
 412:..\u8g2\csrc/mui.c **** 
 413:..\u8g2\csrc/mui.c ****   Usually do not call this function directly, instead use mui_loop_over_form
 414:..\u8g2\csrc/mui.c **** 
 415:..\u8g2\csrc/mui.c **** */
 416:..\u8g2\csrc/mui.c **** 
 417:..\u8g2\csrc/mui.c **** static void mui_inner_loop_over_form(mui_t *ui, uint8_t (*task)(mui_t *ui)) MUI_NOINLINE;
 418:..\u8g2\csrc/mui.c **** static void mui_inner_loop_over_form(mui_t *ui, uint8_t (*task)(mui_t *ui))
 419:..\u8g2\csrc/mui.c **** {
 420:..\u8g2\csrc/mui.c ****   uint8_t cmd;
 421:..\u8g2\csrc/mui.c **** 
 422:..\u8g2\csrc/mui.c ****   //MUI_DEBUG("mui_inner_loop_over_form start %p\n", task);
 423:..\u8g2\csrc/mui.c ****   
 424:..\u8g2\csrc/mui.c ****   ui->fds += mui_fds_get_cmd_size(ui, ui->fds);      // skip the first entry, it is U always
 425:..\u8g2\csrc/mui.c ****   for(;;)
 426:..\u8g2\csrc/mui.c ****   {    
 427:..\u8g2\csrc/mui.c ****     //printf("fds=%p *fds='%c'\n", ui->fds, ui->fds[0]);
 428:..\u8g2\csrc/mui.c ****     /* get the command and check whether end of form is reached */
 429:..\u8g2\csrc/mui.c ****     cmd = mui_get_fds_char(ui->fds);
ARM GAS  C:\Users\brian\AppData\Local\Temp\ccibXfrV.s 			page 9


 430:..\u8g2\csrc/mui.c ****     if ( cmd == 'U' || cmd == 0 )
 431:..\u8g2\csrc/mui.c ****       break;
 432:..\u8g2\csrc/mui.c ****     if ( mui_prepare_current_field(ui) )
 433:..\u8g2\csrc/mui.c ****       if ( task(ui) )         /* call the task, which was provided as argument to this function */
 434:..\u8g2\csrc/mui.c ****       {
 435:..\u8g2\csrc/mui.c ****         //MUI_DEBUG("mui_inner_loop_over_form break by task\n");
 436:..\u8g2\csrc/mui.c ****         break;
 437:..\u8g2\csrc/mui.c ****       }
 438:..\u8g2\csrc/mui.c ****     ui->fds += ui->len;
 439:..\u8g2\csrc/mui.c ****   }
 440:..\u8g2\csrc/mui.c ****   
 441:..\u8g2\csrc/mui.c ****   //MUI_DEBUG("mui_inner_loop_over_form end %p\n", task);
 442:..\u8g2\csrc/mui.c **** }
 443:..\u8g2\csrc/mui.c **** 
 444:..\u8g2\csrc/mui.c **** static void mui_loop_over_form(mui_t *ui, uint8_t (*task)(mui_t *ui)) MUI_NOINLINE;
 445:..\u8g2\csrc/mui.c **** static void mui_loop_over_form(mui_t *ui, uint8_t (*task)(mui_t *ui))
 446:..\u8g2\csrc/mui.c **** {
 447:..\u8g2\csrc/mui.c ****   if ( mui_IsFormActive(ui) == 0 )
 448:..\u8g2\csrc/mui.c ****     return;
 449:..\u8g2\csrc/mui.c ****   
 450:..\u8g2\csrc/mui.c ****   ui->fds = ui->current_form_fds;
 451:..\u8g2\csrc/mui.c ****   ui->target_fds = NULL;
 452:..\u8g2\csrc/mui.c ****   ui->tmp_fds = NULL;
 453:..\u8g2\csrc/mui.c ****   
 454:..\u8g2\csrc/mui.c ****   mui_inner_loop_over_form(ui, task);  
 455:..\u8g2\csrc/mui.c **** }
 456:..\u8g2\csrc/mui.c **** 
 457:..\u8g2\csrc/mui.c **** /*
 458:..\u8g2\csrc/mui.c ****   n is the form number
 459:..\u8g2\csrc/mui.c **** */
 460:..\u8g2\csrc/mui.c **** fds_t *mui_find_form(mui_t *ui, uint8_t n)
 461:..\u8g2\csrc/mui.c **** {
 462:..\u8g2\csrc/mui.c ****   fds_t *fds = ui->root_fds;
 463:..\u8g2\csrc/mui.c ****   uint8_t cmd;
 464:..\u8g2\csrc/mui.c ****   
 465:..\u8g2\csrc/mui.c ****   for( ;; )
 466:..\u8g2\csrc/mui.c ****   {
 467:..\u8g2\csrc/mui.c ****     cmd = mui_get_fds_char(fds);
 468:..\u8g2\csrc/mui.c ****     if ( cmd == 0 )
 469:..\u8g2\csrc/mui.c ****       break;
 470:..\u8g2\csrc/mui.c ****     if ( cmd == 'U'  )
 471:..\u8g2\csrc/mui.c ****     {
 472:..\u8g2\csrc/mui.c ****       if (   mui_get_fds_char(fds+1) == n )
 473:..\u8g2\csrc/mui.c ****       {
 474:..\u8g2\csrc/mui.c ****         return fds;
 475:..\u8g2\csrc/mui.c ****       }
 476:..\u8g2\csrc/mui.c ****       /* not found, just coninue */
 477:..\u8g2\csrc/mui.c ****     }
 478:..\u8g2\csrc/mui.c ****     
 479:..\u8g2\csrc/mui.c ****     fds += mui_fds_get_cmd_size(ui, fds);
 480:..\u8g2\csrc/mui.c ****   }
 481:..\u8g2\csrc/mui.c ****   return NULL;
 482:..\u8g2\csrc/mui.c **** }
 483:..\u8g2\csrc/mui.c **** 
 484:..\u8g2\csrc/mui.c **** /* === task procedures (arguments for mui_loop_over_form) === */
 485:..\u8g2\csrc/mui.c **** /* ui->fds contains the current field */
 486:..\u8g2\csrc/mui.c **** 
ARM GAS  C:\Users\brian\AppData\Local\Temp\ccibXfrV.s 			page 10


 487:..\u8g2\csrc/mui.c **** uint8_t mui_task_draw(mui_t *ui)
 488:..\u8g2\csrc/mui.c **** {
  28              		.loc 1 488 0
  29              		.cfi_startproc
  30              		@ args = 0, pretend = 0, frame = 0
  31              		@ frame_needed = 0, uses_anonymous_args = 0
  32              	.LVL0:
  33 0000 08B5     		push	{r3, lr}
  34              		.cfi_def_cfa_offset 8
  35              		.cfi_offset 3, -8
  36              		.cfi_offset 14, -4
 489:..\u8g2\csrc/mui.c ****   //printf("mui_task_draw fds=%p uif=%p text=%s\n", ui->fds, ui->uif, ui->text);
 490:..\u8g2\csrc/mui.c ****   muif_get_cb(ui->uif)(ui, MUIF_MSG_DRAW);
  37              		.loc 1 490 0
  38 0002 836B     		ldr	r3, [r0, #56]
  39 0004 9B68     		ldr	r3, [r3, #8]
  40 0006 0121     		movs	r1, #1
  41 0008 9847     		blx	r3
  42              	.LVL1:
 491:..\u8g2\csrc/mui.c ****   return 0;     /* continue with the loop */
 492:..\u8g2\csrc/mui.c **** }
  43              		.loc 1 492 0
  44 000a 0020     		movs	r0, #0
  45 000c 08BD     		pop	{r3, pc}
  46              		.cfi_endproc
  47              	.LFE14:
  48              		.size	mui_task_draw, .-mui_task_draw
  49 000e 00BF     		.section	.text.mui_task_form_start,"ax",%progbits
  50              		.align	2
  51              		.global	mui_task_form_start
  52              		.thumb
  53              		.thumb_func
  54              		.type	mui_task_form_start, %function
  55              	mui_task_form_start:
  56              	.LFB15:
 493:..\u8g2\csrc/mui.c **** 
 494:..\u8g2\csrc/mui.c **** uint8_t mui_task_form_start(mui_t *ui)
 495:..\u8g2\csrc/mui.c **** {
  57              		.loc 1 495 0
  58              		.cfi_startproc
  59              		@ args = 0, pretend = 0, frame = 0
  60              		@ frame_needed = 0, uses_anonymous_args = 0
  61              	.LVL2:
  62 0000 08B5     		push	{r3, lr}
  63              		.cfi_def_cfa_offset 8
  64              		.cfi_offset 3, -8
  65              		.cfi_offset 14, -4
 496:..\u8g2\csrc/mui.c ****   muif_get_cb(ui->uif)(ui, MUIF_MSG_FORM_START);
  66              		.loc 1 496 0
  67 0002 836B     		ldr	r3, [r0, #56]
  68 0004 9B68     		ldr	r3, [r3, #8]
  69 0006 0221     		movs	r1, #2
  70 0008 9847     		blx	r3
  71              	.LVL3:
 497:..\u8g2\csrc/mui.c ****   return 0;     /* continue with the loop */
 498:..\u8g2\csrc/mui.c **** }
  72              		.loc 1 498 0
ARM GAS  C:\Users\brian\AppData\Local\Temp\ccibXfrV.s 			page 11


  73 000a 0020     		movs	r0, #0
  74 000c 08BD     		pop	{r3, pc}
  75              		.cfi_endproc
  76              	.LFE15:
  77              		.size	mui_task_form_start, .-mui_task_form_start
  78 000e 00BF     		.section	.text.mui_task_form_end,"ax",%progbits
  79              		.align	2
  80              		.global	mui_task_form_end
  81              		.thumb
  82              		.thumb_func
  83              		.type	mui_task_form_end, %function
  84              	mui_task_form_end:
  85              	.LFB16:
 499:..\u8g2\csrc/mui.c **** 
 500:..\u8g2\csrc/mui.c **** uint8_t mui_task_form_end(mui_t *ui)
 501:..\u8g2\csrc/mui.c **** {
  86              		.loc 1 501 0
  87              		.cfi_startproc
  88              		@ args = 0, pretend = 0, frame = 0
  89              		@ frame_needed = 0, uses_anonymous_args = 0
  90              	.LVL4:
  91 0000 08B5     		push	{r3, lr}
  92              		.cfi_def_cfa_offset 8
  93              		.cfi_offset 3, -8
  94              		.cfi_offset 14, -4
 502:..\u8g2\csrc/mui.c ****   muif_get_cb(ui->uif)(ui, MUIF_MSG_FORM_END);
  95              		.loc 1 502 0
  96 0002 836B     		ldr	r3, [r0, #56]
  97 0004 9B68     		ldr	r3, [r3, #8]
  98 0006 0321     		movs	r1, #3
  99 0008 9847     		blx	r3
 100              	.LVL5:
 503:..\u8g2\csrc/mui.c ****   return 0;     /* continue with the loop */
 504:..\u8g2\csrc/mui.c **** }
 101              		.loc 1 504 0
 102 000a 0020     		movs	r0, #0
 103 000c 08BD     		pop	{r3, pc}
 104              		.cfi_endproc
 105              	.LFE16:
 106              		.size	mui_task_form_end, .-mui_task_form_end
 107 000e 00BF     		.section	.text.mui_uif_is_cursor_selectable,"ax",%progbits
 108              		.align	2
 109              		.thumb
 110              		.thumb_func
 111              		.type	mui_uif_is_cursor_selectable, %function
 112              	mui_uif_is_cursor_selectable:
 113              	.LFB17:
 505:..\u8g2\csrc/mui.c **** 
 506:..\u8g2\csrc/mui.c **** static uint8_t mui_uif_is_cursor_selectable(mui_t *ui) MUI_NOINLINE;
 507:..\u8g2\csrc/mui.c **** static uint8_t mui_uif_is_cursor_selectable(mui_t *ui)
 508:..\u8g2\csrc/mui.c **** {
 114              		.loc 1 508 0
 115              		.cfi_startproc
 116              		@ args = 0, pretend = 0, frame = 0
 117              		@ frame_needed = 0, uses_anonymous_args = 0
 118              		@ link register save eliminated.
 119              	.LVL6:
ARM GAS  C:\Users\brian\AppData\Local\Temp\ccibXfrV.s 			page 12


 509:..\u8g2\csrc/mui.c ****   if ( muif_get_cflags(ui->uif) & MUIF_CFLAG_IS_CURSOR_SELECTABLE )
 120              		.loc 1 509 0
 121 0000 836B     		ldr	r3, [r0, #56]
 122 0002 9878     		ldrb	r0, [r3, #2]	@ zero_extendqisi2
 123              	.LVL7:
 124 0004 10F00100 		ands	r0, r0, #1
 125 0008 00D0     		beq	.L8
 510:..\u8g2\csrc/mui.c ****   {
 511:..\u8g2\csrc/mui.c ****     return 1;
 126              		.loc 1 511 0
 127 000a 0120     		movs	r0, #1
 128              	.L8:
 512:..\u8g2\csrc/mui.c ****   }
 513:..\u8g2\csrc/mui.c ****   return 0;
 514:..\u8g2\csrc/mui.c **** }
 129              		.loc 1 514 0
 130 000c 7047     		bx	lr
 131              		.cfi_endproc
 132              	.LFE17:
 133              		.size	mui_uif_is_cursor_selectable, .-mui_uif_is_cursor_selectable
 134 000e 00BF     		.section	.text.mui_task_find_prev_cursor_uif,"ax",%progbits
 135              		.align	2
 136              		.global	mui_task_find_prev_cursor_uif
 137              		.thumb
 138              		.thumb_func
 139              		.type	mui_task_find_prev_cursor_uif, %function
 140              	mui_task_find_prev_cursor_uif:
 141              	.LFB18:
 515:..\u8g2\csrc/mui.c **** 
 516:..\u8g2\csrc/mui.c **** uint8_t mui_task_find_prev_cursor_uif(mui_t *ui)
 517:..\u8g2\csrc/mui.c **** {
 142              		.loc 1 517 0
 143              		.cfi_startproc
 144              		@ args = 0, pretend = 0, frame = 0
 145              		@ frame_needed = 0, uses_anonymous_args = 0
 146              	.LVL8:
 147 0000 10B5     		push	{r4, lr}
 148              		.cfi_def_cfa_offset 8
 149              		.cfi_offset 4, -8
 150              		.cfi_offset 14, -4
 151 0002 0446     		mov	r4, r0
 518:..\u8g2\csrc/mui.c ****   //if ( muif_get_cflags(ui->uif) & MUIF_CFLAG_IS_CURSOR_SELECTABLE )
 519:..\u8g2\csrc/mui.c ****   if ( mui_uif_is_cursor_selectable(ui) )
 152              		.loc 1 519 0
 153 0004 FFF7FEFF 		bl	mui_uif_is_cursor_selectable
 154              	.LVL9:
 155 0008 0346     		mov	r3, r0
 156 000a 48B1     		cbz	r0, .L10
 520:..\u8g2\csrc/mui.c ****   {
 521:..\u8g2\csrc/mui.c ****     if ( ui->fds == ui->cursor_focus_fds )
 157              		.loc 1 521 0
 158 000c 636B     		ldr	r3, [r4, #52]
 159 000e 6269     		ldr	r2, [r4, #20]
 160 0010 9342     		cmp	r3, r2
 161 0012 03D1     		bne	.L11
 522:..\u8g2\csrc/mui.c ****     {
 523:..\u8g2\csrc/mui.c ****       ui->target_fds = ui->tmp_fds;
ARM GAS  C:\Users\brian\AppData\Local\Temp\ccibXfrV.s 			page 13


 162              		.loc 1 523 0
 163 0014 A36E     		ldr	r3, [r4, #104]
 164 0016 E366     		str	r3, [r4, #108]
 524:..\u8g2\csrc/mui.c ****       return 1;         /* stop looping */
 165              		.loc 1 524 0
 166 0018 0123     		movs	r3, #1
 167 001a 01E0     		b	.L10
 168              	.L11:
 525:..\u8g2\csrc/mui.c ****     }
 526:..\u8g2\csrc/mui.c ****     ui->tmp_fds = ui->fds;
 169              		.loc 1 526 0
 170 001c A366     		str	r3, [r4, #104]
 527:..\u8g2\csrc/mui.c ****   }
 528:..\u8g2\csrc/mui.c ****   return 0;     /* continue with the loop */
 171              		.loc 1 528 0
 172 001e 0023     		movs	r3, #0
 173              	.L10:
 529:..\u8g2\csrc/mui.c **** }
 174              		.loc 1 529 0
 175 0020 1846     		mov	r0, r3
 176 0022 10BD     		pop	{r4, pc}
 177              		.cfi_endproc
 178              	.LFE18:
 179              		.size	mui_task_find_prev_cursor_uif, .-mui_task_find_prev_cursor_uif
 180              		.section	.text.mui_task_find_first_cursor_uif,"ax",%progbits
 181              		.align	2
 182              		.global	mui_task_find_first_cursor_uif
 183              		.thumb
 184              		.thumb_func
 185              		.type	mui_task_find_first_cursor_uif, %function
 186              	mui_task_find_first_cursor_uif:
 187              	.LFB19:
 530:..\u8g2\csrc/mui.c **** 
 531:..\u8g2\csrc/mui.c **** uint8_t mui_task_find_first_cursor_uif(mui_t *ui)
 532:..\u8g2\csrc/mui.c **** {
 188              		.loc 1 532 0
 189              		.cfi_startproc
 190              		@ args = 0, pretend = 0, frame = 0
 191              		@ frame_needed = 0, uses_anonymous_args = 0
 192              	.LVL10:
 193 0000 10B5     		push	{r4, lr}
 194              		.cfi_def_cfa_offset 8
 195              		.cfi_offset 4, -8
 196              		.cfi_offset 14, -4
 197 0002 0446     		mov	r4, r0
 533:..\u8g2\csrc/mui.c ****   //if ( muif_get_cflags(ui->uif) & MUIF_CFLAG_IS_CURSOR_SELECTABLE )
 534:..\u8g2\csrc/mui.c ****   if ( mui_uif_is_cursor_selectable(ui) )
 198              		.loc 1 534 0
 199 0004 FFF7FEFF 		bl	mui_uif_is_cursor_selectable
 200              	.LVL11:
 201 0008 0346     		mov	r3, r0
 202 000a 10B1     		cbz	r0, .L14
 535:..\u8g2\csrc/mui.c ****   {
 536:..\u8g2\csrc/mui.c ****     // if ( ui->target_fds == NULL )
 537:..\u8g2\csrc/mui.c ****     // {
 538:..\u8g2\csrc/mui.c ****       ui->target_fds = ui->fds;
 203              		.loc 1 538 0
ARM GAS  C:\Users\brian\AppData\Local\Temp\ccibXfrV.s 			page 14


 204 000c 636B     		ldr	r3, [r4, #52]
 205 000e E366     		str	r3, [r4, #108]
 539:..\u8g2\csrc/mui.c ****       return 1;         /* stop looping */
 206              		.loc 1 539 0
 207 0010 0123     		movs	r3, #1
 208              	.L14:
 540:..\u8g2\csrc/mui.c ****     // }
 541:..\u8g2\csrc/mui.c ****   }
 542:..\u8g2\csrc/mui.c ****   return 0;     /* continue with the loop */
 543:..\u8g2\csrc/mui.c **** }
 209              		.loc 1 543 0
 210 0012 1846     		mov	r0, r3
 211 0014 10BD     		pop	{r4, pc}
 212              		.cfi_endproc
 213              	.LFE19:
 214              		.size	mui_task_find_first_cursor_uif, .-mui_task_find_first_cursor_uif
 215 0016 00BF     		.section	.text.mui_task_find_last_cursor_uif,"ax",%progbits
 216              		.align	2
 217              		.global	mui_task_find_last_cursor_uif
 218              		.thumb
 219              		.thumb_func
 220              		.type	mui_task_find_last_cursor_uif, %function
 221              	mui_task_find_last_cursor_uif:
 222              	.LFB20:
 544:..\u8g2\csrc/mui.c **** 
 545:..\u8g2\csrc/mui.c **** uint8_t mui_task_find_last_cursor_uif(mui_t *ui)
 546:..\u8g2\csrc/mui.c **** {
 223              		.loc 1 546 0
 224              		.cfi_startproc
 225              		@ args = 0, pretend = 0, frame = 0
 226              		@ frame_needed = 0, uses_anonymous_args = 0
 227              	.LVL12:
 228 0000 10B5     		push	{r4, lr}
 229              		.cfi_def_cfa_offset 8
 230              		.cfi_offset 4, -8
 231              		.cfi_offset 14, -4
 232 0002 0446     		mov	r4, r0
 547:..\u8g2\csrc/mui.c ****   //if ( muif_get_cflags(ui->uif) & MUIF_CFLAG_IS_CURSOR_SELECTABLE )
 548:..\u8g2\csrc/mui.c ****   if ( mui_uif_is_cursor_selectable(ui) )
 233              		.loc 1 548 0
 234 0004 FFF7FEFF 		bl	mui_uif_is_cursor_selectable
 235              	.LVL13:
 236 0008 08B1     		cbz	r0, .L17
 549:..\u8g2\csrc/mui.c ****   {
 550:..\u8g2\csrc/mui.c ****     //ui->cursor_focus_position++;
 551:..\u8g2\csrc/mui.c ****     ui->target_fds = ui->fds;
 237              		.loc 1 551 0
 238 000a 636B     		ldr	r3, [r4, #52]
 239 000c E366     		str	r3, [r4, #108]
 240              	.L17:
 552:..\u8g2\csrc/mui.c ****   }
 553:..\u8g2\csrc/mui.c ****   return 0;     /* continue with the loop */
 554:..\u8g2\csrc/mui.c **** }
 241              		.loc 1 554 0
 242 000e 0020     		movs	r0, #0
 243 0010 10BD     		pop	{r4, pc}
 244              		.cfi_endproc
ARM GAS  C:\Users\brian\AppData\Local\Temp\ccibXfrV.s 			page 15


 245              	.LFE20:
 246              		.size	mui_task_find_last_cursor_uif, .-mui_task_find_last_cursor_uif
 247 0012 00BF     		.section	.text.mui_task_find_next_cursor_uif,"ax",%progbits
 248              		.align	2
 249              		.global	mui_task_find_next_cursor_uif
 250              		.thumb
 251              		.thumb_func
 252              		.type	mui_task_find_next_cursor_uif, %function
 253              	mui_task_find_next_cursor_uif:
 254              	.LFB21:
 555:..\u8g2\csrc/mui.c **** 
 556:..\u8g2\csrc/mui.c **** uint8_t mui_task_find_next_cursor_uif(mui_t *ui)
 557:..\u8g2\csrc/mui.c **** {
 255              		.loc 1 557 0
 256              		.cfi_startproc
 257              		@ args = 0, pretend = 0, frame = 0
 258              		@ frame_needed = 0, uses_anonymous_args = 0
 259              	.LVL14:
 260 0000 10B5     		push	{r4, lr}
 261              		.cfi_def_cfa_offset 8
 262              		.cfi_offset 4, -8
 263              		.cfi_offset 14, -4
 264 0002 0446     		mov	r4, r0
 558:..\u8g2\csrc/mui.c ****   //if ( muif_get_cflags(ui->uif) & MUIF_CFLAG_IS_CURSOR_SELECTABLE )
 559:..\u8g2\csrc/mui.c ****   if ( mui_uif_is_cursor_selectable(ui) )
 265              		.loc 1 559 0
 266 0004 FFF7FEFF 		bl	mui_uif_is_cursor_selectable
 267              	.LVL15:
 268 0008 0346     		mov	r3, r0
 269 000a 78B1     		cbz	r0, .L20
 560:..\u8g2\csrc/mui.c ****   {
 561:..\u8g2\csrc/mui.c ****     if ( ui->tmp_fds != NULL )
 270              		.loc 1 561 0
 271 000c A36E     		ldr	r3, [r4, #104]
 272 000e 2BB1     		cbz	r3, .L21
 562:..\u8g2\csrc/mui.c ****     {
 563:..\u8g2\csrc/mui.c ****       ui->target_fds = ui->fds;        
 273              		.loc 1 563 0
 274 0010 636B     		ldr	r3, [r4, #52]
 275 0012 E366     		str	r3, [r4, #108]
 564:..\u8g2\csrc/mui.c ****       ui->tmp_fds = NULL;
 276              		.loc 1 564 0
 277 0014 0023     		movs	r3, #0
 278 0016 A366     		str	r3, [r4, #104]
 565:..\u8g2\csrc/mui.c ****       return 1;         /* stop looping */
 279              		.loc 1 565 0
 280 0018 0123     		movs	r3, #1
 281 001a 07E0     		b	.L20
 282              	.L21:
 566:..\u8g2\csrc/mui.c ****     }
 567:..\u8g2\csrc/mui.c ****     if ( ui->fds == ui->cursor_focus_fds )
 283              		.loc 1 567 0
 284 001c 636B     		ldr	r3, [r4, #52]
 285 001e 6269     		ldr	r2, [r4, #20]
 286 0020 9342     		cmp	r3, r2
 287 0022 02D1     		bne	.L22
 568:..\u8g2\csrc/mui.c ****     {
ARM GAS  C:\Users\brian\AppData\Local\Temp\ccibXfrV.s 			page 16


 569:..\u8g2\csrc/mui.c ****       ui->tmp_fds = ui->fds;
 288              		.loc 1 569 0
 289 0024 A366     		str	r3, [r4, #104]
 570:..\u8g2\csrc/mui.c ****     }
 571:..\u8g2\csrc/mui.c ****   }
 572:..\u8g2\csrc/mui.c ****   return 0;     /* continue with the loop */
 290              		.loc 1 572 0
 291 0026 0023     		movs	r3, #0
 292 0028 00E0     		b	.L20
 293              	.L22:
 294 002a 0023     		movs	r3, #0
 295              	.L20:
 573:..\u8g2\csrc/mui.c **** }
 296              		.loc 1 573 0
 297 002c 1846     		mov	r0, r3
 298 002e 10BD     		pop	{r4, pc}
 299              		.cfi_endproc
 300              	.LFE21:
 301              		.size	mui_task_find_next_cursor_uif, .-mui_task_find_next_cursor_uif
 302              		.section	.text.mui_task_get_current_cursor_focus_position,"ax",%progbits
 303              		.align	2
 304              		.global	mui_task_get_current_cursor_focus_position
 305              		.thumb
 306              		.thumb_func
 307              		.type	mui_task_get_current_cursor_focus_position, %function
 308              	mui_task_get_current_cursor_focus_position:
 309              	.LFB22:
 574:..\u8g2\csrc/mui.c **** 
 575:..\u8g2\csrc/mui.c **** uint8_t mui_task_get_current_cursor_focus_position(mui_t *ui)
 576:..\u8g2\csrc/mui.c **** {
 310              		.loc 1 576 0
 311              		.cfi_startproc
 312              		@ args = 0, pretend = 0, frame = 0
 313              		@ frame_needed = 0, uses_anonymous_args = 0
 314              	.LVL16:
 315 0000 10B5     		push	{r4, lr}
 316              		.cfi_def_cfa_offset 8
 317              		.cfi_offset 4, -8
 318              		.cfi_offset 14, -4
 319 0002 0446     		mov	r4, r0
 577:..\u8g2\csrc/mui.c ****   //if ( muif_get_cflags(ui->uif) & MUIF_CFLAG_IS_CURSOR_SELECTABLE )
 578:..\u8g2\csrc/mui.c ****   if ( mui_uif_is_cursor_selectable(ui) )
 320              		.loc 1 578 0
 321 0004 FFF7FEFF 		bl	mui_uif_is_cursor_selectable
 322              	.LVL17:
 323 0008 0346     		mov	r3, r0
 324 000a 58B1     		cbz	r0, .L25
 579:..\u8g2\csrc/mui.c ****   {
 580:..\u8g2\csrc/mui.c ****     if ( ui->fds == ui->cursor_focus_fds )
 325              		.loc 1 580 0
 326 000c 626B     		ldr	r2, [r4, #52]
 327 000e 6369     		ldr	r3, [r4, #20]
 328 0010 9A42     		cmp	r2, r3
 329 0012 06D0     		beq	.L26
 581:..\u8g2\csrc/mui.c ****       return 1;         /* stop looping */
 582:..\u8g2\csrc/mui.c ****     ui->tmp8++;
 330              		.loc 1 582 0
ARM GAS  C:\Users\brian\AppData\Local\Temp\ccibXfrV.s 			page 17


 331 0014 94F82530 		ldrb	r3, [r4, #37]	@ zero_extendqisi2
 332 0018 0133     		adds	r3, r3, #1
 333 001a 84F82530 		strb	r3, [r4, #37]
 583:..\u8g2\csrc/mui.c ****   }
 584:..\u8g2\csrc/mui.c ****   return 0;     /* continue with the loop */
 334              		.loc 1 584 0
 335 001e 0023     		movs	r3, #0
 336 0020 00E0     		b	.L25
 337              	.L26:
 581:..\u8g2\csrc/mui.c ****       return 1;         /* stop looping */
 338              		.loc 1 581 0
 339 0022 0123     		movs	r3, #1
 340              	.L25:
 585:..\u8g2\csrc/mui.c **** }
 341              		.loc 1 585 0
 342 0024 1846     		mov	r0, r3
 343 0026 10BD     		pop	{r4, pc}
 344              		.cfi_endproc
 345              	.LFE22:
 346              		.size	mui_task_get_current_cursor_focus_position, .-mui_task_get_current_cursor_focus_position
 347              		.section	.text.mui_get_fds_char,"ax",%progbits
 348              		.align	2
 349              		.global	mui_get_fds_char
 350              		.thumb
 351              		.thumb_func
 352              		.type	mui_get_fds_char, %function
 353              	mui_get_fds_char:
 354              	.LFB0:
  88:..\u8g2\csrc/mui.c ****   //return (uint8_t)(*s);
 355              		.loc 1 88 0
 356              		.cfi_startproc
 357              		@ args = 0, pretend = 0, frame = 0
 358              		@ frame_needed = 0, uses_anonymous_args = 0
 359              		@ link register save eliminated.
 360              	.LVL18:
  91:..\u8g2\csrc/mui.c **** 
 361              		.loc 1 91 0
 362 0000 0078     		ldrb	r0, [r0]	@ zero_extendqisi2
 363              	.LVL19:
 364 0002 7047     		bx	lr
 365              		.cfi_endproc
 366              	.LFE0:
 367              		.size	mui_get_fds_char, .-mui_get_fds_char
 368              		.section	.text.mui_fds_get_cmd_size_without_text,"ax",%progbits
 369              		.align	2
 370              		.thumb
 371              		.thumb_func
 372              		.type	mui_fds_get_cmd_size_without_text, %function
 373              	mui_fds_get_cmd_size_without_text:
 374              	.LFB1:
  99:..\u8g2\csrc/mui.c ****   uint8_t c = mui_get_fds_char(s);
 375              		.loc 1 99 0
 376              		.cfi_startproc
 377              		@ args = 0, pretend = 0, frame = 0
 378              		@ frame_needed = 0, uses_anonymous_args = 0
 379              	.LVL20:
 380 0000 08B5     		push	{r3, lr}
ARM GAS  C:\Users\brian\AppData\Local\Temp\ccibXfrV.s 			page 18


 381              		.cfi_def_cfa_offset 8
 382              		.cfi_offset 3, -8
 383              		.cfi_offset 14, -4
 100:..\u8g2\csrc/mui.c ****   c &= 0xdf; /* consider upper and lower case */
 384              		.loc 1 100 0
 385 0002 FFF7FEFF 		bl	mui_get_fds_char
 386              	.LVL21:
 101:..\u8g2\csrc/mui.c ****   switch(c)
 387              		.loc 1 101 0
 388 0006 00F0DF00 		and	r0, r0, #223
 389              	.LVL22:
 102:..\u8g2\csrc/mui.c ****   {
 390              		.loc 1 102 0
 391 000a 5528     		cmp	r0, #85
 392 000c 3AD8     		bhi	.L30
 393 000e DFE800F0 		tbb	[pc, r0]
 394              	.L32:
 395 0012 37       		.byte	(.L31-.L32)/2
 396 0013 39       		.byte	(.L30-.L32)/2
 397 0014 39       		.byte	(.L30-.L32)/2
 398 0015 39       		.byte	(.L30-.L32)/2
 399 0016 39       		.byte	(.L30-.L32)/2
 400 0017 39       		.byte	(.L30-.L32)/2
 401 0018 39       		.byte	(.L30-.L32)/2
 402 0019 39       		.byte	(.L30-.L32)/2
 403 001a 39       		.byte	(.L30-.L32)/2
 404 001b 39       		.byte	(.L30-.L32)/2
 405 001c 39       		.byte	(.L30-.L32)/2
 406 001d 39       		.byte	(.L30-.L32)/2
 407 001e 39       		.byte	(.L30-.L32)/2
 408 001f 39       		.byte	(.L30-.L32)/2
 409 0020 39       		.byte	(.L30-.L32)/2
 410 0021 39       		.byte	(.L30-.L32)/2
 411 0022 39       		.byte	(.L30-.L32)/2
 412 0023 39       		.byte	(.L30-.L32)/2
 413 0024 39       		.byte	(.L30-.L32)/2
 414 0025 39       		.byte	(.L30-.L32)/2
 415 0026 39       		.byte	(.L30-.L32)/2
 416 0027 39       		.byte	(.L30-.L32)/2
 417 0028 39       		.byte	(.L30-.L32)/2
 418 0029 39       		.byte	(.L30-.L32)/2
 419 002a 39       		.byte	(.L30-.L32)/2
 420 002b 39       		.byte	(.L30-.L32)/2
 421 002c 39       		.byte	(.L30-.L32)/2
 422 002d 39       		.byte	(.L30-.L32)/2
 423 002e 39       		.byte	(.L30-.L32)/2
 424 002f 39       		.byte	(.L30-.L32)/2
 425 0030 39       		.byte	(.L30-.L32)/2
 426 0031 39       		.byte	(.L30-.L32)/2
 427 0032 39       		.byte	(.L30-.L32)/2
 428 0033 39       		.byte	(.L30-.L32)/2
 429 0034 39       		.byte	(.L30-.L32)/2
 430 0035 39       		.byte	(.L30-.L32)/2
 431 0036 39       		.byte	(.L30-.L32)/2
 432 0037 39       		.byte	(.L30-.L32)/2
 433 0038 39       		.byte	(.L30-.L32)/2
 434 0039 39       		.byte	(.L30-.L32)/2
ARM GAS  C:\Users\brian\AppData\Local\Temp\ccibXfrV.s 			page 19


 435 003a 39       		.byte	(.L30-.L32)/2
 436 003b 39       		.byte	(.L30-.L32)/2
 437 003c 39       		.byte	(.L30-.L32)/2
 438 003d 39       		.byte	(.L30-.L32)/2
 439 003e 39       		.byte	(.L30-.L32)/2
 440 003f 39       		.byte	(.L30-.L32)/2
 441 0040 39       		.byte	(.L30-.L32)/2
 442 0041 39       		.byte	(.L30-.L32)/2
 443 0042 39       		.byte	(.L30-.L32)/2
 444 0043 39       		.byte	(.L30-.L32)/2
 445 0044 39       		.byte	(.L30-.L32)/2
 446 0045 39       		.byte	(.L30-.L32)/2
 447 0046 39       		.byte	(.L30-.L32)/2
 448 0047 39       		.byte	(.L30-.L32)/2
 449 0048 39       		.byte	(.L30-.L32)/2
 450 0049 39       		.byte	(.L30-.L32)/2
 451 004a 39       		.byte	(.L30-.L32)/2
 452 004b 39       		.byte	(.L30-.L32)/2
 453 004c 39       		.byte	(.L30-.L32)/2
 454 004d 39       		.byte	(.L30-.L32)/2
 455 004e 39       		.byte	(.L30-.L32)/2
 456 004f 39       		.byte	(.L30-.L32)/2
 457 0050 39       		.byte	(.L30-.L32)/2
 458 0051 39       		.byte	(.L30-.L32)/2
 459 0052 39       		.byte	(.L30-.L32)/2
 460 0053 33       		.byte	(.L33-.L32)/2
 461 0054 2F       		.byte	(.L34-.L32)/2
 462 0055 39       		.byte	(.L30-.L32)/2
 463 0056 3B       		.byte	(.L40-.L32)/2
 464 0057 39       		.byte	(.L30-.L32)/2
 465 0058 2D       		.byte	(.L36-.L32)/2
 466 0059 35       		.byte	(.L37-.L32)/2
 467 005a 39       		.byte	(.L30-.L32)/2
 468 005b 39       		.byte	(.L30-.L32)/2
 469 005c 39       		.byte	(.L30-.L32)/2
 470 005d 39       		.byte	(.L30-.L32)/2
 471 005e 3B       		.byte	(.L40-.L32)/2
 472 005f 39       		.byte	(.L30-.L32)/2
 473 0060 39       		.byte	(.L30-.L32)/2
 474 0061 39       		.byte	(.L30-.L32)/2
 475 0062 39       		.byte	(.L30-.L32)/2
 476 0063 39       		.byte	(.L30-.L32)/2
 477 0064 39       		.byte	(.L30-.L32)/2
 478 0065 2B       		.byte	(.L38-.L32)/2
 479 0066 31       		.byte	(.L39-.L32)/2
 480 0067 2B       		.byte	(.L38-.L32)/2
 481              		.p2align 1
 482              	.L38:
 104:..\u8g2\csrc/mui.c ****     case 'S': return 2;         // Style: CMD (1 Byte), Style Id (1 Byte)
 483              		.loc 1 104 0
 484 0068 0220     		movs	r0, #2
 485              	.LVL23:
 486 006a 08BD     		pop	{r3, pc}
 487              	.LVL24:
 488              	.L36:
 107:..\u8g2\csrc/mui.c ****     case 'B': return 5;         // Field with text: CMD (1 Byte), ID (2 Bytes), X, Y, Text (does no
 489              		.loc 1 107 0
ARM GAS  C:\Users\brian\AppData\Local\Temp\ccibXfrV.s 			page 20


 490 006c 0520     		movs	r0, #5
 491              	.LVL25:
 492 006e 08BD     		pop	{r3, pc}
 493              	.LVL26:
 494              	.L34:
 108:..\u8g2\csrc/mui.c ****     case 'T': return 6;         // Field with arg & text: CMD (1 Byte), ID (2 Bytes), X, Y, Arg, Te
 495              		.loc 1 108 0
 496 0070 0520     		movs	r0, #5
 497              	.LVL27:
 498 0072 08BD     		pop	{r3, pc}
 499              	.LVL28:
 500              	.L39:
 109:..\u8g2\csrc/mui.c ****     case 'A': return 6;         // Field with arg (no text): CMD (1 Byte), ID (2 Bytes), X, Y, Arg,
 501              		.loc 1 109 0
 502 0074 0620     		movs	r0, #6
 503              	.LVL29:
 504 0076 08BD     		pop	{r3, pc}
 505              	.LVL30:
 506              	.L33:
 110:..\u8g2\csrc/mui.c ****     case 'L': return 3;          // Text Label: CMD (1 Byte), X, Y (same as 'B' but with fixed ID '
 507              		.loc 1 110 0
 508 0078 0620     		movs	r0, #6
 509              	.LVL31:
 510 007a 08BD     		pop	{r3, pc}
 511              	.LVL32:
 512              	.L37:
 112:..\u8g2\csrc/mui.c ****     case 0: return 0;
 513              		.loc 1 112 0
 514 007c 0420     		movs	r0, #4
 515              	.LVL33:
 516 007e 08BD     		pop	{r3, pc}
 517              	.LVL34:
 518              	.L31:
 113:..\u8g2\csrc/mui.c ****   }
 519              		.loc 1 113 0
 520 0080 0020     		movs	r0, #0
 521              	.LVL35:
 522 0082 08BD     		pop	{r3, pc}
 523              	.LVL36:
 524              	.L30:
 115:..\u8g2\csrc/mui.c **** }
 525              		.loc 1 115 0
 526 0084 0120     		movs	r0, #1
 527              	.LVL37:
 528 0086 08BD     		pop	{r3, pc}
 529              	.LVL38:
 530              	.L40:
 106:..\u8g2\csrc/mui.c ****     case 'F': return 5;         // Field without arg & text: CMD (1 Byte), ID (2 Bytes), X, Y
 531              		.loc 1 106 0
 532 0088 0320     		movs	r0, #3
 533              	.LVL39:
 116:..\u8g2\csrc/mui.c **** 
 534              		.loc 1 116 0
 535 008a 08BD     		pop	{r3, pc}
 536              		.cfi_endproc
 537              	.LFE1:
 538              		.size	mui_fds_get_cmd_size_without_text, .-mui_fds_get_cmd_size_without_text
ARM GAS  C:\Users\brian\AppData\Local\Temp\ccibXfrV.s 			page 21


 539              		.section	.text.mui_fds_parse_text,"ax",%progbits
 540              		.align	2
 541              		.thumb
 542              		.thumb_func
 543              		.type	mui_fds_parse_text, %function
 544              	mui_fds_parse_text:
 545              	.LFB2:
 128:..\u8g2\csrc/mui.c ****   uint8_t i = 0;
 546              		.loc 1 128 0
 547              		.cfi_startproc
 548              		@ args = 0, pretend = 0, frame = 0
 549              		@ frame_needed = 0, uses_anonymous_args = 0
 550              	.LVL40:
 551 0000 2DE9F041 		push	{r4, r5, r6, r7, r8, lr}
 552              		.cfi_def_cfa_offset 24
 553              		.cfi_offset 4, -24
 554              		.cfi_offset 5, -20
 555              		.cfi_offset 6, -16
 556              		.cfi_offset 7, -12
 557              		.cfi_offset 8, -8
 558              		.cfi_offset 14, -4
 559 0004 8046     		mov	r8, r0
 560 0006 0F46     		mov	r7, r1
 561              	.LVL41:
 130:..\u8g2\csrc/mui.c ****   uint8_t c;
 562              		.loc 1 130 0
 563 0008 0846     		mov	r0, r1
 564              	.LVL42:
 565 000a FFF7FEFF 		bl	mui_get_fds_char
 566              	.LVL43:
 567 000e 88F82700 		strb	r0, [r8, #39]
 568              	.LVL44:
 136:..\u8g2\csrc/mui.c ****     return 0;
 569              		.loc 1 136 0
 570 0012 D0B1     		cbz	r0, .L48
 571 0014 0646     		mov	r6, r0
 139:..\u8g2\csrc/mui.c ****   for( ;; )
 572              		.loc 1 139 0
 573 0016 7D1C     		adds	r5, r7, #1
 574              	.LVL45:
 129:..\u8g2\csrc/mui.c ****   ui->delimiter = mui_get_fds_char(s);
 575              		.loc 1 129 0
 576 0018 0024     		movs	r4, #0
 577              	.LVL46:
 578              	.L47:
 142:..\u8g2\csrc/mui.c ****   //printf("mui_fds_parse_text i=%d, c=%c\n", i, c);
 579              		.loc 1 142 0
 580 001a 2846     		mov	r0, r5
 581 001c FFF7FEFF 		bl	mui_get_fds_char
 582              	.LVL47:
 145:..\u8g2\csrc/mui.c ****       break;
 583              		.loc 1 145 0
 584 0020 60B1     		cbz	r0, .L44
 148:..\u8g2\csrc/mui.c ****     {
 585              		.loc 1 148 0
 586 0022 8642     		cmp	r6, r0
 587 0024 01D1     		bne	.L45
ARM GAS  C:\Users\brian\AppData\Local\Temp\ccibXfrV.s 			page 22


 150:..\u8g2\csrc/mui.c ****       break;
 588              		.loc 1 150 0
 589 0026 0135     		adds	r5, r5, #1
 590              	.LVL48:
 151:..\u8g2\csrc/mui.c ****     }
 591              		.loc 1 151 0
 592 0028 08E0     		b	.L44
 593              	.L45:
 153:..\u8g2\csrc/mui.c ****     {
 594              		.loc 1 153 0
 595 002a 282C     		cmp	r4, #40
 596 002c 04D8     		bhi	.L46
 155:..\u8g2\csrc/mui.c ****     }
 597              		.loc 1 155 0
 598 002e 621C     		adds	r2, r4, #1
 599              	.LVL49:
 600 0030 4444     		add	r4, r4, r8
 601 0032 84F83C00 		strb	r0, [r4, #60]
 602 0036 D4B2     		uxtb	r4, r2
 603              	.LVL50:
 604              	.L46:
 157:..\u8g2\csrc/mui.c ****   }
 605              		.loc 1 157 0
 606 0038 0135     		adds	r5, r5, #1
 607              	.LVL51:
 158:..\u8g2\csrc/mui.c ****   ui->text[i] = '\0' ;
 608              		.loc 1 158 0
 609 003a EEE7     		b	.L47
 610              	.L44:
 159:..\u8g2\csrc/mui.c ****   return t-s;
 611              		.loc 1 159 0
 612 003c 4444     		add	r4, r4, r8
 613              	.LVL52:
 614 003e 0023     		movs	r3, #0
 615 0040 84F83C30 		strb	r3, [r4, #60]
 160:..\u8g2\csrc/mui.c **** }
 616              		.loc 1 160 0
 617 0044 E81B     		subs	r0, r5, r7
 618              	.LVL53:
 619 0046 BDE8F081 		pop	{r4, r5, r6, r7, r8, pc}
 620              	.LVL54:
 621              	.L48:
 137:..\u8g2\csrc/mui.c **** #endif 
 622              		.loc 1 137 0
 623 004a 0020     		movs	r0, #0
 161:..\u8g2\csrc/mui.c **** 
 624              		.loc 1 161 0
 625 004c BDE8F081 		pop	{r4, r5, r6, r7, r8, pc}
 626              		.cfi_endproc
 627              	.LFE2:
 628              		.size	mui_fds_parse_text, .-mui_fds_parse_text
 629              		.section	.text.mui_fds_get_cmd_size,"ax",%progbits
 630              		.align	2
 631              		.thumb
 632              		.thumb_func
 633              		.type	mui_fds_get_cmd_size, %function
 634              	mui_fds_get_cmd_size:
ARM GAS  C:\Users\brian\AppData\Local\Temp\ccibXfrV.s 			page 23


 635              	.LFB7:
 274:..\u8g2\csrc/mui.c ****   size_t l = mui_fds_get_cmd_size_without_text(s);
 636              		.loc 1 274 0
 637              		.cfi_startproc
 638              		@ args = 0, pretend = 0, frame = 0
 639              		@ frame_needed = 0, uses_anonymous_args = 0
 640              	.LVL55:
 641 0000 70B5     		push	{r4, r5, r6, lr}
 642              		.cfi_def_cfa_offset 16
 643              		.cfi_offset 4, -16
 644              		.cfi_offset 5, -12
 645              		.cfi_offset 6, -8
 646              		.cfi_offset 14, -4
 647 0002 0646     		mov	r6, r0
 648 0004 0C46     		mov	r4, r1
 275:..\u8g2\csrc/mui.c ****   uint8_t c = mui_get_fds_char(s);
 649              		.loc 1 275 0
 650 0006 0846     		mov	r0, r1
 651              	.LVL56:
 652 0008 FFF7FEFF 		bl	mui_fds_get_cmd_size_without_text
 653              	.LVL57:
 654 000c 0546     		mov	r5, r0
 655              	.LVL58:
 276:..\u8g2\csrc/mui.c ****  ui->text[0] = '\0' ;   /* always reset the text buffer */
 656              		.loc 1 276 0
 657 000e 2046     		mov	r0, r4
 658              	.LVL59:
 659 0010 FFF7FEFF 		bl	mui_get_fds_char
 660              	.LVL60:
 277:..\u8g2\csrc/mui.c ****  if ( mui_fds_is_text(c) )
 661              		.loc 1 277 0
 662 0014 0023     		movs	r3, #0
 663 0016 86F83C30 		strb	r3, [r6, #60]
 278:..\u8g2\csrc/mui.c ****   {
 664              		.loc 1 278 0
 665 001a 5528     		cmp	r0, #85
 666 001c 0AD0     		beq	.L51
 278:..\u8g2\csrc/mui.c ****   {
 667              		.loc 1 278 0 is_stmt 0 discriminator 1
 668 001e 5328     		cmp	r0, #83
 669 0020 08D0     		beq	.L51
 278:..\u8g2\csrc/mui.c ****   {
 670              		.loc 1 278 0 discriminator 2
 671 0022 4628     		cmp	r0, #70
 672 0024 06D0     		beq	.L51
 278:..\u8g2\csrc/mui.c ****   {
 673              		.loc 1 278 0 discriminator 3
 674 0026 4128     		cmp	r0, #65
 675 0028 04D0     		beq	.L51
 280:..\u8g2\csrc/mui.c ****   }
 676              		.loc 1 280 0 is_stmt 1
 677 002a 6119     		adds	r1, r4, r5
 678 002c 3046     		mov	r0, r6
 679              	.LVL61:
 680 002e FFF7FEFF 		bl	mui_fds_parse_text
 681              	.LVL62:
 682 0032 0544     		add	r5, r5, r0
ARM GAS  C:\Users\brian\AppData\Local\Temp\ccibXfrV.s 			page 24


 683              	.LVL63:
 684              	.L51:
 283:..\u8g2\csrc/mui.c **** 
 685              		.loc 1 283 0
 686 0034 2846     		mov	r0, r5
 687 0036 70BD     		pop	{r4, r5, r6, pc}
 688              		.cfi_endproc
 689              	.LFE7:
 690              		.size	mui_fds_get_cmd_size, .-mui_fds_get_cmd_size
 691              		.section	.text.mui_fds_next_token,"ax",%progbits
 692              		.align	2
 693              		.global	mui_fds_next_token
 694              		.thumb
 695              		.thumb_func
 696              		.type	mui_fds_next_token, %function
 697              	mui_fds_next_token:
 698              	.LFB4:
 192:..\u8g2\csrc/mui.c ****   uint8_t c;
 699              		.loc 1 192 0
 700              		.cfi_startproc
 701              		@ args = 0, pretend = 0, frame = 0
 702              		@ frame_needed = 0, uses_anonymous_args = 0
 703              	.LVL64:
 704 0000 70B5     		push	{r4, r5, r6, lr}
 705              		.cfi_def_cfa_offset 16
 706              		.cfi_offset 4, -16
 707              		.cfi_offset 5, -12
 708              		.cfi_offset 6, -8
 709              		.cfi_offset 14, -4
 710 0002 0546     		mov	r5, r0
 711              	.LVL65:
 194:..\u8g2\csrc/mui.c ****   // printf("mui_fds_next_token: call, ui->token=%p\n", ui->token);
 712              		.loc 1 194 0
 713 0004 0026     		movs	r6, #0
 714              	.LVL66:
 715              	.L57:
 198:..\u8g2\csrc/mui.c ****     // printf("mui_fds_next_token: i=%d c=%c\n", i, c);
 716              		.loc 1 198 0
 717 0006 EC69     		ldr	r4, [r5, #28]
 718 0008 2046     		mov	r0, r4
 719 000a FFF7FEFF 		bl	mui_get_fds_char
 720              	.LVL67:
 201:..\u8g2\csrc/mui.c ****       break;
 721              		.loc 1 201 0
 722 000e 90B1     		cbz	r0, .L54
 204:..\u8g2\csrc/mui.c ****       break;
 723              		.loc 1 204 0
 724 0010 95F82720 		ldrb	r2, [r5, #39]	@ zero_extendqisi2
 725 0014 9042     		cmp	r0, r2
 726 0016 0ED0     		beq	.L54
 206:..\u8g2\csrc/mui.c ****     {
 727              		.loc 1 206 0
 728 0018 7C28     		cmp	r0, #124
 729 001a 02D1     		bne	.L55
 208:..\u8g2\csrc/mui.c ****       break;
 730              		.loc 1 208 0
 731 001c 0134     		adds	r4, r4, #1
ARM GAS  C:\Users\brian\AppData\Local\Temp\ccibXfrV.s 			page 25


 732 001e EC61     		str	r4, [r5, #28]
 209:..\u8g2\csrc/mui.c ****     }
 733              		.loc 1 209 0
 734 0020 09E0     		b	.L54
 735              	.L55:
 212:..\u8g2\csrc/mui.c ****     {
 736              		.loc 1 212 0
 737 0022 282E     		cmp	r6, #40
 738 0024 04D8     		bhi	.L56
 214:..\u8g2\csrc/mui.c ****     }
 739              		.loc 1 214 0
 740 0026 721C     		adds	r2, r6, #1
 741              	.LVL68:
 742 0028 2E44     		add	r6, r6, r5
 743 002a 86F83C00 		strb	r0, [r6, #60]
 744 002e D6B2     		uxtb	r6, r2
 745              	.LVL69:
 746              	.L56:
 217:..\u8g2\csrc/mui.c ****   }
 747              		.loc 1 217 0
 748 0030 0134     		adds	r4, r4, #1
 749 0032 EC61     		str	r4, [r5, #28]
 218:..\u8g2\csrc/mui.c ****   ui->text[i] = '\0' ;
 750              		.loc 1 218 0
 751 0034 E7E7     		b	.L57
 752              	.L54:
 219:..\u8g2\csrc/mui.c ****   if ( i == 0 )
 753              		.loc 1 219 0
 754 0036 3544     		add	r5, r5, r6
 755              	.LVL70:
 756 0038 0023     		movs	r3, #0
 757 003a 85F83C30 		strb	r3, [r5, #60]
 220:..\u8g2\csrc/mui.c ****     return 0;   // no further token found
 758              		.loc 1 220 0
 759 003e 0EB9     		cbnz	r6, .L59
 221:..\u8g2\csrc/mui.c ****   return 1;  // token placed in ui->text
 760              		.loc 1 221 0
 761 0040 1846     		mov	r0, r3
 762              	.LVL71:
 763 0042 70BD     		pop	{r4, r5, r6, pc}
 764              	.LVL72:
 765              	.L59:
 222:..\u8g2\csrc/mui.c **** }
 766              		.loc 1 222 0
 767 0044 0120     		movs	r0, #1
 768              	.LVL73:
 223:..\u8g2\csrc/mui.c **** 
 769              		.loc 1 223 0
 770 0046 70BD     		pop	{r4, r5, r6, pc}
 771              		.cfi_endproc
 772              	.LFE4:
 773              		.size	mui_fds_next_token, .-mui_fds_next_token
 774              		.section	.text.mui_fds_first_token,"ax",%progbits
 775              		.align	2
 776              		.global	mui_fds_first_token
 777              		.thumb
 778              		.thumb_func
ARM GAS  C:\Users\brian\AppData\Local\Temp\ccibXfrV.s 			page 26


 779              		.type	mui_fds_first_token, %function
 780              	mui_fds_first_token:
 781              	.LFB3:
 182:..\u8g2\csrc/mui.c ****   ui->token = ui->fds;
 782              		.loc 1 182 0
 783              		.cfi_startproc
 784              		@ args = 0, pretend = 0, frame = 0
 785              		@ frame_needed = 0, uses_anonymous_args = 0
 786              	.LVL74:
 787 0000 38B5     		push	{r3, r4, r5, lr}
 788              		.cfi_def_cfa_offset 16
 789              		.cfi_offset 3, -16
 790              		.cfi_offset 4, -12
 791              		.cfi_offset 5, -8
 792              		.cfi_offset 14, -4
 793 0002 0546     		mov	r5, r0
 183:..\u8g2\csrc/mui.c ****   ui->token += mui_fds_get_cmd_size_without_text(ui->fds);
 794              		.loc 1 183 0
 795 0004 446B     		ldr	r4, [r0, #52]
 796 0006 C461     		str	r4, [r0, #28]
 184:..\u8g2\csrc/mui.c ****   ui->delimiter = mui_get_fds_char(ui->token);
 797              		.loc 1 184 0
 798 0008 2046     		mov	r0, r4
 799              	.LVL75:
 800 000a FFF7FEFF 		bl	mui_fds_get_cmd_size_without_text
 801              	.LVL76:
 802 000e 0444     		add	r4, r4, r0
 803 0010 EC61     		str	r4, [r5, #28]
 185:..\u8g2\csrc/mui.c ****   ui->token++;  // place ui->token on the first char of the token
 804              		.loc 1 185 0
 805 0012 2046     		mov	r0, r4
 806 0014 FFF7FEFF 		bl	mui_get_fds_char
 807              	.LVL77:
 808 0018 85F82700 		strb	r0, [r5, #39]
 186:..\u8g2\csrc/mui.c ****   return mui_fds_next_token(ui);
 809              		.loc 1 186 0
 810 001c 0134     		adds	r4, r4, #1
 811 001e EC61     		str	r4, [r5, #28]
 187:..\u8g2\csrc/mui.c **** }
 812              		.loc 1 187 0
 813 0020 2846     		mov	r0, r5
 814 0022 FFF7FEFF 		bl	mui_fds_next_token
 815              	.LVL78:
 188:..\u8g2\csrc/mui.c **** 
 816              		.loc 1 188 0
 817 0026 38BD     		pop	{r3, r4, r5, pc}
 818              		.cfi_endproc
 819              	.LFE3:
 820              		.size	mui_fds_first_token, .-mui_fds_first_token
 821              		.section	.text.mui_fds_get_nth_token,"ax",%progbits
 822              		.align	2
 823              		.global	mui_fds_get_nth_token
 824              		.thumb
 825              		.thumb_func
 826              		.type	mui_fds_get_nth_token, %function
 827              	mui_fds_get_nth_token:
 828              	.LFB5:
ARM GAS  C:\Users\brian\AppData\Local\Temp\ccibXfrV.s 			page 27


 230:..\u8g2\csrc/mui.c ****   // printf("mui_fds_get_nth_token: call, n=%d\n", n);
 829              		.loc 1 230 0
 830              		.cfi_startproc
 831              		@ args = 0, pretend = 0, frame = 0
 832              		@ frame_needed = 0, uses_anonymous_args = 0
 833              	.LVL79:
 834 0000 38B5     		push	{r3, r4, r5, lr}
 835              		.cfi_def_cfa_offset 16
 836              		.cfi_offset 3, -16
 837              		.cfi_offset 4, -12
 838              		.cfi_offset 5, -8
 839              		.cfi_offset 14, -4
 840 0002 0546     		mov	r5, r0
 841 0004 0C46     		mov	r4, r1
 232:..\u8g2\csrc/mui.c ****   {
 842              		.loc 1 232 0
 843 0006 FFF7FEFF 		bl	mui_fds_first_token
 844              	.LVL80:
 845 000a 0346     		mov	r3, r0
 846 000c 50B1     		cbz	r0, .L64
 847              	.LVL81:
 848              	.L65:
 236:..\u8g2\csrc/mui.c ****       {
 849              		.loc 1 236 0
 850 000e 44B1     		cbz	r4, .L66
 241:..\u8g2\csrc/mui.c ****     } while ( mui_fds_next_token(ui) );
 851              		.loc 1 241 0
 852 0010 013C     		subs	r4, r4, #1
 853              	.LVL82:
 854 0012 E4B2     		uxtb	r4, r4
 855              	.LVL83:
 242:..\u8g2\csrc/mui.c ****   }
 856              		.loc 1 242 0
 857 0014 2846     		mov	r0, r5
 858 0016 FFF7FEFF 		bl	mui_fds_next_token
 859              	.LVL84:
 860 001a 0346     		mov	r3, r0
 861 001c 0028     		cmp	r0, #0
 862 001e F6D1     		bne	.L65
 863 0020 00E0     		b	.L64
 864              	.L66:
 239:..\u8g2\csrc/mui.c ****       }
 865              		.loc 1 239 0
 866 0022 0123     		movs	r3, #1
 867              	.LVL85:
 868              	.L64:
 246:..\u8g2\csrc/mui.c **** 
 869              		.loc 1 246 0
 870 0024 1846     		mov	r0, r3
 871 0026 38BD     		pop	{r3, r4, r5, pc}
 872              		.cfi_endproc
 873              	.LFE5:
 874              		.size	mui_fds_get_nth_token, .-mui_fds_get_nth_token
 875              		.section	.text.mui_fds_get_token_cnt,"ax",%progbits
 876              		.align	2
 877              		.global	mui_fds_get_token_cnt
 878              		.thumb
ARM GAS  C:\Users\brian\AppData\Local\Temp\ccibXfrV.s 			page 28


 879              		.thumb_func
 880              		.type	mui_fds_get_token_cnt, %function
 881              	mui_fds_get_token_cnt:
 882              	.LFB6:
 249:..\u8g2\csrc/mui.c ****   uint8_t n = 0;
 883              		.loc 1 249 0
 884              		.cfi_startproc
 885              		@ args = 0, pretend = 0, frame = 0
 886              		@ frame_needed = 0, uses_anonymous_args = 0
 887              	.LVL86:
 888 0000 38B5     		push	{r3, r4, r5, lr}
 889              		.cfi_def_cfa_offset 16
 890              		.cfi_offset 3, -16
 891              		.cfi_offset 4, -12
 892              		.cfi_offset 5, -8
 893              		.cfi_offset 14, -4
 894 0002 0546     		mov	r5, r0
 895              	.LVL87:
 251:..\u8g2\csrc/mui.c ****   {
 896              		.loc 1 251 0
 897 0004 FFF7FEFF 		bl	mui_fds_first_token
 898              	.LVL88:
 899 0008 40B1     		cbz	r0, .L71
 900 000a 0024     		movs	r4, #0
 901              	.LVL89:
 902              	.L70:
 255:..\u8g2\csrc/mui.c ****     } while ( mui_fds_next_token(ui) );
 903              		.loc 1 255 0 discriminator 1
 904 000c 0134     		adds	r4, r4, #1
 905              	.LVL90:
 906 000e E4B2     		uxtb	r4, r4
 907              	.LVL91:
 256:..\u8g2\csrc/mui.c ****   }
 908              		.loc 1 256 0 discriminator 1
 909 0010 2846     		mov	r0, r5
 910 0012 FFF7FEFF 		bl	mui_fds_next_token
 911              	.LVL92:
 912 0016 0028     		cmp	r0, #0
 913 0018 F8D1     		bne	.L70
 914 001a 00E0     		b	.L69
 915              	.LVL93:
 916              	.L71:
 250:..\u8g2\csrc/mui.c ****   if ( mui_fds_first_token(ui) )
 917              		.loc 1 250 0
 918 001c 0024     		movs	r4, #0
 919              	.LVL94:
 920              	.L69:
 259:..\u8g2\csrc/mui.c **** 
 921              		.loc 1 259 0
 922 001e 2046     		mov	r0, r4
 923 0020 38BD     		pop	{r3, r4, r5, pc}
 924              		.cfi_endproc
 925              	.LFE6:
 926              		.size	mui_fds_get_token_cnt, .-mui_fds_get_token_cnt
 927 0022 00BF     		.section	.text.mui_Init,"ax",%progbits
 928              		.align	2
 929              		.global	mui_Init
ARM GAS  C:\Users\brian\AppData\Local\Temp\ccibXfrV.s 			page 29


 930              		.thumb
 931              		.thumb_func
 932              		.type	mui_Init, %function
 933              	mui_Init:
 934              	.LFB8:
 291:..\u8g2\csrc/mui.c ****   memset(ui, 0, sizeof(mui_t));
 935              		.loc 1 291 0
 936              		.cfi_startproc
 937              		@ args = 4, pretend = 0, frame = 0
 938              		@ frame_needed = 0, uses_anonymous_args = 0
 939              	.LVL95:
 940 0000 F8B5     		push	{r3, r4, r5, r6, r7, lr}
 941              		.cfi_def_cfa_offset 24
 942              		.cfi_offset 3, -24
 943              		.cfi_offset 4, -20
 944              		.cfi_offset 5, -16
 945              		.cfi_offset 6, -12
 946              		.cfi_offset 7, -8
 947              		.cfi_offset 14, -4
 948 0002 0446     		mov	r4, r0
 949 0004 0D46     		mov	r5, r1
 950 0006 1746     		mov	r7, r2
 951 0008 1E46     		mov	r6, r3
 292:..\u8g2\csrc/mui.c ****   ui->root_fds = fds;
 952              		.loc 1 292 0
 953 000a 7822     		movs	r2, #120
 954              	.LVL96:
 955 000c 0021     		movs	r1, #0
 956              	.LVL97:
 957 000e FFF7FEFF 		bl	memset
 958              	.LVL98:
 293:..\u8g2\csrc/mui.c ****   //ui->current_form_fds = NULL;   // not required, because there was a memset before
 959              		.loc 1 293 0
 960 0012 6760     		str	r7, [r4, #4]
 295:..\u8g2\csrc/mui.c ****   ui->muif_tcnt = muif_tcnt;
 961              		.loc 1 295 0
 962 0014 A660     		str	r6, [r4, #8]
 296:..\u8g2\csrc/mui.c ****   ui->graphics_data = graphics_data;
 963              		.loc 1 296 0
 964 0016 069B     		ldr	r3, [sp, #24]
 965 0018 E360     		str	r3, [r4, #12]
 297:..\u8g2\csrc/mui.c **** }
 966              		.loc 1 297 0
 967 001a 2560     		str	r5, [r4]
 968 001c F8BD     		pop	{r3, r4, r5, r6, r7, pc}
 969              		.cfi_endproc
 970              	.LFE8:
 971              		.size	mui_Init, .-mui_Init
 972 001e 00BF     		.section	.text.mui_find_uif,"ax",%progbits
 973              		.align	2
 974              		.global	mui_find_uif
 975              		.thumb
 976              		.thumb_func
 977              		.type	mui_find_uif, %function
 978              	mui_find_uif:
 979              	.LFB9:
 301:..\u8g2\csrc/mui.c ****   size_t i;
ARM GAS  C:\Users\brian\AppData\Local\Temp\ccibXfrV.s 			page 30


 980              		.loc 1 301 0
 981              		.cfi_startproc
 982              		@ args = 0, pretend = 0, frame = 0
 983              		@ frame_needed = 0, uses_anonymous_args = 0
 984              		@ link register save eliminated.
 985              	.LVL99:
 986 0000 70B4     		push	{r4, r5, r6}
 987              		.cfi_def_cfa_offset 12
 988              		.cfi_offset 4, -12
 989              		.cfi_offset 5, -8
 990              		.cfi_offset 6, -4
 991              	.LVL100:
 303:..\u8g2\csrc/mui.c ****   {
 992              		.loc 1 303 0
 993 0002 0023     		movs	r3, #0
 994 0004 0DE0     		b	.L76
 995              	.LVL101:
 996              	.L79:
 310:..\u8g2\csrc/mui.c ****         if ( muif_get_id1(ui->muif_tlist+i) == id1 )
 997              		.loc 1 310 0
 998 0006 8568     		ldr	r5, [r0, #8]
 999 0008 03EB4306 		add	r6, r3, r3, lsl #1
 1000 000c B400     		lsls	r4, r6, #2
 1001 000e 2E19     		adds	r6, r5, r4
 1002 0010 2C5D     		ldrb	r4, [r5, r4]	@ zero_extendqisi2
 1003 0012 8C42     		cmp	r4, r1
 1004 0014 04D1     		bne	.L77
 311:..\u8g2\csrc/mui.c ****           return i;
 1005              		.loc 1 311 0
 1006 0016 7478     		ldrb	r4, [r6, #1]	@ zero_extendqisi2
 1007 0018 9442     		cmp	r4, r2
 1008 001a 01D1     		bne	.L77
 312:..\u8g2\csrc/mui.c ****   }
 1009              		.loc 1 312 0
 1010 001c 1846     		mov	r0, r3
 1011              	.LVL102:
 1012 001e 05E0     		b	.L78
 1013              	.LVL103:
 1014              	.L77:
 303:..\u8g2\csrc/mui.c ****   {
 1015              		.loc 1 303 0 discriminator 2
 1016 0020 0133     		adds	r3, r3, #1
 1017              	.LVL104:
 1018              	.L76:
 303:..\u8g2\csrc/mui.c ****   {
 1019              		.loc 1 303 0 is_stmt 0 discriminator 1
 1020 0022 C468     		ldr	r4, [r0, #12]
 1021 0024 A342     		cmp	r3, r4
 1022 0026 EED3     		bcc	.L79
 314:..\u8g2\csrc/mui.c **** }
 1023              		.loc 1 314 0 is_stmt 1
 1024 0028 4FF0FF30 		mov	r0, #-1
 1025              	.LVL105:
 1026              	.L78:
 315:..\u8g2\csrc/mui.c **** 
 1027              		.loc 1 315 0
 1028 002c 70BC     		pop	{r4, r5, r6}
ARM GAS  C:\Users\brian\AppData\Local\Temp\ccibXfrV.s 			page 31


 1029              		.cfi_restore 6
 1030              		.cfi_restore 5
 1031              		.cfi_restore 4
 1032              		.cfi_def_cfa_offset 0
 1033 002e 7047     		bx	lr
 1034              		.cfi_endproc
 1035              	.LFE9:
 1036              		.size	mui_find_uif, .-mui_find_uif
 1037              		.section	.text.mui_prepare_current_field,"ax",%progbits
 1038              		.align	2
 1039              		.thumb
 1040              		.thumb_func
 1041              		.type	mui_prepare_current_field, %function
 1042              	mui_prepare_current_field:
 1043              	.LFB10:
 327:..\u8g2\csrc/mui.c ****   int muif_tidx;
 1044              		.loc 1 327 0
 1045              		.cfi_startproc
 1046              		@ args = 0, pretend = 0, frame = 0
 1047              		@ frame_needed = 0, uses_anonymous_args = 0
 1048              	.LVL106:
 1049 0000 70B5     		push	{r4, r5, r6, lr}
 1050              		.cfi_def_cfa_offset 16
 1051              		.cfi_offset 4, -16
 1052              		.cfi_offset 5, -12
 1053              		.cfi_offset 6, -8
 1054              		.cfi_offset 14, -4
 1055 0002 0446     		mov	r4, r0
 330:..\u8g2\csrc/mui.c ****   ui->dflags = 0;    
 1056              		.loc 1 330 0
 1057 0004 0023     		movs	r3, #0
 1058 0006 8363     		str	r3, [r0, #56]
 331:..\u8g2\csrc/mui.c ****   ui->id0 = 0;
 1059              		.loc 1 331 0
 1060 0008 80F82D30 		strb	r3, [r0, #45]
 332:..\u8g2\csrc/mui.c ****   ui->id1 = 0;
 1061              		.loc 1 332 0
 1062 000c 80F82930 		strb	r3, [r0, #41]
 333:..\u8g2\csrc/mui.c ****   ui->arg = 0;
 1063              		.loc 1 333 0
 1064 0010 80F82A30 		strb	r3, [r0, #42]
 334:..\u8g2\csrc/mui.c **** 
 1065              		.loc 1 334 0
 1066 0014 80F82E30 		strb	r3, [r0, #46]
 338:..\u8g2\csrc/mui.c ****   //printf("mui_prepare_current_field len=%d\n", ui->len);
 1067              		.loc 1 338 0
 1068 0018 416B     		ldr	r1, [r0, #52]
 1069 001a FFF7FEFF 		bl	mui_fds_get_cmd_size
 1070              	.LVL107:
 1071 001e 2063     		str	r0, [r4, #48]
 342:..\u8g2\csrc/mui.c ****   //printf("mui_prepare_current_field cmd='%c' len=%d\n", ui->cmd, ui->len);
 1072              		.loc 1 342 0
 1073 0020 666B     		ldr	r6, [r4, #52]
 1074 0022 3046     		mov	r0, r6
 1075 0024 FFF7FEFF 		bl	mui_get_fds_char
 1076              	.LVL108:
 346:..\u8g2\csrc/mui.c ****   
ARM GAS  C:\Users\brian\AppData\Local\Temp\ccibXfrV.s 			page 32


 1077              		.loc 1 346 0
 1078 0028 84F82A00 		strb	r0, [r4, #42]
 349:..\u8g2\csrc/mui.c ****   
 1079              		.loc 1 349 0
 1080 002c 00F0DF05 		and	r5, r0, #223
 1081 0030 84F82850 		strb	r5, [r4, #40]
 351:..\u8g2\csrc/mui.c ****     return 0;
 1082              		.loc 1 351 0
 1083 0034 552D     		cmp	r5, #85
 1084 0036 78D0     		beq	.L92
 351:..\u8g2\csrc/mui.c ****     return 0;
 1085              		.loc 1 351 0 is_stmt 0 discriminator 1
 1086 0038 002D     		cmp	r5, #0
 1087 003a 79D0     		beq	.L82
 355:..\u8g2\csrc/mui.c ****     ui->dflags |= MUIF_DFLAG_IS_CURSOR_FOCUS;
 1088              		.loc 1 355 0 is_stmt 1
 1089 003c 6369     		ldr	r3, [r4, #20]
 1090 003e 9E42     		cmp	r6, r3
 1091 0040 05D1     		bne	.L83
 356:..\u8g2\csrc/mui.c ****   if ( ui->fds == ui->touch_focus_fds )
 1092              		.loc 1 356 0
 1093 0042 94F82D30 		ldrb	r3, [r4, #45]	@ zero_extendqisi2
 1094 0046 43F00103 		orr	r3, r3, #1
 1095 004a 84F82D30 		strb	r3, [r4, #45]
 1096              	.L83:
 357:..\u8g2\csrc/mui.c ****     ui->dflags |= MUIF_DFLAG_IS_TOUCH_FOCUS;
 1097              		.loc 1 357 0
 1098 004e A369     		ldr	r3, [r4, #24]
 1099 0050 9E42     		cmp	r6, r3
 1100 0052 05D1     		bne	.L84
 358:..\u8g2\csrc/mui.c ****   
 1101              		.loc 1 358 0
 1102 0054 94F82D30 		ldrb	r3, [r4, #45]	@ zero_extendqisi2
 1103 0058 43F00203 		orr	r3, r3, #2
 1104 005c 84F82D30 		strb	r3, [r4, #45]
 1105              	.L84:
 362:..\u8g2\csrc/mui.c ****   {
 1106              		.loc 1 362 0
 1107 0060 462D     		cmp	r5, #70
 1108 0062 05D0     		beq	.L85
 362:..\u8g2\csrc/mui.c ****   {
 1109              		.loc 1 362 0 is_stmt 0 discriminator 1
 1110 0064 422D     		cmp	r5, #66
 1111 0066 03D0     		beq	.L85
 362:..\u8g2\csrc/mui.c ****   {
 1112              		.loc 1 362 0 discriminator 2
 1113 0068 542D     		cmp	r5, #84
 1114 006a 01D0     		beq	.L85
 362:..\u8g2\csrc/mui.c ****   {
 1115              		.loc 1 362 0 discriminator 3
 1116 006c 412D     		cmp	r5, #65
 1117 006e 1DD1     		bne	.L86
 1118              	.L85:
 364:..\u8g2\csrc/mui.c ****       ui->id1 = mui_get_fds_char(ui->fds+2);
 1119              		.loc 1 364 0 is_stmt 1
 1120 0070 701C     		adds	r0, r6, #1
 1121 0072 FFF7FEFF 		bl	mui_get_fds_char
ARM GAS  C:\Users\brian\AppData\Local\Temp\ccibXfrV.s 			page 33


 1122              	.LVL109:
 1123 0076 84F82900 		strb	r0, [r4, #41]
 365:..\u8g2\csrc/mui.c ****       ui->x = mui_get_fds_char(ui->fds+3);
 1124              		.loc 1 365 0
 1125 007a B01C     		adds	r0, r6, #2
 1126 007c FFF7FEFF 		bl	mui_get_fds_char
 1127              	.LVL110:
 1128 0080 84F82A00 		strb	r0, [r4, #42]
 366:..\u8g2\csrc/mui.c ****       ui->y = mui_get_fds_char(ui->fds+4);
 1129              		.loc 1 366 0
 1130 0084 F01C     		adds	r0, r6, #3
 1131 0086 FFF7FEFF 		bl	mui_get_fds_char
 1132              	.LVL111:
 1133 008a 84F82B00 		strb	r0, [r4, #43]
 367:..\u8g2\csrc/mui.c ****       if ( ui->cmd == 'A' || ui->cmd == 'T' )
 1134              		.loc 1 367 0
 1135 008e 301D     		adds	r0, r6, #4
 1136 0090 FFF7FEFF 		bl	mui_get_fds_char
 1137              	.LVL112:
 1138 0094 84F82C00 		strb	r0, [r4, #44]
 368:..\u8g2\csrc/mui.c ****       {
 1139              		.loc 1 368 0
 1140 0098 412D     		cmp	r5, #65
 1141 009a 01D0     		beq	.L87
 368:..\u8g2\csrc/mui.c ****       {
 1142              		.loc 1 368 0 is_stmt 0 discriminator 1
 1143 009c 542D     		cmp	r5, #84
 1144 009e 33D1     		bne	.L88
 1145              	.L87:
 370:..\u8g2\csrc/mui.c ****       }
 1146              		.loc 1 370 0 is_stmt 1
 1147 00a0 701D     		adds	r0, r6, #5
 1148 00a2 FFF7FEFF 		bl	mui_get_fds_char
 1149              	.LVL113:
 1150 00a6 84F82E00 		strb	r0, [r4, #46]
 1151 00aa 2DE0     		b	.L88
 1152              	.L86:
 373:..\u8g2\csrc/mui.c ****   {
 1153              		.loc 1 373 0
 1154 00ac 442D     		cmp	r5, #68
 1155 00ae 0AD1     		bne	.L89
 375:..\u8g2\csrc/mui.c ****       ui->id1 = mui_get_fds_char(ui->fds+2);
 1156              		.loc 1 375 0
 1157 00b0 701C     		adds	r0, r6, #1
 1158 00b2 FFF7FEFF 		bl	mui_get_fds_char
 1159              	.LVL114:
 1160 00b6 84F82900 		strb	r0, [r4, #41]
 376:..\u8g2\csrc/mui.c ****   }
 1161              		.loc 1 376 0
 1162 00ba B01C     		adds	r0, r6, #2
 1163 00bc FFF7FEFF 		bl	mui_get_fds_char
 1164              	.LVL115:
 1165 00c0 84F82A00 		strb	r0, [r4, #42]
 1166 00c4 20E0     		b	.L88
 1167              	.L89:
 378:..\u8g2\csrc/mui.c ****   {
 1168              		.loc 1 378 0
ARM GAS  C:\Users\brian\AppData\Local\Temp\ccibXfrV.s 			page 34


 1169 00c6 532D     		cmp	r5, #83
 1170 00c8 08D1     		bne	.L90
 380:..\u8g2\csrc/mui.c ****       ui->id1 = mui_get_fds_char(ui->fds+1);
 1171              		.loc 1 380 0
 1172 00ca 5323     		movs	r3, #83
 1173 00cc 84F82930 		strb	r3, [r4, #41]
 381:..\u8g2\csrc/mui.c ****   }
 1174              		.loc 1 381 0
 1175 00d0 701C     		adds	r0, r6, #1
 1176 00d2 FFF7FEFF 		bl	mui_get_fds_char
 1177              	.LVL116:
 1178 00d6 84F82A00 		strb	r0, [r4, #42]
 1179 00da 15E0     		b	.L88
 1180              	.L90:
 385:..\u8g2\csrc/mui.c ****       /* note that ui->id1 contains the original cmd value */
 1181              		.loc 1 385 0
 1182 00dc 2E23     		movs	r3, #46
 1183 00de 84F82930 		strb	r3, [r4, #41]
 387:..\u8g2\csrc/mui.c ****       ui->y = mui_get_fds_char(ui->fds+2);
 1184              		.loc 1 387 0
 1185 00e2 701C     		adds	r0, r6, #1
 1186 00e4 FFF7FEFF 		bl	mui_get_fds_char
 1187              	.LVL117:
 1188 00e8 84F82B00 		strb	r0, [r4, #43]
 388:..\u8g2\csrc/mui.c ****       if ( ui->cmd == 'G' || ui->cmd == 'M' )  /* this is also true for 'g' or 'm' */
 1189              		.loc 1 388 0
 1190 00ec B01C     		adds	r0, r6, #2
 1191 00ee FFF7FEFF 		bl	mui_get_fds_char
 1192              	.LVL118:
 1193 00f2 84F82C00 		strb	r0, [r4, #44]
 389:..\u8g2\csrc/mui.c ****       {
 1194              		.loc 1 389 0
 1195 00f6 472D     		cmp	r5, #71
 1196 00f8 01D0     		beq	.L91
 389:..\u8g2\csrc/mui.c ****       {
 1197              		.loc 1 389 0 is_stmt 0 discriminator 1
 1198 00fa 4D2D     		cmp	r5, #77
 1199 00fc 04D1     		bne	.L88
 1200              	.L91:
 391:..\u8g2\csrc/mui.c ****       }
 1201              		.loc 1 391 0 is_stmt 1
 1202 00fe F01C     		adds	r0, r6, #3
 1203 0100 FFF7FEFF 		bl	mui_get_fds_char
 1204              	.LVL119:
 1205 0104 84F82E00 		strb	r0, [r4, #46]
 1206              	.L88:
 399:..\u8g2\csrc/mui.c ****   //printf("mui_prepare_current_field: muif_tidx=%d\n", muif_tidx);
 1207              		.loc 1 399 0
 1208 0108 94F82A20 		ldrb	r2, [r4, #42]	@ zero_extendqisi2
 1209 010c 94F82910 		ldrb	r1, [r4, #41]	@ zero_extendqisi2
 1210 0110 2046     		mov	r0, r4
 1211 0112 FFF7FEFF 		bl	mui_find_uif
 1212              	.LVL120:
 401:..\u8g2\csrc/mui.c ****   {
 1213              		.loc 1 401 0
 1214 0116 0028     		cmp	r0, #0
 1215 0118 09DB     		blt	.L93
ARM GAS  C:\Users\brian\AppData\Local\Temp\ccibXfrV.s 			page 35


 403:..\u8g2\csrc/mui.c ****     return 1;
 1216              		.loc 1 403 0
 1217 011a A268     		ldr	r2, [r4, #8]
 1218 011c 00EB4000 		add	r0, r0, r0, lsl #1
 1219              	.LVL121:
 1220 0120 8300     		lsls	r3, r0, #2
 1221 0122 1344     		add	r3, r3, r2
 1222 0124 A363     		str	r3, [r4, #56]
 404:..\u8g2\csrc/mui.c ****   }
 1223              		.loc 1 404 0
 1224 0126 0125     		movs	r5, #1
 1225 0128 02E0     		b	.L82
 1226              	.L92:
 352:..\u8g2\csrc/mui.c **** 
 1227              		.loc 1 352 0
 1228 012a 0025     		movs	r5, #0
 1229 012c 00E0     		b	.L82
 1230              	.LVL122:
 1231              	.L93:
 406:..\u8g2\csrc/mui.c **** }
 1232              		.loc 1 406 0
 1233 012e 0025     		movs	r5, #0
 1234              	.LVL123:
 1235              	.L82:
 407:..\u8g2\csrc/mui.c **** 
 1236              		.loc 1 407 0
 1237 0130 2846     		mov	r0, r5
 1238 0132 70BD     		pop	{r4, r5, r6, pc}
 1239              		.cfi_endproc
 1240              	.LFE10:
 1241              		.size	mui_prepare_current_field, .-mui_prepare_current_field
 1242              		.section	.text.mui_inner_loop_over_form,"ax",%progbits
 1243              		.align	2
 1244              		.thumb
 1245              		.thumb_func
 1246              		.type	mui_inner_loop_over_form, %function
 1247              	mui_inner_loop_over_form:
 1248              	.LFB11:
 419:..\u8g2\csrc/mui.c ****   uint8_t cmd;
 1249              		.loc 1 419 0
 1250              		.cfi_startproc
 1251              		@ args = 0, pretend = 0, frame = 0
 1252              		@ frame_needed = 0, uses_anonymous_args = 0
 1253              	.LVL124:
 1254 0000 38B5     		push	{r3, r4, r5, lr}
 1255              		.cfi_def_cfa_offset 16
 1256              		.cfi_offset 3, -16
 1257              		.cfi_offset 4, -12
 1258              		.cfi_offset 5, -8
 1259              		.cfi_offset 14, -4
 1260 0002 0446     		mov	r4, r0
 1261 0004 0D46     		mov	r5, r1
 424:..\u8g2\csrc/mui.c ****   for(;;)
 1262              		.loc 1 424 0
 1263 0006 416B     		ldr	r1, [r0, #52]
 1264              	.LVL125:
 1265 0008 FFF7FEFF 		bl	mui_fds_get_cmd_size
ARM GAS  C:\Users\brian\AppData\Local\Temp\ccibXfrV.s 			page 36


 1266              	.LVL126:
 1267 000c 636B     		ldr	r3, [r4, #52]
 1268 000e 1844     		add	r0, r0, r3
 1269 0010 6063     		str	r0, [r4, #52]
 1270              	.L98:
 429:..\u8g2\csrc/mui.c ****     if ( cmd == 'U' || cmd == 0 )
 1271              		.loc 1 429 0
 1272 0012 606B     		ldr	r0, [r4, #52]
 1273 0014 FFF7FEFF 		bl	mui_get_fds_char
 1274              	.LVL127:
 430:..\u8g2\csrc/mui.c ****       break;
 1275              		.loc 1 430 0
 1276 0018 5528     		cmp	r0, #85
 1277 001a 0CD0     		beq	.L95
 430:..\u8g2\csrc/mui.c ****       break;
 1278              		.loc 1 430 0 is_stmt 0 discriminator 1
 1279 001c 58B1     		cbz	r0, .L95
 432:..\u8g2\csrc/mui.c ****       if ( task(ui) )         /* call the task, which was provided as argument to this function */
 1280              		.loc 1 432 0 is_stmt 1
 1281 001e 2046     		mov	r0, r4
 1282              	.LVL128:
 1283 0020 FFF7FEFF 		bl	mui_prepare_current_field
 1284              	.LVL129:
 1285 0024 10B1     		cbz	r0, .L97
 433:..\u8g2\csrc/mui.c ****       {
 1286              		.loc 1 433 0
 1287 0026 2046     		mov	r0, r4
 1288 0028 A847     		blx	r5
 1289              	.LVL130:
 1290 002a 20B9     		cbnz	r0, .L95
 1291              	.L97:
 438:..\u8g2\csrc/mui.c ****   }
 1292              		.loc 1 438 0
 1293 002c 236B     		ldr	r3, [r4, #48]
 1294 002e 626B     		ldr	r2, [r4, #52]
 1295 0030 1344     		add	r3, r3, r2
 1296 0032 6363     		str	r3, [r4, #52]
 439:..\u8g2\csrc/mui.c ****   
 1297              		.loc 1 439 0
 1298 0034 EDE7     		b	.L98
 1299              	.L95:
 1300 0036 38BD     		pop	{r3, r4, r5, pc}
 1301              		.cfi_endproc
 1302              	.LFE11:
 1303              		.size	mui_inner_loop_over_form, .-mui_inner_loop_over_form
 1304              		.section	.text.mui_loop_over_form,"ax",%progbits
 1305              		.align	2
 1306              		.thumb
 1307              		.thumb_func
 1308              		.type	mui_loop_over_form, %function
 1309              	mui_loop_over_form:
 1310              	.LFB12:
 446:..\u8g2\csrc/mui.c ****   if ( mui_IsFormActive(ui) == 0 )
 1311              		.loc 1 446 0
 1312              		.cfi_startproc
 1313              		@ args = 0, pretend = 0, frame = 0
 1314              		@ frame_needed = 0, uses_anonymous_args = 0
ARM GAS  C:\Users\brian\AppData\Local\Temp\ccibXfrV.s 			page 37


 1315              	.LVL131:
 1316 0000 08B5     		push	{r3, lr}
 1317              		.cfi_def_cfa_offset 8
 1318              		.cfi_offset 3, -8
 1319              		.cfi_offset 14, -4
 447:..\u8g2\csrc/mui.c ****     return;
 1320              		.loc 1 447 0
 1321 0002 0369     		ldr	r3, [r0, #16]
 1322 0004 2BB1     		cbz	r3, .L100
 450:..\u8g2\csrc/mui.c ****   ui->target_fds = NULL;
 1323              		.loc 1 450 0
 1324 0006 4363     		str	r3, [r0, #52]
 451:..\u8g2\csrc/mui.c ****   ui->tmp_fds = NULL;
 1325              		.loc 1 451 0
 1326 0008 0023     		movs	r3, #0
 1327 000a C366     		str	r3, [r0, #108]
 452:..\u8g2\csrc/mui.c ****   
 1328              		.loc 1 452 0
 1329 000c 8366     		str	r3, [r0, #104]
 454:..\u8g2\csrc/mui.c **** }
 1330              		.loc 1 454 0
 1331 000e FFF7FEFF 		bl	mui_inner_loop_over_form
 1332              	.LVL132:
 1333              	.L100:
 1334 0012 08BD     		pop	{r3, pc}
 1335              		.cfi_endproc
 1336              	.LFE12:
 1337              		.size	mui_loop_over_form, .-mui_loop_over_form
 1338              		.section	.text.mui_send_cursor_msg,"ax",%progbits
 1339              		.align	2
 1340              		.thumb
 1341              		.thumb_func
 1342              		.type	mui_send_cursor_msg, %function
 1343              	mui_send_cursor_msg:
 1344              	.LFB24:
 586:..\u8g2\csrc/mui.c **** 
 587:..\u8g2\csrc/mui.c **** uint8_t mui_task_read_nth_selectable_field(mui_t *ui)
 588:..\u8g2\csrc/mui.c **** {
 589:..\u8g2\csrc/mui.c ****   //if ( muif_get_cflags(ui->uif) & MUIF_CFLAG_IS_CURSOR_SELECTABLE )
 590:..\u8g2\csrc/mui.c ****   if ( mui_uif_is_cursor_selectable(ui) )
 591:..\u8g2\csrc/mui.c ****   {
 592:..\u8g2\csrc/mui.c ****     if ( ui->tmp8 == 0 )
 593:..\u8g2\csrc/mui.c ****       return 1;         /* stop looping */
 594:..\u8g2\csrc/mui.c ****     ui->tmp8--;
 595:..\u8g2\csrc/mui.c ****   }
 596:..\u8g2\csrc/mui.c ****   return 0;     /* continue with the loop */
 597:..\u8g2\csrc/mui.c **** }
 598:..\u8g2\csrc/mui.c **** 
 599:..\u8g2\csrc/mui.c **** 
 600:..\u8g2\csrc/mui.c **** /* === utility functions for the user API === */
 601:..\u8g2\csrc/mui.c **** 
 602:..\u8g2\csrc/mui.c **** static uint8_t mui_send_cursor_msg(mui_t *ui, uint8_t msg) MUI_NOINLINE;
 603:..\u8g2\csrc/mui.c **** static uint8_t mui_send_cursor_msg(mui_t *ui, uint8_t msg)
 604:..\u8g2\csrc/mui.c **** {
 1345              		.loc 1 604 0
 1346              		.cfi_startproc
 1347              		@ args = 0, pretend = 0, frame = 0
ARM GAS  C:\Users\brian\AppData\Local\Temp\ccibXfrV.s 			page 38


 1348              		@ frame_needed = 0, uses_anonymous_args = 0
 1349              	.LVL133:
 1350 0000 38B5     		push	{r3, r4, r5, lr}
 1351              		.cfi_def_cfa_offset 16
 1352              		.cfi_offset 3, -16
 1353              		.cfi_offset 4, -12
 1354              		.cfi_offset 5, -8
 1355              		.cfi_offset 14, -4
 605:..\u8g2\csrc/mui.c ****   if ( ui->cursor_focus_fds )
 1356              		.loc 1 605 0
 1357 0002 4369     		ldr	r3, [r0, #20]
 1358 0004 6BB1     		cbz	r3, .L105
 1359 0006 0D46     		mov	r5, r1
 1360 0008 0446     		mov	r4, r0
 606:..\u8g2\csrc/mui.c ****   {
 607:..\u8g2\csrc/mui.c ****     ui->fds = ui->cursor_focus_fds;
 1361              		.loc 1 607 0
 1362 000a 4363     		str	r3, [r0, #52]
 608:..\u8g2\csrc/mui.c ****     if ( mui_prepare_current_field(ui) )
 1363              		.loc 1 608 0
 1364 000c FFF7FEFF 		bl	mui_prepare_current_field
 1365              	.LVL134:
 1366 0010 0346     		mov	r3, r0
 1367 0012 38B1     		cbz	r0, .L104
 609:..\u8g2\csrc/mui.c ****       return muif_get_cb(ui->uif)(ui, msg);
 1368              		.loc 1 609 0
 1369 0014 A36B     		ldr	r3, [r4, #56]
 1370 0016 9B68     		ldr	r3, [r3, #8]
 1371 0018 2946     		mov	r1, r5
 1372 001a 2046     		mov	r0, r4
 1373 001c 9847     		blx	r3
 1374              	.LVL135:
 1375 001e 0346     		mov	r3, r0
 1376 0020 00E0     		b	.L104
 1377              	.LVL136:
 1378              	.L105:
 610:..\u8g2\csrc/mui.c ****   }
 611:..\u8g2\csrc/mui.c ****   return 0; /* not called, msg not handled */
 1379              		.loc 1 611 0
 1380 0022 0023     		movs	r3, #0
 1381              	.LVL137:
 1382              	.L104:
 612:..\u8g2\csrc/mui.c **** }
 1383              		.loc 1 612 0
 1384 0024 1846     		mov	r0, r3
 1385 0026 38BD     		pop	{r3, r4, r5, pc}
 1386              		.cfi_endproc
 1387              	.LFE24:
 1388              		.size	mui_send_cursor_msg, .-mui_send_cursor_msg
 1389              		.section	.text.mui_send_cursor_enter_msg,"ax",%progbits
 1390              		.align	2
 1391              		.thumb
 1392              		.thumb_func
 1393              		.type	mui_send_cursor_enter_msg, %function
 1394              	mui_send_cursor_enter_msg:
 1395              	.LFB30:
 613:..\u8g2\csrc/mui.c **** 
ARM GAS  C:\Users\brian\AppData\Local\Temp\ccibXfrV.s 			page 39


 614:..\u8g2\csrc/mui.c **** /* === user API === */
 615:..\u8g2\csrc/mui.c **** 
 616:..\u8g2\csrc/mui.c **** /* 
 617:..\u8g2\csrc/mui.c ****   returns the field pos which has the current focus 
 618:..\u8g2\csrc/mui.c ****   If the first selectable field has the focus, then 0 will be returned
 619:..\u8g2\csrc/mui.c ****   Unselectable fields (for example labels) are skipped by this count.
 620:..\u8g2\csrc/mui.c ****   If no fields are selectable, then 0 is returned
 621:..\u8g2\csrc/mui.c **** */
 622:..\u8g2\csrc/mui.c **** uint8_t mui_GetCurrentCursorFocusPosition(mui_t *ui)
 623:..\u8g2\csrc/mui.c **** {
 624:..\u8g2\csrc/mui.c ****   ui->tmp8 = 0;
 625:..\u8g2\csrc/mui.c ****   mui_loop_over_form(ui, mui_task_get_current_cursor_focus_position);
 626:..\u8g2\csrc/mui.c ****   return ui->tmp8;
 627:..\u8g2\csrc/mui.c **** }
 628:..\u8g2\csrc/mui.c **** 
 629:..\u8g2\csrc/mui.c **** 
 630:..\u8g2\csrc/mui.c **** void mui_Draw(mui_t *ui)
 631:..\u8g2\csrc/mui.c **** {
 632:..\u8g2\csrc/mui.c ****   mui_loop_over_form(ui, mui_task_draw);
 633:..\u8g2\csrc/mui.c **** }
 634:..\u8g2\csrc/mui.c **** 
 635:..\u8g2\csrc/mui.c **** void mui_next_field(mui_t *ui)
 636:..\u8g2\csrc/mui.c **** {
 637:..\u8g2\csrc/mui.c ****   mui_loop_over_form(ui, mui_task_find_next_cursor_uif);
 638:..\u8g2\csrc/mui.c ****   // ui->cursor_focus_position++;
 639:..\u8g2\csrc/mui.c ****   ui->cursor_focus_fds = ui->target_fds;      // NULL is ok  
 640:..\u8g2\csrc/mui.c ****   if ( ui->target_fds == NULL )
 641:..\u8g2\csrc/mui.c ****   {
 642:..\u8g2\csrc/mui.c ****     mui_loop_over_form(ui, mui_task_find_first_cursor_uif);
 643:..\u8g2\csrc/mui.c ****     ui->cursor_focus_fds = ui->target_fds;      // NULL is ok  
 644:..\u8g2\csrc/mui.c ****     // ui->cursor_focus_position = 0;
 645:..\u8g2\csrc/mui.c ****   }
 646:..\u8g2\csrc/mui.c **** }
 647:..\u8g2\csrc/mui.c **** 
 648:..\u8g2\csrc/mui.c **** /*
 649:..\u8g2\csrc/mui.c ****   this function will overwrite the ui field related member variables
 650:..\u8g2\csrc/mui.c ****   nth_token can be 0 if the fiel text is not a option list
 651:..\u8g2\csrc/mui.c ****   the result is stored in ui->text
 652:..\u8g2\csrc/mui.c **** */
 653:..\u8g2\csrc/mui.c **** /* OBSOLETE */
 654:..\u8g2\csrc/mui.c **** #ifdef OBSOLETE
 655:..\u8g2\csrc/mui.c **** void mui_GetSelectableFieldTextOptionByCursorPosition(mui_t *ui, uint8_t form_id, uint8_t cursor_po
 656:..\u8g2\csrc/mui.c **** {
 657:..\u8g2\csrc/mui.c ****   fds_t *fds = ui->fds;                                // backup the current fds, so that this func
 658:..\u8g2\csrc/mui.c ****   int len = ui->len;          // backup length of the current command
 659:..\u8g2\csrc/mui.c **** 
 660:..\u8g2\csrc/mui.c ****   
 661:..\u8g2\csrc/mui.c ****   ui->fds = mui_find_form(ui, form_id);          // search for the target form and overwrite the cu
 662:..\u8g2\csrc/mui.c **** 
 663:..\u8g2\csrc/mui.c ****   // use the inner_loop procedure, because ui->fds has been assigned already
 664:..\u8g2\csrc/mui.c ****   ui->tmp8 = cursor_position;   // maybe we should also backup tmp8, but at the moment tmp8 is only
 665:..\u8g2\csrc/mui.c ****   //MUI_DEBUG("mui_GetSelectableFieldTextOption\n");
 666:..\u8g2\csrc/mui.c ****   mui_inner_loop_over_form(ui, mui_task_read_nth_selectable_field);
 667:..\u8g2\csrc/mui.c ****   // at this point ui->fds contains the field which was selected from above
 668:..\u8g2\csrc/mui.c ****   
 669:..\u8g2\csrc/mui.c ****   // now get the opion string out of the text field. nth_token can be 0 if this is no opion string
 670:..\u8g2\csrc/mui.c ****   mui_fds_get_nth_token(ui, nth_token);          // return value is ignored here
ARM GAS  C:\Users\brian\AppData\Local\Temp\ccibXfrV.s 			page 40


 671:..\u8g2\csrc/mui.c ****   
 672:..\u8g2\csrc/mui.c ****   ui->fds = fds;                        // restore the previous fds position
 673:..\u8g2\csrc/mui.c ****   ui->len = len;
 674:..\u8g2\csrc/mui.c ****   // result is stored in ui->text
 675:..\u8g2\csrc/mui.c **** }
 676:..\u8g2\csrc/mui.c **** #endif
 677:..\u8g2\csrc/mui.c **** 
 678:..\u8g2\csrc/mui.c **** uint8_t mui_GetSelectableFieldTextOption(mui_t *ui, fds_t *fds, uint8_t nth_token)
 679:..\u8g2\csrc/mui.c **** {
 680:..\u8g2\csrc/mui.c ****   fds_t *fds_backup = ui->fds;                                // backup the current fds, so that th
 681:..\u8g2\csrc/mui.c ****   int len = ui->len;          // backup length of the current command, 26 sep 2021: probably this i
 682:..\u8g2\csrc/mui.c ****   uint8_t is_found;
 683:..\u8g2\csrc/mui.c ****   
 684:..\u8g2\csrc/mui.c ****   ui->fds = fds;
 685:..\u8g2\csrc/mui.c ****   // at this point ui->fds contains the field which contains the tokens  
 686:..\u8g2\csrc/mui.c ****   // now get the opion string out of the text field. nth_token can be 0 if this is no opion string
 687:..\u8g2\csrc/mui.c ****   is_found = mui_fds_get_nth_token(ui, nth_token);          // return value is ignored here
 688:..\u8g2\csrc/mui.c ****   
 689:..\u8g2\csrc/mui.c ****   ui->fds = fds_backup;                        // restore the previous fds position
 690:..\u8g2\csrc/mui.c ****   ui->len = len;
 691:..\u8g2\csrc/mui.c ****   // result is stored in ui->text
 692:..\u8g2\csrc/mui.c ****   return is_found;
 693:..\u8g2\csrc/mui.c **** }
 694:..\u8g2\csrc/mui.c **** 
 695:..\u8g2\csrc/mui.c **** /*
 696:..\u8g2\csrc/mui.c ****   this function will overwrite the ui field related member variables
 697:..\u8g2\csrc/mui.c ****   return the number of options in the referenced field
 698:..\u8g2\csrc/mui.c **** */
 699:..\u8g2\csrc/mui.c **** /* OBSOLETE */
 700:..\u8g2\csrc/mui.c **** #ifdef OBSOLETE
 701:..\u8g2\csrc/mui.c **** uint8_t mui_GetSelectableFieldOptionCntByCursorPosition(mui_t *ui, uint8_t form_id, uint8_t cursor_
 702:..\u8g2\csrc/mui.c **** {
 703:..\u8g2\csrc/mui.c ****   fds_t *fds = ui->fds;                                // backup the current fds, so that this func
 704:..\u8g2\csrc/mui.c ****   int len = ui->len;          // backup length of the current command
 705:..\u8g2\csrc/mui.c ****   uint8_t cnt = 0;
 706:..\u8g2\csrc/mui.c ****   
 707:..\u8g2\csrc/mui.c ****   ui->fds = mui_find_form(ui, form_id);          // search for the target form and overwrite the cu
 708:..\u8g2\csrc/mui.c **** 
 709:..\u8g2\csrc/mui.c ****   // use the inner_loop procedure, because ui->fds has been assigned already
 710:..\u8g2\csrc/mui.c ****   ui->tmp8 = cursor_position;   // maybe we should also backup tmp8, but at the moment tmp8 is only
 711:..\u8g2\csrc/mui.c ****   //MUI_DEBUG("mui_GetSelectableFieldOptionCnt\n");
 712:..\u8g2\csrc/mui.c ****   mui_inner_loop_over_form(ui, mui_task_read_nth_selectable_field);
 713:..\u8g2\csrc/mui.c ****   // at this point ui->fds contains the field which was selected from above
 714:..\u8g2\csrc/mui.c ****   
 715:..\u8g2\csrc/mui.c ****   // now get the opion string out of the text field. nth_token can be 0 if this is no opion string
 716:..\u8g2\csrc/mui.c ****   cnt = mui_fds_get_token_cnt(ui); 
 717:..\u8g2\csrc/mui.c ****   
 718:..\u8g2\csrc/mui.c ****   ui->fds = fds;                        // restore the previous fds position
 719:..\u8g2\csrc/mui.c ****   ui->len = len;
 720:..\u8g2\csrc/mui.c ****   // result is stored in ui->text
 721:..\u8g2\csrc/mui.c ****   return cnt;
 722:..\u8g2\csrc/mui.c **** }
 723:..\u8g2\csrc/mui.c **** #endif
 724:..\u8g2\csrc/mui.c **** 
 725:..\u8g2\csrc/mui.c **** uint8_t mui_GetSelectableFieldOptionCnt(mui_t *ui, fds_t *fds)
 726:..\u8g2\csrc/mui.c **** {
 727:..\u8g2\csrc/mui.c ****   fds_t *fds_backup = ui->fds;                                // backup the current fds, so that th
ARM GAS  C:\Users\brian\AppData\Local\Temp\ccibXfrV.s 			page 41


 728:..\u8g2\csrc/mui.c ****   int len = ui->len;          // backup length of the current command   26 sep 2021: probably this 
 729:..\u8g2\csrc/mui.c ****   uint8_t cnt = 0;
 730:..\u8g2\csrc/mui.c ****   
 731:..\u8g2\csrc/mui.c ****   ui->fds = fds;
 732:..\u8g2\csrc/mui.c ****   // at this point ui->fds contains the field which contains the tokens  
 733:..\u8g2\csrc/mui.c ****   // now get the opion string out of the text field. nth_token can be 0 if this is no opion string
 734:..\u8g2\csrc/mui.c ****   cnt = mui_fds_get_token_cnt(ui); 
 735:..\u8g2\csrc/mui.c ****   
 736:..\u8g2\csrc/mui.c ****   ui->fds = fds_backup;                        // restore the previous fds position
 737:..\u8g2\csrc/mui.c ****   ui->len = len;
 738:..\u8g2\csrc/mui.c ****   // result is stored in ui->text
 739:..\u8g2\csrc/mui.c ****   return cnt;
 740:..\u8g2\csrc/mui.c **** }
 741:..\u8g2\csrc/mui.c **** 
 742:..\u8g2\csrc/mui.c **** 
 743:..\u8g2\csrc/mui.c **** 
 744:..\u8g2\csrc/mui.c **** //static void mui_send_cursor_enter_msg(mui_t *ui) MUI_NOINLINE;
 745:..\u8g2\csrc/mui.c **** static uint8_t mui_send_cursor_enter_msg(mui_t *ui)
 746:..\u8g2\csrc/mui.c **** {
 1396              		.loc 1 746 0
 1397              		.cfi_startproc
 1398              		@ args = 0, pretend = 0, frame = 0
 1399              		@ frame_needed = 0, uses_anonymous_args = 0
 1400              	.LVL138:
 1401 0000 08B5     		push	{r3, lr}
 1402              		.cfi_def_cfa_offset 8
 1403              		.cfi_offset 3, -8
 1404              		.cfi_offset 14, -4
 747:..\u8g2\csrc/mui.c ****   ui->is_mud = 0;
 1405              		.loc 1 747 0
 1406 0002 0022     		movs	r2, #0
 1407 0004 80F82620 		strb	r2, [r0, #38]
 748:..\u8g2\csrc/mui.c ****   return mui_send_cursor_msg(ui, MUIF_MSG_CURSOR_ENTER);
 1408              		.loc 1 748 0
 1409 0008 0421     		movs	r1, #4
 1410 000a FFF7FEFF 		bl	mui_send_cursor_msg
 1411              	.LVL139:
 749:..\u8g2\csrc/mui.c **** }
 1412              		.loc 1 749 0
 1413 000e 08BD     		pop	{r3, pc}
 1414              		.cfi_endproc
 1415              	.LFE30:
 1416              		.size	mui_send_cursor_enter_msg, .-mui_send_cursor_enter_msg
 1417              		.section	.text.mui_find_form,"ax",%progbits
 1418              		.align	2
 1419              		.global	mui_find_form
 1420              		.thumb
 1421              		.thumb_func
 1422              		.type	mui_find_form, %function
 1423              	mui_find_form:
 1424              	.LFB13:
 461:..\u8g2\csrc/mui.c ****   fds_t *fds = ui->root_fds;
 1425              		.loc 1 461 0
 1426              		.cfi_startproc
 1427              		@ args = 0, pretend = 0, frame = 0
 1428              		@ frame_needed = 0, uses_anonymous_args = 0
 1429              	.LVL140:
ARM GAS  C:\Users\brian\AppData\Local\Temp\ccibXfrV.s 			page 42


 1430 0000 70B5     		push	{r4, r5, r6, lr}
 1431              		.cfi_def_cfa_offset 16
 1432              		.cfi_offset 4, -16
 1433              		.cfi_offset 5, -12
 1434              		.cfi_offset 6, -8
 1435              		.cfi_offset 14, -4
 1436 0002 0546     		mov	r5, r0
 1437 0004 0E46     		mov	r6, r1
 462:..\u8g2\csrc/mui.c ****   uint8_t cmd;
 1438              		.loc 1 462 0
 1439 0006 4468     		ldr	r4, [r0, #4]
 1440              	.LVL141:
 1441              	.L112:
 467:..\u8g2\csrc/mui.c ****     if ( cmd == 0 )
 1442              		.loc 1 467 0
 1443 0008 2046     		mov	r0, r4
 1444 000a FFF7FEFF 		bl	mui_get_fds_char
 1445              	.LVL142:
 468:..\u8g2\csrc/mui.c ****       break;
 1446              		.loc 1 468 0
 1447 000e 60B1     		cbz	r0, .L113
 470:..\u8g2\csrc/mui.c ****     {
 1448              		.loc 1 470 0
 1449 0010 5528     		cmp	r0, #85
 1450 0012 04D1     		bne	.L111
 472:..\u8g2\csrc/mui.c ****       {
 1451              		.loc 1 472 0
 1452 0014 601C     		adds	r0, r4, #1
 1453              	.LVL143:
 1454 0016 FFF7FEFF 		bl	mui_get_fds_char
 1455              	.LVL144:
 1456 001a B042     		cmp	r0, r6
 1457 001c 07D0     		beq	.L114
 1458              	.L111:
 479:..\u8g2\csrc/mui.c ****   }
 1459              		.loc 1 479 0
 1460 001e 2146     		mov	r1, r4
 1461 0020 2846     		mov	r0, r5
 1462 0022 FFF7FEFF 		bl	mui_fds_get_cmd_size
 1463              	.LVL145:
 1464 0026 0444     		add	r4, r4, r0
 1465              	.LVL146:
 480:..\u8g2\csrc/mui.c ****   return NULL;
 1466              		.loc 1 480 0
 1467 0028 EEE7     		b	.L112
 1468              	.LVL147:
 1469              	.L113:
 481:..\u8g2\csrc/mui.c **** }
 1470              		.loc 1 481 0
 1471 002a 0020     		movs	r0, #0
 1472              	.LVL148:
 1473 002c 70BD     		pop	{r4, r5, r6, pc}
 1474              	.LVL149:
 1475              	.L114:
 474:..\u8g2\csrc/mui.c ****       }
 1476              		.loc 1 474 0
 1477 002e 2046     		mov	r0, r4
ARM GAS  C:\Users\brian\AppData\Local\Temp\ccibXfrV.s 			page 43


 482:..\u8g2\csrc/mui.c **** 
 1478              		.loc 1 482 0
 1479 0030 70BD     		pop	{r4, r5, r6, pc}
 1480              		.cfi_endproc
 1481              	.LFE13:
 1482              		.size	mui_find_form, .-mui_find_form
 1483 0032 00BF     		.section	.text.mui_task_read_nth_selectable_field,"ax",%progbits
 1484              		.align	2
 1485              		.global	mui_task_read_nth_selectable_field
 1486              		.thumb
 1487              		.thumb_func
 1488              		.type	mui_task_read_nth_selectable_field, %function
 1489              	mui_task_read_nth_selectable_field:
 1490              	.LFB23:
 588:..\u8g2\csrc/mui.c ****   //if ( muif_get_cflags(ui->uif) & MUIF_CFLAG_IS_CURSOR_SELECTABLE )
 1491              		.loc 1 588 0
 1492              		.cfi_startproc
 1493              		@ args = 0, pretend = 0, frame = 0
 1494              		@ frame_needed = 0, uses_anonymous_args = 0
 1495              	.LVL150:
 1496 0000 10B5     		push	{r4, lr}
 1497              		.cfi_def_cfa_offset 8
 1498              		.cfi_offset 4, -8
 1499              		.cfi_offset 14, -4
 1500 0002 0446     		mov	r4, r0
 590:..\u8g2\csrc/mui.c ****   {
 1501              		.loc 1 590 0
 1502 0004 FFF7FEFF 		bl	mui_uif_is_cursor_selectable
 1503              	.LVL151:
 1504 0008 0346     		mov	r3, r0
 1505 000a 40B1     		cbz	r0, .L117
 592:..\u8g2\csrc/mui.c ****       return 1;         /* stop looping */
 1506              		.loc 1 592 0
 1507 000c 94F82530 		ldrb	r3, [r4, #37]	@ zero_extendqisi2
 1508 0010 23B1     		cbz	r3, .L118
 594:..\u8g2\csrc/mui.c ****   }
 1509              		.loc 1 594 0
 1510 0012 013B     		subs	r3, r3, #1
 1511 0014 84F82530 		strb	r3, [r4, #37]
 596:..\u8g2\csrc/mui.c **** }
 1512              		.loc 1 596 0
 1513 0018 0023     		movs	r3, #0
 1514 001a 00E0     		b	.L117
 1515              	.L118:
 593:..\u8g2\csrc/mui.c ****     ui->tmp8--;
 1516              		.loc 1 593 0
 1517 001c 0123     		movs	r3, #1
 1518              	.L117:
 597:..\u8g2\csrc/mui.c **** 
 1519              		.loc 1 597 0
 1520 001e 1846     		mov	r0, r3
 1521 0020 10BD     		pop	{r4, pc}
 1522              		.cfi_endproc
 1523              	.LFE23:
 1524              		.size	mui_task_read_nth_selectable_field, .-mui_task_read_nth_selectable_field
 1525 0022 00BF     		.section	.text.mui_GetCurrentCursorFocusPosition,"ax",%progbits
 1526              		.align	2
ARM GAS  C:\Users\brian\AppData\Local\Temp\ccibXfrV.s 			page 44


 1527              		.global	mui_GetCurrentCursorFocusPosition
 1528              		.thumb
 1529              		.thumb_func
 1530              		.type	mui_GetCurrentCursorFocusPosition, %function
 1531              	mui_GetCurrentCursorFocusPosition:
 1532              	.LFB25:
 623:..\u8g2\csrc/mui.c ****   ui->tmp8 = 0;
 1533              		.loc 1 623 0
 1534              		.cfi_startproc
 1535              		@ args = 0, pretend = 0, frame = 0
 1536              		@ frame_needed = 0, uses_anonymous_args = 0
 1537              	.LVL152:
 1538 0000 10B5     		push	{r4, lr}
 1539              		.cfi_def_cfa_offset 8
 1540              		.cfi_offset 4, -8
 1541              		.cfi_offset 14, -4
 1542 0002 0446     		mov	r4, r0
 624:..\u8g2\csrc/mui.c ****   mui_loop_over_form(ui, mui_task_get_current_cursor_focus_position);
 1543              		.loc 1 624 0
 1544 0004 0023     		movs	r3, #0
 1545 0006 80F82530 		strb	r3, [r0, #37]
 625:..\u8g2\csrc/mui.c ****   return ui->tmp8;
 1546              		.loc 1 625 0
 1547 000a 0349     		ldr	r1, .L122
 1548 000c FFF7FEFF 		bl	mui_loop_over_form
 1549              	.LVL153:
 627:..\u8g2\csrc/mui.c **** 
 1550              		.loc 1 627 0
 1551 0010 94F82500 		ldrb	r0, [r4, #37]	@ zero_extendqisi2
 1552 0014 10BD     		pop	{r4, pc}
 1553              	.LVL154:
 1554              	.L123:
 1555 0016 00BF     		.align	2
 1556              	.L122:
 1557 0018 00000000 		.word	mui_task_get_current_cursor_focus_position
 1558              		.cfi_endproc
 1559              	.LFE25:
 1560              		.size	mui_GetCurrentCursorFocusPosition, .-mui_GetCurrentCursorFocusPosition
 1561              		.section	.text.mui_Draw,"ax",%progbits
 1562              		.align	2
 1563              		.global	mui_Draw
 1564              		.thumb
 1565              		.thumb_func
 1566              		.type	mui_Draw, %function
 1567              	mui_Draw:
 1568              	.LFB26:
 631:..\u8g2\csrc/mui.c ****   mui_loop_over_form(ui, mui_task_draw);
 1569              		.loc 1 631 0
 1570              		.cfi_startproc
 1571              		@ args = 0, pretend = 0, frame = 0
 1572              		@ frame_needed = 0, uses_anonymous_args = 0
 1573              	.LVL155:
 1574 0000 08B5     		push	{r3, lr}
 1575              		.cfi_def_cfa_offset 8
 1576              		.cfi_offset 3, -8
 1577              		.cfi_offset 14, -4
 632:..\u8g2\csrc/mui.c **** }
ARM GAS  C:\Users\brian\AppData\Local\Temp\ccibXfrV.s 			page 45


 1578              		.loc 1 632 0
 1579 0002 0249     		ldr	r1, .L126
 1580 0004 FFF7FEFF 		bl	mui_loop_over_form
 1581              	.LVL156:
 1582 0008 08BD     		pop	{r3, pc}
 1583              	.L127:
 1584 000a 00BF     		.align	2
 1585              	.L126:
 1586 000c 00000000 		.word	mui_task_draw
 1587              		.cfi_endproc
 1588              	.LFE26:
 1589              		.size	mui_Draw, .-mui_Draw
 1590              		.section	.text.mui_next_field,"ax",%progbits
 1591              		.align	2
 1592              		.global	mui_next_field
 1593              		.thumb
 1594              		.thumb_func
 1595              		.type	mui_next_field, %function
 1596              	mui_next_field:
 1597              	.LFB27:
 636:..\u8g2\csrc/mui.c ****   mui_loop_over_form(ui, mui_task_find_next_cursor_uif);
 1598              		.loc 1 636 0
 1599              		.cfi_startproc
 1600              		@ args = 0, pretend = 0, frame = 0
 1601              		@ frame_needed = 0, uses_anonymous_args = 0
 1602              	.LVL157:
 1603 0000 10B5     		push	{r4, lr}
 1604              		.cfi_def_cfa_offset 8
 1605              		.cfi_offset 4, -8
 1606              		.cfi_offset 14, -4
 1607 0002 0446     		mov	r4, r0
 637:..\u8g2\csrc/mui.c ****   // ui->cursor_focus_position++;
 1608              		.loc 1 637 0
 1609 0004 0649     		ldr	r1, .L131
 1610 0006 FFF7FEFF 		bl	mui_loop_over_form
 1611              	.LVL158:
 639:..\u8g2\csrc/mui.c ****   if ( ui->target_fds == NULL )
 1612              		.loc 1 639 0
 1613 000a E36E     		ldr	r3, [r4, #108]
 1614 000c 6361     		str	r3, [r4, #20]
 640:..\u8g2\csrc/mui.c ****   {
 1615              		.loc 1 640 0
 1616 000e 2BB9     		cbnz	r3, .L128
 642:..\u8g2\csrc/mui.c ****     ui->cursor_focus_fds = ui->target_fds;      // NULL is ok  
 1617              		.loc 1 642 0
 1618 0010 0449     		ldr	r1, .L131+4
 1619 0012 2046     		mov	r0, r4
 1620 0014 FFF7FEFF 		bl	mui_loop_over_form
 1621              	.LVL159:
 643:..\u8g2\csrc/mui.c ****     // ui->cursor_focus_position = 0;
 1622              		.loc 1 643 0
 1623 0018 E36E     		ldr	r3, [r4, #108]
 1624 001a 6361     		str	r3, [r4, #20]
 1625              	.L128:
 1626 001c 10BD     		pop	{r4, pc}
 1627              	.LVL160:
 1628              	.L132:
ARM GAS  C:\Users\brian\AppData\Local\Temp\ccibXfrV.s 			page 46


 1629 001e 00BF     		.align	2
 1630              	.L131:
 1631 0020 00000000 		.word	mui_task_find_next_cursor_uif
 1632 0024 00000000 		.word	mui_task_find_first_cursor_uif
 1633              		.cfi_endproc
 1634              	.LFE27:
 1635              		.size	mui_next_field, .-mui_next_field
 1636              		.section	.text.mui_GetSelectableFieldTextOption,"ax",%progbits
 1637              		.align	2
 1638              		.global	mui_GetSelectableFieldTextOption
 1639              		.thumb
 1640              		.thumb_func
 1641              		.type	mui_GetSelectableFieldTextOption, %function
 1642              	mui_GetSelectableFieldTextOption:
 1643              	.LFB28:
 679:..\u8g2\csrc/mui.c ****   fds_t *fds_backup = ui->fds;                                // backup the current fds, so that th
 1644              		.loc 1 679 0
 1645              		.cfi_startproc
 1646              		@ args = 0, pretend = 0, frame = 0
 1647              		@ frame_needed = 0, uses_anonymous_args = 0
 1648              	.LVL161:
 1649 0000 70B5     		push	{r4, r5, r6, lr}
 1650              		.cfi_def_cfa_offset 16
 1651              		.cfi_offset 4, -16
 1652              		.cfi_offset 5, -12
 1653              		.cfi_offset 6, -8
 1654              		.cfi_offset 14, -4
 1655 0002 0446     		mov	r4, r0
 680:..\u8g2\csrc/mui.c ****   int len = ui->len;          // backup length of the current command, 26 sep 2021: probably this i
 1656              		.loc 1 680 0
 1657 0004 466B     		ldr	r6, [r0, #52]
 1658              	.LVL162:
 681:..\u8g2\csrc/mui.c ****   uint8_t is_found;
 1659              		.loc 1 681 0
 1660 0006 056B     		ldr	r5, [r0, #48]
 1661              	.LVL163:
 684:..\u8g2\csrc/mui.c ****   // at this point ui->fds contains the field which contains the tokens  
 1662              		.loc 1 684 0
 1663 0008 4163     		str	r1, [r0, #52]
 687:..\u8g2\csrc/mui.c ****   
 1664              		.loc 1 687 0
 1665 000a 1146     		mov	r1, r2
 1666              	.LVL164:
 1667 000c FFF7FEFF 		bl	mui_fds_get_nth_token
 1668              	.LVL165:
 689:..\u8g2\csrc/mui.c ****   ui->len = len;
 1669              		.loc 1 689 0
 1670 0010 6663     		str	r6, [r4, #52]
 690:..\u8g2\csrc/mui.c ****   // result is stored in ui->text
 1671              		.loc 1 690 0
 1672 0012 2563     		str	r5, [r4, #48]
 693:..\u8g2\csrc/mui.c **** 
 1673              		.loc 1 693 0
 1674 0014 70BD     		pop	{r4, r5, r6, pc}
 1675              		.cfi_endproc
 1676              	.LFE28:
 1677              		.size	mui_GetSelectableFieldTextOption, .-mui_GetSelectableFieldTextOption
ARM GAS  C:\Users\brian\AppData\Local\Temp\ccibXfrV.s 			page 47


 1678 0016 00BF     		.section	.text.mui_GetSelectableFieldOptionCnt,"ax",%progbits
 1679              		.align	2
 1680              		.global	mui_GetSelectableFieldOptionCnt
 1681              		.thumb
 1682              		.thumb_func
 1683              		.type	mui_GetSelectableFieldOptionCnt, %function
 1684              	mui_GetSelectableFieldOptionCnt:
 1685              	.LFB29:
 726:..\u8g2\csrc/mui.c ****   fds_t *fds_backup = ui->fds;                                // backup the current fds, so that th
 1686              		.loc 1 726 0
 1687              		.cfi_startproc
 1688              		@ args = 0, pretend = 0, frame = 0
 1689              		@ frame_needed = 0, uses_anonymous_args = 0
 1690              	.LVL166:
 1691 0000 70B5     		push	{r4, r5, r6, lr}
 1692              		.cfi_def_cfa_offset 16
 1693              		.cfi_offset 4, -16
 1694              		.cfi_offset 5, -12
 1695              		.cfi_offset 6, -8
 1696              		.cfi_offset 14, -4
 1697 0002 0446     		mov	r4, r0
 727:..\u8g2\csrc/mui.c ****   int len = ui->len;          // backup length of the current command   26 sep 2021: probably this 
 1698              		.loc 1 727 0
 1699 0004 466B     		ldr	r6, [r0, #52]
 1700              	.LVL167:
 728:..\u8g2\csrc/mui.c ****   uint8_t cnt = 0;
 1701              		.loc 1 728 0
 1702 0006 056B     		ldr	r5, [r0, #48]
 1703              	.LVL168:
 731:..\u8g2\csrc/mui.c ****   // at this point ui->fds contains the field which contains the tokens  
 1704              		.loc 1 731 0
 1705 0008 4163     		str	r1, [r0, #52]
 734:..\u8g2\csrc/mui.c ****   
 1706              		.loc 1 734 0
 1707 000a FFF7FEFF 		bl	mui_fds_get_token_cnt
 1708              	.LVL169:
 736:..\u8g2\csrc/mui.c ****   ui->len = len;
 1709              		.loc 1 736 0
 1710 000e 6663     		str	r6, [r4, #52]
 737:..\u8g2\csrc/mui.c ****   // result is stored in ui->text
 1711              		.loc 1 737 0
 1712 0010 2563     		str	r5, [r4, #48]
 740:..\u8g2\csrc/mui.c **** 
 1713              		.loc 1 740 0
 1714 0012 70BD     		pop	{r4, r5, r6, pc}
 1715              		.cfi_endproc
 1716              	.LFE29:
 1717              		.size	mui_GetSelectableFieldOptionCnt, .-mui_GetSelectableFieldOptionCnt
 1718              		.section	.text.mui_LeaveForm,"ax",%progbits
 1719              		.align	2
 1720              		.global	mui_LeaveForm
 1721              		.thumb
 1722              		.thumb_func
 1723              		.type	mui_LeaveForm, %function
 1724              	mui_LeaveForm:
 1725              	.LFB32:
 750:..\u8g2\csrc/mui.c **** 
ARM GAS  C:\Users\brian\AppData\Local\Temp\ccibXfrV.s 			page 48


 751:..\u8g2\csrc/mui.c **** /* 
 752:..\u8g2\csrc/mui.c ****   if called from a field function, then the current field variables are destroyed, so that call sho
 753:..\u8g2\csrc/mui.c ****   mui_EnterForm is similar to mui_GotoForm and differes only in the second argument (which is the f
 754:..\u8g2\csrc/mui.c **** */
 755:..\u8g2\csrc/mui.c **** void mui_EnterForm(mui_t *ui, fds_t *fds, uint8_t initial_cursor_position)
 756:..\u8g2\csrc/mui.c **** {
 757:..\u8g2\csrc/mui.c ****   /* exit any previous form, will not do anything if there is no current form */
 758:..\u8g2\csrc/mui.c ****   mui_LeaveForm(ui);
 759:..\u8g2\csrc/mui.c ****   
 760:..\u8g2\csrc/mui.c ****   /* clean focus fields */
 761:..\u8g2\csrc/mui.c ****   ui->touch_focus_fds = NULL;
 762:..\u8g2\csrc/mui.c ****   ui->cursor_focus_fds = NULL;
 763:..\u8g2\csrc/mui.c ****   
 764:..\u8g2\csrc/mui.c ****   /* reset all the scoll values */
 765:..\u8g2\csrc/mui.c ****   ui->form_scroll_top = 0;
 766:..\u8g2\csrc/mui.c ****   ui->form_scroll_visible = 0;
 767:..\u8g2\csrc/mui.c ****   ui->form_scroll_total = 0;
 768:..\u8g2\csrc/mui.c ****   
 769:..\u8g2\csrc/mui.c ****   /* assign the form, which should be entered */
 770:..\u8g2\csrc/mui.c ****   ui->current_form_fds = fds;
 771:..\u8g2\csrc/mui.c ****   
 772:..\u8g2\csrc/mui.c ****   /* inform all fields that we start a new form */
 773:..\u8g2\csrc/mui.c ****   MUI_DEBUG("mui_EnterForm: form_start\n");
 774:..\u8g2\csrc/mui.c ****   mui_loop_over_form(ui, mui_task_form_start);
 775:..\u8g2\csrc/mui.c ****   
 776:..\u8g2\csrc/mui.c ****   /* assign initional cursor focus */
 777:..\u8g2\csrc/mui.c ****   MUI_DEBUG("mui_EnterForm: find_first_cursor_uif\n");
 778:..\u8g2\csrc/mui.c ****   mui_loop_over_form(ui, mui_task_find_first_cursor_uif);  
 779:..\u8g2\csrc/mui.c ****   ui->cursor_focus_fds = ui->target_fds;      // NULL is ok  
 780:..\u8g2\csrc/mui.c ****   MUI_DEBUG("mui_EnterForm: find_first_cursor_uif target_fds=%p\n", ui->target_fds);
 781:..\u8g2\csrc/mui.c ****   
 782:..\u8g2\csrc/mui.c ****   while( initial_cursor_position > 0 )
 783:..\u8g2\csrc/mui.c ****   {
 784:..\u8g2\csrc/mui.c ****     mui_NextField(ui);          // mui_next_field(ui) is not sufficient in case of scrolling
 785:..\u8g2\csrc/mui.c ****     initial_cursor_position--;
 786:..\u8g2\csrc/mui.c ****   }
 787:..\u8g2\csrc/mui.c ****   
 788:..\u8g2\csrc/mui.c ****   while( mui_send_cursor_enter_msg(ui) == 255 )
 789:..\u8g2\csrc/mui.c ****   {
 790:..\u8g2\csrc/mui.c ****     mui_NextField(ui);          // mui_next_field(ui) is not sufficient in case of scrolling
 791:..\u8g2\csrc/mui.c ****   }
 792:..\u8g2\csrc/mui.c **** }
 793:..\u8g2\csrc/mui.c **** 
 794:..\u8g2\csrc/mui.c **** /* input: current_form_fds */
 795:..\u8g2\csrc/mui.c **** /*
 796:..\u8g2\csrc/mui.c ****   if called from a field function, then the current field variables are destroyed, so that call sho
 797:..\u8g2\csrc/mui.c **** */
 798:..\u8g2\csrc/mui.c **** void mui_LeaveForm(mui_t *ui)
 799:..\u8g2\csrc/mui.c **** {
 1726              		.loc 1 799 0
 1727              		.cfi_startproc
 1728              		@ args = 0, pretend = 0, frame = 0
 1729              		@ frame_needed = 0, uses_anonymous_args = 0
 1730              	.LVL170:
 1731 0000 38B5     		push	{r3, r4, r5, lr}
 1732              		.cfi_def_cfa_offset 16
 1733              		.cfi_offset 3, -16
ARM GAS  C:\Users\brian\AppData\Local\Temp\ccibXfrV.s 			page 49


 1734              		.cfi_offset 4, -12
 1735              		.cfi_offset 5, -8
 1736              		.cfi_offset 14, -4
 800:..\u8g2\csrc/mui.c ****   if ( mui_IsFormActive(ui) == 0 )
 1737              		.loc 1 800 0
 1738 0002 0369     		ldr	r3, [r0, #16]
 1739 0004 53B1     		cbz	r3, .L137
 1740 0006 0446     		mov	r4, r0
 801:..\u8g2\csrc/mui.c ****     return;
 802:..\u8g2\csrc/mui.c ****   
 803:..\u8g2\csrc/mui.c ****   mui_send_cursor_msg(ui, MUIF_MSG_CURSOR_LEAVE);
 1741              		.loc 1 803 0
 1742 0008 0621     		movs	r1, #6
 1743 000a FFF7FEFF 		bl	mui_send_cursor_msg
 1744              	.LVL171:
 804:..\u8g2\csrc/mui.c ****   ui->cursor_focus_fds = NULL;
 1745              		.loc 1 804 0
 1746 000e 0025     		movs	r5, #0
 1747 0010 6561     		str	r5, [r4, #20]
 805:..\u8g2\csrc/mui.c ****   
 806:..\u8g2\csrc/mui.c ****   /* inform all fields that we leave the form */
 807:..\u8g2\csrc/mui.c ****   MUI_DEBUG("mui_LeaveForm: form_end\n");
 808:..\u8g2\csrc/mui.c ****   mui_loop_over_form(ui, mui_task_form_end);  
 1748              		.loc 1 808 0
 1749 0012 0349     		ldr	r1, .L140
 1750 0014 2046     		mov	r0, r4
 1751 0016 FFF7FEFF 		bl	mui_loop_over_form
 1752              	.LVL172:
 809:..\u8g2\csrc/mui.c ****   ui->current_form_fds = NULL;
 1753              		.loc 1 809 0
 1754 001a 2561     		str	r5, [r4, #16]
 1755              	.LVL173:
 1756              	.L137:
 1757 001c 38BD     		pop	{r3, r4, r5, pc}
 1758              	.L141:
 1759 001e 00BF     		.align	2
 1760              	.L140:
 1761 0020 00000000 		.word	mui_task_form_end
 1762              		.cfi_endproc
 1763              	.LFE32:
 1764              		.size	mui_LeaveForm, .-mui_LeaveForm
 1765              		.section	.text.mui_SaveForm,"ax",%progbits
 1766              		.align	2
 1767              		.global	mui_SaveForm
 1768              		.thumb
 1769              		.thumb_func
 1770              		.type	mui_SaveForm, %function
 1771              	mui_SaveForm:
 1772              	.LFB34:
 810:..\u8g2\csrc/mui.c **** }
 811:..\u8g2\csrc/mui.c **** 
 812:..\u8g2\csrc/mui.c **** /* 0: error, form not found */
 813:..\u8g2\csrc/mui.c **** /*
 814:..\u8g2\csrc/mui.c ****   if called from a field function, then the current field variables are destroyed, so that call sho
 815:..\u8g2\csrc/mui.c **** */
 816:..\u8g2\csrc/mui.c **** uint8_t mui_GotoForm(mui_t *ui, uint8_t form_id, uint8_t initial_cursor_position)
 817:..\u8g2\csrc/mui.c **** {
ARM GAS  C:\Users\brian\AppData\Local\Temp\ccibXfrV.s 			page 50


 818:..\u8g2\csrc/mui.c ****   fds_t *fds = mui_find_form(ui, form_id);
 819:..\u8g2\csrc/mui.c ****   if ( fds == NULL )
 820:..\u8g2\csrc/mui.c ****     return 0;
 821:..\u8g2\csrc/mui.c ****   /* EnterForm will also leave any previous form */
 822:..\u8g2\csrc/mui.c ****   mui_EnterForm(ui, fds, initial_cursor_position);
 823:..\u8g2\csrc/mui.c ****   return 1;
 824:..\u8g2\csrc/mui.c **** }
 825:..\u8g2\csrc/mui.c **** 
 826:..\u8g2\csrc/mui.c **** void mui_SaveForm(mui_t *ui)
 827:..\u8g2\csrc/mui.c **** {
 1773              		.loc 1 827 0
 1774              		.cfi_startproc
 1775              		@ args = 0, pretend = 0, frame = 0
 1776              		@ frame_needed = 0, uses_anonymous_args = 0
 1777              	.LVL174:
 828:..\u8g2\csrc/mui.c ****   if ( mui_IsFormActive(ui) == 0 )
 1778              		.loc 1 828 0
 1779 0000 0369     		ldr	r3, [r0, #16]
 1780 0002 73B1     		cbz	r3, .L145
 827:..\u8g2\csrc/mui.c ****   if ( mui_IsFormActive(ui) == 0 )
 1781              		.loc 1 827 0
 1782 0004 10B5     		push	{r4, lr}
 1783              		.cfi_def_cfa_offset 8
 1784              		.cfi_offset 4, -8
 1785              		.cfi_offset 14, -4
 1786 0006 0446     		mov	r4, r0
 829:..\u8g2\csrc/mui.c ****     return;
 830:..\u8g2\csrc/mui.c ****   
 831:..\u8g2\csrc/mui.c ****   ui->last_form_fds = ui->cursor_focus_fds;
 1787              		.loc 1 831 0
 1788 0008 4269     		ldr	r2, [r0, #20]
 1789 000a 4267     		str	r2, [r0, #116]
 832:..\u8g2\csrc/mui.c ****   ui->last_form_id = mui_get_fds_char(ui->current_form_fds+1);
 1790              		.loc 1 832 0
 1791 000c 581C     		adds	r0, r3, #1
 1792              	.LVL175:
 1793 000e FFF7FEFF 		bl	mui_get_fds_char
 1794              	.LVL176:
 1795 0012 84F87000 		strb	r0, [r4, #112]
 833:..\u8g2\csrc/mui.c ****   ui->last_form_cursor_focus_position = mui_GetCurrentCursorFocusPosition(ui);
 1796              		.loc 1 833 0
 1797 0016 2046     		mov	r0, r4
 1798 0018 FFF7FEFF 		bl	mui_GetCurrentCursorFocusPosition
 1799              	.LVL177:
 1800 001c 84F87100 		strb	r0, [r4, #113]
 1801 0020 10BD     		pop	{r4, pc}
 1802              	.LVL178:
 1803              	.L145:
 1804              		.cfi_def_cfa_offset 0
 1805              		.cfi_restore 4
 1806              		.cfi_restore 14
 1807 0022 7047     		bx	lr
 1808              		.cfi_endproc
 1809              	.LFE34:
 1810              		.size	mui_SaveForm, .-mui_SaveForm
 1811              		.section	.text.mui_NextField,"ax",%progbits
 1812              		.align	2
ARM GAS  C:\Users\brian\AppData\Local\Temp\ccibXfrV.s 			page 51


 1813              		.global	mui_NextField
 1814              		.thumb
 1815              		.thumb_func
 1816              		.type	mui_NextField, %function
 1817              	mui_NextField:
 1818              	.LFB36:
 834:..\u8g2\csrc/mui.c **** }
 835:..\u8g2\csrc/mui.c **** 
 836:..\u8g2\csrc/mui.c **** /*
 837:..\u8g2\csrc/mui.c ****   if called from a field function, then the current field variables are destroyed, so that call sho
 838:..\u8g2\csrc/mui.c **** */
 839:..\u8g2\csrc/mui.c **** void mui_RestoreForm(mui_t *ui)
 840:..\u8g2\csrc/mui.c **** {
 841:..\u8g2\csrc/mui.c ****   mui_GotoForm(ui, ui->last_form_id, ui->last_form_cursor_focus_position);
 842:..\u8g2\csrc/mui.c **** }
 843:..\u8g2\csrc/mui.c **** 
 844:..\u8g2\csrc/mui.c **** /*
 845:..\u8g2\csrc/mui.c ****   updates "ui->cursor_focus_fds"
 846:..\u8g2\csrc/mui.c **** */
 847:..\u8g2\csrc/mui.c **** /*
 848:..\u8g2\csrc/mui.c ****   if called from a field function, then the current field variables are destroyed, so that call sho
 849:..\u8g2\csrc/mui.c **** */
 850:..\u8g2\csrc/mui.c **** void mui_NextField(mui_t *ui)
 851:..\u8g2\csrc/mui.c **** {
 1819              		.loc 1 851 0
 1820              		.cfi_startproc
 1821              		@ args = 0, pretend = 0, frame = 0
 1822              		@ frame_needed = 0, uses_anonymous_args = 0
 1823              	.LVL179:
 1824 0000 10B5     		push	{r4, lr}
 1825              		.cfi_def_cfa_offset 8
 1826              		.cfi_offset 4, -8
 1827              		.cfi_offset 14, -4
 1828 0002 0446     		mov	r4, r0
 1829              	.LVL180:
 1830              	.L148:
 852:..\u8g2\csrc/mui.c ****   do 
 853:..\u8g2\csrc/mui.c ****   {
 854:..\u8g2\csrc/mui.c ****     if ( mui_send_cursor_msg(ui, MUIF_MSG_EVENT_NEXT) )
 1831              		.loc 1 854 0
 1832 0004 0921     		movs	r1, #9
 1833 0006 2046     		mov	r0, r4
 1834 0008 FFF7FEFF 		bl	mui_send_cursor_msg
 1835              	.LVL181:
 1836 000c 58B9     		cbnz	r0, .L146
 855:..\u8g2\csrc/mui.c ****       return;
 856:..\u8g2\csrc/mui.c ****     mui_send_cursor_msg(ui, MUIF_MSG_CURSOR_LEAVE);
 1837              		.loc 1 856 0
 1838 000e 0621     		movs	r1, #6
 1839 0010 2046     		mov	r0, r4
 1840 0012 FFF7FEFF 		bl	mui_send_cursor_msg
 1841              	.LVL182:
 857:..\u8g2\csrc/mui.c ****     mui_next_field(ui);
 1842              		.loc 1 857 0
 1843 0016 2046     		mov	r0, r4
 1844 0018 FFF7FEFF 		bl	mui_next_field
 1845              	.LVL183:
ARM GAS  C:\Users\brian\AppData\Local\Temp\ccibXfrV.s 			page 52


 858:..\u8g2\csrc/mui.c ****   } while ( mui_send_cursor_enter_msg(ui) == 255 );
 1846              		.loc 1 858 0
 1847 001c 2046     		mov	r0, r4
 1848 001e FFF7FEFF 		bl	mui_send_cursor_enter_msg
 1849              	.LVL184:
 1850 0022 FF28     		cmp	r0, #255
 1851 0024 EED0     		beq	.L148
 1852              	.L146:
 1853 0026 10BD     		pop	{r4, pc}
 1854              		.cfi_endproc
 1855              	.LFE36:
 1856              		.size	mui_NextField, .-mui_NextField
 1857              		.section	.text.mui_EnterForm,"ax",%progbits
 1858              		.align	2
 1859              		.global	mui_EnterForm
 1860              		.thumb
 1861              		.thumb_func
 1862              		.type	mui_EnterForm, %function
 1863              	mui_EnterForm:
 1864              	.LFB31:
 756:..\u8g2\csrc/mui.c ****   /* exit any previous form, will not do anything if there is no current form */
 1865              		.loc 1 756 0
 1866              		.cfi_startproc
 1867              		@ args = 0, pretend = 0, frame = 0
 1868              		@ frame_needed = 0, uses_anonymous_args = 0
 1869              	.LVL185:
 1870 0000 70B5     		push	{r4, r5, r6, lr}
 1871              		.cfi_def_cfa_offset 16
 1872              		.cfi_offset 4, -16
 1873              		.cfi_offset 5, -12
 1874              		.cfi_offset 6, -8
 1875              		.cfi_offset 14, -4
 1876 0002 0546     		mov	r5, r0
 1877 0004 0E46     		mov	r6, r1
 1878 0006 1446     		mov	r4, r2
 758:..\u8g2\csrc/mui.c ****   
 1879              		.loc 1 758 0
 1880 0008 FFF7FEFF 		bl	mui_LeaveForm
 1881              	.LVL186:
 761:..\u8g2\csrc/mui.c ****   ui->cursor_focus_fds = NULL;
 1882              		.loc 1 761 0
 1883 000c 0023     		movs	r3, #0
 1884 000e AB61     		str	r3, [r5, #24]
 762:..\u8g2\csrc/mui.c ****   
 1885              		.loc 1 762 0
 1886 0010 6B61     		str	r3, [r5, #20]
 765:..\u8g2\csrc/mui.c ****   ui->form_scroll_visible = 0;
 1887              		.loc 1 765 0
 1888 0012 6B84     		strh	r3, [r5, #34]	@ movhi
 766:..\u8g2\csrc/mui.c ****   ui->form_scroll_total = 0;
 1889              		.loc 1 766 0
 1890 0014 85F82430 		strb	r3, [r5, #36]
 767:..\u8g2\csrc/mui.c ****   
 1891              		.loc 1 767 0
 1892 0018 2B84     		strh	r3, [r5, #32]	@ movhi
 770:..\u8g2\csrc/mui.c ****   
 1893              		.loc 1 770 0
ARM GAS  C:\Users\brian\AppData\Local\Temp\ccibXfrV.s 			page 53


 1894 001a 2E61     		str	r6, [r5, #16]
 774:..\u8g2\csrc/mui.c ****   
 1895              		.loc 1 774 0
 1896 001c 0D49     		ldr	r1, .L156
 1897 001e 2846     		mov	r0, r5
 1898 0020 FFF7FEFF 		bl	mui_loop_over_form
 1899              	.LVL187:
 778:..\u8g2\csrc/mui.c ****   ui->cursor_focus_fds = ui->target_fds;      // NULL is ok  
 1900              		.loc 1 778 0
 1901 0024 0C49     		ldr	r1, .L156+4
 1902 0026 2846     		mov	r0, r5
 1903 0028 FFF7FEFF 		bl	mui_loop_over_form
 1904              	.LVL188:
 779:..\u8g2\csrc/mui.c ****   MUI_DEBUG("mui_EnterForm: find_first_cursor_uif target_fds=%p\n", ui->target_fds);
 1905              		.loc 1 779 0
 1906 002c EB6E     		ldr	r3, [r5, #108]
 1907 002e 6B61     		str	r3, [r5, #20]
 782:..\u8g2\csrc/mui.c ****   {
 1908              		.loc 1 782 0
 1909 0030 04E0     		b	.L151
 1910              	.LVL189:
 1911              	.L152:
 784:..\u8g2\csrc/mui.c ****     initial_cursor_position--;
 1912              		.loc 1 784 0
 1913 0032 2846     		mov	r0, r5
 1914 0034 FFF7FEFF 		bl	mui_NextField
 1915              	.LVL190:
 785:..\u8g2\csrc/mui.c ****   }
 1916              		.loc 1 785 0
 1917 0038 013C     		subs	r4, r4, #1
 1918              	.LVL191:
 1919 003a E4B2     		uxtb	r4, r4
 1920              	.LVL192:
 1921              	.L151:
 782:..\u8g2\csrc/mui.c ****   {
 1922              		.loc 1 782 0
 1923 003c 002C     		cmp	r4, #0
 1924 003e F8D1     		bne	.L152
 1925 0040 02E0     		b	.L153
 1926              	.L154:
 790:..\u8g2\csrc/mui.c ****   }
 1927              		.loc 1 790 0
 1928 0042 2846     		mov	r0, r5
 1929 0044 FFF7FEFF 		bl	mui_NextField
 1930              	.LVL193:
 1931              	.L153:
 788:..\u8g2\csrc/mui.c ****   {
 1932              		.loc 1 788 0
 1933 0048 2846     		mov	r0, r5
 1934 004a FFF7FEFF 		bl	mui_send_cursor_enter_msg
 1935              	.LVL194:
 1936 004e FF28     		cmp	r0, #255
 1937 0050 F7D0     		beq	.L154
 792:..\u8g2\csrc/mui.c **** 
 1938              		.loc 1 792 0
 1939 0052 70BD     		pop	{r4, r5, r6, pc}
 1940              	.LVL195:
ARM GAS  C:\Users\brian\AppData\Local\Temp\ccibXfrV.s 			page 54


 1941              	.L157:
 1942              		.align	2
 1943              	.L156:
 1944 0054 00000000 		.word	mui_task_form_start
 1945 0058 00000000 		.word	mui_task_find_first_cursor_uif
 1946              		.cfi_endproc
 1947              	.LFE31:
 1948              		.size	mui_EnterForm, .-mui_EnterForm
 1949              		.section	.text.mui_GotoForm,"ax",%progbits
 1950              		.align	2
 1951              		.global	mui_GotoForm
 1952              		.thumb
 1953              		.thumb_func
 1954              		.type	mui_GotoForm, %function
 1955              	mui_GotoForm:
 1956              	.LFB33:
 817:..\u8g2\csrc/mui.c ****   fds_t *fds = mui_find_form(ui, form_id);
 1957              		.loc 1 817 0
 1958              		.cfi_startproc
 1959              		@ args = 0, pretend = 0, frame = 0
 1960              		@ frame_needed = 0, uses_anonymous_args = 0
 1961              	.LVL196:
 1962 0000 38B5     		push	{r3, r4, r5, lr}
 1963              		.cfi_def_cfa_offset 16
 1964              		.cfi_offset 3, -16
 1965              		.cfi_offset 4, -12
 1966              		.cfi_offset 5, -8
 1967              		.cfi_offset 14, -4
 1968 0002 0446     		mov	r4, r0
 1969 0004 1546     		mov	r5, r2
 818:..\u8g2\csrc/mui.c ****   if ( fds == NULL )
 1970              		.loc 1 818 0
 1971 0006 FFF7FEFF 		bl	mui_find_form
 1972              	.LVL197:
 819:..\u8g2\csrc/mui.c ****     return 0;
 1973              		.loc 1 819 0
 1974 000a 30B1     		cbz	r0, .L160
 1975 000c 0146     		mov	r1, r0
 822:..\u8g2\csrc/mui.c ****   return 1;
 1976              		.loc 1 822 0
 1977 000e 2A46     		mov	r2, r5
 1978 0010 2046     		mov	r0, r4
 1979              	.LVL198:
 1980 0012 FFF7FEFF 		bl	mui_EnterForm
 1981              	.LVL199:
 823:..\u8g2\csrc/mui.c **** }
 1982              		.loc 1 823 0
 1983 0016 0120     		movs	r0, #1
 1984 0018 38BD     		pop	{r3, r4, r5, pc}
 1985              	.LVL200:
 1986              	.L160:
 820:..\u8g2\csrc/mui.c ****   /* EnterForm will also leave any previous form */
 1987              		.loc 1 820 0
 1988 001a 0020     		movs	r0, #0
 1989              	.LVL201:
 824:..\u8g2\csrc/mui.c **** 
 1990              		.loc 1 824 0
ARM GAS  C:\Users\brian\AppData\Local\Temp\ccibXfrV.s 			page 55


 1991 001c 38BD     		pop	{r3, r4, r5, pc}
 1992              		.cfi_endproc
 1993              	.LFE33:
 1994              		.size	mui_GotoForm, .-mui_GotoForm
 1995 001e 00BF     		.section	.text.mui_RestoreForm,"ax",%progbits
 1996              		.align	2
 1997              		.global	mui_RestoreForm
 1998              		.thumb
 1999              		.thumb_func
 2000              		.type	mui_RestoreForm, %function
 2001              	mui_RestoreForm:
 2002              	.LFB35:
 840:..\u8g2\csrc/mui.c ****   mui_GotoForm(ui, ui->last_form_id, ui->last_form_cursor_focus_position);
 2003              		.loc 1 840 0
 2004              		.cfi_startproc
 2005              		@ args = 0, pretend = 0, frame = 0
 2006              		@ frame_needed = 0, uses_anonymous_args = 0
 2007              	.LVL202:
 2008 0000 08B5     		push	{r3, lr}
 2009              		.cfi_def_cfa_offset 8
 2010              		.cfi_offset 3, -8
 2011              		.cfi_offset 14, -4
 841:..\u8g2\csrc/mui.c **** }
 2012              		.loc 1 841 0
 2013 0002 90F87120 		ldrb	r2, [r0, #113]	@ zero_extendqisi2
 2014 0006 90F87010 		ldrb	r1, [r0, #112]	@ zero_extendqisi2
 2015 000a FFF7FEFF 		bl	mui_GotoForm
 2016              	.LVL203:
 2017 000e 08BD     		pop	{r3, pc}
 2018              		.cfi_endproc
 2019              	.LFE35:
 2020              		.size	mui_RestoreForm, .-mui_RestoreForm
 2021              		.section	.text.mui_PrevField,"ax",%progbits
 2022              		.align	2
 2023              		.global	mui_PrevField
 2024              		.thumb
 2025              		.thumb_func
 2026              		.type	mui_PrevField, %function
 2027              	mui_PrevField:
 2028              	.LFB37:
 859:..\u8g2\csrc/mui.c **** }
 860:..\u8g2\csrc/mui.c **** 
 861:..\u8g2\csrc/mui.c **** /*
 862:..\u8g2\csrc/mui.c ****   updates "ui->cursor_focus_fds"
 863:..\u8g2\csrc/mui.c **** */
 864:..\u8g2\csrc/mui.c **** /*
 865:..\u8g2\csrc/mui.c ****   if called from a field function, then the current field variables are destroyed, so that call sho
 866:..\u8g2\csrc/mui.c **** */
 867:..\u8g2\csrc/mui.c **** void mui_PrevField(mui_t *ui)
 868:..\u8g2\csrc/mui.c **** {
 2029              		.loc 1 868 0
 2030              		.cfi_startproc
 2031              		@ args = 0, pretend = 0, frame = 0
 2032              		@ frame_needed = 0, uses_anonymous_args = 0
 2033              	.LVL204:
 2034 0000 10B5     		push	{r4, lr}
 2035              		.cfi_def_cfa_offset 8
ARM GAS  C:\Users\brian\AppData\Local\Temp\ccibXfrV.s 			page 56


 2036              		.cfi_offset 4, -8
 2037              		.cfi_offset 14, -4
 2038 0002 0446     		mov	r4, r0
 2039              	.LVL205:
 2040              	.L167:
 869:..\u8g2\csrc/mui.c ****   do
 870:..\u8g2\csrc/mui.c ****   {
 871:..\u8g2\csrc/mui.c ****     if ( mui_send_cursor_msg(ui, MUIF_MSG_EVENT_PREV) )
 2041              		.loc 1 871 0
 2042 0004 0A21     		movs	r1, #10
 2043 0006 2046     		mov	r0, r4
 2044 0008 FFF7FEFF 		bl	mui_send_cursor_msg
 2045              	.LVL206:
 2046 000c A8B9     		cbnz	r0, .L164
 872:..\u8g2\csrc/mui.c ****       return;
 873:..\u8g2\csrc/mui.c ****     mui_send_cursor_msg(ui, MUIF_MSG_CURSOR_LEAVE);
 2047              		.loc 1 873 0
 2048 000e 0621     		movs	r1, #6
 2049 0010 2046     		mov	r0, r4
 2050 0012 FFF7FEFF 		bl	mui_send_cursor_msg
 2051              	.LVL207:
 874:..\u8g2\csrc/mui.c ****  
 875:..\u8g2\csrc/mui.c ****     mui_loop_over_form(ui, mui_task_find_prev_cursor_uif);
 2052              		.loc 1 875 0
 2053 0016 0949     		ldr	r1, .L169
 2054 0018 2046     		mov	r0, r4
 2055 001a FFF7FEFF 		bl	mui_loop_over_form
 2056              	.LVL208:
 876:..\u8g2\csrc/mui.c ****     ui->cursor_focus_fds = ui->target_fds;      // NULL is ok  
 2057              		.loc 1 876 0
 2058 001e E36E     		ldr	r3, [r4, #108]
 2059 0020 6361     		str	r3, [r4, #20]
 877:..\u8g2\csrc/mui.c ****     if ( ui->target_fds == NULL )
 2060              		.loc 1 877 0
 2061 0022 2BB9     		cbnz	r3, .L166
 878:..\u8g2\csrc/mui.c ****     {
 879:..\u8g2\csrc/mui.c ****       //ui->cursor_focus_position = 0;
 880:..\u8g2\csrc/mui.c ****       mui_loop_over_form(ui, mui_task_find_last_cursor_uif);
 2062              		.loc 1 880 0
 2063 0024 0649     		ldr	r1, .L169+4
 2064 0026 2046     		mov	r0, r4
 2065 0028 FFF7FEFF 		bl	mui_loop_over_form
 2066              	.LVL209:
 881:..\u8g2\csrc/mui.c ****       ui->cursor_focus_fds = ui->target_fds;      // NULL is ok  
 2067              		.loc 1 881 0
 2068 002c E36E     		ldr	r3, [r4, #108]
 2069 002e 6361     		str	r3, [r4, #20]
 2070              	.L166:
 882:..\u8g2\csrc/mui.c ****     }
 883:..\u8g2\csrc/mui.c ****   } while( mui_send_cursor_enter_msg(ui) == 255 );
 2071              		.loc 1 883 0
 2072 0030 2046     		mov	r0, r4
 2073 0032 FFF7FEFF 		bl	mui_send_cursor_enter_msg
 2074              	.LVL210:
 2075 0036 FF28     		cmp	r0, #255
 2076 0038 E4D0     		beq	.L167
 2077              	.L164:
ARM GAS  C:\Users\brian\AppData\Local\Temp\ccibXfrV.s 			page 57


 2078 003a 10BD     		pop	{r4, pc}
 2079              	.LVL211:
 2080              	.L170:
 2081              		.align	2
 2082              	.L169:
 2083 003c 00000000 		.word	mui_task_find_prev_cursor_uif
 2084 0040 00000000 		.word	mui_task_find_last_cursor_uif
 2085              		.cfi_endproc
 2086              	.LFE37:
 2087              		.size	mui_PrevField, .-mui_PrevField
 2088              		.section	.text.mui_SendSelect,"ax",%progbits
 2089              		.align	2
 2090              		.global	mui_SendSelect
 2091              		.thumb
 2092              		.thumb_func
 2093              		.type	mui_SendSelect, %function
 2094              	mui_SendSelect:
 2095              	.LFB38:
 884:..\u8g2\csrc/mui.c **** }
 885:..\u8g2\csrc/mui.c **** 
 886:..\u8g2\csrc/mui.c **** 
 887:..\u8g2\csrc/mui.c **** void mui_SendSelect(mui_t *ui)
 888:..\u8g2\csrc/mui.c **** {
 2096              		.loc 1 888 0
 2097              		.cfi_startproc
 2098              		@ args = 0, pretend = 0, frame = 0
 2099              		@ frame_needed = 0, uses_anonymous_args = 0
 2100              	.LVL212:
 2101 0000 08B5     		push	{r3, lr}
 2102              		.cfi_def_cfa_offset 8
 2103              		.cfi_offset 3, -8
 2104              		.cfi_offset 14, -4
 889:..\u8g2\csrc/mui.c ****   mui_send_cursor_msg(ui, MUIF_MSG_CURSOR_SELECT);  
 2105              		.loc 1 889 0
 2106 0002 0521     		movs	r1, #5
 2107 0004 FFF7FEFF 		bl	mui_send_cursor_msg
 2108              	.LVL213:
 2109 0008 08BD     		pop	{r3, pc}
 2110              		.cfi_endproc
 2111              	.LFE38:
 2112              		.size	mui_SendSelect, .-mui_SendSelect
 2113 000a 00BF     		.text
 2114              	.Letext0:
 2115              		.file 2 "c:\\program files (x86)\\cypress\\psoc creator\\4.4\\psoc creator\\import\\gnu\\arm\\5.4.
 2116              		.file 3 "c:\\program files (x86)\\cypress\\psoc creator\\4.4\\psoc creator\\import\\gnu\\arm\\5.4.
 2117              		.file 4 "c:\\program files (x86)\\cypress\\psoc creator\\4.4\\psoc creator\\import\\gnu\\arm\\5.4.
 2118              		.file 5 "..\\u8g2\\csrc\\mui.h"