ARM GAS  C:\Users\brian\AppData\Local\Temp\ccwE2E8f.s 			page 1


   1              		.syntax unified
   2              		.cpu cortex-m3
   3              		.fpu softvfp
   4              		.eabi_attribute 20, 1
   5              		.eabi_attribute 21, 1
   6              		.eabi_attribute 23, 3
   7              		.eabi_attribute 24, 1
   8              		.eabi_attribute 25, 1
   9              		.eabi_attribute 26, 1
  10              		.eabi_attribute 30, 1
  11              		.eabi_attribute 34, 1
  12              		.eabi_attribute 18, 4
  13              		.thumb
  14              		.syntax unified
  15              		.file	"mui_u8g2.c"
  16              		.text
  17              	.Ltext0:
  18              		.cfi_sections	.debug_frame
  19              		.section	.text.mui_u8g2_handle_scroll_next_prev_events,"ax",%progbits
  20              		.align	2
  21              		.thumb
  22              		.thumb_func
  23              		.type	mui_u8g2_handle_scroll_next_prev_events, %function
  24              	mui_u8g2_handle_scroll_next_prev_events:
  25              	.LFB12:
  26              		.file 1 "..\\u8g2\\csrc\\mui_u8g2.c"
   1:..\u8g2\csrc/mui_u8g2.c **** /*
   2:..\u8g2\csrc/mui_u8g2.c **** 
   3:..\u8g2\csrc/mui_u8g2.c ****   mui_u8g2.c
   4:..\u8g2\csrc/mui_u8g2.c **** 
   5:..\u8g2\csrc/mui_u8g2.c ****   Monochrome minimal user interface: Glue code between mui and u8g2.
   6:..\u8g2\csrc/mui_u8g2.c **** 
   7:..\u8g2\csrc/mui_u8g2.c ****   Universal 8bit Graphics Library (https://github.com/olikraus/u8g2/)
   8:..\u8g2\csrc/mui_u8g2.c **** 
   9:..\u8g2\csrc/mui_u8g2.c ****   Copyright (c) 2021, olikraus@gmail.com
  10:..\u8g2\csrc/mui_u8g2.c ****   All rights reserved.
  11:..\u8g2\csrc/mui_u8g2.c **** 
  12:..\u8g2\csrc/mui_u8g2.c ****   Redistribution and use in source and binary forms, with or without modification, 
  13:..\u8g2\csrc/mui_u8g2.c ****   are permitted provided that the following conditions are met:
  14:..\u8g2\csrc/mui_u8g2.c **** 
  15:..\u8g2\csrc/mui_u8g2.c ****   * Redistributions of source code must retain the above copyright notice, this list 
  16:..\u8g2\csrc/mui_u8g2.c ****     of conditions and the following disclaimer.
  17:..\u8g2\csrc/mui_u8g2.c ****     
  18:..\u8g2\csrc/mui_u8g2.c ****   * Redistributions in binary form must reproduce the above copyright notice, this 
  19:..\u8g2\csrc/mui_u8g2.c ****     list of conditions and the following disclaimer in the documentation and/or other 
  20:..\u8g2\csrc/mui_u8g2.c ****     materials provided with the distribution.
  21:..\u8g2\csrc/mui_u8g2.c **** 
  22:..\u8g2\csrc/mui_u8g2.c ****   THIS SOFTWARE IS PROVIDED BY THE COPYRIGHT HOLDERS AND 
  23:..\u8g2\csrc/mui_u8g2.c ****   CONTRIBUTORS "AS IS" AND ANY EXPRESS OR IMPLIED WARRANTIES, 
  24:..\u8g2\csrc/mui_u8g2.c ****   INCLUDING, BUT NOT LIMITED TO, THE IMPLIED WARRANTIES OF 
  25:..\u8g2\csrc/mui_u8g2.c ****   MERCHANTABILITY AND FITNESS FOR A PARTICULAR PURPOSE ARE 
  26:..\u8g2\csrc/mui_u8g2.c ****   DISCLAIMED. IN NO EVENT SHALL THE COPYRIGHT HOLDER OR 
  27:..\u8g2\csrc/mui_u8g2.c ****   CONTRIBUTORS BE LIABLE FOR ANY DIRECT, INDIRECT, INCIDENTAL, 
  28:..\u8g2\csrc/mui_u8g2.c ****   SPECIAL, EXEMPLARY, OR CONSEQUENTIAL DAMAGES (INCLUDING, BUT 
  29:..\u8g2\csrc/mui_u8g2.c ****   NOT LIMITED TO, PROCUREMENT OF SUBSTITUTE GOODS OR SERVICES; 
  30:..\u8g2\csrc/mui_u8g2.c ****   LOSS OF USE, DATA, OR PROFITS; OR BUSINESS INTERRUPTION) HOWEVER 
  31:..\u8g2\csrc/mui_u8g2.c ****   CAUSED AND ON ANY THEORY OF LIABILITY, WHETHER IN CONTRACT, 
ARM GAS  C:\Users\brian\AppData\Local\Temp\ccwE2E8f.s 			page 2


  32:..\u8g2\csrc/mui_u8g2.c ****   STRICT LIABILITY, OR TORT (INCLUDING NEGLIGENCE OR OTHERWISE) 
  33:..\u8g2\csrc/mui_u8g2.c ****   ARISING IN ANY WAY OUT OF THE USE OF THIS SOFTWARE, EVEN IF 
  34:..\u8g2\csrc/mui_u8g2.c ****   ADVISED OF THE POSSIBILITY OF SUCH DAMAGE.  
  35:..\u8g2\csrc/mui_u8g2.c **** 
  36:..\u8g2\csrc/mui_u8g2.c **** */
  37:..\u8g2\csrc/mui_u8g2.c **** 
  38:..\u8g2\csrc/mui_u8g2.c **** /*
  39:..\u8g2\csrc/mui_u8g2.c **** 
  40:..\u8g2\csrc/mui_u8g2.c ****   field function naming convention
  41:..\u8g2\csrc/mui_u8g2.c **** 
  42:..\u8g2\csrc/mui_u8g2.c ****     action
  43:..\u8g2\csrc/mui_u8g2.c ****       draw_text:                        (rename from draw label)
  44:..\u8g2\csrc/mui_u8g2.c ****       draw_str:                      
  45:..\u8g2\csrc/mui_u8g2.c ****       btn_jmp   button jump to:                      a button which jumps to a specific form
  46:..\u8g2\csrc/mui_u8g2.c ****       btn_exit          button leave:                     a button which leaves the form and places
  47:..\u8g2\csrc/mui_u8g2.c ****       u8_value_0_9      
  48:..\u8g2\csrc/mui_u8g2.c ****       u8_chkbox
  49:..\u8g2\csrc/mui_u8g2.c ****       u8_radio
  50:..\u8g2\csrc/mui_u8g2.c ****       u8_opt_line       edit value options in the same line
  51:..\u8g2\csrc/mui_u8g2.c ****       u8_opt_parent       edit value options parent
  52:..\u8g2\csrc/mui_u8g2.c ****       u8_opt_child       edit value options child
  53:..\u8g2\csrc/mui_u8g2.c ****     
  54:..\u8g2\csrc/mui_u8g2.c ****     
  55:..\u8g2\csrc/mui_u8g2.c ****     field width (not for draw text/str)
  56:..\u8g2\csrc/mui_u8g2.c ****       wm                minimum width
  57:..\u8g2\csrc/mui_u8g2.c ****       wa                width can be provided via FDS argument
  58:..\u8g2\csrc/mui_u8g2.c ****       w1                full display width
  59:..\u8g2\csrc/mui_u8g2.c ****       w2                half display size (minus some pixel)
  60:..\u8g2\csrc/mui_u8g2.c ****       w3                one/third of the dispay width (minus some pixel)
  61:..\u8g2\csrc/mui_u8g2.c **** 
  62:..\u8g2\csrc/mui_u8g2.c ****     edit mode  (not for draw text/str, buttons and checkbox)                  
  63:..\u8g2\csrc/mui_u8g2.c ****       mse       select: select event will increment the value or activate the field (buttons)
  64:..\u8g2\csrc/mui_u8g2.c ****       mud      up/down:  select will enter the up/down edit mode. Next/prev event will increment/de
  65:..\u8g2\csrc/mui_u8g2.c ****       
  66:..\u8g2\csrc/mui_u8g2.c ****     styles (not for draw text/str)
  67:..\u8g2\csrc/mui_u8g2.c ****       unselected                selected                        up/down edit
  68:..\u8g2\csrc/mui_u8g2.c ****       plain                          invers                             invers + gap + frame       
  69:..\u8g2\csrc/mui_u8g2.c ****       frame                         invers+frame                frame                              
  70:..\u8g2\csrc/mui_u8g2.c ****       
  71:..\u8g2\csrc/mui_u8g2.c ****       plain                          frame                              invers + frame             
  72:..\u8g2\csrc/mui_u8g2.c ****       invers                        frame                               invers + frame             
  73:..\u8g2\csrc/mui_u8g2.c ****       
  74:..\u8g2\csrc/mui_u8g2.c ****       
  75:..\u8g2\csrc/mui_u8g2.c ****     mui_u8g2_[action]_[field_width]_[edit_mode]_[style]
  76:..\u8g2\csrc/mui_u8g2.c **** 
  77:..\u8g2\csrc/mui_u8g2.c ****   mui _label_u8g2 --> mui_u8g2_draw_text
  78:..\u8g2\csrc/mui_u8g2.c ****   mui _goto_frame_button_invers_select_u8g2                              --> mui_u8g2_btn_goto_wm_f
  79:..\u8g2\csrc/mui_u8g2.c ****   mui _goto_half_width_frame_button_invers_select_u8g2           --> mui_u8g2_btn_goto_w2_fi
  80:..\u8g2\csrc/mui_u8g2.c ****   mui _goto_line_button_invers_select_u8g2 -->  mui_u8g2_btn_goto_w1_fi
  81:..\u8g2\csrc/mui_u8g2.c ****   mui _leave_menu_frame_button_invers_select_u8g2 --> mui_u8g2_btn_exit_wm_fi
  82:..\u8g2\csrc/mui_u8g2.c ****   
  83:..\u8g2\csrc/mui_u8g2.c ****   mui _input_uint8_invers_select_u8g2 --> mui_u8g2_u8_value_0_9_wm_mse_pi
  84:..\u8g2\csrc/mui_u8g2.c ****   mui _single_line_option_invers_select_u8g2     --> mui_u8g2_u8_opt_line_wa_mse_pi
  85:..\u8g2\csrc/mui_u8g2.c ****   mui _select_options_parent_invers_select_u8g2  --> mui_u8g2_u8_opt_parent_wa_mse_pi
  86:..\u8g2\csrc/mui_u8g2.c ****   mui _select_options_child_invers_select_u8g2  --> mui_u8g2_u8_opt_child_wm_mse_pi
  87:..\u8g2\csrc/mui_u8g2.c **** 
  88:..\u8g2\csrc/mui_u8g2.c ****   mui _checkbox_invers_select_u8g2 --> mui_u8g2_u8_chkbox_wm_pi
ARM GAS  C:\Users\brian\AppData\Local\Temp\ccwE2E8f.s 			page 3


  89:..\u8g2\csrc/mui_u8g2.c ****   mui _radio_invers_select_u8g2 --> mui_u8g2_u8_radio_wm_pi
  90:..\u8g2\csrc/mui_u8g2.c **** 
  91:..\u8g2\csrc/mui_u8g2.c ****   mui _input_char_invers_select_u8g2 --> mui_u8g2_u8_char_wm_mud_pi
  92:..\u8g2\csrc/mui_u8g2.c **** 
  93:..\u8g2\csrc/mui_u8g2.c **** */
  94:..\u8g2\csrc/mui_u8g2.c **** 
  95:..\u8g2\csrc/mui_u8g2.c **** 
  96:..\u8g2\csrc/mui_u8g2.c **** 
  97:..\u8g2\csrc/mui_u8g2.c **** #include "mui.h"
  98:..\u8g2\csrc/mui_u8g2.c **** #include "u8g2.h"
  99:..\u8g2\csrc/mui_u8g2.c **** #include "mui_u8g2.h"
 100:..\u8g2\csrc/mui_u8g2.c **** 
 101:..\u8g2\csrc/mui_u8g2.c **** /*
 102:..\u8g2\csrc/mui_u8g2.c **** 
 103:..\u8g2\csrc/mui_u8g2.c **** uint8_t mui_template(mui_t *ui, uint8_t msg)
 104:..\u8g2\csrc/mui_u8g2.c **** {
 105:..\u8g2\csrc/mui_u8g2.c ****   //u8g2_t *u8g2 = mui_get_U8g2(ui);
 106:..\u8g2\csrc/mui_u8g2.c ****   //ui->dflags                          MUIF_DFLAG_IS_CURSOR_FOCUS       MUIF_DFLAG_IS_TOUCH_FOCUS
 107:..\u8g2\csrc/mui_u8g2.c ****   //muif_get_cflags(ui->uif)       MUIF_CFLAG_IS_CURSOR_SELECTABLE
 108:..\u8g2\csrc/mui_u8g2.c ****   //muif_get_data(ui->uif)
 109:..\u8g2\csrc/mui_u8g2.c ****   switch(msg)
 110:..\u8g2\csrc/mui_u8g2.c ****   {
 111:..\u8g2\csrc/mui_u8g2.c ****     case MUIF_MSG_DRAW:
 112:..\u8g2\csrc/mui_u8g2.c ****       break;
 113:..\u8g2\csrc/mui_u8g2.c ****     case MUIF_MSG_FORM_START:
 114:..\u8g2\csrc/mui_u8g2.c ****       break;
 115:..\u8g2\csrc/mui_u8g2.c ****     case MUIF_MSG_FORM_END:
 116:..\u8g2\csrc/mui_u8g2.c ****       break;
 117:..\u8g2\csrc/mui_u8g2.c ****     case MUIF_MSG_CURSOR_ENTER:
 118:..\u8g2\csrc/mui_u8g2.c ****       break;
 119:..\u8g2\csrc/mui_u8g2.c ****     case MUIF_MSG_CURSOR_SELECT:
 120:..\u8g2\csrc/mui_u8g2.c ****       break;
 121:..\u8g2\csrc/mui_u8g2.c ****     case MUIF_MSG_CURSOR_LEAVE:
 122:..\u8g2\csrc/mui_u8g2.c ****       break;
 123:..\u8g2\csrc/mui_u8g2.c ****     case MUIF_MSG_TOUCH_DOWN:
 124:..\u8g2\csrc/mui_u8g2.c ****       break;
 125:..\u8g2\csrc/mui_u8g2.c ****     case MUIF_MSG_TOUCH_UP:
 126:..\u8g2\csrc/mui_u8g2.c ****       break;
 127:..\u8g2\csrc/mui_u8g2.c ****   }
 128:..\u8g2\csrc/mui_u8g2.c ****   return 0;
 129:..\u8g2\csrc/mui_u8g2.c **** }
 130:..\u8g2\csrc/mui_u8g2.c **** */
 131:..\u8g2\csrc/mui_u8g2.c **** 
 132:..\u8g2\csrc/mui_u8g2.c **** /*=========================================================================*/
 133:..\u8g2\csrc/mui_u8g2.c **** #define MUI_U8G2_V_PADDING 1
 134:..\u8g2\csrc/mui_u8g2.c **** 
 135:..\u8g2\csrc/mui_u8g2.c **** /*=========================================================================*/
 136:..\u8g2\csrc/mui_u8g2.c **** /* extra u8g2 drawing functions */
 137:..\u8g2\csrc/mui_u8g2.c **** 
 138:..\u8g2\csrc/mui_u8g2.c **** static void u8g2_DrawCheckbox(u8g2_t *u8g2, u8g2_uint_t x, u8g2_uint_t y, u8g2_uint_t w, u8g2_uint_
 139:..\u8g2\csrc/mui_u8g2.c **** static void u8g2_DrawCheckbox(u8g2_t *u8g2, u8g2_uint_t x, u8g2_uint_t y, u8g2_uint_t w, u8g2_uint_
 140:..\u8g2\csrc/mui_u8g2.c **** {
 141:..\u8g2\csrc/mui_u8g2.c ****   u8g2_DrawFrame(u8g2, x, y-w, w, w);
 142:..\u8g2\csrc/mui_u8g2.c ****   if ( is_checked )
 143:..\u8g2\csrc/mui_u8g2.c ****   {
 144:..\u8g2\csrc/mui_u8g2.c ****     w-=4;
 145:..\u8g2\csrc/mui_u8g2.c ****     u8g2_DrawBox(u8g2, x+2, y-w-2, w, w);
ARM GAS  C:\Users\brian\AppData\Local\Temp\ccwE2E8f.s 			page 4


 146:..\u8g2\csrc/mui_u8g2.c ****   }
 147:..\u8g2\csrc/mui_u8g2.c **** }
 148:..\u8g2\csrc/mui_u8g2.c **** 
 149:..\u8g2\csrc/mui_u8g2.c **** static void u8g2_DrawValueMark(u8g2_t *u8g2, u8g2_uint_t x, u8g2_uint_t y, u8g2_uint_t w)
 150:..\u8g2\csrc/mui_u8g2.c **** {
 151:..\u8g2\csrc/mui_u8g2.c ****   u8g2_DrawBox(u8g2, x, y-w, w, w);
 152:..\u8g2\csrc/mui_u8g2.c **** }
 153:..\u8g2\csrc/mui_u8g2.c **** 
 154:..\u8g2\csrc/mui_u8g2.c **** 
 155:..\u8g2\csrc/mui_u8g2.c **** /*=========================================================================*/
 156:..\u8g2\csrc/mui_u8g2.c **** /* helper function */
 157:..\u8g2\csrc/mui_u8g2.c **** 
 158:..\u8g2\csrc/mui_u8g2.c **** u8g2_uint_t mui_get_x(mui_t *ui) MUI_NOINLINE;
 159:..\u8g2\csrc/mui_u8g2.c **** u8g2_uint_t mui_get_x(mui_t *ui)
 160:..\u8g2\csrc/mui_u8g2.c **** {
 161:..\u8g2\csrc/mui_u8g2.c ****   if ( u8g2_GetDisplayWidth(mui_get_U8g2(ui)) >= 255 )
 162:..\u8g2\csrc/mui_u8g2.c ****       return ui->x / 2;
 163:..\u8g2\csrc/mui_u8g2.c ****   return ui->x;
 164:..\u8g2\csrc/mui_u8g2.c **** }
 165:..\u8g2\csrc/mui_u8g2.c **** 
 166:..\u8g2\csrc/mui_u8g2.c **** u8g2_uint_t mui_get_y(mui_t *ui)
 167:..\u8g2\csrc/mui_u8g2.c **** {
 168:..\u8g2\csrc/mui_u8g2.c ****   return ui->y;
 169:..\u8g2\csrc/mui_u8g2.c **** }
 170:..\u8g2\csrc/mui_u8g2.c **** 
 171:..\u8g2\csrc/mui_u8g2.c **** u8g2_t *mui_get_U8g2(mui_t *ui)
 172:..\u8g2\csrc/mui_u8g2.c **** {
 173:..\u8g2\csrc/mui_u8g2.c ****   return (u8g2_t *)(ui->graphics_data);
 174:..\u8g2\csrc/mui_u8g2.c **** }
 175:..\u8g2\csrc/mui_u8g2.c **** 
 176:..\u8g2\csrc/mui_u8g2.c **** //void u8g2_DrawButtonUTF8(u8g2_t *u8g2, u8g2_uint_t x, u8g2_uint_t y, u8g2_uint_t flags, u8g2_uint
 177:..\u8g2\csrc/mui_u8g2.c **** void mui_u8g2_draw_button_utf(mui_t *ui, u8g2_uint_t flags, u8g2_uint_t width, u8g2_uint_t padding_
 178:..\u8g2\csrc/mui_u8g2.c **** {
 179:..\u8g2\csrc/mui_u8g2.c ****   if ( text==NULL)
 180:..\u8g2\csrc/mui_u8g2.c ****     text = "";
 181:..\u8g2\csrc/mui_u8g2.c ****   u8g2_DrawButtonUTF8(mui_get_U8g2(ui), mui_get_x(ui), mui_get_y(ui), flags, width, padding_h, padd
 182:..\u8g2\csrc/mui_u8g2.c **** }
 183:..\u8g2\csrc/mui_u8g2.c **** 
 184:..\u8g2\csrc/mui_u8g2.c **** u8g2_uint_t mui_u8g2_get_pi_flags(mui_t *ui)
 185:..\u8g2\csrc/mui_u8g2.c **** {
 186:..\u8g2\csrc/mui_u8g2.c ****   u8g2_uint_t flags = 0;
 187:..\u8g2\csrc/mui_u8g2.c ****   if ( mui_IsCursorFocus(ui) )
 188:..\u8g2\csrc/mui_u8g2.c ****   {
 189:..\u8g2\csrc/mui_u8g2.c ****     flags |= U8G2_BTN_INV;
 190:..\u8g2\csrc/mui_u8g2.c ****     if ( ui->is_mud )
 191:..\u8g2\csrc/mui_u8g2.c ****     {
 192:..\u8g2\csrc/mui_u8g2.c ****       flags |= U8G2_BTN_XFRAME;
 193:..\u8g2\csrc/mui_u8g2.c ****     }      
 194:..\u8g2\csrc/mui_u8g2.c ****   }
 195:..\u8g2\csrc/mui_u8g2.c ****   return flags;
 196:..\u8g2\csrc/mui_u8g2.c **** }
 197:..\u8g2\csrc/mui_u8g2.c **** 
 198:..\u8g2\csrc/mui_u8g2.c **** 
 199:..\u8g2\csrc/mui_u8g2.c **** void mui_u8g2_draw_button_pi(mui_t *ui, u8g2_uint_t width, u8g2_uint_t padding_h, const char *text)
 200:..\u8g2\csrc/mui_u8g2.c **** {
 201:..\u8g2\csrc/mui_u8g2.c ****   mui_u8g2_draw_button_utf(ui, mui_u8g2_get_pi_flags(ui), width, padding_h , MUI_U8G2_V_PADDING, te
 202:..\u8g2\csrc/mui_u8g2.c **** }
ARM GAS  C:\Users\brian\AppData\Local\Temp\ccwE2E8f.s 			page 5


 203:..\u8g2\csrc/mui_u8g2.c **** 
 204:..\u8g2\csrc/mui_u8g2.c **** 
 205:..\u8g2\csrc/mui_u8g2.c **** u8g2_uint_t mui_u8g2_get_fi_flags(mui_t *ui)
 206:..\u8g2\csrc/mui_u8g2.c **** {
 207:..\u8g2\csrc/mui_u8g2.c ****   u8g2_uint_t flags = 1;
 208:..\u8g2\csrc/mui_u8g2.c ****   if ( mui_IsCursorFocus(ui) )
 209:..\u8g2\csrc/mui_u8g2.c ****   {
 210:..\u8g2\csrc/mui_u8g2.c ****     flags |= U8G2_BTN_INV;
 211:..\u8g2\csrc/mui_u8g2.c ****     if ( ui->is_mud )
 212:..\u8g2\csrc/mui_u8g2.c ****     {
 213:..\u8g2\csrc/mui_u8g2.c ****       flags = 1;        // undo INV
 214:..\u8g2\csrc/mui_u8g2.c ****     }      
 215:..\u8g2\csrc/mui_u8g2.c ****   }
 216:..\u8g2\csrc/mui_u8g2.c ****   return flags;
 217:..\u8g2\csrc/mui_u8g2.c **** }
 218:..\u8g2\csrc/mui_u8g2.c **** 
 219:..\u8g2\csrc/mui_u8g2.c **** void mui_u8g2_draw_button_fi(mui_t *ui, u8g2_uint_t width, u8g2_uint_t padding_h, const char *text)
 220:..\u8g2\csrc/mui_u8g2.c **** {
 221:..\u8g2\csrc/mui_u8g2.c ****   mui_u8g2_draw_button_utf(ui, mui_u8g2_get_fi_flags(ui), width, padding_h , MUI_U8G2_V_PADDING, te
 222:..\u8g2\csrc/mui_u8g2.c **** }
 223:..\u8g2\csrc/mui_u8g2.c **** 
 224:..\u8g2\csrc/mui_u8g2.c **** 
 225:..\u8g2\csrc/mui_u8g2.c **** u8g2_uint_t mui_u8g2_get_pf_flags(mui_t *ui)
 226:..\u8g2\csrc/mui_u8g2.c **** {
 227:..\u8g2\csrc/mui_u8g2.c ****   u8g2_uint_t flags = 0;
 228:..\u8g2\csrc/mui_u8g2.c ****   if ( mui_IsCursorFocus(ui) )
 229:..\u8g2\csrc/mui_u8g2.c ****   {
 230:..\u8g2\csrc/mui_u8g2.c ****     flags |= 1;
 231:..\u8g2\csrc/mui_u8g2.c ****     if ( ui->is_mud )
 232:..\u8g2\csrc/mui_u8g2.c ****     {
 233:..\u8g2\csrc/mui_u8g2.c ****       flags |= U8G2_BTN_INV;
 234:..\u8g2\csrc/mui_u8g2.c ****     }      
 235:..\u8g2\csrc/mui_u8g2.c ****   }
 236:..\u8g2\csrc/mui_u8g2.c ****   return flags;
 237:..\u8g2\csrc/mui_u8g2.c **** }
 238:..\u8g2\csrc/mui_u8g2.c **** 
 239:..\u8g2\csrc/mui_u8g2.c **** void mui_u8g2_draw_button_pf(mui_t *ui, u8g2_uint_t width, u8g2_uint_t padding_h, const char *text)
 240:..\u8g2\csrc/mui_u8g2.c **** {
 241:..\u8g2\csrc/mui_u8g2.c ****   mui_u8g2_draw_button_utf(ui, mui_u8g2_get_pf_flags(ui), width, padding_h , MUI_U8G2_V_PADDING, te
 242:..\u8g2\csrc/mui_u8g2.c **** }
 243:..\u8g2\csrc/mui_u8g2.c **** 
 244:..\u8g2\csrc/mui_u8g2.c **** 
 245:..\u8g2\csrc/mui_u8g2.c **** static uint8_t mui_u8g2_handle_scroll_next_prev_events(mui_t *ui, uint8_t msg) MUI_NOINLINE;
 246:..\u8g2\csrc/mui_u8g2.c **** static uint8_t mui_u8g2_handle_scroll_next_prev_events(mui_t *ui, uint8_t msg)
 247:..\u8g2\csrc/mui_u8g2.c **** {
  27              		.loc 1 247 0
  28              		.cfi_startproc
  29              		@ args = 0, pretend = 0, frame = 0
  30              		@ frame_needed = 0, uses_anonymous_args = 0
  31              		@ link register save eliminated.
  32              	.LVL0:
 248:..\u8g2\csrc/mui_u8g2.c ****   uint8_t arg = ui->arg;
  33              		.loc 1 248 0
  34 0000 90F82E30 		ldrb	r3, [r0, #46]	@ zero_extendqisi2
  35              	.LVL1:
 249:..\u8g2\csrc/mui_u8g2.c ****   switch(msg)
  36              		.loc 1 249 0
ARM GAS  C:\Users\brian\AppData\Local\Temp\ccwE2E8f.s 			page 6


  37 0004 0929     		cmp	r1, #9
  38 0006 0CD0     		beq	.L3
  39 0008 0A29     		cmp	r1, #10
  40 000a 1CD0     		beq	.L4
  41 000c 0429     		cmp	r1, #4
  42 000e 2ED1     		bne	.L14
 250:..\u8g2\csrc/mui_u8g2.c ****   {
 251:..\u8g2\csrc/mui_u8g2.c ****     case MUIF_MSG_CURSOR_ENTER:
 252:..\u8g2\csrc/mui_u8g2.c ****       if ( (arg > 0) && (ui->form_scroll_top + arg >= ui->form_scroll_total) )
  43              		.loc 1 252 0
  44 0010 002B     		cmp	r3, #0
  45 0012 2ED0     		beq	.L10
  46              		.loc 1 252 0 is_stmt 0 discriminator 1
  47 0014 428C     		ldrh	r2, [r0, #34]
  48 0016 1344     		add	r3, r3, r2
  49              	.LVL2:
  50 0018 028C     		ldrh	r2, [r0, #32]
  51 001a 9342     		cmp	r3, r2
  52 001c 2BDB     		blt	.L11
 253:..\u8g2\csrc/mui_u8g2.c ****         return 255;
  53              		.loc 1 253 0 is_stmt 1
  54 001e FF20     		movs	r0, #255
  55              	.LVL3:
  56 0020 7047     		bx	lr
  57              	.LVL4:
  58              	.L3:
 254:..\u8g2\csrc/mui_u8g2.c ****       break;
 255:..\u8g2\csrc/mui_u8g2.c ****     case MUIF_MSG_EVENT_NEXT:
 256:..\u8g2\csrc/mui_u8g2.c ****       if ( arg+1 == ui->form_scroll_visible )
  59              		.loc 1 256 0
  60 0022 0133     		adds	r3, r3, #1
  61              	.LVL5:
  62 0024 90F82420 		ldrb	r2, [r0, #36]	@ zero_extendqisi2
  63 0028 9342     		cmp	r3, r2
  64 002a 26D1     		bne	.L12
 257:..\u8g2\csrc/mui_u8g2.c ****       {
 258:..\u8g2\csrc/mui_u8g2.c ****         if ( ui->form_scroll_visible + ui->form_scroll_top < ui->form_scroll_total )
  65              		.loc 1 258 0
  66 002c 438C     		ldrh	r3, [r0, #34]
  67              	.LVL6:
  68 002e 1A44     		add	r2, r2, r3
  69 0030 018C     		ldrh	r1, [r0, #32]
  70              	.LVL7:
  71 0032 8A42     		cmp	r2, r1
  72 0034 03DA     		bge	.L6
 259:..\u8g2\csrc/mui_u8g2.c ****         {
 260:..\u8g2\csrc/mui_u8g2.c ****           ui->form_scroll_top++;
  73              		.loc 1 260 0
  74 0036 0133     		adds	r3, r3, #1
  75 0038 4384     		strh	r3, [r0, #34]	@ movhi
 261:..\u8g2\csrc/mui_u8g2.c ****           return 1;
  76              		.loc 1 261 0
  77 003a 0120     		movs	r0, #1
  78              	.LVL8:
  79 003c 7047     		bx	lr
  80              	.LVL9:
  81              	.L6:
ARM GAS  C:\Users\brian\AppData\Local\Temp\ccwE2E8f.s 			page 7


 262:..\u8g2\csrc/mui_u8g2.c ****         }
 263:..\u8g2\csrc/mui_u8g2.c ****         else
 264:..\u8g2\csrc/mui_u8g2.c ****         {
 265:..\u8g2\csrc/mui_u8g2.c ****           ui->form_scroll_top = 0;
  82              		.loc 1 265 0
  83 003e 0023     		movs	r3, #0
  84 0040 4384     		strh	r3, [r0, #34]	@ movhi
 266:..\u8g2\csrc/mui_u8g2.c ****         }
 267:..\u8g2\csrc/mui_u8g2.c ****       }
 268:..\u8g2\csrc/mui_u8g2.c ****       break;
 269:..\u8g2\csrc/mui_u8g2.c ****     case MUIF_MSG_EVENT_PREV:
 270:..\u8g2\csrc/mui_u8g2.c ****       if ( arg == 0 )
 271:..\u8g2\csrc/mui_u8g2.c ****       {
 272:..\u8g2\csrc/mui_u8g2.c ****         if ( ui->form_scroll_top > 0 )
 273:..\u8g2\csrc/mui_u8g2.c ****         {
 274:..\u8g2\csrc/mui_u8g2.c ****           ui->form_scroll_top--;
 275:..\u8g2\csrc/mui_u8g2.c ****           return 1;
 276:..\u8g2\csrc/mui_u8g2.c ****         }
 277:..\u8g2\csrc/mui_u8g2.c ****         else
 278:..\u8g2\csrc/mui_u8g2.c ****         {
 279:..\u8g2\csrc/mui_u8g2.c ****           if ( ui->form_scroll_total >  ui->form_scroll_visible  )
 280:..\u8g2\csrc/mui_u8g2.c ****           {
 281:..\u8g2\csrc/mui_u8g2.c ****             ui->form_scroll_top = ui->form_scroll_total - ui->form_scroll_visible;
 282:..\u8g2\csrc/mui_u8g2.c ****           }
 283:..\u8g2\csrc/mui_u8g2.c ****           else
 284:..\u8g2\csrc/mui_u8g2.c ****           {
 285:..\u8g2\csrc/mui_u8g2.c ****             ui->form_scroll_top = 0;
 286:..\u8g2\csrc/mui_u8g2.c ****           }
 287:..\u8g2\csrc/mui_u8g2.c ****         }
 288:..\u8g2\csrc/mui_u8g2.c ****       }
 289:..\u8g2\csrc/mui_u8g2.c ****       break;
 290:..\u8g2\csrc/mui_u8g2.c ****   }
 291:..\u8g2\csrc/mui_u8g2.c ****   return 0;
  85              		.loc 1 291 0
  86 0042 1846     		mov	r0, r3
  87              	.LVL10:
  88 0044 7047     		bx	lr
  89              	.LVL11:
  90              	.L4:
 270:..\u8g2\csrc/mui_u8g2.c ****       {
  91              		.loc 1 270 0
  92 0046 D3B9     		cbnz	r3, .L13
 272:..\u8g2\csrc/mui_u8g2.c ****         {
  93              		.loc 1 272 0
  94 0048 438C     		ldrh	r3, [r0, #34]
  95              	.LVL12:
  96 004a 1BB1     		cbz	r3, .L7
 274:..\u8g2\csrc/mui_u8g2.c ****           return 1;
  97              		.loc 1 274 0
  98 004c 013B     		subs	r3, r3, #1
  99 004e 4384     		strh	r3, [r0, #34]	@ movhi
 275:..\u8g2\csrc/mui_u8g2.c ****         }
 100              		.loc 1 275 0
 101 0050 0120     		movs	r0, #1
 102              	.LVL13:
 103 0052 7047     		bx	lr
 104              	.LVL14:
ARM GAS  C:\Users\brian\AppData\Local\Temp\ccwE2E8f.s 			page 8


 105              	.L7:
 279:..\u8g2\csrc/mui_u8g2.c ****           {
 106              		.loc 1 279 0
 107 0054 038C     		ldrh	r3, [r0, #32]
 108 0056 90F82420 		ldrb	r2, [r0, #36]	@ zero_extendqisi2
 109 005a 9342     		cmp	r3, r2
 110 005c 03D9     		bls	.L8
 281:..\u8g2\csrc/mui_u8g2.c ****           }
 111              		.loc 1 281 0
 112 005e 9B1A     		subs	r3, r3, r2
 113 0060 4384     		strh	r3, [r0, #34]	@ movhi
 114              		.loc 1 291 0
 115 0062 0020     		movs	r0, #0
 116              	.LVL15:
 117 0064 7047     		bx	lr
 118              	.LVL16:
 119              	.L8:
 285:..\u8g2\csrc/mui_u8g2.c ****           }
 120              		.loc 1 285 0
 121 0066 0023     		movs	r3, #0
 122 0068 4384     		strh	r3, [r0, #34]	@ movhi
 123              		.loc 1 291 0
 124 006a 1846     		mov	r0, r3
 125              	.LVL17:
 126 006c 7047     		bx	lr
 127              	.LVL18:
 128              	.L14:
 129 006e 0020     		movs	r0, #0
 130              	.LVL19:
 131 0070 7047     		bx	lr
 132              	.LVL20:
 133              	.L10:
 134 0072 0020     		movs	r0, #0
 135              	.LVL21:
 136 0074 7047     		bx	lr
 137              	.LVL22:
 138              	.L11:
 139 0076 0020     		movs	r0, #0
 140              	.LVL23:
 141 0078 7047     		bx	lr
 142              	.LVL24:
 143              	.L12:
 144 007a 0020     		movs	r0, #0
 145              	.LVL25:
 146 007c 7047     		bx	lr
 147              	.LVL26:
 148              	.L13:
 149 007e 0020     		movs	r0, #0
 150              	.LVL27:
 292:..\u8g2\csrc/mui_u8g2.c **** }
 151              		.loc 1 292 0
 152 0080 7047     		bx	lr
 153              		.cfi_endproc
 154              	.LFE12:
 155              		.size	mui_u8g2_handle_scroll_next_prev_events, .-mui_u8g2_handle_scroll_next_prev_events
 156 0082 00BF     		.section	.text.mui_is_valid_char,"ax",%progbits
 157              		.align	2
ARM GAS  C:\Users\brian\AppData\Local\Temp\ccwE2E8f.s 			page 9


 158              		.thumb
 159              		.thumb_func
 160              		.type	mui_is_valid_char, %function
 161              	mui_is_valid_char:
 162              	.LFB25:
 293:..\u8g2\csrc/mui_u8g2.c **** /*=========================================================================*/
 294:..\u8g2\csrc/mui_u8g2.c **** /* field functions */
 295:..\u8g2\csrc/mui_u8g2.c **** 
 296:..\u8g2\csrc/mui_u8g2.c **** /*
 297:..\u8g2\csrc/mui_u8g2.c ****   xy: yes, arg: no, text: yes
 298:..\u8g2\csrc/mui_u8g2.c **** */
 299:..\u8g2\csrc/mui_u8g2.c **** 
 300:..\u8g2\csrc/mui_u8g2.c **** uint8_t mui_u8g2_draw_text(mui_t *ui, uint8_t msg)
 301:..\u8g2\csrc/mui_u8g2.c **** {
 302:..\u8g2\csrc/mui_u8g2.c ****   switch(msg)
 303:..\u8g2\csrc/mui_u8g2.c ****   {
 304:..\u8g2\csrc/mui_u8g2.c ****     case MUIF_MSG_DRAW:
 305:..\u8g2\csrc/mui_u8g2.c ****       u8g2_DrawStr(mui_get_U8g2(ui), mui_get_x(ui), mui_get_y(ui), ui->text);
 306:..\u8g2\csrc/mui_u8g2.c ****       break;
 307:..\u8g2\csrc/mui_u8g2.c ****     case MUIF_MSG_FORM_START:
 308:..\u8g2\csrc/mui_u8g2.c ****       break;
 309:..\u8g2\csrc/mui_u8g2.c ****     case MUIF_MSG_FORM_END:
 310:..\u8g2\csrc/mui_u8g2.c ****       break;
 311:..\u8g2\csrc/mui_u8g2.c ****     case MUIF_MSG_CURSOR_ENTER:
 312:..\u8g2\csrc/mui_u8g2.c ****       break;
 313:..\u8g2\csrc/mui_u8g2.c ****     case MUIF_MSG_CURSOR_SELECT:
 314:..\u8g2\csrc/mui_u8g2.c ****       break;
 315:..\u8g2\csrc/mui_u8g2.c ****     case MUIF_MSG_CURSOR_LEAVE:
 316:..\u8g2\csrc/mui_u8g2.c ****       break;
 317:..\u8g2\csrc/mui_u8g2.c ****     case MUIF_MSG_TOUCH_DOWN:
 318:..\u8g2\csrc/mui_u8g2.c ****       break;
 319:..\u8g2\csrc/mui_u8g2.c ****     case MUIF_MSG_TOUCH_UP:
 320:..\u8g2\csrc/mui_u8g2.c ****       break;    
 321:..\u8g2\csrc/mui_u8g2.c ****   }
 322:..\u8g2\csrc/mui_u8g2.c ****   return 0;
 323:..\u8g2\csrc/mui_u8g2.c **** }
 324:..\u8g2\csrc/mui_u8g2.c **** 
 325:..\u8g2\csrc/mui_u8g2.c **** 
 326:..\u8g2\csrc/mui_u8g2.c **** /*
 327:..\u8g2\csrc/mui_u8g2.c **** 
 328:..\u8g2\csrc/mui_u8g2.c ****   uint8_t mui_u8g2_btn_goto_wm_fi(mui_t *ui, uint8_t msg)
 329:..\u8g2\csrc/mui_u8g2.c **** 
 330:..\u8g2\csrc/mui_u8g2.c ****   Description:
 331:..\u8g2\csrc/mui_u8g2.c ****     A button with size equal to button text plus one pixel padding
 332:..\u8g2\csrc/mui_u8g2.c ****     The button has a one pixel frame around the text.
 333:..\u8g2\csrc/mui_u8g2.c ****     If the selected, then the form will change to the specified form number.
 334:..\u8g2\csrc/mui_u8g2.c ****     
 335:..\u8g2\csrc/mui_u8g2.c ****   Message Handling: DRAW, CURSOR_SELECT
 336:..\u8g2\csrc/mui_u8g2.c **** 
 337:..\u8g2\csrc/mui_u8g2.c ****   Style
 338:..\u8g2\csrc/mui_u8g2.c ****     No Selection: Text + Frame
 339:..\u8g2\csrc/mui_u8g2.c ****     Cursor Selection: Inverted text + Frame
 340:..\u8g2\csrc/mui_u8g2.c **** 
 341:..\u8g2\csrc/mui_u8g2.c ****   User interface field list (muif):
 342:..\u8g2\csrc/mui_u8g2.c ****     flags: MUIF_CFLAG_IS_CURSOR_SELECTABLE
 343:..\u8g2\csrc/mui_u8g2.c ****     data: not used
 344:..\u8g2\csrc/mui_u8g2.c **** 
ARM GAS  C:\Users\brian\AppData\Local\Temp\ccwE2E8f.s 			page 10


 345:..\u8g2\csrc/mui_u8g2.c ****   Field definition string (fds):
 346:..\u8g2\csrc/mui_u8g2.c ****     xy: Left position of the text (required)
 347:..\u8g2\csrc/mui_u8g2.c ****     arg: Form numner (required)
 348:..\u8g2\csrc/mui_u8g2.c ****     text: Button label
 349:..\u8g2\csrc/mui_u8g2.c ****     
 350:..\u8g2\csrc/mui_u8g2.c **** */
 351:..\u8g2\csrc/mui_u8g2.c **** uint8_t mui_u8g2_btn_goto_wm_fi(mui_t *ui, uint8_t msg)
 352:..\u8g2\csrc/mui_u8g2.c **** {
 353:..\u8g2\csrc/mui_u8g2.c ****   switch(msg)
 354:..\u8g2\csrc/mui_u8g2.c ****   {
 355:..\u8g2\csrc/mui_u8g2.c ****     case MUIF_MSG_DRAW:
 356:..\u8g2\csrc/mui_u8g2.c ****       mui_u8g2_draw_button_utf(ui, U8G2_BTN_HCENTER |mui_u8g2_get_fi_flags(ui), 0, 1, MUI_U8G2_V_PA
 357:..\u8g2\csrc/mui_u8g2.c ****       break;
 358:..\u8g2\csrc/mui_u8g2.c ****     case MUIF_MSG_FORM_START:
 359:..\u8g2\csrc/mui_u8g2.c ****       break;
 360:..\u8g2\csrc/mui_u8g2.c ****     case MUIF_MSG_FORM_END:
 361:..\u8g2\csrc/mui_u8g2.c ****       break;
 362:..\u8g2\csrc/mui_u8g2.c ****     case MUIF_MSG_CURSOR_ENTER:
 363:..\u8g2\csrc/mui_u8g2.c ****       break;
 364:..\u8g2\csrc/mui_u8g2.c ****     case MUIF_MSG_CURSOR_SELECT:
 365:..\u8g2\csrc/mui_u8g2.c ****       return mui_GotoForm(ui, ui->arg, 0);
 366:..\u8g2\csrc/mui_u8g2.c ****     case MUIF_MSG_CURSOR_LEAVE:
 367:..\u8g2\csrc/mui_u8g2.c ****       break;
 368:..\u8g2\csrc/mui_u8g2.c ****     case MUIF_MSG_TOUCH_DOWN:
 369:..\u8g2\csrc/mui_u8g2.c ****       break;
 370:..\u8g2\csrc/mui_u8g2.c ****     case MUIF_MSG_TOUCH_UP:
 371:..\u8g2\csrc/mui_u8g2.c ****       break;    
 372:..\u8g2\csrc/mui_u8g2.c ****     
 373:..\u8g2\csrc/mui_u8g2.c ****   }
 374:..\u8g2\csrc/mui_u8g2.c ****   return 0;
 375:..\u8g2\csrc/mui_u8g2.c **** }
 376:..\u8g2\csrc/mui_u8g2.c **** 
 377:..\u8g2\csrc/mui_u8g2.c **** uint8_t mui_u8g2_btn_goto_w2_fi(mui_t *ui, uint8_t msg)
 378:..\u8g2\csrc/mui_u8g2.c **** {
 379:..\u8g2\csrc/mui_u8g2.c ****   u8g2_t *u8g2 = mui_get_U8g2(ui);
 380:..\u8g2\csrc/mui_u8g2.c ****   switch(msg)
 381:..\u8g2\csrc/mui_u8g2.c ****   {
 382:..\u8g2\csrc/mui_u8g2.c ****     case MUIF_MSG_DRAW:
 383:..\u8g2\csrc/mui_u8g2.c ****       mui_u8g2_draw_button_utf(ui, U8G2_BTN_HCENTER | mui_u8g2_get_fi_flags(ui), u8g2_GetDisplayWid
 384:..\u8g2\csrc/mui_u8g2.c ****       break;
 385:..\u8g2\csrc/mui_u8g2.c ****     case MUIF_MSG_FORM_START:
 386:..\u8g2\csrc/mui_u8g2.c ****       break;
 387:..\u8g2\csrc/mui_u8g2.c ****     case MUIF_MSG_FORM_END:
 388:..\u8g2\csrc/mui_u8g2.c ****       break;
 389:..\u8g2\csrc/mui_u8g2.c ****     case MUIF_MSG_CURSOR_ENTER:
 390:..\u8g2\csrc/mui_u8g2.c ****       break;
 391:..\u8g2\csrc/mui_u8g2.c ****     case MUIF_MSG_CURSOR_SELECT:
 392:..\u8g2\csrc/mui_u8g2.c ****       return mui_GotoForm(ui, ui->arg, 0);
 393:..\u8g2\csrc/mui_u8g2.c ****     case MUIF_MSG_CURSOR_LEAVE:
 394:..\u8g2\csrc/mui_u8g2.c ****       break;
 395:..\u8g2\csrc/mui_u8g2.c ****     case MUIF_MSG_TOUCH_DOWN:
 396:..\u8g2\csrc/mui_u8g2.c ****       break;
 397:..\u8g2\csrc/mui_u8g2.c ****     case MUIF_MSG_TOUCH_UP:
 398:..\u8g2\csrc/mui_u8g2.c ****       break;    
 399:..\u8g2\csrc/mui_u8g2.c ****   }
 400:..\u8g2\csrc/mui_u8g2.c ****   return 0;
 401:..\u8g2\csrc/mui_u8g2.c **** }
ARM GAS  C:\Users\brian\AppData\Local\Temp\ccwE2E8f.s 			page 11


 402:..\u8g2\csrc/mui_u8g2.c **** 
 403:..\u8g2\csrc/mui_u8g2.c **** /*
 404:..\u8g2\csrc/mui_u8g2.c **** 
 405:..\u8g2\csrc/mui_u8g2.c ****   uint8_t mui_u8g2_btn_exit_wm_fi(mui_t *ui, uint8_t msg)
 406:..\u8g2\csrc/mui_u8g2.c **** 
 407:..\u8g2\csrc/mui_u8g2.c ****   Description:
 408:..\u8g2\csrc/mui_u8g2.c ****     A button with size equal to button text plus one pixel padding
 409:..\u8g2\csrc/mui_u8g2.c ****     The button has a one pixel frame around the text.
 410:..\u8g2\csrc/mui_u8g2.c ****     If the selected, then the menu system will be closed.
 411:..\u8g2\csrc/mui_u8g2.c ****     The arg value will be stored at the specified data location (if not NULL).
 412:..\u8g2\csrc/mui_u8g2.c ****     The arg value can be used as an exit value of the button.
 413:..\u8g2\csrc/mui_u8g2.c ****     
 414:..\u8g2\csrc/mui_u8g2.c ****   Message Handling: DRAW, CURSOR_SELECT
 415:..\u8g2\csrc/mui_u8g2.c **** 
 416:..\u8g2\csrc/mui_u8g2.c ****   Style
 417:..\u8g2\csrc/mui_u8g2.c ****     No Selection: Text + Frame
 418:..\u8g2\csrc/mui_u8g2.c ****     Cursor Selection: Inverted text + Frame
 419:..\u8g2\csrc/mui_u8g2.c **** 
 420:..\u8g2\csrc/mui_u8g2.c ****   User interface field list (muif):
 421:..\u8g2\csrc/mui_u8g2.c ****     flags: MUIF_CFLAG_IS_CURSOR_SELECTABLE
 422:..\u8g2\csrc/mui_u8g2.c ****     data: Optionally points to uint8_t value which will receive the arg value of the field.
 423:..\u8g2\csrc/mui_u8g2.c **** 
 424:..\u8g2\csrc/mui_u8g2.c ****   Field definition string (fds):
 425:..\u8g2\csrc/mui_u8g2.c ****     xy: Left position of the text (required)
 426:..\u8g2\csrc/mui_u8g2.c ****     arg: Value which will be stored at *data (optional)
 427:..\u8g2\csrc/mui_u8g2.c ****     text: Button label
 428:..\u8g2\csrc/mui_u8g2.c ****     
 429:..\u8g2\csrc/mui_u8g2.c **** */
 430:..\u8g2\csrc/mui_u8g2.c **** uint8_t mui_u8g2_btn_exit_wm_fi(mui_t *ui, uint8_t msg)
 431:..\u8g2\csrc/mui_u8g2.c **** {
 432:..\u8g2\csrc/mui_u8g2.c ****   switch(msg)
 433:..\u8g2\csrc/mui_u8g2.c ****   {
 434:..\u8g2\csrc/mui_u8g2.c ****     case MUIF_MSG_DRAW:
 435:..\u8g2\csrc/mui_u8g2.c ****       mui_u8g2_draw_button_utf(ui, U8G2_BTN_HCENTER |mui_u8g2_get_fi_flags(ui), 0, 1, MUI_U8G2_V_PA
 436:..\u8g2\csrc/mui_u8g2.c ****       break;
 437:..\u8g2\csrc/mui_u8g2.c ****     case MUIF_MSG_FORM_START:
 438:..\u8g2\csrc/mui_u8g2.c ****       break;
 439:..\u8g2\csrc/mui_u8g2.c ****     case MUIF_MSG_FORM_END:
 440:..\u8g2\csrc/mui_u8g2.c ****       break;
 441:..\u8g2\csrc/mui_u8g2.c ****     case MUIF_MSG_CURSOR_ENTER:
 442:..\u8g2\csrc/mui_u8g2.c ****       break;
 443:..\u8g2\csrc/mui_u8g2.c ****     case MUIF_MSG_CURSOR_SELECT:
 444:..\u8g2\csrc/mui_u8g2.c ****       {
 445:..\u8g2\csrc/mui_u8g2.c ****         uint8_t *value = (uint8_t *)muif_get_data(ui->uif);
 446:..\u8g2\csrc/mui_u8g2.c ****         if ( value != NULL )
 447:..\u8g2\csrc/mui_u8g2.c ****           *value = ui->arg;
 448:..\u8g2\csrc/mui_u8g2.c ****       }
 449:..\u8g2\csrc/mui_u8g2.c ****       mui_LeaveForm(ui);
 450:..\u8g2\csrc/mui_u8g2.c ****       return 1;
 451:..\u8g2\csrc/mui_u8g2.c ****     case MUIF_MSG_CURSOR_LEAVE:
 452:..\u8g2\csrc/mui_u8g2.c ****       break;
 453:..\u8g2\csrc/mui_u8g2.c ****     case MUIF_MSG_TOUCH_DOWN:
 454:..\u8g2\csrc/mui_u8g2.c ****       break;
 455:..\u8g2\csrc/mui_u8g2.c ****     case MUIF_MSG_TOUCH_UP:
 456:..\u8g2\csrc/mui_u8g2.c ****       break;    
 457:..\u8g2\csrc/mui_u8g2.c ****   }
 458:..\u8g2\csrc/mui_u8g2.c ****   return 0;
ARM GAS  C:\Users\brian\AppData\Local\Temp\ccwE2E8f.s 			page 12


 459:..\u8g2\csrc/mui_u8g2.c **** }
 460:..\u8g2\csrc/mui_u8g2.c **** 
 461:..\u8g2\csrc/mui_u8g2.c **** 
 462:..\u8g2\csrc/mui_u8g2.c **** uint8_t mui_u8g2_btn_goto_w1_pi(mui_t *ui, uint8_t msg)
 463:..\u8g2\csrc/mui_u8g2.c **** {
 464:..\u8g2\csrc/mui_u8g2.c ****   u8g2_t *u8g2 = mui_get_U8g2(ui);
 465:..\u8g2\csrc/mui_u8g2.c ****   switch(msg)
 466:..\u8g2\csrc/mui_u8g2.c ****   {
 467:..\u8g2\csrc/mui_u8g2.c ****     case MUIF_MSG_DRAW:
 468:..\u8g2\csrc/mui_u8g2.c ****       mui_u8g2_draw_button_pi(ui, u8g2_GetDisplayWidth(u8g2)-mui_get_x(ui)*2, mui_get_x(ui) , ui->t
 469:..\u8g2\csrc/mui_u8g2.c ****       //mui_u8g2_draw_button_utf(ui, mui_u8g2_get_pi_flags(ui), u8g2_GetDisplayWidth(u8g2)-mui_get_
 470:..\u8g2\csrc/mui_u8g2.c ****       break;
 471:..\u8g2\csrc/mui_u8g2.c ****     case MUIF_MSG_FORM_START:
 472:..\u8g2\csrc/mui_u8g2.c ****       break;
 473:..\u8g2\csrc/mui_u8g2.c ****     case MUIF_MSG_FORM_END:
 474:..\u8g2\csrc/mui_u8g2.c ****       break;
 475:..\u8g2\csrc/mui_u8g2.c ****     case MUIF_MSG_CURSOR_ENTER:
 476:..\u8g2\csrc/mui_u8g2.c ****       break;
 477:..\u8g2\csrc/mui_u8g2.c ****     case MUIF_MSG_CURSOR_SELECT:
 478:..\u8g2\csrc/mui_u8g2.c ****       return mui_GotoForm(ui, ui->arg, 0);
 479:..\u8g2\csrc/mui_u8g2.c ****     case MUIF_MSG_CURSOR_LEAVE:
 480:..\u8g2\csrc/mui_u8g2.c ****       break;
 481:..\u8g2\csrc/mui_u8g2.c ****     case MUIF_MSG_TOUCH_DOWN:
 482:..\u8g2\csrc/mui_u8g2.c ****       break;
 483:..\u8g2\csrc/mui_u8g2.c ****     case MUIF_MSG_TOUCH_UP:
 484:..\u8g2\csrc/mui_u8g2.c ****       break;    
 485:..\u8g2\csrc/mui_u8g2.c ****   }
 486:..\u8g2\csrc/mui_u8g2.c ****   return 0;
 487:..\u8g2\csrc/mui_u8g2.c **** }
 488:..\u8g2\csrc/mui_u8g2.c **** 
 489:..\u8g2\csrc/mui_u8g2.c **** 
 490:..\u8g2\csrc/mui_u8g2.c **** uint8_t mui_u8g2_btn_goto_w1_fi(mui_t *ui, uint8_t msg)
 491:..\u8g2\csrc/mui_u8g2.c **** {
 492:..\u8g2\csrc/mui_u8g2.c ****   u8g2_t *u8g2 = mui_get_U8g2(ui);
 493:..\u8g2\csrc/mui_u8g2.c ****   switch(msg)
 494:..\u8g2\csrc/mui_u8g2.c ****   {
 495:..\u8g2\csrc/mui_u8g2.c ****     case MUIF_MSG_DRAW:
 496:..\u8g2\csrc/mui_u8g2.c ****       mui_u8g2_draw_button_fi(ui, u8g2_GetDisplayWidth(u8g2)-mui_get_x(ui)*2, mui_get_x(ui)-1 , ui-
 497:..\u8g2\csrc/mui_u8g2.c ****       //mui_u8g2_draw_button_utf(ui, mui_u8g2_get_pi_flags(ui), u8g2_GetDisplayWidth(u8g2)-mui_get_
 498:..\u8g2\csrc/mui_u8g2.c ****       break;
 499:..\u8g2\csrc/mui_u8g2.c ****     case MUIF_MSG_FORM_START:
 500:..\u8g2\csrc/mui_u8g2.c ****       break;
 501:..\u8g2\csrc/mui_u8g2.c ****     case MUIF_MSG_FORM_END:
 502:..\u8g2\csrc/mui_u8g2.c ****       break;
 503:..\u8g2\csrc/mui_u8g2.c ****     case MUIF_MSG_CURSOR_ENTER:
 504:..\u8g2\csrc/mui_u8g2.c ****       break;
 505:..\u8g2\csrc/mui_u8g2.c ****     case MUIF_MSG_CURSOR_SELECT:
 506:..\u8g2\csrc/mui_u8g2.c ****       return mui_GotoForm(ui, ui->arg, 0);
 507:..\u8g2\csrc/mui_u8g2.c ****     case MUIF_MSG_CURSOR_LEAVE:
 508:..\u8g2\csrc/mui_u8g2.c ****       break;
 509:..\u8g2\csrc/mui_u8g2.c ****     case MUIF_MSG_TOUCH_DOWN:
 510:..\u8g2\csrc/mui_u8g2.c ****       break;
 511:..\u8g2\csrc/mui_u8g2.c ****     case MUIF_MSG_TOUCH_UP:
 512:..\u8g2\csrc/mui_u8g2.c ****       break;    
 513:..\u8g2\csrc/mui_u8g2.c ****   }
 514:..\u8g2\csrc/mui_u8g2.c ****   return 0;
 515:..\u8g2\csrc/mui_u8g2.c **** }
ARM GAS  C:\Users\brian\AppData\Local\Temp\ccwE2E8f.s 			page 13


 516:..\u8g2\csrc/mui_u8g2.c **** 
 517:..\u8g2\csrc/mui_u8g2.c **** /*===============================================================================*/
 518:..\u8g2\csrc/mui_u8g2.c **** 
 519:..\u8g2\csrc/mui_u8g2.c **** 
 520:..\u8g2\csrc/mui_u8g2.c **** static void mui_u8g2_u8_vmm_draw_wm_pi(mui_t *ui) MUI_NOINLINE;
 521:..\u8g2\csrc/mui_u8g2.c **** static void mui_u8g2_u8_vmm_draw_wm_pi(mui_t *ui)
 522:..\u8g2\csrc/mui_u8g2.c **** {
 523:..\u8g2\csrc/mui_u8g2.c ****   u8g2_t *u8g2 = mui_get_U8g2(ui);
 524:..\u8g2\csrc/mui_u8g2.c ****   mui_u8g2_u8_min_max_t *vmm= (mui_u8g2_u8_min_max_t *)muif_get_data(ui->uif);
 525:..\u8g2\csrc/mui_u8g2.c ****   char *s = "999";
 526:..\u8g2\csrc/mui_u8g2.c ****   uint8_t *value = mui_u8g2_u8mm_get_valptr(vmm);
 527:..\u8g2\csrc/mui_u8g2.c ****   uint8_t min = mui_u8g2_u8mm_get_min(vmm);
 528:..\u8g2\csrc/mui_u8g2.c ****   uint8_t max = mui_u8g2_u8mm_get_max(vmm);
 529:..\u8g2\csrc/mui_u8g2.c ****   uint8_t cnt = 3;
 530:..\u8g2\csrc/mui_u8g2.c ****   
 531:..\u8g2\csrc/mui_u8g2.c ****   if ( *value > max ) 
 532:..\u8g2\csrc/mui_u8g2.c ****     *value = max;
 533:..\u8g2\csrc/mui_u8g2.c ****   if ( *value <= min )
 534:..\u8g2\csrc/mui_u8g2.c ****     *value = min;
 535:..\u8g2\csrc/mui_u8g2.c ****   if ( max < 100 )
 536:..\u8g2\csrc/mui_u8g2.c ****   {
 537:..\u8g2\csrc/mui_u8g2.c ****     s++;
 538:..\u8g2\csrc/mui_u8g2.c ****     cnt--;
 539:..\u8g2\csrc/mui_u8g2.c ****   }
 540:..\u8g2\csrc/mui_u8g2.c ****   if ( max < 10 )
 541:..\u8g2\csrc/mui_u8g2.c ****   {
 542:..\u8g2\csrc/mui_u8g2.c ****     s++;
 543:..\u8g2\csrc/mui_u8g2.c ****     cnt--;
 544:..\u8g2\csrc/mui_u8g2.c ****   }
 545:..\u8g2\csrc/mui_u8g2.c ****   //mui_u8g2_draw_button_utf(ui, mui_u8g2_get_pi_flags(ui), u8g2_GetStrWidth(u8g2, s)+1, 1, MUI_U8G
 546:..\u8g2\csrc/mui_u8g2.c ****   mui_u8g2_draw_button_pi(ui, u8g2_GetStrWidth(u8g2, s)+1, 1, u8x8_u8toa(*value, cnt));
 547:..\u8g2\csrc/mui_u8g2.c **** }
 548:..\u8g2\csrc/mui_u8g2.c **** 
 549:..\u8g2\csrc/mui_u8g2.c **** 
 550:..\u8g2\csrc/mui_u8g2.c **** uint8_t mui_u8g2_u8_min_max_wm_mse_pi(mui_t *ui, uint8_t msg)
 551:..\u8g2\csrc/mui_u8g2.c **** {
 552:..\u8g2\csrc/mui_u8g2.c ****   mui_u8g2_u8_min_max_t *vmm= (mui_u8g2_u8_min_max_t *)muif_get_data(ui->uif);
 553:..\u8g2\csrc/mui_u8g2.c ****   uint8_t *value = mui_u8g2_u8mm_get_valptr(vmm);
 554:..\u8g2\csrc/mui_u8g2.c ****   uint8_t min = mui_u8g2_u8mm_get_min(vmm);
 555:..\u8g2\csrc/mui_u8g2.c ****   uint8_t max = mui_u8g2_u8mm_get_max(vmm);
 556:..\u8g2\csrc/mui_u8g2.c ****   switch(msg)
 557:..\u8g2\csrc/mui_u8g2.c ****   {
 558:..\u8g2\csrc/mui_u8g2.c ****     case MUIF_MSG_DRAW:
 559:..\u8g2\csrc/mui_u8g2.c ****       mui_u8g2_u8_vmm_draw_wm_pi(ui);
 560:..\u8g2\csrc/mui_u8g2.c ****       break;
 561:..\u8g2\csrc/mui_u8g2.c ****     case MUIF_MSG_FORM_START:
 562:..\u8g2\csrc/mui_u8g2.c ****       break;
 563:..\u8g2\csrc/mui_u8g2.c ****     case MUIF_MSG_FORM_END:
 564:..\u8g2\csrc/mui_u8g2.c ****       break;
 565:..\u8g2\csrc/mui_u8g2.c ****     case MUIF_MSG_CURSOR_ENTER:
 566:..\u8g2\csrc/mui_u8g2.c ****       break;
 567:..\u8g2\csrc/mui_u8g2.c ****     case MUIF_MSG_CURSOR_SELECT:
 568:..\u8g2\csrc/mui_u8g2.c ****       (*value)++;
 569:..\u8g2\csrc/mui_u8g2.c ****       if ( *value > max ) *value = min;
 570:..\u8g2\csrc/mui_u8g2.c ****       break;
 571:..\u8g2\csrc/mui_u8g2.c ****     case MUIF_MSG_CURSOR_LEAVE:
 572:..\u8g2\csrc/mui_u8g2.c ****       break;
ARM GAS  C:\Users\brian\AppData\Local\Temp\ccwE2E8f.s 			page 14


 573:..\u8g2\csrc/mui_u8g2.c ****     case MUIF_MSG_TOUCH_DOWN:
 574:..\u8g2\csrc/mui_u8g2.c ****       break;
 575:..\u8g2\csrc/mui_u8g2.c ****     case MUIF_MSG_TOUCH_UP:
 576:..\u8g2\csrc/mui_u8g2.c ****       break;
 577:..\u8g2\csrc/mui_u8g2.c ****   }
 578:..\u8g2\csrc/mui_u8g2.c ****   return 0;
 579:..\u8g2\csrc/mui_u8g2.c **** }
 580:..\u8g2\csrc/mui_u8g2.c **** 
 581:..\u8g2\csrc/mui_u8g2.c **** uint8_t mui_u8g2_u8_min_max_wm_mud_pi(mui_t *ui, uint8_t msg)
 582:..\u8g2\csrc/mui_u8g2.c **** {
 583:..\u8g2\csrc/mui_u8g2.c ****   mui_u8g2_u8_min_max_t *vmm= (mui_u8g2_u8_min_max_t *)muif_get_data(ui->uif);
 584:..\u8g2\csrc/mui_u8g2.c ****   uint8_t *value = mui_u8g2_u8mm_get_valptr(vmm);
 585:..\u8g2\csrc/mui_u8g2.c ****   uint8_t min = mui_u8g2_u8mm_get_min(vmm);
 586:..\u8g2\csrc/mui_u8g2.c ****   uint8_t max = mui_u8g2_u8mm_get_max(vmm);
 587:..\u8g2\csrc/mui_u8g2.c ****   switch(msg)
 588:..\u8g2\csrc/mui_u8g2.c ****   {
 589:..\u8g2\csrc/mui_u8g2.c ****     case MUIF_MSG_DRAW:
 590:..\u8g2\csrc/mui_u8g2.c ****       mui_u8g2_u8_vmm_draw_wm_pi(ui);
 591:..\u8g2\csrc/mui_u8g2.c ****       break;
 592:..\u8g2\csrc/mui_u8g2.c ****     case MUIF_MSG_FORM_START:
 593:..\u8g2\csrc/mui_u8g2.c ****       break;
 594:..\u8g2\csrc/mui_u8g2.c ****     case MUIF_MSG_FORM_END:
 595:..\u8g2\csrc/mui_u8g2.c ****       break;
 596:..\u8g2\csrc/mui_u8g2.c ****     case MUIF_MSG_CURSOR_ENTER:
 597:..\u8g2\csrc/mui_u8g2.c ****       break;
 598:..\u8g2\csrc/mui_u8g2.c ****     case MUIF_MSG_CURSOR_SELECT:
 599:..\u8g2\csrc/mui_u8g2.c ****       /* toggle between normal mode and capture next/prev mode */
 600:..\u8g2\csrc/mui_u8g2.c ****       ui->is_mud = !ui->is_mud;
 601:..\u8g2\csrc/mui_u8g2.c ****       break;
 602:..\u8g2\csrc/mui_u8g2.c ****     case MUIF_MSG_CURSOR_LEAVE:
 603:..\u8g2\csrc/mui_u8g2.c ****       break;
 604:..\u8g2\csrc/mui_u8g2.c ****     case MUIF_MSG_TOUCH_DOWN:
 605:..\u8g2\csrc/mui_u8g2.c ****       break;
 606:..\u8g2\csrc/mui_u8g2.c ****     case MUIF_MSG_TOUCH_UP:
 607:..\u8g2\csrc/mui_u8g2.c ****       break;
 608:..\u8g2\csrc/mui_u8g2.c ****     case MUIF_MSG_EVENT_NEXT:
 609:..\u8g2\csrc/mui_u8g2.c ****       if ( ui->is_mud )
 610:..\u8g2\csrc/mui_u8g2.c ****       {
 611:..\u8g2\csrc/mui_u8g2.c ****         (*value)++;
 612:..\u8g2\csrc/mui_u8g2.c ****         if ( *value > max )
 613:..\u8g2\csrc/mui_u8g2.c ****           *value = min;
 614:..\u8g2\csrc/mui_u8g2.c ****         return 1;
 615:..\u8g2\csrc/mui_u8g2.c ****       }
 616:..\u8g2\csrc/mui_u8g2.c ****       break;
 617:..\u8g2\csrc/mui_u8g2.c ****     case MUIF_MSG_EVENT_PREV:
 618:..\u8g2\csrc/mui_u8g2.c ****       if ( ui->is_mud )
 619:..\u8g2\csrc/mui_u8g2.c ****       {
 620:..\u8g2\csrc/mui_u8g2.c ****         if ( *value <= min )
 621:..\u8g2\csrc/mui_u8g2.c ****           *value = max;
 622:..\u8g2\csrc/mui_u8g2.c ****         else
 623:..\u8g2\csrc/mui_u8g2.c ****           (*value)--;
 624:..\u8g2\csrc/mui_u8g2.c ****         return 1;
 625:..\u8g2\csrc/mui_u8g2.c ****       }
 626:..\u8g2\csrc/mui_u8g2.c ****       break;
 627:..\u8g2\csrc/mui_u8g2.c ****   }
 628:..\u8g2\csrc/mui_u8g2.c ****   return 0;
 629:..\u8g2\csrc/mui_u8g2.c **** }
ARM GAS  C:\Users\brian\AppData\Local\Temp\ccwE2E8f.s 			page 15


 630:..\u8g2\csrc/mui_u8g2.c **** 
 631:..\u8g2\csrc/mui_u8g2.c **** 
 632:..\u8g2\csrc/mui_u8g2.c **** 
 633:..\u8g2\csrc/mui_u8g2.c **** static void mui_u8g2_u8_vmm_draw_wm_pf(mui_t *ui) MUI_NOINLINE;
 634:..\u8g2\csrc/mui_u8g2.c **** static void mui_u8g2_u8_vmm_draw_wm_pf(mui_t *ui)
 635:..\u8g2\csrc/mui_u8g2.c **** {
 636:..\u8g2\csrc/mui_u8g2.c ****   u8g2_t *u8g2 = mui_get_U8g2(ui);
 637:..\u8g2\csrc/mui_u8g2.c ****   mui_u8g2_u8_min_max_t *vmm= (mui_u8g2_u8_min_max_t *)muif_get_data(ui->uif);
 638:..\u8g2\csrc/mui_u8g2.c ****   char *s = "999";
 639:..\u8g2\csrc/mui_u8g2.c ****   uint8_t *value = mui_u8g2_u8mm_get_valptr(vmm);
 640:..\u8g2\csrc/mui_u8g2.c ****   uint8_t min = mui_u8g2_u8mm_get_min(vmm);
 641:..\u8g2\csrc/mui_u8g2.c ****   uint8_t max = mui_u8g2_u8mm_get_max(vmm);
 642:..\u8g2\csrc/mui_u8g2.c ****   uint8_t cnt = 3;
 643:..\u8g2\csrc/mui_u8g2.c ****   
 644:..\u8g2\csrc/mui_u8g2.c ****   if ( *value > max ) 
 645:..\u8g2\csrc/mui_u8g2.c ****     *value = max;
 646:..\u8g2\csrc/mui_u8g2.c ****   if ( *value <= min )
 647:..\u8g2\csrc/mui_u8g2.c ****     *value = min;
 648:..\u8g2\csrc/mui_u8g2.c ****   if ( max < 100 )
 649:..\u8g2\csrc/mui_u8g2.c ****   {
 650:..\u8g2\csrc/mui_u8g2.c ****     s++;
 651:..\u8g2\csrc/mui_u8g2.c ****     cnt--;
 652:..\u8g2\csrc/mui_u8g2.c ****   }
 653:..\u8g2\csrc/mui_u8g2.c ****   if ( max < 10 )
 654:..\u8g2\csrc/mui_u8g2.c ****   {
 655:..\u8g2\csrc/mui_u8g2.c ****     s++;
 656:..\u8g2\csrc/mui_u8g2.c ****     cnt--;
 657:..\u8g2\csrc/mui_u8g2.c ****   }
 658:..\u8g2\csrc/mui_u8g2.c ****   //mui_u8g2_draw_button_utf(ui, mui_u8g2_get_pi_flags(ui), u8g2_GetStrWidth(u8g2, s)+1, 1, MUI_U8G
 659:..\u8g2\csrc/mui_u8g2.c ****   mui_u8g2_draw_button_pf(ui, u8g2_GetStrWidth(u8g2, s)+1, 1, u8x8_u8toa(*value, cnt));
 660:..\u8g2\csrc/mui_u8g2.c **** }
 661:..\u8g2\csrc/mui_u8g2.c **** 
 662:..\u8g2\csrc/mui_u8g2.c **** 
 663:..\u8g2\csrc/mui_u8g2.c **** uint8_t mui_u8g2_u8_min_max_wm_mse_pf(mui_t *ui, uint8_t msg)
 664:..\u8g2\csrc/mui_u8g2.c **** {
 665:..\u8g2\csrc/mui_u8g2.c ****   mui_u8g2_u8_min_max_t *vmm= (mui_u8g2_u8_min_max_t *)muif_get_data(ui->uif);
 666:..\u8g2\csrc/mui_u8g2.c ****   uint8_t *value = mui_u8g2_u8mm_get_valptr(vmm);
 667:..\u8g2\csrc/mui_u8g2.c ****   uint8_t min = mui_u8g2_u8mm_get_min(vmm);
 668:..\u8g2\csrc/mui_u8g2.c ****   uint8_t max = mui_u8g2_u8mm_get_max(vmm);
 669:..\u8g2\csrc/mui_u8g2.c ****   switch(msg)
 670:..\u8g2\csrc/mui_u8g2.c ****   {
 671:..\u8g2\csrc/mui_u8g2.c ****     case MUIF_MSG_DRAW:
 672:..\u8g2\csrc/mui_u8g2.c ****       mui_u8g2_u8_vmm_draw_wm_pf(ui);
 673:..\u8g2\csrc/mui_u8g2.c ****       break;
 674:..\u8g2\csrc/mui_u8g2.c ****     case MUIF_MSG_FORM_START:
 675:..\u8g2\csrc/mui_u8g2.c ****       break;
 676:..\u8g2\csrc/mui_u8g2.c ****     case MUIF_MSG_FORM_END:
 677:..\u8g2\csrc/mui_u8g2.c ****       break;
 678:..\u8g2\csrc/mui_u8g2.c ****     case MUIF_MSG_CURSOR_ENTER:
 679:..\u8g2\csrc/mui_u8g2.c ****       break;
 680:..\u8g2\csrc/mui_u8g2.c ****     case MUIF_MSG_CURSOR_SELECT:
 681:..\u8g2\csrc/mui_u8g2.c ****       (*value)++;
 682:..\u8g2\csrc/mui_u8g2.c ****       if ( *value > max ) *value = min;
 683:..\u8g2\csrc/mui_u8g2.c ****       break;
 684:..\u8g2\csrc/mui_u8g2.c ****     case MUIF_MSG_CURSOR_LEAVE:
 685:..\u8g2\csrc/mui_u8g2.c ****       break;
 686:..\u8g2\csrc/mui_u8g2.c ****     case MUIF_MSG_TOUCH_DOWN:
ARM GAS  C:\Users\brian\AppData\Local\Temp\ccwE2E8f.s 			page 16


 687:..\u8g2\csrc/mui_u8g2.c ****       break;
 688:..\u8g2\csrc/mui_u8g2.c ****     case MUIF_MSG_TOUCH_UP:
 689:..\u8g2\csrc/mui_u8g2.c ****       break;
 690:..\u8g2\csrc/mui_u8g2.c ****   }
 691:..\u8g2\csrc/mui_u8g2.c ****   return 0;
 692:..\u8g2\csrc/mui_u8g2.c **** }
 693:..\u8g2\csrc/mui_u8g2.c **** 
 694:..\u8g2\csrc/mui_u8g2.c **** uint8_t mui_u8g2_u8_min_max_wm_mud_pf(mui_t *ui, uint8_t msg)
 695:..\u8g2\csrc/mui_u8g2.c **** {
 696:..\u8g2\csrc/mui_u8g2.c ****   mui_u8g2_u8_min_max_t *vmm= (mui_u8g2_u8_min_max_t *)muif_get_data(ui->uif);
 697:..\u8g2\csrc/mui_u8g2.c ****   uint8_t *value = mui_u8g2_u8mm_get_valptr(vmm);
 698:..\u8g2\csrc/mui_u8g2.c ****   uint8_t min = mui_u8g2_u8mm_get_min(vmm);
 699:..\u8g2\csrc/mui_u8g2.c ****   uint8_t max = mui_u8g2_u8mm_get_max(vmm);
 700:..\u8g2\csrc/mui_u8g2.c ****   switch(msg)
 701:..\u8g2\csrc/mui_u8g2.c ****   {
 702:..\u8g2\csrc/mui_u8g2.c ****     case MUIF_MSG_DRAW:
 703:..\u8g2\csrc/mui_u8g2.c ****       mui_u8g2_u8_vmm_draw_wm_pf(ui);
 704:..\u8g2\csrc/mui_u8g2.c ****       break;
 705:..\u8g2\csrc/mui_u8g2.c ****     case MUIF_MSG_FORM_START:
 706:..\u8g2\csrc/mui_u8g2.c ****       break;
 707:..\u8g2\csrc/mui_u8g2.c ****     case MUIF_MSG_FORM_END:
 708:..\u8g2\csrc/mui_u8g2.c ****       break;
 709:..\u8g2\csrc/mui_u8g2.c ****     case MUIF_MSG_CURSOR_ENTER:
 710:..\u8g2\csrc/mui_u8g2.c ****       break;
 711:..\u8g2\csrc/mui_u8g2.c ****     case MUIF_MSG_CURSOR_SELECT:
 712:..\u8g2\csrc/mui_u8g2.c ****       /* toggle between normal mode and capture next/prev mode */
 713:..\u8g2\csrc/mui_u8g2.c ****       ui->is_mud = !ui->is_mud;
 714:..\u8g2\csrc/mui_u8g2.c ****       break;
 715:..\u8g2\csrc/mui_u8g2.c ****     case MUIF_MSG_CURSOR_LEAVE:
 716:..\u8g2\csrc/mui_u8g2.c ****       break;
 717:..\u8g2\csrc/mui_u8g2.c ****     case MUIF_MSG_TOUCH_DOWN:
 718:..\u8g2\csrc/mui_u8g2.c ****       break;
 719:..\u8g2\csrc/mui_u8g2.c ****     case MUIF_MSG_TOUCH_UP:
 720:..\u8g2\csrc/mui_u8g2.c ****       break;
 721:..\u8g2\csrc/mui_u8g2.c ****     case MUIF_MSG_EVENT_NEXT:
 722:..\u8g2\csrc/mui_u8g2.c ****       if ( ui->is_mud )
 723:..\u8g2\csrc/mui_u8g2.c ****       {
 724:..\u8g2\csrc/mui_u8g2.c ****         (*value)++;
 725:..\u8g2\csrc/mui_u8g2.c ****         if ( *value > max )
 726:..\u8g2\csrc/mui_u8g2.c ****           *value = min;
 727:..\u8g2\csrc/mui_u8g2.c ****         return 1;
 728:..\u8g2\csrc/mui_u8g2.c ****       }
 729:..\u8g2\csrc/mui_u8g2.c ****       break;
 730:..\u8g2\csrc/mui_u8g2.c ****     case MUIF_MSG_EVENT_PREV:
 731:..\u8g2\csrc/mui_u8g2.c ****       if ( ui->is_mud )
 732:..\u8g2\csrc/mui_u8g2.c ****       {
 733:..\u8g2\csrc/mui_u8g2.c ****         if ( *value <= min )
 734:..\u8g2\csrc/mui_u8g2.c ****           *value = max;
 735:..\u8g2\csrc/mui_u8g2.c ****         else
 736:..\u8g2\csrc/mui_u8g2.c ****           (*value)--;
 737:..\u8g2\csrc/mui_u8g2.c ****         return 1;
 738:..\u8g2\csrc/mui_u8g2.c ****       }
 739:..\u8g2\csrc/mui_u8g2.c ****       break;
 740:..\u8g2\csrc/mui_u8g2.c ****   }
 741:..\u8g2\csrc/mui_u8g2.c ****   return 0;
 742:..\u8g2\csrc/mui_u8g2.c **** }
 743:..\u8g2\csrc/mui_u8g2.c **** 
ARM GAS  C:\Users\brian\AppData\Local\Temp\ccwE2E8f.s 			page 17


 744:..\u8g2\csrc/mui_u8g2.c **** 
 745:..\u8g2\csrc/mui_u8g2.c **** /*===============================================================================*/
 746:..\u8g2\csrc/mui_u8g2.c **** 
 747:..\u8g2\csrc/mui_u8g2.c **** static uint8_t mui_is_valid_char(uint8_t c) MUI_NOINLINE;
 748:..\u8g2\csrc/mui_u8g2.c **** uint8_t mui_is_valid_char(uint8_t c)
 749:..\u8g2\csrc/mui_u8g2.c **** {
 163              		.loc 1 749 0
 164              		.cfi_startproc
 165              		@ args = 0, pretend = 0, frame = 0
 166              		@ frame_needed = 0, uses_anonymous_args = 0
 167              		@ link register save eliminated.
 168              	.LVL28:
 750:..\u8g2\csrc/mui_u8g2.c ****   if ( c == 32 )
 169              		.loc 1 750 0
 170 0000 2028     		cmp	r0, #32
 171 0002 0FD0     		beq	.L17
 751:..\u8g2\csrc/mui_u8g2.c ****     return 1;
 752:..\u8g2\csrc/mui_u8g2.c ****   if ( c >= 'A' && c <= 'Z' )
 172              		.loc 1 752 0
 173 0004 A0F14103 		sub	r3, r0, #65
 174 0008 DBB2     		uxtb	r3, r3
 175 000a 192B     		cmp	r3, #25
 176 000c 0CD9     		bls	.L18
 753:..\u8g2\csrc/mui_u8g2.c ****     return 1;
 754:..\u8g2\csrc/mui_u8g2.c ****   if ( c >= 'a' && c <= 'z' )
 177              		.loc 1 754 0
 178 000e A0F16103 		sub	r3, r0, #97
 179 0012 DBB2     		uxtb	r3, r3
 180 0014 192B     		cmp	r3, #25
 181 0016 09D9     		bls	.L19
 755:..\u8g2\csrc/mui_u8g2.c ****     return 1;
 756:..\u8g2\csrc/mui_u8g2.c ****   if ( c >= '0' && c <= '9' )
 182              		.loc 1 756 0
 183 0018 3038     		subs	r0, r0, #48
 184              	.LVL29:
 185 001a C0B2     		uxtb	r0, r0
 186 001c 0928     		cmp	r0, #9
 187 001e 07D8     		bhi	.L20
 757:..\u8g2\csrc/mui_u8g2.c ****     return 1;
 188              		.loc 1 757 0
 189 0020 0120     		movs	r0, #1
 190 0022 7047     		bx	lr
 191              	.LVL30:
 192              	.L17:
 751:..\u8g2\csrc/mui_u8g2.c ****   if ( c >= 'A' && c <= 'Z' )
 193              		.loc 1 751 0
 194 0024 0120     		movs	r0, #1
 195              	.LVL31:
 196 0026 7047     		bx	lr
 197              	.LVL32:
 198              	.L18:
 753:..\u8g2\csrc/mui_u8g2.c ****   if ( c >= 'a' && c <= 'z' )
 199              		.loc 1 753 0
 200 0028 0120     		movs	r0, #1
 201              	.LVL33:
 202 002a 7047     		bx	lr
 203              	.LVL34:
ARM GAS  C:\Users\brian\AppData\Local\Temp\ccwE2E8f.s 			page 18


 204              	.L19:
 755:..\u8g2\csrc/mui_u8g2.c ****   if ( c >= '0' && c <= '9' )
 205              		.loc 1 755 0
 206 002c 0120     		movs	r0, #1
 207              	.LVL35:
 208 002e 7047     		bx	lr
 209              	.L20:
 758:..\u8g2\csrc/mui_u8g2.c ****   return 0;
 210              		.loc 1 758 0
 211 0030 0020     		movs	r0, #0
 759:..\u8g2\csrc/mui_u8g2.c **** }
 212              		.loc 1 759 0
 213 0032 7047     		bx	lr
 214              		.cfi_endproc
 215              	.LFE25:
 216              		.size	mui_is_valid_char, .-mui_is_valid_char
 217              		.section	.text.u8g2_DrawCheckbox,"ax",%progbits
 218              		.align	2
 219              		.thumb
 220              		.thumb_func
 221              		.type	u8g2_DrawCheckbox, %function
 222              	u8g2_DrawCheckbox:
 223              	.LFB0:
 140:..\u8g2\csrc/mui_u8g2.c ****   u8g2_DrawFrame(u8g2, x, y-w, w, w);
 224              		.loc 1 140 0
 225              		.cfi_startproc
 226              		@ args = 4, pretend = 0, frame = 0
 227              		@ frame_needed = 0, uses_anonymous_args = 0
 228              	.LVL36:
 229 0000 2DE9F041 		push	{r4, r5, r6, r7, r8, lr}
 230              		.cfi_def_cfa_offset 24
 231              		.cfi_offset 4, -24
 232              		.cfi_offset 5, -20
 233              		.cfi_offset 6, -16
 234              		.cfi_offset 7, -12
 235              		.cfi_offset 8, -8
 236              		.cfi_offset 14, -4
 237 0004 82B0     		sub	sp, sp, #8
 238              		.cfi_def_cfa_offset 32
 239 0006 8046     		mov	r8, r0
 240 0008 0E46     		mov	r6, r1
 241 000a 1546     		mov	r5, r2
 242 000c 1C46     		mov	r4, r3
 243 000e BDF82070 		ldrh	r7, [sp, #32]
 141:..\u8g2\csrc/mui_u8g2.c ****   if ( is_checked )
 244              		.loc 1 141 0
 245 0012 D21A     		subs	r2, r2, r3
 246              	.LVL37:
 247 0014 0093     		str	r3, [sp]
 248 0016 92B2     		uxth	r2, r2
 249 0018 FFF7FEFF 		bl	u8g2_DrawFrame
 250              	.LVL38:
 142:..\u8g2\csrc/mui_u8g2.c ****   {
 251              		.loc 1 142 0
 252 001c 57B1     		cbz	r7, .L21
 144:..\u8g2\csrc/mui_u8g2.c ****     u8g2_DrawBox(u8g2, x+2, y-w-2, w, w);
 253              		.loc 1 144 0
ARM GAS  C:\Users\brian\AppData\Local\Temp\ccwE2E8f.s 			page 19


 254 001e 231F     		subs	r3, r4, #4
 255 0020 9BB2     		uxth	r3, r3
 256              	.LVL39:
 145:..\u8g2\csrc/mui_u8g2.c ****   }
 257              		.loc 1 145 0
 258 0022 EA1A     		subs	r2, r5, r3
 259 0024 023A     		subs	r2, r2, #2
 260 0026 B11C     		adds	r1, r6, #2
 261 0028 0093     		str	r3, [sp]
 262 002a 92B2     		uxth	r2, r2
 263 002c 89B2     		uxth	r1, r1
 264 002e 4046     		mov	r0, r8
 265 0030 FFF7FEFF 		bl	u8g2_DrawBox
 266              	.LVL40:
 267              	.L21:
 147:..\u8g2\csrc/mui_u8g2.c **** 
 268              		.loc 1 147 0
 269 0034 02B0     		add	sp, sp, #8
 270              		.cfi_def_cfa_offset 24
 271              		@ sp needed
 272 0036 BDE8F081 		pop	{r4, r5, r6, r7, r8, pc}
 273              		.cfi_endproc
 274              	.LFE0:
 275              		.size	u8g2_DrawCheckbox, .-u8g2_DrawCheckbox
 276 003a 00BF     		.section	.text.u8g2_DrawValueMark,"ax",%progbits
 277              		.align	2
 278              		.thumb
 279              		.thumb_func
 280              		.type	u8g2_DrawValueMark, %function
 281              	u8g2_DrawValueMark:
 282              	.LFB1:
 150:..\u8g2\csrc/mui_u8g2.c ****   u8g2_DrawBox(u8g2, x, y-w, w, w);
 283              		.loc 1 150 0
 284              		.cfi_startproc
 285              		@ args = 0, pretend = 0, frame = 0
 286              		@ frame_needed = 0, uses_anonymous_args = 0
 287              	.LVL41:
 288 0000 10B5     		push	{r4, lr}
 289              		.cfi_def_cfa_offset 8
 290              		.cfi_offset 4, -8
 291              		.cfi_offset 14, -4
 292 0002 82B0     		sub	sp, sp, #8
 293              		.cfi_def_cfa_offset 16
 151:..\u8g2\csrc/mui_u8g2.c **** }
 294              		.loc 1 151 0
 295 0004 D21A     		subs	r2, r2, r3
 296              	.LVL42:
 297 0006 0093     		str	r3, [sp]
 298 0008 92B2     		uxth	r2, r2
 299 000a FFF7FEFF 		bl	u8g2_DrawBox
 300              	.LVL43:
 152:..\u8g2\csrc/mui_u8g2.c **** 
 301              		.loc 1 152 0
 302 000e 02B0     		add	sp, sp, #8
 303              		.cfi_def_cfa_offset 8
 304              		@ sp needed
 305 0010 10BD     		pop	{r4, pc}
ARM GAS  C:\Users\brian\AppData\Local\Temp\ccwE2E8f.s 			page 20


 306              		.cfi_endproc
 307              	.LFE1:
 308              		.size	u8g2_DrawValueMark, .-u8g2_DrawValueMark
 309 0012 00BF     		.section	.text.mui_u8g2_u16_list_child_mse_common,"ax",%progbits
 310              		.align	2
 311              		.thumb
 312              		.thumb_func
 313              		.type	mui_u8g2_u16_list_child_mse_common, %function
 314              	mui_u8g2_u16_list_child_mse_common:
 315              	.LFB41:
 760:..\u8g2\csrc/mui_u8g2.c **** 
 761:..\u8g2\csrc/mui_u8g2.c **** 
 762:..\u8g2\csrc/mui_u8g2.c **** 
 763:..\u8g2\csrc/mui_u8g2.c **** uint8_t mui_u8g2_u8_char_wm_mud_pi(mui_t *ui, uint8_t msg)
 764:..\u8g2\csrc/mui_u8g2.c **** {
 765:..\u8g2\csrc/mui_u8g2.c ****   //ui->dflags                          MUIF_DFLAG_IS_CURSOR_FOCUS       MUIF_DFLAG_IS_TOUCH_FOCUS
 766:..\u8g2\csrc/mui_u8g2.c ****   //mui_get_cflags(ui->uif)       MUIF_CFLAG_IS_CURSOR_SELECTABLE
 767:..\u8g2\csrc/mui_u8g2.c ****   u8g2_t *u8g2 = mui_get_U8g2(ui);
 768:..\u8g2\csrc/mui_u8g2.c ****   uint8_t *value = (uint8_t *)muif_get_data(ui->uif);
 769:..\u8g2\csrc/mui_u8g2.c ****   char buf[6];
 770:..\u8g2\csrc/mui_u8g2.c ****   switch(msg)
 771:..\u8g2\csrc/mui_u8g2.c ****   {
 772:..\u8g2\csrc/mui_u8g2.c ****     case MUIF_MSG_DRAW:
 773:..\u8g2\csrc/mui_u8g2.c ****       while( mui_is_valid_char(*value) == 0 )
 774:..\u8g2\csrc/mui_u8g2.c ****           (*value)++;
 775:..\u8g2\csrc/mui_u8g2.c ****       buf[0] = *value;
 776:..\u8g2\csrc/mui_u8g2.c ****       buf[1] = '\0';
 777:..\u8g2\csrc/mui_u8g2.c ****       mui_u8g2_draw_button_pi(ui, u8g2_GetMaxCharWidth(u8g2), 1, buf);
 778:..\u8g2\csrc/mui_u8g2.c ****       //mui_u8g2_draw_button_utf(ui, mui_u8g2_get_pi_flags(ui), u8g2_GetMaxCharWidth(u8g2), 1, MUI_
 779:..\u8g2\csrc/mui_u8g2.c ****       //u8g2_DrawButtonUTF8(u8g2, mui_get_x(ui), mui_get_y(ui), mui_u8g2_get_pi_flags(ui), u8g2_Get
 780:..\u8g2\csrc/mui_u8g2.c ****       break;
 781:..\u8g2\csrc/mui_u8g2.c ****     case MUIF_MSG_FORM_START:
 782:..\u8g2\csrc/mui_u8g2.c ****       break;
 783:..\u8g2\csrc/mui_u8g2.c ****     case MUIF_MSG_FORM_END:
 784:..\u8g2\csrc/mui_u8g2.c ****       break;
 785:..\u8g2\csrc/mui_u8g2.c ****     case MUIF_MSG_CURSOR_ENTER:
 786:..\u8g2\csrc/mui_u8g2.c ****       break;
 787:..\u8g2\csrc/mui_u8g2.c ****     case MUIF_MSG_CURSOR_SELECT:
 788:..\u8g2\csrc/mui_u8g2.c ****       /* toggle between normal mode and capture next/prev mode */
 789:..\u8g2\csrc/mui_u8g2.c ****        ui->is_mud = !ui->is_mud;
 790:..\u8g2\csrc/mui_u8g2.c ****      break;
 791:..\u8g2\csrc/mui_u8g2.c ****     case MUIF_MSG_CURSOR_LEAVE:
 792:..\u8g2\csrc/mui_u8g2.c ****       break;
 793:..\u8g2\csrc/mui_u8g2.c ****     case MUIF_MSG_TOUCH_DOWN:
 794:..\u8g2\csrc/mui_u8g2.c ****       break;
 795:..\u8g2\csrc/mui_u8g2.c ****     case MUIF_MSG_TOUCH_UP:
 796:..\u8g2\csrc/mui_u8g2.c ****       break;
 797:..\u8g2\csrc/mui_u8g2.c ****     case MUIF_MSG_EVENT_NEXT:
 798:..\u8g2\csrc/mui_u8g2.c ****       if ( ui->is_mud )
 799:..\u8g2\csrc/mui_u8g2.c ****       {
 800:..\u8g2\csrc/mui_u8g2.c ****         do {
 801:..\u8g2\csrc/mui_u8g2.c ****           (*value)++;
 802:..\u8g2\csrc/mui_u8g2.c ****         } while( mui_is_valid_char(*value) == 0 );
 803:..\u8g2\csrc/mui_u8g2.c ****         return 1;
 804:..\u8g2\csrc/mui_u8g2.c ****       }
 805:..\u8g2\csrc/mui_u8g2.c ****       break;
 806:..\u8g2\csrc/mui_u8g2.c ****     case MUIF_MSG_EVENT_PREV:
ARM GAS  C:\Users\brian\AppData\Local\Temp\ccwE2E8f.s 			page 21


 807:..\u8g2\csrc/mui_u8g2.c ****       if ( ui->is_mud )
 808:..\u8g2\csrc/mui_u8g2.c ****       {
 809:..\u8g2\csrc/mui_u8g2.c ****         do {
 810:..\u8g2\csrc/mui_u8g2.c ****           (*value)--;
 811:..\u8g2\csrc/mui_u8g2.c ****         } while( mui_is_valid_char(*value) == 0 );
 812:..\u8g2\csrc/mui_u8g2.c ****         return 1;
 813:..\u8g2\csrc/mui_u8g2.c ****       }
 814:..\u8g2\csrc/mui_u8g2.c ****       break;
 815:..\u8g2\csrc/mui_u8g2.c ****   }
 816:..\u8g2\csrc/mui_u8g2.c ****   return 0;
 817:..\u8g2\csrc/mui_u8g2.c **** }
 818:..\u8g2\csrc/mui_u8g2.c **** 
 819:..\u8g2\csrc/mui_u8g2.c **** 
 820:..\u8g2\csrc/mui_u8g2.c **** 
 821:..\u8g2\csrc/mui_u8g2.c **** 
 822:..\u8g2\csrc/mui_u8g2.c **** 
 823:..\u8g2\csrc/mui_u8g2.c **** /*
 824:..\u8g2\csrc/mui_u8g2.c **** 
 825:..\u8g2\csrc/mui_u8g2.c ****   uint8_t mui_u8g2_u8_opt_line_wa_mse_pi(mui_t *ui, uint8_t msg)
 826:..\u8g2\csrc/mui_u8g2.c **** 
 827:..\u8g2\csrc/mui_u8g2.c ****   Description:
 828:..\u8g2\csrc/mui_u8g2.c ****     Select one of several options. First option has value 0.
 829:..\u8g2\csrc/mui_u8g2.c ****     Only one option is visible.
 830:..\u8g2\csrc/mui_u8g2.c ****     The visible option is automatically the selected option.
 831:..\u8g2\csrc/mui_u8g2.c **** 
 832:..\u8g2\csrc/mui_u8g2.c ****   Message Handling: DRAW, SELECT
 833:..\u8g2\csrc/mui_u8g2.c **** 
 834:..\u8g2\csrc/mui_u8g2.c ****   Style
 835:..\u8g2\csrc/mui_u8g2.c ****     No Selection: Text only
 836:..\u8g2\csrc/mui_u8g2.c ****     Cursor Selection: Inverted text
 837:..\u8g2\csrc/mui_u8g2.c **** 
 838:..\u8g2\csrc/mui_u8g2.c ****   User interface field list (muif):
 839:..\u8g2\csrc/mui_u8g2.c ****     flags: MUIF_CFLAG_IS_CURSOR_SELECTABLE
 840:..\u8g2\csrc/mui_u8g2.c ****     data: uint8_t *, pointer to a uint8_t variable, which contains the selected option 
 841:..\u8g2\csrc/mui_u8g2.c **** 
 842:..\u8g2\csrc/mui_u8g2.c ****   Field definition string (fds):
 843:..\u8g2\csrc/mui_u8g2.c ****     xy: Left position of the text (required)
 844:..\u8g2\csrc/mui_u8g2.c ****     arg: total width of the selectable option (optional), 
 845:..\u8g2\csrc/mui_u8g2.c ****     text: '|' separated list of options
 846:..\u8g2\csrc/mui_u8g2.c ****     
 847:..\u8g2\csrc/mui_u8g2.c **** */
 848:..\u8g2\csrc/mui_u8g2.c **** uint8_t mui_u8g2_u8_opt_line_wa_mse_pi(mui_t *ui, uint8_t msg)
 849:..\u8g2\csrc/mui_u8g2.c **** {
 850:..\u8g2\csrc/mui_u8g2.c ****   //u8g2_t *u8g2 = mui_get_U8g2(ui);
 851:..\u8g2\csrc/mui_u8g2.c ****   uint8_t *value = (uint8_t *)muif_get_data(ui->uif);
 852:..\u8g2\csrc/mui_u8g2.c ****   switch(msg)
 853:..\u8g2\csrc/mui_u8g2.c ****   {
 854:..\u8g2\csrc/mui_u8g2.c ****     case MUIF_MSG_DRAW:
 855:..\u8g2\csrc/mui_u8g2.c ****       if ( mui_fds_get_nth_token(ui, *value) == 0 )
 856:..\u8g2\csrc/mui_u8g2.c ****       {
 857:..\u8g2\csrc/mui_u8g2.c ****         *value = 0;
 858:..\u8g2\csrc/mui_u8g2.c ****         mui_fds_get_nth_token(ui, *value);
 859:..\u8g2\csrc/mui_u8g2.c ****       }
 860:..\u8g2\csrc/mui_u8g2.c ****       mui_u8g2_draw_button_pi(ui, ui->arg, 1, ui->text);
 861:..\u8g2\csrc/mui_u8g2.c ****       //mui_u8g2_draw_button_utf(ui, mui_u8g2_get_pi_flags(ui), ui->arg, 1, MUI_U8G2_V_PADDING, ui-
 862:..\u8g2\csrc/mui_u8g2.c ****       //u8g2_DrawButtonUTF8(u8g2, mui_get_x(ui), mui_get_y(ui), mui_u8g2_get_pi_flags(ui), ui->arg,
 863:..\u8g2\csrc/mui_u8g2.c ****       
ARM GAS  C:\Users\brian\AppData\Local\Temp\ccwE2E8f.s 			page 22


 864:..\u8g2\csrc/mui_u8g2.c ****       break;
 865:..\u8g2\csrc/mui_u8g2.c ****     case MUIF_MSG_FORM_START:
 866:..\u8g2\csrc/mui_u8g2.c ****       break;
 867:..\u8g2\csrc/mui_u8g2.c ****     case MUIF_MSG_FORM_END:
 868:..\u8g2\csrc/mui_u8g2.c ****       break;
 869:..\u8g2\csrc/mui_u8g2.c ****     case MUIF_MSG_CURSOR_ENTER:
 870:..\u8g2\csrc/mui_u8g2.c ****       break;
 871:..\u8g2\csrc/mui_u8g2.c ****     case MUIF_MSG_CURSOR_SELECT:
 872:..\u8g2\csrc/mui_u8g2.c ****       (*value)++;
 873:..\u8g2\csrc/mui_u8g2.c ****       if ( mui_fds_get_nth_token(ui, *value) == 0 ) 
 874:..\u8g2\csrc/mui_u8g2.c ****         *value = 0;      
 875:..\u8g2\csrc/mui_u8g2.c ****       break;
 876:..\u8g2\csrc/mui_u8g2.c ****     case MUIF_MSG_CURSOR_LEAVE:
 877:..\u8g2\csrc/mui_u8g2.c ****       break;
 878:..\u8g2\csrc/mui_u8g2.c ****     case MUIF_MSG_TOUCH_DOWN:
 879:..\u8g2\csrc/mui_u8g2.c ****       break;
 880:..\u8g2\csrc/mui_u8g2.c ****     case MUIF_MSG_TOUCH_UP:
 881:..\u8g2\csrc/mui_u8g2.c ****       break;
 882:..\u8g2\csrc/mui_u8g2.c ****   }
 883:..\u8g2\csrc/mui_u8g2.c ****   return 0;
 884:..\u8g2\csrc/mui_u8g2.c **** }
 885:..\u8g2\csrc/mui_u8g2.c ****    
 886:..\u8g2\csrc/mui_u8g2.c **** uint8_t mui_u8g2_u8_opt_line_wa_mud_pi(mui_t *ui, uint8_t msg)
 887:..\u8g2\csrc/mui_u8g2.c **** {
 888:..\u8g2\csrc/mui_u8g2.c ****   //u8g2_t *u8g2 = mui_get_U8g2(ui);
 889:..\u8g2\csrc/mui_u8g2.c ****   uint8_t *value = (uint8_t *)muif_get_data(ui->uif);
 890:..\u8g2\csrc/mui_u8g2.c ****   switch(msg)
 891:..\u8g2\csrc/mui_u8g2.c ****   {
 892:..\u8g2\csrc/mui_u8g2.c ****     case MUIF_MSG_DRAW:
 893:..\u8g2\csrc/mui_u8g2.c ****       if ( mui_fds_get_nth_token(ui, *value) == 0 )
 894:..\u8g2\csrc/mui_u8g2.c ****       {
 895:..\u8g2\csrc/mui_u8g2.c ****         *value = 0;
 896:..\u8g2\csrc/mui_u8g2.c ****         mui_fds_get_nth_token(ui, *value);
 897:..\u8g2\csrc/mui_u8g2.c ****       }
 898:..\u8g2\csrc/mui_u8g2.c ****       mui_u8g2_draw_button_pi(ui, ui->arg, 1, ui->text);
 899:..\u8g2\csrc/mui_u8g2.c ****       //mui_u8g2_draw_button_utf(ui, mui_u8g2_get_pi_flags(ui), ui->arg, 1, MUI_U8G2_V_PADDING, ui-
 900:..\u8g2\csrc/mui_u8g2.c ****       //u8g2_DrawButtonUTF8(u8g2, mui_get_x(ui), mui_get_y(ui), mui_u8g2_get_pi_flags(ui), ui->arg,
 901:..\u8g2\csrc/mui_u8g2.c ****       
 902:..\u8g2\csrc/mui_u8g2.c ****       break;
 903:..\u8g2\csrc/mui_u8g2.c ****     case MUIF_MSG_FORM_START:
 904:..\u8g2\csrc/mui_u8g2.c ****       break;
 905:..\u8g2\csrc/mui_u8g2.c ****     case MUIF_MSG_FORM_END:
 906:..\u8g2\csrc/mui_u8g2.c ****       break;
 907:..\u8g2\csrc/mui_u8g2.c ****     case MUIF_MSG_CURSOR_ENTER:
 908:..\u8g2\csrc/mui_u8g2.c ****       break;
 909:..\u8g2\csrc/mui_u8g2.c ****     case MUIF_MSG_CURSOR_SELECT:
 910:..\u8g2\csrc/mui_u8g2.c ****       /* toggle between normal mode and capture next/prev mode */
 911:..\u8g2\csrc/mui_u8g2.c ****        ui->is_mud = !ui->is_mud;
 912:..\u8g2\csrc/mui_u8g2.c ****      break;
 913:..\u8g2\csrc/mui_u8g2.c ****     case MUIF_MSG_CURSOR_LEAVE:
 914:..\u8g2\csrc/mui_u8g2.c ****       break;
 915:..\u8g2\csrc/mui_u8g2.c ****     case MUIF_MSG_TOUCH_DOWN:
 916:..\u8g2\csrc/mui_u8g2.c ****       break;
 917:..\u8g2\csrc/mui_u8g2.c ****     case MUIF_MSG_TOUCH_UP:
 918:..\u8g2\csrc/mui_u8g2.c ****       break;
 919:..\u8g2\csrc/mui_u8g2.c ****     case MUIF_MSG_EVENT_NEXT:
 920:..\u8g2\csrc/mui_u8g2.c ****       if ( ui->is_mud )
ARM GAS  C:\Users\brian\AppData\Local\Temp\ccwE2E8f.s 			page 23


 921:..\u8g2\csrc/mui_u8g2.c ****       {
 922:..\u8g2\csrc/mui_u8g2.c ****         (*value)++;
 923:..\u8g2\csrc/mui_u8g2.c ****         if ( mui_fds_get_nth_token(ui, *value) == 0 ) 
 924:..\u8g2\csrc/mui_u8g2.c ****           *value = 0;      
 925:..\u8g2\csrc/mui_u8g2.c ****         return 1;
 926:..\u8g2\csrc/mui_u8g2.c ****       }
 927:..\u8g2\csrc/mui_u8g2.c ****       break;
 928:..\u8g2\csrc/mui_u8g2.c ****     case MUIF_MSG_EVENT_PREV:
 929:..\u8g2\csrc/mui_u8g2.c ****       if ( ui->is_mud )
 930:..\u8g2\csrc/mui_u8g2.c ****       {
 931:..\u8g2\csrc/mui_u8g2.c ****         if ( *value == 0 )
 932:..\u8g2\csrc/mui_u8g2.c ****           *value = mui_fds_get_token_cnt(ui);
 933:..\u8g2\csrc/mui_u8g2.c ****         (*value)--;
 934:..\u8g2\csrc/mui_u8g2.c ****         return 1;
 935:..\u8g2\csrc/mui_u8g2.c ****       }
 936:..\u8g2\csrc/mui_u8g2.c ****       break;
 937:..\u8g2\csrc/mui_u8g2.c ****   }
 938:..\u8g2\csrc/mui_u8g2.c ****   return 0;
 939:..\u8g2\csrc/mui_u8g2.c **** }
 940:..\u8g2\csrc/mui_u8g2.c **** 
 941:..\u8g2\csrc/mui_u8g2.c **** 
 942:..\u8g2\csrc/mui_u8g2.c **** 
 943:..\u8g2\csrc/mui_u8g2.c **** 
 944:..\u8g2\csrc/mui_u8g2.c **** /*
 945:..\u8g2\csrc/mui_u8g2.c **** 
 946:..\u8g2\csrc/mui_u8g2.c ****   uint8_t mui_u8g2_u8_chkbox_wm_pi(mui_t *ui, uint8_t msg)
 947:..\u8g2\csrc/mui_u8g2.c ****   
 948:..\u8g2\csrc/mui_u8g2.c ****   Description:
 949:..\u8g2\csrc/mui_u8g2.c ****     Checkbox with the values 0 (not selected) and 1 (selected). 
 950:..\u8g2\csrc/mui_u8g2.c **** 
 951:..\u8g2\csrc/mui_u8g2.c ****   Message Handling: DRAW, SELECT
 952:..\u8g2\csrc/mui_u8g2.c **** 
 953:..\u8g2\csrc/mui_u8g2.c ****   Style
 954:..\u8g2\csrc/mui_u8g2.c ****     No Selection: Plain checkbox and text
 955:..\u8g2\csrc/mui_u8g2.c ****     Cursor Selection: Checkbox and text is inverted
 956:..\u8g2\csrc/mui_u8g2.c **** 
 957:..\u8g2\csrc/mui_u8g2.c ****   User interface field list (muif):
 958:..\u8g2\csrc/mui_u8g2.c ****     flags: MUIF_CFLAG_IS_CURSOR_SELECTABLE
 959:..\u8g2\csrc/mui_u8g2.c ****     data: uint8_t *, pointer to a uint8_t variable, which contains the values 0 or 1
 960:..\u8g2\csrc/mui_u8g2.c **** 
 961:..\u8g2\csrc/mui_u8g2.c ****   Field definition string (fds):
 962:..\u8g2\csrc/mui_u8g2.c ****     xy: Left position of the text (required)
 963:..\u8g2\csrc/mui_u8g2.c ****     arg: not used
 964:..\u8g2\csrc/mui_u8g2.c ****     text: Optional: Text will be printed after the checkbox with a small gap
 965:..\u8g2\csrc/mui_u8g2.c ****     
 966:..\u8g2\csrc/mui_u8g2.c **** */
 967:..\u8g2\csrc/mui_u8g2.c **** 
 968:..\u8g2\csrc/mui_u8g2.c **** uint8_t mui_u8g2_u8_chkbox_wm_pi(mui_t *ui, uint8_t msg)
 969:..\u8g2\csrc/mui_u8g2.c **** {
 970:..\u8g2\csrc/mui_u8g2.c ****   u8g2_t *u8g2 = mui_get_U8g2(ui);
 971:..\u8g2\csrc/mui_u8g2.c ****   u8g2_uint_t flags = 0;
 972:..\u8g2\csrc/mui_u8g2.c ****   uint8_t *value = (uint8_t *)muif_get_data(ui->uif);
 973:..\u8g2\csrc/mui_u8g2.c ****   switch(msg)
 974:..\u8g2\csrc/mui_u8g2.c ****   {
 975:..\u8g2\csrc/mui_u8g2.c ****     case MUIF_MSG_DRAW:
 976:..\u8g2\csrc/mui_u8g2.c ****       if ( *value > 1 ) *value = 1;
 977:..\u8g2\csrc/mui_u8g2.c ****       if ( mui_IsCursorFocus(ui) )
ARM GAS  C:\Users\brian\AppData\Local\Temp\ccwE2E8f.s 			page 24


 978:..\u8g2\csrc/mui_u8g2.c ****       {
 979:..\u8g2\csrc/mui_u8g2.c ****         flags |= U8G2_BTN_INV;
 980:..\u8g2\csrc/mui_u8g2.c ****       }
 981:..\u8g2\csrc/mui_u8g2.c ****       
 982:..\u8g2\csrc/mui_u8g2.c ****       {
 983:..\u8g2\csrc/mui_u8g2.c ****         u8g2_uint_t w = 0;
 984:..\u8g2\csrc/mui_u8g2.c ****         u8g2_uint_t a = u8g2_GetAscent(u8g2);
 985:..\u8g2\csrc/mui_u8g2.c ****         if ( *value )
 986:..\u8g2\csrc/mui_u8g2.c ****           u8g2_DrawCheckbox(u8g2, mui_get_x(ui), mui_get_y(ui), a, 1);
 987:..\u8g2\csrc/mui_u8g2.c ****         else
 988:..\u8g2\csrc/mui_u8g2.c ****           u8g2_DrawCheckbox(u8g2, mui_get_x(ui), mui_get_y(ui), a, 0);
 989:..\u8g2\csrc/mui_u8g2.c ****         
 990:..\u8g2\csrc/mui_u8g2.c ****         if ( ui->text[0] != '\0' )
 991:..\u8g2\csrc/mui_u8g2.c ****         {
 992:..\u8g2\csrc/mui_u8g2.c ****           w =  u8g2_GetUTF8Width(u8g2, ui->text);
 993:..\u8g2\csrc/mui_u8g2.c ****           //u8g2_SetFontMode(u8g2, 1);
 994:..\u8g2\csrc/mui_u8g2.c ****           a += 2;       /* add gap between the checkbox and the text area */
 995:..\u8g2\csrc/mui_u8g2.c ****           u8g2_DrawUTF8(u8g2, mui_get_x(ui)+a, mui_get_y(ui), ui->text);
 996:..\u8g2\csrc/mui_u8g2.c ****         }
 997:..\u8g2\csrc/mui_u8g2.c ****         
 998:..\u8g2\csrc/mui_u8g2.c ****         u8g2_DrawButtonFrame(u8g2, mui_get_x(ui), mui_get_y(ui), flags, w+a, 1, MUI_U8G2_V_PADDING)
 999:..\u8g2\csrc/mui_u8g2.c ****       }
1000:..\u8g2\csrc/mui_u8g2.c ****       break;
1001:..\u8g2\csrc/mui_u8g2.c ****     case MUIF_MSG_FORM_START:
1002:..\u8g2\csrc/mui_u8g2.c ****       break;
1003:..\u8g2\csrc/mui_u8g2.c ****     case MUIF_MSG_FORM_END:
1004:..\u8g2\csrc/mui_u8g2.c ****       break;
1005:..\u8g2\csrc/mui_u8g2.c ****     case MUIF_MSG_CURSOR_ENTER:
1006:..\u8g2\csrc/mui_u8g2.c ****       break;
1007:..\u8g2\csrc/mui_u8g2.c ****     case MUIF_MSG_CURSOR_SELECT:
1008:..\u8g2\csrc/mui_u8g2.c ****       (*value)++;
1009:..\u8g2\csrc/mui_u8g2.c ****       if ( *value > 1 ) *value = 0;      
1010:..\u8g2\csrc/mui_u8g2.c ****     case MUIF_MSG_CURSOR_LEAVE:
1011:..\u8g2\csrc/mui_u8g2.c ****       break;
1012:..\u8g2\csrc/mui_u8g2.c ****     case MUIF_MSG_TOUCH_DOWN:
1013:..\u8g2\csrc/mui_u8g2.c ****       break;
1014:..\u8g2\csrc/mui_u8g2.c ****     case MUIF_MSG_TOUCH_UP:
1015:..\u8g2\csrc/mui_u8g2.c ****       break;
1016:..\u8g2\csrc/mui_u8g2.c ****   }
1017:..\u8g2\csrc/mui_u8g2.c ****   return 0;
1018:..\u8g2\csrc/mui_u8g2.c **** }
1019:..\u8g2\csrc/mui_u8g2.c **** 
1020:..\u8g2\csrc/mui_u8g2.c **** /*
1021:..\u8g2\csrc/mui_u8g2.c ****   radio button style, arg is assigned as value
1022:..\u8g2\csrc/mui_u8g2.c **** */
1023:..\u8g2\csrc/mui_u8g2.c **** uint8_t mui_u8g2_u8_radio_wm_pi(mui_t *ui, uint8_t msg)
1024:..\u8g2\csrc/mui_u8g2.c **** {
1025:..\u8g2\csrc/mui_u8g2.c ****   u8g2_t *u8g2 = mui_get_U8g2(ui);
1026:..\u8g2\csrc/mui_u8g2.c ****   u8g2_uint_t flags = 0;
1027:..\u8g2\csrc/mui_u8g2.c ****   uint8_t *value = (uint8_t *)muif_get_data(ui->uif);
1028:..\u8g2\csrc/mui_u8g2.c ****   switch(msg)
1029:..\u8g2\csrc/mui_u8g2.c ****   {
1030:..\u8g2\csrc/mui_u8g2.c ****     case MUIF_MSG_DRAW:
1031:..\u8g2\csrc/mui_u8g2.c ****        if ( mui_IsCursorFocus(ui) )
1032:..\u8g2\csrc/mui_u8g2.c ****       {
1033:..\u8g2\csrc/mui_u8g2.c ****         flags |= U8G2_BTN_INV;
1034:..\u8g2\csrc/mui_u8g2.c ****       }
ARM GAS  C:\Users\brian\AppData\Local\Temp\ccwE2E8f.s 			page 25


1035:..\u8g2\csrc/mui_u8g2.c ****       
1036:..\u8g2\csrc/mui_u8g2.c ****       {
1037:..\u8g2\csrc/mui_u8g2.c ****         u8g2_uint_t w = 0;
1038:..\u8g2\csrc/mui_u8g2.c ****         u8g2_uint_t a = u8g2_GetAscent(u8g2);
1039:..\u8g2\csrc/mui_u8g2.c ****         if ( *value == ui->arg )
1040:..\u8g2\csrc/mui_u8g2.c ****           u8g2_DrawCheckbox(u8g2, mui_get_x(ui), mui_get_y(ui), a, 1);
1041:..\u8g2\csrc/mui_u8g2.c ****         else
1042:..\u8g2\csrc/mui_u8g2.c ****           u8g2_DrawCheckbox(u8g2, mui_get_x(ui), mui_get_y(ui), a, 0);
1043:..\u8g2\csrc/mui_u8g2.c ****         
1044:..\u8g2\csrc/mui_u8g2.c ****         if ( ui->text[0] != '\0' )
1045:..\u8g2\csrc/mui_u8g2.c ****         {
1046:..\u8g2\csrc/mui_u8g2.c ****           w =  u8g2_GetUTF8Width(u8g2, ui->text);
1047:..\u8g2\csrc/mui_u8g2.c ****           //u8g2_SetFontMode(u8g2, 1);
1048:..\u8g2\csrc/mui_u8g2.c ****           a += 2;       /* add gap between the checkbox and the text area */
1049:..\u8g2\csrc/mui_u8g2.c ****           u8g2_DrawUTF8(u8g2, mui_get_x(ui)+a, mui_get_y(ui), ui->text);
1050:..\u8g2\csrc/mui_u8g2.c ****         }
1051:..\u8g2\csrc/mui_u8g2.c ****         
1052:..\u8g2\csrc/mui_u8g2.c ****         u8g2_DrawButtonFrame(u8g2, mui_get_x(ui), mui_get_y(ui), flags, w+a, 1, MUI_U8G2_V_PADDING)
1053:..\u8g2\csrc/mui_u8g2.c ****       }
1054:..\u8g2\csrc/mui_u8g2.c ****       break;
1055:..\u8g2\csrc/mui_u8g2.c ****    case MUIF_MSG_FORM_START:
1056:..\u8g2\csrc/mui_u8g2.c ****       break;
1057:..\u8g2\csrc/mui_u8g2.c ****     case MUIF_MSG_FORM_END:
1058:..\u8g2\csrc/mui_u8g2.c ****       break;
1059:..\u8g2\csrc/mui_u8g2.c ****     case MUIF_MSG_CURSOR_ENTER:
1060:..\u8g2\csrc/mui_u8g2.c ****       break;
1061:..\u8g2\csrc/mui_u8g2.c ****     case MUIF_MSG_CURSOR_SELECT:
1062:..\u8g2\csrc/mui_u8g2.c ****       *value = ui->arg;
1063:..\u8g2\csrc/mui_u8g2.c ****       break;
1064:..\u8g2\csrc/mui_u8g2.c ****     case MUIF_MSG_CURSOR_LEAVE:
1065:..\u8g2\csrc/mui_u8g2.c ****       break;
1066:..\u8g2\csrc/mui_u8g2.c ****     case MUIF_MSG_TOUCH_DOWN:
1067:..\u8g2\csrc/mui_u8g2.c ****       break;
1068:..\u8g2\csrc/mui_u8g2.c ****     case MUIF_MSG_TOUCH_UP:
1069:..\u8g2\csrc/mui_u8g2.c ****       break;
1070:..\u8g2\csrc/mui_u8g2.c ****   }
1071:..\u8g2\csrc/mui_u8g2.c ****   return 0;  
1072:..\u8g2\csrc/mui_u8g2.c **** }
1073:..\u8g2\csrc/mui_u8g2.c **** 
1074:..\u8g2\csrc/mui_u8g2.c **** 
1075:..\u8g2\csrc/mui_u8g2.c **** uint8_t mui_u8g2_u8_opt_parent_wm_mse_pi(mui_t *ui, uint8_t msg)
1076:..\u8g2\csrc/mui_u8g2.c **** {
1077:..\u8g2\csrc/mui_u8g2.c ****   uint8_t *value = (uint8_t *)muif_get_data(ui->uif);
1078:..\u8g2\csrc/mui_u8g2.c ****   switch(msg)
1079:..\u8g2\csrc/mui_u8g2.c ****   {
1080:..\u8g2\csrc/mui_u8g2.c ****     case MUIF_MSG_DRAW:
1081:..\u8g2\csrc/mui_u8g2.c ****       if ( mui_fds_get_nth_token(ui, *value) == 0 )
1082:..\u8g2\csrc/mui_u8g2.c ****       {
1083:..\u8g2\csrc/mui_u8g2.c ****         *value = 0;
1084:..\u8g2\csrc/mui_u8g2.c ****         mui_fds_get_nth_token(ui, *value);
1085:..\u8g2\csrc/mui_u8g2.c ****       }      
1086:..\u8g2\csrc/mui_u8g2.c ****       mui_u8g2_draw_button_pi(ui, 0, 1, ui->text);
1087:..\u8g2\csrc/mui_u8g2.c ****       //mui_u8g2_draw_button_utf(ui, mui_u8g2_get_pi_flags(ui), 0, 1, MUI_U8G2_V_PADDING, ui->text)
1088:..\u8g2\csrc/mui_u8g2.c ****       
1089:..\u8g2\csrc/mui_u8g2.c ****       break;
1090:..\u8g2\csrc/mui_u8g2.c ****     case MUIF_MSG_FORM_START:
1091:..\u8g2\csrc/mui_u8g2.c ****       break;
ARM GAS  C:\Users\brian\AppData\Local\Temp\ccwE2E8f.s 			page 26


1092:..\u8g2\csrc/mui_u8g2.c ****     case MUIF_MSG_FORM_END:
1093:..\u8g2\csrc/mui_u8g2.c ****       break;
1094:..\u8g2\csrc/mui_u8g2.c ****     case MUIF_MSG_CURSOR_ENTER:
1095:..\u8g2\csrc/mui_u8g2.c ****       break;
1096:..\u8g2\csrc/mui_u8g2.c ****     case MUIF_MSG_CURSOR_SELECT:
1097:..\u8g2\csrc/mui_u8g2.c ****       mui_SaveForm(ui);          // store the current form and position so that the child can jump 
1098:..\u8g2\csrc/mui_u8g2.c ****       mui_GotoForm(ui, ui->arg, *value);  // assumes that the selectable values are at the beginnin
1099:..\u8g2\csrc/mui_u8g2.c ****       break;
1100:..\u8g2\csrc/mui_u8g2.c ****     case MUIF_MSG_CURSOR_LEAVE:
1101:..\u8g2\csrc/mui_u8g2.c ****       break;
1102:..\u8g2\csrc/mui_u8g2.c ****     case MUIF_MSG_TOUCH_DOWN:
1103:..\u8g2\csrc/mui_u8g2.c ****       break;
1104:..\u8g2\csrc/mui_u8g2.c ****     case MUIF_MSG_TOUCH_UP:
1105:..\u8g2\csrc/mui_u8g2.c ****       break;
1106:..\u8g2\csrc/mui_u8g2.c ****   }
1107:..\u8g2\csrc/mui_u8g2.c ****   return 0;
1108:..\u8g2\csrc/mui_u8g2.c **** }
1109:..\u8g2\csrc/mui_u8g2.c **** 
1110:..\u8g2\csrc/mui_u8g2.c **** 
1111:..\u8g2\csrc/mui_u8g2.c **** uint8_t mui_u8g2_u8_opt_child_mse_common(mui_t *ui, uint8_t msg)
1112:..\u8g2\csrc/mui_u8g2.c **** {
1113:..\u8g2\csrc/mui_u8g2.c ****   uint8_t *value = (uint8_t *)muif_get_data(ui->uif);
1114:..\u8g2\csrc/mui_u8g2.c ****   uint8_t arg = ui->arg;        // remember the arg value, because it might be overwritten
1115:..\u8g2\csrc/mui_u8g2.c ****   
1116:..\u8g2\csrc/mui_u8g2.c ****   switch(msg)
1117:..\u8g2\csrc/mui_u8g2.c ****   {
1118:..\u8g2\csrc/mui_u8g2.c ****     case MUIF_MSG_DRAW:
1119:..\u8g2\csrc/mui_u8g2.c ****       /* done by the calling function */
1120:..\u8g2\csrc/mui_u8g2.c ****       break;
1121:..\u8g2\csrc/mui_u8g2.c ****     case MUIF_MSG_FORM_START:
1122:..\u8g2\csrc/mui_u8g2.c ****       /* we can assume that the list starts at the top. It will be adjisted by cursor down events l
1123:..\u8g2\csrc/mui_u8g2.c ****       /* ui->form_scroll_top = 0 and all other form_scroll values are set to 0 if a new form is ent
1124:..\u8g2\csrc/mui_u8g2.c ****       if ( ui->form_scroll_visible <= arg )
1125:..\u8g2\csrc/mui_u8g2.c ****         ui->form_scroll_visible = arg+1;
1126:..\u8g2\csrc/mui_u8g2.c ****       if ( ui->form_scroll_total == 0 )
1127:..\u8g2\csrc/mui_u8g2.c ****           ui->form_scroll_total = mui_GetSelectableFieldOptionCnt(ui, ui->last_form_fds);
1128:..\u8g2\csrc/mui_u8g2.c ****       //printf("MUIF_MSG_FORM_START: arg=%d visible=%d top=%d total=%d\n", arg, ui->form_scroll_vis
1129:..\u8g2\csrc/mui_u8g2.c ****       break;
1130:..\u8g2\csrc/mui_u8g2.c ****     case MUIF_MSG_FORM_END:  
1131:..\u8g2\csrc/mui_u8g2.c ****       break;
1132:..\u8g2\csrc/mui_u8g2.c ****     case MUIF_MSG_CURSOR_ENTER:
1133:..\u8g2\csrc/mui_u8g2.c ****       return mui_u8g2_handle_scroll_next_prev_events(ui, msg);
1134:..\u8g2\csrc/mui_u8g2.c ****     case MUIF_MSG_CURSOR_SELECT:
1135:..\u8g2\csrc/mui_u8g2.c ****       if ( value != NULL )
1136:..\u8g2\csrc/mui_u8g2.c ****         *value = ui->form_scroll_top + arg;
1137:..\u8g2\csrc/mui_u8g2.c ****       mui_RestoreForm(ui);
1138:..\u8g2\csrc/mui_u8g2.c ****       break;
1139:..\u8g2\csrc/mui_u8g2.c ****     case MUIF_MSG_CURSOR_LEAVE:
1140:..\u8g2\csrc/mui_u8g2.c ****       break;
1141:..\u8g2\csrc/mui_u8g2.c ****     case MUIF_MSG_TOUCH_DOWN:
1142:..\u8g2\csrc/mui_u8g2.c ****       break;
1143:..\u8g2\csrc/mui_u8g2.c ****     case MUIF_MSG_TOUCH_UP:
1144:..\u8g2\csrc/mui_u8g2.c ****       break;
1145:..\u8g2\csrc/mui_u8g2.c ****     case MUIF_MSG_EVENT_NEXT:
1146:..\u8g2\csrc/mui_u8g2.c ****       return mui_u8g2_handle_scroll_next_prev_events(ui, msg);
1147:..\u8g2\csrc/mui_u8g2.c ****     case MUIF_MSG_EVENT_PREV:
1148:..\u8g2\csrc/mui_u8g2.c ****       return mui_u8g2_handle_scroll_next_prev_events(ui, msg);
ARM GAS  C:\Users\brian\AppData\Local\Temp\ccwE2E8f.s 			page 27


1149:..\u8g2\csrc/mui_u8g2.c ****   }
1150:..\u8g2\csrc/mui_u8g2.c ****   return 0;
1151:..\u8g2\csrc/mui_u8g2.c **** }
1152:..\u8g2\csrc/mui_u8g2.c **** 
1153:..\u8g2\csrc/mui_u8g2.c **** 
1154:..\u8g2\csrc/mui_u8g2.c **** uint8_t mui_u8g2_u8_opt_radio_child_wm_mse_pi(mui_t *ui, uint8_t msg)
1155:..\u8g2\csrc/mui_u8g2.c **** {
1156:..\u8g2\csrc/mui_u8g2.c ****   u8g2_t *u8g2 = mui_get_U8g2(ui);
1157:..\u8g2\csrc/mui_u8g2.c ****   uint8_t *value = (uint8_t *)muif_get_data(ui->uif);
1158:..\u8g2\csrc/mui_u8g2.c ****   uint8_t arg = ui->arg;        // remember the arg value, because it might be overwritten
1159:..\u8g2\csrc/mui_u8g2.c ****   
1160:..\u8g2\csrc/mui_u8g2.c ****   switch(msg)
1161:..\u8g2\csrc/mui_u8g2.c ****   {
1162:..\u8g2\csrc/mui_u8g2.c ****     case MUIF_MSG_DRAW:
1163:..\u8g2\csrc/mui_u8g2.c ****       {
1164:..\u8g2\csrc/mui_u8g2.c ****         u8g2_uint_t w = 0;
1165:..\u8g2\csrc/mui_u8g2.c ****         u8g2_uint_t a = u8g2_GetAscent(u8g2) - 2;
1166:..\u8g2\csrc/mui_u8g2.c ****         u8g2_uint_t x = mui_get_x(ui);   // if mui_GetSelectableFieldTextOption is called, then fie
1167:..\u8g2\csrc/mui_u8g2.c ****         u8g2_uint_t y = mui_get_y(ui);  // if mui_GetSelectableFieldTextOption is called, then fiel
1168:..\u8g2\csrc/mui_u8g2.c ****         uint8_t is_focus = mui_IsCursorFocus(ui);
1169:..\u8g2\csrc/mui_u8g2.c ****         if ( *value == arg + ui->form_scroll_top )
1170:..\u8g2\csrc/mui_u8g2.c ****           u8g2_DrawValueMark(u8g2, x, y, a);
1171:..\u8g2\csrc/mui_u8g2.c **** 
1172:..\u8g2\csrc/mui_u8g2.c ****         if ( ui->text[0] == '\0' )
1173:..\u8g2\csrc/mui_u8g2.c ****         {
1174:..\u8g2\csrc/mui_u8g2.c ****           /* if the text is not provided, then try to get the text from the previous (saved) elemen
1175:..\u8g2\csrc/mui_u8g2.c ****           /* this will overwrite all ui member functions, so we must not access any ui members (exc
1176:..\u8g2\csrc/mui_u8g2.c ****           mui_GetSelectableFieldTextOption(ui, ui->last_form_fds, arg + ui->form_scroll_top);
1177:..\u8g2\csrc/mui_u8g2.c ****         }
1178:..\u8g2\csrc/mui_u8g2.c ****         
1179:..\u8g2\csrc/mui_u8g2.c ****         if ( ui->text[0] != '\0' )
1180:..\u8g2\csrc/mui_u8g2.c ****         {
1181:..\u8g2\csrc/mui_u8g2.c ****           w =  u8g2_GetUTF8Width(u8g2, ui->text);
1182:..\u8g2\csrc/mui_u8g2.c ****           //u8g2_SetFontMode(u8g2, 1);
1183:..\u8g2\csrc/mui_u8g2.c ****           a += 2;       /* add gap between the checkbox and the text area */
1184:..\u8g2\csrc/mui_u8g2.c ****           u8g2_DrawUTF8(u8g2, x+a, y, ui->text);
1185:..\u8g2\csrc/mui_u8g2.c ****         }        
1186:..\u8g2\csrc/mui_u8g2.c ****         if ( is_focus )
1187:..\u8g2\csrc/mui_u8g2.c ****         {
1188:..\u8g2\csrc/mui_u8g2.c ****           u8g2_DrawButtonFrame(u8g2, x, y, U8G2_BTN_INV, w+a, 1, MUI_U8G2_V_PADDING);
1189:..\u8g2\csrc/mui_u8g2.c ****         }
1190:..\u8g2\csrc/mui_u8g2.c ****       }
1191:..\u8g2\csrc/mui_u8g2.c ****       break;
1192:..\u8g2\csrc/mui_u8g2.c ****     default:
1193:..\u8g2\csrc/mui_u8g2.c ****       return mui_u8g2_u8_opt_child_mse_common(ui, msg);
1194:..\u8g2\csrc/mui_u8g2.c ****   }
1195:..\u8g2\csrc/mui_u8g2.c ****   return 0;
1196:..\u8g2\csrc/mui_u8g2.c **** }
1197:..\u8g2\csrc/mui_u8g2.c **** 
1198:..\u8g2\csrc/mui_u8g2.c **** 
1199:..\u8g2\csrc/mui_u8g2.c **** uint8_t mui_u8g2_u8_opt_radio_child_w1_mse_pi(mui_t *ui, uint8_t msg)
1200:..\u8g2\csrc/mui_u8g2.c **** {
1201:..\u8g2\csrc/mui_u8g2.c ****   u8g2_t *u8g2 = mui_get_U8g2(ui);
1202:..\u8g2\csrc/mui_u8g2.c ****   uint8_t *value = (uint8_t *)muif_get_data(ui->uif);
1203:..\u8g2\csrc/mui_u8g2.c ****   uint8_t arg = ui->arg;        // remember the arg value, because it might be overwritten
1204:..\u8g2\csrc/mui_u8g2.c ****   
1205:..\u8g2\csrc/mui_u8g2.c ****   switch(msg)
ARM GAS  C:\Users\brian\AppData\Local\Temp\ccwE2E8f.s 			page 28


1206:..\u8g2\csrc/mui_u8g2.c ****   {
1207:..\u8g2\csrc/mui_u8g2.c ****     case MUIF_MSG_DRAW:
1208:..\u8g2\csrc/mui_u8g2.c ****       {
1209:..\u8g2\csrc/mui_u8g2.c ****         //u8g2_uint_t w = 0;
1210:..\u8g2\csrc/mui_u8g2.c ****         u8g2_uint_t a = u8g2_GetAscent(u8g2) - 2;
1211:..\u8g2\csrc/mui_u8g2.c ****         u8g2_uint_t x = mui_get_x(ui);   // if mui_GetSelectableFieldTextOption is called, then fie
1212:..\u8g2\csrc/mui_u8g2.c ****         u8g2_uint_t y = mui_get_y(ui);  // if mui_GetSelectableFieldTextOption is called, then fiel
1213:..\u8g2\csrc/mui_u8g2.c ****         uint8_t is_focus = mui_IsCursorFocus(ui);
1214:..\u8g2\csrc/mui_u8g2.c ****         
1215:..\u8g2\csrc/mui_u8g2.c ****         if ( *value == arg + ui->form_scroll_top )
1216:..\u8g2\csrc/mui_u8g2.c ****           u8g2_DrawValueMark(u8g2, x, y, a);
1217:..\u8g2\csrc/mui_u8g2.c **** 
1218:..\u8g2\csrc/mui_u8g2.c ****         if ( ui->text[0] == '\0' )
1219:..\u8g2\csrc/mui_u8g2.c ****         {
1220:..\u8g2\csrc/mui_u8g2.c ****           /* if the text is not provided, then try to get the text from the previous (saved) elemen
1221:..\u8g2\csrc/mui_u8g2.c ****           /* this will overwrite all ui member functions, so we must not access any ui members (exc
1222:..\u8g2\csrc/mui_u8g2.c ****           mui_GetSelectableFieldTextOption(ui, ui->last_form_fds, arg + ui->form_scroll_top);
1223:..\u8g2\csrc/mui_u8g2.c ****         }
1224:..\u8g2\csrc/mui_u8g2.c ****         
1225:..\u8g2\csrc/mui_u8g2.c ****         if ( ui->text[0] != '\0' )
1226:..\u8g2\csrc/mui_u8g2.c ****         {
1227:..\u8g2\csrc/mui_u8g2.c ****           //w =  u8g2_GetUTF8Width(u8g2, ui->text);
1228:..\u8g2\csrc/mui_u8g2.c ****           //u8g2_SetFontMode(u8g2, 1);
1229:..\u8g2\csrc/mui_u8g2.c ****           a += 2;       /* add gap between the checkbox and the text area */
1230:..\u8g2\csrc/mui_u8g2.c ****           u8g2_DrawUTF8(u8g2, x+a, y, ui->text);
1231:..\u8g2\csrc/mui_u8g2.c ****         }        
1232:..\u8g2\csrc/mui_u8g2.c ****         if ( is_focus )
1233:..\u8g2\csrc/mui_u8g2.c ****         {
1234:..\u8g2\csrc/mui_u8g2.c ****           u8g2_DrawButtonFrame(u8g2, 0, y, U8G2_BTN_INV, u8g2_GetDisplayWidth(u8g2), 0, MUI_U8G2_V_
1235:..\u8g2\csrc/mui_u8g2.c ****         }
1236:..\u8g2\csrc/mui_u8g2.c ****       }
1237:..\u8g2\csrc/mui_u8g2.c ****       break;
1238:..\u8g2\csrc/mui_u8g2.c ****     default:
1239:..\u8g2\csrc/mui_u8g2.c ****       return mui_u8g2_u8_opt_child_mse_common(ui, msg);
1240:..\u8g2\csrc/mui_u8g2.c ****   }
1241:..\u8g2\csrc/mui_u8g2.c ****   return 0;
1242:..\u8g2\csrc/mui_u8g2.c **** }
1243:..\u8g2\csrc/mui_u8g2.c **** 
1244:..\u8g2\csrc/mui_u8g2.c **** 
1245:..\u8g2\csrc/mui_u8g2.c **** uint8_t mui_u8g2_u8_opt_child_wm_mse_pi(mui_t *ui, uint8_t msg)
1246:..\u8g2\csrc/mui_u8g2.c **** {
1247:..\u8g2\csrc/mui_u8g2.c ****   u8g2_t *u8g2 = mui_get_U8g2(ui);
1248:..\u8g2\csrc/mui_u8g2.c ****   //uint8_t *value = (uint8_t *)muif_get_data(ui->uif);
1249:..\u8g2\csrc/mui_u8g2.c ****   uint8_t arg = ui->arg;        // remember the arg value, because it might be overwritten
1250:..\u8g2\csrc/mui_u8g2.c ****   
1251:..\u8g2\csrc/mui_u8g2.c ****   switch(msg)
1252:..\u8g2\csrc/mui_u8g2.c ****   {
1253:..\u8g2\csrc/mui_u8g2.c ****     case MUIF_MSG_DRAW:
1254:..\u8g2\csrc/mui_u8g2.c ****       {
1255:..\u8g2\csrc/mui_u8g2.c ****         //u8g2_uint_t w = 0;
1256:..\u8g2\csrc/mui_u8g2.c ****         u8g2_uint_t x = mui_get_x(ui);   // if mui_GetSelectableFieldTextOption is called, then fie
1257:..\u8g2\csrc/mui_u8g2.c ****         u8g2_uint_t y = mui_get_y(ui);  // if mui_GetSelectableFieldTextOption is called, then fiel
1258:..\u8g2\csrc/mui_u8g2.c ****         uint8_t flags = mui_u8g2_get_pi_flags(ui);
1259:..\u8g2\csrc/mui_u8g2.c ****         //if ( mui_IsCursorFocus(ui) )
1260:..\u8g2\csrc/mui_u8g2.c ****         //{
1261:..\u8g2\csrc/mui_u8g2.c ****         //  flags = U8G2_BTN_INV;
1262:..\u8g2\csrc/mui_u8g2.c ****         //}
ARM GAS  C:\Users\brian\AppData\Local\Temp\ccwE2E8f.s 			page 29


1263:..\u8g2\csrc/mui_u8g2.c **** 
1264:..\u8g2\csrc/mui_u8g2.c ****         if ( ui->text[0] == '\0' )
1265:..\u8g2\csrc/mui_u8g2.c ****         {
1266:..\u8g2\csrc/mui_u8g2.c ****           /* if the text is not provided, then try to get the text from the previous (saved) elemen
1267:..\u8g2\csrc/mui_u8g2.c ****           /* this will overwrite all ui member functions, so we must not access any ui members (exc
1268:..\u8g2\csrc/mui_u8g2.c ****           mui_GetSelectableFieldTextOption(ui, ui->last_form_fds, arg + ui->form_scroll_top);
1269:..\u8g2\csrc/mui_u8g2.c ****         }
1270:..\u8g2\csrc/mui_u8g2.c ****         if ( ui->text[0] != '\0' )
1271:..\u8g2\csrc/mui_u8g2.c ****         {
1272:..\u8g2\csrc/mui_u8g2.c ****           u8g2_DrawButtonUTF8(u8g2, x, y, flags, 0, 1, MUI_U8G2_V_PADDING, ui->text);
1273:..\u8g2\csrc/mui_u8g2.c ****         }        
1274:..\u8g2\csrc/mui_u8g2.c ****       }
1275:..\u8g2\csrc/mui_u8g2.c ****       break;
1276:..\u8g2\csrc/mui_u8g2.c ****     default:
1277:..\u8g2\csrc/mui_u8g2.c ****       return mui_u8g2_u8_opt_child_mse_common(ui, msg);
1278:..\u8g2\csrc/mui_u8g2.c ****   }
1279:..\u8g2\csrc/mui_u8g2.c ****   return 0;
1280:..\u8g2\csrc/mui_u8g2.c **** }
1281:..\u8g2\csrc/mui_u8g2.c **** 
1282:..\u8g2\csrc/mui_u8g2.c **** /* 
1283:..\u8g2\csrc/mui_u8g2.c ****   an invisible field (which will not show anything). It should also not be selectable 
1284:..\u8g2\csrc/mui_u8g2.c ****   it just provides the menu entries, see "mui_u8g2_u8_opt_child_mse_common" and friends 
1285:..\u8g2\csrc/mui_u8g2.c ****   as a consequence it does not have width, input mode and style
1286:..\u8g2\csrc/mui_u8g2.c **** */
1287:..\u8g2\csrc/mui_u8g2.c **** uint8_t mui_u8g2_goto_parent(mui_t *ui, uint8_t msg)
1288:..\u8g2\csrc/mui_u8g2.c **** {
1289:..\u8g2\csrc/mui_u8g2.c ****   switch(msg)
1290:..\u8g2\csrc/mui_u8g2.c ****   {
1291:..\u8g2\csrc/mui_u8g2.c ****     case MUIF_MSG_DRAW:
1292:..\u8g2\csrc/mui_u8g2.c ****       break;
1293:..\u8g2\csrc/mui_u8g2.c ****     case MUIF_MSG_FORM_START:
1294:..\u8g2\csrc/mui_u8g2.c ****       // store the field (and the corresponding elements) in the last_form_fds variable.
1295:..\u8g2\csrc/mui_u8g2.c ****       // last_form_fds is later used to access the elements (see mui_u8g2_u8_opt_child_mse_common a
1296:..\u8g2\csrc/mui_u8g2.c ****       ui->last_form_fds = ui->fds;
1297:..\u8g2\csrc/mui_u8g2.c ****       break;
1298:..\u8g2\csrc/mui_u8g2.c ****     case MUIF_MSG_FORM_END:
1299:..\u8g2\csrc/mui_u8g2.c ****       break;
1300:..\u8g2\csrc/mui_u8g2.c ****     case MUIF_MSG_CURSOR_ENTER:
1301:..\u8g2\csrc/mui_u8g2.c ****       break;
1302:..\u8g2\csrc/mui_u8g2.c ****     case MUIF_MSG_CURSOR_SELECT:
1303:..\u8g2\csrc/mui_u8g2.c ****       break;
1304:..\u8g2\csrc/mui_u8g2.c ****     case MUIF_MSG_CURSOR_LEAVE:
1305:..\u8g2\csrc/mui_u8g2.c ****       break;
1306:..\u8g2\csrc/mui_u8g2.c ****     case MUIF_MSG_TOUCH_DOWN:
1307:..\u8g2\csrc/mui_u8g2.c ****       break;
1308:..\u8g2\csrc/mui_u8g2.c ****     case MUIF_MSG_TOUCH_UP:
1309:..\u8g2\csrc/mui_u8g2.c ****       break;
1310:..\u8g2\csrc/mui_u8g2.c ****   }
1311:..\u8g2\csrc/mui_u8g2.c ****   return 0;
1312:..\u8g2\csrc/mui_u8g2.c **** }
1313:..\u8g2\csrc/mui_u8g2.c **** 
1314:..\u8g2\csrc/mui_u8g2.c **** 
1315:..\u8g2\csrc/mui_u8g2.c **** 
1316:..\u8g2\csrc/mui_u8g2.c **** uint8_t mui_u8g2_goto_child_w1_mse_pi(mui_t *ui, uint8_t msg)
1317:..\u8g2\csrc/mui_u8g2.c **** {
1318:..\u8g2\csrc/mui_u8g2.c ****   u8g2_t *u8g2 = mui_get_U8g2(ui);
1319:..\u8g2\csrc/mui_u8g2.c ****   uint8_t arg = ui->arg;        // remember the arg value, because it might be overwritten  
ARM GAS  C:\Users\brian\AppData\Local\Temp\ccwE2E8f.s 			page 30


1320:..\u8g2\csrc/mui_u8g2.c ****   switch(msg)
1321:..\u8g2\csrc/mui_u8g2.c ****   {
1322:..\u8g2\csrc/mui_u8g2.c ****     case MUIF_MSG_DRAW:
1323:..\u8g2\csrc/mui_u8g2.c ****       if ( mui_GetSelectableFieldTextOption(ui, ui->last_form_fds, arg + ui->form_scroll_top) )
1324:..\u8g2\csrc/mui_u8g2.c ****         mui_u8g2_draw_button_pi(ui, u8g2_GetDisplayWidth(u8g2)-mui_get_x(ui)*2, mui_get_x(ui), ui->
1325:..\u8g2\csrc/mui_u8g2.c ****       break;
1326:..\u8g2\csrc/mui_u8g2.c ****     case MUIF_MSG_CURSOR_SELECT:
1327:..\u8g2\csrc/mui_u8g2.c ****       if ( mui_GetSelectableFieldTextOption(ui, ui->last_form_fds, ui->arg + ui->form_scroll_top) )
1328:..\u8g2\csrc/mui_u8g2.c ****         return mui_GotoForm(ui, (uint8_t)ui->text[0], 0);
1329:..\u8g2\csrc/mui_u8g2.c ****       break;
1330:..\u8g2\csrc/mui_u8g2.c ****     default:
1331:..\u8g2\csrc/mui_u8g2.c ****       return mui_u8g2_u8_opt_child_mse_common(ui, msg);
1332:..\u8g2\csrc/mui_u8g2.c ****   }
1333:..\u8g2\csrc/mui_u8g2.c ****   return 0;
1334:..\u8g2\csrc/mui_u8g2.c **** }
1335:..\u8g2\csrc/mui_u8g2.c **** 
1336:..\u8g2\csrc/mui_u8g2.c **** 
1337:..\u8g2\csrc/mui_u8g2.c **** /*
1338:..\u8g2\csrc/mui_u8g2.c ****   data: mui_u8g2_list_t *
1339:..\u8g2\csrc/mui_u8g2.c **** */
1340:..\u8g2\csrc/mui_u8g2.c **** uint8_t mui_u8g2_u16_list_line_wa_mse_pi(mui_t *ui, uint8_t msg)
1341:..\u8g2\csrc/mui_u8g2.c **** {
1342:..\u8g2\csrc/mui_u8g2.c ****   //u8g2_t *u8g2 = mui_get_U8g2(ui);
1343:..\u8g2\csrc/mui_u8g2.c ****   mui_u8g2_list_t *list = (mui_u8g2_list_t *)muif_get_data(ui->uif);
1344:..\u8g2\csrc/mui_u8g2.c ****   uint16_t *selection =  mui_u8g2_list_get_selection_ptr(list);
1345:..\u8g2\csrc/mui_u8g2.c ****   void *data = mui_u8g2_list_get_data_ptr(list);
1346:..\u8g2\csrc/mui_u8g2.c ****   mui_u8g2_get_list_element_cb element_cb =  mui_u8g2_list_get_element_cb(list);
1347:..\u8g2\csrc/mui_u8g2.c ****   mui_u8g2_get_list_count_cb count_cb = mui_u8g2_list_get_count_cb(list);
1348:..\u8g2\csrc/mui_u8g2.c ****   
1349:..\u8g2\csrc/mui_u8g2.c ****   switch(msg)
1350:..\u8g2\csrc/mui_u8g2.c ****   {
1351:..\u8g2\csrc/mui_u8g2.c ****     case MUIF_MSG_DRAW:
1352:..\u8g2\csrc/mui_u8g2.c ****       mui_u8g2_draw_button_pi(ui, ui->arg, 1, element_cb(data, *selection));
1353:..\u8g2\csrc/mui_u8g2.c ****       //mui_u8g2_draw_button_utf(ui, mui_u8g2_get_pi_flags(ui), ui->arg, 1, MUI_U8G2_V_PADDING, ele
1354:..\u8g2\csrc/mui_u8g2.c ****       break;
1355:..\u8g2\csrc/mui_u8g2.c ****     case MUIF_MSG_FORM_START:
1356:..\u8g2\csrc/mui_u8g2.c ****       break;
1357:..\u8g2\csrc/mui_u8g2.c ****     case MUIF_MSG_FORM_END:
1358:..\u8g2\csrc/mui_u8g2.c ****       break;
1359:..\u8g2\csrc/mui_u8g2.c ****     case MUIF_MSG_CURSOR_ENTER:
1360:..\u8g2\csrc/mui_u8g2.c ****       break;
1361:..\u8g2\csrc/mui_u8g2.c ****     case MUIF_MSG_CURSOR_SELECT:
1362:..\u8g2\csrc/mui_u8g2.c ****       (*selection)++;
1363:..\u8g2\csrc/mui_u8g2.c ****       if ( *selection >= count_cb(data) ) 
1364:..\u8g2\csrc/mui_u8g2.c ****         *selection = 0;
1365:..\u8g2\csrc/mui_u8g2.c ****       break;
1366:..\u8g2\csrc/mui_u8g2.c ****     case MUIF_MSG_CURSOR_LEAVE:
1367:..\u8g2\csrc/mui_u8g2.c ****       break;
1368:..\u8g2\csrc/mui_u8g2.c ****     case MUIF_MSG_TOUCH_DOWN:
1369:..\u8g2\csrc/mui_u8g2.c ****       break;
1370:..\u8g2\csrc/mui_u8g2.c ****     case MUIF_MSG_TOUCH_UP:
1371:..\u8g2\csrc/mui_u8g2.c ****       break;
1372:..\u8g2\csrc/mui_u8g2.c ****   }
1373:..\u8g2\csrc/mui_u8g2.c ****   return 0;
1374:..\u8g2\csrc/mui_u8g2.c **** }
1375:..\u8g2\csrc/mui_u8g2.c **** 
1376:..\u8g2\csrc/mui_u8g2.c **** uint8_t mui_u8g2_u16_list_line_wa_mud_pi(mui_t *ui, uint8_t msg)
ARM GAS  C:\Users\brian\AppData\Local\Temp\ccwE2E8f.s 			page 31


1377:..\u8g2\csrc/mui_u8g2.c **** {
1378:..\u8g2\csrc/mui_u8g2.c ****   //u8g2_t *u8g2 = mui_get_U8g2(ui);
1379:..\u8g2\csrc/mui_u8g2.c ****   mui_u8g2_list_t *list = (mui_u8g2_list_t *)muif_get_data(ui->uif);
1380:..\u8g2\csrc/mui_u8g2.c ****   uint16_t *selection =  mui_u8g2_list_get_selection_ptr(list);
1381:..\u8g2\csrc/mui_u8g2.c ****   void *data = mui_u8g2_list_get_data_ptr(list);
1382:..\u8g2\csrc/mui_u8g2.c ****   mui_u8g2_get_list_element_cb element_cb =  mui_u8g2_list_get_element_cb(list);
1383:..\u8g2\csrc/mui_u8g2.c ****   mui_u8g2_get_list_count_cb count_cb = mui_u8g2_list_get_count_cb(list);
1384:..\u8g2\csrc/mui_u8g2.c ****   
1385:..\u8g2\csrc/mui_u8g2.c ****   switch(msg)
1386:..\u8g2\csrc/mui_u8g2.c ****   {
1387:..\u8g2\csrc/mui_u8g2.c ****     case MUIF_MSG_DRAW:
1388:..\u8g2\csrc/mui_u8g2.c ****       mui_u8g2_draw_button_pi(ui, ui->arg, 1, element_cb(data, *selection));
1389:..\u8g2\csrc/mui_u8g2.c ****       //mui_u8g2_draw_button_utf(ui, mui_u8g2_get_pi_flags(ui), ui->arg, 1, MUI_U8G2_V_PADDING, ele
1390:..\u8g2\csrc/mui_u8g2.c ****       break;
1391:..\u8g2\csrc/mui_u8g2.c ****     case MUIF_MSG_FORM_START:
1392:..\u8g2\csrc/mui_u8g2.c ****       break;
1393:..\u8g2\csrc/mui_u8g2.c ****     case MUIF_MSG_FORM_END:
1394:..\u8g2\csrc/mui_u8g2.c ****       break;
1395:..\u8g2\csrc/mui_u8g2.c ****     case MUIF_MSG_CURSOR_ENTER:
1396:..\u8g2\csrc/mui_u8g2.c ****       break;
1397:..\u8g2\csrc/mui_u8g2.c ****     case MUIF_MSG_CURSOR_SELECT:
1398:..\u8g2\csrc/mui_u8g2.c ****       /* toggle between normal mode and capture next/prev mode */
1399:..\u8g2\csrc/mui_u8g2.c ****        ui->is_mud = !ui->is_mud;
1400:..\u8g2\csrc/mui_u8g2.c ****       break;
1401:..\u8g2\csrc/mui_u8g2.c ****     case MUIF_MSG_CURSOR_LEAVE:
1402:..\u8g2\csrc/mui_u8g2.c ****       break;
1403:..\u8g2\csrc/mui_u8g2.c ****     case MUIF_MSG_TOUCH_DOWN:
1404:..\u8g2\csrc/mui_u8g2.c ****       break;
1405:..\u8g2\csrc/mui_u8g2.c ****     case MUIF_MSG_TOUCH_UP:
1406:..\u8g2\csrc/mui_u8g2.c ****       break;
1407:..\u8g2\csrc/mui_u8g2.c ****     case MUIF_MSG_EVENT_NEXT:
1408:..\u8g2\csrc/mui_u8g2.c ****       if ( ui->is_mud )
1409:..\u8g2\csrc/mui_u8g2.c ****       {
1410:..\u8g2\csrc/mui_u8g2.c ****         (*selection)++;
1411:..\u8g2\csrc/mui_u8g2.c ****         if ( *selection >= count_cb(data)  ) 
1412:..\u8g2\csrc/mui_u8g2.c ****           *selection = 0;      
1413:..\u8g2\csrc/mui_u8g2.c ****         return 1;
1414:..\u8g2\csrc/mui_u8g2.c ****       }
1415:..\u8g2\csrc/mui_u8g2.c ****       break;
1416:..\u8g2\csrc/mui_u8g2.c ****     case MUIF_MSG_EVENT_PREV:
1417:..\u8g2\csrc/mui_u8g2.c ****       if ( ui->is_mud )
1418:..\u8g2\csrc/mui_u8g2.c ****       {
1419:..\u8g2\csrc/mui_u8g2.c ****         if ( *selection == 0 )
1420:..\u8g2\csrc/mui_u8g2.c ****           *selection = count_cb(data);
1421:..\u8g2\csrc/mui_u8g2.c ****         (*selection)--;
1422:..\u8g2\csrc/mui_u8g2.c ****         return 1;
1423:..\u8g2\csrc/mui_u8g2.c ****       }
1424:..\u8g2\csrc/mui_u8g2.c ****       break;
1425:..\u8g2\csrc/mui_u8g2.c ****   }
1426:..\u8g2\csrc/mui_u8g2.c ****   return 0;
1427:..\u8g2\csrc/mui_u8g2.c **** }
1428:..\u8g2\csrc/mui_u8g2.c **** 
1429:..\u8g2\csrc/mui_u8g2.c **** /*
1430:..\u8g2\csrc/mui_u8g2.c ****   MUIF: MUIF_U8G2_U16_LIST
1431:..\u8g2\csrc/mui_u8g2.c ****   FDS: MUI_XYA, arg=form id
1432:..\u8g2\csrc/mui_u8g2.c ****   data: mui_u8g2_list_t *
1433:..\u8g2\csrc/mui_u8g2.c **** */
ARM GAS  C:\Users\brian\AppData\Local\Temp\ccwE2E8f.s 			page 32


1434:..\u8g2\csrc/mui_u8g2.c **** uint8_t mui_u8g2_u16_list_parent_wm_mse_pi(mui_t *ui, uint8_t msg)
1435:..\u8g2\csrc/mui_u8g2.c **** {
1436:..\u8g2\csrc/mui_u8g2.c ****   //u8g2_t *u8g2 = mui_get_U8g2(ui);
1437:..\u8g2\csrc/mui_u8g2.c ****   mui_u8g2_list_t *list = (mui_u8g2_list_t *)muif_get_data(ui->uif);
1438:..\u8g2\csrc/mui_u8g2.c ****   uint16_t *selection =  mui_u8g2_list_get_selection_ptr(list);
1439:..\u8g2\csrc/mui_u8g2.c ****   void *data = mui_u8g2_list_get_data_ptr(list);
1440:..\u8g2\csrc/mui_u8g2.c ****   mui_u8g2_get_list_element_cb element_cb =  mui_u8g2_list_get_element_cb(list);
1441:..\u8g2\csrc/mui_u8g2.c ****   //mui_u8g2_get_list_count_cb count_cb = mui_u8g2_list_get_count_cb(list);
1442:..\u8g2\csrc/mui_u8g2.c ****   switch(msg)
1443:..\u8g2\csrc/mui_u8g2.c ****   {
1444:..\u8g2\csrc/mui_u8g2.c ****     case MUIF_MSG_DRAW:
1445:..\u8g2\csrc/mui_u8g2.c ****       mui_u8g2_draw_button_pi(ui, 0, 1, element_cb(data, *selection));
1446:..\u8g2\csrc/mui_u8g2.c ****       //mui_u8g2_draw_button_utf(ui, mui_u8g2_get_pi_flags(ui), ui->arg, 1, MUI_U8G2_V_PADDING, ele
1447:..\u8g2\csrc/mui_u8g2.c ****       break;
1448:..\u8g2\csrc/mui_u8g2.c ****     case MUIF_MSG_FORM_START:
1449:..\u8g2\csrc/mui_u8g2.c ****       break;
1450:..\u8g2\csrc/mui_u8g2.c ****     case MUIF_MSG_FORM_END:
1451:..\u8g2\csrc/mui_u8g2.c ****       break;
1452:..\u8g2\csrc/mui_u8g2.c ****     case MUIF_MSG_CURSOR_ENTER:
1453:..\u8g2\csrc/mui_u8g2.c ****       break;
1454:..\u8g2\csrc/mui_u8g2.c ****     case MUIF_MSG_CURSOR_SELECT:
1455:..\u8g2\csrc/mui_u8g2.c ****       mui_SaveForm(ui);          // store the current form and position so that the child can jump 
1456:..\u8g2\csrc/mui_u8g2.c ****       mui_GotoForm(ui, ui->arg, *selection);  // assumes that the selectable values are at the begi
1457:..\u8g2\csrc/mui_u8g2.c ****       break;
1458:..\u8g2\csrc/mui_u8g2.c ****     case MUIF_MSG_CURSOR_LEAVE:
1459:..\u8g2\csrc/mui_u8g2.c ****       break;
1460:..\u8g2\csrc/mui_u8g2.c ****     case MUIF_MSG_TOUCH_DOWN:
1461:..\u8g2\csrc/mui_u8g2.c ****       break;
1462:..\u8g2\csrc/mui_u8g2.c ****     case MUIF_MSG_TOUCH_UP:
1463:..\u8g2\csrc/mui_u8g2.c ****       break;
1464:..\u8g2\csrc/mui_u8g2.c ****   }
1465:..\u8g2\csrc/mui_u8g2.c ****   return 0;
1466:..\u8g2\csrc/mui_u8g2.c **** }
1467:..\u8g2\csrc/mui_u8g2.c **** 
1468:..\u8g2\csrc/mui_u8g2.c **** static uint8_t mui_u8g2_u16_list_child_mse_common(mui_t *ui, uint8_t msg)
1469:..\u8g2\csrc/mui_u8g2.c **** {
 316              		.loc 1 1469 0
 317              		.cfi_startproc
 318              		@ args = 0, pretend = 0, frame = 0
 319              		@ frame_needed = 0, uses_anonymous_args = 0
 320              	.LVL44:
 321 0000 70B5     		push	{r4, r5, r6, lr}
 322              		.cfi_def_cfa_offset 16
 323              		.cfi_offset 4, -16
 324              		.cfi_offset 5, -12
 325              		.cfi_offset 6, -8
 326              		.cfi_offset 14, -4
 327 0002 0446     		mov	r4, r0
1470:..\u8g2\csrc/mui_u8g2.c ****   mui_u8g2_list_t *list = (mui_u8g2_list_t *)muif_get_data(ui->uif);
 328              		.loc 1 1470 0
 329 0004 836B     		ldr	r3, [r0, #56]
 330 0006 5B68     		ldr	r3, [r3, #4]
 331              	.LVL45:
1471:..\u8g2\csrc/mui_u8g2.c ****   uint16_t *selection =  mui_u8g2_list_get_selection_ptr(list);
 332              		.loc 1 1471 0
 333 0008 1D68     		ldr	r5, [r3]
 334              	.LVL46:
ARM GAS  C:\Users\brian\AppData\Local\Temp\ccwE2E8f.s 			page 33


1472:..\u8g2\csrc/mui_u8g2.c ****   void *data = mui_u8g2_list_get_data_ptr(list);
 335              		.loc 1 1472 0
 336 000a 5868     		ldr	r0, [r3, #4]
 337              	.LVL47:
1473:..\u8g2\csrc/mui_u8g2.c ****   //mui_u8g2_get_list_element_cb element_cb =  mui_u8g2_list_get_element_cb(list);
1474:..\u8g2\csrc/mui_u8g2.c ****   mui_u8g2_get_list_count_cb count_cb = mui_u8g2_list_get_count_cb(list);
 338              		.loc 1 1474 0
 339 000c DE68     		ldr	r6, [r3, #12]
 340              	.LVL48:
1475:..\u8g2\csrc/mui_u8g2.c **** 
1476:..\u8g2\csrc/mui_u8g2.c ****   uint8_t arg = ui->arg;        // remember the arg value, because it might be overwritten  
 341              		.loc 1 1476 0
 342 000e 94F82E20 		ldrb	r2, [r4, #46]	@ zero_extendqisi2
 343              	.LVL49:
1477:..\u8g2\csrc/mui_u8g2.c ****   
1478:..\u8g2\csrc/mui_u8g2.c ****   switch(msg)
 344              		.loc 1 1478 0
 345 0012 8B1E     		subs	r3, r1, #2
 346              	.LVL50:
 347 0014 082B     		cmp	r3, #8
 348 0016 2AD8     		bhi	.L36
 349 0018 DFE803F0 		tbb	[pc, r3]
 350              	.L29:
 351 001c 05       		.byte	(.L28-.L29)/2
 352 001d 29       		.byte	(.L36-.L29)/2
 353 001e 14       		.byte	(.L30-.L29)/2
 354 001f 18       		.byte	(.L31-.L29)/2
 355 0020 29       		.byte	(.L36-.L29)/2
 356 0021 29       		.byte	(.L36-.L29)/2
 357 0022 29       		.byte	(.L36-.L29)/2
 358 0023 21       		.byte	(.L32-.L29)/2
 359 0024 25       		.byte	(.L33-.L29)/2
 360 0025 00       		.p2align 1
 361              	.L28:
1479:..\u8g2\csrc/mui_u8g2.c ****   {
1480:..\u8g2\csrc/mui_u8g2.c ****     case MUIF_MSG_DRAW:
1481:..\u8g2\csrc/mui_u8g2.c ****       /* done by the calling function */
1482:..\u8g2\csrc/mui_u8g2.c ****       break;
1483:..\u8g2\csrc/mui_u8g2.c ****     case MUIF_MSG_FORM_START:
1484:..\u8g2\csrc/mui_u8g2.c ****       /* we can assume that the list starts at the top. It will be adjisted by cursor down events l
1485:..\u8g2\csrc/mui_u8g2.c ****       ui->form_scroll_top = 0;
 362              		.loc 1 1485 0
 363 0026 0023     		movs	r3, #0
 364 0028 6384     		strh	r3, [r4, #34]	@ movhi
 365              	.LVL51:
1486:..\u8g2\csrc/mui_u8g2.c ****       if ( ui->form_scroll_visible <= arg )
 366              		.loc 1 1486 0
 367 002a 94F82430 		ldrb	r3, [r4, #36]	@ zero_extendqisi2
 368 002e 9A42     		cmp	r2, r3
 369 0030 02D3     		bcc	.L34
1487:..\u8g2\csrc/mui_u8g2.c ****         ui->form_scroll_visible = arg+1;
 370              		.loc 1 1487 0
 371 0032 0132     		adds	r2, r2, #1
 372              	.LVL52:
 373 0034 84F82420 		strb	r2, [r4, #36]
 374              	.LVL53:
 375              	.L34:
ARM GAS  C:\Users\brian\AppData\Local\Temp\ccwE2E8f.s 			page 34


1488:..\u8g2\csrc/mui_u8g2.c ****       if ( ui->form_scroll_total == 0 )
 376              		.loc 1 1488 0
 377 0038 238C     		ldrh	r3, [r4, #32]
 378 003a D3B9     		cbnz	r3, .L37
1489:..\u8g2\csrc/mui_u8g2.c ****           ui->form_scroll_total = count_cb(data);
 379              		.loc 1 1489 0
 380 003c B047     		blx	r6
 381              	.LVL54:
 382 003e 2084     		strh	r0, [r4, #32]	@ movhi
1490:..\u8g2\csrc/mui_u8g2.c ****       break;
1491:..\u8g2\csrc/mui_u8g2.c ****     case MUIF_MSG_FORM_END:
1492:..\u8g2\csrc/mui_u8g2.c ****       break;
1493:..\u8g2\csrc/mui_u8g2.c ****     case MUIF_MSG_CURSOR_ENTER:
1494:..\u8g2\csrc/mui_u8g2.c ****       return mui_u8g2_handle_scroll_next_prev_events(ui, msg);
1495:..\u8g2\csrc/mui_u8g2.c ****     case MUIF_MSG_CURSOR_SELECT:
1496:..\u8g2\csrc/mui_u8g2.c ****       if ( selection != NULL )
1497:..\u8g2\csrc/mui_u8g2.c ****         *selection = ui->form_scroll_top + arg;
1498:..\u8g2\csrc/mui_u8g2.c ****       mui_RestoreForm(ui);
1499:..\u8g2\csrc/mui_u8g2.c ****       break;
1500:..\u8g2\csrc/mui_u8g2.c ****     case MUIF_MSG_CURSOR_LEAVE:
1501:..\u8g2\csrc/mui_u8g2.c ****       break;
1502:..\u8g2\csrc/mui_u8g2.c ****     case MUIF_MSG_TOUCH_DOWN:
1503:..\u8g2\csrc/mui_u8g2.c ****       break;
1504:..\u8g2\csrc/mui_u8g2.c ****     case MUIF_MSG_TOUCH_UP:
1505:..\u8g2\csrc/mui_u8g2.c ****       break;
1506:..\u8g2\csrc/mui_u8g2.c ****     case MUIF_MSG_EVENT_NEXT:
1507:..\u8g2\csrc/mui_u8g2.c ****       return mui_u8g2_handle_scroll_next_prev_events(ui, msg);
1508:..\u8g2\csrc/mui_u8g2.c ****     case MUIF_MSG_EVENT_PREV:
1509:..\u8g2\csrc/mui_u8g2.c ****       return mui_u8g2_handle_scroll_next_prev_events(ui, msg);
1510:..\u8g2\csrc/mui_u8g2.c ****   }
1511:..\u8g2\csrc/mui_u8g2.c ****   return 0;
 383              		.loc 1 1511 0
 384 0040 0020     		movs	r0, #0
 385 0042 70BD     		pop	{r4, r5, r6, pc}
 386              	.LVL55:
 387              	.L30:
1494:..\u8g2\csrc/mui_u8g2.c ****     case MUIF_MSG_CURSOR_SELECT:
 388              		.loc 1 1494 0
 389 0044 2046     		mov	r0, r4
 390              	.LVL56:
 391 0046 FFF7FEFF 		bl	mui_u8g2_handle_scroll_next_prev_events
 392              	.LVL57:
 393 004a 70BD     		pop	{r4, r5, r6, pc}
 394              	.LVL58:
 395              	.L31:
1496:..\u8g2\csrc/mui_u8g2.c ****         *selection = ui->form_scroll_top + arg;
 396              		.loc 1 1496 0
 397 004c 15B1     		cbz	r5, .L35
1497:..\u8g2\csrc/mui_u8g2.c ****       mui_RestoreForm(ui);
 398              		.loc 1 1497 0
 399 004e 638C     		ldrh	r3, [r4, #34]
 400 0050 1A44     		add	r2, r2, r3
 401              	.LVL59:
 402 0052 2A80     		strh	r2, [r5]	@ movhi
 403              	.LVL60:
 404              	.L35:
1498:..\u8g2\csrc/mui_u8g2.c ****       break;
ARM GAS  C:\Users\brian\AppData\Local\Temp\ccwE2E8f.s 			page 35


 405              		.loc 1 1498 0
 406 0054 2046     		mov	r0, r4
 407              	.LVL61:
 408 0056 FFF7FEFF 		bl	mui_RestoreForm
 409              	.LVL62:
 410              		.loc 1 1511 0
 411 005a 0020     		movs	r0, #0
1499:..\u8g2\csrc/mui_u8g2.c ****     case MUIF_MSG_CURSOR_LEAVE:
 412              		.loc 1 1499 0
 413 005c 70BD     		pop	{r4, r5, r6, pc}
 414              	.LVL63:
 415              	.L32:
1507:..\u8g2\csrc/mui_u8g2.c ****     case MUIF_MSG_EVENT_PREV:
 416              		.loc 1 1507 0
 417 005e 2046     		mov	r0, r4
 418              	.LVL64:
 419 0060 FFF7FEFF 		bl	mui_u8g2_handle_scroll_next_prev_events
 420              	.LVL65:
 421 0064 70BD     		pop	{r4, r5, r6, pc}
 422              	.LVL66:
 423              	.L33:
1509:..\u8g2\csrc/mui_u8g2.c ****   }
 424              		.loc 1 1509 0
 425 0066 2046     		mov	r0, r4
 426              	.LVL67:
 427 0068 FFF7FEFF 		bl	mui_u8g2_handle_scroll_next_prev_events
 428              	.LVL68:
 429 006c 70BD     		pop	{r4, r5, r6, pc}
 430              	.LVL69:
 431              	.L36:
 432              		.loc 1 1511 0
 433 006e 0020     		movs	r0, #0
 434              	.LVL70:
 435 0070 70BD     		pop	{r4, r5, r6, pc}
 436              	.LVL71:
 437              	.L37:
 438 0072 0020     		movs	r0, #0
 439              	.LVL72:
1512:..\u8g2\csrc/mui_u8g2.c **** }
 440              		.loc 1 1512 0
 441 0074 70BD     		pop	{r4, r5, r6, pc}
 442              		.cfi_endproc
 443              	.LFE41:
 444              		.size	mui_u8g2_u16_list_child_mse_common, .-mui_u8g2_u16_list_child_mse_common
 445 0076 00BF     		.section	.text.mui_get_y,"ax",%progbits
 446              		.align	2
 447              		.global	mui_get_y
 448              		.thumb
 449              		.thumb_func
 450              		.type	mui_get_y, %function
 451              	mui_get_y:
 452              	.LFB3:
 167:..\u8g2\csrc/mui_u8g2.c ****   return ui->y;
 453              		.loc 1 167 0
 454              		.cfi_startproc
 455              		@ args = 0, pretend = 0, frame = 0
 456              		@ frame_needed = 0, uses_anonymous_args = 0
ARM GAS  C:\Users\brian\AppData\Local\Temp\ccwE2E8f.s 			page 36


 457              		@ link register save eliminated.
 458              	.LVL73:
 169:..\u8g2\csrc/mui_u8g2.c **** 
 459              		.loc 1 169 0
 460 0000 90F82C00 		ldrb	r0, [r0, #44]	@ zero_extendqisi2
 461              	.LVL74:
 462 0004 7047     		bx	lr
 463              		.cfi_endproc
 464              	.LFE3:
 465              		.size	mui_get_y, .-mui_get_y
 466 0006 00BF     		.section	.text.mui_get_U8g2,"ax",%progbits
 467              		.align	2
 468              		.global	mui_get_U8g2
 469              		.thumb
 470              		.thumb_func
 471              		.type	mui_get_U8g2, %function
 472              	mui_get_U8g2:
 473              	.LFB4:
 172:..\u8g2\csrc/mui_u8g2.c ****   return (u8g2_t *)(ui->graphics_data);
 474              		.loc 1 172 0
 475              		.cfi_startproc
 476              		@ args = 0, pretend = 0, frame = 0
 477              		@ frame_needed = 0, uses_anonymous_args = 0
 478              		@ link register save eliminated.
 479              	.LVL75:
 174:..\u8g2\csrc/mui_u8g2.c **** 
 480              		.loc 1 174 0
 481 0000 0068     		ldr	r0, [r0]
 482              	.LVL76:
 483 0002 7047     		bx	lr
 484              		.cfi_endproc
 485              	.LFE4:
 486              		.size	mui_get_U8g2, .-mui_get_U8g2
 487              		.section	.text.mui_get_x,"ax",%progbits
 488              		.align	2
 489              		.global	mui_get_x
 490              		.thumb
 491              		.thumb_func
 492              		.type	mui_get_x, %function
 493              	mui_get_x:
 494              	.LFB2:
 160:..\u8g2\csrc/mui_u8g2.c ****   if ( u8g2_GetDisplayWidth(mui_get_U8g2(ui)) >= 255 )
 495              		.loc 1 160 0
 496              		.cfi_startproc
 497              		@ args = 0, pretend = 0, frame = 0
 498              		@ frame_needed = 0, uses_anonymous_args = 0
 499              	.LVL77:
 500 0000 10B5     		push	{r4, lr}
 501              		.cfi_def_cfa_offset 8
 502              		.cfi_offset 4, -8
 503              		.cfi_offset 14, -4
 504 0002 0446     		mov	r4, r0
 161:..\u8g2\csrc/mui_u8g2.c ****       return ui->x / 2;
 505              		.loc 1 161 0
 506 0004 FFF7FEFF 		bl	mui_get_U8g2
 507              	.LVL78:
 508 0008 B0F84430 		ldrh	r3, [r0, #68]
ARM GAS  C:\Users\brian\AppData\Local\Temp\ccwE2E8f.s 			page 37


 509 000c FE2B     		cmp	r3, #254
 510 000e 03D9     		bls	.L42
 162:..\u8g2\csrc/mui_u8g2.c ****   return ui->x;
 511              		.loc 1 162 0
 512 0010 94F82B00 		ldrb	r0, [r4, #43]	@ zero_extendqisi2
 513 0014 4008     		lsrs	r0, r0, #1
 514 0016 10BD     		pop	{r4, pc}
 515              	.LVL79:
 516              	.L42:
 163:..\u8g2\csrc/mui_u8g2.c **** }
 517              		.loc 1 163 0
 518 0018 94F82B00 		ldrb	r0, [r4, #43]	@ zero_extendqisi2
 164:..\u8g2\csrc/mui_u8g2.c **** 
 519              		.loc 1 164 0
 520 001c 10BD     		pop	{r4, pc}
 521              		.cfi_endproc
 522              	.LFE2:
 523              		.size	mui_get_x, .-mui_get_x
 524 001e 00BF     		.section	.text.mui_u8g2_draw_button_utf,"ax",%progbits
 525              		.align	2
 526              		.global	mui_u8g2_draw_button_utf
 527              		.thumb
 528              		.thumb_func
 529              		.type	mui_u8g2_draw_button_utf, %function
 530              	mui_u8g2_draw_button_utf:
 531              	.LFB5:
 178:..\u8g2\csrc/mui_u8g2.c ****   if ( text==NULL)
 532              		.loc 1 178 0
 533              		.cfi_startproc
 534              		@ args = 8, pretend = 0, frame = 0
 535              		@ frame_needed = 0, uses_anonymous_args = 0
 536              	.LVL80:
 537 0000 2DE9F047 		push	{r4, r5, r6, r7, r8, r9, r10, lr}
 538              		.cfi_def_cfa_offset 32
 539              		.cfi_offset 4, -32
 540              		.cfi_offset 5, -28
 541              		.cfi_offset 6, -24
 542              		.cfi_offset 7, -20
 543              		.cfi_offset 8, -16
 544              		.cfi_offset 9, -12
 545              		.cfi_offset 10, -8
 546              		.cfi_offset 14, -4
 547 0004 84B0     		sub	sp, sp, #16
 548              		.cfi_def_cfa_offset 48
 549 0006 0446     		mov	r4, r0
 550 0008 8846     		mov	r8, r1
 551 000a 9146     		mov	r9, r2
 552 000c 9A46     		mov	r10, r3
 553 000e 0D9D     		ldr	r5, [sp, #52]
 179:..\u8g2\csrc/mui_u8g2.c ****     text = "";
 554              		.loc 1 179 0
 555 0010 05B9     		cbnz	r5, .L46
 180:..\u8g2\csrc/mui_u8g2.c ****   u8g2_DrawButtonUTF8(mui_get_U8g2(ui), mui_get_x(ui), mui_get_y(ui), flags, width, padding_h, padd
 556              		.loc 1 180 0
 557 0012 0E4D     		ldr	r5, .L49
 558              	.L46:
 559              	.LVL81:
ARM GAS  C:\Users\brian\AppData\Local\Temp\ccwE2E8f.s 			page 38


 181:..\u8g2\csrc/mui_u8g2.c **** }
 560              		.loc 1 181 0
 561 0014 2046     		mov	r0, r4
 562              	.LVL82:
 563 0016 FFF7FEFF 		bl	mui_get_U8g2
 564              	.LVL83:
 565 001a 0646     		mov	r6, r0
 566 001c 2046     		mov	r0, r4
 567 001e FFF7FEFF 		bl	mui_get_x
 568              	.LVL84:
 569 0022 0746     		mov	r7, r0
 570 0024 2046     		mov	r0, r4
 571 0026 FFF7FEFF 		bl	mui_get_y
 572              	.LVL85:
 573 002a 0395     		str	r5, [sp, #12]
 574 002c BDF83030 		ldrh	r3, [sp, #48]
 575 0030 0293     		str	r3, [sp, #8]
 576 0032 CDF804A0 		str	r10, [sp, #4]
 577 0036 CDF80090 		str	r9, [sp]
 578 003a 4346     		mov	r3, r8
 579 003c 0246     		mov	r2, r0
 580 003e 3946     		mov	r1, r7
 581 0040 3046     		mov	r0, r6
 582 0042 FFF7FEFF 		bl	u8g2_DrawButtonUTF8
 583              	.LVL86:
 182:..\u8g2\csrc/mui_u8g2.c **** 
 584              		.loc 1 182 0
 585 0046 04B0     		add	sp, sp, #16
 586              		.cfi_def_cfa_offset 32
 587              		@ sp needed
 588 0048 BDE8F087 		pop	{r4, r5, r6, r7, r8, r9, r10, pc}
 589              	.LVL87:
 590              	.L50:
 591              		.align	2
 592              	.L49:
 593 004c 00000000 		.word	.LC0
 594              		.cfi_endproc
 595              	.LFE5:
 596              		.size	mui_u8g2_draw_button_utf, .-mui_u8g2_draw_button_utf
 597              		.section	.text.mui_u8g2_get_pi_flags,"ax",%progbits
 598              		.align	2
 599              		.global	mui_u8g2_get_pi_flags
 600              		.thumb
 601              		.thumb_func
 602              		.type	mui_u8g2_get_pi_flags, %function
 603              	mui_u8g2_get_pi_flags:
 604              	.LFB6:
 185:..\u8g2\csrc/mui_u8g2.c ****   u8g2_uint_t flags = 0;
 605              		.loc 1 185 0
 606              		.cfi_startproc
 607              		@ args = 0, pretend = 0, frame = 0
 608              		@ frame_needed = 0, uses_anonymous_args = 0
 609              		@ link register save eliminated.
 610              	.LVL88:
 187:..\u8g2\csrc/mui_u8g2.c ****   {
 611              		.loc 1 187 0
 612 0000 90F82D30 		ldrb	r3, [r0, #45]	@ zero_extendqisi2
ARM GAS  C:\Users\brian\AppData\Local\Temp\ccwE2E8f.s 			page 39


 613 0004 13F0010F 		tst	r3, #1
 614 0008 04D0     		beq	.L53
 615              	.LVL89:
 190:..\u8g2\csrc/mui_u8g2.c ****     {
 616              		.loc 1 190 0
 617 000a 90F82630 		ldrb	r3, [r0, #38]	@ zero_extendqisi2
 618 000e 1BB9     		cbnz	r3, .L54
 189:..\u8g2\csrc/mui_u8g2.c ****     if ( ui->is_mud )
 619              		.loc 1 189 0
 620 0010 2020     		movs	r0, #32
 621              	.LVL90:
 622 0012 7047     		bx	lr
 623              	.LVL91:
 624              	.L53:
 186:..\u8g2\csrc/mui_u8g2.c ****   if ( mui_IsCursorFocus(ui) )
 625              		.loc 1 186 0
 626 0014 0020     		movs	r0, #0
 627              	.LVL92:
 628 0016 7047     		bx	lr
 629              	.LVL93:
 630              	.L54:
 192:..\u8g2\csrc/mui_u8g2.c ****     }      
 631              		.loc 1 192 0
 632 0018 A020     		movs	r0, #160
 633              	.LVL94:
 196:..\u8g2\csrc/mui_u8g2.c **** 
 634              		.loc 1 196 0
 635 001a 7047     		bx	lr
 636              		.cfi_endproc
 637              	.LFE6:
 638              		.size	mui_u8g2_get_pi_flags, .-mui_u8g2_get_pi_flags
 639              		.section	.text.mui_u8g2_draw_button_pi,"ax",%progbits
 640              		.align	2
 641              		.global	mui_u8g2_draw_button_pi
 642              		.thumb
 643              		.thumb_func
 644              		.type	mui_u8g2_draw_button_pi, %function
 645              	mui_u8g2_draw_button_pi:
 646              	.LFB7:
 200:..\u8g2\csrc/mui_u8g2.c ****   mui_u8g2_draw_button_utf(ui, mui_u8g2_get_pi_flags(ui), width, padding_h , MUI_U8G2_V_PADDING, te
 647              		.loc 1 200 0
 648              		.cfi_startproc
 649              		@ args = 0, pretend = 0, frame = 0
 650              		@ frame_needed = 0, uses_anonymous_args = 0
 651              	.LVL95:
 652 0000 F0B5     		push	{r4, r5, r6, r7, lr}
 653              		.cfi_def_cfa_offset 20
 654              		.cfi_offset 4, -20
 655              		.cfi_offset 5, -16
 656              		.cfi_offset 6, -12
 657              		.cfi_offset 7, -8
 658              		.cfi_offset 14, -4
 659 0002 83B0     		sub	sp, sp, #12
 660              		.cfi_def_cfa_offset 32
 661 0004 0446     		mov	r4, r0
 662 0006 0D46     		mov	r5, r1
 663 0008 1646     		mov	r6, r2
ARM GAS  C:\Users\brian\AppData\Local\Temp\ccwE2E8f.s 			page 40


 664 000a 1F46     		mov	r7, r3
 201:..\u8g2\csrc/mui_u8g2.c **** }
 665              		.loc 1 201 0
 666 000c FFF7FEFF 		bl	mui_u8g2_get_pi_flags
 667              	.LVL96:
 668 0010 0197     		str	r7, [sp, #4]
 669 0012 0123     		movs	r3, #1
 670 0014 0093     		str	r3, [sp]
 671 0016 3346     		mov	r3, r6
 672 0018 2A46     		mov	r2, r5
 673 001a 0146     		mov	r1, r0
 674 001c 2046     		mov	r0, r4
 675 001e FFF7FEFF 		bl	mui_u8g2_draw_button_utf
 676              	.LVL97:
 202:..\u8g2\csrc/mui_u8g2.c **** 
 677              		.loc 1 202 0
 678 0022 03B0     		add	sp, sp, #12
 679              		.cfi_def_cfa_offset 20
 680              		@ sp needed
 681 0024 F0BD     		pop	{r4, r5, r6, r7, pc}
 682              		.cfi_endproc
 683              	.LFE7:
 684              		.size	mui_u8g2_draw_button_pi, .-mui_u8g2_draw_button_pi
 685 0026 00BF     		.section	.text.mui_u8g2_u8_vmm_draw_wm_pi,"ax",%progbits
 686              		.align	2
 687              		.thumb
 688              		.thumb_func
 689              		.type	mui_u8g2_u8_vmm_draw_wm_pi, %function
 690              	mui_u8g2_u8_vmm_draw_wm_pi:
 691              	.LFB19:
 522:..\u8g2\csrc/mui_u8g2.c ****   u8g2_t *u8g2 = mui_get_U8g2(ui);
 692              		.loc 1 522 0
 693              		.cfi_startproc
 694              		@ args = 0, pretend = 0, frame = 0
 695              		@ frame_needed = 0, uses_anonymous_args = 0
 696              	.LVL98:
 697 0000 F8B5     		push	{r3, r4, r5, r6, r7, lr}
 698              		.cfi_def_cfa_offset 24
 699              		.cfi_offset 3, -24
 700              		.cfi_offset 4, -20
 701              		.cfi_offset 5, -16
 702              		.cfi_offset 6, -12
 703              		.cfi_offset 7, -8
 704              		.cfi_offset 14, -4
 705 0002 0746     		mov	r7, r0
 523:..\u8g2\csrc/mui_u8g2.c ****   mui_u8g2_u8_min_max_t *vmm= (mui_u8g2_u8_min_max_t *)muif_get_data(ui->uif);
 706              		.loc 1 523 0
 707 0004 FFF7FEFF 		bl	mui_get_U8g2
 708              	.LVL99:
 524:..\u8g2\csrc/mui_u8g2.c ****   char *s = "999";
 709              		.loc 1 524 0
 710 0008 BB6B     		ldr	r3, [r7, #56]
 711 000a 5B68     		ldr	r3, [r3, #4]
 712              	.LVL100:
 526:..\u8g2\csrc/mui_u8g2.c ****   uint8_t min = mui_u8g2_u8mm_get_min(vmm);
 713              		.loc 1 526 0
 714 000c 1C68     		ldr	r4, [r3]
ARM GAS  C:\Users\brian\AppData\Local\Temp\ccwE2E8f.s 			page 41


 715              	.LVL101:
 527:..\u8g2\csrc/mui_u8g2.c ****   uint8_t max = mui_u8g2_u8mm_get_max(vmm);
 716              		.loc 1 527 0
 717 000e 1A79     		ldrb	r2, [r3, #4]	@ zero_extendqisi2
 718              	.LVL102:
 528:..\u8g2\csrc/mui_u8g2.c ****   uint8_t cnt = 3;
 719              		.loc 1 528 0
 720 0010 5B79     		ldrb	r3, [r3, #5]	@ zero_extendqisi2
 721              	.LVL103:
 531:..\u8g2\csrc/mui_u8g2.c ****     *value = max;
 722              		.loc 1 531 0
 723 0012 2178     		ldrb	r1, [r4]	@ zero_extendqisi2
 724 0014 8B42     		cmp	r3, r1
 725 0016 00D2     		bcs	.L58
 532:..\u8g2\csrc/mui_u8g2.c ****   if ( *value <= min )
 726              		.loc 1 532 0
 727 0018 2370     		strb	r3, [r4]
 728              	.LVL104:
 729              	.L58:
 533:..\u8g2\csrc/mui_u8g2.c ****     *value = min;
 730              		.loc 1 533 0
 731 001a 2178     		ldrb	r1, [r4]	@ zero_extendqisi2
 732 001c 8A42     		cmp	r2, r1
 733 001e 00D3     		bcc	.L59
 534:..\u8g2\csrc/mui_u8g2.c ****   if ( max < 100 )
 734              		.loc 1 534 0
 735 0020 2270     		strb	r2, [r4]
 736              	.L59:
 535:..\u8g2\csrc/mui_u8g2.c ****   {
 737              		.loc 1 535 0
 738 0022 632B     		cmp	r3, #99
 739 0024 02D9     		bls	.L62
 529:..\u8g2\csrc/mui_u8g2.c ****   
 740              		.loc 1 529 0
 741 0026 0325     		movs	r5, #3
 525:..\u8g2\csrc/mui_u8g2.c ****   uint8_t *value = mui_u8g2_u8mm_get_valptr(vmm);
 742              		.loc 1 525 0
 743 0028 0B49     		ldr	r1, .L64
 744 002a 01E0     		b	.L60
 745              	.L62:
 538:..\u8g2\csrc/mui_u8g2.c ****   }
 746              		.loc 1 538 0
 747 002c 0225     		movs	r5, #2
 537:..\u8g2\csrc/mui_u8g2.c ****     cnt--;
 748              		.loc 1 537 0
 749 002e 0B49     		ldr	r1, .L64+4
 750              	.L60:
 751              	.LVL105:
 540:..\u8g2\csrc/mui_u8g2.c ****   {
 752              		.loc 1 540 0
 753 0030 092B     		cmp	r3, #9
 754 0032 02D8     		bhi	.L61
 542:..\u8g2\csrc/mui_u8g2.c ****     cnt--;
 755              		.loc 1 542 0
 756 0034 0131     		adds	r1, r1, #1
 757              	.LVL106:
 543:..\u8g2\csrc/mui_u8g2.c ****   }
ARM GAS  C:\Users\brian\AppData\Local\Temp\ccwE2E8f.s 			page 42


 758              		.loc 1 543 0
 759 0036 013D     		subs	r5, r5, #1
 760              	.LVL107:
 761 0038 EDB2     		uxtb	r5, r5
 762              	.LVL108:
 763              	.L61:
 546:..\u8g2\csrc/mui_u8g2.c **** }
 764              		.loc 1 546 0
 765 003a FFF7FEFF 		bl	u8g2_GetStrWidth
 766              	.LVL109:
 767 003e 0646     		mov	r6, r0
 768 0040 2946     		mov	r1, r5
 769 0042 2078     		ldrb	r0, [r4]	@ zero_extendqisi2
 770 0044 FFF7FEFF 		bl	u8x8_u8toa
 771              	.LVL110:
 772 0048 711C     		adds	r1, r6, #1
 773 004a 0346     		mov	r3, r0
 774 004c 0122     		movs	r2, #1
 775 004e 89B2     		uxth	r1, r1
 776 0050 3846     		mov	r0, r7
 777 0052 FFF7FEFF 		bl	mui_u8g2_draw_button_pi
 778              	.LVL111:
 779 0056 F8BD     		pop	{r3, r4, r5, r6, r7, pc}
 780              	.LVL112:
 781              	.L65:
 782              		.align	2
 783              	.L64:
 784 0058 04000000 		.word	.LC1
 785 005c 01000000 		.word	.LC1+1
 786              		.cfi_endproc
 787              	.LFE19:
 788              		.size	mui_u8g2_u8_vmm_draw_wm_pi, .-mui_u8g2_u8_vmm_draw_wm_pi
 789              		.section	.text.mui_u8g2_get_fi_flags,"ax",%progbits
 790              		.align	2
 791              		.global	mui_u8g2_get_fi_flags
 792              		.thumb
 793              		.thumb_func
 794              		.type	mui_u8g2_get_fi_flags, %function
 795              	mui_u8g2_get_fi_flags:
 796              	.LFB8:
 206:..\u8g2\csrc/mui_u8g2.c ****   u8g2_uint_t flags = 1;
 797              		.loc 1 206 0
 798              		.cfi_startproc
 799              		@ args = 0, pretend = 0, frame = 0
 800              		@ frame_needed = 0, uses_anonymous_args = 0
 801              		@ link register save eliminated.
 802              	.LVL113:
 208:..\u8g2\csrc/mui_u8g2.c ****   {
 803              		.loc 1 208 0
 804 0000 90F82D30 		ldrb	r3, [r0, #45]	@ zero_extendqisi2
 805 0004 13F0010F 		tst	r3, #1
 806 0008 04D0     		beq	.L68
 807              	.LVL114:
 211:..\u8g2\csrc/mui_u8g2.c ****     {
 808              		.loc 1 211 0
 809 000a 90F82630 		ldrb	r3, [r0, #38]	@ zero_extendqisi2
 810 000e 1BB9     		cbnz	r3, .L69
ARM GAS  C:\Users\brian\AppData\Local\Temp\ccwE2E8f.s 			page 43


 210:..\u8g2\csrc/mui_u8g2.c ****     if ( ui->is_mud )
 811              		.loc 1 210 0
 812 0010 2120     		movs	r0, #33
 813              	.LVL115:
 814 0012 7047     		bx	lr
 815              	.LVL116:
 816              	.L68:
 207:..\u8g2\csrc/mui_u8g2.c ****   if ( mui_IsCursorFocus(ui) )
 817              		.loc 1 207 0
 818 0014 0120     		movs	r0, #1
 819              	.LVL117:
 820 0016 7047     		bx	lr
 821              	.LVL118:
 822              	.L69:
 213:..\u8g2\csrc/mui_u8g2.c ****     }      
 823              		.loc 1 213 0
 824 0018 0120     		movs	r0, #1
 825              	.LVL119:
 217:..\u8g2\csrc/mui_u8g2.c **** 
 826              		.loc 1 217 0
 827 001a 7047     		bx	lr
 828              		.cfi_endproc
 829              	.LFE8:
 830              		.size	mui_u8g2_get_fi_flags, .-mui_u8g2_get_fi_flags
 831              		.section	.text.mui_u8g2_draw_button_fi,"ax",%progbits
 832              		.align	2
 833              		.global	mui_u8g2_draw_button_fi
 834              		.thumb
 835              		.thumb_func
 836              		.type	mui_u8g2_draw_button_fi, %function
 837              	mui_u8g2_draw_button_fi:
 838              	.LFB9:
 220:..\u8g2\csrc/mui_u8g2.c ****   mui_u8g2_draw_button_utf(ui, mui_u8g2_get_fi_flags(ui), width, padding_h , MUI_U8G2_V_PADDING, te
 839              		.loc 1 220 0
 840              		.cfi_startproc
 841              		@ args = 0, pretend = 0, frame = 0
 842              		@ frame_needed = 0, uses_anonymous_args = 0
 843              	.LVL120:
 844 0000 F0B5     		push	{r4, r5, r6, r7, lr}
 845              		.cfi_def_cfa_offset 20
 846              		.cfi_offset 4, -20
 847              		.cfi_offset 5, -16
 848              		.cfi_offset 6, -12
 849              		.cfi_offset 7, -8
 850              		.cfi_offset 14, -4
 851 0002 83B0     		sub	sp, sp, #12
 852              		.cfi_def_cfa_offset 32
 853 0004 0446     		mov	r4, r0
 854 0006 0D46     		mov	r5, r1
 855 0008 1646     		mov	r6, r2
 856 000a 1F46     		mov	r7, r3
 221:..\u8g2\csrc/mui_u8g2.c **** }
 857              		.loc 1 221 0
 858 000c FFF7FEFF 		bl	mui_u8g2_get_fi_flags
 859              	.LVL121:
 860 0010 0197     		str	r7, [sp, #4]
 861 0012 0123     		movs	r3, #1
ARM GAS  C:\Users\brian\AppData\Local\Temp\ccwE2E8f.s 			page 44


 862 0014 0093     		str	r3, [sp]
 863 0016 3346     		mov	r3, r6
 864 0018 2A46     		mov	r2, r5
 865 001a 0146     		mov	r1, r0
 866 001c 2046     		mov	r0, r4
 867 001e FFF7FEFF 		bl	mui_u8g2_draw_button_utf
 868              	.LVL122:
 222:..\u8g2\csrc/mui_u8g2.c **** 
 869              		.loc 1 222 0
 870 0022 03B0     		add	sp, sp, #12
 871              		.cfi_def_cfa_offset 20
 872              		@ sp needed
 873 0024 F0BD     		pop	{r4, r5, r6, r7, pc}
 874              		.cfi_endproc
 875              	.LFE9:
 876              		.size	mui_u8g2_draw_button_fi, .-mui_u8g2_draw_button_fi
 877 0026 00BF     		.section	.text.mui_u8g2_get_pf_flags,"ax",%progbits
 878              		.align	2
 879              		.global	mui_u8g2_get_pf_flags
 880              		.thumb
 881              		.thumb_func
 882              		.type	mui_u8g2_get_pf_flags, %function
 883              	mui_u8g2_get_pf_flags:
 884              	.LFB10:
 226:..\u8g2\csrc/mui_u8g2.c ****   u8g2_uint_t flags = 0;
 885              		.loc 1 226 0
 886              		.cfi_startproc
 887              		@ args = 0, pretend = 0, frame = 0
 888              		@ frame_needed = 0, uses_anonymous_args = 0
 889              		@ link register save eliminated.
 890              	.LVL123:
 228:..\u8g2\csrc/mui_u8g2.c ****   {
 891              		.loc 1 228 0
 892 0000 90F82D30 		ldrb	r3, [r0, #45]	@ zero_extendqisi2
 893 0004 13F0010F 		tst	r3, #1
 894 0008 04D0     		beq	.L74
 895              	.LVL124:
 231:..\u8g2\csrc/mui_u8g2.c ****     {
 896              		.loc 1 231 0
 897 000a 90F82630 		ldrb	r3, [r0, #38]	@ zero_extendqisi2
 898 000e 1BB9     		cbnz	r3, .L75
 230:..\u8g2\csrc/mui_u8g2.c ****     if ( ui->is_mud )
 899              		.loc 1 230 0
 900 0010 0120     		movs	r0, #1
 901              	.LVL125:
 902 0012 7047     		bx	lr
 903              	.LVL126:
 904              	.L74:
 227:..\u8g2\csrc/mui_u8g2.c ****   if ( mui_IsCursorFocus(ui) )
 905              		.loc 1 227 0
 906 0014 0020     		movs	r0, #0
 907              	.LVL127:
 908 0016 7047     		bx	lr
 909              	.LVL128:
 910              	.L75:
 233:..\u8g2\csrc/mui_u8g2.c ****     }      
 911              		.loc 1 233 0
ARM GAS  C:\Users\brian\AppData\Local\Temp\ccwE2E8f.s 			page 45


 912 0018 2120     		movs	r0, #33
 913              	.LVL129:
 237:..\u8g2\csrc/mui_u8g2.c **** 
 914              		.loc 1 237 0
 915 001a 7047     		bx	lr
 916              		.cfi_endproc
 917              	.LFE10:
 918              		.size	mui_u8g2_get_pf_flags, .-mui_u8g2_get_pf_flags
 919              		.section	.text.mui_u8g2_draw_button_pf,"ax",%progbits
 920              		.align	2
 921              		.global	mui_u8g2_draw_button_pf
 922              		.thumb
 923              		.thumb_func
 924              		.type	mui_u8g2_draw_button_pf, %function
 925              	mui_u8g2_draw_button_pf:
 926              	.LFB11:
 240:..\u8g2\csrc/mui_u8g2.c ****   mui_u8g2_draw_button_utf(ui, mui_u8g2_get_pf_flags(ui), width, padding_h , MUI_U8G2_V_PADDING, te
 927              		.loc 1 240 0
 928              		.cfi_startproc
 929              		@ args = 0, pretend = 0, frame = 0
 930              		@ frame_needed = 0, uses_anonymous_args = 0
 931              	.LVL130:
 932 0000 F0B5     		push	{r4, r5, r6, r7, lr}
 933              		.cfi_def_cfa_offset 20
 934              		.cfi_offset 4, -20
 935              		.cfi_offset 5, -16
 936              		.cfi_offset 6, -12
 937              		.cfi_offset 7, -8
 938              		.cfi_offset 14, -4
 939 0002 83B0     		sub	sp, sp, #12
 940              		.cfi_def_cfa_offset 32
 941 0004 0446     		mov	r4, r0
 942 0006 0D46     		mov	r5, r1
 943 0008 1646     		mov	r6, r2
 944 000a 1F46     		mov	r7, r3
 241:..\u8g2\csrc/mui_u8g2.c **** }
 945              		.loc 1 241 0
 946 000c FFF7FEFF 		bl	mui_u8g2_get_pf_flags
 947              	.LVL131:
 948 0010 0197     		str	r7, [sp, #4]
 949 0012 0123     		movs	r3, #1
 950 0014 0093     		str	r3, [sp]
 951 0016 3346     		mov	r3, r6
 952 0018 2A46     		mov	r2, r5
 953 001a 0146     		mov	r1, r0
 954 001c 2046     		mov	r0, r4
 955 001e FFF7FEFF 		bl	mui_u8g2_draw_button_utf
 956              	.LVL132:
 242:..\u8g2\csrc/mui_u8g2.c **** 
 957              		.loc 1 242 0
 958 0022 03B0     		add	sp, sp, #12
 959              		.cfi_def_cfa_offset 20
 960              		@ sp needed
 961 0024 F0BD     		pop	{r4, r5, r6, r7, pc}
 962              		.cfi_endproc
 963              	.LFE11:
 964              		.size	mui_u8g2_draw_button_pf, .-mui_u8g2_draw_button_pf
ARM GAS  C:\Users\brian\AppData\Local\Temp\ccwE2E8f.s 			page 46


 965 0026 00BF     		.section	.text.mui_u8g2_u8_vmm_draw_wm_pf,"ax",%progbits
 966              		.align	2
 967              		.thumb
 968              		.thumb_func
 969              		.type	mui_u8g2_u8_vmm_draw_wm_pf, %function
 970              	mui_u8g2_u8_vmm_draw_wm_pf:
 971              	.LFB22:
 635:..\u8g2\csrc/mui_u8g2.c ****   u8g2_t *u8g2 = mui_get_U8g2(ui);
 972              		.loc 1 635 0
 973              		.cfi_startproc
 974              		@ args = 0, pretend = 0, frame = 0
 975              		@ frame_needed = 0, uses_anonymous_args = 0
 976              	.LVL133:
 977 0000 F8B5     		push	{r3, r4, r5, r6, r7, lr}
 978              		.cfi_def_cfa_offset 24
 979              		.cfi_offset 3, -24
 980              		.cfi_offset 4, -20
 981              		.cfi_offset 5, -16
 982              		.cfi_offset 6, -12
 983              		.cfi_offset 7, -8
 984              		.cfi_offset 14, -4
 985 0002 0746     		mov	r7, r0
 636:..\u8g2\csrc/mui_u8g2.c ****   mui_u8g2_u8_min_max_t *vmm= (mui_u8g2_u8_min_max_t *)muif_get_data(ui->uif);
 986              		.loc 1 636 0
 987 0004 FFF7FEFF 		bl	mui_get_U8g2
 988              	.LVL134:
 637:..\u8g2\csrc/mui_u8g2.c ****   char *s = "999";
 989              		.loc 1 637 0
 990 0008 BB6B     		ldr	r3, [r7, #56]
 991 000a 5B68     		ldr	r3, [r3, #4]
 992              	.LVL135:
 639:..\u8g2\csrc/mui_u8g2.c ****   uint8_t min = mui_u8g2_u8mm_get_min(vmm);
 993              		.loc 1 639 0
 994 000c 1C68     		ldr	r4, [r3]
 995              	.LVL136:
 640:..\u8g2\csrc/mui_u8g2.c ****   uint8_t max = mui_u8g2_u8mm_get_max(vmm);
 996              		.loc 1 640 0
 997 000e 1A79     		ldrb	r2, [r3, #4]	@ zero_extendqisi2
 998              	.LVL137:
 641:..\u8g2\csrc/mui_u8g2.c ****   uint8_t cnt = 3;
 999              		.loc 1 641 0
 1000 0010 5B79     		ldrb	r3, [r3, #5]	@ zero_extendqisi2
 1001              	.LVL138:
 644:..\u8g2\csrc/mui_u8g2.c ****     *value = max;
 1002              		.loc 1 644 0
 1003 0012 2178     		ldrb	r1, [r4]	@ zero_extendqisi2
 1004 0014 8B42     		cmp	r3, r1
 1005 0016 00D2     		bcs	.L79
 645:..\u8g2\csrc/mui_u8g2.c ****   if ( *value <= min )
 1006              		.loc 1 645 0
 1007 0018 2370     		strb	r3, [r4]
 1008              	.LVL139:
 1009              	.L79:
 646:..\u8g2\csrc/mui_u8g2.c ****     *value = min;
 1010              		.loc 1 646 0
 1011 001a 2178     		ldrb	r1, [r4]	@ zero_extendqisi2
 1012 001c 8A42     		cmp	r2, r1
ARM GAS  C:\Users\brian\AppData\Local\Temp\ccwE2E8f.s 			page 47


 1013 001e 00D3     		bcc	.L80
 647:..\u8g2\csrc/mui_u8g2.c ****   if ( max < 100 )
 1014              		.loc 1 647 0
 1015 0020 2270     		strb	r2, [r4]
 1016              	.L80:
 648:..\u8g2\csrc/mui_u8g2.c ****   {
 1017              		.loc 1 648 0
 1018 0022 632B     		cmp	r3, #99
 1019 0024 02D9     		bls	.L83
 642:..\u8g2\csrc/mui_u8g2.c ****   
 1020              		.loc 1 642 0
 1021 0026 0325     		movs	r5, #3
 638:..\u8g2\csrc/mui_u8g2.c ****   uint8_t *value = mui_u8g2_u8mm_get_valptr(vmm);
 1022              		.loc 1 638 0
 1023 0028 0B49     		ldr	r1, .L85
 1024 002a 01E0     		b	.L81
 1025              	.L83:
 651:..\u8g2\csrc/mui_u8g2.c ****   }
 1026              		.loc 1 651 0
 1027 002c 0225     		movs	r5, #2
 650:..\u8g2\csrc/mui_u8g2.c ****     cnt--;
 1028              		.loc 1 650 0
 1029 002e 0B49     		ldr	r1, .L85+4
 1030              	.L81:
 1031              	.LVL140:
 653:..\u8g2\csrc/mui_u8g2.c ****   {
 1032              		.loc 1 653 0
 1033 0030 092B     		cmp	r3, #9
 1034 0032 02D8     		bhi	.L82
 655:..\u8g2\csrc/mui_u8g2.c ****     cnt--;
 1035              		.loc 1 655 0
 1036 0034 0131     		adds	r1, r1, #1
 1037              	.LVL141:
 656:..\u8g2\csrc/mui_u8g2.c ****   }
 1038              		.loc 1 656 0
 1039 0036 013D     		subs	r5, r5, #1
 1040              	.LVL142:
 1041 0038 EDB2     		uxtb	r5, r5
 1042              	.LVL143:
 1043              	.L82:
 659:..\u8g2\csrc/mui_u8g2.c **** }
 1044              		.loc 1 659 0
 1045 003a FFF7FEFF 		bl	u8g2_GetStrWidth
 1046              	.LVL144:
 1047 003e 0646     		mov	r6, r0
 1048 0040 2946     		mov	r1, r5
 1049 0042 2078     		ldrb	r0, [r4]	@ zero_extendqisi2
 1050 0044 FFF7FEFF 		bl	u8x8_u8toa
 1051              	.LVL145:
 1052 0048 711C     		adds	r1, r6, #1
 1053 004a 0346     		mov	r3, r0
 1054 004c 0122     		movs	r2, #1
 1055 004e 89B2     		uxth	r1, r1
 1056 0050 3846     		mov	r0, r7
 1057 0052 FFF7FEFF 		bl	mui_u8g2_draw_button_pf
 1058              	.LVL146:
 1059 0056 F8BD     		pop	{r3, r4, r5, r6, r7, pc}
ARM GAS  C:\Users\brian\AppData\Local\Temp\ccwE2E8f.s 			page 48


 1060              	.LVL147:
 1061              	.L86:
 1062              		.align	2
 1063              	.L85:
 1064 0058 04000000 		.word	.LC1
 1065 005c 01000000 		.word	.LC1+1
 1066              		.cfi_endproc
 1067              	.LFE22:
 1068              		.size	mui_u8g2_u8_vmm_draw_wm_pf, .-mui_u8g2_u8_vmm_draw_wm_pf
 1069              		.section	.text.mui_u8g2_draw_text,"ax",%progbits
 1070              		.align	2
 1071              		.global	mui_u8g2_draw_text
 1072              		.thumb
 1073              		.thumb_func
 1074              		.type	mui_u8g2_draw_text, %function
 1075              	mui_u8g2_draw_text:
 1076              	.LFB13:
 301:..\u8g2\csrc/mui_u8g2.c ****   switch(msg)
 1077              		.loc 1 301 0
 1078              		.cfi_startproc
 1079              		@ args = 0, pretend = 0, frame = 0
 1080              		@ frame_needed = 0, uses_anonymous_args = 0
 1081              	.LVL148:
 302:..\u8g2\csrc/mui_u8g2.c ****   {
 1082              		.loc 1 302 0
 1083 0000 0129     		cmp	r1, #1
 1084 0002 14D1     		bne	.L91
 301:..\u8g2\csrc/mui_u8g2.c ****   switch(msg)
 1085              		.loc 1 301 0
 1086 0004 70B5     		push	{r4, r5, r6, lr}
 1087              		.cfi_def_cfa_offset 16
 1088              		.cfi_offset 4, -16
 1089              		.cfi_offset 5, -12
 1090              		.cfi_offset 6, -8
 1091              		.cfi_offset 14, -4
 1092 0006 0446     		mov	r4, r0
 305:..\u8g2\csrc/mui_u8g2.c ****       break;
 1093              		.loc 1 305 0
 1094 0008 FFF7FEFF 		bl	mui_get_U8g2
 1095              	.LVL149:
 1096 000c 0546     		mov	r5, r0
 1097 000e 2046     		mov	r0, r4
 1098 0010 FFF7FEFF 		bl	mui_get_x
 1099              	.LVL150:
 1100 0014 0646     		mov	r6, r0
 1101 0016 2046     		mov	r0, r4
 1102 0018 FFF7FEFF 		bl	mui_get_y
 1103              	.LVL151:
 1104 001c 04F13C03 		add	r3, r4, #60
 1105 0020 0246     		mov	r2, r0
 1106 0022 3146     		mov	r1, r6
 1107 0024 2846     		mov	r0, r5
 1108 0026 FFF7FEFF 		bl	u8g2_DrawStr
 1109              	.LVL152:
 323:..\u8g2\csrc/mui_u8g2.c **** 
 1110              		.loc 1 323 0
 1111 002a 0020     		movs	r0, #0
ARM GAS  C:\Users\brian\AppData\Local\Temp\ccwE2E8f.s 			page 49


 1112 002c 70BD     		pop	{r4, r5, r6, pc}
 1113              	.LVL153:
 1114              	.L91:
 1115              		.cfi_def_cfa_offset 0
 1116              		.cfi_restore 4
 1117              		.cfi_restore 5
 1118              		.cfi_restore 6
 1119              		.cfi_restore 14
 1120 002e 0020     		movs	r0, #0
 1121              	.LVL154:
 1122 0030 7047     		bx	lr
 1123              		.cfi_endproc
 1124              	.LFE13:
 1125              		.size	mui_u8g2_draw_text, .-mui_u8g2_draw_text
 1126 0032 00BF     		.section	.text.mui_u8g2_btn_goto_wm_fi,"ax",%progbits
 1127              		.align	2
 1128              		.global	mui_u8g2_btn_goto_wm_fi
 1129              		.thumb
 1130              		.thumb_func
 1131              		.type	mui_u8g2_btn_goto_wm_fi, %function
 1132              	mui_u8g2_btn_goto_wm_fi:
 1133              	.LFB14:
 352:..\u8g2\csrc/mui_u8g2.c ****   switch(msg)
 1134              		.loc 1 352 0
 1135              		.cfi_startproc
 1136              		@ args = 0, pretend = 0, frame = 0
 1137              		@ frame_needed = 0, uses_anonymous_args = 0
 1138              	.LVL155:
 1139 0000 10B5     		push	{r4, lr}
 1140              		.cfi_def_cfa_offset 8
 1141              		.cfi_offset 4, -8
 1142              		.cfi_offset 14, -4
 1143 0002 82B0     		sub	sp, sp, #8
 1144              		.cfi_def_cfa_offset 16
 1145 0004 0446     		mov	r4, r0
 353:..\u8g2\csrc/mui_u8g2.c ****   {
 1146              		.loc 1 353 0
 1147 0006 0129     		cmp	r1, #1
 1148 0008 02D0     		beq	.L94
 1149 000a 0529     		cmp	r1, #5
 1150 000c 10D0     		beq	.L95
 1151 000e 15E0     		b	.L97
 1152              	.L94:
 356:..\u8g2\csrc/mui_u8g2.c ****       break;
 1153              		.loc 1 356 0
 1154 0010 FFF7FEFF 		bl	mui_u8g2_get_fi_flags
 1155              	.LVL156:
 1156 0014 04F13C03 		add	r3, r4, #60
 1157 0018 40F04001 		orr	r1, r0, #64
 1158 001c 0193     		str	r3, [sp, #4]
 1159 001e 0123     		movs	r3, #1
 1160 0020 0093     		str	r3, [sp]
 1161 0022 0022     		movs	r2, #0
 1162 0024 89B2     		uxth	r1, r1
 1163 0026 2046     		mov	r0, r4
 1164 0028 FFF7FEFF 		bl	mui_u8g2_draw_button_utf
 1165              	.LVL157:
ARM GAS  C:\Users\brian\AppData\Local\Temp\ccwE2E8f.s 			page 50


 374:..\u8g2\csrc/mui_u8g2.c **** }
 1166              		.loc 1 374 0
 1167 002c 0020     		movs	r0, #0
 357:..\u8g2\csrc/mui_u8g2.c ****     case MUIF_MSG_FORM_START:
 1168              		.loc 1 357 0
 1169 002e 06E0     		b	.L93
 1170              	.LVL158:
 1171              	.L95:
 365:..\u8g2\csrc/mui_u8g2.c ****     case MUIF_MSG_CURSOR_LEAVE:
 1172              		.loc 1 365 0
 1173 0030 0022     		movs	r2, #0
 1174 0032 90F82E10 		ldrb	r1, [r0, #46]	@ zero_extendqisi2
 1175              	.LVL159:
 1176 0036 FFF7FEFF 		bl	mui_GotoForm
 1177              	.LVL160:
 1178 003a 00E0     		b	.L93
 1179              	.LVL161:
 1180              	.L97:
 374:..\u8g2\csrc/mui_u8g2.c **** }
 1181              		.loc 1 374 0
 1182 003c 0020     		movs	r0, #0
 1183              	.LVL162:
 1184              	.L93:
 375:..\u8g2\csrc/mui_u8g2.c **** 
 1185              		.loc 1 375 0
 1186 003e 02B0     		add	sp, sp, #8
 1187              		.cfi_def_cfa_offset 8
 1188              		@ sp needed
 1189 0040 10BD     		pop	{r4, pc}
 1190              		.cfi_endproc
 1191              	.LFE14:
 1192              		.size	mui_u8g2_btn_goto_wm_fi, .-mui_u8g2_btn_goto_wm_fi
 1193 0042 00BF     		.section	.text.mui_u8g2_btn_goto_w2_fi,"ax",%progbits
 1194              		.align	2
 1195              		.global	mui_u8g2_btn_goto_w2_fi
 1196              		.thumb
 1197              		.thumb_func
 1198              		.type	mui_u8g2_btn_goto_w2_fi, %function
 1199              	mui_u8g2_btn_goto_w2_fi:
 1200              	.LFB15:
 378:..\u8g2\csrc/mui_u8g2.c ****   u8g2_t *u8g2 = mui_get_U8g2(ui);
 1201              		.loc 1 378 0
 1202              		.cfi_startproc
 1203              		@ args = 0, pretend = 0, frame = 0
 1204              		@ frame_needed = 0, uses_anonymous_args = 0
 1205              	.LVL163:
 1206 0000 70B5     		push	{r4, r5, r6, lr}
 1207              		.cfi_def_cfa_offset 16
 1208              		.cfi_offset 4, -16
 1209              		.cfi_offset 5, -12
 1210              		.cfi_offset 6, -8
 1211              		.cfi_offset 14, -4
 1212 0002 82B0     		sub	sp, sp, #8
 1213              		.cfi_def_cfa_offset 24
 1214 0004 0546     		mov	r5, r0
 1215 0006 0C46     		mov	r4, r1
 379:..\u8g2\csrc/mui_u8g2.c ****   switch(msg)
ARM GAS  C:\Users\brian\AppData\Local\Temp\ccwE2E8f.s 			page 51


 1216              		.loc 1 379 0
 1217 0008 FFF7FEFF 		bl	mui_get_U8g2
 1218              	.LVL164:
 380:..\u8g2\csrc/mui_u8g2.c ****   {
 1219              		.loc 1 380 0
 1220 000c 012C     		cmp	r4, #1
 1221 000e 02D0     		beq	.L101
 1222 0010 052C     		cmp	r4, #5
 1223 0012 17D0     		beq	.L102
 1224 0014 1DE0     		b	.L104
 1225              	.L101:
 1226 0016 0646     		mov	r6, r0
 383:..\u8g2\csrc/mui_u8g2.c ****       break;
 1227              		.loc 1 383 0
 1228 0018 2846     		mov	r0, r5
 1229              	.LVL165:
 1230 001a FFF7FEFF 		bl	mui_u8g2_get_fi_flags
 1231              	.LVL166:
 1232 001e B6F84420 		ldrh	r2, [r6, #68]
 1233 0022 05F13C03 		add	r3, r5, #60
 1234 0026 5208     		lsrs	r2, r2, #1
 1235 0028 0A3A     		subs	r2, r2, #10
 1236 002a 40F04001 		orr	r1, r0, #64
 1237 002e 0193     		str	r3, [sp, #4]
 1238 0030 0123     		movs	r3, #1
 1239 0032 0093     		str	r3, [sp]
 1240 0034 0023     		movs	r3, #0
 1241 0036 92B2     		uxth	r2, r2
 1242 0038 89B2     		uxth	r1, r1
 1243 003a 2846     		mov	r0, r5
 1244 003c FFF7FEFF 		bl	mui_u8g2_draw_button_utf
 1245              	.LVL167:
 400:..\u8g2\csrc/mui_u8g2.c **** }
 1246              		.loc 1 400 0
 1247 0040 0020     		movs	r0, #0
 384:..\u8g2\csrc/mui_u8g2.c ****     case MUIF_MSG_FORM_START:
 1248              		.loc 1 384 0
 1249 0042 07E0     		b	.L100
 1250              	.LVL168:
 1251              	.L102:
 392:..\u8g2\csrc/mui_u8g2.c ****     case MUIF_MSG_CURSOR_LEAVE:
 1252              		.loc 1 392 0
 1253 0044 0022     		movs	r2, #0
 1254 0046 95F82E10 		ldrb	r1, [r5, #46]	@ zero_extendqisi2
 1255 004a 2846     		mov	r0, r5
 1256              	.LVL169:
 1257 004c FFF7FEFF 		bl	mui_GotoForm
 1258              	.LVL170:
 1259 0050 00E0     		b	.L100
 1260              	.LVL171:
 1261              	.L104:
 400:..\u8g2\csrc/mui_u8g2.c **** }
 1262              		.loc 1 400 0
 1263 0052 0020     		movs	r0, #0
 1264              	.LVL172:
 1265              	.L100:
 401:..\u8g2\csrc/mui_u8g2.c **** 
ARM GAS  C:\Users\brian\AppData\Local\Temp\ccwE2E8f.s 			page 52


 1266              		.loc 1 401 0
 1267 0054 02B0     		add	sp, sp, #8
 1268              		.cfi_def_cfa_offset 16
 1269              		@ sp needed
 1270 0056 70BD     		pop	{r4, r5, r6, pc}
 1271              		.cfi_endproc
 1272              	.LFE15:
 1273              		.size	mui_u8g2_btn_goto_w2_fi, .-mui_u8g2_btn_goto_w2_fi
 1274              		.section	.text.mui_u8g2_btn_exit_wm_fi,"ax",%progbits
 1275              		.align	2
 1276              		.global	mui_u8g2_btn_exit_wm_fi
 1277              		.thumb
 1278              		.thumb_func
 1279              		.type	mui_u8g2_btn_exit_wm_fi, %function
 1280              	mui_u8g2_btn_exit_wm_fi:
 1281              	.LFB16:
 431:..\u8g2\csrc/mui_u8g2.c ****   switch(msg)
 1282              		.loc 1 431 0
 1283              		.cfi_startproc
 1284              		@ args = 0, pretend = 0, frame = 0
 1285              		@ frame_needed = 0, uses_anonymous_args = 0
 1286              	.LVL173:
 1287 0000 10B5     		push	{r4, lr}
 1288              		.cfi_def_cfa_offset 8
 1289              		.cfi_offset 4, -8
 1290              		.cfi_offset 14, -4
 1291 0002 82B0     		sub	sp, sp, #8
 1292              		.cfi_def_cfa_offset 16
 1293 0004 0446     		mov	r4, r0
 432:..\u8g2\csrc/mui_u8g2.c ****   {
 1294              		.loc 1 432 0
 1295 0006 0129     		cmp	r1, #1
 1296 0008 02D0     		beq	.L108
 1297 000a 0529     		cmp	r1, #5
 1298 000c 10D0     		beq	.L109
 1299 000e 1AE0     		b	.L112
 1300              	.L108:
 435:..\u8g2\csrc/mui_u8g2.c ****       break;
 1301              		.loc 1 435 0
 1302 0010 FFF7FEFF 		bl	mui_u8g2_get_fi_flags
 1303              	.LVL174:
 1304 0014 04F13C03 		add	r3, r4, #60
 1305 0018 40F04001 		orr	r1, r0, #64
 1306 001c 0193     		str	r3, [sp, #4]
 1307 001e 0123     		movs	r3, #1
 1308 0020 0093     		str	r3, [sp]
 1309 0022 0022     		movs	r2, #0
 1310 0024 89B2     		uxth	r1, r1
 1311 0026 2046     		mov	r0, r4
 1312 0028 FFF7FEFF 		bl	mui_u8g2_draw_button_utf
 1313              	.LVL175:
 458:..\u8g2\csrc/mui_u8g2.c **** }
 1314              		.loc 1 458 0
 1315 002c 0020     		movs	r0, #0
 436:..\u8g2\csrc/mui_u8g2.c ****     case MUIF_MSG_FORM_START:
 1316              		.loc 1 436 0
 1317 002e 0BE0     		b	.L107
ARM GAS  C:\Users\brian\AppData\Local\Temp\ccwE2E8f.s 			page 53


 1318              	.LVL176:
 1319              	.L109:
 1320              	.LBB2:
 445:..\u8g2\csrc/mui_u8g2.c ****         if ( value != NULL )
 1321              		.loc 1 445 0
 1322 0030 836B     		ldr	r3, [r0, #56]
 1323 0032 5B68     		ldr	r3, [r3, #4]
 1324              	.LVL177:
 446:..\u8g2\csrc/mui_u8g2.c ****           *value = ui->arg;
 1325              		.loc 1 446 0
 1326 0034 13B1     		cbz	r3, .L110
 447:..\u8g2\csrc/mui_u8g2.c ****       }
 1327              		.loc 1 447 0
 1328 0036 90F82E20 		ldrb	r2, [r0, #46]	@ zero_extendqisi2
 1329 003a 1A70     		strb	r2, [r3]
 1330              	.L110:
 1331              	.LBE2:
 449:..\u8g2\csrc/mui_u8g2.c ****       return 1;
 1332              		.loc 1 449 0
 1333 003c 2046     		mov	r0, r4
 1334              	.LVL178:
 1335 003e FFF7FEFF 		bl	mui_LeaveForm
 1336              	.LVL179:
 450:..\u8g2\csrc/mui_u8g2.c ****     case MUIF_MSG_CURSOR_LEAVE:
 1337              		.loc 1 450 0
 1338 0042 0120     		movs	r0, #1
 1339 0044 00E0     		b	.L107
 1340              	.LVL180:
 1341              	.L112:
 458:..\u8g2\csrc/mui_u8g2.c **** }
 1342              		.loc 1 458 0
 1343 0046 0020     		movs	r0, #0
 1344              	.LVL181:
 1345              	.L107:
 459:..\u8g2\csrc/mui_u8g2.c **** 
 1346              		.loc 1 459 0
 1347 0048 02B0     		add	sp, sp, #8
 1348              		.cfi_def_cfa_offset 8
 1349              		@ sp needed
 1350 004a 10BD     		pop	{r4, pc}
 1351              		.cfi_endproc
 1352              	.LFE16:
 1353              		.size	mui_u8g2_btn_exit_wm_fi, .-mui_u8g2_btn_exit_wm_fi
 1354              		.section	.text.mui_u8g2_btn_goto_w1_pi,"ax",%progbits
 1355              		.align	2
 1356              		.global	mui_u8g2_btn_goto_w1_pi
 1357              		.thumb
 1358              		.thumb_func
 1359              		.type	mui_u8g2_btn_goto_w1_pi, %function
 1360              	mui_u8g2_btn_goto_w1_pi:
 1361              	.LFB17:
 463:..\u8g2\csrc/mui_u8g2.c ****   u8g2_t *u8g2 = mui_get_U8g2(ui);
 1362              		.loc 1 463 0
 1363              		.cfi_startproc
 1364              		@ args = 0, pretend = 0, frame = 0
 1365              		@ frame_needed = 0, uses_anonymous_args = 0
 1366              	.LVL182:
ARM GAS  C:\Users\brian\AppData\Local\Temp\ccwE2E8f.s 			page 54


 1367 0000 38B5     		push	{r3, r4, r5, lr}
 1368              		.cfi_def_cfa_offset 16
 1369              		.cfi_offset 3, -16
 1370              		.cfi_offset 4, -12
 1371              		.cfi_offset 5, -8
 1372              		.cfi_offset 14, -4
 1373 0002 0546     		mov	r5, r0
 1374 0004 0C46     		mov	r4, r1
 464:..\u8g2\csrc/mui_u8g2.c ****   switch(msg)
 1375              		.loc 1 464 0
 1376 0006 FFF7FEFF 		bl	mui_get_U8g2
 1377              	.LVL183:
 465:..\u8g2\csrc/mui_u8g2.c ****   {
 1378              		.loc 1 465 0
 1379 000a 012C     		cmp	r4, #1
 1380 000c 02D0     		beq	.L116
 1381 000e 052C     		cmp	r4, #5
 1382 0010 10D0     		beq	.L117
 1383 0012 16E0     		b	.L119
 1384              	.L116:
 468:..\u8g2\csrc/mui_u8g2.c ****       //mui_u8g2_draw_button_utf(ui, mui_u8g2_get_pi_flags(ui), u8g2_GetDisplayWidth(u8g2)-mui_get_
 1385              		.loc 1 468 0
 1386 0014 B0F84440 		ldrh	r4, [r0, #68]
 1387 0018 2846     		mov	r0, r5
 1388              	.LVL184:
 1389 001a FFF7FEFF 		bl	mui_get_x
 1390              	.LVL185:
 1391 001e 0246     		mov	r2, r0
 1392 0020 A4EB4001 		sub	r1, r4, r0, lsl #1
 1393 0024 05F13C03 		add	r3, r5, #60
 1394 0028 89B2     		uxth	r1, r1
 1395 002a 2846     		mov	r0, r5
 1396 002c FFF7FEFF 		bl	mui_u8g2_draw_button_pi
 1397              	.LVL186:
 486:..\u8g2\csrc/mui_u8g2.c **** }
 1398              		.loc 1 486 0
 1399 0030 0020     		movs	r0, #0
 470:..\u8g2\csrc/mui_u8g2.c ****     case MUIF_MSG_FORM_START:
 1400              		.loc 1 470 0
 1401 0032 38BD     		pop	{r3, r4, r5, pc}
 1402              	.LVL187:
 1403              	.L117:
 478:..\u8g2\csrc/mui_u8g2.c ****     case MUIF_MSG_CURSOR_LEAVE:
 1404              		.loc 1 478 0
 1405 0034 0022     		movs	r2, #0
 1406 0036 95F82E10 		ldrb	r1, [r5, #46]	@ zero_extendqisi2
 1407 003a 2846     		mov	r0, r5
 1408              	.LVL188:
 1409 003c FFF7FEFF 		bl	mui_GotoForm
 1410              	.LVL189:
 1411 0040 38BD     		pop	{r3, r4, r5, pc}
 1412              	.LVL190:
 1413              	.L119:
 486:..\u8g2\csrc/mui_u8g2.c **** }
 1414              		.loc 1 486 0
 1415 0042 0020     		movs	r0, #0
 1416              	.LVL191:
ARM GAS  C:\Users\brian\AppData\Local\Temp\ccwE2E8f.s 			page 55


 487:..\u8g2\csrc/mui_u8g2.c **** 
 1417              		.loc 1 487 0
 1418 0044 38BD     		pop	{r3, r4, r5, pc}
 1419              		.cfi_endproc
 1420              	.LFE17:
 1421              		.size	mui_u8g2_btn_goto_w1_pi, .-mui_u8g2_btn_goto_w1_pi
 1422 0046 00BF     		.section	.text.mui_u8g2_btn_goto_w1_fi,"ax",%progbits
 1423              		.align	2
 1424              		.global	mui_u8g2_btn_goto_w1_fi
 1425              		.thumb
 1426              		.thumb_func
 1427              		.type	mui_u8g2_btn_goto_w1_fi, %function
 1428              	mui_u8g2_btn_goto_w1_fi:
 1429              	.LFB18:
 491:..\u8g2\csrc/mui_u8g2.c ****   u8g2_t *u8g2 = mui_get_U8g2(ui);
 1430              		.loc 1 491 0
 1431              		.cfi_startproc
 1432              		@ args = 0, pretend = 0, frame = 0
 1433              		@ frame_needed = 0, uses_anonymous_args = 0
 1434              	.LVL192:
 1435 0000 38B5     		push	{r3, r4, r5, lr}
 1436              		.cfi_def_cfa_offset 16
 1437              		.cfi_offset 3, -16
 1438              		.cfi_offset 4, -12
 1439              		.cfi_offset 5, -8
 1440              		.cfi_offset 14, -4
 1441 0002 0546     		mov	r5, r0
 1442 0004 0C46     		mov	r4, r1
 492:..\u8g2\csrc/mui_u8g2.c ****   switch(msg)
 1443              		.loc 1 492 0
 1444 0006 FFF7FEFF 		bl	mui_get_U8g2
 1445              	.LVL193:
 493:..\u8g2\csrc/mui_u8g2.c ****   {
 1446              		.loc 1 493 0
 1447 000a 012C     		cmp	r4, #1
 1448 000c 02D0     		beq	.L123
 1449 000e 052C     		cmp	r4, #5
 1450 0010 11D0     		beq	.L124
 1451 0012 17E0     		b	.L126
 1452              	.L123:
 496:..\u8g2\csrc/mui_u8g2.c ****       //mui_u8g2_draw_button_utf(ui, mui_u8g2_get_pi_flags(ui), u8g2_GetDisplayWidth(u8g2)-mui_get_
 1453              		.loc 1 496 0
 1454 0014 B0F84440 		ldrh	r4, [r0, #68]
 1455 0018 2846     		mov	r0, r5
 1456              	.LVL194:
 1457 001a FFF7FEFF 		bl	mui_get_x
 1458              	.LVL195:
 1459 001e 421E     		subs	r2, r0, #1
 1460 0020 A4EB4001 		sub	r1, r4, r0, lsl #1
 1461 0024 05F13C03 		add	r3, r5, #60
 1462 0028 92B2     		uxth	r2, r2
 1463 002a 89B2     		uxth	r1, r1
 1464 002c 2846     		mov	r0, r5
 1465 002e FFF7FEFF 		bl	mui_u8g2_draw_button_fi
 1466              	.LVL196:
 514:..\u8g2\csrc/mui_u8g2.c **** }
 1467              		.loc 1 514 0
ARM GAS  C:\Users\brian\AppData\Local\Temp\ccwE2E8f.s 			page 56


 1468 0032 0020     		movs	r0, #0
 498:..\u8g2\csrc/mui_u8g2.c ****     case MUIF_MSG_FORM_START:
 1469              		.loc 1 498 0
 1470 0034 38BD     		pop	{r3, r4, r5, pc}
 1471              	.LVL197:
 1472              	.L124:
 506:..\u8g2\csrc/mui_u8g2.c ****     case MUIF_MSG_CURSOR_LEAVE:
 1473              		.loc 1 506 0
 1474 0036 0022     		movs	r2, #0
 1475 0038 95F82E10 		ldrb	r1, [r5, #46]	@ zero_extendqisi2
 1476 003c 2846     		mov	r0, r5
 1477              	.LVL198:
 1478 003e FFF7FEFF 		bl	mui_GotoForm
 1479              	.LVL199:
 1480 0042 38BD     		pop	{r3, r4, r5, pc}
 1481              	.LVL200:
 1482              	.L126:
 514:..\u8g2\csrc/mui_u8g2.c **** }
 1483              		.loc 1 514 0
 1484 0044 0020     		movs	r0, #0
 1485              	.LVL201:
 515:..\u8g2\csrc/mui_u8g2.c **** 
 1486              		.loc 1 515 0
 1487 0046 38BD     		pop	{r3, r4, r5, pc}
 1488              		.cfi_endproc
 1489              	.LFE18:
 1490              		.size	mui_u8g2_btn_goto_w1_fi, .-mui_u8g2_btn_goto_w1_fi
 1491              		.section	.text.mui_u8g2_u8_min_max_wm_mse_pi,"ax",%progbits
 1492              		.align	2
 1493              		.global	mui_u8g2_u8_min_max_wm_mse_pi
 1494              		.thumb
 1495              		.thumb_func
 1496              		.type	mui_u8g2_u8_min_max_wm_mse_pi, %function
 1497              	mui_u8g2_u8_min_max_wm_mse_pi:
 1498              	.LFB20:
 551:..\u8g2\csrc/mui_u8g2.c ****   mui_u8g2_u8_min_max_t *vmm= (mui_u8g2_u8_min_max_t *)muif_get_data(ui->uif);
 1499              		.loc 1 551 0
 1500              		.cfi_startproc
 1501              		@ args = 0, pretend = 0, frame = 0
 1502              		@ frame_needed = 0, uses_anonymous_args = 0
 1503              	.LVL202:
 1504 0000 38B5     		push	{r3, r4, r5, lr}
 1505              		.cfi_def_cfa_offset 16
 1506              		.cfi_offset 3, -16
 1507              		.cfi_offset 4, -12
 1508              		.cfi_offset 5, -8
 1509              		.cfi_offset 14, -4
 552:..\u8g2\csrc/mui_u8g2.c ****   uint8_t *value = mui_u8g2_u8mm_get_valptr(vmm);
 1510              		.loc 1 552 0
 1511 0002 836B     		ldr	r3, [r0, #56]
 1512 0004 5B68     		ldr	r3, [r3, #4]
 1513              	.LVL203:
 553:..\u8g2\csrc/mui_u8g2.c ****   uint8_t min = mui_u8g2_u8mm_get_min(vmm);
 1514              		.loc 1 553 0
 1515 0006 1A68     		ldr	r2, [r3]
 1516              	.LVL204:
 554:..\u8g2\csrc/mui_u8g2.c ****   uint8_t max = mui_u8g2_u8mm_get_max(vmm);
ARM GAS  C:\Users\brian\AppData\Local\Temp\ccwE2E8f.s 			page 57


 1517              		.loc 1 554 0
 1518 0008 1D79     		ldrb	r5, [r3, #4]	@ zero_extendqisi2
 1519              	.LVL205:
 555:..\u8g2\csrc/mui_u8g2.c ****   switch(msg)
 1520              		.loc 1 555 0
 1521 000a 5C79     		ldrb	r4, [r3, #5]	@ zero_extendqisi2
 1522              	.LVL206:
 556:..\u8g2\csrc/mui_u8g2.c ****   {
 1523              		.loc 1 556 0
 1524 000c 0129     		cmp	r1, #1
 1525 000e 02D0     		beq	.L130
 1526 0010 0529     		cmp	r1, #5
 1527 0012 03D0     		beq	.L131
 1528 0014 09E0     		b	.L129
 1529              	.L130:
 559:..\u8g2\csrc/mui_u8g2.c ****       break;
 1530              		.loc 1 559 0
 1531 0016 FFF7FEFF 		bl	mui_u8g2_u8_vmm_draw_wm_pi
 1532              	.LVL207:
 560:..\u8g2\csrc/mui_u8g2.c ****     case MUIF_MSG_FORM_START:
 1533              		.loc 1 560 0
 1534 001a 06E0     		b	.L129
 1535              	.LVL208:
 1536              	.L131:
 568:..\u8g2\csrc/mui_u8g2.c ****       if ( *value > max ) *value = min;
 1537              		.loc 1 568 0
 1538 001c 1378     		ldrb	r3, [r2]	@ zero_extendqisi2
 1539              	.LVL209:
 1540 001e 0133     		adds	r3, r3, #1
 1541 0020 DBB2     		uxtb	r3, r3
 1542 0022 1370     		strb	r3, [r2]
 1543              	.LVL210:
 569:..\u8g2\csrc/mui_u8g2.c ****       break;
 1544              		.loc 1 569 0
 1545 0024 9C42     		cmp	r4, r3
 1546 0026 00D2     		bcs	.L129
 569:..\u8g2\csrc/mui_u8g2.c ****       break;
 1547              		.loc 1 569 0 is_stmt 0 discriminator 1
 1548 0028 1570     		strb	r5, [r2]
 1549              	.LVL211:
 1550              	.L129:
 579:..\u8g2\csrc/mui_u8g2.c **** 
 1551              		.loc 1 579 0 is_stmt 1
 1552 002a 0020     		movs	r0, #0
 1553 002c 38BD     		pop	{r3, r4, r5, pc}
 1554              		.cfi_endproc
 1555              	.LFE20:
 1556              		.size	mui_u8g2_u8_min_max_wm_mse_pi, .-mui_u8g2_u8_min_max_wm_mse_pi
 1557 002e 00BF     		.section	.text.mui_u8g2_u8_min_max_wm_mud_pi,"ax",%progbits
 1558              		.align	2
 1559              		.global	mui_u8g2_u8_min_max_wm_mud_pi
 1560              		.thumb
 1561              		.thumb_func
 1562              		.type	mui_u8g2_u8_min_max_wm_mud_pi, %function
 1563              	mui_u8g2_u8_min_max_wm_mud_pi:
 1564              	.LFB21:
 582:..\u8g2\csrc/mui_u8g2.c ****   mui_u8g2_u8_min_max_t *vmm= (mui_u8g2_u8_min_max_t *)muif_get_data(ui->uif);
ARM GAS  C:\Users\brian\AppData\Local\Temp\ccwE2E8f.s 			page 58


 1565              		.loc 1 582 0
 1566              		.cfi_startproc
 1567              		@ args = 0, pretend = 0, frame = 0
 1568              		@ frame_needed = 0, uses_anonymous_args = 0
 1569              	.LVL212:
 1570 0000 10B5     		push	{r4, lr}
 1571              		.cfi_def_cfa_offset 8
 1572              		.cfi_offset 4, -8
 1573              		.cfi_offset 14, -4
 583:..\u8g2\csrc/mui_u8g2.c ****   uint8_t *value = mui_u8g2_u8mm_get_valptr(vmm);
 1574              		.loc 1 583 0
 1575 0002 836B     		ldr	r3, [r0, #56]
 1576 0004 5B68     		ldr	r3, [r3, #4]
 1577              	.LVL213:
 584:..\u8g2\csrc/mui_u8g2.c ****   uint8_t min = mui_u8g2_u8mm_get_min(vmm);
 1578              		.loc 1 584 0
 1579 0006 1A68     		ldr	r2, [r3]
 1580              	.LVL214:
 585:..\u8g2\csrc/mui_u8g2.c ****   uint8_t max = mui_u8g2_u8mm_get_max(vmm);
 1581              		.loc 1 585 0
 1582 0008 1C79     		ldrb	r4, [r3, #4]	@ zero_extendqisi2
 1583              	.LVL215:
 586:..\u8g2\csrc/mui_u8g2.c ****   switch(msg)
 1584              		.loc 1 586 0
 1585 000a 5B79     		ldrb	r3, [r3, #5]	@ zero_extendqisi2
 1586              	.LVL216:
 587:..\u8g2\csrc/mui_u8g2.c ****   {
 1587              		.loc 1 587 0
 1588 000c 0139     		subs	r1, r1, #1
 1589              	.LVL217:
 1590 000e 0929     		cmp	r1, #9
 1591 0010 2CD8     		bhi	.L141
 1592 0012 DFE801F0 		tbb	[pc, r1]
 1593              	.L136:
 1594 0016 05       		.byte	(.L135-.L136)/2
 1595 0017 2B       		.byte	(.L141-.L136)/2
 1596 0018 2B       		.byte	(.L141-.L136)/2
 1597 0019 2B       		.byte	(.L141-.L136)/2
 1598 001a 09       		.byte	(.L137-.L136)/2
 1599 001b 2B       		.byte	(.L141-.L136)/2
 1600 001c 2B       		.byte	(.L141-.L136)/2
 1601 001d 2B       		.byte	(.L141-.L136)/2
 1602 001e 12       		.byte	(.L138-.L136)/2
 1603 001f 1E       		.byte	(.L139-.L136)/2
 1604              		.p2align 1
 1605              	.L135:
 590:..\u8g2\csrc/mui_u8g2.c ****       break;
 1606              		.loc 1 590 0
 1607 0020 FFF7FEFF 		bl	mui_u8g2_u8_vmm_draw_wm_pi
 1608              	.LVL218:
 628:..\u8g2\csrc/mui_u8g2.c **** }
 1609              		.loc 1 628 0
 1610 0024 0020     		movs	r0, #0
 591:..\u8g2\csrc/mui_u8g2.c ****     case MUIF_MSG_FORM_START:
 1611              		.loc 1 591 0
 1612 0026 10BD     		pop	{r4, pc}
 1613              	.LVL219:
ARM GAS  C:\Users\brian\AppData\Local\Temp\ccwE2E8f.s 			page 59


 1614              	.L137:
 600:..\u8g2\csrc/mui_u8g2.c ****       break;
 1615              		.loc 1 600 0
 1616 0028 90F82630 		ldrb	r3, [r0, #38]	@ zero_extendqisi2
 1617              	.LVL220:
 1618 002c B3FA83F3 		clz	r3, r3
 1619 0030 5B09     		lsrs	r3, r3, #5
 1620 0032 80F82630 		strb	r3, [r0, #38]
 1621              	.LVL221:
 628:..\u8g2\csrc/mui_u8g2.c **** }
 1622              		.loc 1 628 0
 1623 0036 0020     		movs	r0, #0
 1624              	.LVL222:
 601:..\u8g2\csrc/mui_u8g2.c ****     case MUIF_MSG_CURSOR_LEAVE:
 1625              		.loc 1 601 0
 1626 0038 10BD     		pop	{r4, pc}
 1627              	.LVL223:
 1628              	.L138:
 609:..\u8g2\csrc/mui_u8g2.c ****       {
 1629              		.loc 1 609 0
 1630 003a 90F82600 		ldrb	r0, [r0, #38]	@ zero_extendqisi2
 1631              	.LVL224:
 1632 003e C0B1     		cbz	r0, .L134
 611:..\u8g2\csrc/mui_u8g2.c ****         if ( *value > max )
 1633              		.loc 1 611 0
 1634 0040 1178     		ldrb	r1, [r2]	@ zero_extendqisi2
 1635 0042 0131     		adds	r1, r1, #1
 1636 0044 C9B2     		uxtb	r1, r1
 1637 0046 1170     		strb	r1, [r2]
 1638              	.LVL225:
 612:..\u8g2\csrc/mui_u8g2.c ****           *value = min;
 1639              		.loc 1 612 0
 1640 0048 8B42     		cmp	r3, r1
 1641 004a 11D2     		bcs	.L142
 613:..\u8g2\csrc/mui_u8g2.c ****         return 1;
 1642              		.loc 1 613 0
 1643 004c 1470     		strb	r4, [r2]
 614:..\u8g2\csrc/mui_u8g2.c ****       }
 1644              		.loc 1 614 0
 1645 004e 0120     		movs	r0, #1
 1646 0050 10BD     		pop	{r4, pc}
 1647              	.LVL226:
 1648              	.L139:
 618:..\u8g2\csrc/mui_u8g2.c ****       {
 1649              		.loc 1 618 0
 1650 0052 90F82600 		ldrb	r0, [r0, #38]	@ zero_extendqisi2
 1651              	.LVL227:
 1652 0056 60B1     		cbz	r0, .L134
 620:..\u8g2\csrc/mui_u8g2.c ****           *value = max;
 1653              		.loc 1 620 0
 1654 0058 1178     		ldrb	r1, [r2]	@ zero_extendqisi2
 1655 005a 8C42     		cmp	r4, r1
 1656 005c 02D3     		bcc	.L140
 621:..\u8g2\csrc/mui_u8g2.c ****         else
 1657              		.loc 1 621 0
 1658 005e 1370     		strb	r3, [r2]
 1659              	.LVL228:
ARM GAS  C:\Users\brian\AppData\Local\Temp\ccwE2E8f.s 			page 60


 624:..\u8g2\csrc/mui_u8g2.c ****       }
 1660              		.loc 1 624 0
 1661 0060 0120     		movs	r0, #1
 1662 0062 10BD     		pop	{r4, pc}
 1663              	.LVL229:
 1664              	.L140:
 623:..\u8g2\csrc/mui_u8g2.c ****         return 1;
 1665              		.loc 1 623 0
 1666 0064 0139     		subs	r1, r1, #1
 1667 0066 1170     		strb	r1, [r2]
 1668              	.LVL230:
 624:..\u8g2\csrc/mui_u8g2.c ****       }
 1669              		.loc 1 624 0
 1670 0068 0120     		movs	r0, #1
 1671 006a 10BD     		pop	{r4, pc}
 1672              	.LVL231:
 1673              	.L141:
 628:..\u8g2\csrc/mui_u8g2.c **** }
 1674              		.loc 1 628 0
 1675 006c 0020     		movs	r0, #0
 1676              	.LVL232:
 1677 006e 10BD     		pop	{r4, pc}
 1678              	.LVL233:
 1679              	.L142:
 614:..\u8g2\csrc/mui_u8g2.c ****       }
 1680              		.loc 1 614 0
 1681 0070 0120     		movs	r0, #1
 1682              	.L134:
 629:..\u8g2\csrc/mui_u8g2.c **** 
 1683              		.loc 1 629 0
 1684 0072 10BD     		pop	{r4, pc}
 1685              		.cfi_endproc
 1686              	.LFE21:
 1687              		.size	mui_u8g2_u8_min_max_wm_mud_pi, .-mui_u8g2_u8_min_max_wm_mud_pi
 1688              		.section	.text.mui_u8g2_u8_min_max_wm_mse_pf,"ax",%progbits
 1689              		.align	2
 1690              		.global	mui_u8g2_u8_min_max_wm_mse_pf
 1691              		.thumb
 1692              		.thumb_func
 1693              		.type	mui_u8g2_u8_min_max_wm_mse_pf, %function
 1694              	mui_u8g2_u8_min_max_wm_mse_pf:
 1695              	.LFB23:
 664:..\u8g2\csrc/mui_u8g2.c ****   mui_u8g2_u8_min_max_t *vmm= (mui_u8g2_u8_min_max_t *)muif_get_data(ui->uif);
 1696              		.loc 1 664 0
 1697              		.cfi_startproc
 1698              		@ args = 0, pretend = 0, frame = 0
 1699              		@ frame_needed = 0, uses_anonymous_args = 0
 1700              	.LVL234:
 1701 0000 38B5     		push	{r3, r4, r5, lr}
 1702              		.cfi_def_cfa_offset 16
 1703              		.cfi_offset 3, -16
 1704              		.cfi_offset 4, -12
 1705              		.cfi_offset 5, -8
 1706              		.cfi_offset 14, -4
 665:..\u8g2\csrc/mui_u8g2.c ****   uint8_t *value = mui_u8g2_u8mm_get_valptr(vmm);
 1707              		.loc 1 665 0
 1708 0002 836B     		ldr	r3, [r0, #56]
ARM GAS  C:\Users\brian\AppData\Local\Temp\ccwE2E8f.s 			page 61


 1709 0004 5B68     		ldr	r3, [r3, #4]
 1710              	.LVL235:
 666:..\u8g2\csrc/mui_u8g2.c ****   uint8_t min = mui_u8g2_u8mm_get_min(vmm);
 1711              		.loc 1 666 0
 1712 0006 1A68     		ldr	r2, [r3]
 1713              	.LVL236:
 667:..\u8g2\csrc/mui_u8g2.c ****   uint8_t max = mui_u8g2_u8mm_get_max(vmm);
 1714              		.loc 1 667 0
 1715 0008 1D79     		ldrb	r5, [r3, #4]	@ zero_extendqisi2
 1716              	.LVL237:
 668:..\u8g2\csrc/mui_u8g2.c ****   switch(msg)
 1717              		.loc 1 668 0
 1718 000a 5C79     		ldrb	r4, [r3, #5]	@ zero_extendqisi2
 1719              	.LVL238:
 669:..\u8g2\csrc/mui_u8g2.c ****   {
 1720              		.loc 1 669 0
 1721 000c 0129     		cmp	r1, #1
 1722 000e 02D0     		beq	.L146
 1723 0010 0529     		cmp	r1, #5
 1724 0012 03D0     		beq	.L147
 1725 0014 09E0     		b	.L145
 1726              	.L146:
 672:..\u8g2\csrc/mui_u8g2.c ****       break;
 1727              		.loc 1 672 0
 1728 0016 FFF7FEFF 		bl	mui_u8g2_u8_vmm_draw_wm_pf
 1729              	.LVL239:
 673:..\u8g2\csrc/mui_u8g2.c ****     case MUIF_MSG_FORM_START:
 1730              		.loc 1 673 0
 1731 001a 06E0     		b	.L145
 1732              	.LVL240:
 1733              	.L147:
 681:..\u8g2\csrc/mui_u8g2.c ****       if ( *value > max ) *value = min;
 1734              		.loc 1 681 0
 1735 001c 1378     		ldrb	r3, [r2]	@ zero_extendqisi2
 1736              	.LVL241:
 1737 001e 0133     		adds	r3, r3, #1
 1738 0020 DBB2     		uxtb	r3, r3
 1739 0022 1370     		strb	r3, [r2]
 1740              	.LVL242:
 682:..\u8g2\csrc/mui_u8g2.c ****       break;
 1741              		.loc 1 682 0
 1742 0024 9C42     		cmp	r4, r3
 1743 0026 00D2     		bcs	.L145
 682:..\u8g2\csrc/mui_u8g2.c ****       break;
 1744              		.loc 1 682 0 is_stmt 0 discriminator 1
 1745 0028 1570     		strb	r5, [r2]
 1746              	.LVL243:
 1747              	.L145:
 692:..\u8g2\csrc/mui_u8g2.c **** 
 1748              		.loc 1 692 0 is_stmt 1
 1749 002a 0020     		movs	r0, #0
 1750 002c 38BD     		pop	{r3, r4, r5, pc}
 1751              		.cfi_endproc
 1752              	.LFE23:
 1753              		.size	mui_u8g2_u8_min_max_wm_mse_pf, .-mui_u8g2_u8_min_max_wm_mse_pf
 1754 002e 00BF     		.section	.text.mui_u8g2_u8_min_max_wm_mud_pf,"ax",%progbits
 1755              		.align	2
ARM GAS  C:\Users\brian\AppData\Local\Temp\ccwE2E8f.s 			page 62


 1756              		.global	mui_u8g2_u8_min_max_wm_mud_pf
 1757              		.thumb
 1758              		.thumb_func
 1759              		.type	mui_u8g2_u8_min_max_wm_mud_pf, %function
 1760              	mui_u8g2_u8_min_max_wm_mud_pf:
 1761              	.LFB24:
 695:..\u8g2\csrc/mui_u8g2.c ****   mui_u8g2_u8_min_max_t *vmm= (mui_u8g2_u8_min_max_t *)muif_get_data(ui->uif);
 1762              		.loc 1 695 0
 1763              		.cfi_startproc
 1764              		@ args = 0, pretend = 0, frame = 0
 1765              		@ frame_needed = 0, uses_anonymous_args = 0
 1766              	.LVL244:
 1767 0000 10B5     		push	{r4, lr}
 1768              		.cfi_def_cfa_offset 8
 1769              		.cfi_offset 4, -8
 1770              		.cfi_offset 14, -4
 696:..\u8g2\csrc/mui_u8g2.c ****   uint8_t *value = mui_u8g2_u8mm_get_valptr(vmm);
 1771              		.loc 1 696 0
 1772 0002 836B     		ldr	r3, [r0, #56]
 1773 0004 5B68     		ldr	r3, [r3, #4]
 1774              	.LVL245:
 697:..\u8g2\csrc/mui_u8g2.c ****   uint8_t min = mui_u8g2_u8mm_get_min(vmm);
 1775              		.loc 1 697 0
 1776 0006 1A68     		ldr	r2, [r3]
 1777              	.LVL246:
 698:..\u8g2\csrc/mui_u8g2.c ****   uint8_t max = mui_u8g2_u8mm_get_max(vmm);
 1778              		.loc 1 698 0
 1779 0008 1C79     		ldrb	r4, [r3, #4]	@ zero_extendqisi2
 1780              	.LVL247:
 699:..\u8g2\csrc/mui_u8g2.c ****   switch(msg)
 1781              		.loc 1 699 0
 1782 000a 5B79     		ldrb	r3, [r3, #5]	@ zero_extendqisi2
 1783              	.LVL248:
 700:..\u8g2\csrc/mui_u8g2.c ****   {
 1784              		.loc 1 700 0
 1785 000c 0139     		subs	r1, r1, #1
 1786              	.LVL249:
 1787 000e 0929     		cmp	r1, #9
 1788 0010 2CD8     		bhi	.L157
 1789 0012 DFE801F0 		tbb	[pc, r1]
 1790              	.L152:
 1791 0016 05       		.byte	(.L151-.L152)/2
 1792 0017 2B       		.byte	(.L157-.L152)/2
 1793 0018 2B       		.byte	(.L157-.L152)/2
 1794 0019 2B       		.byte	(.L157-.L152)/2
 1795 001a 09       		.byte	(.L153-.L152)/2
 1796 001b 2B       		.byte	(.L157-.L152)/2
 1797 001c 2B       		.byte	(.L157-.L152)/2
 1798 001d 2B       		.byte	(.L157-.L152)/2
 1799 001e 12       		.byte	(.L154-.L152)/2
 1800 001f 1E       		.byte	(.L155-.L152)/2
 1801              		.p2align 1
 1802              	.L151:
 703:..\u8g2\csrc/mui_u8g2.c ****       break;
 1803              		.loc 1 703 0
 1804 0020 FFF7FEFF 		bl	mui_u8g2_u8_vmm_draw_wm_pf
 1805              	.LVL250:
ARM GAS  C:\Users\brian\AppData\Local\Temp\ccwE2E8f.s 			page 63


 741:..\u8g2\csrc/mui_u8g2.c **** }
 1806              		.loc 1 741 0
 1807 0024 0020     		movs	r0, #0
 704:..\u8g2\csrc/mui_u8g2.c ****     case MUIF_MSG_FORM_START:
 1808              		.loc 1 704 0
 1809 0026 10BD     		pop	{r4, pc}
 1810              	.LVL251:
 1811              	.L153:
 713:..\u8g2\csrc/mui_u8g2.c ****       break;
 1812              		.loc 1 713 0
 1813 0028 90F82630 		ldrb	r3, [r0, #38]	@ zero_extendqisi2
 1814              	.LVL252:
 1815 002c B3FA83F3 		clz	r3, r3
 1816 0030 5B09     		lsrs	r3, r3, #5
 1817 0032 80F82630 		strb	r3, [r0, #38]
 1818              	.LVL253:
 741:..\u8g2\csrc/mui_u8g2.c **** }
 1819              		.loc 1 741 0
 1820 0036 0020     		movs	r0, #0
 1821              	.LVL254:
 714:..\u8g2\csrc/mui_u8g2.c ****     case MUIF_MSG_CURSOR_LEAVE:
 1822              		.loc 1 714 0
 1823 0038 10BD     		pop	{r4, pc}
 1824              	.LVL255:
 1825              	.L154:
 722:..\u8g2\csrc/mui_u8g2.c ****       {
 1826              		.loc 1 722 0
 1827 003a 90F82600 		ldrb	r0, [r0, #38]	@ zero_extendqisi2
 1828              	.LVL256:
 1829 003e C0B1     		cbz	r0, .L150
 724:..\u8g2\csrc/mui_u8g2.c ****         if ( *value > max )
 1830              		.loc 1 724 0
 1831 0040 1178     		ldrb	r1, [r2]	@ zero_extendqisi2
 1832 0042 0131     		adds	r1, r1, #1
 1833 0044 C9B2     		uxtb	r1, r1
 1834 0046 1170     		strb	r1, [r2]
 1835              	.LVL257:
 725:..\u8g2\csrc/mui_u8g2.c ****           *value = min;
 1836              		.loc 1 725 0
 1837 0048 8B42     		cmp	r3, r1
 1838 004a 11D2     		bcs	.L158
 726:..\u8g2\csrc/mui_u8g2.c ****         return 1;
 1839              		.loc 1 726 0
 1840 004c 1470     		strb	r4, [r2]
 727:..\u8g2\csrc/mui_u8g2.c ****       }
 1841              		.loc 1 727 0
 1842 004e 0120     		movs	r0, #1
 1843 0050 10BD     		pop	{r4, pc}
 1844              	.LVL258:
 1845              	.L155:
 731:..\u8g2\csrc/mui_u8g2.c ****       {
 1846              		.loc 1 731 0
 1847 0052 90F82600 		ldrb	r0, [r0, #38]	@ zero_extendqisi2
 1848              	.LVL259:
 1849 0056 60B1     		cbz	r0, .L150
 733:..\u8g2\csrc/mui_u8g2.c ****           *value = max;
 1850              		.loc 1 733 0
ARM GAS  C:\Users\brian\AppData\Local\Temp\ccwE2E8f.s 			page 64


 1851 0058 1178     		ldrb	r1, [r2]	@ zero_extendqisi2
 1852 005a 8C42     		cmp	r4, r1
 1853 005c 02D3     		bcc	.L156
 734:..\u8g2\csrc/mui_u8g2.c ****         else
 1854              		.loc 1 734 0
 1855 005e 1370     		strb	r3, [r2]
 1856              	.LVL260:
 737:..\u8g2\csrc/mui_u8g2.c ****       }
 1857              		.loc 1 737 0
 1858 0060 0120     		movs	r0, #1
 1859 0062 10BD     		pop	{r4, pc}
 1860              	.LVL261:
 1861              	.L156:
 736:..\u8g2\csrc/mui_u8g2.c ****         return 1;
 1862              		.loc 1 736 0
 1863 0064 0139     		subs	r1, r1, #1
 1864 0066 1170     		strb	r1, [r2]
 1865              	.LVL262:
 737:..\u8g2\csrc/mui_u8g2.c ****       }
 1866              		.loc 1 737 0
 1867 0068 0120     		movs	r0, #1
 1868 006a 10BD     		pop	{r4, pc}
 1869              	.LVL263:
 1870              	.L157:
 741:..\u8g2\csrc/mui_u8g2.c **** }
 1871              		.loc 1 741 0
 1872 006c 0020     		movs	r0, #0
 1873              	.LVL264:
 1874 006e 10BD     		pop	{r4, pc}
 1875              	.LVL265:
 1876              	.L158:
 727:..\u8g2\csrc/mui_u8g2.c ****       }
 1877              		.loc 1 727 0
 1878 0070 0120     		movs	r0, #1
 1879              	.L150:
 742:..\u8g2\csrc/mui_u8g2.c **** 
 1880              		.loc 1 742 0
 1881 0072 10BD     		pop	{r4, pc}
 1882              		.cfi_endproc
 1883              	.LFE24:
 1884              		.size	mui_u8g2_u8_min_max_wm_mud_pf, .-mui_u8g2_u8_min_max_wm_mud_pf
 1885              		.section	.text.mui_u8g2_u8_char_wm_mud_pi,"ax",%progbits
 1886              		.align	2
 1887              		.global	mui_u8g2_u8_char_wm_mud_pi
 1888              		.thumb
 1889              		.thumb_func
 1890              		.type	mui_u8g2_u8_char_wm_mud_pi, %function
 1891              	mui_u8g2_u8_char_wm_mud_pi:
 1892              	.LFB26:
 764:..\u8g2\csrc/mui_u8g2.c ****   //ui->dflags                          MUIF_DFLAG_IS_CURSOR_FOCUS       MUIF_DFLAG_IS_TOUCH_FOCUS
 1893              		.loc 1 764 0
 1894              		.cfi_startproc
 1895              		@ args = 0, pretend = 0, frame = 8
 1896              		@ frame_needed = 0, uses_anonymous_args = 0
 1897              	.LVL266:
 1898 0000 F0B5     		push	{r4, r5, r6, r7, lr}
 1899              		.cfi_def_cfa_offset 20
ARM GAS  C:\Users\brian\AppData\Local\Temp\ccwE2E8f.s 			page 65


 1900              		.cfi_offset 4, -20
 1901              		.cfi_offset 5, -16
 1902              		.cfi_offset 6, -12
 1903              		.cfi_offset 7, -8
 1904              		.cfi_offset 14, -4
 1905 0002 83B0     		sub	sp, sp, #12
 1906              		.cfi_def_cfa_offset 32
 1907 0004 0646     		mov	r6, r0
 1908 0006 0C46     		mov	r4, r1
 767:..\u8g2\csrc/mui_u8g2.c ****   uint8_t *value = (uint8_t *)muif_get_data(ui->uif);
 1909              		.loc 1 767 0
 1910 0008 FFF7FEFF 		bl	mui_get_U8g2
 1911              	.LVL267:
 1912 000c 0746     		mov	r7, r0
 1913              	.LVL268:
 768:..\u8g2\csrc/mui_u8g2.c ****   char buf[6];
 1914              		.loc 1 768 0
 1915 000e B36B     		ldr	r3, [r6, #56]
 1916 0010 5D68     		ldr	r5, [r3, #4]
 1917              	.LVL269:
 770:..\u8g2\csrc/mui_u8g2.c ****   {
 1918              		.loc 1 770 0
 1919 0012 611E     		subs	r1, r4, #1
 1920 0014 0929     		cmp	r1, #9
 1921 0016 40D8     		bhi	.L170
 1922 0018 DFE801F0 		tbb	[pc, r1]
 1923              	.L163:
 1924 001c 07       		.byte	(.L162-.L163)/2
 1925 001d 3F       		.byte	(.L170-.L163)/2
 1926 001e 3F       		.byte	(.L170-.L163)/2
 1927 001f 3F       		.byte	(.L170-.L163)/2
 1928 0020 1C       		.byte	(.L164-.L163)/2
 1929 0021 3F       		.byte	(.L170-.L163)/2
 1930 0022 3F       		.byte	(.L170-.L163)/2
 1931 0023 3F       		.byte	(.L170-.L163)/2
 1932 0024 25       		.byte	(.L165-.L163)/2
 1933 0025 32       		.byte	(.L166-.L163)/2
 1934              	.LVL270:
 1935              		.p2align 1
 1936              	.L167:
 774:..\u8g2\csrc/mui_u8g2.c ****       buf[0] = *value;
 1937              		.loc 1 774 0
 1938 0026 0134     		adds	r4, r4, #1
 1939 0028 2C70     		strb	r4, [r5]
 1940              	.L162:
 773:..\u8g2\csrc/mui_u8g2.c ****           (*value)++;
 1941              		.loc 1 773 0
 1942 002a 2C78     		ldrb	r4, [r5]	@ zero_extendqisi2
 1943 002c 2046     		mov	r0, r4
 1944 002e FFF7FEFF 		bl	mui_is_valid_char
 1945              	.LVL271:
 1946 0032 0028     		cmp	r0, #0
 1947 0034 F7D0     		beq	.L167
 775:..\u8g2\csrc/mui_u8g2.c ****       buf[1] = '\0';
 1948              		.loc 1 775 0
 1949 0036 8DF80040 		strb	r4, [sp]
 776:..\u8g2\csrc/mui_u8g2.c ****       mui_u8g2_draw_button_pi(ui, u8g2_GetMaxCharWidth(u8g2), 1, buf);
ARM GAS  C:\Users\brian\AppData\Local\Temp\ccwE2E8f.s 			page 66


 1950              		.loc 1 776 0
 1951 003a 0024     		movs	r4, #0
 1952 003c 8DF80140 		strb	r4, [sp, #1]
 777:..\u8g2\csrc/mui_u8g2.c ****       //mui_u8g2_draw_button_utf(ui, mui_u8g2_get_pi_flags(ui), u8g2_GetMaxCharWidth(u8g2), 1, MUI_
 1953              		.loc 1 777 0
 1954 0040 97F97D10 		ldrsb	r1, [r7, #125]
 1955 0044 6B46     		mov	r3, sp
 1956 0046 0122     		movs	r2, #1
 1957 0048 89B2     		uxth	r1, r1
 1958 004a 3046     		mov	r0, r6
 1959 004c FFF7FEFF 		bl	mui_u8g2_draw_button_pi
 1960              	.LVL272:
 816:..\u8g2\csrc/mui_u8g2.c **** }
 1961              		.loc 1 816 0
 1962 0050 2046     		mov	r0, r4
 780:..\u8g2\csrc/mui_u8g2.c ****     case MUIF_MSG_FORM_START:
 1963              		.loc 1 780 0
 1964 0052 23E0     		b	.L161
 1965              	.LVL273:
 1966              	.L164:
 789:..\u8g2\csrc/mui_u8g2.c ****      break;
 1967              		.loc 1 789 0
 1968 0054 96F82630 		ldrb	r3, [r6, #38]	@ zero_extendqisi2
 1969 0058 B3FA83F3 		clz	r3, r3
 1970 005c 5B09     		lsrs	r3, r3, #5
 1971 005e 86F82630 		strb	r3, [r6, #38]
 816:..\u8g2\csrc/mui_u8g2.c **** }
 1972              		.loc 1 816 0
 1973 0062 0020     		movs	r0, #0
 1974              	.LVL274:
 790:..\u8g2\csrc/mui_u8g2.c ****     case MUIF_MSG_CURSOR_LEAVE:
 1975              		.loc 1 790 0
 1976 0064 1AE0     		b	.L161
 1977              	.LVL275:
 1978              	.L165:
 798:..\u8g2\csrc/mui_u8g2.c ****       {
 1979              		.loc 1 798 0
 1980 0066 96F82600 		ldrb	r0, [r6, #38]	@ zero_extendqisi2
 1981              	.LVL276:
 1982 006a B8B1     		cbz	r0, .L161
 1983              	.L168:
 801:..\u8g2\csrc/mui_u8g2.c ****         } while( mui_is_valid_char(*value) == 0 );
 1984              		.loc 1 801 0 discriminator 1
 1985 006c 2878     		ldrb	r0, [r5]	@ zero_extendqisi2
 1986 006e 0130     		adds	r0, r0, #1
 1987 0070 C0B2     		uxtb	r0, r0
 1988 0072 2870     		strb	r0, [r5]
 802:..\u8g2\csrc/mui_u8g2.c ****         return 1;
 1989              		.loc 1 802 0 discriminator 1
 1990 0074 FFF7FEFF 		bl	mui_is_valid_char
 1991              	.LVL277:
 1992 0078 0028     		cmp	r0, #0
 1993 007a F7D0     		beq	.L168
 803:..\u8g2\csrc/mui_u8g2.c ****       }
 1994              		.loc 1 803 0
 1995 007c 0120     		movs	r0, #1
 1996 007e 0DE0     		b	.L161
ARM GAS  C:\Users\brian\AppData\Local\Temp\ccwE2E8f.s 			page 67


 1997              	.LVL278:
 1998              	.L166:
 807:..\u8g2\csrc/mui_u8g2.c ****       {
 1999              		.loc 1 807 0
 2000 0080 96F82600 		ldrb	r0, [r6, #38]	@ zero_extendqisi2
 2001              	.LVL279:
 2002 0084 50B1     		cbz	r0, .L161
 2003              	.L169:
 810:..\u8g2\csrc/mui_u8g2.c ****         } while( mui_is_valid_char(*value) == 0 );
 2004              		.loc 1 810 0 discriminator 1
 2005 0086 2878     		ldrb	r0, [r5]	@ zero_extendqisi2
 2006 0088 0138     		subs	r0, r0, #1
 2007 008a C0B2     		uxtb	r0, r0
 2008 008c 2870     		strb	r0, [r5]
 811:..\u8g2\csrc/mui_u8g2.c ****         return 1;
 2009              		.loc 1 811 0 discriminator 1
 2010 008e FFF7FEFF 		bl	mui_is_valid_char
 2011              	.LVL280:
 2012 0092 0028     		cmp	r0, #0
 2013 0094 F7D0     		beq	.L169
 812:..\u8g2\csrc/mui_u8g2.c ****       }
 2014              		.loc 1 812 0
 2015 0096 0120     		movs	r0, #1
 2016 0098 00E0     		b	.L161
 2017              	.LVL281:
 2018              	.L170:
 816:..\u8g2\csrc/mui_u8g2.c **** }
 2019              		.loc 1 816 0
 2020 009a 0020     		movs	r0, #0
 2021              	.LVL282:
 2022              	.L161:
 817:..\u8g2\csrc/mui_u8g2.c **** 
 2023              		.loc 1 817 0
 2024 009c 03B0     		add	sp, sp, #12
 2025              		.cfi_def_cfa_offset 20
 2026              		@ sp needed
 2027 009e F0BD     		pop	{r4, r5, r6, r7, pc}
 2028              		.cfi_endproc
 2029              	.LFE26:
 2030              		.size	mui_u8g2_u8_char_wm_mud_pi, .-mui_u8g2_u8_char_wm_mud_pi
 2031              		.section	.text.mui_u8g2_u8_opt_line_wa_mse_pi,"ax",%progbits
 2032              		.align	2
 2033              		.global	mui_u8g2_u8_opt_line_wa_mse_pi
 2034              		.thumb
 2035              		.thumb_func
 2036              		.type	mui_u8g2_u8_opt_line_wa_mse_pi, %function
 2037              	mui_u8g2_u8_opt_line_wa_mse_pi:
 2038              	.LFB27:
 849:..\u8g2\csrc/mui_u8g2.c ****   //u8g2_t *u8g2 = mui_get_U8g2(ui);
 2039              		.loc 1 849 0
 2040              		.cfi_startproc
 2041              		@ args = 0, pretend = 0, frame = 0
 2042              		@ frame_needed = 0, uses_anonymous_args = 0
 2043              	.LVL283:
 2044 0000 38B5     		push	{r3, r4, r5, lr}
 2045              		.cfi_def_cfa_offset 16
 2046              		.cfi_offset 3, -16
ARM GAS  C:\Users\brian\AppData\Local\Temp\ccwE2E8f.s 			page 68


 2047              		.cfi_offset 4, -12
 2048              		.cfi_offset 5, -8
 2049              		.cfi_offset 14, -4
 2050 0002 0446     		mov	r4, r0
 851:..\u8g2\csrc/mui_u8g2.c ****   switch(msg)
 2051              		.loc 1 851 0
 2052 0004 836B     		ldr	r3, [r0, #56]
 2053 0006 5D68     		ldr	r5, [r3, #4]
 2054              	.LVL284:
 852:..\u8g2\csrc/mui_u8g2.c ****   {
 2055              		.loc 1 852 0
 2056 0008 0129     		cmp	r1, #1
 2057 000a 02D0     		beq	.L174
 2058 000c 0529     		cmp	r1, #5
 2059 000e 12D0     		beq	.L175
 2060 0010 1AE0     		b	.L173
 2061              	.L174:
 855:..\u8g2\csrc/mui_u8g2.c ****       {
 2062              		.loc 1 855 0
 2063 0012 2978     		ldrb	r1, [r5]	@ zero_extendqisi2
 2064              	.LVL285:
 2065 0014 FFF7FEFF 		bl	mui_fds_get_nth_token
 2066              	.LVL286:
 2067 0018 20B9     		cbnz	r0, .L176
 857:..\u8g2\csrc/mui_u8g2.c ****         mui_fds_get_nth_token(ui, *value);
 2068              		.loc 1 857 0
 2069 001a 0021     		movs	r1, #0
 2070 001c 2970     		strb	r1, [r5]
 858:..\u8g2\csrc/mui_u8g2.c ****       }
 2071              		.loc 1 858 0
 2072 001e 2046     		mov	r0, r4
 2073 0020 FFF7FEFF 		bl	mui_fds_get_nth_token
 2074              	.LVL287:
 2075              	.L176:
 860:..\u8g2\csrc/mui_u8g2.c ****       //mui_u8g2_draw_button_utf(ui, mui_u8g2_get_pi_flags(ui), ui->arg, 1, MUI_U8G2_V_PADDING, ui-
 2076              		.loc 1 860 0
 2077 0024 04F13C03 		add	r3, r4, #60
 2078 0028 0122     		movs	r2, #1
 2079 002a 94F82E10 		ldrb	r1, [r4, #46]	@ zero_extendqisi2
 2080 002e 2046     		mov	r0, r4
 2081 0030 FFF7FEFF 		bl	mui_u8g2_draw_button_pi
 2082              	.LVL288:
 864:..\u8g2\csrc/mui_u8g2.c ****     case MUIF_MSG_FORM_START:
 2083              		.loc 1 864 0
 2084 0034 08E0     		b	.L173
 2085              	.LVL289:
 2086              	.L175:
 872:..\u8g2\csrc/mui_u8g2.c ****       if ( mui_fds_get_nth_token(ui, *value) == 0 ) 
 2087              		.loc 1 872 0
 2088 0036 2978     		ldrb	r1, [r5]	@ zero_extendqisi2
 2089              	.LVL290:
 2090 0038 0131     		adds	r1, r1, #1
 2091 003a C9B2     		uxtb	r1, r1
 2092 003c 2970     		strb	r1, [r5]
 873:..\u8g2\csrc/mui_u8g2.c ****         *value = 0;      
 2093              		.loc 1 873 0
 2094 003e FFF7FEFF 		bl	mui_fds_get_nth_token
ARM GAS  C:\Users\brian\AppData\Local\Temp\ccwE2E8f.s 			page 69


 2095              	.LVL291:
 2096 0042 08B9     		cbnz	r0, .L173
 874:..\u8g2\csrc/mui_u8g2.c ****       break;
 2097              		.loc 1 874 0
 2098 0044 0023     		movs	r3, #0
 2099 0046 2B70     		strb	r3, [r5]
 2100              	.L173:
 884:..\u8g2\csrc/mui_u8g2.c ****    
 2101              		.loc 1 884 0
 2102 0048 0020     		movs	r0, #0
 2103 004a 38BD     		pop	{r3, r4, r5, pc}
 2104              		.cfi_endproc
 2105              	.LFE27:
 2106              		.size	mui_u8g2_u8_opt_line_wa_mse_pi, .-mui_u8g2_u8_opt_line_wa_mse_pi
 2107              		.section	.text.mui_u8g2_u8_opt_line_wa_mud_pi,"ax",%progbits
 2108              		.align	2
 2109              		.global	mui_u8g2_u8_opt_line_wa_mud_pi
 2110              		.thumb
 2111              		.thumb_func
 2112              		.type	mui_u8g2_u8_opt_line_wa_mud_pi, %function
 2113              	mui_u8g2_u8_opt_line_wa_mud_pi:
 2114              	.LFB28:
 887:..\u8g2\csrc/mui_u8g2.c ****   //u8g2_t *u8g2 = mui_get_U8g2(ui);
 2115              		.loc 1 887 0
 2116              		.cfi_startproc
 2117              		@ args = 0, pretend = 0, frame = 0
 2118              		@ frame_needed = 0, uses_anonymous_args = 0
 2119              	.LVL292:
 2120 0000 38B5     		push	{r3, r4, r5, lr}
 2121              		.cfi_def_cfa_offset 16
 2122              		.cfi_offset 3, -16
 2123              		.cfi_offset 4, -12
 2124              		.cfi_offset 5, -8
 2125              		.cfi_offset 14, -4
 2126 0002 0446     		mov	r4, r0
 889:..\u8g2\csrc/mui_u8g2.c ****   switch(msg)
 2127              		.loc 1 889 0
 2128 0004 836B     		ldr	r3, [r0, #56]
 2129 0006 5D68     		ldr	r5, [r3, #4]
 2130              	.LVL293:
 890:..\u8g2\csrc/mui_u8g2.c ****   {
 2131              		.loc 1 890 0
 2132 0008 0139     		subs	r1, r1, #1
 2133              	.LVL294:
 2134 000a 0929     		cmp	r1, #9
 2135 000c 3FD8     		bhi	.L187
 2136 000e DFE801F0 		tbb	[pc, r1]
 2137              	.L181:
 2138 0012 05       		.byte	(.L180-.L181)/2
 2139 0013 3E       		.byte	(.L187-.L181)/2
 2140 0014 3E       		.byte	(.L187-.L181)/2
 2141 0015 3E       		.byte	(.L187-.L181)/2
 2142 0016 18       		.byte	(.L182-.L181)/2
 2143 0017 3E       		.byte	(.L187-.L181)/2
 2144 0018 3E       		.byte	(.L187-.L181)/2
 2145 0019 3E       		.byte	(.L187-.L181)/2
 2146 001a 21       		.byte	(.L183-.L181)/2
ARM GAS  C:\Users\brian\AppData\Local\Temp\ccwE2E8f.s 			page 70


 2147 001b 30       		.byte	(.L184-.L181)/2
 2148              		.p2align 1
 2149              	.L180:
 893:..\u8g2\csrc/mui_u8g2.c ****       {
 2150              		.loc 1 893 0
 2151 001c 2978     		ldrb	r1, [r5]	@ zero_extendqisi2
 2152 001e FFF7FEFF 		bl	mui_fds_get_nth_token
 2153              	.LVL295:
 2154 0022 20B9     		cbnz	r0, .L185
 895:..\u8g2\csrc/mui_u8g2.c ****         mui_fds_get_nth_token(ui, *value);
 2155              		.loc 1 895 0
 2156 0024 0021     		movs	r1, #0
 2157 0026 2970     		strb	r1, [r5]
 896:..\u8g2\csrc/mui_u8g2.c ****       }
 2158              		.loc 1 896 0
 2159 0028 2046     		mov	r0, r4
 2160 002a FFF7FEFF 		bl	mui_fds_get_nth_token
 2161              	.LVL296:
 2162              	.L185:
 898:..\u8g2\csrc/mui_u8g2.c ****       //mui_u8g2_draw_button_utf(ui, mui_u8g2_get_pi_flags(ui), ui->arg, 1, MUI_U8G2_V_PADDING, ui-
 2163              		.loc 1 898 0
 2164 002e 04F13C03 		add	r3, r4, #60
 2165 0032 0122     		movs	r2, #1
 2166 0034 94F82E10 		ldrb	r1, [r4, #46]	@ zero_extendqisi2
 2167 0038 2046     		mov	r0, r4
 2168 003a FFF7FEFF 		bl	mui_u8g2_draw_button_pi
 2169              	.LVL297:
 938:..\u8g2\csrc/mui_u8g2.c **** }
 2170              		.loc 1 938 0
 2171 003e 0020     		movs	r0, #0
 902:..\u8g2\csrc/mui_u8g2.c ****     case MUIF_MSG_FORM_START:
 2172              		.loc 1 902 0
 2173 0040 38BD     		pop	{r3, r4, r5, pc}
 2174              	.LVL298:
 2175              	.L182:
 911:..\u8g2\csrc/mui_u8g2.c ****      break;
 2176              		.loc 1 911 0
 2177 0042 90F82630 		ldrb	r3, [r0, #38]	@ zero_extendqisi2
 2178 0046 B3FA83F3 		clz	r3, r3
 2179 004a 5B09     		lsrs	r3, r3, #5
 2180 004c 80F82630 		strb	r3, [r0, #38]
 938:..\u8g2\csrc/mui_u8g2.c **** }
 2181              		.loc 1 938 0
 2182 0050 0020     		movs	r0, #0
 2183              	.LVL299:
 912:..\u8g2\csrc/mui_u8g2.c ****     case MUIF_MSG_CURSOR_LEAVE:
 2184              		.loc 1 912 0
 2185 0052 38BD     		pop	{r3, r4, r5, pc}
 2186              	.LVL300:
 2187              	.L183:
 920:..\u8g2\csrc/mui_u8g2.c ****       {
 2188              		.loc 1 920 0
 2189 0054 90F82600 		ldrb	r0, [r0, #38]	@ zero_extendqisi2
 2190              	.LVL301:
 2191 0058 E0B1     		cbz	r0, .L179
 922:..\u8g2\csrc/mui_u8g2.c ****         if ( mui_fds_get_nth_token(ui, *value) == 0 ) 
 2192              		.loc 1 922 0
ARM GAS  C:\Users\brian\AppData\Local\Temp\ccwE2E8f.s 			page 71


 2193 005a 2978     		ldrb	r1, [r5]	@ zero_extendqisi2
 2194 005c 0131     		adds	r1, r1, #1
 2195 005e C9B2     		uxtb	r1, r1
 2196 0060 2970     		strb	r1, [r5]
 923:..\u8g2\csrc/mui_u8g2.c ****           *value = 0;      
 2197              		.loc 1 923 0
 2198 0062 2046     		mov	r0, r4
 2199 0064 FFF7FEFF 		bl	mui_fds_get_nth_token
 2200              	.LVL302:
 2201 0068 98B9     		cbnz	r0, .L188
 924:..\u8g2\csrc/mui_u8g2.c ****         return 1;
 2202              		.loc 1 924 0
 2203 006a 0023     		movs	r3, #0
 2204 006c 2B70     		strb	r3, [r5]
 925:..\u8g2\csrc/mui_u8g2.c ****       }
 2205              		.loc 1 925 0
 2206 006e 0120     		movs	r0, #1
 2207 0070 38BD     		pop	{r3, r4, r5, pc}
 2208              	.LVL303:
 2209              	.L184:
 929:..\u8g2\csrc/mui_u8g2.c ****       {
 2210              		.loc 1 929 0
 2211 0072 90F82600 		ldrb	r0, [r0, #38]	@ zero_extendqisi2
 2212              	.LVL304:
 2213 0076 68B1     		cbz	r0, .L179
 931:..\u8g2\csrc/mui_u8g2.c ****           *value = mui_fds_get_token_cnt(ui);
 2214              		.loc 1 931 0
 2215 0078 2B78     		ldrb	r3, [r5]	@ zero_extendqisi2
 2216 007a 1BB9     		cbnz	r3, .L186
 932:..\u8g2\csrc/mui_u8g2.c ****         (*value)--;
 2217              		.loc 1 932 0
 2218 007c 2046     		mov	r0, r4
 2219 007e FFF7FEFF 		bl	mui_fds_get_token_cnt
 2220              	.LVL305:
 2221 0082 2870     		strb	r0, [r5]
 2222              	.L186:
 933:..\u8g2\csrc/mui_u8g2.c ****         return 1;
 2223              		.loc 1 933 0
 2224 0084 2B78     		ldrb	r3, [r5]	@ zero_extendqisi2
 2225 0086 013B     		subs	r3, r3, #1
 2226 0088 2B70     		strb	r3, [r5]
 934:..\u8g2\csrc/mui_u8g2.c ****       }
 2227              		.loc 1 934 0
 2228 008a 0120     		movs	r0, #1
 2229 008c 38BD     		pop	{r3, r4, r5, pc}
 2230              	.LVL306:
 2231              	.L187:
 938:..\u8g2\csrc/mui_u8g2.c **** }
 2232              		.loc 1 938 0
 2233 008e 0020     		movs	r0, #0
 2234              	.LVL307:
 2235 0090 38BD     		pop	{r3, r4, r5, pc}
 2236              	.LVL308:
 2237              	.L188:
 925:..\u8g2\csrc/mui_u8g2.c ****       }
 2238              		.loc 1 925 0
 2239 0092 0120     		movs	r0, #1
ARM GAS  C:\Users\brian\AppData\Local\Temp\ccwE2E8f.s 			page 72


 2240              	.L179:
 939:..\u8g2\csrc/mui_u8g2.c **** 
 2241              		.loc 1 939 0
 2242 0094 38BD     		pop	{r3, r4, r5, pc}
 2243              		.cfi_endproc
 2244              	.LFE28:
 2245              		.size	mui_u8g2_u8_opt_line_wa_mud_pi, .-mui_u8g2_u8_opt_line_wa_mud_pi
 2246 0096 00BF     		.section	.text.mui_u8g2_u8_chkbox_wm_pi,"ax",%progbits
 2247              		.align	2
 2248              		.global	mui_u8g2_u8_chkbox_wm_pi
 2249              		.thumb
 2250              		.thumb_func
 2251              		.type	mui_u8g2_u8_chkbox_wm_pi, %function
 2252              	mui_u8g2_u8_chkbox_wm_pi:
 2253              	.LFB29:
 969:..\u8g2\csrc/mui_u8g2.c ****   u8g2_t *u8g2 = mui_get_U8g2(ui);
 2254              		.loc 1 969 0
 2255              		.cfi_startproc
 2256              		@ args = 0, pretend = 0, frame = 0
 2257              		@ frame_needed = 0, uses_anonymous_args = 0
 2258              	.LVL309:
 2259 0000 2DE9F047 		push	{r4, r5, r6, r7, r8, r9, r10, lr}
 2260              		.cfi_def_cfa_offset 32
 2261              		.cfi_offset 4, -32
 2262              		.cfi_offset 5, -28
 2263              		.cfi_offset 6, -24
 2264              		.cfi_offset 7, -20
 2265              		.cfi_offset 8, -16
 2266              		.cfi_offset 9, -12
 2267              		.cfi_offset 10, -8
 2268              		.cfi_offset 14, -4
 2269 0004 84B0     		sub	sp, sp, #16
 2270              		.cfi_def_cfa_offset 48
 2271 0006 0446     		mov	r4, r0
 2272 0008 0D46     		mov	r5, r1
 970:..\u8g2\csrc/mui_u8g2.c ****   u8g2_uint_t flags = 0;
 2273              		.loc 1 970 0
 2274 000a FFF7FEFF 		bl	mui_get_U8g2
 2275              	.LVL310:
 972:..\u8g2\csrc/mui_u8g2.c ****   switch(msg)
 2276              		.loc 1 972 0
 2277 000e A36B     		ldr	r3, [r4, #56]
 2278 0010 5B68     		ldr	r3, [r3, #4]
 2279              	.LVL311:
 973:..\u8g2\csrc/mui_u8g2.c ****   {
 2280              		.loc 1 973 0
 2281 0012 012D     		cmp	r5, #1
 2282 0014 02D0     		beq	.L192
 2283 0016 052D     		cmp	r5, #5
 2284 0018 64D0     		beq	.L193
 2285 001a 6BE0     		b	.L191
 2286              	.L192:
 2287 001c 0646     		mov	r6, r0
 976:..\u8g2\csrc/mui_u8g2.c ****       if ( mui_IsCursorFocus(ui) )
 2288              		.loc 1 976 0
 2289 001e 1A78     		ldrb	r2, [r3]	@ zero_extendqisi2
 2290 0020 012A     		cmp	r2, #1
ARM GAS  C:\Users\brian\AppData\Local\Temp\ccwE2E8f.s 			page 73


 2291 0022 01D9     		bls	.L194
 976:..\u8g2\csrc/mui_u8g2.c ****       if ( mui_IsCursorFocus(ui) )
 2292              		.loc 1 976 0 is_stmt 0 discriminator 1
 2293 0024 0122     		movs	r2, #1
 2294 0026 1A70     		strb	r2, [r3]
 2295              	.L194:
 977:..\u8g2\csrc/mui_u8g2.c ****       {
 2296              		.loc 1 977 0 is_stmt 1
 2297 0028 94F82D20 		ldrb	r2, [r4, #45]	@ zero_extendqisi2
 2298 002c 12F0010F 		tst	r2, #1
 2299 0030 01D1     		bne	.L199
 971:..\u8g2\csrc/mui_u8g2.c ****   uint8_t *value = (uint8_t *)muif_get_data(ui->uif);
 2300              		.loc 1 971 0
 2301 0032 0027     		movs	r7, #0
 2302 0034 00E0     		b	.L195
 2303              	.L199:
 979:..\u8g2\csrc/mui_u8g2.c ****       }
 2304              		.loc 1 979 0
 2305 0036 2027     		movs	r7, #32
 2306              	.L195:
 2307              	.LVL312:
 2308              	.LBB3:
 984:..\u8g2\csrc/mui_u8g2.c ****         if ( *value )
 2309              		.loc 1 984 0
 2310 0038 96F98E50 		ldrsb	r5, [r6, #142]
 2311 003c ADB2     		uxth	r5, r5
 2312              	.LVL313:
 985:..\u8g2\csrc/mui_u8g2.c ****           u8g2_DrawCheckbox(u8g2, mui_get_x(ui), mui_get_y(ui), a, 1);
 2313              		.loc 1 985 0
 2314 003e 1B78     		ldrb	r3, [r3]	@ zero_extendqisi2
 2315              	.LVL314:
 2316 0040 7BB1     		cbz	r3, .L196
 986:..\u8g2\csrc/mui_u8g2.c ****         else
 2317              		.loc 1 986 0
 2318 0042 2046     		mov	r0, r4
 2319              	.LVL315:
 2320 0044 FFF7FEFF 		bl	mui_get_x
 2321              	.LVL316:
 2322 0048 8046     		mov	r8, r0
 2323 004a 2046     		mov	r0, r4
 2324 004c FFF7FEFF 		bl	mui_get_y
 2325              	.LVL317:
 2326 0050 0123     		movs	r3, #1
 2327 0052 0093     		str	r3, [sp]
 2328 0054 2B46     		mov	r3, r5
 2329 0056 0246     		mov	r2, r0
 2330 0058 4146     		mov	r1, r8
 2331 005a 3046     		mov	r0, r6
 2332 005c FFF7FEFF 		bl	u8g2_DrawCheckbox
 2333              	.LVL318:
 2334 0060 0EE0     		b	.L197
 2335              	.LVL319:
 2336              	.L196:
 988:..\u8g2\csrc/mui_u8g2.c ****         
 2337              		.loc 1 988 0
 2338 0062 2046     		mov	r0, r4
 2339              	.LVL320:
ARM GAS  C:\Users\brian\AppData\Local\Temp\ccwE2E8f.s 			page 74


 2340 0064 FFF7FEFF 		bl	mui_get_x
 2341              	.LVL321:
 2342 0068 8046     		mov	r8, r0
 2343 006a 2046     		mov	r0, r4
 2344 006c FFF7FEFF 		bl	mui_get_y
 2345              	.LVL322:
 2346 0070 0023     		movs	r3, #0
 2347 0072 0093     		str	r3, [sp]
 2348 0074 2B46     		mov	r3, r5
 2349 0076 0246     		mov	r2, r0
 2350 0078 4146     		mov	r1, r8
 2351 007a 3046     		mov	r0, r6
 2352 007c FFF7FEFF 		bl	u8g2_DrawCheckbox
 2353              	.LVL323:
 2354              	.L197:
 990:..\u8g2\csrc/mui_u8g2.c ****         {
 2355              		.loc 1 990 0
 2356 0080 94F83C30 		ldrb	r3, [r4, #60]	@ zero_extendqisi2
 2357 0084 C3B1     		cbz	r3, .L200
 992:..\u8g2\csrc/mui_u8g2.c ****           //u8g2_SetFontMode(u8g2, 1);
 2358              		.loc 1 992 0
 2359 0086 04F13C0A 		add	r10, r4, #60
 2360 008a 5146     		mov	r1, r10
 2361 008c 3046     		mov	r0, r6
 2362 008e FFF7FEFF 		bl	u8g2_GetUTF8Width
 2363              	.LVL324:
 2364 0092 8146     		mov	r9, r0
 2365              	.LVL325:
 994:..\u8g2\csrc/mui_u8g2.c ****           u8g2_DrawUTF8(u8g2, mui_get_x(ui)+a, mui_get_y(ui), ui->text);
 2366              		.loc 1 994 0
 2367 0094 0235     		adds	r5, r5, #2
 2368              	.LVL326:
 2369 0096 ADB2     		uxth	r5, r5
 2370              	.LVL327:
 995:..\u8g2\csrc/mui_u8g2.c ****         }
 2371              		.loc 1 995 0
 2372 0098 2046     		mov	r0, r4
 2373 009a FFF7FEFF 		bl	mui_get_x
 2374              	.LVL328:
 2375 009e 2844     		add	r0, r0, r5
 2376 00a0 1FFA80F8 		uxth	r8, r0
 2377 00a4 2046     		mov	r0, r4
 2378 00a6 FFF7FEFF 		bl	mui_get_y
 2379              	.LVL329:
 2380 00aa 5346     		mov	r3, r10
 2381 00ac 0246     		mov	r2, r0
 2382 00ae 4146     		mov	r1, r8
 2383 00b0 3046     		mov	r0, r6
 2384 00b2 FFF7FEFF 		bl	u8g2_DrawUTF8
 2385              	.LVL330:
 2386 00b6 01E0     		b	.L198
 2387              	.LVL331:
 2388              	.L200:
 983:..\u8g2\csrc/mui_u8g2.c ****         u8g2_uint_t a = u8g2_GetAscent(u8g2);
 2389              		.loc 1 983 0
 2390 00b8 4FF00009 		mov	r9, #0
 2391              	.LVL332:
ARM GAS  C:\Users\brian\AppData\Local\Temp\ccwE2E8f.s 			page 75


 2392              	.L198:
 998:..\u8g2\csrc/mui_u8g2.c ****       }
 2393              		.loc 1 998 0
 2394 00bc 2046     		mov	r0, r4
 2395 00be FFF7FEFF 		bl	mui_get_x
 2396              	.LVL333:
 2397 00c2 8046     		mov	r8, r0
 2398 00c4 2046     		mov	r0, r4
 2399 00c6 FFF7FEFF 		bl	mui_get_y
 2400              	.LVL334:
 2401 00ca 0123     		movs	r3, #1
 2402 00cc 0293     		str	r3, [sp, #8]
 2403 00ce 0193     		str	r3, [sp, #4]
 2404 00d0 4D44     		add	r5, r5, r9
 2405              	.LVL335:
 2406 00d2 ADB2     		uxth	r5, r5
 2407 00d4 0095     		str	r5, [sp]
 2408 00d6 3B46     		mov	r3, r7
 2409 00d8 0246     		mov	r2, r0
 2410 00da 4146     		mov	r1, r8
 2411 00dc 3046     		mov	r0, r6
 2412 00de FFF7FEFF 		bl	u8g2_DrawButtonFrame
 2413              	.LVL336:
 2414              	.LBE3:
1000:..\u8g2\csrc/mui_u8g2.c ****     case MUIF_MSG_FORM_START:
 2415              		.loc 1 1000 0
 2416 00e2 07E0     		b	.L191
 2417              	.LVL337:
 2418              	.L193:
1008:..\u8g2\csrc/mui_u8g2.c ****       if ( *value > 1 ) *value = 0;      
 2419              		.loc 1 1008 0
 2420 00e4 1A78     		ldrb	r2, [r3]	@ zero_extendqisi2
 2421 00e6 0132     		adds	r2, r2, #1
 2422 00e8 D2B2     		uxtb	r2, r2
 2423 00ea 1A70     		strb	r2, [r3]
1009:..\u8g2\csrc/mui_u8g2.c ****     case MUIF_MSG_CURSOR_LEAVE:
 2424              		.loc 1 1009 0
 2425 00ec 012A     		cmp	r2, #1
 2426 00ee 01D9     		bls	.L191
1009:..\u8g2\csrc/mui_u8g2.c ****     case MUIF_MSG_CURSOR_LEAVE:
 2427              		.loc 1 1009 0 is_stmt 0 discriminator 1
 2428 00f0 0022     		movs	r2, #0
 2429 00f2 1A70     		strb	r2, [r3]
 2430              	.LVL338:
 2431              	.L191:
1018:..\u8g2\csrc/mui_u8g2.c **** 
 2432              		.loc 1 1018 0 is_stmt 1
 2433 00f4 0020     		movs	r0, #0
 2434 00f6 04B0     		add	sp, sp, #16
 2435              		.cfi_def_cfa_offset 32
 2436              		@ sp needed
 2437 00f8 BDE8F087 		pop	{r4, r5, r6, r7, r8, r9, r10, pc}
 2438              		.cfi_endproc
 2439              	.LFE29:
 2440              		.size	mui_u8g2_u8_chkbox_wm_pi, .-mui_u8g2_u8_chkbox_wm_pi
 2441              		.section	.text.mui_u8g2_u8_radio_wm_pi,"ax",%progbits
 2442              		.align	2
ARM GAS  C:\Users\brian\AppData\Local\Temp\ccwE2E8f.s 			page 76


 2443              		.global	mui_u8g2_u8_radio_wm_pi
 2444              		.thumb
 2445              		.thumb_func
 2446              		.type	mui_u8g2_u8_radio_wm_pi, %function
 2447              	mui_u8g2_u8_radio_wm_pi:
 2448              	.LFB30:
1024:..\u8g2\csrc/mui_u8g2.c ****   u8g2_t *u8g2 = mui_get_U8g2(ui);
 2449              		.loc 1 1024 0
 2450              		.cfi_startproc
 2451              		@ args = 0, pretend = 0, frame = 0
 2452              		@ frame_needed = 0, uses_anonymous_args = 0
 2453              	.LVL339:
 2454 0000 2DE9F047 		push	{r4, r5, r6, r7, r8, r9, r10, lr}
 2455              		.cfi_def_cfa_offset 32
 2456              		.cfi_offset 4, -32
 2457              		.cfi_offset 5, -28
 2458              		.cfi_offset 6, -24
 2459              		.cfi_offset 7, -20
 2460              		.cfi_offset 8, -16
 2461              		.cfi_offset 9, -12
 2462              		.cfi_offset 10, -8
 2463              		.cfi_offset 14, -4
 2464 0004 84B0     		sub	sp, sp, #16
 2465              		.cfi_def_cfa_offset 48
 2466 0006 0446     		mov	r4, r0
 2467 0008 0D46     		mov	r5, r1
1025:..\u8g2\csrc/mui_u8g2.c ****   u8g2_uint_t flags = 0;
 2468              		.loc 1 1025 0
 2469 000a FFF7FEFF 		bl	mui_get_U8g2
 2470              	.LVL340:
1027:..\u8g2\csrc/mui_u8g2.c ****   switch(msg)
 2471              		.loc 1 1027 0
 2472 000e A36B     		ldr	r3, [r4, #56]
 2473 0010 5B68     		ldr	r3, [r3, #4]
 2474              	.LVL341:
1028:..\u8g2\csrc/mui_u8g2.c ****   {
 2475              		.loc 1 1028 0
 2476 0012 012D     		cmp	r5, #1
 2477 0014 02D0     		beq	.L204
 2478 0016 052D     		cmp	r5, #5
 2479 0018 62D0     		beq	.L205
 2480 001a 64E0     		b	.L203
 2481              	.L204:
 2482 001c 0646     		mov	r6, r0
1031:..\u8g2\csrc/mui_u8g2.c ****       {
 2483              		.loc 1 1031 0
 2484 001e 94F82D20 		ldrb	r2, [r4, #45]	@ zero_extendqisi2
 2485 0022 12F0010F 		tst	r2, #1
 2486 0026 01D1     		bne	.L210
1026:..\u8g2\csrc/mui_u8g2.c ****   uint8_t *value = (uint8_t *)muif_get_data(ui->uif);
 2487              		.loc 1 1026 0
 2488 0028 0027     		movs	r7, #0
 2489 002a 00E0     		b	.L206
 2490              	.L210:
1033:..\u8g2\csrc/mui_u8g2.c ****       }
 2491              		.loc 1 1033 0
 2492 002c 2027     		movs	r7, #32
ARM GAS  C:\Users\brian\AppData\Local\Temp\ccwE2E8f.s 			page 77


 2493              	.L206:
 2494              	.LVL342:
 2495              	.LBB4:
1038:..\u8g2\csrc/mui_u8g2.c ****         if ( *value == ui->arg )
 2496              		.loc 1 1038 0
 2497 002e 96F98E50 		ldrsb	r5, [r6, #142]
 2498 0032 ADB2     		uxth	r5, r5
 2499              	.LVL343:
1039:..\u8g2\csrc/mui_u8g2.c ****           u8g2_DrawCheckbox(u8g2, mui_get_x(ui), mui_get_y(ui), a, 1);
 2500              		.loc 1 1039 0
 2501 0034 1A78     		ldrb	r2, [r3]	@ zero_extendqisi2
 2502 0036 94F82E30 		ldrb	r3, [r4, #46]	@ zero_extendqisi2
 2503              	.LVL344:
 2504 003a 9A42     		cmp	r2, r3
 2505 003c 0FD1     		bne	.L207
1040:..\u8g2\csrc/mui_u8g2.c ****         else
 2506              		.loc 1 1040 0
 2507 003e 2046     		mov	r0, r4
 2508              	.LVL345:
 2509 0040 FFF7FEFF 		bl	mui_get_x
 2510              	.LVL346:
 2511 0044 8046     		mov	r8, r0
 2512 0046 2046     		mov	r0, r4
 2513 0048 FFF7FEFF 		bl	mui_get_y
 2514              	.LVL347:
 2515 004c 0123     		movs	r3, #1
 2516 004e 0093     		str	r3, [sp]
 2517 0050 2B46     		mov	r3, r5
 2518 0052 0246     		mov	r2, r0
 2519 0054 4146     		mov	r1, r8
 2520 0056 3046     		mov	r0, r6
 2521 0058 FFF7FEFF 		bl	u8g2_DrawCheckbox
 2522              	.LVL348:
 2523 005c 0EE0     		b	.L208
 2524              	.LVL349:
 2525              	.L207:
1042:..\u8g2\csrc/mui_u8g2.c ****         
 2526              		.loc 1 1042 0
 2527 005e 2046     		mov	r0, r4
 2528              	.LVL350:
 2529 0060 FFF7FEFF 		bl	mui_get_x
 2530              	.LVL351:
 2531 0064 8046     		mov	r8, r0
 2532 0066 2046     		mov	r0, r4
 2533 0068 FFF7FEFF 		bl	mui_get_y
 2534              	.LVL352:
 2535 006c 0023     		movs	r3, #0
 2536 006e 0093     		str	r3, [sp]
 2537 0070 2B46     		mov	r3, r5
 2538 0072 0246     		mov	r2, r0
 2539 0074 4146     		mov	r1, r8
 2540 0076 3046     		mov	r0, r6
 2541 0078 FFF7FEFF 		bl	u8g2_DrawCheckbox
 2542              	.LVL353:
 2543              	.L208:
1044:..\u8g2\csrc/mui_u8g2.c ****         {
 2544              		.loc 1 1044 0
ARM GAS  C:\Users\brian\AppData\Local\Temp\ccwE2E8f.s 			page 78


 2545 007c 94F83C30 		ldrb	r3, [r4, #60]	@ zero_extendqisi2
 2546 0080 C3B1     		cbz	r3, .L211
1046:..\u8g2\csrc/mui_u8g2.c ****           //u8g2_SetFontMode(u8g2, 1);
 2547              		.loc 1 1046 0
 2548 0082 04F13C0A 		add	r10, r4, #60
 2549 0086 5146     		mov	r1, r10
 2550 0088 3046     		mov	r0, r6
 2551 008a FFF7FEFF 		bl	u8g2_GetUTF8Width
 2552              	.LVL354:
 2553 008e 8146     		mov	r9, r0
 2554              	.LVL355:
1048:..\u8g2\csrc/mui_u8g2.c ****           u8g2_DrawUTF8(u8g2, mui_get_x(ui)+a, mui_get_y(ui), ui->text);
 2555              		.loc 1 1048 0
 2556 0090 0235     		adds	r5, r5, #2
 2557              	.LVL356:
 2558 0092 ADB2     		uxth	r5, r5
 2559              	.LVL357:
1049:..\u8g2\csrc/mui_u8g2.c ****         }
 2560              		.loc 1 1049 0
 2561 0094 2046     		mov	r0, r4
 2562 0096 FFF7FEFF 		bl	mui_get_x
 2563              	.LVL358:
 2564 009a 2844     		add	r0, r0, r5
 2565 009c 1FFA80F8 		uxth	r8, r0
 2566 00a0 2046     		mov	r0, r4
 2567 00a2 FFF7FEFF 		bl	mui_get_y
 2568              	.LVL359:
 2569 00a6 5346     		mov	r3, r10
 2570 00a8 0246     		mov	r2, r0
 2571 00aa 4146     		mov	r1, r8
 2572 00ac 3046     		mov	r0, r6
 2573 00ae FFF7FEFF 		bl	u8g2_DrawUTF8
 2574              	.LVL360:
 2575 00b2 01E0     		b	.L209
 2576              	.LVL361:
 2577              	.L211:
1037:..\u8g2\csrc/mui_u8g2.c ****         u8g2_uint_t a = u8g2_GetAscent(u8g2);
 2578              		.loc 1 1037 0
 2579 00b4 4FF00009 		mov	r9, #0
 2580              	.LVL362:
 2581              	.L209:
1052:..\u8g2\csrc/mui_u8g2.c ****       }
 2582              		.loc 1 1052 0
 2583 00b8 2046     		mov	r0, r4
 2584 00ba FFF7FEFF 		bl	mui_get_x
 2585              	.LVL363:
 2586 00be 8046     		mov	r8, r0
 2587 00c0 2046     		mov	r0, r4
 2588 00c2 FFF7FEFF 		bl	mui_get_y
 2589              	.LVL364:
 2590 00c6 0123     		movs	r3, #1
 2591 00c8 0293     		str	r3, [sp, #8]
 2592 00ca 0193     		str	r3, [sp, #4]
 2593 00cc 4D44     		add	r5, r5, r9
 2594              	.LVL365:
 2595 00ce ADB2     		uxth	r5, r5
 2596 00d0 0095     		str	r5, [sp]
ARM GAS  C:\Users\brian\AppData\Local\Temp\ccwE2E8f.s 			page 79


 2597 00d2 3B46     		mov	r3, r7
 2598 00d4 0246     		mov	r2, r0
 2599 00d6 4146     		mov	r1, r8
 2600 00d8 3046     		mov	r0, r6
 2601 00da FFF7FEFF 		bl	u8g2_DrawButtonFrame
 2602              	.LVL366:
 2603              	.LBE4:
1054:..\u8g2\csrc/mui_u8g2.c ****    case MUIF_MSG_FORM_START:
 2604              		.loc 1 1054 0
 2605 00de 02E0     		b	.L203
 2606              	.LVL367:
 2607              	.L205:
1062:..\u8g2\csrc/mui_u8g2.c ****       break;
 2608              		.loc 1 1062 0
 2609 00e0 94F82E20 		ldrb	r2, [r4, #46]	@ zero_extendqisi2
 2610 00e4 1A70     		strb	r2, [r3]
 2611              	.LVL368:
 2612              	.L203:
1072:..\u8g2\csrc/mui_u8g2.c **** 
 2613              		.loc 1 1072 0
 2614 00e6 0020     		movs	r0, #0
 2615 00e8 04B0     		add	sp, sp, #16
 2616              		.cfi_def_cfa_offset 32
 2617              		@ sp needed
 2618 00ea BDE8F087 		pop	{r4, r5, r6, r7, r8, r9, r10, pc}
 2619              		.cfi_endproc
 2620              	.LFE30:
 2621              		.size	mui_u8g2_u8_radio_wm_pi, .-mui_u8g2_u8_radio_wm_pi
 2622 00ee 00BF     		.section	.text.mui_u8g2_u8_opt_parent_wm_mse_pi,"ax",%progbits
 2623              		.align	2
 2624              		.global	mui_u8g2_u8_opt_parent_wm_mse_pi
 2625              		.thumb
 2626              		.thumb_func
 2627              		.type	mui_u8g2_u8_opt_parent_wm_mse_pi, %function
 2628              	mui_u8g2_u8_opt_parent_wm_mse_pi:
 2629              	.LFB31:
1076:..\u8g2\csrc/mui_u8g2.c ****   uint8_t *value = (uint8_t *)muif_get_data(ui->uif);
 2630              		.loc 1 1076 0
 2631              		.cfi_startproc
 2632              		@ args = 0, pretend = 0, frame = 0
 2633              		@ frame_needed = 0, uses_anonymous_args = 0
 2634              	.LVL369:
 2635 0000 38B5     		push	{r3, r4, r5, lr}
 2636              		.cfi_def_cfa_offset 16
 2637              		.cfi_offset 3, -16
 2638              		.cfi_offset 4, -12
 2639              		.cfi_offset 5, -8
 2640              		.cfi_offset 14, -4
 2641 0002 0446     		mov	r4, r0
1077:..\u8g2\csrc/mui_u8g2.c ****   switch(msg)
 2642              		.loc 1 1077 0
 2643 0004 836B     		ldr	r3, [r0, #56]
 2644 0006 5D68     		ldr	r5, [r3, #4]
 2645              	.LVL370:
1078:..\u8g2\csrc/mui_u8g2.c ****   {
 2646              		.loc 1 1078 0
 2647 0008 0129     		cmp	r1, #1
ARM GAS  C:\Users\brian\AppData\Local\Temp\ccwE2E8f.s 			page 80


 2648 000a 02D0     		beq	.L215
 2649 000c 0529     		cmp	r1, #5
 2650 000e 11D0     		beq	.L216
 2651 0010 18E0     		b	.L214
 2652              	.L215:
1081:..\u8g2\csrc/mui_u8g2.c ****       {
 2653              		.loc 1 1081 0
 2654 0012 2978     		ldrb	r1, [r5]	@ zero_extendqisi2
 2655              	.LVL371:
 2656 0014 FFF7FEFF 		bl	mui_fds_get_nth_token
 2657              	.LVL372:
 2658 0018 20B9     		cbnz	r0, .L217
1083:..\u8g2\csrc/mui_u8g2.c ****         mui_fds_get_nth_token(ui, *value);
 2659              		.loc 1 1083 0
 2660 001a 0021     		movs	r1, #0
 2661 001c 2970     		strb	r1, [r5]
1084:..\u8g2\csrc/mui_u8g2.c ****       }      
 2662              		.loc 1 1084 0
 2663 001e 2046     		mov	r0, r4
 2664 0020 FFF7FEFF 		bl	mui_fds_get_nth_token
 2665              	.LVL373:
 2666              	.L217:
1086:..\u8g2\csrc/mui_u8g2.c ****       //mui_u8g2_draw_button_utf(ui, mui_u8g2_get_pi_flags(ui), 0, 1, MUI_U8G2_V_PADDING, ui->text)
 2667              		.loc 1 1086 0
 2668 0024 04F13C03 		add	r3, r4, #60
 2669 0028 0122     		movs	r2, #1
 2670 002a 0021     		movs	r1, #0
 2671 002c 2046     		mov	r0, r4
 2672 002e FFF7FEFF 		bl	mui_u8g2_draw_button_pi
 2673              	.LVL374:
1089:..\u8g2\csrc/mui_u8g2.c ****     case MUIF_MSG_FORM_START:
 2674              		.loc 1 1089 0
 2675 0032 07E0     		b	.L214
 2676              	.LVL375:
 2677              	.L216:
1097:..\u8g2\csrc/mui_u8g2.c ****       mui_GotoForm(ui, ui->arg, *value);  // assumes that the selectable values are at the beginnin
 2678              		.loc 1 1097 0
 2679 0034 FFF7FEFF 		bl	mui_SaveForm
 2680              	.LVL376:
1098:..\u8g2\csrc/mui_u8g2.c ****       break;
 2681              		.loc 1 1098 0
 2682 0038 2A78     		ldrb	r2, [r5]	@ zero_extendqisi2
 2683 003a 94F82E10 		ldrb	r1, [r4, #46]	@ zero_extendqisi2
 2684 003e 2046     		mov	r0, r4
 2685 0040 FFF7FEFF 		bl	mui_GotoForm
 2686              	.LVL377:
 2687              	.L214:
1108:..\u8g2\csrc/mui_u8g2.c **** 
 2688              		.loc 1 1108 0
 2689 0044 0020     		movs	r0, #0
 2690 0046 38BD     		pop	{r3, r4, r5, pc}
 2691              		.cfi_endproc
 2692              	.LFE31:
 2693              		.size	mui_u8g2_u8_opt_parent_wm_mse_pi, .-mui_u8g2_u8_opt_parent_wm_mse_pi
 2694              		.section	.text.mui_u8g2_u8_opt_child_mse_common,"ax",%progbits
 2695              		.align	2
 2696              		.global	mui_u8g2_u8_opt_child_mse_common
ARM GAS  C:\Users\brian\AppData\Local\Temp\ccwE2E8f.s 			page 81


 2697              		.thumb
 2698              		.thumb_func
 2699              		.type	mui_u8g2_u8_opt_child_mse_common, %function
 2700              	mui_u8g2_u8_opt_child_mse_common:
 2701              	.LFB32:
1112:..\u8g2\csrc/mui_u8g2.c ****   uint8_t *value = (uint8_t *)muif_get_data(ui->uif);
 2702              		.loc 1 1112 0
 2703              		.cfi_startproc
 2704              		@ args = 0, pretend = 0, frame = 0
 2705              		@ frame_needed = 0, uses_anonymous_args = 0
 2706              	.LVL378:
 2707 0000 10B5     		push	{r4, lr}
 2708              		.cfi_def_cfa_offset 8
 2709              		.cfi_offset 4, -8
 2710              		.cfi_offset 14, -4
 2711 0002 0446     		mov	r4, r0
1113:..\u8g2\csrc/mui_u8g2.c ****   uint8_t arg = ui->arg;        // remember the arg value, because it might be overwritten
 2712              		.loc 1 1113 0
 2713 0004 836B     		ldr	r3, [r0, #56]
 2714 0006 5868     		ldr	r0, [r3, #4]
 2715              	.LVL379:
1114:..\u8g2\csrc/mui_u8g2.c ****   
 2716              		.loc 1 1114 0
 2717 0008 94F82E20 		ldrb	r2, [r4, #46]	@ zero_extendqisi2
 2718              	.LVL380:
1116:..\u8g2\csrc/mui_u8g2.c ****   {
 2719              		.loc 1 1116 0
 2720 000c 8B1E     		subs	r3, r1, #2
 2721 000e 082B     		cmp	r3, #8
 2722 0010 2BD8     		bhi	.L229
 2723 0012 DFE803F0 		tbb	[pc, r3]
 2724              	.L222:
 2725 0016 05       		.byte	(.L221-.L222)/2
 2726 0017 2A       		.byte	(.L229-.L222)/2
 2727 0018 15       		.byte	(.L223-.L222)/2
 2728 0019 19       		.byte	(.L224-.L222)/2
 2729 001a 2A       		.byte	(.L229-.L222)/2
 2730 001b 2A       		.byte	(.L229-.L222)/2
 2731 001c 2A       		.byte	(.L229-.L222)/2
 2732 001d 22       		.byte	(.L225-.L222)/2
 2733 001e 26       		.byte	(.L226-.L222)/2
 2734 001f 00       		.p2align 1
 2735              	.L221:
1124:..\u8g2\csrc/mui_u8g2.c ****         ui->form_scroll_visible = arg+1;
 2736              		.loc 1 1124 0
 2737 0020 94F82430 		ldrb	r3, [r4, #36]	@ zero_extendqisi2
 2738 0024 9A42     		cmp	r2, r3
 2739 0026 02D3     		bcc	.L227
1125:..\u8g2\csrc/mui_u8g2.c ****       if ( ui->form_scroll_total == 0 )
 2740              		.loc 1 1125 0
 2741 0028 0132     		adds	r2, r2, #1
 2742              	.LVL381:
 2743 002a 84F82420 		strb	r2, [r4, #36]
 2744              	.LVL382:
 2745              	.L227:
1126:..\u8g2\csrc/mui_u8g2.c ****           ui->form_scroll_total = mui_GetSelectableFieldOptionCnt(ui, ui->last_form_fds);
 2746              		.loc 1 1126 0
ARM GAS  C:\Users\brian\AppData\Local\Temp\ccwE2E8f.s 			page 82


 2747 002e 238C     		ldrh	r3, [r4, #32]
 2748 0030 EBB9     		cbnz	r3, .L230
1127:..\u8g2\csrc/mui_u8g2.c ****       //printf("MUIF_MSG_FORM_START: arg=%d visible=%d top=%d total=%d\n", arg, ui->form_scroll_vis
 2749              		.loc 1 1127 0
 2750 0032 616F     		ldr	r1, [r4, #116]
 2751              	.LVL383:
 2752 0034 2046     		mov	r0, r4
 2753              	.LVL384:
 2754 0036 FFF7FEFF 		bl	mui_GetSelectableFieldOptionCnt
 2755              	.LVL385:
 2756 003a 2084     		strh	r0, [r4, #32]	@ movhi
1150:..\u8g2\csrc/mui_u8g2.c **** }
 2757              		.loc 1 1150 0
 2758 003c 0020     		movs	r0, #0
 2759 003e 10BD     		pop	{r4, pc}
 2760              	.LVL386:
 2761              	.L223:
1133:..\u8g2\csrc/mui_u8g2.c ****     case MUIF_MSG_CURSOR_SELECT:
 2762              		.loc 1 1133 0
 2763 0040 2046     		mov	r0, r4
 2764              	.LVL387:
 2765 0042 FFF7FEFF 		bl	mui_u8g2_handle_scroll_next_prev_events
 2766              	.LVL388:
 2767 0046 10BD     		pop	{r4, pc}
 2768              	.LVL389:
 2769              	.L224:
1135:..\u8g2\csrc/mui_u8g2.c ****         *value = ui->form_scroll_top + arg;
 2770              		.loc 1 1135 0
 2771 0048 10B1     		cbz	r0, .L228
1136:..\u8g2\csrc/mui_u8g2.c ****       mui_RestoreForm(ui);
 2772              		.loc 1 1136 0
 2773 004a 638C     		ldrh	r3, [r4, #34]
 2774 004c 1A44     		add	r2, r2, r3
 2775              	.LVL390:
 2776 004e 0270     		strb	r2, [r0]
 2777              	.LVL391:
 2778              	.L228:
1137:..\u8g2\csrc/mui_u8g2.c ****       break;
 2779              		.loc 1 1137 0
 2780 0050 2046     		mov	r0, r4
 2781              	.LVL392:
 2782 0052 FFF7FEFF 		bl	mui_RestoreForm
 2783              	.LVL393:
1150:..\u8g2\csrc/mui_u8g2.c **** }
 2784              		.loc 1 1150 0
 2785 0056 0020     		movs	r0, #0
1138:..\u8g2\csrc/mui_u8g2.c ****     case MUIF_MSG_CURSOR_LEAVE:
 2786              		.loc 1 1138 0
 2787 0058 10BD     		pop	{r4, pc}
 2788              	.LVL394:
 2789              	.L225:
1146:..\u8g2\csrc/mui_u8g2.c ****     case MUIF_MSG_EVENT_PREV:
 2790              		.loc 1 1146 0
 2791 005a 2046     		mov	r0, r4
 2792              	.LVL395:
 2793 005c FFF7FEFF 		bl	mui_u8g2_handle_scroll_next_prev_events
 2794              	.LVL396:
ARM GAS  C:\Users\brian\AppData\Local\Temp\ccwE2E8f.s 			page 83


 2795 0060 10BD     		pop	{r4, pc}
 2796              	.LVL397:
 2797              	.L226:
1148:..\u8g2\csrc/mui_u8g2.c ****   }
 2798              		.loc 1 1148 0
 2799 0062 2046     		mov	r0, r4
 2800              	.LVL398:
 2801 0064 FFF7FEFF 		bl	mui_u8g2_handle_scroll_next_prev_events
 2802              	.LVL399:
 2803 0068 10BD     		pop	{r4, pc}
 2804              	.LVL400:
 2805              	.L229:
1150:..\u8g2\csrc/mui_u8g2.c **** }
 2806              		.loc 1 1150 0
 2807 006a 0020     		movs	r0, #0
 2808              	.LVL401:
 2809 006c 10BD     		pop	{r4, pc}
 2810              	.LVL402:
 2811              	.L230:
 2812 006e 0020     		movs	r0, #0
 2813              	.LVL403:
1151:..\u8g2\csrc/mui_u8g2.c **** 
 2814              		.loc 1 1151 0
 2815 0070 10BD     		pop	{r4, pc}
 2816              		.cfi_endproc
 2817              	.LFE32:
 2818              		.size	mui_u8g2_u8_opt_child_mse_common, .-mui_u8g2_u8_opt_child_mse_common
 2819 0072 00BF     		.section	.text.mui_u8g2_u8_opt_radio_child_wm_mse_pi,"ax",%progbits
 2820              		.align	2
 2821              		.global	mui_u8g2_u8_opt_radio_child_wm_mse_pi
 2822              		.thumb
 2823              		.thumb_func
 2824              		.type	mui_u8g2_u8_opt_radio_child_wm_mse_pi, %function
 2825              	mui_u8g2_u8_opt_radio_child_wm_mse_pi:
 2826              	.LFB33:
1155:..\u8g2\csrc/mui_u8g2.c ****   u8g2_t *u8g2 = mui_get_U8g2(ui);
 2827              		.loc 1 1155 0
 2828              		.cfi_startproc
 2829              		@ args = 0, pretend = 0, frame = 8
 2830              		@ frame_needed = 0, uses_anonymous_args = 0
 2831              	.LVL404:
 2832 0000 2DE9F04F 		push	{r4, r5, r6, r7, r8, r9, r10, fp, lr}
 2833              		.cfi_def_cfa_offset 36
 2834              		.cfi_offset 4, -36
 2835              		.cfi_offset 5, -32
 2836              		.cfi_offset 6, -28
 2837              		.cfi_offset 7, -24
 2838              		.cfi_offset 8, -20
 2839              		.cfi_offset 9, -16
 2840              		.cfi_offset 10, -12
 2841              		.cfi_offset 11, -8
 2842              		.cfi_offset 14, -4
 2843 0004 87B0     		sub	sp, sp, #28
 2844              		.cfi_def_cfa_offset 64
 2845 0006 0446     		mov	r4, r0
 2846 0008 0D46     		mov	r5, r1
1156:..\u8g2\csrc/mui_u8g2.c ****   uint8_t *value = (uint8_t *)muif_get_data(ui->uif);
ARM GAS  C:\Users\brian\AppData\Local\Temp\ccwE2E8f.s 			page 84


 2847              		.loc 1 1156 0
 2848 000a FFF7FEFF 		bl	mui_get_U8g2
 2849              	.LVL405:
1157:..\u8g2\csrc/mui_u8g2.c ****   uint8_t arg = ui->arg;        // remember the arg value, because it might be overwritten
 2850              		.loc 1 1157 0
 2851 000e A36B     		ldr	r3, [r4, #56]
 2852 0010 D3F804A0 		ldr	r10, [r3, #4]
 2853              	.LVL406:
1158:..\u8g2\csrc/mui_u8g2.c ****   
 2854              		.loc 1 1158 0
 2855 0014 94F82E90 		ldrb	r9, [r4, #46]	@ zero_extendqisi2
 2856              	.LVL407:
1160:..\u8g2\csrc/mui_u8g2.c ****   {
 2857              		.loc 1 1160 0
 2858 0018 012D     		cmp	r5, #1
 2859 001a 4BD1     		bne	.L241
 2860 001c 8046     		mov	r8, r0
 2861              	.LVL408:
 2862              	.LBB5:
1165:..\u8g2\csrc/mui_u8g2.c ****         u8g2_uint_t x = mui_get_x(ui);   // if mui_GetSelectableFieldTextOption is called, then fie
 2863              		.loc 1 1165 0
 2864 001e 90F98E60 		ldrsb	r6, [r0, #142]
 2865 0022 B6B2     		uxth	r6, r6
 2866 0024 B51E     		subs	r5, r6, #2
 2867 0026 ADB2     		uxth	r5, r5
 2868              	.LVL409:
1166:..\u8g2\csrc/mui_u8g2.c ****         u8g2_uint_t y = mui_get_y(ui);  // if mui_GetSelectableFieldTextOption is called, then fiel
 2869              		.loc 1 1166 0
 2870 0028 2046     		mov	r0, r4
 2871              	.LVL410:
 2872 002a FFF7FEFF 		bl	mui_get_x
 2873              	.LVL411:
 2874 002e 8346     		mov	fp, r0
 2875              	.LVL412:
1167:..\u8g2\csrc/mui_u8g2.c ****         uint8_t is_focus = mui_IsCursorFocus(ui);
 2876              		.loc 1 1167 0
 2877 0030 2046     		mov	r0, r4
 2878 0032 FFF7FEFF 		bl	mui_get_y
 2879              	.LVL413:
 2880 0036 0590     		str	r0, [sp, #20]
 2881              	.LVL414:
1168:..\u8g2\csrc/mui_u8g2.c ****         if ( *value == arg + ui->form_scroll_top )
 2882              		.loc 1 1168 0
 2883 0038 94F82D70 		ldrb	r7, [r4, #45]	@ zero_extendqisi2
 2884 003c 07F00107 		and	r7, r7, #1
 2885              	.LVL415:
1169:..\u8g2\csrc/mui_u8g2.c ****           u8g2_DrawValueMark(u8g2, x, y, a);
 2886              		.loc 1 1169 0
 2887 0040 9AF80020 		ldrb	r2, [r10]	@ zero_extendqisi2
 2888 0044 638C     		ldrh	r3, [r4, #34]
 2889 0046 4B44     		add	r3, r3, r9
 2890 0048 9A42     		cmp	r2, r3
 2891 004a 05D1     		bne	.L235
1170:..\u8g2\csrc/mui_u8g2.c **** 
 2892              		.loc 1 1170 0
 2893 004c 2B46     		mov	r3, r5
 2894 004e 0246     		mov	r2, r0
ARM GAS  C:\Users\brian\AppData\Local\Temp\ccwE2E8f.s 			page 85


 2895 0050 5946     		mov	r1, fp
 2896 0052 4046     		mov	r0, r8
 2897 0054 FFF7FEFF 		bl	u8g2_DrawValueMark
 2898              	.LVL416:
 2899              	.L235:
1172:..\u8g2\csrc/mui_u8g2.c ****         {
 2900              		.loc 1 1172 0
 2901 0058 94F83C30 		ldrb	r3, [r4, #60]	@ zero_extendqisi2
 2902 005c 33B9     		cbnz	r3, .L236
1176:..\u8g2\csrc/mui_u8g2.c ****         }
 2903              		.loc 1 1176 0
 2904 005e 628C     		ldrh	r2, [r4, #34]
 2905 0060 4A44     		add	r2, r2, r9
 2906 0062 D2B2     		uxtb	r2, r2
 2907 0064 616F     		ldr	r1, [r4, #116]
 2908 0066 2046     		mov	r0, r4
 2909 0068 FFF7FEFF 		bl	mui_GetSelectableFieldTextOption
 2910              	.LVL417:
 2911              	.L236:
1179:..\u8g2\csrc/mui_u8g2.c ****         {
 2912              		.loc 1 1179 0
 2913 006c 94F83C30 		ldrb	r3, [r4, #60]	@ zero_extendqisi2
 2914 0070 7BB1     		cbz	r3, .L239
1181:..\u8g2\csrc/mui_u8g2.c ****           //u8g2_SetFontMode(u8g2, 1);
 2915              		.loc 1 1181 0
 2916 0072 3C34     		adds	r4, r4, #60
 2917              	.LVL418:
 2918 0074 2146     		mov	r1, r4
 2919 0076 4046     		mov	r0, r8
 2920 0078 FFF7FEFF 		bl	u8g2_GetUTF8Width
 2921              	.LVL419:
 2922 007c 8146     		mov	r9, r0
 2923              	.LVL420:
1184:..\u8g2\csrc/mui_u8g2.c ****         }        
 2924              		.loc 1 1184 0
 2925 007e 06EB0B01 		add	r1, r6, fp
 2926 0082 2346     		mov	r3, r4
 2927 0084 059A     		ldr	r2, [sp, #20]
 2928 0086 89B2     		uxth	r1, r1
 2929 0088 4046     		mov	r0, r8
 2930 008a FFF7FEFF 		bl	u8g2_DrawUTF8
 2931              	.LVL421:
1183:..\u8g2\csrc/mui_u8g2.c ****           u8g2_DrawUTF8(u8g2, x+a, y, ui->text);
 2932              		.loc 1 1183 0
 2933 008e 3546     		mov	r5, r6
 2934 0090 01E0     		b	.L237
 2935              	.LVL422:
 2936              	.L239:
1164:..\u8g2\csrc/mui_u8g2.c ****         u8g2_uint_t a = u8g2_GetAscent(u8g2) - 2;
 2937              		.loc 1 1164 0
 2938 0092 4FF00009 		mov	r9, #0
 2939              	.LVL423:
 2940              	.L237:
1186:..\u8g2\csrc/mui_u8g2.c ****         {
 2941              		.loc 1 1186 0
 2942 0096 97B1     		cbz	r7, .L240
1188:..\u8g2\csrc/mui_u8g2.c ****         }
ARM GAS  C:\Users\brian\AppData\Local\Temp\ccwE2E8f.s 			page 86


 2943              		.loc 1 1188 0
 2944 0098 0123     		movs	r3, #1
 2945 009a 0293     		str	r3, [sp, #8]
 2946 009c 0193     		str	r3, [sp, #4]
 2947 009e 4D44     		add	r5, r5, r9
 2948              	.LVL424:
 2949 00a0 ADB2     		uxth	r5, r5
 2950 00a2 0095     		str	r5, [sp]
 2951 00a4 2023     		movs	r3, #32
 2952 00a6 059A     		ldr	r2, [sp, #20]
 2953 00a8 5946     		mov	r1, fp
 2954 00aa 4046     		mov	r0, r8
 2955 00ac FFF7FEFF 		bl	u8g2_DrawButtonFrame
 2956              	.LVL425:
 2957              	.LBE5:
1195:..\u8g2\csrc/mui_u8g2.c **** }
 2958              		.loc 1 1195 0
 2959 00b0 0020     		movs	r0, #0
 2960 00b2 05E0     		b	.L238
 2961              	.LVL426:
 2962              	.L241:
1193:..\u8g2\csrc/mui_u8g2.c ****   }
 2963              		.loc 1 1193 0
 2964 00b4 2946     		mov	r1, r5
 2965 00b6 2046     		mov	r0, r4
 2966              	.LVL427:
 2967 00b8 FFF7FEFF 		bl	mui_u8g2_u8_opt_child_mse_common
 2968              	.LVL428:
 2969 00bc 00E0     		b	.L238
 2970              	.LVL429:
 2971              	.L240:
1195:..\u8g2\csrc/mui_u8g2.c **** }
 2972              		.loc 1 1195 0
 2973 00be 0020     		movs	r0, #0
 2974              	.LVL430:
 2975              	.L238:
1196:..\u8g2\csrc/mui_u8g2.c **** 
 2976              		.loc 1 1196 0
 2977 00c0 07B0     		add	sp, sp, #28
 2978              		.cfi_def_cfa_offset 36
 2979              		@ sp needed
 2980 00c2 BDE8F08F 		pop	{r4, r5, r6, r7, r8, r9, r10, fp, pc}
 2981              		.cfi_endproc
 2982              	.LFE33:
 2983              		.size	mui_u8g2_u8_opt_radio_child_wm_mse_pi, .-mui_u8g2_u8_opt_radio_child_wm_mse_pi
 2984              		.section	.text.mui_u8g2_u8_opt_radio_child_w1_mse_pi,"ax",%progbits
 2985              		.align	2
 2986              		.global	mui_u8g2_u8_opt_radio_child_w1_mse_pi
 2987              		.thumb
 2988              		.thumb_func
 2989              		.type	mui_u8g2_u8_opt_radio_child_w1_mse_pi, %function
 2990              	mui_u8g2_u8_opt_radio_child_w1_mse_pi:
 2991              	.LFB34:
1200:..\u8g2\csrc/mui_u8g2.c ****   u8g2_t *u8g2 = mui_get_U8g2(ui);
 2992              		.loc 1 1200 0
 2993              		.cfi_startproc
 2994              		@ args = 0, pretend = 0, frame = 8
ARM GAS  C:\Users\brian\AppData\Local\Temp\ccwE2E8f.s 			page 87


 2995              		@ frame_needed = 0, uses_anonymous_args = 0
 2996              	.LVL431:
 2997 0000 2DE9F04F 		push	{r4, r5, r6, r7, r8, r9, r10, fp, lr}
 2998              		.cfi_def_cfa_offset 36
 2999              		.cfi_offset 4, -36
 3000              		.cfi_offset 5, -32
 3001              		.cfi_offset 6, -28
 3002              		.cfi_offset 7, -24
 3003              		.cfi_offset 8, -20
 3004              		.cfi_offset 9, -16
 3005              		.cfi_offset 10, -12
 3006              		.cfi_offset 11, -8
 3007              		.cfi_offset 14, -4
 3008 0004 87B0     		sub	sp, sp, #28
 3009              		.cfi_def_cfa_offset 64
 3010 0006 0446     		mov	r4, r0
 3011 0008 0D46     		mov	r5, r1
1201:..\u8g2\csrc/mui_u8g2.c ****   uint8_t *value = (uint8_t *)muif_get_data(ui->uif);
 3012              		.loc 1 1201 0
 3013 000a FFF7FEFF 		bl	mui_get_U8g2
 3014              	.LVL432:
1202:..\u8g2\csrc/mui_u8g2.c ****   uint8_t arg = ui->arg;        // remember the arg value, because it might be overwritten
 3015              		.loc 1 1202 0
 3016 000e A36B     		ldr	r3, [r4, #56]
 3017 0010 D3F804A0 		ldr	r10, [r3, #4]
 3018              	.LVL433:
1203:..\u8g2\csrc/mui_u8g2.c ****   
 3019              		.loc 1 1203 0
 3020 0014 94F82E90 		ldrb	r9, [r4, #46]	@ zero_extendqisi2
 3021              	.LVL434:
1205:..\u8g2\csrc/mui_u8g2.c ****   {
 3022              		.loc 1 1205 0
 3023 0018 012D     		cmp	r5, #1
 3024 001a 45D1     		bne	.L251
 3025 001c 0746     		mov	r7, r0
 3026              	.LBB6:
1210:..\u8g2\csrc/mui_u8g2.c ****         u8g2_uint_t x = mui_get_x(ui);   // if mui_GetSelectableFieldTextOption is called, then fie
 3027              		.loc 1 1210 0
 3028 001e 90F98E50 		ldrsb	r5, [r0, #142]
 3029 0022 ADB2     		uxth	r5, r5
 3030 0024 A5F10208 		sub	r8, r5, #2
 3031 0028 1FFA88F8 		uxth	r8, r8
 3032              	.LVL435:
1211:..\u8g2\csrc/mui_u8g2.c ****         u8g2_uint_t y = mui_get_y(ui);  // if mui_GetSelectableFieldTextOption is called, then fiel
 3033              		.loc 1 1211 0
 3034 002c 2046     		mov	r0, r4
 3035              	.LVL436:
 3036 002e FFF7FEFF 		bl	mui_get_x
 3037              	.LVL437:
 3038 0032 8346     		mov	fp, r0
 3039              	.LVL438:
1212:..\u8g2\csrc/mui_u8g2.c ****         uint8_t is_focus = mui_IsCursorFocus(ui);
 3040              		.loc 1 1212 0
 3041 0034 2046     		mov	r0, r4
 3042 0036 FFF7FEFF 		bl	mui_get_y
 3043              	.LVL439:
 3044 003a 0590     		str	r0, [sp, #20]
ARM GAS  C:\Users\brian\AppData\Local\Temp\ccwE2E8f.s 			page 88


 3045              	.LVL440:
1213:..\u8g2\csrc/mui_u8g2.c ****         
 3046              		.loc 1 1213 0
 3047 003c 94F82D60 		ldrb	r6, [r4, #45]	@ zero_extendqisi2
 3048 0040 06F00106 		and	r6, r6, #1
 3049              	.LVL441:
1215:..\u8g2\csrc/mui_u8g2.c ****           u8g2_DrawValueMark(u8g2, x, y, a);
 3050              		.loc 1 1215 0
 3051 0044 9AF80020 		ldrb	r2, [r10]	@ zero_extendqisi2
 3052 0048 638C     		ldrh	r3, [r4, #34]
 3053 004a 4B44     		add	r3, r3, r9
 3054 004c 9A42     		cmp	r2, r3
 3055 004e 05D1     		bne	.L246
1216:..\u8g2\csrc/mui_u8g2.c **** 
 3056              		.loc 1 1216 0
 3057 0050 4346     		mov	r3, r8
 3058 0052 0246     		mov	r2, r0
 3059 0054 5946     		mov	r1, fp
 3060 0056 3846     		mov	r0, r7
 3061 0058 FFF7FEFF 		bl	u8g2_DrawValueMark
 3062              	.LVL442:
 3063              	.L246:
1218:..\u8g2\csrc/mui_u8g2.c ****         {
 3064              		.loc 1 1218 0
 3065 005c 94F83C30 		ldrb	r3, [r4, #60]	@ zero_extendqisi2
 3066 0060 33B9     		cbnz	r3, .L247
1222:..\u8g2\csrc/mui_u8g2.c ****         }
 3067              		.loc 1 1222 0
 3068 0062 628C     		ldrh	r2, [r4, #34]
 3069 0064 4A44     		add	r2, r2, r9
 3070 0066 D2B2     		uxtb	r2, r2
 3071 0068 616F     		ldr	r1, [r4, #116]
 3072 006a 2046     		mov	r0, r4
 3073 006c FFF7FEFF 		bl	mui_GetSelectableFieldTextOption
 3074              	.LVL443:
 3075              	.L247:
1225:..\u8g2\csrc/mui_u8g2.c ****         {
 3076              		.loc 1 1225 0
 3077 0070 94F83C30 		ldrb	r3, [r4, #60]	@ zero_extendqisi2
 3078 0074 43B1     		cbz	r3, .L248
 3079              	.LVL444:
1230:..\u8g2\csrc/mui_u8g2.c ****         }        
 3080              		.loc 1 1230 0
 3081 0076 05EB0B01 		add	r1, r5, fp
 3082 007a 04F13C03 		add	r3, r4, #60
 3083 007e 059A     		ldr	r2, [sp, #20]
 3084 0080 89B2     		uxth	r1, r1
 3085 0082 3846     		mov	r0, r7
 3086 0084 FFF7FEFF 		bl	u8g2_DrawUTF8
 3087              	.LVL445:
 3088              	.L248:
1232:..\u8g2\csrc/mui_u8g2.c ****         {
 3089              		.loc 1 1232 0
 3090 0088 9EB1     		cbz	r6, .L250
1234:..\u8g2\csrc/mui_u8g2.c ****         }
 3091              		.loc 1 1234 0
 3092 008a 0123     		movs	r3, #1
ARM GAS  C:\Users\brian\AppData\Local\Temp\ccwE2E8f.s 			page 89


 3093 008c 0293     		str	r3, [sp, #8]
 3094 008e 0024     		movs	r4, #0
 3095              	.LVL446:
 3096 0090 0194     		str	r4, [sp, #4]
 3097 0092 B7F84430 		ldrh	r3, [r7, #68]
 3098 0096 0093     		str	r3, [sp]
 3099 0098 2023     		movs	r3, #32
 3100 009a 059A     		ldr	r2, [sp, #20]
 3101 009c 2146     		mov	r1, r4
 3102 009e 3846     		mov	r0, r7
 3103 00a0 FFF7FEFF 		bl	u8g2_DrawButtonFrame
 3104              	.LVL447:
 3105              	.LBE6:
1241:..\u8g2\csrc/mui_u8g2.c **** }
 3106              		.loc 1 1241 0
 3107 00a4 2046     		mov	r0, r4
 3108 00a6 05E0     		b	.L249
 3109              	.LVL448:
 3110              	.L251:
1239:..\u8g2\csrc/mui_u8g2.c ****   }
 3111              		.loc 1 1239 0
 3112 00a8 2946     		mov	r1, r5
 3113 00aa 2046     		mov	r0, r4
 3114              	.LVL449:
 3115 00ac FFF7FEFF 		bl	mui_u8g2_u8_opt_child_mse_common
 3116              	.LVL450:
 3117 00b0 00E0     		b	.L249
 3118              	.LVL451:
 3119              	.L250:
1241:..\u8g2\csrc/mui_u8g2.c **** }
 3120              		.loc 1 1241 0
 3121 00b2 0020     		movs	r0, #0
 3122              	.LVL452:
 3123              	.L249:
1242:..\u8g2\csrc/mui_u8g2.c **** 
 3124              		.loc 1 1242 0
 3125 00b4 07B0     		add	sp, sp, #28
 3126              		.cfi_def_cfa_offset 36
 3127              		@ sp needed
 3128 00b6 BDE8F08F 		pop	{r4, r5, r6, r7, r8, r9, r10, fp, pc}
 3129              		.cfi_endproc
 3130              	.LFE34:
 3131              		.size	mui_u8g2_u8_opt_radio_child_w1_mse_pi, .-mui_u8g2_u8_opt_radio_child_w1_mse_pi
 3132 00ba 00BF     		.section	.text.mui_u8g2_u8_opt_child_wm_mse_pi,"ax",%progbits
 3133              		.align	2
 3134              		.global	mui_u8g2_u8_opt_child_wm_mse_pi
 3135              		.thumb
 3136              		.thumb_func
 3137              		.type	mui_u8g2_u8_opt_child_wm_mse_pi, %function
 3138              	mui_u8g2_u8_opt_child_wm_mse_pi:
 3139              	.LFB35:
1246:..\u8g2\csrc/mui_u8g2.c ****   u8g2_t *u8g2 = mui_get_U8g2(ui);
 3140              		.loc 1 1246 0
 3141              		.cfi_startproc
 3142              		@ args = 0, pretend = 0, frame = 0
 3143              		@ frame_needed = 0, uses_anonymous_args = 0
 3144              	.LVL453:
ARM GAS  C:\Users\brian\AppData\Local\Temp\ccwE2E8f.s 			page 90


 3145 0000 2DE9F043 		push	{r4, r5, r6, r7, r8, r9, lr}
 3146              		.cfi_def_cfa_offset 28
 3147              		.cfi_offset 4, -28
 3148              		.cfi_offset 5, -24
 3149              		.cfi_offset 6, -20
 3150              		.cfi_offset 7, -16
 3151              		.cfi_offset 8, -12
 3152              		.cfi_offset 9, -8
 3153              		.cfi_offset 14, -4
 3154 0004 85B0     		sub	sp, sp, #20
 3155              		.cfi_def_cfa_offset 48
 3156 0006 0446     		mov	r4, r0
 3157 0008 0D46     		mov	r5, r1
1247:..\u8g2\csrc/mui_u8g2.c ****   //uint8_t *value = (uint8_t *)muif_get_data(ui->uif);
 3158              		.loc 1 1247 0
 3159 000a FFF7FEFF 		bl	mui_get_U8g2
 3160              	.LVL454:
1249:..\u8g2\csrc/mui_u8g2.c ****   
 3161              		.loc 1 1249 0
 3162 000e 94F82E90 		ldrb	r9, [r4, #46]	@ zero_extendqisi2
 3163              	.LVL455:
1251:..\u8g2\csrc/mui_u8g2.c ****   {
 3164              		.loc 1 1251 0
 3165 0012 012D     		cmp	r5, #1
 3166 0014 29D1     		bne	.L259
 3167 0016 0646     		mov	r6, r0
 3168              	.LBB7:
1256:..\u8g2\csrc/mui_u8g2.c ****         u8g2_uint_t y = mui_get_y(ui);  // if mui_GetSelectableFieldTextOption is called, then fiel
 3169              		.loc 1 1256 0
 3170 0018 2046     		mov	r0, r4
 3171              	.LVL456:
 3172 001a FFF7FEFF 		bl	mui_get_x
 3173              	.LVL457:
 3174 001e 0546     		mov	r5, r0
 3175              	.LVL458:
1257:..\u8g2\csrc/mui_u8g2.c ****         uint8_t flags = mui_u8g2_get_pi_flags(ui);
 3176              		.loc 1 1257 0
 3177 0020 2046     		mov	r0, r4
 3178 0022 FFF7FEFF 		bl	mui_get_y
 3179              	.LVL459:
 3180 0026 0746     		mov	r7, r0
 3181              	.LVL460:
1258:..\u8g2\csrc/mui_u8g2.c ****         //if ( mui_IsCursorFocus(ui) )
 3182              		.loc 1 1258 0
 3183 0028 2046     		mov	r0, r4
 3184 002a FFF7FEFF 		bl	mui_u8g2_get_pi_flags
 3185              	.LVL461:
 3186 002e 8046     		mov	r8, r0
 3187              	.LVL462:
1264:..\u8g2\csrc/mui_u8g2.c ****         {
 3188              		.loc 1 1264 0
 3189 0030 94F83C30 		ldrb	r3, [r4, #60]	@ zero_extendqisi2
 3190 0034 33B9     		cbnz	r3, .L256
1268:..\u8g2\csrc/mui_u8g2.c ****         }
 3191              		.loc 1 1268 0
 3192 0036 628C     		ldrh	r2, [r4, #34]
 3193 0038 4A44     		add	r2, r2, r9
ARM GAS  C:\Users\brian\AppData\Local\Temp\ccwE2E8f.s 			page 91


 3194 003a D2B2     		uxtb	r2, r2
 3195 003c 616F     		ldr	r1, [r4, #116]
 3196 003e 2046     		mov	r0, r4
 3197 0040 FFF7FEFF 		bl	mui_GetSelectableFieldTextOption
 3198              	.LVL463:
 3199              	.L256:
1270:..\u8g2\csrc/mui_u8g2.c ****         {
 3200              		.loc 1 1270 0
 3201 0044 94F83C30 		ldrb	r3, [r4, #60]	@ zero_extendqisi2
 3202 0048 A3B1     		cbz	r3, .L258
1272:..\u8g2\csrc/mui_u8g2.c ****         }        
 3203              		.loc 1 1272 0
 3204 004a 3C34     		adds	r4, r4, #60
 3205              	.LVL464:
 3206 004c 0394     		str	r4, [sp, #12]
 3207 004e 0123     		movs	r3, #1
 3208 0050 0293     		str	r3, [sp, #8]
 3209 0052 0193     		str	r3, [sp, #4]
 3210 0054 0024     		movs	r4, #0
 3211              	.LVL465:
 3212 0056 0094     		str	r4, [sp]
 3213 0058 5FFA88F3 		uxtb	r3, r8
 3214 005c 3A46     		mov	r2, r7
 3215 005e 2946     		mov	r1, r5
 3216 0060 3046     		mov	r0, r6
 3217 0062 FFF7FEFF 		bl	u8g2_DrawButtonUTF8
 3218              	.LVL466:
 3219              	.LBE7:
1279:..\u8g2\csrc/mui_u8g2.c **** }
 3220              		.loc 1 1279 0
 3221 0066 2046     		mov	r0, r4
 3222 0068 05E0     		b	.L257
 3223              	.LVL467:
 3224              	.L259:
1277:..\u8g2\csrc/mui_u8g2.c ****   }
 3225              		.loc 1 1277 0
 3226 006a 2946     		mov	r1, r5
 3227 006c 2046     		mov	r0, r4
 3228              	.LVL468:
 3229 006e FFF7FEFF 		bl	mui_u8g2_u8_opt_child_mse_common
 3230              	.LVL469:
 3231 0072 00E0     		b	.L257
 3232              	.LVL470:
 3233              	.L258:
1279:..\u8g2\csrc/mui_u8g2.c **** }
 3234              		.loc 1 1279 0
 3235 0074 0020     		movs	r0, #0
 3236              	.LVL471:
 3237              	.L257:
1280:..\u8g2\csrc/mui_u8g2.c **** 
 3238              		.loc 1 1280 0
 3239 0076 05B0     		add	sp, sp, #20
 3240              		.cfi_def_cfa_offset 28
 3241              		@ sp needed
 3242 0078 BDE8F083 		pop	{r4, r5, r6, r7, r8, r9, pc}
 3243              		.cfi_endproc
 3244              	.LFE35:
ARM GAS  C:\Users\brian\AppData\Local\Temp\ccwE2E8f.s 			page 92


 3245              		.size	mui_u8g2_u8_opt_child_wm_mse_pi, .-mui_u8g2_u8_opt_child_wm_mse_pi
 3246              		.section	.text.mui_u8g2_goto_parent,"ax",%progbits
 3247              		.align	2
 3248              		.global	mui_u8g2_goto_parent
 3249              		.thumb
 3250              		.thumb_func
 3251              		.type	mui_u8g2_goto_parent, %function
 3252              	mui_u8g2_goto_parent:
 3253              	.LFB36:
1288:..\u8g2\csrc/mui_u8g2.c ****   switch(msg)
 3254              		.loc 1 1288 0
 3255              		.cfi_startproc
 3256              		@ args = 0, pretend = 0, frame = 0
 3257              		@ frame_needed = 0, uses_anonymous_args = 0
 3258              		@ link register save eliminated.
 3259              	.LVL472:
1289:..\u8g2\csrc/mui_u8g2.c ****   {
 3260              		.loc 1 1289 0
 3261 0000 0229     		cmp	r1, #2
 3262 0002 01D1     		bne	.L262
1296:..\u8g2\csrc/mui_u8g2.c ****       break;
 3263              		.loc 1 1296 0
 3264 0004 436B     		ldr	r3, [r0, #52]
 3265 0006 4367     		str	r3, [r0, #116]
 3266              	.L262:
1312:..\u8g2\csrc/mui_u8g2.c **** 
 3267              		.loc 1 1312 0
 3268 0008 0020     		movs	r0, #0
 3269              	.LVL473:
 3270 000a 7047     		bx	lr
 3271              		.cfi_endproc
 3272              	.LFE36:
 3273              		.size	mui_u8g2_goto_parent, .-mui_u8g2_goto_parent
 3274              		.section	.text.mui_u8g2_goto_child_w1_mse_pi,"ax",%progbits
 3275              		.align	2
 3276              		.global	mui_u8g2_goto_child_w1_mse_pi
 3277              		.thumb
 3278              		.thumb_func
 3279              		.type	mui_u8g2_goto_child_w1_mse_pi, %function
 3280              	mui_u8g2_goto_child_w1_mse_pi:
 3281              	.LFB37:
1317:..\u8g2\csrc/mui_u8g2.c ****   u8g2_t *u8g2 = mui_get_U8g2(ui);
 3282              		.loc 1 1317 0
 3283              		.cfi_startproc
 3284              		@ args = 0, pretend = 0, frame = 0
 3285              		@ frame_needed = 0, uses_anonymous_args = 0
 3286              	.LVL474:
 3287 0000 70B5     		push	{r4, r5, r6, lr}
 3288              		.cfi_def_cfa_offset 16
 3289              		.cfi_offset 4, -16
 3290              		.cfi_offset 5, -12
 3291              		.cfi_offset 6, -8
 3292              		.cfi_offset 14, -4
 3293 0002 0446     		mov	r4, r0
 3294 0004 0D46     		mov	r5, r1
1318:..\u8g2\csrc/mui_u8g2.c ****   uint8_t arg = ui->arg;        // remember the arg value, because it might be overwritten  
 3295              		.loc 1 1318 0
ARM GAS  C:\Users\brian\AppData\Local\Temp\ccwE2E8f.s 			page 93


 3296 0006 FFF7FEFF 		bl	mui_get_U8g2
 3297              	.LVL475:
1319:..\u8g2\csrc/mui_u8g2.c ****   switch(msg)
 3298              		.loc 1 1319 0
 3299 000a 94F82E30 		ldrb	r3, [r4, #46]	@ zero_extendqisi2
 3300              	.LVL476:
1320:..\u8g2\csrc/mui_u8g2.c ****   {
 3301              		.loc 1 1320 0
 3302 000e 012D     		cmp	r5, #1
 3303 0010 02D0     		beq	.L266
 3304 0012 052D     		cmp	r5, #5
 3305 0014 1AD0     		beq	.L267
 3306 0016 2AE0     		b	.L269
 3307              	.L266:
 3308 0018 0646     		mov	r6, r0
1323:..\u8g2\csrc/mui_u8g2.c ****         mui_u8g2_draw_button_pi(ui, u8g2_GetDisplayWidth(u8g2)-mui_get_x(ui)*2, mui_get_x(ui), ui->
 3309              		.loc 1 1323 0
 3310 001a 628C     		ldrh	r2, [r4, #34]
 3311 001c 1A44     		add	r2, r2, r3
 3312 001e D2B2     		uxtb	r2, r2
 3313 0020 616F     		ldr	r1, [r4, #116]
 3314 0022 2046     		mov	r0, r4
 3315              	.LVL477:
 3316 0024 FFF7FEFF 		bl	mui_GetSelectableFieldTextOption
 3317              	.LVL478:
 3318 0028 0346     		mov	r3, r0
 3319 002a 28B3     		cbz	r0, .L268
1324:..\u8g2\csrc/mui_u8g2.c ****       break;
 3320              		.loc 1 1324 0
 3321 002c B6F84450 		ldrh	r5, [r6, #68]
 3322 0030 2046     		mov	r0, r4
 3323 0032 FFF7FEFF 		bl	mui_get_x
 3324              	.LVL479:
 3325 0036 0246     		mov	r2, r0
 3326 0038 A5EB4001 		sub	r1, r5, r0, lsl #1
 3327 003c 04F13D03 		add	r3, r4, #61
 3328 0040 89B2     		uxth	r1, r1
 3329 0042 2046     		mov	r0, r4
 3330 0044 FFF7FEFF 		bl	mui_u8g2_draw_button_pi
 3331              	.LVL480:
1333:..\u8g2\csrc/mui_u8g2.c **** }
 3332              		.loc 1 1333 0
 3333 0048 0023     		movs	r3, #0
 3334 004a 15E0     		b	.L268
 3335              	.LVL481:
 3336              	.L267:
1327:..\u8g2\csrc/mui_u8g2.c ****         return mui_GotoForm(ui, (uint8_t)ui->text[0], 0);
 3337              		.loc 1 1327 0
 3338 004c 628C     		ldrh	r2, [r4, #34]
 3339 004e 1A44     		add	r2, r2, r3
 3340 0050 D2B2     		uxtb	r2, r2
 3341 0052 616F     		ldr	r1, [r4, #116]
 3342 0054 2046     		mov	r0, r4
 3343              	.LVL482:
 3344 0056 FFF7FEFF 		bl	mui_GetSelectableFieldTextOption
 3345              	.LVL483:
 3346 005a 0346     		mov	r3, r0
ARM GAS  C:\Users\brian\AppData\Local\Temp\ccwE2E8f.s 			page 94


 3347 005c 60B1     		cbz	r0, .L268
1328:..\u8g2\csrc/mui_u8g2.c ****       break;
 3348              		.loc 1 1328 0
 3349 005e 0022     		movs	r2, #0
 3350 0060 94F83C10 		ldrb	r1, [r4, #60]	@ zero_extendqisi2
 3351 0064 2046     		mov	r0, r4
 3352 0066 FFF7FEFF 		bl	mui_GotoForm
 3353              	.LVL484:
 3354 006a 0346     		mov	r3, r0
 3355 006c 04E0     		b	.L268
 3356              	.LVL485:
 3357              	.L269:
1331:..\u8g2\csrc/mui_u8g2.c ****   }
 3358              		.loc 1 1331 0
 3359 006e 2946     		mov	r1, r5
 3360 0070 2046     		mov	r0, r4
 3361              	.LVL486:
 3362 0072 FFF7FEFF 		bl	mui_u8g2_u8_opt_child_mse_common
 3363              	.LVL487:
 3364 0076 0346     		mov	r3, r0
 3365              	.L268:
1334:..\u8g2\csrc/mui_u8g2.c **** 
 3366              		.loc 1 1334 0
 3367 0078 1846     		mov	r0, r3
 3368 007a 70BD     		pop	{r4, r5, r6, pc}
 3369              		.cfi_endproc
 3370              	.LFE37:
 3371              		.size	mui_u8g2_goto_child_w1_mse_pi, .-mui_u8g2_goto_child_w1_mse_pi
 3372              		.section	.text.mui_u8g2_u16_list_line_wa_mse_pi,"ax",%progbits
 3373              		.align	2
 3374              		.global	mui_u8g2_u16_list_line_wa_mse_pi
 3375              		.thumb
 3376              		.thumb_func
 3377              		.type	mui_u8g2_u16_list_line_wa_mse_pi, %function
 3378              	mui_u8g2_u16_list_line_wa_mse_pi:
 3379              	.LFB38:
1341:..\u8g2\csrc/mui_u8g2.c ****   //u8g2_t *u8g2 = mui_get_U8g2(ui);
 3380              		.loc 1 1341 0
 3381              		.cfi_startproc
 3382              		@ args = 0, pretend = 0, frame = 0
 3383              		@ frame_needed = 0, uses_anonymous_args = 0
 3384              	.LVL488:
 3385 0000 70B5     		push	{r4, r5, r6, lr}
 3386              		.cfi_def_cfa_offset 16
 3387              		.cfi_offset 4, -16
 3388              		.cfi_offset 5, -12
 3389              		.cfi_offset 6, -8
 3390              		.cfi_offset 14, -4
 3391 0002 0446     		mov	r4, r0
1343:..\u8g2\csrc/mui_u8g2.c ****   uint16_t *selection =  mui_u8g2_list_get_selection_ptr(list);
 3392              		.loc 1 1343 0
 3393 0004 836B     		ldr	r3, [r0, #56]
 3394 0006 5B68     		ldr	r3, [r3, #4]
 3395              	.LVL489:
1344:..\u8g2\csrc/mui_u8g2.c ****   void *data = mui_u8g2_list_get_data_ptr(list);
 3396              		.loc 1 1344 0
 3397 0008 1D68     		ldr	r5, [r3]
ARM GAS  C:\Users\brian\AppData\Local\Temp\ccwE2E8f.s 			page 95


 3398              	.LVL490:
1345:..\u8g2\csrc/mui_u8g2.c ****   mui_u8g2_get_list_element_cb element_cb =  mui_u8g2_list_get_element_cb(list);
 3399              		.loc 1 1345 0
 3400 000a 5868     		ldr	r0, [r3, #4]
 3401              	.LVL491:
1346:..\u8g2\csrc/mui_u8g2.c ****   mui_u8g2_get_list_count_cb count_cb = mui_u8g2_list_get_count_cb(list);
 3402              		.loc 1 1346 0
 3403 000c 9A68     		ldr	r2, [r3, #8]
 3404              	.LVL492:
1347:..\u8g2\csrc/mui_u8g2.c ****   
 3405              		.loc 1 1347 0
 3406 000e DB68     		ldr	r3, [r3, #12]
 3407              	.LVL493:
1349:..\u8g2\csrc/mui_u8g2.c ****   {
 3408              		.loc 1 1349 0
 3409 0010 0129     		cmp	r1, #1
 3410 0012 02D0     		beq	.L273
 3411 0014 0529     		cmp	r1, #5
 3412 0016 0BD0     		beq	.L274
 3413 0018 13E0     		b	.L272
 3414              	.L273:
1352:..\u8g2\csrc/mui_u8g2.c ****       //mui_u8g2_draw_button_utf(ui, mui_u8g2_get_pi_flags(ui), ui->arg, 1, MUI_U8G2_V_PADDING, ele
 3415              		.loc 1 1352 0
 3416 001a 94F82E60 		ldrb	r6, [r4, #46]	@ zero_extendqisi2
 3417 001e 2988     		ldrh	r1, [r5]
 3418              	.LVL494:
 3419 0020 9047     		blx	r2
 3420              	.LVL495:
 3421 0022 0346     		mov	r3, r0
 3422 0024 0122     		movs	r2, #1
 3423 0026 3146     		mov	r1, r6
 3424 0028 2046     		mov	r0, r4
 3425 002a FFF7FEFF 		bl	mui_u8g2_draw_button_pi
 3426              	.LVL496:
1354:..\u8g2\csrc/mui_u8g2.c ****     case MUIF_MSG_FORM_START:
 3427              		.loc 1 1354 0
 3428 002e 08E0     		b	.L272
 3429              	.LVL497:
 3430              	.L274:
1362:..\u8g2\csrc/mui_u8g2.c ****       if ( *selection >= count_cb(data) ) 
 3431              		.loc 1 1362 0
 3432 0030 2C88     		ldrh	r4, [r5]
 3433              	.LVL498:
 3434 0032 0134     		adds	r4, r4, #1
 3435 0034 A4B2     		uxth	r4, r4
 3436 0036 2C80     		strh	r4, [r5]	@ movhi
 3437              	.LVL499:
1363:..\u8g2\csrc/mui_u8g2.c ****         *selection = 0;
 3438              		.loc 1 1363 0
 3439 0038 9847     		blx	r3
 3440              	.LVL500:
 3441 003a 8442     		cmp	r4, r0
 3442 003c 01D3     		bcc	.L272
1364:..\u8g2\csrc/mui_u8g2.c ****       break;
 3443              		.loc 1 1364 0
 3444 003e 0023     		movs	r3, #0
 3445 0040 2B80     		strh	r3, [r5]	@ movhi
ARM GAS  C:\Users\brian\AppData\Local\Temp\ccwE2E8f.s 			page 96


 3446              	.L272:
1374:..\u8g2\csrc/mui_u8g2.c **** 
 3447              		.loc 1 1374 0
 3448 0042 0020     		movs	r0, #0
 3449 0044 70BD     		pop	{r4, r5, r6, pc}
 3450              		.cfi_endproc
 3451              	.LFE38:
 3452              		.size	mui_u8g2_u16_list_line_wa_mse_pi, .-mui_u8g2_u16_list_line_wa_mse_pi
 3453 0046 00BF     		.section	.text.mui_u8g2_u16_list_line_wa_mud_pi,"ax",%progbits
 3454              		.align	2
 3455              		.global	mui_u8g2_u16_list_line_wa_mud_pi
 3456              		.thumb
 3457              		.thumb_func
 3458              		.type	mui_u8g2_u16_list_line_wa_mud_pi, %function
 3459              	mui_u8g2_u16_list_line_wa_mud_pi:
 3460              	.LFB39:
1377:..\u8g2\csrc/mui_u8g2.c ****   //u8g2_t *u8g2 = mui_get_U8g2(ui);
 3461              		.loc 1 1377 0
 3462              		.cfi_startproc
 3463              		@ args = 0, pretend = 0, frame = 0
 3464              		@ frame_needed = 0, uses_anonymous_args = 0
 3465              	.LVL501:
 3466 0000 F8B5     		push	{r3, r4, r5, r6, r7, lr}
 3467              		.cfi_def_cfa_offset 24
 3468              		.cfi_offset 3, -24
 3469              		.cfi_offset 4, -20
 3470              		.cfi_offset 5, -16
 3471              		.cfi_offset 6, -12
 3472              		.cfi_offset 7, -8
 3473              		.cfi_offset 14, -4
 3474 0002 0446     		mov	r4, r0
1379:..\u8g2\csrc/mui_u8g2.c ****   uint16_t *selection =  mui_u8g2_list_get_selection_ptr(list);
 3475              		.loc 1 1379 0
 3476 0004 836B     		ldr	r3, [r0, #56]
 3477 0006 5B68     		ldr	r3, [r3, #4]
 3478              	.LVL502:
1380:..\u8g2\csrc/mui_u8g2.c ****   void *data = mui_u8g2_list_get_data_ptr(list);
 3479              		.loc 1 1380 0
 3480 0008 1D68     		ldr	r5, [r3]
 3481              	.LVL503:
1381:..\u8g2\csrc/mui_u8g2.c ****   mui_u8g2_get_list_element_cb element_cb =  mui_u8g2_list_get_element_cb(list);
 3482              		.loc 1 1381 0
 3483 000a 5A68     		ldr	r2, [r3, #4]
 3484              	.LVL504:
1382:..\u8g2\csrc/mui_u8g2.c ****   mui_u8g2_get_list_count_cb count_cb = mui_u8g2_list_get_count_cb(list);
 3485              		.loc 1 1382 0
 3486 000c 9E68     		ldr	r6, [r3, #8]
 3487              	.LVL505:
1383:..\u8g2\csrc/mui_u8g2.c ****   
 3488              		.loc 1 1383 0
 3489 000e DB68     		ldr	r3, [r3, #12]
 3490              	.LVL506:
1385:..\u8g2\csrc/mui_u8g2.c ****   {
 3491              		.loc 1 1385 0
 3492 0010 0139     		subs	r1, r1, #1
 3493              	.LVL507:
 3494 0012 0929     		cmp	r1, #9
ARM GAS  C:\Users\brian\AppData\Local\Temp\ccwE2E8f.s 			page 97


 3495 0014 38D8     		bhi	.L284
 3496 0016 DFE801F0 		tbb	[pc, r1]
 3497              	.LVL508:
 3498              	.L279:
 3499 001a 05       		.byte	(.L278-.L279)/2
 3500 001b 37       		.byte	(.L284-.L279)/2
 3501 001c 37       		.byte	(.L284-.L279)/2
 3502 001d 37       		.byte	(.L284-.L279)/2
 3503 001e 12       		.byte	(.L280-.L279)/2
 3504 001f 37       		.byte	(.L284-.L279)/2
 3505 0020 37       		.byte	(.L284-.L279)/2
 3506 0021 37       		.byte	(.L284-.L279)/2
 3507 0022 1B       		.byte	(.L281-.L279)/2
 3508 0023 2A       		.byte	(.L282-.L279)/2
 3509              		.p2align 1
 3510              	.L278:
1388:..\u8g2\csrc/mui_u8g2.c ****       //mui_u8g2_draw_button_utf(ui, mui_u8g2_get_pi_flags(ui), ui->arg, 1, MUI_U8G2_V_PADDING, ele
 3511              		.loc 1 1388 0
 3512 0024 94F82E70 		ldrb	r7, [r4, #46]	@ zero_extendqisi2
 3513 0028 2988     		ldrh	r1, [r5]
 3514 002a 1046     		mov	r0, r2
 3515 002c B047     		blx	r6
 3516              	.LVL509:
 3517 002e 0346     		mov	r3, r0
 3518 0030 0122     		movs	r2, #1
 3519 0032 3946     		mov	r1, r7
 3520 0034 2046     		mov	r0, r4
 3521 0036 FFF7FEFF 		bl	mui_u8g2_draw_button_pi
 3522              	.LVL510:
1426:..\u8g2\csrc/mui_u8g2.c **** }
 3523              		.loc 1 1426 0
 3524 003a 0020     		movs	r0, #0
1390:..\u8g2\csrc/mui_u8g2.c ****     case MUIF_MSG_FORM_START:
 3525              		.loc 1 1390 0
 3526 003c F8BD     		pop	{r3, r4, r5, r6, r7, pc}
 3527              	.LVL511:
 3528              	.L280:
1399:..\u8g2\csrc/mui_u8g2.c ****       break;
 3529              		.loc 1 1399 0
 3530 003e 94F82630 		ldrb	r3, [r4, #38]	@ zero_extendqisi2
 3531              	.LVL512:
 3532 0042 B3FA83F3 		clz	r3, r3
 3533 0046 5B09     		lsrs	r3, r3, #5
 3534 0048 84F82630 		strb	r3, [r4, #38]
 3535              	.LVL513:
1426:..\u8g2\csrc/mui_u8g2.c **** }
 3536              		.loc 1 1426 0
 3537 004c 0020     		movs	r0, #0
1400:..\u8g2\csrc/mui_u8g2.c ****     case MUIF_MSG_CURSOR_LEAVE:
 3538              		.loc 1 1400 0
 3539 004e F8BD     		pop	{r3, r4, r5, r6, r7, pc}
 3540              	.LVL514:
 3541              	.L281:
1408:..\u8g2\csrc/mui_u8g2.c ****       {
 3542              		.loc 1 1408 0
 3543 0050 94F82600 		ldrb	r0, [r4, #38]	@ zero_extendqisi2
 3544 0054 D8B1     		cbz	r0, .L277
ARM GAS  C:\Users\brian\AppData\Local\Temp\ccwE2E8f.s 			page 98


1410:..\u8g2\csrc/mui_u8g2.c ****         if ( *selection >= count_cb(data)  ) 
 3545              		.loc 1 1410 0
 3546 0056 2C88     		ldrh	r4, [r5]
 3547              	.LVL515:
 3548 0058 0134     		adds	r4, r4, #1
 3549 005a A4B2     		uxth	r4, r4
 3550 005c 2C80     		strh	r4, [r5]	@ movhi
 3551              	.LVL516:
1411:..\u8g2\csrc/mui_u8g2.c ****           *selection = 0;      
 3552              		.loc 1 1411 0
 3553 005e 1046     		mov	r0, r2
 3554 0060 9847     		blx	r3
 3555              	.LVL517:
 3556 0062 8442     		cmp	r4, r0
 3557 0064 12D3     		bcc	.L285
1412:..\u8g2\csrc/mui_u8g2.c ****         return 1;
 3558              		.loc 1 1412 0
 3559 0066 0023     		movs	r3, #0
 3560 0068 2B80     		strh	r3, [r5]	@ movhi
1413:..\u8g2\csrc/mui_u8g2.c ****       }
 3561              		.loc 1 1413 0
 3562 006a 0120     		movs	r0, #1
 3563 006c F8BD     		pop	{r3, r4, r5, r6, r7, pc}
 3564              	.LVL518:
 3565              	.L282:
1417:..\u8g2\csrc/mui_u8g2.c ****       {
 3566              		.loc 1 1417 0
 3567 006e 94F82600 		ldrb	r0, [r4, #38]	@ zero_extendqisi2
 3568 0072 60B1     		cbz	r0, .L277
1419:..\u8g2\csrc/mui_u8g2.c ****           *selection = count_cb(data);
 3569              		.loc 1 1419 0
 3570 0074 2988     		ldrh	r1, [r5]
 3571 0076 11B9     		cbnz	r1, .L283
1420:..\u8g2\csrc/mui_u8g2.c ****         (*selection)--;
 3572              		.loc 1 1420 0
 3573 0078 1046     		mov	r0, r2
 3574 007a 9847     		blx	r3
 3575              	.LVL519:
 3576 007c 2880     		strh	r0, [r5]	@ movhi
 3577              	.L283:
1421:..\u8g2\csrc/mui_u8g2.c ****         return 1;
 3578              		.loc 1 1421 0
 3579 007e 2B88     		ldrh	r3, [r5]
 3580 0080 013B     		subs	r3, r3, #1
 3581 0082 2B80     		strh	r3, [r5]	@ movhi
1422:..\u8g2\csrc/mui_u8g2.c ****       }
 3582              		.loc 1 1422 0
 3583 0084 0120     		movs	r0, #1
 3584 0086 F8BD     		pop	{r3, r4, r5, r6, r7, pc}
 3585              	.LVL520:
 3586              	.L284:
1426:..\u8g2\csrc/mui_u8g2.c **** }
 3587              		.loc 1 1426 0
 3588 0088 0020     		movs	r0, #0
 3589 008a F8BD     		pop	{r3, r4, r5, r6, r7, pc}
 3590              	.LVL521:
 3591              	.L285:
ARM GAS  C:\Users\brian\AppData\Local\Temp\ccwE2E8f.s 			page 99


1413:..\u8g2\csrc/mui_u8g2.c ****       }
 3592              		.loc 1 1413 0
 3593 008c 0120     		movs	r0, #1
 3594              	.L277:
1427:..\u8g2\csrc/mui_u8g2.c **** 
 3595              		.loc 1 1427 0
 3596 008e F8BD     		pop	{r3, r4, r5, r6, r7, pc}
 3597              		.cfi_endproc
 3598              	.LFE39:
 3599              		.size	mui_u8g2_u16_list_line_wa_mud_pi, .-mui_u8g2_u16_list_line_wa_mud_pi
 3600              		.section	.text.mui_u8g2_u16_list_parent_wm_mse_pi,"ax",%progbits
 3601              		.align	2
 3602              		.global	mui_u8g2_u16_list_parent_wm_mse_pi
 3603              		.thumb
 3604              		.thumb_func
 3605              		.type	mui_u8g2_u16_list_parent_wm_mse_pi, %function
 3606              	mui_u8g2_u16_list_parent_wm_mse_pi:
 3607              	.LFB40:
1435:..\u8g2\csrc/mui_u8g2.c ****   //u8g2_t *u8g2 = mui_get_U8g2(ui);
 3608              		.loc 1 1435 0
 3609              		.cfi_startproc
 3610              		@ args = 0, pretend = 0, frame = 0
 3611              		@ frame_needed = 0, uses_anonymous_args = 0
 3612              	.LVL522:
 3613 0000 38B5     		push	{r3, r4, r5, lr}
 3614              		.cfi_def_cfa_offset 16
 3615              		.cfi_offset 3, -16
 3616              		.cfi_offset 4, -12
 3617              		.cfi_offset 5, -8
 3618              		.cfi_offset 14, -4
 3619 0002 0446     		mov	r4, r0
1437:..\u8g2\csrc/mui_u8g2.c ****   uint16_t *selection =  mui_u8g2_list_get_selection_ptr(list);
 3620              		.loc 1 1437 0
 3621 0004 836B     		ldr	r3, [r0, #56]
 3622 0006 5B68     		ldr	r3, [r3, #4]
 3623              	.LVL523:
1438:..\u8g2\csrc/mui_u8g2.c ****   void *data = mui_u8g2_list_get_data_ptr(list);
 3624              		.loc 1 1438 0
 3625 0008 1D68     		ldr	r5, [r3]
 3626              	.LVL524:
1439:..\u8g2\csrc/mui_u8g2.c ****   mui_u8g2_get_list_element_cb element_cb =  mui_u8g2_list_get_element_cb(list);
 3627              		.loc 1 1439 0
 3628 000a 5868     		ldr	r0, [r3, #4]
 3629              	.LVL525:
1440:..\u8g2\csrc/mui_u8g2.c ****   //mui_u8g2_get_list_count_cb count_cb = mui_u8g2_list_get_count_cb(list);
 3630              		.loc 1 1440 0
 3631 000c 9B68     		ldr	r3, [r3, #8]
 3632              	.LVL526:
1442:..\u8g2\csrc/mui_u8g2.c ****   {
 3633              		.loc 1 1442 0
 3634 000e 0129     		cmp	r1, #1
 3635 0010 02D0     		beq	.L289
 3636 0012 0529     		cmp	r1, #5
 3637 0014 09D0     		beq	.L290
 3638 0016 11E0     		b	.L288
 3639              	.L289:
1445:..\u8g2\csrc/mui_u8g2.c ****       //mui_u8g2_draw_button_utf(ui, mui_u8g2_get_pi_flags(ui), ui->arg, 1, MUI_U8G2_V_PADDING, ele
ARM GAS  C:\Users\brian\AppData\Local\Temp\ccwE2E8f.s 			page 100


 3640              		.loc 1 1445 0
 3641 0018 2988     		ldrh	r1, [r5]
 3642              	.LVL527:
 3643 001a 9847     		blx	r3
 3644              	.LVL528:
 3645 001c 0346     		mov	r3, r0
 3646 001e 0122     		movs	r2, #1
 3647 0020 0021     		movs	r1, #0
 3648 0022 2046     		mov	r0, r4
 3649 0024 FFF7FEFF 		bl	mui_u8g2_draw_button_pi
 3650              	.LVL529:
1447:..\u8g2\csrc/mui_u8g2.c ****     case MUIF_MSG_FORM_START:
 3651              		.loc 1 1447 0
 3652 0028 08E0     		b	.L288
 3653              	.LVL530:
 3654              	.L290:
1455:..\u8g2\csrc/mui_u8g2.c ****       mui_GotoForm(ui, ui->arg, *selection);  // assumes that the selectable values are at the begi
 3655              		.loc 1 1455 0
 3656 002a 2046     		mov	r0, r4
 3657              	.LVL531:
 3658 002c FFF7FEFF 		bl	mui_SaveForm
 3659              	.LVL532:
1456:..\u8g2\csrc/mui_u8g2.c ****       break;
 3660              		.loc 1 1456 0
 3661 0030 2A78     		ldrb	r2, [r5]	@ zero_extendqisi2
 3662 0032 94F82E10 		ldrb	r1, [r4, #46]	@ zero_extendqisi2
 3663 0036 2046     		mov	r0, r4
 3664 0038 FFF7FEFF 		bl	mui_GotoForm
 3665              	.LVL533:
 3666              	.L288:
1466:..\u8g2\csrc/mui_u8g2.c **** 
 3667              		.loc 1 1466 0
 3668 003c 0020     		movs	r0, #0
 3669 003e 38BD     		pop	{r3, r4, r5, pc}
 3670              		.cfi_endproc
 3671              	.LFE40:
 3672              		.size	mui_u8g2_u16_list_parent_wm_mse_pi, .-mui_u8g2_u16_list_parent_wm_mse_pi
 3673              		.section	.text.mui_u8g2_u16_list_child_w1_mse_pi,"ax",%progbits
 3674              		.align	2
 3675              		.global	mui_u8g2_u16_list_child_w1_mse_pi
 3676              		.thumb
 3677              		.thumb_func
 3678              		.type	mui_u8g2_u16_list_child_w1_mse_pi, %function
 3679              	mui_u8g2_u16_list_child_w1_mse_pi:
 3680              	.LFB42:
1513:..\u8g2\csrc/mui_u8g2.c **** 
1514:..\u8g2\csrc/mui_u8g2.c **** uint8_t mui_u8g2_u16_list_child_w1_mse_pi(mui_t *ui, uint8_t msg)
1515:..\u8g2\csrc/mui_u8g2.c **** {
 3681              		.loc 1 1515 0
 3682              		.cfi_startproc
 3683              		@ args = 0, pretend = 0, frame = 16
 3684              		@ frame_needed = 0, uses_anonymous_args = 0
 3685              	.LVL534:
 3686 0000 2DE9F04F 		push	{r4, r5, r6, r7, r8, r9, r10, fp, lr}
 3687              		.cfi_def_cfa_offset 36
 3688              		.cfi_offset 4, -36
 3689              		.cfi_offset 5, -32
ARM GAS  C:\Users\brian\AppData\Local\Temp\ccwE2E8f.s 			page 101


 3690              		.cfi_offset 6, -28
 3691              		.cfi_offset 7, -24
 3692              		.cfi_offset 8, -20
 3693              		.cfi_offset 9, -16
 3694              		.cfi_offset 10, -12
 3695              		.cfi_offset 11, -8
 3696              		.cfi_offset 14, -4
 3697 0004 89B0     		sub	sp, sp, #36
 3698              		.cfi_def_cfa_offset 72
 3699 0006 0446     		mov	r4, r0
 3700 0008 0D46     		mov	r5, r1
1516:..\u8g2\csrc/mui_u8g2.c ****   u8g2_t *u8g2 = mui_get_U8g2(ui);
 3701              		.loc 1 1516 0
 3702 000a FFF7FEFF 		bl	mui_get_U8g2
 3703              	.LVL535:
 3704 000e 0590     		str	r0, [sp, #20]
 3705              	.LVL536:
1517:..\u8g2\csrc/mui_u8g2.c ****   mui_u8g2_list_t *list = (mui_u8g2_list_t *)muif_get_data(ui->uif);
 3706              		.loc 1 1517 0
 3707 0010 A36B     		ldr	r3, [r4, #56]
 3708 0012 5B68     		ldr	r3, [r3, #4]
 3709              	.LVL537:
1518:..\u8g2\csrc/mui_u8g2.c ****   uint16_t *selection =  mui_u8g2_list_get_selection_ptr(list);
 3710              		.loc 1 1518 0
 3711 0014 D3F800A0 		ldr	r10, [r3]
 3712              	.LVL538:
1519:..\u8g2\csrc/mui_u8g2.c ****   void *data = mui_u8g2_list_get_data_ptr(list);
 3713              		.loc 1 1519 0
 3714 0018 5A68     		ldr	r2, [r3, #4]
 3715 001a 0492     		str	r2, [sp, #16]
 3716              	.LVL539:
1520:..\u8g2\csrc/mui_u8g2.c ****   mui_u8g2_get_list_element_cb element_cb =  mui_u8g2_list_get_element_cb(list);
 3717              		.loc 1 1520 0
 3718 001c 9F68     		ldr	r7, [r3, #8]
 3719              	.LVL540:
1521:..\u8g2\csrc/mui_u8g2.c ****   mui_u8g2_get_list_count_cb count_cb = mui_u8g2_list_get_count_cb(list);
 3720              		.loc 1 1521 0
 3721 001e D3F80C90 		ldr	r9, [r3, #12]
 3722              	.LVL541:
1522:..\u8g2\csrc/mui_u8g2.c ****   uint16_t pos = ui->arg;        // remember the arg value, because it might be overwritten  
 3723              		.loc 1 1522 0
 3724 0022 94F82EB0 		ldrb	fp, [r4, #46]	@ zero_extendqisi2
 3725              	.LVL542:
1523:..\u8g2\csrc/mui_u8g2.c ****   switch(msg)
 3726              		.loc 1 1523 0
 3727 0026 012D     		cmp	r5, #1
 3728 0028 40D1     		bne	.L299
 3729              	.LBB8:
1524:..\u8g2\csrc/mui_u8g2.c ****   {
1525:..\u8g2\csrc/mui_u8g2.c ****     case MUIF_MSG_DRAW:
1526:..\u8g2\csrc/mui_u8g2.c ****       {
1527:..\u8g2\csrc/mui_u8g2.c ****         //u8g2_uint_t w = 0;
1528:..\u8g2\csrc/mui_u8g2.c ****         u8g2_uint_t a = u8g2_GetAscent(u8g2) - 2;
 3730              		.loc 1 1528 0
 3731 002a 90F98E50 		ldrsb	r5, [r0, #142]
 3732 002e ADB2     		uxth	r5, r5
 3733 0030 A5F10208 		sub	r8, r5, #2
ARM GAS  C:\Users\brian\AppData\Local\Temp\ccwE2E8f.s 			page 102


 3734 0034 1FFA88F8 		uxth	r8, r8
 3735              	.LVL543:
1529:..\u8g2\csrc/mui_u8g2.c ****         u8g2_uint_t x = mui_get_x(ui);   // if mui_GetSelectableFieldTextOption is called, then fie
 3736              		.loc 1 1529 0
 3737 0038 2046     		mov	r0, r4
 3738              	.LVL544:
 3739 003a FFF7FEFF 		bl	mui_get_x
 3740              	.LVL545:
 3741 003e 0790     		str	r0, [sp, #28]
 3742              	.LVL546:
1530:..\u8g2\csrc/mui_u8g2.c ****         u8g2_uint_t y = mui_get_y(ui);  // if mui_GetSelectableFieldTextOption is called, then fiel
 3743              		.loc 1 1530 0
 3744 0040 2046     		mov	r0, r4
 3745 0042 FFF7FEFF 		bl	mui_get_y
 3746              	.LVL547:
 3747 0046 0690     		str	r0, [sp, #24]
 3748              	.LVL548:
1531:..\u8g2\csrc/mui_u8g2.c ****         uint8_t is_focus = mui_IsCursorFocus(ui);
 3749              		.loc 1 1531 0
 3750 0048 94F82D60 		ldrb	r6, [r4, #45]	@ zero_extendqisi2
 3751 004c 06F00106 		and	r6, r6, #1
 3752              	.LVL549:
1532:..\u8g2\csrc/mui_u8g2.c **** 
1533:..\u8g2\csrc/mui_u8g2.c ****         pos += ui->form_scroll_top;
 3753              		.loc 1 1533 0
 3754 0050 638C     		ldrh	r3, [r4, #34]
 3755 0052 9B44     		add	fp, fp, r3
 3756              	.LVL550:
 3757 0054 1FFA8BFB 		uxth	fp, fp
 3758              	.LVL551:
1534:..\u8g2\csrc/mui_u8g2.c ****         
1535:..\u8g2\csrc/mui_u8g2.c ****         if ( *selection == pos )
 3759              		.loc 1 1535 0
 3760 0058 BAF80030 		ldrh	r3, [r10]
 3761 005c 9B45     		cmp	fp, r3
 3762 005e 05D1     		bne	.L295
1536:..\u8g2\csrc/mui_u8g2.c ****           u8g2_DrawValueMark(u8g2, x, y, a);
 3763              		.loc 1 1536 0
 3764 0060 4346     		mov	r3, r8
 3765 0062 0246     		mov	r2, r0
 3766 0064 0799     		ldr	r1, [sp, #28]
 3767 0066 0598     		ldr	r0, [sp, #20]
 3768 0068 FFF7FEFF 		bl	u8g2_DrawValueMark
 3769              	.LVL552:
 3770              	.L295:
1537:..\u8g2\csrc/mui_u8g2.c **** 
1538:..\u8g2\csrc/mui_u8g2.c ****         //u8g2_SetFontMode(u8g2, 1);
1539:..\u8g2\csrc/mui_u8g2.c ****         a += 2;       /* add gap between the checkbox and the text area */
1540:..\u8g2\csrc/mui_u8g2.c ****         if ( pos < count_cb(data) )
 3771              		.loc 1 1540 0
 3772 006c 0498     		ldr	r0, [sp, #16]
 3773 006e C847     		blx	r9
 3774              	.LVL553:
 3775 0070 8345     		cmp	fp, r0
 3776 0072 0BD2     		bcs	.L296
1541:..\u8g2\csrc/mui_u8g2.c ****           u8g2_DrawUTF8(u8g2, x+a, y, element_cb(data, pos));
 3777              		.loc 1 1541 0
ARM GAS  C:\Users\brian\AppData\Local\Temp\ccwE2E8f.s 			page 103


 3778 0074 079B     		ldr	r3, [sp, #28]
 3779 0076 1D44     		add	r5, r5, r3
 3780              	.LVL554:
 3781 0078 ADB2     		uxth	r5, r5
 3782 007a 5946     		mov	r1, fp
 3783 007c 0498     		ldr	r0, [sp, #16]
 3784 007e B847     		blx	r7
 3785              	.LVL555:
 3786 0080 0346     		mov	r3, r0
 3787 0082 069A     		ldr	r2, [sp, #24]
 3788 0084 2946     		mov	r1, r5
 3789 0086 0598     		ldr	r0, [sp, #20]
 3790 0088 FFF7FEFF 		bl	u8g2_DrawUTF8
 3791              	.LVL556:
 3792              	.L296:
1542:..\u8g2\csrc/mui_u8g2.c ****         if ( is_focus )
 3793              		.loc 1 1542 0
 3794 008c 9EB1     		cbz	r6, .L298
1543:..\u8g2\csrc/mui_u8g2.c ****         {
1544:..\u8g2\csrc/mui_u8g2.c ****           u8g2_DrawButtonFrame(u8g2, 0, y, U8G2_BTN_INV, u8g2_GetDisplayWidth(u8g2), 0, MUI_U8G2_V_
 3795              		.loc 1 1544 0
 3796 008e 0123     		movs	r3, #1
 3797 0090 0293     		str	r3, [sp, #8]
 3798 0092 0024     		movs	r4, #0
 3799              	.LVL557:
 3800 0094 0194     		str	r4, [sp, #4]
 3801 0096 0598     		ldr	r0, [sp, #20]
 3802 0098 B0F84430 		ldrh	r3, [r0, #68]
 3803 009c 0093     		str	r3, [sp]
 3804 009e 2023     		movs	r3, #32
 3805 00a0 069A     		ldr	r2, [sp, #24]
 3806 00a2 2146     		mov	r1, r4
 3807 00a4 FFF7FEFF 		bl	u8g2_DrawButtonFrame
 3808              	.LVL558:
 3809              	.LBE8:
1545:..\u8g2\csrc/mui_u8g2.c ****         }
1546:..\u8g2\csrc/mui_u8g2.c ****       }
1547:..\u8g2\csrc/mui_u8g2.c ****       break;
1548:..\u8g2\csrc/mui_u8g2.c ****     default:
1549:..\u8g2\csrc/mui_u8g2.c ****       return mui_u8g2_u16_list_child_mse_common(ui, msg);
1550:..\u8g2\csrc/mui_u8g2.c ****   }
1551:..\u8g2\csrc/mui_u8g2.c ****   return 0;
 3810              		.loc 1 1551 0
 3811 00a8 2046     		mov	r0, r4
 3812 00aa 05E0     		b	.L297
 3813              	.LVL559:
 3814              	.L299:
1549:..\u8g2\csrc/mui_u8g2.c ****   }
 3815              		.loc 1 1549 0
 3816 00ac 2946     		mov	r1, r5
 3817 00ae 2046     		mov	r0, r4
 3818              	.LVL560:
 3819 00b0 FFF7FEFF 		bl	mui_u8g2_u16_list_child_mse_common
 3820              	.LVL561:
 3821 00b4 00E0     		b	.L297
 3822              	.LVL562:
 3823              	.L298:
ARM GAS  C:\Users\brian\AppData\Local\Temp\ccwE2E8f.s 			page 104


 3824              		.loc 1 1551 0
 3825 00b6 0020     		movs	r0, #0
 3826              	.LVL563:
 3827              	.L297:
1552:..\u8g2\csrc/mui_u8g2.c **** }
 3828              		.loc 1 1552 0
 3829 00b8 09B0     		add	sp, sp, #36
 3830              		.cfi_def_cfa_offset 36
 3831              		@ sp needed
 3832 00ba BDE8F08F 		pop	{r4, r5, r6, r7, r8, r9, r10, fp, pc}
 3833              		.cfi_endproc
 3834              	.LFE42:
 3835              		.size	mui_u8g2_u16_list_child_w1_mse_pi, .-mui_u8g2_u16_list_child_w1_mse_pi
 3836 00be 00BF     		.section	.text.mui_u8g2_u16_list_goto_w1_mse_pi,"ax",%progbits
 3837              		.align	2
 3838              		.global	mui_u8g2_u16_list_goto_w1_mse_pi
 3839              		.thumb
 3840              		.thumb_func
 3841              		.type	mui_u8g2_u16_list_goto_w1_mse_pi, %function
 3842              	mui_u8g2_u16_list_goto_w1_mse_pi:
 3843              	.LFB43:
1553:..\u8g2\csrc/mui_u8g2.c **** 
1554:..\u8g2\csrc/mui_u8g2.c **** uint8_t mui_u8g2_u16_list_goto_w1_mse_pi(mui_t *ui, uint8_t msg)
1555:..\u8g2\csrc/mui_u8g2.c **** {
 3844              		.loc 1 1555 0
 3845              		.cfi_startproc
 3846              		@ args = 0, pretend = 0, frame = 0
 3847              		@ frame_needed = 0, uses_anonymous_args = 0
 3848              	.LVL564:
 3849 0000 2DE9F843 		push	{r3, r4, r5, r6, r7, r8, r9, lr}
 3850              		.cfi_def_cfa_offset 32
 3851              		.cfi_offset 3, -32
 3852              		.cfi_offset 4, -28
 3853              		.cfi_offset 5, -24
 3854              		.cfi_offset 6, -20
 3855              		.cfi_offset 7, -16
 3856              		.cfi_offset 8, -12
 3857              		.cfi_offset 9, -8
 3858              		.cfi_offset 14, -4
 3859 0004 0546     		mov	r5, r0
 3860 0006 0E46     		mov	r6, r1
1556:..\u8g2\csrc/mui_u8g2.c ****   u8g2_t *u8g2 = mui_get_U8g2(ui);
 3861              		.loc 1 1556 0
 3862 0008 FFF7FEFF 		bl	mui_get_U8g2
 3863              	.LVL565:
1557:..\u8g2\csrc/mui_u8g2.c ****   mui_u8g2_list_t *list = (mui_u8g2_list_t *)muif_get_data(ui->uif);
 3864              		.loc 1 1557 0
 3865 000c AB6B     		ldr	r3, [r5, #56]
 3866 000e 5B68     		ldr	r3, [r3, #4]
 3867              	.LVL566:
1558:..\u8g2\csrc/mui_u8g2.c ****   uint16_t *selection =  mui_u8g2_list_get_selection_ptr(list);
 3868              		.loc 1 1558 0
 3869 0010 1A68     		ldr	r2, [r3]
 3870              	.LVL567:
1559:..\u8g2\csrc/mui_u8g2.c ****   void *data = mui_u8g2_list_get_data_ptr(list);
 3871              		.loc 1 1559 0
 3872 0012 5F68     		ldr	r7, [r3, #4]
ARM GAS  C:\Users\brian\AppData\Local\Temp\ccwE2E8f.s 			page 105


 3873              	.LVL568:
1560:..\u8g2\csrc/mui_u8g2.c ****   mui_u8g2_get_list_element_cb element_cb =  mui_u8g2_list_get_element_cb(list);
 3874              		.loc 1 1560 0
 3875 0014 D3F80880 		ldr	r8, [r3, #8]
 3876              	.LVL569:
1561:..\u8g2\csrc/mui_u8g2.c ****   //mui_u8g2_get_list_count_cb count_cb = mui_u8g2_list_get_count_cb(list);
1562:..\u8g2\csrc/mui_u8g2.c **** 
1563:..\u8g2\csrc/mui_u8g2.c ****   uint16_t pos = ui->arg;        // remember the arg value, because it might be overwritten  
 3877              		.loc 1 1563 0
 3878 0018 95F82E10 		ldrb	r1, [r5, #46]	@ zero_extendqisi2
 3879              	.LVL570:
1564:..\u8g2\csrc/mui_u8g2.c ****   pos += ui->form_scroll_top;
 3880              		.loc 1 1564 0
 3881 001c 6B8C     		ldrh	r3, [r5, #34]
 3882              	.LVL571:
 3883 001e 1944     		add	r1, r1, r3
 3884              	.LVL572:
 3885 0020 8CB2     		uxth	r4, r1
 3886              	.LVL573:
1565:..\u8g2\csrc/mui_u8g2.c ****   
1566:..\u8g2\csrc/mui_u8g2.c ****   switch(msg)
 3887              		.loc 1 1566 0
 3888 0022 012E     		cmp	r6, #1
 3889 0024 02D0     		beq	.L303
 3890 0026 052E     		cmp	r6, #5
 3891 0028 15D0     		beq	.L304
 3892 002a 21E0     		b	.L307
 3893              	.L303:
1567:..\u8g2\csrc/mui_u8g2.c ****   {
1568:..\u8g2\csrc/mui_u8g2.c ****     case MUIF_MSG_DRAW:
1569:..\u8g2\csrc/mui_u8g2.c ****       mui_u8g2_draw_button_pi(ui, u8g2_GetDisplayWidth(u8g2)-mui_get_x(ui)*2, mui_get_x(ui), elemen
 3894              		.loc 1 1569 0
 3895 002c B0F84460 		ldrh	r6, [r0, #68]
 3896 0030 2846     		mov	r0, r5
 3897              	.LVL574:
 3898 0032 FFF7FEFF 		bl	mui_get_x
 3899              	.LVL575:
 3900 0036 8146     		mov	r9, r0
 3901 0038 A6EB4006 		sub	r6, r6, r0, lsl #1
 3902 003c B6B2     		uxth	r6, r6
 3903 003e 2146     		mov	r1, r4
 3904 0040 3846     		mov	r0, r7
 3905 0042 C047     		blx	r8
 3906              	.LVL576:
 3907 0044 431C     		adds	r3, r0, #1
 3908 0046 4A46     		mov	r2, r9
 3909 0048 3146     		mov	r1, r6
 3910 004a 2846     		mov	r0, r5
 3911 004c FFF7FEFF 		bl	mui_u8g2_draw_button_pi
 3912              	.LVL577:
1570:..\u8g2\csrc/mui_u8g2.c ****       //mui_u8g2_draw_button_utf(ui, mui_u8g2_get_pi_flags(ui), u8g2_GetDisplayWidth(u8g2)-mui_get_
1571:..\u8g2\csrc/mui_u8g2.c ****       break;
1572:..\u8g2\csrc/mui_u8g2.c ****     case MUIF_MSG_CURSOR_SELECT:
1573:..\u8g2\csrc/mui_u8g2.c ****       if ( selection != NULL )
1574:..\u8g2\csrc/mui_u8g2.c ****         *selection = pos;
1575:..\u8g2\csrc/mui_u8g2.c ****       mui_GotoForm(ui, (uint8_t)element_cb(data, pos)[0], 0); 
1576:..\u8g2\csrc/mui_u8g2.c ****       break;
ARM GAS  C:\Users\brian\AppData\Local\Temp\ccwE2E8f.s 			page 106


1577:..\u8g2\csrc/mui_u8g2.c ****     default:
1578:..\u8g2\csrc/mui_u8g2.c ****       return mui_u8g2_u16_list_child_mse_common(ui, msg);
1579:..\u8g2\csrc/mui_u8g2.c ****   }
1580:..\u8g2\csrc/mui_u8g2.c ****   return 0;
 3913              		.loc 1 1580 0
 3914 0050 0020     		movs	r0, #0
1571:..\u8g2\csrc/mui_u8g2.c ****     case MUIF_MSG_CURSOR_SELECT:
 3915              		.loc 1 1571 0
 3916 0052 BDE8F883 		pop	{r3, r4, r5, r6, r7, r8, r9, pc}
 3917              	.LVL578:
 3918              	.L304:
1573:..\u8g2\csrc/mui_u8g2.c ****         *selection = pos;
 3919              		.loc 1 1573 0
 3920 0056 02B1     		cbz	r2, .L306
1574:..\u8g2\csrc/mui_u8g2.c ****       mui_GotoForm(ui, (uint8_t)element_cb(data, pos)[0], 0); 
 3921              		.loc 1 1574 0
 3922 0058 1480     		strh	r4, [r2]	@ movhi
 3923              	.LVL579:
 3924              	.L306:
1575:..\u8g2\csrc/mui_u8g2.c ****       break;
 3925              		.loc 1 1575 0
 3926 005a 2146     		mov	r1, r4
 3927 005c 3846     		mov	r0, r7
 3928              	.LVL580:
 3929 005e C047     		blx	r8
 3930              	.LVL581:
 3931 0060 0022     		movs	r2, #0
 3932 0062 0178     		ldrb	r1, [r0]	@ zero_extendqisi2
 3933 0064 2846     		mov	r0, r5
 3934 0066 FFF7FEFF 		bl	mui_GotoForm
 3935              	.LVL582:
 3936              		.loc 1 1580 0
 3937 006a 0020     		movs	r0, #0
1576:..\u8g2\csrc/mui_u8g2.c ****     default:
 3938              		.loc 1 1576 0
 3939 006c BDE8F883 		pop	{r3, r4, r5, r6, r7, r8, r9, pc}
 3940              	.LVL583:
 3941              	.L307:
1578:..\u8g2\csrc/mui_u8g2.c ****   }
 3942              		.loc 1 1578 0
 3943 0070 3146     		mov	r1, r6
 3944 0072 2846     		mov	r0, r5
 3945              	.LVL584:
 3946 0074 FFF7FEFF 		bl	mui_u8g2_u16_list_child_mse_common
 3947              	.LVL585:
1581:..\u8g2\csrc/mui_u8g2.c **** }
 3948              		.loc 1 1581 0
 3949 0078 BDE8F883 		pop	{r3, r4, r5, r6, r7, r8, r9, pc}
 3950              		.cfi_endproc
 3951              	.LFE43:
 3952              		.size	mui_u8g2_u16_list_goto_w1_mse_pi, .-mui_u8g2_u16_list_goto_w1_mse_pi
 3953              		.section	.rodata.str1.4,"aMS",%progbits,1
 3954              		.align	2
 3955              	.LC0:
 3956 0000 00       		.ascii	"\000"
 3957 0001 000000   		.space	3
 3958              	.LC1:
ARM GAS  C:\Users\brian\AppData\Local\Temp\ccwE2E8f.s 			page 107


 3959 0004 39393900 		.ascii	"999\000"
 3960              		.text
 3961              	.Letext0:
 3962              		.file 2 "c:\\program files (x86)\\cypress\\psoc creator\\4.4\\psoc creator\\import\\gnu\\arm\\5.4.
 3963              		.file 3 "c:\\program files (x86)\\cypress\\psoc creator\\4.4\\psoc creator\\import\\gnu\\arm\\5.4.
 3964              		.file 4 "c:\\program files (x86)\\cypress\\psoc creator\\4.4\\psoc creator\\import\\gnu\\arm\\5.4.
 3965              		.file 5 "..\\u8g2\\csrc\\mui.h"
 3966              		.file 6 "..\\u8g2\\csrc\\u8x8.h"
 3967              		.file 7 "..\\u8g2\\csrc\\u8g2.h"
 3968              		.file 8 "..\\u8g2\\csrc\\mui_u8g2.h"
 3969              		.section	.debug_info,"",%progbits
 3970              	.Ldebug_info0:
 3971 0000 942B0000 		.4byte	0x2b94
 3972 0004 0400     		.2byte	0x4
 3973 0006 00000000 		.4byte	.Ldebug_abbrev0
 3974 000a 04       		.byte	0x4
 3975 000b 01       		.uleb128 0x1
 3976 000c C7040000 		.4byte	.LASF251
 3977 0010 0C       		.byte	0xc
 3978 0011 F2010000 		.4byte	.LASF252
 3979 0015 CF060000 		.4byte	.LASF253
 3980 0019 00000000 		.4byte	.Ldebug_ranges0+0
 3981 001d 00000000 		.4byte	0
 3982 0021 00000000 		.4byte	.Ldebug_line0
 3983 0025 02       		.uleb128 0x2
 3984 0026 04       		.byte	0x4
 3985 0027 05       		.byte	0x5
 3986 0028 696E7400 		.ascii	"int\000"
 3987 002c 03       		.uleb128 0x3
 3988 002d 98050000 		.4byte	.LASF3
 3989 0031 02       		.byte	0x2
 3990 0032 D8       		.byte	0xd8
 3991 0033 37000000 		.4byte	0x37
 3992 0037 04       		.uleb128 0x4
 3993 0038 04       		.byte	0x4
 3994 0039 07       		.byte	0x7
 3995 003a 5C010000 		.4byte	.LASF0
 3996 003e 04       		.uleb128 0x4
 3997 003f 08       		.byte	0x8
 3998 0040 05       		.byte	0x5
 3999 0041 46080000 		.4byte	.LASF1
 4000 0045 04       		.uleb128 0x4
 4001 0046 08       		.byte	0x8
 4002 0047 04       		.byte	0x4
 4003 0048 510A0000 		.4byte	.LASF2
 4004 004c 03       		.uleb128 0x3
 4005 004d 2D0A0000 		.4byte	.LASF4
 4006 0051 03       		.byte	0x3
 4007 0052 1B       		.byte	0x1b
 4008 0053 57000000 		.4byte	0x57
 4009 0057 04       		.uleb128 0x4
 4010 0058 01       		.byte	0x1
 4011 0059 06       		.byte	0x6
 4012 005a 1C0F0000 		.4byte	.LASF5
 4013 005e 03       		.uleb128 0x3
 4014 005f 9A0C0000 		.4byte	.LASF6
 4015 0063 03       		.byte	0x3
ARM GAS  C:\Users\brian\AppData\Local\Temp\ccwE2E8f.s 			page 108


 4016 0064 1D       		.byte	0x1d
 4017 0065 69000000 		.4byte	0x69
 4018 0069 04       		.uleb128 0x4
 4019 006a 01       		.byte	0x1
 4020 006b 08       		.byte	0x8
 4021 006c 0D0E0000 		.4byte	.LASF7
 4022 0070 04       		.uleb128 0x4
 4023 0071 02       		.byte	0x2
 4024 0072 05       		.byte	0x5
 4025 0073 0F0B0000 		.4byte	.LASF8
 4026 0077 03       		.uleb128 0x3
 4027 0078 C2030000 		.4byte	.LASF9
 4028 007c 03       		.byte	0x3
 4029 007d 2B       		.byte	0x2b
 4030 007e 82000000 		.4byte	0x82
 4031 0082 04       		.uleb128 0x4
 4032 0083 02       		.byte	0x2
 4033 0084 07       		.byte	0x7
 4034 0085 280F0000 		.4byte	.LASF10
 4035 0089 04       		.uleb128 0x4
 4036 008a 04       		.byte	0x4
 4037 008b 05       		.byte	0x5
 4038 008c 440B0000 		.4byte	.LASF11
 4039 0090 03       		.uleb128 0x3
 4040 0091 1B0E0000 		.4byte	.LASF12
 4041 0095 03       		.byte	0x3
 4042 0096 41       		.byte	0x41
 4043 0097 9B000000 		.4byte	0x9b
 4044 009b 04       		.uleb128 0x4
 4045 009c 04       		.byte	0x4
 4046 009d 07       		.byte	0x7
 4047 009e 5C0D0000 		.4byte	.LASF13
 4048 00a2 04       		.uleb128 0x4
 4049 00a3 08       		.byte	0x8
 4050 00a4 07       		.byte	0x7
 4051 00a5 58030000 		.4byte	.LASF14
 4052 00a9 03       		.uleb128 0x3
 4053 00aa A8020000 		.4byte	.LASF15
 4054 00ae 04       		.byte	0x4
 4055 00af 14       		.byte	0x14
 4056 00b0 4C000000 		.4byte	0x4c
 4057 00b4 03       		.uleb128 0x3
 4058 00b5 05080000 		.4byte	.LASF16
 4059 00b9 04       		.byte	0x4
 4060 00ba 18       		.byte	0x18
 4061 00bb 5E000000 		.4byte	0x5e
 4062 00bf 03       		.uleb128 0x3
 4063 00c0 6C0A0000 		.4byte	.LASF17
 4064 00c4 04       		.byte	0x4
 4065 00c5 24       		.byte	0x24
 4066 00c6 77000000 		.4byte	0x77
 4067 00ca 03       		.uleb128 0x3
 4068 00cb 9F020000 		.4byte	.LASF18
 4069 00cf 04       		.byte	0x4
 4070 00d0 30       		.byte	0x30
 4071 00d1 90000000 		.4byte	0x90
 4072 00d5 04       		.uleb128 0x4
ARM GAS  C:\Users\brian\AppData\Local\Temp\ccwE2E8f.s 			page 109


 4073 00d6 04       		.byte	0x4
 4074 00d7 07       		.byte	0x7
 4075 00d8 530D0000 		.4byte	.LASF19
 4076 00dc 05       		.uleb128 0x5
 4077 00dd 04       		.byte	0x4
 4078 00de 06       		.uleb128 0x6
 4079 00df 04       		.byte	0x4
 4080 00e0 E4000000 		.4byte	0xe4
 4081 00e4 04       		.uleb128 0x4
 4082 00e5 01       		.byte	0x1
 4083 00e6 08       		.byte	0x8
 4084 00e7 8C070000 		.4byte	.LASF20
 4085 00eb 06       		.uleb128 0x6
 4086 00ec 04       		.byte	0x4
 4087 00ed F1000000 		.4byte	0xf1
 4088 00f1 07       		.uleb128 0x7
 4089 00f2 E4000000 		.4byte	0xe4
 4090 00f6 03       		.uleb128 0x3
 4091 00f7 0D080000 		.4byte	.LASF21
 4092 00fb 05       		.byte	0x5
 4093 00fc 68       		.byte	0x68
 4094 00fd 01010000 		.4byte	0x101
 4095 0101 08       		.uleb128 0x8
 4096 0102 200D0000 		.4byte	.LASF44
 4097 0106 78       		.byte	0x78
 4098 0107 05       		.byte	0x5
 4099 0108 B1       		.byte	0xb1
 4100 0109 72020000 		.4byte	0x272
 4101 010d 09       		.uleb128 0x9
 4102 010e F4080000 		.4byte	.LASF22
 4103 0112 05       		.byte	0x5
 4104 0113 B3       		.byte	0xb3
 4105 0114 DC000000 		.4byte	0xdc
 4106 0118 00       		.byte	0
 4107 0119 09       		.uleb128 0x9
 4108 011a C0070000 		.4byte	.LASF23
 4109 011e 05       		.byte	0x5
 4110 011f B4       		.byte	0xb4
 4111 0120 0C030000 		.4byte	0x30c
 4112 0124 04       		.byte	0x4
 4113 0125 09       		.uleb128 0x9
 4114 0126 5F050000 		.4byte	.LASF24
 4115 012a 05       		.byte	0x5
 4116 012b B6       		.byte	0xb6
 4117 012c 12030000 		.4byte	0x312
 4118 0130 08       		.byte	0x8
 4119 0131 09       		.uleb128 0x9
 4120 0132 7A080000 		.4byte	.LASF25
 4121 0136 05       		.byte	0x5
 4122 0137 B7       		.byte	0xb7
 4123 0138 2C000000 		.4byte	0x2c
 4124 013c 0C       		.byte	0xc
 4125 013d 09       		.uleb128 0x9
 4126 013e 3A010000 		.4byte	.LASF26
 4127 0142 05       		.byte	0x5
 4128 0143 B9       		.byte	0xb9
 4129 0144 0C030000 		.4byte	0x30c
ARM GAS  C:\Users\brian\AppData\Local\Temp\ccwE2E8f.s 			page 110


 4130 0148 10       		.byte	0x10
 4131 0149 09       		.uleb128 0x9
 4132 014a 190B0000 		.4byte	.LASF27
 4133 014e 05       		.byte	0x5
 4134 014f BA       		.byte	0xba
 4135 0150 0C030000 		.4byte	0x30c
 4136 0154 14       		.byte	0x14
 4137 0155 09       		.uleb128 0x9
 4138 0156 DC0C0000 		.4byte	.LASF28
 4139 015a 05       		.byte	0x5
 4140 015b BB       		.byte	0xbb
 4141 015c 0C030000 		.4byte	0x30c
 4142 0160 18       		.byte	0x18
 4143 0161 09       		.uleb128 0x9
 4144 0162 750A0000 		.4byte	.LASF29
 4145 0166 05       		.byte	0x5
 4146 0167 BD       		.byte	0xbd
 4147 0168 0C030000 		.4byte	0x30c
 4148 016c 1C       		.byte	0x1c
 4149 016d 09       		.uleb128 0x9
 4150 016e EB020000 		.4byte	.LASF30
 4151 0172 05       		.byte	0x5
 4152 0173 BF       		.byte	0xbf
 4153 0174 BF000000 		.4byte	0xbf
 4154 0178 20       		.byte	0x20
 4155 0179 09       		.uleb128 0x9
 4156 017a BF000000 		.4byte	.LASF31
 4157 017e 05       		.byte	0x5
 4158 017f C0       		.byte	0xc0
 4159 0180 BF000000 		.4byte	0xbf
 4160 0184 22       		.byte	0x22
 4161 0185 09       		.uleb128 0x9
 4162 0186 8C030000 		.4byte	.LASF32
 4163 018a 05       		.byte	0x5
 4164 018b C1       		.byte	0xc1
 4165 018c B4000000 		.4byte	0xb4
 4166 0190 24       		.byte	0x24
 4167 0191 09       		.uleb128 0x9
 4168 0192 75000000 		.4byte	.LASF33
 4169 0196 05       		.byte	0x5
 4170 0197 C5       		.byte	0xc5
 4171 0198 B4000000 		.4byte	0xb4
 4172 019c 25       		.byte	0x25
 4173 019d 09       		.uleb128 0x9
 4174 019e 6E0D0000 		.4byte	.LASF34
 4175 01a2 05       		.byte	0x5
 4176 01a3 C8       		.byte	0xc8
 4177 01a4 B4000000 		.4byte	0xb4
 4178 01a8 26       		.byte	0x26
 4179 01a9 09       		.uleb128 0x9
 4180 01aa 5A090000 		.4byte	.LASF35
 4181 01ae 05       		.byte	0x5
 4182 01af CC       		.byte	0xcc
 4183 01b0 B4000000 		.4byte	0xb4
 4184 01b4 27       		.byte	0x27
 4185 01b5 0A       		.uleb128 0xa
 4186 01b6 636D6400 		.ascii	"cmd\000"
ARM GAS  C:\Users\brian\AppData\Local\Temp\ccwE2E8f.s 			page 111


 4187 01ba 05       		.byte	0x5
 4188 01bb CD       		.byte	0xcd
 4189 01bc B4000000 		.4byte	0xb4
 4190 01c0 28       		.byte	0x28
 4191 01c1 0A       		.uleb128 0xa
 4192 01c2 69643000 		.ascii	"id0\000"
 4193 01c6 05       		.byte	0x5
 4194 01c7 CE       		.byte	0xce
 4195 01c8 B4000000 		.4byte	0xb4
 4196 01cc 29       		.byte	0x29
 4197 01cd 0A       		.uleb128 0xa
 4198 01ce 69643100 		.ascii	"id1\000"
 4199 01d2 05       		.byte	0x5
 4200 01d3 CF       		.byte	0xcf
 4201 01d4 B4000000 		.4byte	0xb4
 4202 01d8 2A       		.byte	0x2a
 4203 01d9 0A       		.uleb128 0xa
 4204 01da 7800     		.ascii	"x\000"
 4205 01dc 05       		.byte	0x5
 4206 01dd D0       		.byte	0xd0
 4207 01de B4000000 		.4byte	0xb4
 4208 01e2 2B       		.byte	0x2b
 4209 01e3 0A       		.uleb128 0xa
 4210 01e4 7900     		.ascii	"y\000"
 4211 01e6 05       		.byte	0x5
 4212 01e7 D1       		.byte	0xd1
 4213 01e8 B4000000 		.4byte	0xb4
 4214 01ec 2C       		.byte	0x2c
 4215 01ed 09       		.uleb128 0x9
 4216 01ee 61020000 		.4byte	.LASF36
 4217 01f2 05       		.byte	0x5
 4218 01f3 D2       		.byte	0xd2
 4219 01f4 B4000000 		.4byte	0xb4
 4220 01f8 2D       		.byte	0x2d
 4221 01f9 0A       		.uleb128 0xa
 4222 01fa 61726700 		.ascii	"arg\000"
 4223 01fe 05       		.byte	0x5
 4224 01ff D3       		.byte	0xd3
 4225 0200 B4000000 		.4byte	0xb4
 4226 0204 2E       		.byte	0x2e
 4227 0205 0A       		.uleb128 0xa
 4228 0206 6C656E00 		.ascii	"len\000"
 4229 020a 05       		.byte	0x5
 4230 020b D4       		.byte	0xd4
 4231 020c 25000000 		.4byte	0x25
 4232 0210 30       		.byte	0x30
 4233 0211 0A       		.uleb128 0xa
 4234 0212 66647300 		.ascii	"fds\000"
 4235 0216 05       		.byte	0x5
 4236 0217 D5       		.byte	0xd5
 4237 0218 0C030000 		.4byte	0x30c
 4238 021c 34       		.byte	0x34
 4239 021d 0A       		.uleb128 0xa
 4240 021e 75696600 		.ascii	"uif\000"
 4241 0222 05       		.byte	0x5
 4242 0223 D6       		.byte	0xd6
 4243 0224 12030000 		.4byte	0x312
ARM GAS  C:\Users\brian\AppData\Local\Temp\ccwE2E8f.s 			page 112


 4244 0228 38       		.byte	0x38
 4245 0229 09       		.uleb128 0x9
 4246 022a C9070000 		.4byte	.LASF37
 4247 022e 05       		.byte	0x5
 4248 022f D7       		.byte	0xd7
 4249 0230 18030000 		.4byte	0x318
 4250 0234 3C       		.byte	0x3c
 4251 0235 09       		.uleb128 0x9
 4252 0236 7E010000 		.4byte	.LASF38
 4253 023a 05       		.byte	0x5
 4254 023b DA       		.byte	0xda
 4255 023c 0C030000 		.4byte	0x30c
 4256 0240 68       		.byte	0x68
 4257 0241 09       		.uleb128 0x9
 4258 0242 F9000000 		.4byte	.LASF39
 4259 0246 05       		.byte	0x5
 4260 0247 DB       		.byte	0xdb
 4261 0248 0C030000 		.4byte	0x30c
 4262 024c 6C       		.byte	0x6c
 4263 024d 09       		.uleb128 0x9
 4264 024e B8020000 		.4byte	.LASF40
 4265 0252 05       		.byte	0x5
 4266 0253 DE       		.byte	0xde
 4267 0254 B4000000 		.4byte	0xb4
 4268 0258 70       		.byte	0x70
 4269 0259 09       		.uleb128 0x9
 4270 025a 05070000 		.4byte	.LASF41
 4271 025e 05       		.byte	0x5
 4272 025f DF       		.byte	0xdf
 4273 0260 B4000000 		.4byte	0xb4
 4274 0264 71       		.byte	0x71
 4275 0265 09       		.uleb128 0x9
 4276 0266 8C080000 		.4byte	.LASF42
 4277 026a 05       		.byte	0x5
 4278 026b E0       		.byte	0xe0
 4279 026c 0C030000 		.4byte	0x30c
 4280 0270 74       		.byte	0x74
 4281 0271 00       		.byte	0
 4282 0272 03       		.uleb128 0x3
 4283 0273 8B010000 		.4byte	.LASF43
 4284 0277 05       		.byte	0x5
 4285 0278 69       		.byte	0x69
 4286 0279 D1020000 		.4byte	0x2d1
 4287 027d 08       		.uleb128 0x8
 4288 027e 7E0D0000 		.4byte	.LASF45
 4289 0282 0C       		.byte	0xc
 4290 0283 05       		.byte	0x5
 4291 0284 71       		.byte	0x71
 4292 0285 D1020000 		.4byte	0x2d1
 4293 0289 0A       		.uleb128 0xa
 4294 028a 69643000 		.ascii	"id0\000"
 4295 028e 05       		.byte	0x5
 4296 028f 73       		.byte	0x73
 4297 0290 B4000000 		.4byte	0xb4
 4298 0294 00       		.byte	0
 4299 0295 0A       		.uleb128 0xa
 4300 0296 69643100 		.ascii	"id1\000"
ARM GAS  C:\Users\brian\AppData\Local\Temp\ccwE2E8f.s 			page 113


 4301 029a 05       		.byte	0x5
 4302 029b 74       		.byte	0x74
 4303 029c B4000000 		.4byte	0xb4
 4304 02a0 01       		.byte	0x1
 4305 02a1 09       		.uleb128 0x9
 4306 02a2 26090000 		.4byte	.LASF46
 4307 02a6 05       		.byte	0x5
 4308 02a7 75       		.byte	0x75
 4309 02a8 B4000000 		.4byte	0xb4
 4310 02ac 02       		.byte	0x2
 4311 02ad 09       		.uleb128 0x9
 4312 02ae 88090000 		.4byte	.LASF47
 4313 02b2 05       		.byte	0x5
 4314 02b3 76       		.byte	0x76
 4315 02b4 B4000000 		.4byte	0xb4
 4316 02b8 03       		.byte	0x3
 4317 02b9 09       		.uleb128 0x9
 4318 02ba F4070000 		.4byte	.LASF48
 4319 02be 05       		.byte	0x5
 4320 02bf 77       		.byte	0x77
 4321 02c0 DC000000 		.4byte	0xdc
 4322 02c4 04       		.byte	0x4
 4323 02c5 0A       		.uleb128 0xa
 4324 02c6 636200   		.ascii	"cb\000"
 4325 02c9 05       		.byte	0x5
 4326 02ca 78       		.byte	0x78
 4327 02cb D6020000 		.4byte	0x2d6
 4328 02cf 08       		.byte	0x8
 4329 02d0 00       		.byte	0
 4330 02d1 07       		.uleb128 0x7
 4331 02d2 7D020000 		.4byte	0x27d
 4332 02d6 03       		.uleb128 0x3
 4333 02d7 F60A0000 		.4byte	.LASF49
 4334 02db 05       		.byte	0x5
 4335 02dc 6A       		.byte	0x6a
 4336 02dd E1020000 		.4byte	0x2e1
 4337 02e1 06       		.uleb128 0x6
 4338 02e2 04       		.byte	0x4
 4339 02e3 E7020000 		.4byte	0x2e7
 4340 02e7 0B       		.uleb128 0xb
 4341 02e8 B4000000 		.4byte	0xb4
 4342 02ec FB020000 		.4byte	0x2fb
 4343 02f0 0C       		.uleb128 0xc
 4344 02f1 FB020000 		.4byte	0x2fb
 4345 02f5 0C       		.uleb128 0xc
 4346 02f6 B4000000 		.4byte	0xb4
 4347 02fa 00       		.byte	0
 4348 02fb 06       		.uleb128 0x6
 4349 02fc 04       		.byte	0x4
 4350 02fd F6000000 		.4byte	0xf6
 4351 0301 03       		.uleb128 0x3
 4352 0302 2A010000 		.4byte	.LASF50
 4353 0306 05       		.byte	0x5
 4354 0307 6B       		.byte	0x6b
 4355 0308 F1000000 		.4byte	0xf1
 4356 030c 06       		.uleb128 0x6
 4357 030d 04       		.byte	0x4
ARM GAS  C:\Users\brian\AppData\Local\Temp\ccwE2E8f.s 			page 114


 4358 030e 01030000 		.4byte	0x301
 4359 0312 06       		.uleb128 0x6
 4360 0313 04       		.byte	0x4
 4361 0314 72020000 		.4byte	0x272
 4362 0318 0D       		.uleb128 0xd
 4363 0319 E4000000 		.4byte	0xe4
 4364 031d 28030000 		.4byte	0x328
 4365 0321 0E       		.uleb128 0xe
 4366 0322 D5000000 		.4byte	0xd5
 4367 0326 29       		.byte	0x29
 4368 0327 00       		.byte	0
 4369 0328 03       		.uleb128 0x3
 4370 0329 2A0B0000 		.4byte	.LASF51
 4371 032d 06       		.byte	0x6
 4372 032e CD       		.byte	0xcd
 4373 032f 33030000 		.4byte	0x333
 4374 0333 0F       		.uleb128 0xf
 4375 0334 9B0A0000 		.4byte	.LASF52
 4376 0338 2C       		.byte	0x2c
 4377 0339 06       		.byte	0x6
 4378 033a 5001     		.2byte	0x150
 4379 033c 38040000 		.4byte	0x438
 4380 0340 10       		.uleb128 0x10
 4381 0341 69100000 		.4byte	.LASF53
 4382 0345 06       		.byte	0x6
 4383 0346 5201     		.2byte	0x152
 4384 0348 9E050000 		.4byte	0x59e
 4385 034c 00       		.byte	0
 4386 034d 10       		.uleb128 0x10
 4387 034e 2E040000 		.4byte	.LASF54
 4388 0352 06       		.byte	0x6
 4389 0353 5301     		.2byte	0x153
 4390 0355 73050000 		.4byte	0x573
 4391 0359 04       		.byte	0x4
 4392 035a 10       		.uleb128 0x10
 4393 035b 5E100000 		.4byte	.LASF55
 4394 035f 06       		.byte	0x6
 4395 0360 5401     		.2byte	0x154
 4396 0362 3E050000 		.4byte	0x53e
 4397 0366 08       		.byte	0x8
 4398 0367 10       		.uleb128 0x10
 4399 0368 D2090000 		.4byte	.LASF56
 4400 036c 06       		.byte	0x6
 4401 036d 5501     		.2byte	0x155
 4402 036f 3E050000 		.4byte	0x53e
 4403 0373 0C       		.byte	0xc
 4404 0374 10       		.uleb128 0x10
 4405 0375 84080000 		.4byte	.LASF57
 4406 0379 06       		.byte	0x6
 4407 037a 5601     		.2byte	0x156
 4408 037c 3E050000 		.4byte	0x53e
 4409 0380 10       		.byte	0x10
 4410 0381 10       		.uleb128 0x10
 4411 0382 B5040000 		.4byte	.LASF58
 4412 0386 06       		.byte	0x6
 4413 0387 5701     		.2byte	0x157
 4414 0389 3E050000 		.4byte	0x53e
ARM GAS  C:\Users\brian\AppData\Local\Temp\ccwE2E8f.s 			page 115


 4415 038d 14       		.byte	0x14
 4416 038e 10       		.uleb128 0x10
 4417 038f 780C0000 		.4byte	.LASF59
 4418 0393 06       		.byte	0x6
 4419 0394 5801     		.2byte	0x158
 4420 0396 CA000000 		.4byte	0xca
 4421 039a 18       		.byte	0x18
 4422 039b 10       		.uleb128 0x10
 4423 039c 1B0D0000 		.4byte	.LASF60
 4424 03a0 06       		.byte	0x6
 4425 03a1 5901     		.2byte	0x159
 4426 03a3 A9050000 		.4byte	0x5a9
 4427 03a7 1C       		.byte	0x1c
 4428 03a8 10       		.uleb128 0x10
 4429 03a9 B7070000 		.4byte	.LASF61
 4430 03ad 06       		.byte	0x6
 4431 03ae 5A01     		.2byte	0x15a
 4432 03b0 BF000000 		.4byte	0xbf
 4433 03b4 20       		.byte	0x20
 4434 03b5 10       		.uleb128 0x10
 4435 03b6 3E020000 		.4byte	.LASF62
 4436 03ba 06       		.byte	0x6
 4437 03bb 5B01     		.2byte	0x15b
 4438 03bd B4000000 		.4byte	0xb4
 4439 03c1 22       		.byte	0x22
 4440 03c2 10       		.uleb128 0x10
 4441 03c3 B4080000 		.4byte	.LASF63
 4442 03c7 06       		.byte	0x6
 4443 03c8 5C01     		.2byte	0x15c
 4444 03ca B4000000 		.4byte	0xb4
 4445 03ce 23       		.byte	0x23
 4446 03cf 10       		.uleb128 0x10
 4447 03d0 170C0000 		.4byte	.LASF64
 4448 03d4 06       		.byte	0x6
 4449 03d5 5D01     		.2byte	0x15d
 4450 03d7 B4000000 		.4byte	0xb4
 4451 03db 24       		.byte	0x24
 4452 03dc 10       		.uleb128 0x10
 4453 03dd 02090000 		.4byte	.LASF65
 4454 03e1 06       		.byte	0x6
 4455 03e2 6001     		.2byte	0x160
 4456 03e4 B4000000 		.4byte	0xb4
 4457 03e8 25       		.byte	0x25
 4458 03e9 10       		.uleb128 0x10
 4459 03ea 7A000000 		.4byte	.LASF66
 4460 03ee 06       		.byte	0x6
 4461 03ef 6201     		.2byte	0x162
 4462 03f1 B4000000 		.4byte	0xb4
 4463 03f5 26       		.byte	0x26
 4464 03f6 10       		.uleb128 0x10
 4465 03f7 AF0C0000 		.4byte	.LASF67
 4466 03fb 06       		.byte	0x6
 4467 03fc 6301     		.2byte	0x163
 4468 03fe B4000000 		.4byte	0xb4
 4469 0402 27       		.byte	0x27
 4470 0403 10       		.uleb128 0x10
 4471 0404 5F060000 		.4byte	.LASF68
ARM GAS  C:\Users\brian\AppData\Local\Temp\ccwE2E8f.s 			page 116


 4472 0408 06       		.byte	0x6
 4473 0409 6401     		.2byte	0x164
 4474 040b B4000000 		.4byte	0xb4
 4475 040f 28       		.byte	0x28
 4476 0410 10       		.uleb128 0x10
 4477 0411 2F000000 		.4byte	.LASF69
 4478 0415 06       		.byte	0x6
 4479 0416 6501     		.2byte	0x165
 4480 0418 B4000000 		.4byte	0xb4
 4481 041c 29       		.byte	0x29
 4482 041d 10       		.uleb128 0x10
 4483 041e E70B0000 		.4byte	.LASF70
 4484 0422 06       		.byte	0x6
 4485 0423 6601     		.2byte	0x166
 4486 0425 B4000000 		.4byte	0xb4
 4487 0429 2A       		.byte	0x2a
 4488 042a 10       		.uleb128 0x10
 4489 042b B00B0000 		.4byte	.LASF71
 4490 042f 06       		.byte	0x6
 4491 0430 6701     		.2byte	0x167
 4492 0432 B4000000 		.4byte	0xb4
 4493 0436 2B       		.byte	0x2b
 4494 0437 00       		.byte	0
 4495 0438 03       		.uleb128 0x3
 4496 0439 640C0000 		.4byte	.LASF72
 4497 043d 06       		.byte	0x6
 4498 043e CE       		.byte	0xce
 4499 043f 43040000 		.4byte	0x443
 4500 0443 08       		.uleb128 0x8
 4501 0444 25070000 		.4byte	.LASF73
 4502 0448 18       		.byte	0x18
 4503 0449 06       		.byte	0x6
 4504 044a E7       		.byte	0xe7
 4505 044b 3E050000 		.4byte	0x53e
 4506 044f 09       		.uleb128 0x9
 4507 0450 EA0D0000 		.4byte	.LASF74
 4508 0454 06       		.byte	0x6
 4509 0455 EB       		.byte	0xeb
 4510 0456 B4000000 		.4byte	0xb4
 4511 045a 00       		.byte	0
 4512 045b 09       		.uleb128 0x9
 4513 045c 7F0F0000 		.4byte	.LASF75
 4514 0460 06       		.byte	0x6
 4515 0461 EC       		.byte	0xec
 4516 0462 B4000000 		.4byte	0xb4
 4517 0466 01       		.byte	0x1
 4518 0467 09       		.uleb128 0x9
 4519 0468 0F060000 		.4byte	.LASF76
 4520 046c 06       		.byte	0x6
 4521 046d EE       		.byte	0xee
 4522 046e B4000000 		.4byte	0xb4
 4523 0472 02       		.byte	0x2
 4524 0473 09       		.uleb128 0x9
 4525 0474 16000000 		.4byte	.LASF77
 4526 0478 06       		.byte	0x6
 4527 0479 EF       		.byte	0xef
 4528 047a B4000000 		.4byte	0xb4
ARM GAS  C:\Users\brian\AppData\Local\Temp\ccwE2E8f.s 			page 117


 4529 047e 03       		.byte	0x3
 4530 047f 09       		.uleb128 0x9
 4531 0480 180A0000 		.4byte	.LASF78
 4532 0484 06       		.byte	0x6
 4533 0485 F0       		.byte	0xf0
 4534 0486 B4000000 		.4byte	0xb4
 4535 048a 04       		.byte	0x4
 4536 048b 09       		.uleb128 0x9
 4537 048c A8090000 		.4byte	.LASF79
 4538 0490 06       		.byte	0x6
 4539 0491 F1       		.byte	0xf1
 4540 0492 B4000000 		.4byte	0xb4
 4541 0496 05       		.byte	0x5
 4542 0497 09       		.uleb128 0x9
 4543 0498 FD0F0000 		.4byte	.LASF80
 4544 049c 06       		.byte	0x6
 4545 049d F8       		.byte	0xf8
 4546 049e B4000000 		.4byte	0xb4
 4547 04a2 06       		.byte	0x6
 4548 04a3 09       		.uleb128 0x9
 4549 04a4 DA0E0000 		.4byte	.LASF81
 4550 04a8 06       		.byte	0x6
 4551 04a9 FC       		.byte	0xfc
 4552 04aa B4000000 		.4byte	0xb4
 4553 04ae 07       		.byte	0x7
 4554 04af 09       		.uleb128 0x9
 4555 04b0 92020000 		.4byte	.LASF82
 4556 04b4 06       		.byte	0x6
 4557 04b5 FF       		.byte	0xff
 4558 04b6 CA000000 		.4byte	0xca
 4559 04ba 08       		.byte	0x8
 4560 04bb 10       		.uleb128 0x10
 4561 04bc A70B0000 		.4byte	.LASF83
 4562 04c0 06       		.byte	0x6
 4563 04c1 0901     		.2byte	0x109
 4564 04c3 B4000000 		.4byte	0xb4
 4565 04c7 0C       		.byte	0xc
 4566 04c8 10       		.uleb128 0x10
 4567 04c9 B0060000 		.4byte	.LASF84
 4568 04cd 06       		.byte	0x6
 4569 04ce 0C01     		.2byte	0x10c
 4570 04d0 B4000000 		.4byte	0xb4
 4571 04d4 0D       		.byte	0xd
 4572 04d5 10       		.uleb128 0x10
 4573 04d6 A00D0000 		.4byte	.LASF85
 4574 04da 06       		.byte	0x6
 4575 04db 1201     		.2byte	0x112
 4576 04dd B4000000 		.4byte	0xb4
 4577 04e1 0E       		.byte	0xe
 4578 04e2 10       		.uleb128 0x10
 4579 04e3 D9090000 		.4byte	.LASF86
 4580 04e7 06       		.byte	0x6
 4581 04e8 1401     		.2byte	0x114
 4582 04ea B4000000 		.4byte	0xb4
 4583 04ee 0F       		.byte	0xf
 4584 04ef 10       		.uleb128 0x10
 4585 04f0 91070000 		.4byte	.LASF87
ARM GAS  C:\Users\brian\AppData\Local\Temp\ccwE2E8f.s 			page 118


 4586 04f4 06       		.byte	0x6
 4587 04f5 1701     		.2byte	0x117
 4588 04f7 B4000000 		.4byte	0xb4
 4589 04fb 10       		.byte	0x10
 4590 04fc 10       		.uleb128 0x10
 4591 04fd 28060000 		.4byte	.LASF88
 4592 0501 06       		.byte	0x6
 4593 0502 1801     		.2byte	0x118
 4594 0504 B4000000 		.4byte	0xb4
 4595 0508 11       		.byte	0x11
 4596 0509 10       		.uleb128 0x10
 4597 050a E3070000 		.4byte	.LASF89
 4598 050e 06       		.byte	0x6
 4599 050f 1A01     		.2byte	0x11a
 4600 0511 B4000000 		.4byte	0xb4
 4601 0515 12       		.byte	0x12
 4602 0516 10       		.uleb128 0x10
 4603 0517 4C100000 		.4byte	.LASF90
 4604 051b 06       		.byte	0x6
 4605 051c 1B01     		.2byte	0x11b
 4606 051e B4000000 		.4byte	0xb4
 4607 0522 13       		.byte	0x13
 4608 0523 10       		.uleb128 0x10
 4609 0524 4D0B0000 		.4byte	.LASF91
 4610 0528 06       		.byte	0x6
 4611 0529 2301     		.2byte	0x123
 4612 052b BF000000 		.4byte	0xbf
 4613 052f 14       		.byte	0x14
 4614 0530 10       		.uleb128 0x10
 4615 0531 90000000 		.4byte	.LASF92
 4616 0535 06       		.byte	0x6
 4617 0536 2401     		.2byte	0x124
 4618 0538 BF000000 		.4byte	0xbf
 4619 053c 16       		.byte	0x16
 4620 053d 00       		.byte	0
 4621 053e 03       		.uleb128 0x3
 4622 053f 36040000 		.4byte	.LASF93
 4623 0543 06       		.byte	0x6
 4624 0544 D1       		.byte	0xd1
 4625 0545 49050000 		.4byte	0x549
 4626 0549 06       		.uleb128 0x6
 4627 054a 04       		.byte	0x4
 4628 054b 4F050000 		.4byte	0x54f
 4629 054f 0B       		.uleb128 0xb
 4630 0550 B4000000 		.4byte	0xb4
 4631 0554 6D050000 		.4byte	0x56d
 4632 0558 0C       		.uleb128 0xc
 4633 0559 6D050000 		.4byte	0x56d
 4634 055d 0C       		.uleb128 0xc
 4635 055e B4000000 		.4byte	0xb4
 4636 0562 0C       		.uleb128 0xc
 4637 0563 B4000000 		.4byte	0xb4
 4638 0567 0C       		.uleb128 0xc
 4639 0568 DC000000 		.4byte	0xdc
 4640 056c 00       		.byte	0
 4641 056d 06       		.uleb128 0x6
 4642 056e 04       		.byte	0x4
ARM GAS  C:\Users\brian\AppData\Local\Temp\ccwE2E8f.s 			page 119


 4643 056f 28030000 		.4byte	0x328
 4644 0573 03       		.uleb128 0x3
 4645 0574 3B0F0000 		.4byte	.LASF94
 4646 0578 06       		.byte	0x6
 4647 0579 D2       		.byte	0xd2
 4648 057a 7E050000 		.4byte	0x57e
 4649 057e 06       		.uleb128 0x6
 4650 057f 04       		.byte	0x4
 4651 0580 84050000 		.4byte	0x584
 4652 0584 0B       		.uleb128 0xb
 4653 0585 BF000000 		.4byte	0xbf
 4654 0589 98050000 		.4byte	0x598
 4655 058d 0C       		.uleb128 0xc
 4656 058e 6D050000 		.4byte	0x56d
 4657 0592 0C       		.uleb128 0xc
 4658 0593 B4000000 		.4byte	0xb4
 4659 0597 00       		.byte	0
 4660 0598 06       		.uleb128 0x6
 4661 0599 04       		.byte	0x4
 4662 059a B4000000 		.4byte	0xb4
 4663 059e 06       		.uleb128 0x6
 4664 059f 04       		.byte	0x4
 4665 05a0 A4050000 		.4byte	0x5a4
 4666 05a4 07       		.uleb128 0x7
 4667 05a5 38040000 		.4byte	0x438
 4668 05a9 06       		.uleb128 0x6
 4669 05aa 04       		.byte	0x4
 4670 05ab AF050000 		.4byte	0x5af
 4671 05af 07       		.uleb128 0x7
 4672 05b0 B4000000 		.4byte	0xb4
 4673 05b4 03       		.uleb128 0x3
 4674 05b5 DA0A0000 		.4byte	.LASF95
 4675 05b9 07       		.byte	0x7
 4676 05ba D2       		.byte	0xd2
 4677 05bb BF000000 		.4byte	0xbf
 4678 05bf 03       		.uleb128 0x3
 4679 05c0 3F080000 		.4byte	.LASF96
 4680 05c4 07       		.byte	0x7
 4681 05c5 DC       		.byte	0xdc
 4682 05c6 CA050000 		.4byte	0x5ca
 4683 05ca 0F       		.uleb128 0xf
 4684 05cb E8080000 		.4byte	.LASF97
 4685 05cf 94       		.byte	0x94
 4686 05d0 07       		.byte	0x7
 4687 05d1 3B01     		.2byte	0x13b
 4688 05d3 84070000 		.4byte	0x784
 4689 05d7 10       		.uleb128 0x10
 4690 05d8 86010000 		.4byte	.LASF98
 4691 05dc 07       		.byte	0x7
 4692 05dd 3D01     		.2byte	0x13d
 4693 05df 28030000 		.4byte	0x328
 4694 05e3 00       		.byte	0
 4695 05e4 10       		.uleb128 0x10
 4696 05e5 55050000 		.4byte	.LASF99
 4697 05e9 07       		.byte	0x7
 4698 05ea 3E01     		.2byte	0x13e
 4699 05ec 21080000 		.4byte	0x821
ARM GAS  C:\Users\brian\AppData\Local\Temp\ccwE2E8f.s 			page 120


 4700 05f0 2C       		.byte	0x2c
 4701 05f1 11       		.uleb128 0x11
 4702 05f2 636200   		.ascii	"cb\000"
 4703 05f5 07       		.byte	0x7
 4704 05f6 3F01     		.2byte	0x13f
 4705 05f8 0D0A0000 		.4byte	0xa0d
 4706 05fc 30       		.byte	0x30
 4707 05fd 10       		.uleb128 0x10
 4708 05fe CD0A0000 		.4byte	.LASF100
 4709 0602 07       		.byte	0x7
 4710 0603 4201     		.2byte	0x142
 4711 0605 98050000 		.4byte	0x598
 4712 0609 34       		.byte	0x34
 4713 060a 10       		.uleb128 0x10
 4714 060b E60A0000 		.4byte	.LASF101
 4715 060f 07       		.byte	0x7
 4716 0610 4301     		.2byte	0x143
 4717 0612 B4000000 		.4byte	0xb4
 4718 0616 38       		.byte	0x38
 4719 0617 10       		.uleb128 0x10
 4720 0618 350E0000 		.4byte	.LASF102
 4721 061c 07       		.byte	0x7
 4722 061d 4401     		.2byte	0x144
 4723 061f B4000000 		.4byte	0xb4
 4724 0623 39       		.byte	0x39
 4725 0624 10       		.uleb128 0x10
 4726 0625 A4080000 		.4byte	.LASF103
 4727 0629 07       		.byte	0x7
 4728 062a 4701     		.2byte	0x147
 4729 062c B4050000 		.4byte	0x5b4
 4730 0630 3A       		.byte	0x3a
 4731 0631 10       		.uleb128 0x10
 4732 0632 FC0D0000 		.4byte	.LASF104
 4733 0636 07       		.byte	0x7
 4734 0637 4801     		.2byte	0x148
 4735 0639 B4050000 		.4byte	0x5b4
 4736 063d 3C       		.byte	0x3c
 4737 063e 10       		.uleb128 0x10
 4738 063f 5D0A0000 		.4byte	.LASF105
 4739 0643 07       		.byte	0x7
 4740 0644 4901     		.2byte	0x149
 4741 0646 B4050000 		.4byte	0x5b4
 4742 064a 3E       		.byte	0x3e
 4743 064b 10       		.uleb128 0x10
 4744 064c 18090000 		.4byte	.LASF106
 4745 0650 07       		.byte	0x7
 4746 0651 4F01     		.2byte	0x14f
 4747 0653 B4050000 		.4byte	0x5b4
 4748 0657 40       		.byte	0x40
 4749 0658 10       		.uleb128 0x10
 4750 0659 1F090000 		.4byte	.LASF107
 4751 065d 07       		.byte	0x7
 4752 065e 5001     		.2byte	0x150
 4753 0660 B4050000 		.4byte	0x5b4
 4754 0664 42       		.byte	0x42
 4755 0665 10       		.uleb128 0x10
 4756 0666 B7050000 		.4byte	.LASF108
ARM GAS  C:\Users\brian\AppData\Local\Temp\ccwE2E8f.s 			page 121


 4757 066a 07       		.byte	0x7
 4758 066b 5301     		.2byte	0x153
 4759 066d B4050000 		.4byte	0x5b4
 4760 0671 44       		.byte	0x44
 4761 0672 10       		.uleb128 0x10
 4762 0673 BB090000 		.4byte	.LASF109
 4763 0677 07       		.byte	0x7
 4764 0678 5401     		.2byte	0x154
 4765 067a B4050000 		.4byte	0x5b4
 4766 067e 46       		.byte	0x46
 4767 067f 10       		.uleb128 0x10
 4768 0680 8F100000 		.4byte	.LASF110
 4769 0684 07       		.byte	0x7
 4770 0685 5901     		.2byte	0x159
 4771 0687 B4050000 		.4byte	0x5b4
 4772 068b 48       		.byte	0x48
 4773 068c 10       		.uleb128 0x10
 4774 068d 64090000 		.4byte	.LASF111
 4775 0691 07       		.byte	0x7
 4776 0692 5A01     		.2byte	0x15a
 4777 0694 B4050000 		.4byte	0x5b4
 4778 0698 4A       		.byte	0x4a
 4779 0699 10       		.uleb128 0x10
 4780 069a 410A0000 		.4byte	.LASF112
 4781 069e 07       		.byte	0x7
 4782 069f 5B01     		.2byte	0x15b
 4783 06a1 B4050000 		.4byte	0x5b4
 4784 06a5 4C       		.byte	0x4c
 4785 06a6 10       		.uleb128 0x10
 4786 06a7 490A0000 		.4byte	.LASF113
 4787 06ab 07       		.byte	0x7
 4788 06ac 5C01     		.2byte	0x15c
 4789 06ae B4050000 		.4byte	0x5b4
 4790 06b2 4E       		.byte	0x4e
 4791 06b3 10       		.uleb128 0x10
 4792 06b4 890B0000 		.4byte	.LASF114
 4793 06b8 07       		.byte	0x7
 4794 06b9 6001     		.2byte	0x160
 4795 06bb B4050000 		.4byte	0x5b4
 4796 06bf 50       		.byte	0x50
 4797 06c0 10       		.uleb128 0x10
 4798 06c1 910B0000 		.4byte	.LASF115
 4799 06c5 07       		.byte	0x7
 4800 06c6 6101     		.2byte	0x161
 4801 06c8 B4050000 		.4byte	0x5b4
 4802 06cc 52       		.byte	0x52
 4803 06cd 10       		.uleb128 0x10
 4804 06ce EC0C0000 		.4byte	.LASF116
 4805 06d2 07       		.byte	0x7
 4806 06d3 6201     		.2byte	0x162
 4807 06d5 B4050000 		.4byte	0x5b4
 4808 06d9 54       		.byte	0x54
 4809 06da 10       		.uleb128 0x10
 4810 06db F40C0000 		.4byte	.LASF117
 4811 06df 07       		.byte	0x7
 4812 06e0 6301     		.2byte	0x163
 4813 06e2 B4050000 		.4byte	0x5b4
ARM GAS  C:\Users\brian\AppData\Local\Temp\ccwE2E8f.s 			page 122


 4814 06e6 56       		.byte	0x56
 4815 06e7 10       		.uleb128 0x10
 4816 06e8 1B0D0000 		.4byte	.LASF60
 4817 06ec 07       		.byte	0x7
 4818 06ed 6801     		.2byte	0x168
 4819 06ef A9050000 		.4byte	0x5a9
 4820 06f3 58       		.byte	0x58
 4821 06f4 10       		.uleb128 0x10
 4822 06f5 20020000 		.4byte	.LASF118
 4823 06f9 07       		.byte	0x7
 4824 06fa 6C01     		.2byte	0x16c
 4825 06fc EC090000 		.4byte	0x9ec
 4826 0700 5C       		.byte	0x5c
 4827 0701 10       		.uleb128 0x10
 4828 0702 99040000 		.4byte	.LASF119
 4829 0706 07       		.byte	0x7
 4830 0707 6D01     		.2byte	0x16d
 4831 0709 E0090000 		.4byte	0x9e0
 4832 070d 60       		.byte	0x60
 4833 070e 10       		.uleb128 0x10
 4834 070f 30010000 		.4byte	.LASF120
 4835 0713 07       		.byte	0x7
 4836 0714 6E01     		.2byte	0x16e
 4837 0716 2E090000 		.4byte	0x92e
 4838 071a 74       		.byte	0x74
 4839 071b 10       		.uleb128 0x10
 4840 071c 7F0E0000 		.4byte	.LASF121
 4841 0720 07       		.byte	0x7
 4842 0721 7201     		.2byte	0x172
 4843 0723 B4000000 		.4byte	0xb4
 4844 0727 8C       		.byte	0x8c
 4845 0728 10       		.uleb128 0x10
 4846 0729 FE0A0000 		.4byte	.LASF122
 4847 072d 07       		.byte	0x7
 4848 072e 7501     		.2byte	0x175
 4849 0730 B4000000 		.4byte	0xb4
 4850 0734 8D       		.byte	0x8d
 4851 0735 10       		.uleb128 0x10
 4852 0736 D70B0000 		.4byte	.LASF123
 4853 073a 07       		.byte	0x7
 4854 073b 7601     		.2byte	0x176
 4855 073d A9000000 		.4byte	0xa9
 4856 0741 8E       		.byte	0x8e
 4857 0742 10       		.uleb128 0x10
 4858 0743 530C0000 		.4byte	.LASF124
 4859 0747 07       		.byte	0x7
 4860 0748 7701     		.2byte	0x177
 4861 074a A9000000 		.4byte	0xa9
 4862 074e 8F       		.byte	0x8f
 4863 074f 10       		.uleb128 0x10
 4864 0750 83020000 		.4byte	.LASF125
 4865 0754 07       		.byte	0x7
 4866 0755 7901     		.2byte	0x179
 4867 0757 A9000000 		.4byte	0xa9
 4868 075b 90       		.byte	0x90
 4869 075c 10       		.uleb128 0x10
 4870 075d 0F100000 		.4byte	.LASF126
ARM GAS  C:\Users\brian\AppData\Local\Temp\ccwE2E8f.s 			page 123


 4871 0761 07       		.byte	0x7
 4872 0762 7B01     		.2byte	0x17b
 4873 0764 B4000000 		.4byte	0xb4
 4874 0768 91       		.byte	0x91
 4875 0769 10       		.uleb128 0x10
 4876 076a 8E090000 		.4byte	.LASF127
 4877 076e 07       		.byte	0x7
 4878 076f 7D01     		.2byte	0x17d
 4879 0771 B4000000 		.4byte	0xb4
 4880 0775 92       		.byte	0x92
 4881 0776 10       		.uleb128 0x10
 4882 0777 310B0000 		.4byte	.LASF128
 4883 077b 07       		.byte	0x7
 4884 077c 8101     		.2byte	0x181
 4885 077e B4000000 		.4byte	0xb4
 4886 0782 93       		.byte	0x93
 4887 0783 00       		.byte	0
 4888 0784 03       		.uleb128 0x3
 4889 0785 530F0000 		.4byte	.LASF129
 4890 0789 07       		.byte	0x7
 4891 078a DD       		.byte	0xdd
 4892 078b 8F070000 		.4byte	0x78f
 4893 078f 0F       		.uleb128 0xf
 4894 0790 010F0000 		.4byte	.LASF130
 4895 0794 0C       		.byte	0xc
 4896 0795 07       		.byte	0x7
 4897 0796 3101     		.2byte	0x131
 4898 0798 C4070000 		.4byte	0x7c4
 4899 079c 10       		.uleb128 0x10
 4900 079d 4B010000 		.4byte	.LASF131
 4901 07a1 07       		.byte	0x7
 4902 07a2 3301     		.2byte	0x133
 4903 07a4 C4070000 		.4byte	0x7c4
 4904 07a8 00       		.byte	0
 4905 07a9 10       		.uleb128 0x10
 4906 07aa C2090000 		.4byte	.LASF132
 4907 07ae 07       		.byte	0x7
 4908 07af 3401     		.2byte	0x134
 4909 07b1 E6070000 		.4byte	0x7e6
 4910 07b5 04       		.byte	0x4
 4911 07b6 10       		.uleb128 0x10
 4912 07b7 59000000 		.4byte	.LASF133
 4913 07bb 07       		.byte	0x7
 4914 07bc 3501     		.2byte	0x135
 4915 07be F1070000 		.4byte	0x7f1
 4916 07c2 08       		.byte	0x8
 4917 07c3 00       		.byte	0
 4918 07c4 03       		.uleb128 0x3
 4919 07c5 F9030000 		.4byte	.LASF134
 4920 07c9 07       		.byte	0x7
 4921 07ca DF       		.byte	0xdf
 4922 07cb CF070000 		.4byte	0x7cf
 4923 07cf 06       		.uleb128 0x6
 4924 07d0 04       		.byte	0x4
 4925 07d1 D5070000 		.4byte	0x7d5
 4926 07d5 12       		.uleb128 0x12
 4927 07d6 E0070000 		.4byte	0x7e0
ARM GAS  C:\Users\brian\AppData\Local\Temp\ccwE2E8f.s 			page 124


 4928 07da 0C       		.uleb128 0xc
 4929 07db E0070000 		.4byte	0x7e0
 4930 07df 00       		.byte	0
 4931 07e0 06       		.uleb128 0x6
 4932 07e1 04       		.byte	0x4
 4933 07e2 BF050000 		.4byte	0x5bf
 4934 07e6 03       		.uleb128 0x3
 4935 07e7 710B0000 		.4byte	.LASF135
 4936 07eb 07       		.byte	0x7
 4937 07ec E0       		.byte	0xe0
 4938 07ed CF070000 		.4byte	0x7cf
 4939 07f1 03       		.uleb128 0x3
 4940 07f2 E8000000 		.4byte	.LASF136
 4941 07f6 07       		.byte	0x7
 4942 07f7 E1       		.byte	0xe1
 4943 07f8 FC070000 		.4byte	0x7fc
 4944 07fc 06       		.uleb128 0x6
 4945 07fd 04       		.byte	0x4
 4946 07fe 02080000 		.4byte	0x802
 4947 0802 12       		.uleb128 0x12
 4948 0803 21080000 		.4byte	0x821
 4949 0807 0C       		.uleb128 0xc
 4950 0808 E0070000 		.4byte	0x7e0
 4951 080c 0C       		.uleb128 0xc
 4952 080d B4050000 		.4byte	0x5b4
 4953 0811 0C       		.uleb128 0xc
 4954 0812 B4050000 		.4byte	0x5b4
 4955 0816 0C       		.uleb128 0xc
 4956 0817 B4050000 		.4byte	0x5b4
 4957 081b 0C       		.uleb128 0xc
 4958 081c B4000000 		.4byte	0xb4
 4959 0820 00       		.byte	0
 4960 0821 03       		.uleb128 0x3
 4961 0822 28080000 		.4byte	.LASF137
 4962 0826 07       		.byte	0x7
 4963 0827 E2       		.byte	0xe2
 4964 0828 FC070000 		.4byte	0x7fc
 4965 082c 08       		.uleb128 0x8
 4966 082d 47000000 		.4byte	.LASF138
 4967 0831 18       		.byte	0x18
 4968 0832 07       		.byte	0x7
 4969 0833 E8       		.byte	0xe8
 4970 0834 2E090000 		.4byte	0x92e
 4971 0838 09       		.uleb128 0x9
 4972 0839 2D030000 		.4byte	.LASF139
 4973 083d 07       		.byte	0x7
 4974 083e EB       		.byte	0xeb
 4975 083f B4000000 		.4byte	0xb4
 4976 0843 00       		.byte	0
 4977 0844 09       		.uleb128 0x9
 4978 0845 750D0000 		.4byte	.LASF140
 4979 0849 07       		.byte	0x7
 4980 084a EC       		.byte	0xec
 4981 084b B4000000 		.4byte	0xb4
 4982 084f 01       		.byte	0x1
 4983 0850 09       		.uleb128 0x9
 4984 0851 1F010000 		.4byte	.LASF141
ARM GAS  C:\Users\brian\AppData\Local\Temp\ccwE2E8f.s 			page 125


 4985 0855 07       		.byte	0x7
 4986 0856 ED       		.byte	0xed
 4987 0857 B4000000 		.4byte	0xb4
 4988 085b 02       		.byte	0x2
 4989 085c 09       		.uleb128 0x9
 4990 085d A40C0000 		.4byte	.LASF142
 4991 0861 07       		.byte	0x7
 4992 0862 EE       		.byte	0xee
 4993 0863 B4000000 		.4byte	0xb4
 4994 0867 03       		.byte	0x3
 4995 0868 09       		.uleb128 0x9
 4996 0869 ED0E0000 		.4byte	.LASF143
 4997 086d 07       		.byte	0x7
 4998 086e F1       		.byte	0xf1
 4999 086f B4000000 		.4byte	0xb4
 5000 0873 04       		.byte	0x4
 5001 0874 09       		.uleb128 0x9
 5002 0875 13080000 		.4byte	.LASF144
 5003 0879 07       		.byte	0x7
 5004 087a F2       		.byte	0xf2
 5005 087b B4000000 		.4byte	0xb4
 5006 087f 05       		.byte	0x5
 5007 0880 09       		.uleb128 0x9
 5008 0881 EE090000 		.4byte	.LASF145
 5009 0885 07       		.byte	0x7
 5010 0886 F3       		.byte	0xf3
 5011 0887 B4000000 		.4byte	0xb4
 5012 088b 06       		.byte	0x6
 5013 088c 09       		.uleb128 0x9
 5014 088d FE090000 		.4byte	.LASF146
 5015 0891 07       		.byte	0x7
 5016 0892 F4       		.byte	0xf4
 5017 0893 B4000000 		.4byte	0xb4
 5018 0897 07       		.byte	0x7
 5019 0898 09       		.uleb128 0x9
 5020 0899 AE000000 		.4byte	.LASF147
 5021 089d 07       		.byte	0x7
 5022 089e F5       		.byte	0xf5
 5023 089f B4000000 		.4byte	0xb4
 5024 08a3 08       		.byte	0x8
 5025 08a4 09       		.uleb128 0x9
 5026 08a5 2F020000 		.4byte	.LASF148
 5027 08a9 07       		.byte	0x7
 5028 08aa F8       		.byte	0xf8
 5029 08ab A9000000 		.4byte	0xa9
 5030 08af 09       		.byte	0x9
 5031 08b0 09       		.uleb128 0x9
 5032 08b1 B2030000 		.4byte	.LASF149
 5033 08b5 07       		.byte	0x7
 5034 08b6 F9       		.byte	0xf9
 5035 08b7 A9000000 		.4byte	0xa9
 5036 08bb 0A       		.byte	0xa
 5037 08bc 09       		.uleb128 0x9
 5038 08bd 3E020000 		.4byte	.LASF62
 5039 08c1 07       		.byte	0x7
 5040 08c2 FA       		.byte	0xfa
 5041 08c3 A9000000 		.4byte	0xa9
ARM GAS  C:\Users\brian\AppData\Local\Temp\ccwE2E8f.s 			page 126


 5042 08c7 0B       		.byte	0xb
 5043 08c8 09       		.uleb128 0x9
 5044 08c9 58020000 		.4byte	.LASF150
 5045 08cd 07       		.byte	0x7
 5046 08ce FB       		.byte	0xfb
 5047 08cf A9000000 		.4byte	0xa9
 5048 08d3 0C       		.byte	0xc
 5049 08d4 09       		.uleb128 0x9
 5050 08d5 E3050000 		.4byte	.LASF151
 5051 08d9 07       		.byte	0x7
 5052 08da FE       		.byte	0xfe
 5053 08db A9000000 		.4byte	0xa9
 5054 08df 0D       		.byte	0xd
 5055 08e0 09       		.uleb128 0x9
 5056 08e1 C5060000 		.4byte	.LASF152
 5057 08e5 07       		.byte	0x7
 5058 08e6 FF       		.byte	0xff
 5059 08e7 A9000000 		.4byte	0xa9
 5060 08eb 0E       		.byte	0xe
 5061 08ec 10       		.uleb128 0x10
 5062 08ed F9070000 		.4byte	.LASF153
 5063 08f1 07       		.byte	0x7
 5064 08f2 0001     		.2byte	0x100
 5065 08f4 A9000000 		.4byte	0xa9
 5066 08f8 0F       		.byte	0xf
 5067 08f9 10       		.uleb128 0x10
 5068 08fa 76020000 		.4byte	.LASF154
 5069 08fe 07       		.byte	0x7
 5070 08ff 0101     		.2byte	0x101
 5071 0901 A9000000 		.4byte	0xa9
 5072 0905 10       		.byte	0x10
 5073 0906 10       		.uleb128 0x10
 5074 0907 E7030000 		.4byte	.LASF155
 5075 090b 07       		.byte	0x7
 5076 090c 0401     		.2byte	0x104
 5077 090e BF000000 		.4byte	0xbf
 5078 0912 12       		.byte	0x12
 5079 0913 10       		.uleb128 0x10
 5080 0914 A0030000 		.4byte	.LASF156
 5081 0918 07       		.byte	0x7
 5082 0919 0501     		.2byte	0x105
 5083 091b BF000000 		.4byte	0xbf
 5084 091f 14       		.byte	0x14
 5085 0920 10       		.uleb128 0x10
 5086 0921 6C090000 		.4byte	.LASF157
 5087 0925 07       		.byte	0x7
 5088 0926 0901     		.2byte	0x109
 5089 0928 BF000000 		.4byte	0xbf
 5090 092c 16       		.byte	0x16
 5091 092d 00       		.byte	0
 5092 092e 13       		.uleb128 0x13
 5093 092f 3A090000 		.4byte	.LASF158
 5094 0933 07       		.byte	0x7
 5095 0934 0C01     		.2byte	0x10c
 5096 0936 2C080000 		.4byte	0x82c
 5097 093a 0F       		.uleb128 0xf
 5098 093b CF050000 		.4byte	.LASF159
ARM GAS  C:\Users\brian\AppData\Local\Temp\ccwE2E8f.s 			page 127


 5099 093f 14       		.byte	0x14
 5100 0940 07       		.byte	0x7
 5101 0941 0F01     		.2byte	0x10f
 5102 0943 E0090000 		.4byte	0x9e0
 5103 0947 10       		.uleb128 0x10
 5104 0948 85000000 		.4byte	.LASF160
 5105 094c 07       		.byte	0x7
 5106 094d 1101     		.2byte	0x111
 5107 094f A9050000 		.4byte	0x5a9
 5108 0953 00       		.byte	0
 5109 0954 10       		.uleb128 0x10
 5110 0955 AE070000 		.4byte	.LASF161
 5111 0959 07       		.byte	0x7
 5112 095a 1301     		.2byte	0x113
 5113 095c B4050000 		.4byte	0x5b4
 5114 0960 04       		.byte	0x4
 5115 0961 10       		.uleb128 0x10
 5116 0962 6D020000 		.4byte	.LASF162
 5117 0966 07       		.byte	0x7
 5118 0967 1401     		.2byte	0x114
 5119 0969 B4050000 		.4byte	0x5b4
 5120 096d 06       		.byte	0x6
 5121 096e 11       		.uleb128 0x11
 5122 096f 7800     		.ascii	"x\000"
 5123 0971 07       		.byte	0x7
 5124 0972 1601     		.2byte	0x116
 5125 0974 A9000000 		.4byte	0xa9
 5126 0978 08       		.byte	0x8
 5127 0979 11       		.uleb128 0x11
 5128 097a 7900     		.ascii	"y\000"
 5129 097c 07       		.byte	0x7
 5130 097d 1701     		.2byte	0x117
 5131 097f A9000000 		.4byte	0xa9
 5132 0983 09       		.byte	0x9
 5133 0984 10       		.uleb128 0x10
 5134 0985 100F0000 		.4byte	.LASF163
 5135 0989 07       		.byte	0x7
 5136 098a 1801     		.2byte	0x118
 5137 098c A9000000 		.4byte	0xa9
 5138 0990 0A       		.byte	0xa
 5139 0991 10       		.uleb128 0x10
 5140 0992 6A050000 		.4byte	.LASF164
 5141 0996 07       		.byte	0x7
 5142 0997 1901     		.2byte	0x119
 5143 0999 A9000000 		.4byte	0xa9
 5144 099d 0B       		.byte	0xb
 5145 099e 10       		.uleb128 0x10
 5146 099f 4B090000 		.4byte	.LASF165
 5147 09a3 07       		.byte	0x7
 5148 09a4 1B01     		.2byte	0x11b
 5149 09a6 B4000000 		.4byte	0xb4
 5150 09aa 0C       		.byte	0xc
 5151 09ab 10       		.uleb128 0x10
 5152 09ac 99090000 		.4byte	.LASF166
 5153 09b0 07       		.byte	0x7
 5154 09b1 1C01     		.2byte	0x11c
 5155 09b3 B4000000 		.4byte	0xb4
ARM GAS  C:\Users\brian\AppData\Local\Temp\ccwE2E8f.s 			page 128


 5156 09b7 0D       		.byte	0xd
 5157 09b8 10       		.uleb128 0x10
 5158 09b9 AF020000 		.4byte	.LASF167
 5159 09bd 07       		.byte	0x7
 5160 09be 1D01     		.2byte	0x11d
 5161 09c0 B4000000 		.4byte	0xb4
 5162 09c4 0E       		.byte	0xe
 5163 09c5 10       		.uleb128 0x10
 5164 09c6 970D0000 		.4byte	.LASF168
 5165 09ca 07       		.byte	0x7
 5166 09cb 1E01     		.2byte	0x11e
 5167 09cd B4000000 		.4byte	0xb4
 5168 09d1 0F       		.byte	0xf
 5169 09d2 11       		.uleb128 0x11
 5170 09d3 64697200 		.ascii	"dir\000"
 5171 09d7 07       		.byte	0x7
 5172 09d8 2001     		.2byte	0x120
 5173 09da B4000000 		.4byte	0xb4
 5174 09de 10       		.byte	0x10
 5175 09df 00       		.byte	0
 5176 09e0 13       		.uleb128 0x13
 5177 09e1 C40B0000 		.4byte	.LASF169
 5178 09e5 07       		.byte	0x7
 5179 09e6 2301     		.2byte	0x123
 5180 09e8 3A090000 		.4byte	0x93a
 5181 09ec 13       		.uleb128 0x13
 5182 09ed CD030000 		.4byte	.LASF170
 5183 09f1 07       		.byte	0x7
 5184 09f2 3801     		.2byte	0x138
 5185 09f4 F8090000 		.4byte	0x9f8
 5186 09f8 06       		.uleb128 0x6
 5187 09f9 04       		.byte	0x4
 5188 09fa FE090000 		.4byte	0x9fe
 5189 09fe 0B       		.uleb128 0xb
 5190 09ff B4050000 		.4byte	0x5b4
 5191 0a03 0D0A0000 		.4byte	0xa0d
 5192 0a07 0C       		.uleb128 0xc
 5193 0a08 E0070000 		.4byte	0x7e0
 5194 0a0c 00       		.byte	0
 5195 0a0d 06       		.uleb128 0x6
 5196 0a0e 04       		.byte	0x4
 5197 0a0f 130A0000 		.4byte	0xa13
 5198 0a13 07       		.uleb128 0x7
 5199 0a14 84070000 		.4byte	0x784
 5200 0a18 03       		.uleb128 0x3
 5201 0a19 6F030000 		.4byte	.LASF171
 5202 0a1d 08       		.byte	0x8
 5203 0a1e 35       		.byte	0x35
 5204 0a1f 230A0000 		.4byte	0xa23
 5205 0a23 06       		.uleb128 0x6
 5206 0a24 04       		.byte	0x4
 5207 0a25 290A0000 		.4byte	0xa29
 5208 0a29 0B       		.uleb128 0xb
 5209 0a2a EB000000 		.4byte	0xeb
 5210 0a2e 3D0A0000 		.4byte	0xa3d
 5211 0a32 0C       		.uleb128 0xc
 5212 0a33 DC000000 		.4byte	0xdc
ARM GAS  C:\Users\brian\AppData\Local\Temp\ccwE2E8f.s 			page 129


 5213 0a37 0C       		.uleb128 0xc
 5214 0a38 BF000000 		.4byte	0xbf
 5215 0a3c 00       		.byte	0
 5216 0a3d 03       		.uleb128 0x3
 5217 0a3e A00E0000 		.4byte	.LASF172
 5218 0a42 08       		.byte	0x8
 5219 0a43 36       		.byte	0x36
 5220 0a44 480A0000 		.4byte	0xa48
 5221 0a48 06       		.uleb128 0x6
 5222 0a49 04       		.byte	0x4
 5223 0a4a 4E0A0000 		.4byte	0xa4e
 5224 0a4e 0B       		.uleb128 0xb
 5225 0a4f BF000000 		.4byte	0xbf
 5226 0a53 5D0A0000 		.4byte	0xa5d
 5227 0a57 0C       		.uleb128 0xc
 5228 0a58 DC000000 		.4byte	0xdc
 5229 0a5c 00       		.byte	0
 5230 0a5d 08       		.uleb128 0x8
 5231 0a5e 69010000 		.4byte	.LASF173
 5232 0a62 10       		.byte	0x10
 5233 0a63 08       		.byte	0x8
 5234 0a64 38       		.byte	0x38
 5235 0a65 9A0A0000 		.4byte	0xa9a
 5236 0a69 09       		.uleb128 0x9
 5237 0a6a 0E090000 		.4byte	.LASF174
 5238 0a6e 08       		.byte	0x8
 5239 0a6f 3A       		.byte	0x3a
 5240 0a70 9A0A0000 		.4byte	0xa9a
 5241 0a74 00       		.byte	0
 5242 0a75 09       		.uleb128 0x9
 5243 0a76 F4070000 		.4byte	.LASF48
 5244 0a7a 08       		.byte	0x8
 5245 0a7b 3B       		.byte	0x3b
 5246 0a7c DC000000 		.4byte	0xdc
 5247 0a80 04       		.byte	0x4
 5248 0a81 09       		.uleb128 0x9
 5249 0a82 9D000000 		.4byte	.LASF175
 5250 0a86 08       		.byte	0x8
 5251 0a87 3C       		.byte	0x3c
 5252 0a88 180A0000 		.4byte	0xa18
 5253 0a8c 08       		.byte	0x8
 5254 0a8d 09       		.uleb128 0x9
 5255 0a8e 260E0000 		.4byte	.LASF176
 5256 0a92 08       		.byte	0x8
 5257 0a93 3D       		.byte	0x3d
 5258 0a94 3D0A0000 		.4byte	0xa3d
 5259 0a98 0C       		.byte	0xc
 5260 0a99 00       		.byte	0
 5261 0a9a 06       		.uleb128 0x6
 5262 0a9b 04       		.byte	0x4
 5263 0a9c BF000000 		.4byte	0xbf
 5264 0aa0 03       		.uleb128 0x3
 5265 0aa1 29100000 		.4byte	.LASF177
 5266 0aa5 08       		.byte	0x8
 5267 0aa6 40       		.byte	0x40
 5268 0aa7 AB0A0000 		.4byte	0xaab
 5269 0aab 07       		.uleb128 0x7
ARM GAS  C:\Users\brian\AppData\Local\Temp\ccwE2E8f.s 			page 130


 5270 0aac 5D0A0000 		.4byte	0xa5d
 5271 0ab0 08       		.uleb128 0x8
 5272 0ab1 04010000 		.4byte	.LASF178
 5273 0ab5 08       		.byte	0x8
 5274 0ab6 08       		.byte	0x8
 5275 0ab7 4F       		.byte	0x4f
 5276 0ab8 E10A0000 		.4byte	0xae1
 5277 0abc 09       		.uleb128 0x9
 5278 0abd 93040000 		.4byte	.LASF179
 5279 0ac1 08       		.byte	0x8
 5280 0ac2 51       		.byte	0x51
 5281 0ac3 98050000 		.4byte	0x598
 5282 0ac7 00       		.byte	0
 5283 0ac8 0A       		.uleb128 0xa
 5284 0ac9 6D696E00 		.ascii	"min\000"
 5285 0acd 08       		.byte	0x8
 5286 0ace 52       		.byte	0x52
 5287 0acf B4000000 		.4byte	0xb4
 5288 0ad3 04       		.byte	0x4
 5289 0ad4 0A       		.uleb128 0xa
 5290 0ad5 6D617800 		.ascii	"max\000"
 5291 0ad9 08       		.byte	0x8
 5292 0ada 53       		.byte	0x53
 5293 0adb B4000000 		.4byte	0xb4
 5294 0adf 05       		.byte	0x5
 5295 0ae0 00       		.byte	0
 5296 0ae1 03       		.uleb128 0x3
 5297 0ae2 00000000 		.4byte	.LASF180
 5298 0ae6 08       		.byte	0x8
 5299 0ae7 56       		.byte	0x56
 5300 0ae8 EC0A0000 		.4byte	0xaec
 5301 0aec 07       		.uleb128 0x7
 5302 0aed B00A0000 		.4byte	0xab0
 5303 0af1 14       		.uleb128 0x14
 5304 0af2 2B0D0000 		.4byte	.LASF181
 5305 0af6 01       		.byte	0x1
 5306 0af7 F6       		.byte	0xf6
 5307 0af8 B4000000 		.4byte	0xb4
 5308 0afc 00000000 		.4byte	.LFB12
 5309 0b00 82000000 		.4byte	.LFE12-.LFB12
 5310 0b04 01       		.uleb128 0x1
 5311 0b05 9C       		.byte	0x9c
 5312 0b06 370B0000 		.4byte	0xb37
 5313 0b0a 15       		.uleb128 0x15
 5314 0b0b 756900   		.ascii	"ui\000"
 5315 0b0e 01       		.byte	0x1
 5316 0b0f F6       		.byte	0xf6
 5317 0b10 FB020000 		.4byte	0x2fb
 5318 0b14 00000000 		.4byte	.LLST0
 5319 0b18 15       		.uleb128 0x15
 5320 0b19 6D736700 		.ascii	"msg\000"
 5321 0b1d 01       		.byte	0x1
 5322 0b1e F6       		.byte	0xf6
 5323 0b1f B4000000 		.4byte	0xb4
 5324 0b23 1B010000 		.4byte	.LLST1
 5325 0b27 16       		.uleb128 0x16
 5326 0b28 61726700 		.ascii	"arg\000"
ARM GAS  C:\Users\brian\AppData\Local\Temp\ccwE2E8f.s 			page 131


 5327 0b2c 01       		.byte	0x1
 5328 0b2d F8       		.byte	0xf8
 5329 0b2e B4000000 		.4byte	0xb4
 5330 0b32 47010000 		.4byte	.LLST2
 5331 0b36 00       		.byte	0
 5332 0b37 17       		.uleb128 0x17
 5333 0b38 A70A0000 		.4byte	.LASF182
 5334 0b3c 01       		.byte	0x1
 5335 0b3d EC02     		.2byte	0x2ec
 5336 0b3f B4000000 		.4byte	0xb4
 5337 0b43 00000000 		.4byte	.LFB25
 5338 0b47 34000000 		.4byte	.LFE25-.LFB25
 5339 0b4b 01       		.uleb128 0x1
 5340 0b4c 9C       		.byte	0x9c
 5341 0b4d 600B0000 		.4byte	0xb60
 5342 0b51 18       		.uleb128 0x18
 5343 0b52 6300     		.ascii	"c\000"
 5344 0b54 01       		.byte	0x1
 5345 0b55 EC02     		.2byte	0x2ec
 5346 0b57 B4000000 		.4byte	0xb4
 5347 0b5b 5D020000 		.4byte	.LLST3
 5348 0b5f 00       		.byte	0
 5349 0b60 19       		.uleb128 0x19
 5350 0b61 BD050000 		.4byte	.LASF185
 5351 0b65 01       		.byte	0x1
 5352 0b66 8B       		.byte	0x8b
 5353 0b67 00000000 		.4byte	.LFB0
 5354 0b6b 3A000000 		.4byte	.LFE0-.LFB0
 5355 0b6f 01       		.uleb128 0x1
 5356 0b70 9C       		.byte	0x9c
 5357 0b71 1C0C0000 		.4byte	0xc1c
 5358 0b75 1A       		.uleb128 0x1a
 5359 0b76 81100000 		.4byte	.LASF183
 5360 0b7a 01       		.byte	0x1
 5361 0b7b 8B       		.byte	0x8b
 5362 0b7c E0070000 		.4byte	0x7e0
 5363 0b80 C9020000 		.4byte	.LLST4
 5364 0b84 15       		.uleb128 0x15
 5365 0b85 7800     		.ascii	"x\000"
 5366 0b87 01       		.byte	0x1
 5367 0b88 8B       		.byte	0x8b
 5368 0b89 B4050000 		.4byte	0x5b4
 5369 0b8d E7020000 		.4byte	.LLST5
 5370 0b91 15       		.uleb128 0x15
 5371 0b92 7900     		.ascii	"y\000"
 5372 0b94 01       		.byte	0x1
 5373 0b95 8B       		.byte	0x8b
 5374 0b96 B4050000 		.4byte	0x5b4
 5375 0b9a 08030000 		.4byte	.LLST6
 5376 0b9e 15       		.uleb128 0x15
 5377 0b9f 7700     		.ascii	"w\000"
 5378 0ba1 01       		.byte	0x1
 5379 0ba2 8B       		.byte	0x8b
 5380 0ba3 B4050000 		.4byte	0x5b4
 5381 0ba7 29030000 		.4byte	.LLST7
 5382 0bab 1B       		.uleb128 0x1b
 5383 0bac 480F0000 		.4byte	.LASF184
ARM GAS  C:\Users\brian\AppData\Local\Temp\ccwE2E8f.s 			page 132


 5384 0bb0 01       		.byte	0x1
 5385 0bb1 8B       		.byte	0x8b
 5386 0bb2 B4050000 		.4byte	0x5b4
 5387 0bb6 02       		.uleb128 0x2
 5388 0bb7 91       		.byte	0x91
 5389 0bb8 00       		.sleb128 0
 5390 0bb9 1C       		.uleb128 0x1c
 5391 0bba 1C000000 		.4byte	.LVL38
 5392 0bbe CB2A0000 		.4byte	0x2acb
 5393 0bc2 E90B0000 		.4byte	0xbe9
 5394 0bc6 1D       		.uleb128 0x1d
 5395 0bc7 01       		.uleb128 0x1
 5396 0bc8 50       		.byte	0x50
 5397 0bc9 02       		.uleb128 0x2
 5398 0bca 78       		.byte	0x78
 5399 0bcb 00       		.sleb128 0
 5400 0bcc 1D       		.uleb128 0x1d
 5401 0bcd 01       		.uleb128 0x1
 5402 0bce 51       		.byte	0x51
 5403 0bcf 02       		.uleb128 0x2
 5404 0bd0 76       		.byte	0x76
 5405 0bd1 00       		.sleb128 0
 5406 0bd2 1D       		.uleb128 0x1d
 5407 0bd3 01       		.uleb128 0x1
 5408 0bd4 52       		.byte	0x52
 5409 0bd5 05       		.uleb128 0x5
 5410 0bd6 75       		.byte	0x75
 5411 0bd7 00       		.sleb128 0
 5412 0bd8 74       		.byte	0x74
 5413 0bd9 00       		.sleb128 0
 5414 0bda 1C       		.byte	0x1c
 5415 0bdb 1D       		.uleb128 0x1d
 5416 0bdc 01       		.uleb128 0x1
 5417 0bdd 53       		.byte	0x53
 5418 0bde 02       		.uleb128 0x2
 5419 0bdf 74       		.byte	0x74
 5420 0be0 00       		.sleb128 0
 5421 0be1 1D       		.uleb128 0x1d
 5422 0be2 02       		.uleb128 0x2
 5423 0be3 7D       		.byte	0x7d
 5424 0be4 00       		.sleb128 0
 5425 0be5 02       		.uleb128 0x2
 5426 0be6 74       		.byte	0x74
 5427 0be7 00       		.sleb128 0
 5428 0be8 00       		.byte	0
 5429 0be9 1E       		.uleb128 0x1e
 5430 0bea 34000000 		.4byte	.LVL40
 5431 0bee D72A0000 		.4byte	0x2ad7
 5432 0bf2 1D       		.uleb128 0x1d
 5433 0bf3 01       		.uleb128 0x1
 5434 0bf4 50       		.byte	0x50
 5435 0bf5 02       		.uleb128 0x2
 5436 0bf6 78       		.byte	0x78
 5437 0bf7 00       		.sleb128 0
 5438 0bf8 1D       		.uleb128 0x1d
 5439 0bf9 01       		.uleb128 0x1
 5440 0bfa 51       		.byte	0x51
ARM GAS  C:\Users\brian\AppData\Local\Temp\ccwE2E8f.s 			page 133


 5441 0bfb 02       		.uleb128 0x2
 5442 0bfc 76       		.byte	0x76
 5443 0bfd 02       		.sleb128 2
 5444 0bfe 1D       		.uleb128 0x1d
 5445 0bff 01       		.uleb128 0x1
 5446 0c00 52       		.byte	0x52
 5447 0c01 0B       		.uleb128 0xb
 5448 0c02 75       		.byte	0x75
 5449 0c03 00       		.sleb128 0
 5450 0c04 74       		.byte	0x74
 5451 0c05 7C       		.sleb128 -4
 5452 0c06 0A       		.byte	0xa
 5453 0c07 FFFF     		.2byte	0xffff
 5454 0c09 1A       		.byte	0x1a
 5455 0c0a 1C       		.byte	0x1c
 5456 0c0b 32       		.byte	0x32
 5457 0c0c 1C       		.byte	0x1c
 5458 0c0d 1D       		.uleb128 0x1d
 5459 0c0e 01       		.uleb128 0x1
 5460 0c0f 53       		.byte	0x53
 5461 0c10 02       		.uleb128 0x2
 5462 0c11 74       		.byte	0x74
 5463 0c12 7C       		.sleb128 -4
 5464 0c13 1D       		.uleb128 0x1d
 5465 0c14 02       		.uleb128 0x2
 5466 0c15 7D       		.byte	0x7d
 5467 0c16 00       		.sleb128 0
 5468 0c17 02       		.uleb128 0x2
 5469 0c18 74       		.byte	0x74
 5470 0c19 7C       		.sleb128 -4
 5471 0c1a 00       		.byte	0
 5472 0c1b 00       		.byte	0
 5473 0c1c 19       		.uleb128 0x19
 5474 0c1d 39100000 		.4byte	.LASF186
 5475 0c21 01       		.byte	0x1
 5476 0c22 95       		.byte	0x95
 5477 0c23 00000000 		.4byte	.LFB1
 5478 0c27 12000000 		.4byte	.LFE1-.LFB1
 5479 0c2b 01       		.uleb128 0x1
 5480 0c2c 9C       		.byte	0x9c
 5481 0c2d 790C0000 		.4byte	0xc79
 5482 0c31 1A       		.uleb128 0x1a
 5483 0c32 81100000 		.4byte	.LASF183
 5484 0c36 01       		.byte	0x1
 5485 0c37 95       		.byte	0x95
 5486 0c38 E0070000 		.4byte	0x7e0
 5487 0c3c 62030000 		.4byte	.LLST8
 5488 0c40 15       		.uleb128 0x15
 5489 0c41 7800     		.ascii	"x\000"
 5490 0c43 01       		.byte	0x1
 5491 0c44 95       		.byte	0x95
 5492 0c45 B4050000 		.4byte	0x5b4
 5493 0c49 83030000 		.4byte	.LLST9
 5494 0c4d 15       		.uleb128 0x15
 5495 0c4e 7900     		.ascii	"y\000"
 5496 0c50 01       		.byte	0x1
 5497 0c51 95       		.byte	0x95
ARM GAS  C:\Users\brian\AppData\Local\Temp\ccwE2E8f.s 			page 134


 5498 0c52 B4050000 		.4byte	0x5b4
 5499 0c56 A4030000 		.4byte	.LLST10
 5500 0c5a 15       		.uleb128 0x15
 5501 0c5b 7700     		.ascii	"w\000"
 5502 0c5d 01       		.byte	0x1
 5503 0c5e 95       		.byte	0x95
 5504 0c5f B4050000 		.4byte	0x5b4
 5505 0c63 C5030000 		.4byte	.LLST11
 5506 0c67 1E       		.uleb128 0x1e
 5507 0c68 0E000000 		.4byte	.LVL43
 5508 0c6c D72A0000 		.4byte	0x2ad7
 5509 0c70 1D       		.uleb128 0x1d
 5510 0c71 01       		.uleb128 0x1
 5511 0c72 50       		.byte	0x50
 5512 0c73 03       		.uleb128 0x3
 5513 0c74 F3       		.byte	0xf3
 5514 0c75 01       		.uleb128 0x1
 5515 0c76 50       		.byte	0x50
 5516 0c77 00       		.byte	0
 5517 0c78 00       		.byte	0
 5518 0c79 1F       		.uleb128 0x1f
 5519 0c7a EC050000 		.4byte	.LASF187
 5520 0c7e 01       		.byte	0x1
 5521 0c7f BC05     		.2byte	0x5bc
 5522 0c81 B4000000 		.4byte	0xb4
 5523 0c85 00000000 		.4byte	.LFB41
 5524 0c89 76000000 		.4byte	.LFE41-.LFB41
 5525 0c8d 01       		.uleb128 0x1
 5526 0c8e 9C       		.byte	0x9c
 5527 0c8f 4B0D0000 		.4byte	0xd4b
 5528 0c93 18       		.uleb128 0x18
 5529 0c94 756900   		.ascii	"ui\000"
 5530 0c97 01       		.byte	0x1
 5531 0c98 BC05     		.2byte	0x5bc
 5532 0c9a FB020000 		.4byte	0x2fb
 5533 0c9e E6030000 		.4byte	.LLST12
 5534 0ca2 18       		.uleb128 0x18
 5535 0ca3 6D736700 		.ascii	"msg\000"
 5536 0ca7 01       		.byte	0x1
 5537 0ca8 BC05     		.2byte	0x5bc
 5538 0caa B4000000 		.4byte	0xb4
 5539 0cae 04040000 		.4byte	.LLST13
 5540 0cb2 20       		.uleb128 0x20
 5541 0cb3 68020000 		.4byte	.LASF188
 5542 0cb7 01       		.byte	0x1
 5543 0cb8 BE05     		.2byte	0x5be
 5544 0cba 4B0D0000 		.4byte	0xd4b
 5545 0cbe 94040000 		.4byte	.LLST14
 5546 0cc2 21       		.uleb128 0x21
 5547 0cc3 0E090000 		.4byte	.LASF174
 5548 0cc7 01       		.byte	0x1
 5549 0cc8 BF05     		.2byte	0x5bf
 5550 0cca 9A0A0000 		.4byte	0xa9a
 5551 0cce 01       		.uleb128 0x1
 5552 0ccf 55       		.byte	0x55
 5553 0cd0 20       		.uleb128 0x20
 5554 0cd1 F4070000 		.4byte	.LASF48
ARM GAS  C:\Users\brian\AppData\Local\Temp\ccwE2E8f.s 			page 135


 5555 0cd5 01       		.byte	0x1
 5556 0cd6 C005     		.2byte	0x5c0
 5557 0cd8 DC000000 		.4byte	0xdc
 5558 0cdc 01050000 		.4byte	.LLST15
 5559 0ce0 21       		.uleb128 0x21
 5560 0ce1 86100000 		.4byte	.LASF189
 5561 0ce5 01       		.byte	0x1
 5562 0ce6 C205     		.2byte	0x5c2
 5563 0ce8 3D0A0000 		.4byte	0xa3d
 5564 0cec 01       		.uleb128 0x1
 5565 0ced 56       		.byte	0x56
 5566 0cee 22       		.uleb128 0x22
 5567 0cef 61726700 		.ascii	"arg\000"
 5568 0cf3 01       		.byte	0x1
 5569 0cf4 C405     		.2byte	0x5c4
 5570 0cf6 B4000000 		.4byte	0xb4
 5571 0cfa 9E050000 		.4byte	.LLST16
 5572 0cfe 1C       		.uleb128 0x1c
 5573 0cff 4A000000 		.4byte	.LVL57
 5574 0d03 F10A0000 		.4byte	0xaf1
 5575 0d07 120D0000 		.4byte	0xd12
 5576 0d0b 1D       		.uleb128 0x1d
 5577 0d0c 01       		.uleb128 0x1
 5578 0d0d 50       		.byte	0x50
 5579 0d0e 02       		.uleb128 0x2
 5580 0d0f 74       		.byte	0x74
 5581 0d10 00       		.sleb128 0
 5582 0d11 00       		.byte	0
 5583 0d12 1C       		.uleb128 0x1c
 5584 0d13 5A000000 		.4byte	.LVL62
 5585 0d17 E32A0000 		.4byte	0x2ae3
 5586 0d1b 260D0000 		.4byte	0xd26
 5587 0d1f 1D       		.uleb128 0x1d
 5588 0d20 01       		.uleb128 0x1
 5589 0d21 50       		.byte	0x50
 5590 0d22 02       		.uleb128 0x2
 5591 0d23 74       		.byte	0x74
 5592 0d24 00       		.sleb128 0
 5593 0d25 00       		.byte	0
 5594 0d26 1C       		.uleb128 0x1c
 5595 0d27 64000000 		.4byte	.LVL65
 5596 0d2b F10A0000 		.4byte	0xaf1
 5597 0d2f 3A0D0000 		.4byte	0xd3a
 5598 0d33 1D       		.uleb128 0x1d
 5599 0d34 01       		.uleb128 0x1
 5600 0d35 50       		.byte	0x50
 5601 0d36 02       		.uleb128 0x2
 5602 0d37 74       		.byte	0x74
 5603 0d38 00       		.sleb128 0
 5604 0d39 00       		.byte	0
 5605 0d3a 1E       		.uleb128 0x1e
 5606 0d3b 6C000000 		.4byte	.LVL68
 5607 0d3f F10A0000 		.4byte	0xaf1
 5608 0d43 1D       		.uleb128 0x1d
 5609 0d44 01       		.uleb128 0x1
 5610 0d45 50       		.byte	0x50
 5611 0d46 02       		.uleb128 0x2
ARM GAS  C:\Users\brian\AppData\Local\Temp\ccwE2E8f.s 			page 136


 5612 0d47 74       		.byte	0x74
 5613 0d48 00       		.sleb128 0
 5614 0d49 00       		.byte	0
 5615 0d4a 00       		.byte	0
 5616 0d4b 06       		.uleb128 0x6
 5617 0d4c 04       		.byte	0x4
 5618 0d4d A00A0000 		.4byte	0xaa0
 5619 0d51 23       		.uleb128 0x23
 5620 0d52 7E090000 		.4byte	.LASF190
 5621 0d56 01       		.byte	0x1
 5622 0d57 A6       		.byte	0xa6
 5623 0d58 B4050000 		.4byte	0x5b4
 5624 0d5c 00000000 		.4byte	.LFB3
 5625 0d60 06000000 		.4byte	.LFE3-.LFB3
 5626 0d64 01       		.uleb128 0x1
 5627 0d65 9C       		.byte	0x9c
 5628 0d66 790D0000 		.4byte	0xd79
 5629 0d6a 15       		.uleb128 0x15
 5630 0d6b 756900   		.ascii	"ui\000"
 5631 0d6e 01       		.byte	0x1
 5632 0d6f A6       		.byte	0xa6
 5633 0d70 FB020000 		.4byte	0x2fb
 5634 0d74 19060000 		.4byte	.LLST17
 5635 0d78 00       		.byte	0
 5636 0d79 23       		.uleb128 0x23
 5637 0d7a FD020000 		.4byte	.LASF191
 5638 0d7e 01       		.byte	0x1
 5639 0d7f AB       		.byte	0xab
 5640 0d80 E0070000 		.4byte	0x7e0
 5641 0d84 00000000 		.4byte	.LFB4
 5642 0d88 04000000 		.4byte	.LFE4-.LFB4
 5643 0d8c 01       		.uleb128 0x1
 5644 0d8d 9C       		.byte	0x9c
 5645 0d8e A10D0000 		.4byte	0xda1
 5646 0d92 15       		.uleb128 0x15
 5647 0d93 756900   		.ascii	"ui\000"
 5648 0d96 01       		.byte	0x1
 5649 0d97 AB       		.byte	0xab
 5650 0d98 FB020000 		.4byte	0x2fb
 5651 0d9c 3A060000 		.4byte	.LLST18
 5652 0da0 00       		.byte	0
 5653 0da1 23       		.uleb128 0x23
 5654 0da2 9A080000 		.4byte	.LASF192
 5655 0da6 01       		.byte	0x1
 5656 0da7 9F       		.byte	0x9f
 5657 0da8 B4050000 		.4byte	0x5b4
 5658 0dac 00000000 		.4byte	.LFB2
 5659 0db0 1E000000 		.4byte	.LFE2-.LFB2
 5660 0db4 01       		.uleb128 0x1
 5661 0db5 9C       		.byte	0x9c
 5662 0db6 D90D0000 		.4byte	0xdd9
 5663 0dba 15       		.uleb128 0x15
 5664 0dbb 756900   		.ascii	"ui\000"
 5665 0dbe 01       		.byte	0x1
 5666 0dbf 9F       		.byte	0x9f
 5667 0dc0 FB020000 		.4byte	0x2fb
 5668 0dc4 5B060000 		.4byte	.LLST19
ARM GAS  C:\Users\brian\AppData\Local\Temp\ccwE2E8f.s 			page 137


 5669 0dc8 1E       		.uleb128 0x1e
 5670 0dc9 08000000 		.4byte	.LVL78
 5671 0dcd 790D0000 		.4byte	0xd79
 5672 0dd1 1D       		.uleb128 0x1d
 5673 0dd2 01       		.uleb128 0x1
 5674 0dd3 50       		.byte	0x50
 5675 0dd4 02       		.uleb128 0x2
 5676 0dd5 74       		.byte	0x74
 5677 0dd6 00       		.sleb128 0
 5678 0dd7 00       		.byte	0
 5679 0dd8 00       		.byte	0
 5680 0dd9 24       		.uleb128 0x24
 5681 0dda C5020000 		.4byte	.LASF197
 5682 0dde 01       		.byte	0x1
 5683 0ddf B1       		.byte	0xb1
 5684 0de0 00000000 		.4byte	.LFB5
 5685 0de4 50000000 		.4byte	.LFE5-.LFB5
 5686 0de8 01       		.uleb128 0x1
 5687 0de9 9C       		.byte	0x9c
 5688 0dea BE0E0000 		.4byte	0xebe
 5689 0dee 15       		.uleb128 0x15
 5690 0def 756900   		.ascii	"ui\000"
 5691 0df2 01       		.byte	0x1
 5692 0df3 B1       		.byte	0xb1
 5693 0df4 FB020000 		.4byte	0x2fb
 5694 0df8 79060000 		.4byte	.LLST20
 5695 0dfc 1A       		.uleb128 0x1a
 5696 0dfd 23100000 		.4byte	.LASF193
 5697 0e01 01       		.byte	0x1
 5698 0e02 B1       		.byte	0xb1
 5699 0e03 B4050000 		.4byte	0x5b4
 5700 0e07 A5060000 		.4byte	.LLST21
 5701 0e0b 1A       		.uleb128 0x1a
 5702 0e0c B7050000 		.4byte	.LASF108
 5703 0e10 01       		.byte	0x1
 5704 0e11 B1       		.byte	0xb1
 5705 0e12 B4050000 		.4byte	0x5b4
 5706 0e16 C6060000 		.4byte	.LLST22
 5707 0e1a 1A       		.uleb128 0x1a
 5708 0e1b 0E0A0000 		.4byte	.LASF194
 5709 0e1f 01       		.byte	0x1
 5710 0e20 B1       		.byte	0xb1
 5711 0e21 B4050000 		.4byte	0x5b4
 5712 0e25 E7060000 		.4byte	.LLST23
 5713 0e29 1A       		.uleb128 0x1a
 5714 0e2a 490C0000 		.4byte	.LASF195
 5715 0e2e 01       		.byte	0x1
 5716 0e2f B1       		.byte	0xb1
 5717 0e30 B4050000 		.4byte	0x5b4
 5718 0e34 08070000 		.4byte	.LLST24
 5719 0e38 1A       		.uleb128 0x1a
 5720 0e39 C9070000 		.4byte	.LASF37
 5721 0e3d 01       		.byte	0x1
 5722 0e3e B1       		.byte	0xb1
 5723 0e3f EB000000 		.4byte	0xeb
 5724 0e43 28070000 		.4byte	.LLST25
 5725 0e47 1C       		.uleb128 0x1c
ARM GAS  C:\Users\brian\AppData\Local\Temp\ccwE2E8f.s 			page 138


 5726 0e48 1A000000 		.4byte	.LVL83
 5727 0e4c 790D0000 		.4byte	0xd79
 5728 0e50 5B0E0000 		.4byte	0xe5b
 5729 0e54 1D       		.uleb128 0x1d
 5730 0e55 01       		.uleb128 0x1
 5731 0e56 50       		.byte	0x50
 5732 0e57 02       		.uleb128 0x2
 5733 0e58 74       		.byte	0x74
 5734 0e59 00       		.sleb128 0
 5735 0e5a 00       		.byte	0
 5736 0e5b 1C       		.uleb128 0x1c
 5737 0e5c 22000000 		.4byte	.LVL84
 5738 0e60 A10D0000 		.4byte	0xda1
 5739 0e64 6F0E0000 		.4byte	0xe6f
 5740 0e68 1D       		.uleb128 0x1d
 5741 0e69 01       		.uleb128 0x1
 5742 0e6a 50       		.byte	0x50
 5743 0e6b 02       		.uleb128 0x2
 5744 0e6c 74       		.byte	0x74
 5745 0e6d 00       		.sleb128 0
 5746 0e6e 00       		.byte	0
 5747 0e6f 1C       		.uleb128 0x1c
 5748 0e70 2A000000 		.4byte	.LVL85
 5749 0e74 510D0000 		.4byte	0xd51
 5750 0e78 830E0000 		.4byte	0xe83
 5751 0e7c 1D       		.uleb128 0x1d
 5752 0e7d 01       		.uleb128 0x1
 5753 0e7e 50       		.byte	0x50
 5754 0e7f 02       		.uleb128 0x2
 5755 0e80 74       		.byte	0x74
 5756 0e81 00       		.sleb128 0
 5757 0e82 00       		.byte	0
 5758 0e83 1E       		.uleb128 0x1e
 5759 0e84 46000000 		.4byte	.LVL86
 5760 0e88 EF2A0000 		.4byte	0x2aef
 5761 0e8c 1D       		.uleb128 0x1d
 5762 0e8d 01       		.uleb128 0x1
 5763 0e8e 50       		.byte	0x50
 5764 0e8f 02       		.uleb128 0x2
 5765 0e90 76       		.byte	0x76
 5766 0e91 00       		.sleb128 0
 5767 0e92 1D       		.uleb128 0x1d
 5768 0e93 01       		.uleb128 0x1
 5769 0e94 51       		.byte	0x51
 5770 0e95 02       		.uleb128 0x2
 5771 0e96 77       		.byte	0x77
 5772 0e97 00       		.sleb128 0
 5773 0e98 1D       		.uleb128 0x1d
 5774 0e99 01       		.uleb128 0x1
 5775 0e9a 53       		.byte	0x53
 5776 0e9b 02       		.uleb128 0x2
 5777 0e9c 78       		.byte	0x78
 5778 0e9d 00       		.sleb128 0
 5779 0e9e 1D       		.uleb128 0x1d
 5780 0e9f 02       		.uleb128 0x2
 5781 0ea0 7D       		.byte	0x7d
 5782 0ea1 00       		.sleb128 0
ARM GAS  C:\Users\brian\AppData\Local\Temp\ccwE2E8f.s 			page 139


 5783 0ea2 02       		.uleb128 0x2
 5784 0ea3 79       		.byte	0x79
 5785 0ea4 00       		.sleb128 0
 5786 0ea5 1D       		.uleb128 0x1d
 5787 0ea6 02       		.uleb128 0x2
 5788 0ea7 7D       		.byte	0x7d
 5789 0ea8 04       		.sleb128 4
 5790 0ea9 02       		.uleb128 0x2
 5791 0eaa 7A       		.byte	0x7a
 5792 0eab 00       		.sleb128 0
 5793 0eac 1D       		.uleb128 0x1d
 5794 0ead 02       		.uleb128 0x2
 5795 0eae 7D       		.byte	0x7d
 5796 0eaf 08       		.sleb128 8
 5797 0eb0 04       		.uleb128 0x4
 5798 0eb1 91       		.byte	0x91
 5799 0eb2 00       		.sleb128 0
 5800 0eb3 94       		.byte	0x94
 5801 0eb4 02       		.byte	0x2
 5802 0eb5 1D       		.uleb128 0x1d
 5803 0eb6 02       		.uleb128 0x2
 5804 0eb7 7D       		.byte	0x7d
 5805 0eb8 0C       		.sleb128 12
 5806 0eb9 02       		.uleb128 0x2
 5807 0eba 75       		.byte	0x75
 5808 0ebb 00       		.sleb128 0
 5809 0ebc 00       		.byte	0
 5810 0ebd 00       		.byte	0
 5811 0ebe 23       		.uleb128 0x23
 5812 0ebf 050D0000 		.4byte	.LASF196
 5813 0ec3 01       		.byte	0x1
 5814 0ec4 B8       		.byte	0xb8
 5815 0ec5 B4050000 		.4byte	0x5b4
 5816 0ec9 00000000 		.4byte	.LFB6
 5817 0ecd 1C000000 		.4byte	.LFE6-.LFB6
 5818 0ed1 01       		.uleb128 0x1
 5819 0ed2 9C       		.byte	0x9c
 5820 0ed3 F50E0000 		.4byte	0xef5
 5821 0ed7 15       		.uleb128 0x15
 5822 0ed8 756900   		.ascii	"ui\000"
 5823 0edb 01       		.byte	0x1
 5824 0edc B8       		.byte	0xb8
 5825 0edd FB020000 		.4byte	0x2fb
 5826 0ee1 47070000 		.4byte	.LLST26
 5827 0ee5 25       		.uleb128 0x25
 5828 0ee6 23100000 		.4byte	.LASF193
 5829 0eea 01       		.byte	0x1
 5830 0eeb BA       		.byte	0xba
 5831 0eec B4050000 		.4byte	0x5b4
 5832 0ef0 9A070000 		.4byte	.LLST27
 5833 0ef4 00       		.byte	0
 5834 0ef5 24       		.uleb128 0x24
 5835 0ef6 CA0F0000 		.4byte	.LASF198
 5836 0efa 01       		.byte	0x1
 5837 0efb C7       		.byte	0xc7
 5838 0efc 00000000 		.4byte	.LFB7
 5839 0f00 26000000 		.4byte	.LFE7-.LFB7
ARM GAS  C:\Users\brian\AppData\Local\Temp\ccwE2E8f.s 			page 140


 5840 0f04 01       		.uleb128 0x1
 5841 0f05 9C       		.byte	0x9c
 5842 0f06 830F0000 		.4byte	0xf83
 5843 0f0a 15       		.uleb128 0x15
 5844 0f0b 756900   		.ascii	"ui\000"
 5845 0f0e 01       		.byte	0x1
 5846 0f0f C7       		.byte	0xc7
 5847 0f10 FB020000 		.4byte	0x2fb
 5848 0f14 DF070000 		.4byte	.LLST28
 5849 0f18 1A       		.uleb128 0x1a
 5850 0f19 B7050000 		.4byte	.LASF108
 5851 0f1d 01       		.byte	0x1
 5852 0f1e C7       		.byte	0xc7
 5853 0f1f B4050000 		.4byte	0x5b4
 5854 0f23 FD070000 		.4byte	.LLST29
 5855 0f27 1A       		.uleb128 0x1a
 5856 0f28 0E0A0000 		.4byte	.LASF194
 5857 0f2c 01       		.byte	0x1
 5858 0f2d C7       		.byte	0xc7
 5859 0f2e B4050000 		.4byte	0x5b4
 5860 0f32 1E080000 		.4byte	.LLST30
 5861 0f36 1A       		.uleb128 0x1a
 5862 0f37 C9070000 		.4byte	.LASF37
 5863 0f3b 01       		.byte	0x1
 5864 0f3c C7       		.byte	0xc7
 5865 0f3d EB000000 		.4byte	0xeb
 5866 0f41 3F080000 		.4byte	.LLST31
 5867 0f45 1C       		.uleb128 0x1c
 5868 0f46 10000000 		.4byte	.LVL96
 5869 0f4a BE0E0000 		.4byte	0xebe
 5870 0f4e 590F0000 		.4byte	0xf59
 5871 0f52 1D       		.uleb128 0x1d
 5872 0f53 01       		.uleb128 0x1
 5873 0f54 50       		.byte	0x50
 5874 0f55 02       		.uleb128 0x2
 5875 0f56 74       		.byte	0x74
 5876 0f57 00       		.sleb128 0
 5877 0f58 00       		.byte	0
 5878 0f59 1E       		.uleb128 0x1e
 5879 0f5a 22000000 		.4byte	.LVL97
 5880 0f5e D90D0000 		.4byte	0xdd9
 5881 0f62 1D       		.uleb128 0x1d
 5882 0f63 01       		.uleb128 0x1
 5883 0f64 50       		.byte	0x50
 5884 0f65 02       		.uleb128 0x2
 5885 0f66 74       		.byte	0x74
 5886 0f67 00       		.sleb128 0
 5887 0f68 1D       		.uleb128 0x1d
 5888 0f69 01       		.uleb128 0x1
 5889 0f6a 52       		.byte	0x52
 5890 0f6b 02       		.uleb128 0x2
 5891 0f6c 75       		.byte	0x75
 5892 0f6d 00       		.sleb128 0
 5893 0f6e 1D       		.uleb128 0x1d
 5894 0f6f 01       		.uleb128 0x1
 5895 0f70 53       		.byte	0x53
 5896 0f71 02       		.uleb128 0x2
ARM GAS  C:\Users\brian\AppData\Local\Temp\ccwE2E8f.s 			page 141


 5897 0f72 76       		.byte	0x76
 5898 0f73 00       		.sleb128 0
 5899 0f74 1D       		.uleb128 0x1d
 5900 0f75 02       		.uleb128 0x2
 5901 0f76 7D       		.byte	0x7d
 5902 0f77 00       		.sleb128 0
 5903 0f78 01       		.uleb128 0x1
 5904 0f79 31       		.byte	0x31
 5905 0f7a 1D       		.uleb128 0x1d
 5906 0f7b 02       		.uleb128 0x2
 5907 0f7c 7D       		.byte	0x7d
 5908 0f7d 04       		.sleb128 4
 5909 0f7e 02       		.uleb128 0x2
 5910 0f7f 77       		.byte	0x77
 5911 0f80 00       		.sleb128 0
 5912 0f81 00       		.byte	0
 5913 0f82 00       		.byte	0
 5914 0f83 26       		.uleb128 0x26
 5915 0f84 71070000 		.4byte	.LASF199
 5916 0f88 01       		.byte	0x1
 5917 0f89 0902     		.2byte	0x209
 5918 0f8b 00000000 		.4byte	.LFB19
 5919 0f8f 60000000 		.4byte	.LFE19-.LFB19
 5920 0f93 01       		.uleb128 0x1
 5921 0f94 9C       		.byte	0x9c
 5922 0f95 63100000 		.4byte	0x1063
 5923 0f99 18       		.uleb128 0x18
 5924 0f9a 756900   		.ascii	"ui\000"
 5925 0f9d 01       		.byte	0x1
 5926 0f9e 0902     		.2byte	0x209
 5927 0fa0 FB020000 		.4byte	0x2fb
 5928 0fa4 5D080000 		.4byte	.LLST32
 5929 0fa8 20       		.uleb128 0x20
 5930 0fa9 81100000 		.4byte	.LASF183
 5931 0fad 01       		.byte	0x1
 5932 0fae 0B02     		.2byte	0x20b
 5933 0fb0 E0070000 		.4byte	0x7e0
 5934 0fb4 89080000 		.4byte	.LLST33
 5935 0fb8 22       		.uleb128 0x22
 5936 0fb9 766D6D00 		.ascii	"vmm\000"
 5937 0fbd 01       		.byte	0x1
 5938 0fbe 0C02     		.2byte	0x20c
 5939 0fc0 63100000 		.4byte	0x1063
 5940 0fc4 9C080000 		.4byte	.LLST34
 5941 0fc8 22       		.uleb128 0x22
 5942 0fc9 7300     		.ascii	"s\000"
 5943 0fcb 01       		.byte	0x1
 5944 0fcc 0D02     		.2byte	0x20d
 5945 0fce DE000000 		.4byte	0xde
 5946 0fd2 BE080000 		.4byte	.LLST35
 5947 0fd6 20       		.uleb128 0x20
 5948 0fd7 93040000 		.4byte	.LASF179
 5949 0fdb 01       		.byte	0x1
 5950 0fdc 0E02     		.2byte	0x20e
 5951 0fde 98050000 		.4byte	0x598
 5952 0fe2 E1080000 		.4byte	.LLST36
 5953 0fe6 22       		.uleb128 0x22
ARM GAS  C:\Users\brian\AppData\Local\Temp\ccwE2E8f.s 			page 142


 5954 0fe7 6D696E00 		.ascii	"min\000"
 5955 0feb 01       		.byte	0x1
 5956 0fec 0F02     		.2byte	0x20f
 5957 0fee B4000000 		.4byte	0xb4
 5958 0ff2 F4080000 		.4byte	.LLST37
 5959 0ff6 22       		.uleb128 0x22
 5960 0ff7 6D617800 		.ascii	"max\000"
 5961 0ffb 01       		.byte	0x1
 5962 0ffc 1002     		.2byte	0x210
 5963 0ffe B4000000 		.4byte	0xb4
 5964 1002 07090000 		.4byte	.LLST38
 5965 1006 22       		.uleb128 0x22
 5966 1007 636E7400 		.ascii	"cnt\000"
 5967 100b 01       		.byte	0x1
 5968 100c 1102     		.2byte	0x211
 5969 100e B4000000 		.4byte	0xb4
 5970 1012 1A090000 		.4byte	.LLST39
 5971 1016 1C       		.uleb128 0x1c
 5972 1017 08000000 		.4byte	.LVL99
 5973 101b 790D0000 		.4byte	0xd79
 5974 101f 2A100000 		.4byte	0x102a
 5975 1023 1D       		.uleb128 0x1d
 5976 1024 01       		.uleb128 0x1
 5977 1025 50       		.byte	0x50
 5978 1026 02       		.uleb128 0x2
 5979 1027 77       		.byte	0x77
 5980 1028 00       		.sleb128 0
 5981 1029 00       		.byte	0
 5982 102a 27       		.uleb128 0x27
 5983 102b 3E000000 		.4byte	.LVL109
 5984 102f FB2A0000 		.4byte	0x2afb
 5985 1033 1C       		.uleb128 0x1c
 5986 1034 48000000 		.4byte	.LVL110
 5987 1038 072B0000 		.4byte	0x2b07
 5988 103c 47100000 		.4byte	0x1047
 5989 1040 1D       		.uleb128 0x1d
 5990 1041 01       		.uleb128 0x1
 5991 1042 51       		.byte	0x51
 5992 1043 02       		.uleb128 0x2
 5993 1044 75       		.byte	0x75
 5994 1045 00       		.sleb128 0
 5995 1046 00       		.byte	0
 5996 1047 1E       		.uleb128 0x1e
 5997 1048 56000000 		.4byte	.LVL111
 5998 104c F50E0000 		.4byte	0xef5
 5999 1050 1D       		.uleb128 0x1d
 6000 1051 01       		.uleb128 0x1
 6001 1052 50       		.byte	0x50
 6002 1053 02       		.uleb128 0x2
 6003 1054 77       		.byte	0x77
 6004 1055 00       		.sleb128 0
 6005 1056 1D       		.uleb128 0x1d
 6006 1057 01       		.uleb128 0x1
 6007 1058 51       		.byte	0x51
 6008 1059 02       		.uleb128 0x2
 6009 105a 76       		.byte	0x76
 6010 105b 01       		.sleb128 1
ARM GAS  C:\Users\brian\AppData\Local\Temp\ccwE2E8f.s 			page 143


 6011 105c 1D       		.uleb128 0x1d
 6012 105d 01       		.uleb128 0x1
 6013 105e 52       		.byte	0x52
 6014 105f 01       		.uleb128 0x1
 6015 1060 31       		.byte	0x31
 6016 1061 00       		.byte	0
 6017 1062 00       		.byte	0
 6018 1063 06       		.uleb128 0x6
 6019 1064 04       		.byte	0x4
 6020 1065 E10A0000 		.4byte	0xae1
 6021 1069 23       		.uleb128 0x23
 6022 106a A0010000 		.4byte	.LASF200
 6023 106e 01       		.byte	0x1
 6024 106f CD       		.byte	0xcd
 6025 1070 B4050000 		.4byte	0x5b4
 6026 1074 00000000 		.4byte	.LFB8
 6027 1078 1C000000 		.4byte	.LFE8-.LFB8
 6028 107c 01       		.uleb128 0x1
 6029 107d 9C       		.byte	0x9c
 6030 107e A0100000 		.4byte	0x10a0
 6031 1082 15       		.uleb128 0x15
 6032 1083 756900   		.ascii	"ui\000"
 6033 1086 01       		.byte	0x1
 6034 1087 CD       		.byte	0xcd
 6035 1088 FB020000 		.4byte	0x2fb
 6036 108c 44090000 		.4byte	.LLST40
 6037 1090 25       		.uleb128 0x25
 6038 1091 23100000 		.4byte	.LASF193
 6039 1095 01       		.byte	0x1
 6040 1096 CF       		.byte	0xcf
 6041 1097 B4050000 		.4byte	0x5b4
 6042 109b 97090000 		.4byte	.LLST41
 6043 109f 00       		.byte	0
 6044 10a0 24       		.uleb128 0x24
 6045 10a1 7B040000 		.4byte	.LASF201
 6046 10a5 01       		.byte	0x1
 6047 10a6 DB       		.byte	0xdb
 6048 10a7 00000000 		.4byte	.LFB9
 6049 10ab 26000000 		.4byte	.LFE9-.LFB9
 6050 10af 01       		.uleb128 0x1
 6051 10b0 9C       		.byte	0x9c
 6052 10b1 2E110000 		.4byte	0x112e
 6053 10b5 15       		.uleb128 0x15
 6054 10b6 756900   		.ascii	"ui\000"
 6055 10b9 01       		.byte	0x1
 6056 10ba DB       		.byte	0xdb
 6057 10bb FB020000 		.4byte	0x2fb
 6058 10bf DC090000 		.4byte	.LLST42
 6059 10c3 1A       		.uleb128 0x1a
 6060 10c4 B7050000 		.4byte	.LASF108
 6061 10c8 01       		.byte	0x1
 6062 10c9 DB       		.byte	0xdb
 6063 10ca B4050000 		.4byte	0x5b4
 6064 10ce FA090000 		.4byte	.LLST43
 6065 10d2 1A       		.uleb128 0x1a
 6066 10d3 0E0A0000 		.4byte	.LASF194
 6067 10d7 01       		.byte	0x1
ARM GAS  C:\Users\brian\AppData\Local\Temp\ccwE2E8f.s 			page 144


 6068 10d8 DB       		.byte	0xdb
 6069 10d9 B4050000 		.4byte	0x5b4
 6070 10dd 1B0A0000 		.4byte	.LLST44
 6071 10e1 1A       		.uleb128 0x1a
 6072 10e2 C9070000 		.4byte	.LASF37
 6073 10e6 01       		.byte	0x1
 6074 10e7 DB       		.byte	0xdb
 6075 10e8 EB000000 		.4byte	0xeb
 6076 10ec 3C0A0000 		.4byte	.LLST45
 6077 10f0 1C       		.uleb128 0x1c
 6078 10f1 10000000 		.4byte	.LVL121
 6079 10f5 69100000 		.4byte	0x1069
 6080 10f9 04110000 		.4byte	0x1104
 6081 10fd 1D       		.uleb128 0x1d
 6082 10fe 01       		.uleb128 0x1
 6083 10ff 50       		.byte	0x50
 6084 1100 02       		.uleb128 0x2
 6085 1101 74       		.byte	0x74
 6086 1102 00       		.sleb128 0
 6087 1103 00       		.byte	0
 6088 1104 1E       		.uleb128 0x1e
 6089 1105 22000000 		.4byte	.LVL122
 6090 1109 D90D0000 		.4byte	0xdd9
 6091 110d 1D       		.uleb128 0x1d
 6092 110e 01       		.uleb128 0x1
 6093 110f 50       		.byte	0x50
 6094 1110 02       		.uleb128 0x2
 6095 1111 74       		.byte	0x74
 6096 1112 00       		.sleb128 0
 6097 1113 1D       		.uleb128 0x1d
 6098 1114 01       		.uleb128 0x1
 6099 1115 52       		.byte	0x52
 6100 1116 02       		.uleb128 0x2
 6101 1117 75       		.byte	0x75
 6102 1118 00       		.sleb128 0
 6103 1119 1D       		.uleb128 0x1d
 6104 111a 01       		.uleb128 0x1
 6105 111b 53       		.byte	0x53
 6106 111c 02       		.uleb128 0x2
 6107 111d 76       		.byte	0x76
 6108 111e 00       		.sleb128 0
 6109 111f 1D       		.uleb128 0x1d
 6110 1120 02       		.uleb128 0x2
 6111 1121 7D       		.byte	0x7d
 6112 1122 00       		.sleb128 0
 6113 1123 01       		.uleb128 0x1
 6114 1124 31       		.byte	0x31
 6115 1125 1D       		.uleb128 0x1d
 6116 1126 02       		.uleb128 0x2
 6117 1127 7D       		.byte	0x7d
 6118 1128 04       		.sleb128 4
 6119 1129 02       		.uleb128 0x2
 6120 112a 77       		.byte	0x77
 6121 112b 00       		.sleb128 0
 6122 112c 00       		.byte	0
 6123 112d 00       		.byte	0
 6124 112e 23       		.uleb128 0x23
ARM GAS  C:\Users\brian\AppData\Local\Temp\ccwE2E8f.s 			page 145


 6125 112f 0A020000 		.4byte	.LASF202
 6126 1133 01       		.byte	0x1
 6127 1134 E1       		.byte	0xe1
 6128 1135 B4050000 		.4byte	0x5b4
 6129 1139 00000000 		.4byte	.LFB10
 6130 113d 1C000000 		.4byte	.LFE10-.LFB10
 6131 1141 01       		.uleb128 0x1
 6132 1142 9C       		.byte	0x9c
 6133 1143 65110000 		.4byte	0x1165
 6134 1147 15       		.uleb128 0x15
 6135 1148 756900   		.ascii	"ui\000"
 6136 114b 01       		.byte	0x1
 6137 114c E1       		.byte	0xe1
 6138 114d FB020000 		.4byte	0x2fb
 6139 1151 5A0A0000 		.4byte	.LLST46
 6140 1155 25       		.uleb128 0x25
 6141 1156 23100000 		.4byte	.LASF193
 6142 115a 01       		.byte	0x1
 6143 115b E3       		.byte	0xe3
 6144 115c B4050000 		.4byte	0x5b4
 6145 1160 AD0A0000 		.4byte	.LLST47
 6146 1164 00       		.byte	0
 6147 1165 24       		.uleb128 0x24
 6148 1166 B20F0000 		.4byte	.LASF203
 6149 116a 01       		.byte	0x1
 6150 116b EF       		.byte	0xef
 6151 116c 00000000 		.4byte	.LFB11
 6152 1170 26000000 		.4byte	.LFE11-.LFB11
 6153 1174 01       		.uleb128 0x1
 6154 1175 9C       		.byte	0x9c
 6155 1176 F3110000 		.4byte	0x11f3
 6156 117a 15       		.uleb128 0x15
 6157 117b 756900   		.ascii	"ui\000"
 6158 117e 01       		.byte	0x1
 6159 117f EF       		.byte	0xef
 6160 1180 FB020000 		.4byte	0x2fb
 6161 1184 F00A0000 		.4byte	.LLST48
 6162 1188 1A       		.uleb128 0x1a
 6163 1189 B7050000 		.4byte	.LASF108
 6164 118d 01       		.byte	0x1
 6165 118e EF       		.byte	0xef
 6166 118f B4050000 		.4byte	0x5b4
 6167 1193 0E0B0000 		.4byte	.LLST49
 6168 1197 1A       		.uleb128 0x1a
 6169 1198 0E0A0000 		.4byte	.LASF194
 6170 119c 01       		.byte	0x1
 6171 119d EF       		.byte	0xef
 6172 119e B4050000 		.4byte	0x5b4
 6173 11a2 2F0B0000 		.4byte	.LLST50
 6174 11a6 1A       		.uleb128 0x1a
 6175 11a7 C9070000 		.4byte	.LASF37
 6176 11ab 01       		.byte	0x1
 6177 11ac EF       		.byte	0xef
 6178 11ad EB000000 		.4byte	0xeb
 6179 11b1 500B0000 		.4byte	.LLST51
 6180 11b5 1C       		.uleb128 0x1c
 6181 11b6 10000000 		.4byte	.LVL131
ARM GAS  C:\Users\brian\AppData\Local\Temp\ccwE2E8f.s 			page 146


 6182 11ba 2E110000 		.4byte	0x112e
 6183 11be C9110000 		.4byte	0x11c9
 6184 11c2 1D       		.uleb128 0x1d
 6185 11c3 01       		.uleb128 0x1
 6186 11c4 50       		.byte	0x50
 6187 11c5 02       		.uleb128 0x2
 6188 11c6 74       		.byte	0x74
 6189 11c7 00       		.sleb128 0
 6190 11c8 00       		.byte	0
 6191 11c9 1E       		.uleb128 0x1e
 6192 11ca 22000000 		.4byte	.LVL132
 6193 11ce D90D0000 		.4byte	0xdd9
 6194 11d2 1D       		.uleb128 0x1d
 6195 11d3 01       		.uleb128 0x1
 6196 11d4 50       		.byte	0x50
 6197 11d5 02       		.uleb128 0x2
 6198 11d6 74       		.byte	0x74
 6199 11d7 00       		.sleb128 0
 6200 11d8 1D       		.uleb128 0x1d
 6201 11d9 01       		.uleb128 0x1
 6202 11da 52       		.byte	0x52
 6203 11db 02       		.uleb128 0x2
 6204 11dc 75       		.byte	0x75
 6205 11dd 00       		.sleb128 0
 6206 11de 1D       		.uleb128 0x1d
 6207 11df 01       		.uleb128 0x1
 6208 11e0 53       		.byte	0x53
 6209 11e1 02       		.uleb128 0x2
 6210 11e2 76       		.byte	0x76
 6211 11e3 00       		.sleb128 0
 6212 11e4 1D       		.uleb128 0x1d
 6213 11e5 02       		.uleb128 0x2
 6214 11e6 7D       		.byte	0x7d
 6215 11e7 00       		.sleb128 0
 6216 11e8 01       		.uleb128 0x1
 6217 11e9 31       		.byte	0x31
 6218 11ea 1D       		.uleb128 0x1d
 6219 11eb 02       		.uleb128 0x2
 6220 11ec 7D       		.byte	0x7d
 6221 11ed 04       		.sleb128 4
 6222 11ee 02       		.uleb128 0x2
 6223 11ef 77       		.byte	0x77
 6224 11f0 00       		.sleb128 0
 6225 11f1 00       		.byte	0
 6226 11f2 00       		.byte	0
 6227 11f3 26       		.uleb128 0x26
 6228 11f4 3E070000 		.4byte	.LASF204
 6229 11f8 01       		.byte	0x1
 6230 11f9 7A02     		.2byte	0x27a
 6231 11fb 00000000 		.4byte	.LFB22
 6232 11ff 60000000 		.4byte	.LFE22-.LFB22
 6233 1203 01       		.uleb128 0x1
 6234 1204 9C       		.byte	0x9c
 6235 1205 D3120000 		.4byte	0x12d3
 6236 1209 18       		.uleb128 0x18
 6237 120a 756900   		.ascii	"ui\000"
 6238 120d 01       		.byte	0x1
ARM GAS  C:\Users\brian\AppData\Local\Temp\ccwE2E8f.s 			page 147


 6239 120e 7A02     		.2byte	0x27a
 6240 1210 FB020000 		.4byte	0x2fb
 6241 1214 6E0B0000 		.4byte	.LLST52
 6242 1218 20       		.uleb128 0x20
 6243 1219 81100000 		.4byte	.LASF183
 6244 121d 01       		.byte	0x1
 6245 121e 7C02     		.2byte	0x27c
 6246 1220 E0070000 		.4byte	0x7e0
 6247 1224 9A0B0000 		.4byte	.LLST53
 6248 1228 22       		.uleb128 0x22
 6249 1229 766D6D00 		.ascii	"vmm\000"
 6250 122d 01       		.byte	0x1
 6251 122e 7D02     		.2byte	0x27d
 6252 1230 63100000 		.4byte	0x1063
 6253 1234 AD0B0000 		.4byte	.LLST54
 6254 1238 22       		.uleb128 0x22
 6255 1239 7300     		.ascii	"s\000"
 6256 123b 01       		.byte	0x1
 6257 123c 7E02     		.2byte	0x27e
 6258 123e DE000000 		.4byte	0xde
 6259 1242 CF0B0000 		.4byte	.LLST55
 6260 1246 20       		.uleb128 0x20
 6261 1247 93040000 		.4byte	.LASF179
 6262 124b 01       		.byte	0x1
 6263 124c 7F02     		.2byte	0x27f
 6264 124e 98050000 		.4byte	0x598
 6265 1252 F20B0000 		.4byte	.LLST56
 6266 1256 22       		.uleb128 0x22
 6267 1257 6D696E00 		.ascii	"min\000"
 6268 125b 01       		.byte	0x1
 6269 125c 8002     		.2byte	0x280
 6270 125e B4000000 		.4byte	0xb4
 6271 1262 050C0000 		.4byte	.LLST57
 6272 1266 22       		.uleb128 0x22
 6273 1267 6D617800 		.ascii	"max\000"
 6274 126b 01       		.byte	0x1
 6275 126c 8102     		.2byte	0x281
 6276 126e B4000000 		.4byte	0xb4
 6277 1272 180C0000 		.4byte	.LLST58
 6278 1276 22       		.uleb128 0x22
 6279 1277 636E7400 		.ascii	"cnt\000"
 6280 127b 01       		.byte	0x1
 6281 127c 8202     		.2byte	0x282
 6282 127e B4000000 		.4byte	0xb4
 6283 1282 2B0C0000 		.4byte	.LLST59
 6284 1286 1C       		.uleb128 0x1c
 6285 1287 08000000 		.4byte	.LVL134
 6286 128b 790D0000 		.4byte	0xd79
 6287 128f 9A120000 		.4byte	0x129a
 6288 1293 1D       		.uleb128 0x1d
 6289 1294 01       		.uleb128 0x1
 6290 1295 50       		.byte	0x50
 6291 1296 02       		.uleb128 0x2
 6292 1297 77       		.byte	0x77
 6293 1298 00       		.sleb128 0
 6294 1299 00       		.byte	0
 6295 129a 27       		.uleb128 0x27
ARM GAS  C:\Users\brian\AppData\Local\Temp\ccwE2E8f.s 			page 148


 6296 129b 3E000000 		.4byte	.LVL144
 6297 129f FB2A0000 		.4byte	0x2afb
 6298 12a3 1C       		.uleb128 0x1c
 6299 12a4 48000000 		.4byte	.LVL145
 6300 12a8 072B0000 		.4byte	0x2b07
 6301 12ac B7120000 		.4byte	0x12b7
 6302 12b0 1D       		.uleb128 0x1d
 6303 12b1 01       		.uleb128 0x1
 6304 12b2 51       		.byte	0x51
 6305 12b3 02       		.uleb128 0x2
 6306 12b4 75       		.byte	0x75
 6307 12b5 00       		.sleb128 0
 6308 12b6 00       		.byte	0
 6309 12b7 1E       		.uleb128 0x1e
 6310 12b8 56000000 		.4byte	.LVL146
 6311 12bc 65110000 		.4byte	0x1165
 6312 12c0 1D       		.uleb128 0x1d
 6313 12c1 01       		.uleb128 0x1
 6314 12c2 50       		.byte	0x50
 6315 12c3 02       		.uleb128 0x2
 6316 12c4 77       		.byte	0x77
 6317 12c5 00       		.sleb128 0
 6318 12c6 1D       		.uleb128 0x1d
 6319 12c7 01       		.uleb128 0x1
 6320 12c8 51       		.byte	0x51
 6321 12c9 02       		.uleb128 0x2
 6322 12ca 76       		.byte	0x76
 6323 12cb 01       		.sleb128 1
 6324 12cc 1D       		.uleb128 0x1d
 6325 12cd 01       		.uleb128 0x1
 6326 12ce 52       		.byte	0x52
 6327 12cf 01       		.uleb128 0x1
 6328 12d0 31       		.byte	0x31
 6329 12d1 00       		.byte	0
 6330 12d2 00       		.byte	0
 6331 12d3 28       		.uleb128 0x28
 6332 12d4 62000000 		.4byte	.LASF205
 6333 12d8 01       		.byte	0x1
 6334 12d9 2C01     		.2byte	0x12c
 6335 12db B4000000 		.4byte	0xb4
 6336 12df 00000000 		.4byte	.LFB13
 6337 12e3 32000000 		.4byte	.LFE13-.LFB13
 6338 12e7 01       		.uleb128 0x1
 6339 12e8 9C       		.byte	0x9c
 6340 12e9 65130000 		.4byte	0x1365
 6341 12ed 18       		.uleb128 0x18
 6342 12ee 756900   		.ascii	"ui\000"
 6343 12f1 01       		.byte	0x1
 6344 12f2 2C01     		.2byte	0x12c
 6345 12f4 FB020000 		.4byte	0x2fb
 6346 12f8 550C0000 		.4byte	.LLST60
 6347 12fc 18       		.uleb128 0x18
 6348 12fd 6D736700 		.ascii	"msg\000"
 6349 1301 01       		.byte	0x1
 6350 1302 2C01     		.2byte	0x12c
 6351 1304 B4000000 		.4byte	0xb4
 6352 1308 8C0C0000 		.4byte	.LLST61
ARM GAS  C:\Users\brian\AppData\Local\Temp\ccwE2E8f.s 			page 149


 6353 130c 1C       		.uleb128 0x1c
 6354 130d 0C000000 		.4byte	.LVL149
 6355 1311 790D0000 		.4byte	0xd79
 6356 1315 20130000 		.4byte	0x1320
 6357 1319 1D       		.uleb128 0x1d
 6358 131a 01       		.uleb128 0x1
 6359 131b 50       		.byte	0x50
 6360 131c 02       		.uleb128 0x2
 6361 131d 74       		.byte	0x74
 6362 131e 00       		.sleb128 0
 6363 131f 00       		.byte	0
 6364 1320 1C       		.uleb128 0x1c
 6365 1321 14000000 		.4byte	.LVL150
 6366 1325 A10D0000 		.4byte	0xda1
 6367 1329 34130000 		.4byte	0x1334
 6368 132d 1D       		.uleb128 0x1d
 6369 132e 01       		.uleb128 0x1
 6370 132f 50       		.byte	0x50
 6371 1330 02       		.uleb128 0x2
 6372 1331 74       		.byte	0x74
 6373 1332 00       		.sleb128 0
 6374 1333 00       		.byte	0
 6375 1334 1C       		.uleb128 0x1c
 6376 1335 1C000000 		.4byte	.LVL151
 6377 1339 510D0000 		.4byte	0xd51
 6378 133d 48130000 		.4byte	0x1348
 6379 1341 1D       		.uleb128 0x1d
 6380 1342 01       		.uleb128 0x1
 6381 1343 50       		.byte	0x50
 6382 1344 02       		.uleb128 0x2
 6383 1345 74       		.byte	0x74
 6384 1346 00       		.sleb128 0
 6385 1347 00       		.byte	0
 6386 1348 1E       		.uleb128 0x1e
 6387 1349 2A000000 		.4byte	.LVL152
 6388 134d 132B0000 		.4byte	0x2b13
 6389 1351 1D       		.uleb128 0x1d
 6390 1352 01       		.uleb128 0x1
 6391 1353 50       		.byte	0x50
 6392 1354 02       		.uleb128 0x2
 6393 1355 75       		.byte	0x75
 6394 1356 00       		.sleb128 0
 6395 1357 1D       		.uleb128 0x1d
 6396 1358 01       		.uleb128 0x1
 6397 1359 51       		.byte	0x51
 6398 135a 02       		.uleb128 0x2
 6399 135b 76       		.byte	0x76
 6400 135c 00       		.sleb128 0
 6401 135d 1D       		.uleb128 0x1d
 6402 135e 01       		.uleb128 0x1
 6403 135f 53       		.byte	0x53
 6404 1360 02       		.uleb128 0x2
 6405 1361 74       		.byte	0x74
 6406 1362 3C       		.sleb128 60
 6407 1363 00       		.byte	0
 6408 1364 00       		.byte	0
 6409 1365 28       		.uleb128 0x28
ARM GAS  C:\Users\brian\AppData\Local\Temp\ccwE2E8f.s 			page 150


 6410 1366 98060000 		.4byte	.LASF206
 6411 136a 01       		.byte	0x1
 6412 136b 5F01     		.2byte	0x15f
 6413 136d B4000000 		.4byte	0xb4
 6414 1371 00000000 		.4byte	.LFB14
 6415 1375 42000000 		.4byte	.LFE14-.LFB14
 6416 1379 01       		.uleb128 0x1
 6417 137a 9C       		.byte	0x9c
 6418 137b E8130000 		.4byte	0x13e8
 6419 137f 18       		.uleb128 0x18
 6420 1380 756900   		.ascii	"ui\000"
 6421 1383 01       		.byte	0x1
 6422 1384 5F01     		.2byte	0x15f
 6423 1386 FB020000 		.4byte	0x2fb
 6424 138a B80C0000 		.4byte	.LLST62
 6425 138e 18       		.uleb128 0x18
 6426 138f 6D736700 		.ascii	"msg\000"
 6427 1393 01       		.byte	0x1
 6428 1394 5F01     		.2byte	0x15f
 6429 1396 B4000000 		.4byte	0xb4
 6430 139a 020D0000 		.4byte	.LLST63
 6431 139e 27       		.uleb128 0x27
 6432 139f 14000000 		.4byte	.LVL156
 6433 13a3 69100000 		.4byte	0x1069
 6434 13a7 1C       		.uleb128 0x1c
 6435 13a8 2C000000 		.4byte	.LVL157
 6436 13ac D90D0000 		.4byte	0xdd9
 6437 13b0 D2130000 		.4byte	0x13d2
 6438 13b4 1D       		.uleb128 0x1d
 6439 13b5 01       		.uleb128 0x1
 6440 13b6 50       		.byte	0x50
 6441 13b7 02       		.uleb128 0x2
 6442 13b8 74       		.byte	0x74
 6443 13b9 00       		.sleb128 0
 6444 13ba 1D       		.uleb128 0x1d
 6445 13bb 01       		.uleb128 0x1
 6446 13bc 52       		.byte	0x52
 6447 13bd 01       		.uleb128 0x1
 6448 13be 30       		.byte	0x30
 6449 13bf 1D       		.uleb128 0x1d
 6450 13c0 01       		.uleb128 0x1
 6451 13c1 53       		.byte	0x53
 6452 13c2 01       		.uleb128 0x1
 6453 13c3 31       		.byte	0x31
 6454 13c4 1D       		.uleb128 0x1d
 6455 13c5 02       		.uleb128 0x2
 6456 13c6 7D       		.byte	0x7d
 6457 13c7 00       		.sleb128 0
 6458 13c8 01       		.uleb128 0x1
 6459 13c9 31       		.byte	0x31
 6460 13ca 1D       		.uleb128 0x1d
 6461 13cb 02       		.uleb128 0x2
 6462 13cc 7D       		.byte	0x7d
 6463 13cd 04       		.sleb128 4
 6464 13ce 02       		.uleb128 0x2
 6465 13cf 74       		.byte	0x74
 6466 13d0 3C       		.sleb128 60
ARM GAS  C:\Users\brian\AppData\Local\Temp\ccwE2E8f.s 			page 151


 6467 13d1 00       		.byte	0
 6468 13d2 1E       		.uleb128 0x1e
 6469 13d3 3A000000 		.4byte	.LVL160
 6470 13d7 1F2B0000 		.4byte	0x2b1f
 6471 13db 1D       		.uleb128 0x1d
 6472 13dc 01       		.uleb128 0x1
 6473 13dd 50       		.byte	0x50
 6474 13de 02       		.uleb128 0x2
 6475 13df 74       		.byte	0x74
 6476 13e0 00       		.sleb128 0
 6477 13e1 1D       		.uleb128 0x1d
 6478 13e2 01       		.uleb128 0x1
 6479 13e3 52       		.byte	0x52
 6480 13e4 01       		.uleb128 0x1
 6481 13e5 30       		.byte	0x30
 6482 13e6 00       		.byte	0
 6483 13e7 00       		.byte	0
 6484 13e8 28       		.uleb128 0x28
 6485 13e9 9F050000 		.4byte	.LASF207
 6486 13ed 01       		.byte	0x1
 6487 13ee 7901     		.2byte	0x179
 6488 13f0 B4000000 		.4byte	0xb4
 6489 13f4 00000000 		.4byte	.LFB15
 6490 13f8 58000000 		.4byte	.LFE15-.LFB15
 6491 13fc 01       		.uleb128 0x1
 6492 13fd 9C       		.byte	0x9c
 6493 13fe 95140000 		.4byte	0x1495
 6494 1402 18       		.uleb128 0x18
 6495 1403 756900   		.ascii	"ui\000"
 6496 1406 01       		.byte	0x1
 6497 1407 7901     		.2byte	0x179
 6498 1409 FB020000 		.4byte	0x2fb
 6499 140d 550D0000 		.4byte	.LLST64
 6500 1411 18       		.uleb128 0x18
 6501 1412 6D736700 		.ascii	"msg\000"
 6502 1416 01       		.byte	0x1
 6503 1417 7901     		.2byte	0x179
 6504 1419 B4000000 		.4byte	0xb4
 6505 141d 730D0000 		.4byte	.LLST65
 6506 1421 20       		.uleb128 0x20
 6507 1422 81100000 		.4byte	.LASF183
 6508 1426 01       		.byte	0x1
 6509 1427 7B01     		.2byte	0x17b
 6510 1429 E0070000 		.4byte	0x7e0
 6511 142d 940D0000 		.4byte	.LLST66
 6512 1431 1C       		.uleb128 0x1c
 6513 1432 0C000000 		.4byte	.LVL164
 6514 1436 790D0000 		.4byte	0xd79
 6515 143a 45140000 		.4byte	0x1445
 6516 143e 1D       		.uleb128 0x1d
 6517 143f 01       		.uleb128 0x1
 6518 1440 50       		.byte	0x50
 6519 1441 02       		.uleb128 0x2
 6520 1442 75       		.byte	0x75
 6521 1443 00       		.sleb128 0
 6522 1444 00       		.byte	0
 6523 1445 1C       		.uleb128 0x1c
ARM GAS  C:\Users\brian\AppData\Local\Temp\ccwE2E8f.s 			page 152


 6524 1446 1E000000 		.4byte	.LVL166
 6525 144a 69100000 		.4byte	0x1069
 6526 144e 59140000 		.4byte	0x1459
 6527 1452 1D       		.uleb128 0x1d
 6528 1453 01       		.uleb128 0x1
 6529 1454 50       		.byte	0x50
 6530 1455 02       		.uleb128 0x2
 6531 1456 75       		.byte	0x75
 6532 1457 00       		.sleb128 0
 6533 1458 00       		.byte	0
 6534 1459 1C       		.uleb128 0x1c
 6535 145a 40000000 		.4byte	.LVL167
 6536 145e D90D0000 		.4byte	0xdd9
 6537 1462 7F140000 		.4byte	0x147f
 6538 1466 1D       		.uleb128 0x1d
 6539 1467 01       		.uleb128 0x1
 6540 1468 50       		.byte	0x50
 6541 1469 02       		.uleb128 0x2
 6542 146a 75       		.byte	0x75
 6543 146b 00       		.sleb128 0
 6544 146c 1D       		.uleb128 0x1d
 6545 146d 01       		.uleb128 0x1
 6546 146e 53       		.byte	0x53
 6547 146f 01       		.uleb128 0x1
 6548 1470 30       		.byte	0x30
 6549 1471 1D       		.uleb128 0x1d
 6550 1472 02       		.uleb128 0x2
 6551 1473 7D       		.byte	0x7d
 6552 1474 00       		.sleb128 0
 6553 1475 01       		.uleb128 0x1
 6554 1476 31       		.byte	0x31
 6555 1477 1D       		.uleb128 0x1d
 6556 1478 02       		.uleb128 0x2
 6557 1479 7D       		.byte	0x7d
 6558 147a 04       		.sleb128 4
 6559 147b 02       		.uleb128 0x2
 6560 147c 75       		.byte	0x75
 6561 147d 3C       		.sleb128 60
 6562 147e 00       		.byte	0
 6563 147f 1E       		.uleb128 0x1e
 6564 1480 50000000 		.4byte	.LVL170
 6565 1484 1F2B0000 		.4byte	0x2b1f
 6566 1488 1D       		.uleb128 0x1d
 6567 1489 01       		.uleb128 0x1
 6568 148a 50       		.byte	0x50
 6569 148b 02       		.uleb128 0x2
 6570 148c 75       		.byte	0x75
 6571 148d 00       		.sleb128 0
 6572 148e 1D       		.uleb128 0x1d
 6573 148f 01       		.uleb128 0x1
 6574 1490 52       		.byte	0x52
 6575 1491 01       		.uleb128 0x1
 6576 1492 30       		.byte	0x30
 6577 1493 00       		.byte	0
 6578 1494 00       		.byte	0
 6579 1495 28       		.uleb128 0x28
 6580 1496 42040000 		.4byte	.LASF208
ARM GAS  C:\Users\brian\AppData\Local\Temp\ccwE2E8f.s 			page 153


 6581 149a 01       		.byte	0x1
 6582 149b AE01     		.2byte	0x1ae
 6583 149d B4000000 		.4byte	0xb4
 6584 14a1 00000000 		.4byte	.LFB16
 6585 14a5 4C000000 		.4byte	.LFE16-.LFB16
 6586 14a9 01       		.uleb128 0x1
 6587 14aa 9C       		.byte	0x9c
 6588 14ab 31150000 		.4byte	0x1531
 6589 14af 18       		.uleb128 0x18
 6590 14b0 756900   		.ascii	"ui\000"
 6591 14b3 01       		.byte	0x1
 6592 14b4 AE01     		.2byte	0x1ae
 6593 14b6 FB020000 		.4byte	0x2fb
 6594 14ba C80D0000 		.4byte	.LLST67
 6595 14be 18       		.uleb128 0x18
 6596 14bf 6D736700 		.ascii	"msg\000"
 6597 14c3 01       		.byte	0x1
 6598 14c4 AE01     		.2byte	0x1ae
 6599 14c6 B4000000 		.4byte	0xb4
 6600 14ca 120E0000 		.4byte	.LLST68
 6601 14ce 29       		.uleb128 0x29
 6602 14cf 30000000 		.4byte	.LBB2
 6603 14d3 0C000000 		.4byte	.LBE2-.LBB2
 6604 14d7 EC140000 		.4byte	0x14ec
 6605 14db 20       		.uleb128 0x20
 6606 14dc 93040000 		.4byte	.LASF179
 6607 14e0 01       		.byte	0x1
 6608 14e1 BD01     		.2byte	0x1bd
 6609 14e3 98050000 		.4byte	0x598
 6610 14e7 650E0000 		.4byte	.LLST69
 6611 14eb 00       		.byte	0
 6612 14ec 27       		.uleb128 0x27
 6613 14ed 14000000 		.4byte	.LVL174
 6614 14f1 69100000 		.4byte	0x1069
 6615 14f5 1C       		.uleb128 0x1c
 6616 14f6 2C000000 		.4byte	.LVL175
 6617 14fa D90D0000 		.4byte	0xdd9
 6618 14fe 20150000 		.4byte	0x1520
 6619 1502 1D       		.uleb128 0x1d
 6620 1503 01       		.uleb128 0x1
 6621 1504 50       		.byte	0x50
 6622 1505 02       		.uleb128 0x2
 6623 1506 74       		.byte	0x74
 6624 1507 00       		.sleb128 0
 6625 1508 1D       		.uleb128 0x1d
 6626 1509 01       		.uleb128 0x1
 6627 150a 52       		.byte	0x52
 6628 150b 01       		.uleb128 0x1
 6629 150c 30       		.byte	0x30
 6630 150d 1D       		.uleb128 0x1d
 6631 150e 01       		.uleb128 0x1
 6632 150f 53       		.byte	0x53
 6633 1510 01       		.uleb128 0x1
 6634 1511 31       		.byte	0x31
 6635 1512 1D       		.uleb128 0x1d
 6636 1513 02       		.uleb128 0x2
 6637 1514 7D       		.byte	0x7d
ARM GAS  C:\Users\brian\AppData\Local\Temp\ccwE2E8f.s 			page 154


 6638 1515 00       		.sleb128 0
 6639 1516 01       		.uleb128 0x1
 6640 1517 31       		.byte	0x31
 6641 1518 1D       		.uleb128 0x1d
 6642 1519 02       		.uleb128 0x2
 6643 151a 7D       		.byte	0x7d
 6644 151b 04       		.sleb128 4
 6645 151c 02       		.uleb128 0x2
 6646 151d 74       		.byte	0x74
 6647 151e 3C       		.sleb128 60
 6648 151f 00       		.byte	0
 6649 1520 1E       		.uleb128 0x1e
 6650 1521 42000000 		.4byte	.LVL179
 6651 1525 2B2B0000 		.4byte	0x2b2b
 6652 1529 1D       		.uleb128 0x1d
 6653 152a 01       		.uleb128 0x1
 6654 152b 50       		.byte	0x50
 6655 152c 02       		.uleb128 0x2
 6656 152d 74       		.byte	0x74
 6657 152e 00       		.sleb128 0
 6658 152f 00       		.byte	0
 6659 1530 00       		.byte	0
 6660 1531 28       		.uleb128 0x28
 6661 1532 59070000 		.4byte	.LASF209
 6662 1536 01       		.byte	0x1
 6663 1537 CE01     		.2byte	0x1ce
 6664 1539 B4000000 		.4byte	0xb4
 6665 153d 00000000 		.4byte	.LFB17
 6666 1541 46000000 		.4byte	.LFE17-.LFB17
 6667 1545 01       		.uleb128 0x1
 6668 1546 9C       		.byte	0x9c
 6669 1547 D2150000 		.4byte	0x15d2
 6670 154b 18       		.uleb128 0x18
 6671 154c 756900   		.ascii	"ui\000"
 6672 154f 01       		.byte	0x1
 6673 1550 CE01     		.2byte	0x1ce
 6674 1552 FB020000 		.4byte	0x2fb
 6675 1556 780E0000 		.4byte	.LLST70
 6676 155a 18       		.uleb128 0x18
 6677 155b 6D736700 		.ascii	"msg\000"
 6678 155f 01       		.byte	0x1
 6679 1560 CE01     		.2byte	0x1ce
 6680 1562 B4000000 		.4byte	0xb4
 6681 1566 960E0000 		.4byte	.LLST71
 6682 156a 20       		.uleb128 0x20
 6683 156b 81100000 		.4byte	.LASF183
 6684 156f 01       		.byte	0x1
 6685 1570 D001     		.2byte	0x1d0
 6686 1572 E0070000 		.4byte	0x7e0
 6687 1576 B70E0000 		.4byte	.LLST72
 6688 157a 1C       		.uleb128 0x1c
 6689 157b 0A000000 		.4byte	.LVL183
 6690 157f 790D0000 		.4byte	0xd79
 6691 1583 8E150000 		.4byte	0x158e
 6692 1587 1D       		.uleb128 0x1d
 6693 1588 01       		.uleb128 0x1
 6694 1589 50       		.byte	0x50
ARM GAS  C:\Users\brian\AppData\Local\Temp\ccwE2E8f.s 			page 155


 6695 158a 02       		.uleb128 0x2
 6696 158b 75       		.byte	0x75
 6697 158c 00       		.sleb128 0
 6698 158d 00       		.byte	0
 6699 158e 1C       		.uleb128 0x1c
 6700 158f 1E000000 		.4byte	.LVL185
 6701 1593 A10D0000 		.4byte	0xda1
 6702 1597 A2150000 		.4byte	0x15a2
 6703 159b 1D       		.uleb128 0x1d
 6704 159c 01       		.uleb128 0x1
 6705 159d 50       		.byte	0x50
 6706 159e 02       		.uleb128 0x2
 6707 159f 75       		.byte	0x75
 6708 15a0 00       		.sleb128 0
 6709 15a1 00       		.byte	0
 6710 15a2 1C       		.uleb128 0x1c
 6711 15a3 30000000 		.4byte	.LVL186
 6712 15a7 F50E0000 		.4byte	0xef5
 6713 15ab BC150000 		.4byte	0x15bc
 6714 15af 1D       		.uleb128 0x1d
 6715 15b0 01       		.uleb128 0x1
 6716 15b1 50       		.byte	0x50
 6717 15b2 02       		.uleb128 0x2
 6718 15b3 75       		.byte	0x75
 6719 15b4 00       		.sleb128 0
 6720 15b5 1D       		.uleb128 0x1d
 6721 15b6 01       		.uleb128 0x1
 6722 15b7 53       		.byte	0x53
 6723 15b8 02       		.uleb128 0x2
 6724 15b9 75       		.byte	0x75
 6725 15ba 3C       		.sleb128 60
 6726 15bb 00       		.byte	0
 6727 15bc 1E       		.uleb128 0x1e
 6728 15bd 40000000 		.4byte	.LVL189
 6729 15c1 1F2B0000 		.4byte	0x2b1f
 6730 15c5 1D       		.uleb128 0x1d
 6731 15c6 01       		.uleb128 0x1
 6732 15c7 50       		.byte	0x50
 6733 15c8 02       		.uleb128 0x2
 6734 15c9 75       		.byte	0x75
 6735 15ca 00       		.sleb128 0
 6736 15cb 1D       		.uleb128 0x1d
 6737 15cc 01       		.uleb128 0x1
 6738 15cd 52       		.byte	0x52
 6739 15ce 01       		.uleb128 0x1
 6740 15cf 30       		.byte	0x30
 6741 15d0 00       		.byte	0
 6742 15d1 00       		.byte	0
 6743 15d2 28       		.uleb128 0x28
 6744 15d3 820C0000 		.4byte	.LASF210
 6745 15d7 01       		.byte	0x1
 6746 15d8 EA01     		.2byte	0x1ea
 6747 15da B4000000 		.4byte	0xb4
 6748 15de 00000000 		.4byte	.LFB18
 6749 15e2 48000000 		.4byte	.LFE18-.LFB18
 6750 15e6 01       		.uleb128 0x1
 6751 15e7 9C       		.byte	0x9c
ARM GAS  C:\Users\brian\AppData\Local\Temp\ccwE2E8f.s 			page 156


 6752 15e8 73160000 		.4byte	0x1673
 6753 15ec 18       		.uleb128 0x18
 6754 15ed 756900   		.ascii	"ui\000"
 6755 15f0 01       		.byte	0x1
 6756 15f1 EA01     		.2byte	0x1ea
 6757 15f3 FB020000 		.4byte	0x2fb
 6758 15f7 E00E0000 		.4byte	.LLST73
 6759 15fb 18       		.uleb128 0x18
 6760 15fc 6D736700 		.ascii	"msg\000"
 6761 1600 01       		.byte	0x1
 6762 1601 EA01     		.2byte	0x1ea
 6763 1603 B4000000 		.4byte	0xb4
 6764 1607 FE0E0000 		.4byte	.LLST74
 6765 160b 20       		.uleb128 0x20
 6766 160c 81100000 		.4byte	.LASF183
 6767 1610 01       		.byte	0x1
 6768 1611 EC01     		.2byte	0x1ec
 6769 1613 E0070000 		.4byte	0x7e0
 6770 1617 1F0F0000 		.4byte	.LLST75
 6771 161b 1C       		.uleb128 0x1c
 6772 161c 0A000000 		.4byte	.LVL193
 6773 1620 790D0000 		.4byte	0xd79
 6774 1624 2F160000 		.4byte	0x162f
 6775 1628 1D       		.uleb128 0x1d
 6776 1629 01       		.uleb128 0x1
 6777 162a 50       		.byte	0x50
 6778 162b 02       		.uleb128 0x2
 6779 162c 75       		.byte	0x75
 6780 162d 00       		.sleb128 0
 6781 162e 00       		.byte	0
 6782 162f 1C       		.uleb128 0x1c
 6783 1630 1E000000 		.4byte	.LVL195
 6784 1634 A10D0000 		.4byte	0xda1
 6785 1638 43160000 		.4byte	0x1643
 6786 163c 1D       		.uleb128 0x1d
 6787 163d 01       		.uleb128 0x1
 6788 163e 50       		.byte	0x50
 6789 163f 02       		.uleb128 0x2
 6790 1640 75       		.byte	0x75
 6791 1641 00       		.sleb128 0
 6792 1642 00       		.byte	0
 6793 1643 1C       		.uleb128 0x1c
 6794 1644 32000000 		.4byte	.LVL196
 6795 1648 A0100000 		.4byte	0x10a0
 6796 164c 5D160000 		.4byte	0x165d
 6797 1650 1D       		.uleb128 0x1d
 6798 1651 01       		.uleb128 0x1
 6799 1652 50       		.byte	0x50
 6800 1653 02       		.uleb128 0x2
 6801 1654 75       		.byte	0x75
 6802 1655 00       		.sleb128 0
 6803 1656 1D       		.uleb128 0x1d
 6804 1657 01       		.uleb128 0x1
 6805 1658 53       		.byte	0x53
 6806 1659 02       		.uleb128 0x2
 6807 165a 75       		.byte	0x75
 6808 165b 3C       		.sleb128 60
ARM GAS  C:\Users\brian\AppData\Local\Temp\ccwE2E8f.s 			page 157


 6809 165c 00       		.byte	0
 6810 165d 1E       		.uleb128 0x1e
 6811 165e 42000000 		.4byte	.LVL199
 6812 1662 1F2B0000 		.4byte	0x2b1f
 6813 1666 1D       		.uleb128 0x1d
 6814 1667 01       		.uleb128 0x1
 6815 1668 50       		.byte	0x50
 6816 1669 02       		.uleb128 0x2
 6817 166a 75       		.byte	0x75
 6818 166b 00       		.sleb128 0
 6819 166c 1D       		.uleb128 0x1d
 6820 166d 01       		.uleb128 0x1
 6821 166e 52       		.byte	0x52
 6822 166f 01       		.uleb128 0x1
 6823 1670 30       		.byte	0x30
 6824 1671 00       		.byte	0
 6825 1672 00       		.byte	0
 6826 1673 28       		.uleb128 0x28
 6827 1674 D4010000 		.4byte	.LASF211
 6828 1678 01       		.byte	0x1
 6829 1679 2602     		.2byte	0x226
 6830 167b B4000000 		.4byte	0xb4
 6831 167f 00000000 		.4byte	.LFB20
 6832 1683 2E000000 		.4byte	.LFE20-.LFB20
 6833 1687 01       		.uleb128 0x1
 6834 1688 9C       		.byte	0x9c
 6835 1689 F2160000 		.4byte	0x16f2
 6836 168d 18       		.uleb128 0x18
 6837 168e 756900   		.ascii	"ui\000"
 6838 1691 01       		.byte	0x1
 6839 1692 2602     		.2byte	0x226
 6840 1694 FB020000 		.4byte	0x2fb
 6841 1698 480F0000 		.4byte	.LLST76
 6842 169c 18       		.uleb128 0x18
 6843 169d 6D736700 		.ascii	"msg\000"
 6844 16a1 01       		.byte	0x1
 6845 16a2 2602     		.2byte	0x226
 6846 16a4 B4000000 		.4byte	0xb4
 6847 16a8 820F0000 		.4byte	.LLST77
 6848 16ac 22       		.uleb128 0x22
 6849 16ad 766D6D00 		.ascii	"vmm\000"
 6850 16b1 01       		.byte	0x1
 6851 16b2 2802     		.2byte	0x228
 6852 16b4 63100000 		.4byte	0x1063
 6853 16b8 BC0F0000 		.4byte	.LLST78
 6854 16bc 20       		.uleb128 0x20
 6855 16bd 93040000 		.4byte	.LASF179
 6856 16c1 01       		.byte	0x1
 6857 16c2 2902     		.2byte	0x229
 6858 16c4 98050000 		.4byte	0x598
 6859 16c8 E90F0000 		.4byte	.LLST79
 6860 16cc 2A       		.uleb128 0x2a
 6861 16cd 6D696E00 		.ascii	"min\000"
 6862 16d1 01       		.byte	0x1
 6863 16d2 2A02     		.2byte	0x22a
 6864 16d4 B4000000 		.4byte	0xb4
 6865 16d8 01       		.uleb128 0x1
ARM GAS  C:\Users\brian\AppData\Local\Temp\ccwE2E8f.s 			page 158


 6866 16d9 55       		.byte	0x55
 6867 16da 2A       		.uleb128 0x2a
 6868 16db 6D617800 		.ascii	"max\000"
 6869 16df 01       		.byte	0x1
 6870 16e0 2B02     		.2byte	0x22b
 6871 16e2 B4000000 		.4byte	0xb4
 6872 16e6 01       		.uleb128 0x1
 6873 16e7 54       		.byte	0x54
 6874 16e8 27       		.uleb128 0x27
 6875 16e9 1A000000 		.4byte	.LVL207
 6876 16ed 830F0000 		.4byte	0xf83
 6877 16f1 00       		.byte	0
 6878 16f2 28       		.uleb128 0x28
 6879 16f3 610E0000 		.4byte	.LASF212
 6880 16f7 01       		.byte	0x1
 6881 16f8 4502     		.2byte	0x245
 6882 16fa B4000000 		.4byte	0xb4
 6883 16fe 00000000 		.4byte	.LFB21
 6884 1702 74000000 		.4byte	.LFE21-.LFB21
 6885 1706 01       		.uleb128 0x1
 6886 1707 9C       		.byte	0x9c
 6887 1708 73170000 		.4byte	0x1773
 6888 170c 18       		.uleb128 0x18
 6889 170d 756900   		.ascii	"ui\000"
 6890 1710 01       		.byte	0x1
 6891 1711 4502     		.2byte	0x245
 6892 1713 FB020000 		.4byte	0x2fb
 6893 1717 07100000 		.4byte	.LLST80
 6894 171b 18       		.uleb128 0x18
 6895 171c 6D736700 		.ascii	"msg\000"
 6896 1720 01       		.byte	0x1
 6897 1721 4502     		.2byte	0x245
 6898 1723 B4000000 		.4byte	0xb4
 6899 1727 8C100000 		.4byte	.LLST81
 6900 172b 22       		.uleb128 0x22
 6901 172c 766D6D00 		.ascii	"vmm\000"
 6902 1730 01       		.byte	0x1
 6903 1731 4702     		.2byte	0x247
 6904 1733 63100000 		.4byte	0x1063
 6905 1737 AD100000 		.4byte	.LLST82
 6906 173b 20       		.uleb128 0x20
 6907 173c 93040000 		.4byte	.LASF179
 6908 1740 01       		.byte	0x1
 6909 1741 4802     		.2byte	0x248
 6910 1743 98050000 		.4byte	0x598
 6911 1747 53110000 		.4byte	.LLST83
 6912 174b 2A       		.uleb128 0x2a
 6913 174c 6D696E00 		.ascii	"min\000"
 6914 1750 01       		.byte	0x1
 6915 1751 4902     		.2byte	0x249
 6916 1753 B4000000 		.4byte	0xb4
 6917 1757 01       		.uleb128 0x1
 6918 1758 54       		.byte	0x54
 6919 1759 22       		.uleb128 0x22
 6920 175a 6D617800 		.ascii	"max\000"
 6921 175e 01       		.byte	0x1
 6922 175f 4A02     		.2byte	0x24a
ARM GAS  C:\Users\brian\AppData\Local\Temp\ccwE2E8f.s 			page 159


 6923 1761 B4000000 		.4byte	0xb4
 6924 1765 71110000 		.4byte	.LLST84
 6925 1769 27       		.uleb128 0x27
 6926 176a 24000000 		.4byte	.LVL218
 6927 176e 830F0000 		.4byte	0xf83
 6928 1772 00       		.byte	0
 6929 1773 28       		.uleb128 0x28
 6930 1774 B6010000 		.4byte	.LASF213
 6931 1778 01       		.byte	0x1
 6932 1779 9702     		.2byte	0x297
 6933 177b B4000000 		.4byte	0xb4
 6934 177f 00000000 		.4byte	.LFB23
 6935 1783 2E000000 		.4byte	.LFE23-.LFB23
 6936 1787 01       		.uleb128 0x1
 6937 1788 9C       		.byte	0x9c
 6938 1789 F2170000 		.4byte	0x17f2
 6939 178d 18       		.uleb128 0x18
 6940 178e 756900   		.ascii	"ui\000"
 6941 1791 01       		.byte	0x1
 6942 1792 9702     		.2byte	0x297
 6943 1794 FB020000 		.4byte	0x2fb
 6944 1798 AC110000 		.4byte	.LLST85
 6945 179c 18       		.uleb128 0x18
 6946 179d 6D736700 		.ascii	"msg\000"
 6947 17a1 01       		.byte	0x1
 6948 17a2 9702     		.2byte	0x297
 6949 17a4 B4000000 		.4byte	0xb4
 6950 17a8 E6110000 		.4byte	.LLST86
 6951 17ac 22       		.uleb128 0x22
 6952 17ad 766D6D00 		.ascii	"vmm\000"
 6953 17b1 01       		.byte	0x1
 6954 17b2 9902     		.2byte	0x299
 6955 17b4 63100000 		.4byte	0x1063
 6956 17b8 20120000 		.4byte	.LLST87
 6957 17bc 20       		.uleb128 0x20
 6958 17bd 93040000 		.4byte	.LASF179
 6959 17c1 01       		.byte	0x1
 6960 17c2 9A02     		.2byte	0x29a
 6961 17c4 98050000 		.4byte	0x598
 6962 17c8 4D120000 		.4byte	.LLST88
 6963 17cc 2A       		.uleb128 0x2a
 6964 17cd 6D696E00 		.ascii	"min\000"
 6965 17d1 01       		.byte	0x1
 6966 17d2 9B02     		.2byte	0x29b
 6967 17d4 B4000000 		.4byte	0xb4
 6968 17d8 01       		.uleb128 0x1
 6969 17d9 55       		.byte	0x55
 6970 17da 2A       		.uleb128 0x2a
 6971 17db 6D617800 		.ascii	"max\000"
 6972 17df 01       		.byte	0x1
 6973 17e0 9C02     		.2byte	0x29c
 6974 17e2 B4000000 		.4byte	0xb4
 6975 17e6 01       		.uleb128 0x1
 6976 17e7 54       		.byte	0x54
 6977 17e8 27       		.uleb128 0x27
 6978 17e9 1A000000 		.4byte	.LVL239
 6979 17ed F3110000 		.4byte	0x11f3
ARM GAS  C:\Users\brian\AppData\Local\Temp\ccwE2E8f.s 			page 160


 6980 17f1 00       		.byte	0
 6981 17f2 28       		.uleb128 0x28
 6982 17f3 430E0000 		.4byte	.LASF214
 6983 17f7 01       		.byte	0x1
 6984 17f8 B602     		.2byte	0x2b6
 6985 17fa B4000000 		.4byte	0xb4
 6986 17fe 00000000 		.4byte	.LFB24
 6987 1802 74000000 		.4byte	.LFE24-.LFB24
 6988 1806 01       		.uleb128 0x1
 6989 1807 9C       		.byte	0x9c
 6990 1808 73180000 		.4byte	0x1873
 6991 180c 18       		.uleb128 0x18
 6992 180d 756900   		.ascii	"ui\000"
 6993 1810 01       		.byte	0x1
 6994 1811 B602     		.2byte	0x2b6
 6995 1813 FB020000 		.4byte	0x2fb
 6996 1817 6B120000 		.4byte	.LLST89
 6997 181b 18       		.uleb128 0x18
 6998 181c 6D736700 		.ascii	"msg\000"
 6999 1820 01       		.byte	0x1
 7000 1821 B602     		.2byte	0x2b6
 7001 1823 B4000000 		.4byte	0xb4
 7002 1827 F0120000 		.4byte	.LLST90
 7003 182b 22       		.uleb128 0x22
 7004 182c 766D6D00 		.ascii	"vmm\000"
 7005 1830 01       		.byte	0x1
 7006 1831 B802     		.2byte	0x2b8
 7007 1833 63100000 		.4byte	0x1063
 7008 1837 11130000 		.4byte	.LLST91
 7009 183b 20       		.uleb128 0x20
 7010 183c 93040000 		.4byte	.LASF179
 7011 1840 01       		.byte	0x1
 7012 1841 B902     		.2byte	0x2b9
 7013 1843 98050000 		.4byte	0x598
 7014 1847 B7130000 		.4byte	.LLST92
 7015 184b 2A       		.uleb128 0x2a
 7016 184c 6D696E00 		.ascii	"min\000"
 7017 1850 01       		.byte	0x1
 7018 1851 BA02     		.2byte	0x2ba
 7019 1853 B4000000 		.4byte	0xb4
 7020 1857 01       		.uleb128 0x1
 7021 1858 54       		.byte	0x54
 7022 1859 22       		.uleb128 0x22
 7023 185a 6D617800 		.ascii	"max\000"
 7024 185e 01       		.byte	0x1
 7025 185f BB02     		.2byte	0x2bb
 7026 1861 B4000000 		.4byte	0xb4
 7027 1865 D5130000 		.4byte	.LLST93
 7028 1869 27       		.uleb128 0x27
 7029 186a 24000000 		.4byte	.LVL250
 7030 186e F3110000 		.4byte	0x11f3
 7031 1872 00       		.byte	0
 7032 1873 28       		.uleb128 0x28
 7033 1874 E20F0000 		.4byte	.LASF215
 7034 1878 01       		.byte	0x1
 7035 1879 FB02     		.2byte	0x2fb
 7036 187b B4000000 		.4byte	0xb4
ARM GAS  C:\Users\brian\AppData\Local\Temp\ccwE2E8f.s 			page 161


 7037 187f 00000000 		.4byte	.LFB26
 7038 1883 A0000000 		.4byte	.LFE26-.LFB26
 7039 1887 01       		.uleb128 0x1
 7040 1888 9C       		.byte	0x9c
 7041 1889 33190000 		.4byte	0x1933
 7042 188d 18       		.uleb128 0x18
 7043 188e 756900   		.ascii	"ui\000"
 7044 1891 01       		.byte	0x1
 7045 1892 FB02     		.2byte	0x2fb
 7046 1894 FB020000 		.4byte	0x2fb
 7047 1898 10140000 		.4byte	.LLST94
 7048 189c 18       		.uleb128 0x18
 7049 189d 6D736700 		.ascii	"msg\000"
 7050 18a1 01       		.byte	0x1
 7051 18a2 FB02     		.2byte	0x2fb
 7052 18a4 B4000000 		.4byte	0xb4
 7053 18a8 2E140000 		.4byte	.LLST95
 7054 18ac 20       		.uleb128 0x20
 7055 18ad 81100000 		.4byte	.LASF183
 7056 18b1 01       		.byte	0x1
 7057 18b2 FF02     		.2byte	0x2ff
 7058 18b4 E0070000 		.4byte	0x7e0
 7059 18b8 4F140000 		.4byte	.LLST96
 7060 18bc 21       		.uleb128 0x21
 7061 18bd 93040000 		.4byte	.LASF179
 7062 18c1 01       		.byte	0x1
 7063 18c2 0003     		.2byte	0x300
 7064 18c4 98050000 		.4byte	0x598
 7065 18c8 01       		.uleb128 0x1
 7066 18c9 55       		.byte	0x55
 7067 18ca 2A       		.uleb128 0x2a
 7068 18cb 62756600 		.ascii	"buf\000"
 7069 18cf 01       		.byte	0x1
 7070 18d0 0103     		.2byte	0x301
 7071 18d2 33190000 		.4byte	0x1933
 7072 18d6 02       		.uleb128 0x2
 7073 18d7 91       		.byte	0x91
 7074 18d8 60       		.sleb128 -32
 7075 18d9 1C       		.uleb128 0x1c
 7076 18da 0C000000 		.4byte	.LVL267
 7077 18de 790D0000 		.4byte	0xd79
 7078 18e2 ED180000 		.4byte	0x18ed
 7079 18e6 1D       		.uleb128 0x1d
 7080 18e7 01       		.uleb128 0x1
 7081 18e8 50       		.byte	0x50
 7082 18e9 02       		.uleb128 0x2
 7083 18ea 76       		.byte	0x76
 7084 18eb 00       		.sleb128 0
 7085 18ec 00       		.byte	0
 7086 18ed 1C       		.uleb128 0x1c
 7087 18ee 32000000 		.4byte	.LVL271
 7088 18f2 370B0000 		.4byte	0xb37
 7089 18f6 01190000 		.4byte	0x1901
 7090 18fa 1D       		.uleb128 0x1d
 7091 18fb 01       		.uleb128 0x1
 7092 18fc 50       		.byte	0x50
 7093 18fd 02       		.uleb128 0x2
ARM GAS  C:\Users\brian\AppData\Local\Temp\ccwE2E8f.s 			page 162


 7094 18fe 74       		.byte	0x74
 7095 18ff 00       		.sleb128 0
 7096 1900 00       		.byte	0
 7097 1901 1C       		.uleb128 0x1c
 7098 1902 50000000 		.4byte	.LVL272
 7099 1906 F50E0000 		.4byte	0xef5
 7100 190a 20190000 		.4byte	0x1920
 7101 190e 1D       		.uleb128 0x1d
 7102 190f 01       		.uleb128 0x1
 7103 1910 50       		.byte	0x50
 7104 1911 02       		.uleb128 0x2
 7105 1912 76       		.byte	0x76
 7106 1913 00       		.sleb128 0
 7107 1914 1D       		.uleb128 0x1d
 7108 1915 01       		.uleb128 0x1
 7109 1916 52       		.byte	0x52
 7110 1917 01       		.uleb128 0x1
 7111 1918 31       		.byte	0x31
 7112 1919 1D       		.uleb128 0x1d
 7113 191a 01       		.uleb128 0x1
 7114 191b 53       		.byte	0x53
 7115 191c 02       		.uleb128 0x2
 7116 191d 7D       		.byte	0x7d
 7117 191e 00       		.sleb128 0
 7118 191f 00       		.byte	0
 7119 1920 27       		.uleb128 0x27
 7120 1921 78000000 		.4byte	.LVL277
 7121 1925 370B0000 		.4byte	0xb37
 7122 1929 27       		.uleb128 0x27
 7123 192a 92000000 		.4byte	.LVL280
 7124 192e 370B0000 		.4byte	0xb37
 7125 1932 00       		.byte	0
 7126 1933 0D       		.uleb128 0xd
 7127 1934 E4000000 		.4byte	0xe4
 7128 1938 43190000 		.4byte	0x1943
 7129 193c 0E       		.uleb128 0xe
 7130 193d D5000000 		.4byte	0xd5
 7131 1941 05       		.byte	0x5
 7132 1942 00       		.byte	0
 7133 1943 28       		.uleb128 0x28
 7134 1944 C9080000 		.4byte	.LASF216
 7135 1948 01       		.byte	0x1
 7136 1949 5003     		.2byte	0x350
 7137 194b B4000000 		.4byte	0xb4
 7138 194f 00000000 		.4byte	.LFB27
 7139 1953 4C000000 		.4byte	.LFE27-.LFB27
 7140 1957 01       		.uleb128 0x1
 7141 1958 9C       		.byte	0x9c
 7142 1959 D5190000 		.4byte	0x19d5
 7143 195d 18       		.uleb128 0x18
 7144 195e 756900   		.ascii	"ui\000"
 7145 1961 01       		.byte	0x1
 7146 1962 5003     		.2byte	0x350
 7147 1964 FB020000 		.4byte	0x2fb
 7148 1968 C5140000 		.4byte	.LLST97
 7149 196c 18       		.uleb128 0x18
 7150 196d 6D736700 		.ascii	"msg\000"
ARM GAS  C:\Users\brian\AppData\Local\Temp\ccwE2E8f.s 			page 163


 7151 1971 01       		.byte	0x1
 7152 1972 5003     		.2byte	0x350
 7153 1974 B4000000 		.4byte	0xb4
 7154 1978 F9140000 		.4byte	.LLST98
 7155 197c 21       		.uleb128 0x21
 7156 197d 93040000 		.4byte	.LASF179
 7157 1981 01       		.byte	0x1
 7158 1982 5303     		.2byte	0x353
 7159 1984 98050000 		.4byte	0x598
 7160 1988 01       		.uleb128 0x1
 7161 1989 55       		.byte	0x55
 7162 198a 27       		.uleb128 0x27
 7163 198b 18000000 		.4byte	.LVL286
 7164 198f 372B0000 		.4byte	0x2b37
 7165 1993 1C       		.uleb128 0x1c
 7166 1994 24000000 		.4byte	.LVL287
 7167 1998 372B0000 		.4byte	0x2b37
 7168 199c AC190000 		.4byte	0x19ac
 7169 19a0 1D       		.uleb128 0x1d
 7170 19a1 01       		.uleb128 0x1
 7171 19a2 50       		.byte	0x50
 7172 19a3 02       		.uleb128 0x2
 7173 19a4 74       		.byte	0x74
 7174 19a5 00       		.sleb128 0
 7175 19a6 1D       		.uleb128 0x1d
 7176 19a7 01       		.uleb128 0x1
 7177 19a8 51       		.byte	0x51
 7178 19a9 01       		.uleb128 0x1
 7179 19aa 30       		.byte	0x30
 7180 19ab 00       		.byte	0
 7181 19ac 1C       		.uleb128 0x1c
 7182 19ad 34000000 		.4byte	.LVL288
 7183 19b1 F50E0000 		.4byte	0xef5
 7184 19b5 CB190000 		.4byte	0x19cb
 7185 19b9 1D       		.uleb128 0x1d
 7186 19ba 01       		.uleb128 0x1
 7187 19bb 50       		.byte	0x50
 7188 19bc 02       		.uleb128 0x2
 7189 19bd 74       		.byte	0x74
 7190 19be 00       		.sleb128 0
 7191 19bf 1D       		.uleb128 0x1d
 7192 19c0 01       		.uleb128 0x1
 7193 19c1 52       		.byte	0x52
 7194 19c2 01       		.uleb128 0x1
 7195 19c3 31       		.byte	0x31
 7196 19c4 1D       		.uleb128 0x1d
 7197 19c5 01       		.uleb128 0x1
 7198 19c6 53       		.byte	0x53
 7199 19c7 02       		.uleb128 0x2
 7200 19c8 74       		.byte	0x74
 7201 19c9 3C       		.sleb128 60
 7202 19ca 00       		.byte	0
 7203 19cb 27       		.uleb128 0x27
 7204 19cc 42000000 		.4byte	.LVL291
 7205 19d0 372B0000 		.4byte	0x2b37
 7206 19d4 00       		.byte	0
 7207 19d5 28       		.uleb128 0x28
ARM GAS  C:\Users\brian\AppData\Local\Temp\ccwE2E8f.s 			page 164


 7208 19d6 BB0E0000 		.4byte	.LASF217
 7209 19da 01       		.byte	0x1
 7210 19db 7603     		.2byte	0x376
 7211 19dd B4000000 		.4byte	0xb4
 7212 19e1 00000000 		.4byte	.LFB28
 7213 19e5 96000000 		.4byte	.LFE28-.LFB28
 7214 19e9 01       		.uleb128 0x1
 7215 19ea 9C       		.byte	0x9c
 7216 19eb 821A0000 		.4byte	0x1a82
 7217 19ef 18       		.uleb128 0x18
 7218 19f0 756900   		.ascii	"ui\000"
 7219 19f3 01       		.byte	0x1
 7220 19f4 7603     		.2byte	0x376
 7221 19f6 FB020000 		.4byte	0x2fb
 7222 19fa 33150000 		.4byte	.LLST99
 7223 19fe 18       		.uleb128 0x18
 7224 19ff 6D736700 		.ascii	"msg\000"
 7225 1a03 01       		.byte	0x1
 7226 1a04 7603     		.2byte	0x376
 7227 1a06 B4000000 		.4byte	0xb4
 7228 1a0a A9150000 		.4byte	.LLST100
 7229 1a0e 21       		.uleb128 0x21
 7230 1a0f 93040000 		.4byte	.LASF179
 7231 1a13 01       		.byte	0x1
 7232 1a14 7903     		.2byte	0x379
 7233 1a16 98050000 		.4byte	0x598
 7234 1a1a 01       		.uleb128 0x1
 7235 1a1b 55       		.byte	0x55
 7236 1a1c 27       		.uleb128 0x27
 7237 1a1d 22000000 		.4byte	.LVL295
 7238 1a21 372B0000 		.4byte	0x2b37
 7239 1a25 1C       		.uleb128 0x1c
 7240 1a26 2E000000 		.4byte	.LVL296
 7241 1a2a 372B0000 		.4byte	0x2b37
 7242 1a2e 3E1A0000 		.4byte	0x1a3e
 7243 1a32 1D       		.uleb128 0x1d
 7244 1a33 01       		.uleb128 0x1
 7245 1a34 50       		.byte	0x50
 7246 1a35 02       		.uleb128 0x2
 7247 1a36 74       		.byte	0x74
 7248 1a37 00       		.sleb128 0
 7249 1a38 1D       		.uleb128 0x1d
 7250 1a39 01       		.uleb128 0x1
 7251 1a3a 51       		.byte	0x51
 7252 1a3b 01       		.uleb128 0x1
 7253 1a3c 30       		.byte	0x30
 7254 1a3d 00       		.byte	0
 7255 1a3e 1C       		.uleb128 0x1c
 7256 1a3f 3E000000 		.4byte	.LVL297
 7257 1a43 F50E0000 		.4byte	0xef5
 7258 1a47 5D1A0000 		.4byte	0x1a5d
 7259 1a4b 1D       		.uleb128 0x1d
 7260 1a4c 01       		.uleb128 0x1
 7261 1a4d 50       		.byte	0x50
 7262 1a4e 02       		.uleb128 0x2
 7263 1a4f 74       		.byte	0x74
 7264 1a50 00       		.sleb128 0
ARM GAS  C:\Users\brian\AppData\Local\Temp\ccwE2E8f.s 			page 165


 7265 1a51 1D       		.uleb128 0x1d
 7266 1a52 01       		.uleb128 0x1
 7267 1a53 52       		.byte	0x52
 7268 1a54 01       		.uleb128 0x1
 7269 1a55 31       		.byte	0x31
 7270 1a56 1D       		.uleb128 0x1d
 7271 1a57 01       		.uleb128 0x1
 7272 1a58 53       		.byte	0x53
 7273 1a59 02       		.uleb128 0x2
 7274 1a5a 74       		.byte	0x74
 7275 1a5b 3C       		.sleb128 60
 7276 1a5c 00       		.byte	0
 7277 1a5d 1C       		.uleb128 0x1c
 7278 1a5e 68000000 		.4byte	.LVL302
 7279 1a62 372B0000 		.4byte	0x2b37
 7280 1a66 711A0000 		.4byte	0x1a71
 7281 1a6a 1D       		.uleb128 0x1d
 7282 1a6b 01       		.uleb128 0x1
 7283 1a6c 50       		.byte	0x50
 7284 1a6d 02       		.uleb128 0x2
 7285 1a6e 74       		.byte	0x74
 7286 1a6f 00       		.sleb128 0
 7287 1a70 00       		.byte	0
 7288 1a71 1E       		.uleb128 0x1e
 7289 1a72 82000000 		.4byte	.LVL305
 7290 1a76 432B0000 		.4byte	0x2b43
 7291 1a7a 1D       		.uleb128 0x1d
 7292 1a7b 01       		.uleb128 0x1
 7293 1a7c 50       		.byte	0x50
 7294 1a7d 02       		.uleb128 0x2
 7295 1a7e 74       		.byte	0x74
 7296 1a7f 00       		.sleb128 0
 7297 1a80 00       		.byte	0
 7298 1a81 00       		.byte	0
 7299 1a82 28       		.uleb128 0x28
 7300 1a83 CF000000 		.4byte	.LASF218
 7301 1a87 01       		.byte	0x1
 7302 1a88 C803     		.2byte	0x3c8
 7303 1a8a B4000000 		.4byte	0xb4
 7304 1a8e 00000000 		.4byte	.LFB29
 7305 1a92 FC000000 		.4byte	.LFE29-.LFB29
 7306 1a96 01       		.uleb128 0x1
 7307 1a97 9C       		.byte	0x9c
 7308 1a98 7B1C0000 		.4byte	0x1c7b
 7309 1a9c 18       		.uleb128 0x18
 7310 1a9d 756900   		.ascii	"ui\000"
 7311 1aa0 01       		.byte	0x1
 7312 1aa1 C803     		.2byte	0x3c8
 7313 1aa3 FB020000 		.4byte	0x2fb
 7314 1aa7 CA150000 		.4byte	.LLST101
 7315 1aab 18       		.uleb128 0x18
 7316 1aac 6D736700 		.ascii	"msg\000"
 7317 1ab0 01       		.byte	0x1
 7318 1ab1 C803     		.2byte	0x3c8
 7319 1ab3 B4000000 		.4byte	0xb4
 7320 1ab7 E8150000 		.4byte	.LLST102
 7321 1abb 20       		.uleb128 0x20
ARM GAS  C:\Users\brian\AppData\Local\Temp\ccwE2E8f.s 			page 166


 7322 1abc 81100000 		.4byte	.LASF183
 7323 1ac0 01       		.byte	0x1
 7324 1ac1 CA03     		.2byte	0x3ca
 7325 1ac3 E0070000 		.4byte	0x7e0
 7326 1ac7 09160000 		.4byte	.LLST103
 7327 1acb 20       		.uleb128 0x20
 7328 1acc 23100000 		.4byte	.LASF193
 7329 1ad0 01       		.byte	0x1
 7330 1ad1 CB03     		.2byte	0x3cb
 7331 1ad3 B4050000 		.4byte	0x5b4
 7332 1ad7 48160000 		.4byte	.LLST104
 7333 1adb 20       		.uleb128 0x20
 7334 1adc 93040000 		.4byte	.LASF179
 7335 1ae0 01       		.byte	0x1
 7336 1ae1 CC03     		.2byte	0x3cc
 7337 1ae3 98050000 		.4byte	0x598
 7338 1ae7 73160000 		.4byte	.LLST105
 7339 1aeb 29       		.uleb128 0x29
 7340 1aec 38000000 		.4byte	.LBB3
 7341 1af0 AA000000 		.4byte	.LBE3-.LBB3
 7342 1af4 6A1C0000 		.4byte	0x1c6a
 7343 1af8 22       		.uleb128 0x22
 7344 1af9 7700     		.ascii	"w\000"
 7345 1afb 01       		.byte	0x1
 7346 1afc D703     		.2byte	0x3d7
 7347 1afe B4050000 		.4byte	0x5b4
 7348 1b02 91160000 		.4byte	.LLST106
 7349 1b06 22       		.uleb128 0x22
 7350 1b07 6100     		.ascii	"a\000"
 7351 1b09 01       		.byte	0x1
 7352 1b0a D803     		.2byte	0x3d8
 7353 1b0c B4050000 		.4byte	0x5b4
 7354 1b10 C7160000 		.4byte	.LLST107
 7355 1b14 1C       		.uleb128 0x1c
 7356 1b15 48000000 		.4byte	.LVL316
 7357 1b19 A10D0000 		.4byte	0xda1
 7358 1b1d 281B0000 		.4byte	0x1b28
 7359 1b21 1D       		.uleb128 0x1d
 7360 1b22 01       		.uleb128 0x1
 7361 1b23 50       		.byte	0x50
 7362 1b24 02       		.uleb128 0x2
 7363 1b25 74       		.byte	0x74
 7364 1b26 00       		.sleb128 0
 7365 1b27 00       		.byte	0
 7366 1b28 1C       		.uleb128 0x1c
 7367 1b29 50000000 		.4byte	.LVL317
 7368 1b2d 510D0000 		.4byte	0xd51
 7369 1b31 3C1B0000 		.4byte	0x1b3c
 7370 1b35 1D       		.uleb128 0x1d
 7371 1b36 01       		.uleb128 0x1
 7372 1b37 50       		.byte	0x50
 7373 1b38 02       		.uleb128 0x2
 7374 1b39 74       		.byte	0x74
 7375 1b3a 00       		.sleb128 0
 7376 1b3b 00       		.byte	0
 7377 1b3c 1C       		.uleb128 0x1c
 7378 1b3d 60000000 		.4byte	.LVL318
ARM GAS  C:\Users\brian\AppData\Local\Temp\ccwE2E8f.s 			page 167


 7379 1b41 600B0000 		.4byte	0xb60
 7380 1b45 621B0000 		.4byte	0x1b62
 7381 1b49 1D       		.uleb128 0x1d
 7382 1b4a 01       		.uleb128 0x1
 7383 1b4b 50       		.byte	0x50
 7384 1b4c 02       		.uleb128 0x2
 7385 1b4d 76       		.byte	0x76
 7386 1b4e 00       		.sleb128 0
 7387 1b4f 1D       		.uleb128 0x1d
 7388 1b50 01       		.uleb128 0x1
 7389 1b51 51       		.byte	0x51
 7390 1b52 02       		.uleb128 0x2
 7391 1b53 78       		.byte	0x78
 7392 1b54 00       		.sleb128 0
 7393 1b55 1D       		.uleb128 0x1d
 7394 1b56 01       		.uleb128 0x1
 7395 1b57 53       		.byte	0x53
 7396 1b58 02       		.uleb128 0x2
 7397 1b59 75       		.byte	0x75
 7398 1b5a 00       		.sleb128 0
 7399 1b5b 1D       		.uleb128 0x1d
 7400 1b5c 02       		.uleb128 0x2
 7401 1b5d 7D       		.byte	0x7d
 7402 1b5e 00       		.sleb128 0
 7403 1b5f 01       		.uleb128 0x1
 7404 1b60 31       		.byte	0x31
 7405 1b61 00       		.byte	0
 7406 1b62 1C       		.uleb128 0x1c
 7407 1b63 68000000 		.4byte	.LVL321
 7408 1b67 A10D0000 		.4byte	0xda1
 7409 1b6b 761B0000 		.4byte	0x1b76
 7410 1b6f 1D       		.uleb128 0x1d
 7411 1b70 01       		.uleb128 0x1
 7412 1b71 50       		.byte	0x50
 7413 1b72 02       		.uleb128 0x2
 7414 1b73 74       		.byte	0x74
 7415 1b74 00       		.sleb128 0
 7416 1b75 00       		.byte	0
 7417 1b76 1C       		.uleb128 0x1c
 7418 1b77 70000000 		.4byte	.LVL322
 7419 1b7b 510D0000 		.4byte	0xd51
 7420 1b7f 8A1B0000 		.4byte	0x1b8a
 7421 1b83 1D       		.uleb128 0x1d
 7422 1b84 01       		.uleb128 0x1
 7423 1b85 50       		.byte	0x50
 7424 1b86 02       		.uleb128 0x2
 7425 1b87 74       		.byte	0x74
 7426 1b88 00       		.sleb128 0
 7427 1b89 00       		.byte	0
 7428 1b8a 1C       		.uleb128 0x1c
 7429 1b8b 80000000 		.4byte	.LVL323
 7430 1b8f 600B0000 		.4byte	0xb60
 7431 1b93 B01B0000 		.4byte	0x1bb0
 7432 1b97 1D       		.uleb128 0x1d
 7433 1b98 01       		.uleb128 0x1
 7434 1b99 50       		.byte	0x50
 7435 1b9a 02       		.uleb128 0x2
ARM GAS  C:\Users\brian\AppData\Local\Temp\ccwE2E8f.s 			page 168


 7436 1b9b 76       		.byte	0x76
 7437 1b9c 00       		.sleb128 0
 7438 1b9d 1D       		.uleb128 0x1d
 7439 1b9e 01       		.uleb128 0x1
 7440 1b9f 51       		.byte	0x51
 7441 1ba0 02       		.uleb128 0x2
 7442 1ba1 78       		.byte	0x78
 7443 1ba2 00       		.sleb128 0
 7444 1ba3 1D       		.uleb128 0x1d
 7445 1ba4 01       		.uleb128 0x1
 7446 1ba5 53       		.byte	0x53
 7447 1ba6 02       		.uleb128 0x2
 7448 1ba7 75       		.byte	0x75
 7449 1ba8 00       		.sleb128 0
 7450 1ba9 1D       		.uleb128 0x1d
 7451 1baa 02       		.uleb128 0x2
 7452 1bab 7D       		.byte	0x7d
 7453 1bac 00       		.sleb128 0
 7454 1bad 01       		.uleb128 0x1
 7455 1bae 30       		.byte	0x30
 7456 1baf 00       		.byte	0
 7457 1bb0 1C       		.uleb128 0x1c
 7458 1bb1 92000000 		.4byte	.LVL324
 7459 1bb5 4F2B0000 		.4byte	0x2b4f
 7460 1bb9 CA1B0000 		.4byte	0x1bca
 7461 1bbd 1D       		.uleb128 0x1d
 7462 1bbe 01       		.uleb128 0x1
 7463 1bbf 50       		.byte	0x50
 7464 1bc0 02       		.uleb128 0x2
 7465 1bc1 76       		.byte	0x76
 7466 1bc2 00       		.sleb128 0
 7467 1bc3 1D       		.uleb128 0x1d
 7468 1bc4 01       		.uleb128 0x1
 7469 1bc5 51       		.byte	0x51
 7470 1bc6 02       		.uleb128 0x2
 7471 1bc7 7A       		.byte	0x7a
 7472 1bc8 00       		.sleb128 0
 7473 1bc9 00       		.byte	0
 7474 1bca 1C       		.uleb128 0x1c
 7475 1bcb 9E000000 		.4byte	.LVL328
 7476 1bcf A10D0000 		.4byte	0xda1
 7477 1bd3 DE1B0000 		.4byte	0x1bde
 7478 1bd7 1D       		.uleb128 0x1d
 7479 1bd8 01       		.uleb128 0x1
 7480 1bd9 50       		.byte	0x50
 7481 1bda 02       		.uleb128 0x2
 7482 1bdb 74       		.byte	0x74
 7483 1bdc 00       		.sleb128 0
 7484 1bdd 00       		.byte	0
 7485 1bde 1C       		.uleb128 0x1c
 7486 1bdf AA000000 		.4byte	.LVL329
 7487 1be3 510D0000 		.4byte	0xd51
 7488 1be7 F21B0000 		.4byte	0x1bf2
 7489 1beb 1D       		.uleb128 0x1d
 7490 1bec 01       		.uleb128 0x1
 7491 1bed 50       		.byte	0x50
 7492 1bee 02       		.uleb128 0x2
ARM GAS  C:\Users\brian\AppData\Local\Temp\ccwE2E8f.s 			page 169


 7493 1bef 74       		.byte	0x74
 7494 1bf0 00       		.sleb128 0
 7495 1bf1 00       		.byte	0
 7496 1bf2 1C       		.uleb128 0x1c
 7497 1bf3 B6000000 		.4byte	.LVL330
 7498 1bf7 5B2B0000 		.4byte	0x2b5b
 7499 1bfb 121C0000 		.4byte	0x1c12
 7500 1bff 1D       		.uleb128 0x1d
 7501 1c00 01       		.uleb128 0x1
 7502 1c01 50       		.byte	0x50
 7503 1c02 02       		.uleb128 0x2
 7504 1c03 76       		.byte	0x76
 7505 1c04 00       		.sleb128 0
 7506 1c05 1D       		.uleb128 0x1d
 7507 1c06 01       		.uleb128 0x1
 7508 1c07 51       		.byte	0x51
 7509 1c08 02       		.uleb128 0x2
 7510 1c09 78       		.byte	0x78
 7511 1c0a 00       		.sleb128 0
 7512 1c0b 1D       		.uleb128 0x1d
 7513 1c0c 01       		.uleb128 0x1
 7514 1c0d 53       		.byte	0x53
 7515 1c0e 02       		.uleb128 0x2
 7516 1c0f 7A       		.byte	0x7a
 7517 1c10 00       		.sleb128 0
 7518 1c11 00       		.byte	0
 7519 1c12 1C       		.uleb128 0x1c
 7520 1c13 C2000000 		.4byte	.LVL333
 7521 1c17 A10D0000 		.4byte	0xda1
 7522 1c1b 261C0000 		.4byte	0x1c26
 7523 1c1f 1D       		.uleb128 0x1d
 7524 1c20 01       		.uleb128 0x1
 7525 1c21 50       		.byte	0x50
 7526 1c22 02       		.uleb128 0x2
 7527 1c23 74       		.byte	0x74
 7528 1c24 00       		.sleb128 0
 7529 1c25 00       		.byte	0
 7530 1c26 1C       		.uleb128 0x1c
 7531 1c27 CA000000 		.4byte	.LVL334
 7532 1c2b 510D0000 		.4byte	0xd51
 7533 1c2f 3A1C0000 		.4byte	0x1c3a
 7534 1c33 1D       		.uleb128 0x1d
 7535 1c34 01       		.uleb128 0x1
 7536 1c35 50       		.byte	0x50
 7537 1c36 02       		.uleb128 0x2
 7538 1c37 74       		.byte	0x74
 7539 1c38 00       		.sleb128 0
 7540 1c39 00       		.byte	0
 7541 1c3a 1E       		.uleb128 0x1e
 7542 1c3b E2000000 		.4byte	.LVL336
 7543 1c3f 672B0000 		.4byte	0x2b67
 7544 1c43 1D       		.uleb128 0x1d
 7545 1c44 01       		.uleb128 0x1
 7546 1c45 50       		.byte	0x50
 7547 1c46 02       		.uleb128 0x2
 7548 1c47 76       		.byte	0x76
 7549 1c48 00       		.sleb128 0
ARM GAS  C:\Users\brian\AppData\Local\Temp\ccwE2E8f.s 			page 170


 7550 1c49 1D       		.uleb128 0x1d
 7551 1c4a 01       		.uleb128 0x1
 7552 1c4b 51       		.byte	0x51
 7553 1c4c 02       		.uleb128 0x2
 7554 1c4d 78       		.byte	0x78
 7555 1c4e 00       		.sleb128 0
 7556 1c4f 1D       		.uleb128 0x1d
 7557 1c50 01       		.uleb128 0x1
 7558 1c51 53       		.byte	0x53
 7559 1c52 02       		.uleb128 0x2
 7560 1c53 77       		.byte	0x77
 7561 1c54 00       		.sleb128 0
 7562 1c55 1D       		.uleb128 0x1d
 7563 1c56 02       		.uleb128 0x2
 7564 1c57 7D       		.byte	0x7d
 7565 1c58 00       		.sleb128 0
 7566 1c59 02       		.uleb128 0x2
 7567 1c5a 75       		.byte	0x75
 7568 1c5b 00       		.sleb128 0
 7569 1c5c 1D       		.uleb128 0x1d
 7570 1c5d 02       		.uleb128 0x2
 7571 1c5e 7D       		.byte	0x7d
 7572 1c5f 04       		.sleb128 4
 7573 1c60 01       		.uleb128 0x1
 7574 1c61 31       		.byte	0x31
 7575 1c62 1D       		.uleb128 0x1d
 7576 1c63 02       		.uleb128 0x2
 7577 1c64 7D       		.byte	0x7d
 7578 1c65 08       		.sleb128 8
 7579 1c66 01       		.uleb128 0x1
 7580 1c67 31       		.byte	0x31
 7581 1c68 00       		.byte	0
 7582 1c69 00       		.byte	0
 7583 1c6a 1E       		.uleb128 0x1e
 7584 1c6b 0E000000 		.4byte	.LVL310
 7585 1c6f 790D0000 		.4byte	0xd79
 7586 1c73 1D       		.uleb128 0x1d
 7587 1c74 01       		.uleb128 0x1
 7588 1c75 50       		.byte	0x50
 7589 1c76 02       		.uleb128 0x2
 7590 1c77 74       		.byte	0x74
 7591 1c78 00       		.sleb128 0
 7592 1c79 00       		.byte	0
 7593 1c7a 00       		.byte	0
 7594 1c7b 28       		.uleb128 0x28
 7595 1c7c 590B0000 		.4byte	.LASF219
 7596 1c80 01       		.byte	0x1
 7597 1c81 FF03     		.2byte	0x3ff
 7598 1c83 B4000000 		.4byte	0xb4
 7599 1c87 00000000 		.4byte	.LFB30
 7600 1c8b EE000000 		.4byte	.LFE30-.LFB30
 7601 1c8f 01       		.uleb128 0x1
 7602 1c90 9C       		.byte	0x9c
 7603 1c91 741E0000 		.4byte	0x1e74
 7604 1c95 18       		.uleb128 0x18
 7605 1c96 756900   		.ascii	"ui\000"
 7606 1c99 01       		.byte	0x1
ARM GAS  C:\Users\brian\AppData\Local\Temp\ccwE2E8f.s 			page 171


 7607 1c9a FF03     		.2byte	0x3ff
 7608 1c9c FB020000 		.4byte	0x2fb
 7609 1ca0 F2160000 		.4byte	.LLST108
 7610 1ca4 18       		.uleb128 0x18
 7611 1ca5 6D736700 		.ascii	"msg\000"
 7612 1ca9 01       		.byte	0x1
 7613 1caa FF03     		.2byte	0x3ff
 7614 1cac B4000000 		.4byte	0xb4
 7615 1cb0 10170000 		.4byte	.LLST109
 7616 1cb4 20       		.uleb128 0x20
 7617 1cb5 81100000 		.4byte	.LASF183
 7618 1cb9 01       		.byte	0x1
 7619 1cba 0104     		.2byte	0x401
 7620 1cbc E0070000 		.4byte	0x7e0
 7621 1cc0 31170000 		.4byte	.LLST110
 7622 1cc4 20       		.uleb128 0x20
 7623 1cc5 23100000 		.4byte	.LASF193
 7624 1cc9 01       		.byte	0x1
 7625 1cca 0204     		.2byte	0x402
 7626 1ccc B4050000 		.4byte	0x5b4
 7627 1cd0 70170000 		.4byte	.LLST111
 7628 1cd4 20       		.uleb128 0x20
 7629 1cd5 93040000 		.4byte	.LASF179
 7630 1cd9 01       		.byte	0x1
 7631 1cda 0304     		.2byte	0x403
 7632 1cdc 98050000 		.4byte	0x598
 7633 1ce0 9B170000 		.4byte	.LLST112
 7634 1ce4 29       		.uleb128 0x29
 7635 1ce5 2E000000 		.4byte	.LBB4
 7636 1ce9 B0000000 		.4byte	.LBE4-.LBB4
 7637 1ced 631E0000 		.4byte	0x1e63
 7638 1cf1 22       		.uleb128 0x22
 7639 1cf2 7700     		.ascii	"w\000"
 7640 1cf4 01       		.byte	0x1
 7641 1cf5 0D04     		.2byte	0x40d
 7642 1cf7 B4050000 		.4byte	0x5b4
 7643 1cfb D7170000 		.4byte	.LLST113
 7644 1cff 22       		.uleb128 0x22
 7645 1d00 6100     		.ascii	"a\000"
 7646 1d02 01       		.byte	0x1
 7647 1d03 0E04     		.2byte	0x40e
 7648 1d05 B4050000 		.4byte	0x5b4
 7649 1d09 0D180000 		.4byte	.LLST114
 7650 1d0d 1C       		.uleb128 0x1c
 7651 1d0e 44000000 		.4byte	.LVL346
 7652 1d12 A10D0000 		.4byte	0xda1
 7653 1d16 211D0000 		.4byte	0x1d21
 7654 1d1a 1D       		.uleb128 0x1d
 7655 1d1b 01       		.uleb128 0x1
 7656 1d1c 50       		.byte	0x50
 7657 1d1d 02       		.uleb128 0x2
 7658 1d1e 74       		.byte	0x74
 7659 1d1f 00       		.sleb128 0
 7660 1d20 00       		.byte	0
 7661 1d21 1C       		.uleb128 0x1c
 7662 1d22 4C000000 		.4byte	.LVL347
 7663 1d26 510D0000 		.4byte	0xd51
ARM GAS  C:\Users\brian\AppData\Local\Temp\ccwE2E8f.s 			page 172


 7664 1d2a 351D0000 		.4byte	0x1d35
 7665 1d2e 1D       		.uleb128 0x1d
 7666 1d2f 01       		.uleb128 0x1
 7667 1d30 50       		.byte	0x50
 7668 1d31 02       		.uleb128 0x2
 7669 1d32 74       		.byte	0x74
 7670 1d33 00       		.sleb128 0
 7671 1d34 00       		.byte	0
 7672 1d35 1C       		.uleb128 0x1c
 7673 1d36 5C000000 		.4byte	.LVL348
 7674 1d3a 600B0000 		.4byte	0xb60
 7675 1d3e 5B1D0000 		.4byte	0x1d5b
 7676 1d42 1D       		.uleb128 0x1d
 7677 1d43 01       		.uleb128 0x1
 7678 1d44 50       		.byte	0x50
 7679 1d45 02       		.uleb128 0x2
 7680 1d46 76       		.byte	0x76
 7681 1d47 00       		.sleb128 0
 7682 1d48 1D       		.uleb128 0x1d
 7683 1d49 01       		.uleb128 0x1
 7684 1d4a 51       		.byte	0x51
 7685 1d4b 02       		.uleb128 0x2
 7686 1d4c 78       		.byte	0x78
 7687 1d4d 00       		.sleb128 0
 7688 1d4e 1D       		.uleb128 0x1d
 7689 1d4f 01       		.uleb128 0x1
 7690 1d50 53       		.byte	0x53
 7691 1d51 02       		.uleb128 0x2
 7692 1d52 75       		.byte	0x75
 7693 1d53 00       		.sleb128 0
 7694 1d54 1D       		.uleb128 0x1d
 7695 1d55 02       		.uleb128 0x2
 7696 1d56 7D       		.byte	0x7d
 7697 1d57 00       		.sleb128 0
 7698 1d58 01       		.uleb128 0x1
 7699 1d59 31       		.byte	0x31
 7700 1d5a 00       		.byte	0
 7701 1d5b 1C       		.uleb128 0x1c
 7702 1d5c 64000000 		.4byte	.LVL351
 7703 1d60 A10D0000 		.4byte	0xda1
 7704 1d64 6F1D0000 		.4byte	0x1d6f
 7705 1d68 1D       		.uleb128 0x1d
 7706 1d69 01       		.uleb128 0x1
 7707 1d6a 50       		.byte	0x50
 7708 1d6b 02       		.uleb128 0x2
 7709 1d6c 74       		.byte	0x74
 7710 1d6d 00       		.sleb128 0
 7711 1d6e 00       		.byte	0
 7712 1d6f 1C       		.uleb128 0x1c
 7713 1d70 6C000000 		.4byte	.LVL352
 7714 1d74 510D0000 		.4byte	0xd51
 7715 1d78 831D0000 		.4byte	0x1d83
 7716 1d7c 1D       		.uleb128 0x1d
 7717 1d7d 01       		.uleb128 0x1
 7718 1d7e 50       		.byte	0x50
 7719 1d7f 02       		.uleb128 0x2
 7720 1d80 74       		.byte	0x74
ARM GAS  C:\Users\brian\AppData\Local\Temp\ccwE2E8f.s 			page 173


 7721 1d81 00       		.sleb128 0
 7722 1d82 00       		.byte	0
 7723 1d83 1C       		.uleb128 0x1c
 7724 1d84 7C000000 		.4byte	.LVL353
 7725 1d88 600B0000 		.4byte	0xb60
 7726 1d8c A91D0000 		.4byte	0x1da9
 7727 1d90 1D       		.uleb128 0x1d
 7728 1d91 01       		.uleb128 0x1
 7729 1d92 50       		.byte	0x50
 7730 1d93 02       		.uleb128 0x2
 7731 1d94 76       		.byte	0x76
 7732 1d95 00       		.sleb128 0
 7733 1d96 1D       		.uleb128 0x1d
 7734 1d97 01       		.uleb128 0x1
 7735 1d98 51       		.byte	0x51
 7736 1d99 02       		.uleb128 0x2
 7737 1d9a 78       		.byte	0x78
 7738 1d9b 00       		.sleb128 0
 7739 1d9c 1D       		.uleb128 0x1d
 7740 1d9d 01       		.uleb128 0x1
 7741 1d9e 53       		.byte	0x53
 7742 1d9f 02       		.uleb128 0x2
 7743 1da0 75       		.byte	0x75
 7744 1da1 00       		.sleb128 0
 7745 1da2 1D       		.uleb128 0x1d
 7746 1da3 02       		.uleb128 0x2
 7747 1da4 7D       		.byte	0x7d
 7748 1da5 00       		.sleb128 0
 7749 1da6 01       		.uleb128 0x1
 7750 1da7 30       		.byte	0x30
 7751 1da8 00       		.byte	0
 7752 1da9 1C       		.uleb128 0x1c
 7753 1daa 8E000000 		.4byte	.LVL354
 7754 1dae 4F2B0000 		.4byte	0x2b4f
 7755 1db2 C31D0000 		.4byte	0x1dc3
 7756 1db6 1D       		.uleb128 0x1d
 7757 1db7 01       		.uleb128 0x1
 7758 1db8 50       		.byte	0x50
 7759 1db9 02       		.uleb128 0x2
 7760 1dba 76       		.byte	0x76
 7761 1dbb 00       		.sleb128 0
 7762 1dbc 1D       		.uleb128 0x1d
 7763 1dbd 01       		.uleb128 0x1
 7764 1dbe 51       		.byte	0x51
 7765 1dbf 02       		.uleb128 0x2
 7766 1dc0 7A       		.byte	0x7a
 7767 1dc1 00       		.sleb128 0
 7768 1dc2 00       		.byte	0
 7769 1dc3 1C       		.uleb128 0x1c
 7770 1dc4 9A000000 		.4byte	.LVL358
 7771 1dc8 A10D0000 		.4byte	0xda1
 7772 1dcc D71D0000 		.4byte	0x1dd7
 7773 1dd0 1D       		.uleb128 0x1d
 7774 1dd1 01       		.uleb128 0x1
 7775 1dd2 50       		.byte	0x50
 7776 1dd3 02       		.uleb128 0x2
 7777 1dd4 74       		.byte	0x74
ARM GAS  C:\Users\brian\AppData\Local\Temp\ccwE2E8f.s 			page 174


 7778 1dd5 00       		.sleb128 0
 7779 1dd6 00       		.byte	0
 7780 1dd7 1C       		.uleb128 0x1c
 7781 1dd8 A6000000 		.4byte	.LVL359
 7782 1ddc 510D0000 		.4byte	0xd51
 7783 1de0 EB1D0000 		.4byte	0x1deb
 7784 1de4 1D       		.uleb128 0x1d
 7785 1de5 01       		.uleb128 0x1
 7786 1de6 50       		.byte	0x50
 7787 1de7 02       		.uleb128 0x2
 7788 1de8 74       		.byte	0x74
 7789 1de9 00       		.sleb128 0
 7790 1dea 00       		.byte	0
 7791 1deb 1C       		.uleb128 0x1c
 7792 1dec B2000000 		.4byte	.LVL360
 7793 1df0 5B2B0000 		.4byte	0x2b5b
 7794 1df4 0B1E0000 		.4byte	0x1e0b
 7795 1df8 1D       		.uleb128 0x1d
 7796 1df9 01       		.uleb128 0x1
 7797 1dfa 50       		.byte	0x50
 7798 1dfb 02       		.uleb128 0x2
 7799 1dfc 76       		.byte	0x76
 7800 1dfd 00       		.sleb128 0
 7801 1dfe 1D       		.uleb128 0x1d
 7802 1dff 01       		.uleb128 0x1
 7803 1e00 51       		.byte	0x51
 7804 1e01 02       		.uleb128 0x2
 7805 1e02 78       		.byte	0x78
 7806 1e03 00       		.sleb128 0
 7807 1e04 1D       		.uleb128 0x1d
 7808 1e05 01       		.uleb128 0x1
 7809 1e06 53       		.byte	0x53
 7810 1e07 02       		.uleb128 0x2
 7811 1e08 7A       		.byte	0x7a
 7812 1e09 00       		.sleb128 0
 7813 1e0a 00       		.byte	0
 7814 1e0b 1C       		.uleb128 0x1c
 7815 1e0c BE000000 		.4byte	.LVL363
 7816 1e10 A10D0000 		.4byte	0xda1
 7817 1e14 1F1E0000 		.4byte	0x1e1f
 7818 1e18 1D       		.uleb128 0x1d
 7819 1e19 01       		.uleb128 0x1
 7820 1e1a 50       		.byte	0x50
 7821 1e1b 02       		.uleb128 0x2
 7822 1e1c 74       		.byte	0x74
 7823 1e1d 00       		.sleb128 0
 7824 1e1e 00       		.byte	0
 7825 1e1f 1C       		.uleb128 0x1c
 7826 1e20 C6000000 		.4byte	.LVL364
 7827 1e24 510D0000 		.4byte	0xd51
 7828 1e28 331E0000 		.4byte	0x1e33
 7829 1e2c 1D       		.uleb128 0x1d
 7830 1e2d 01       		.uleb128 0x1
 7831 1e2e 50       		.byte	0x50
 7832 1e2f 02       		.uleb128 0x2
 7833 1e30 74       		.byte	0x74
 7834 1e31 00       		.sleb128 0
ARM GAS  C:\Users\brian\AppData\Local\Temp\ccwE2E8f.s 			page 175


 7835 1e32 00       		.byte	0
 7836 1e33 1E       		.uleb128 0x1e
 7837 1e34 DE000000 		.4byte	.LVL366
 7838 1e38 672B0000 		.4byte	0x2b67
 7839 1e3c 1D       		.uleb128 0x1d
 7840 1e3d 01       		.uleb128 0x1
 7841 1e3e 50       		.byte	0x50
 7842 1e3f 02       		.uleb128 0x2
 7843 1e40 76       		.byte	0x76
 7844 1e41 00       		.sleb128 0
 7845 1e42 1D       		.uleb128 0x1d
 7846 1e43 01       		.uleb128 0x1
 7847 1e44 51       		.byte	0x51
 7848 1e45 02       		.uleb128 0x2
 7849 1e46 78       		.byte	0x78
 7850 1e47 00       		.sleb128 0
 7851 1e48 1D       		.uleb128 0x1d
 7852 1e49 01       		.uleb128 0x1
 7853 1e4a 53       		.byte	0x53
 7854 1e4b 02       		.uleb128 0x2
 7855 1e4c 77       		.byte	0x77
 7856 1e4d 00       		.sleb128 0
 7857 1e4e 1D       		.uleb128 0x1d
 7858 1e4f 02       		.uleb128 0x2
 7859 1e50 7D       		.byte	0x7d
 7860 1e51 00       		.sleb128 0
 7861 1e52 02       		.uleb128 0x2
 7862 1e53 75       		.byte	0x75
 7863 1e54 00       		.sleb128 0
 7864 1e55 1D       		.uleb128 0x1d
 7865 1e56 02       		.uleb128 0x2
 7866 1e57 7D       		.byte	0x7d
 7867 1e58 04       		.sleb128 4
 7868 1e59 01       		.uleb128 0x1
 7869 1e5a 31       		.byte	0x31
 7870 1e5b 1D       		.uleb128 0x1d
 7871 1e5c 02       		.uleb128 0x2
 7872 1e5d 7D       		.byte	0x7d
 7873 1e5e 08       		.sleb128 8
 7874 1e5f 01       		.uleb128 0x1
 7875 1e60 31       		.byte	0x31
 7876 1e61 00       		.byte	0
 7877 1e62 00       		.byte	0
 7878 1e63 1E       		.uleb128 0x1e
 7879 1e64 0E000000 		.4byte	.LVL340
 7880 1e68 790D0000 		.4byte	0xd79
 7881 1e6c 1D       		.uleb128 0x1d
 7882 1e6d 01       		.uleb128 0x1
 7883 1e6e 50       		.byte	0x50
 7884 1e6f 02       		.uleb128 0x2
 7885 1e70 74       		.byte	0x74
 7886 1e71 00       		.sleb128 0
 7887 1e72 00       		.byte	0
 7888 1e73 00       		.byte	0
 7889 1e74 28       		.uleb128 0x28
 7890 1e75 C90D0000 		.4byte	.LASF220
 7891 1e79 01       		.byte	0x1
ARM GAS  C:\Users\brian\AppData\Local\Temp\ccwE2E8f.s 			page 176


 7892 1e7a 3304     		.2byte	0x433
 7893 1e7c B4000000 		.4byte	0xb4
 7894 1e80 00000000 		.4byte	.LFB31
 7895 1e84 48000000 		.4byte	.LFE31-.LFB31
 7896 1e88 01       		.uleb128 0x1
 7897 1e89 9C       		.byte	0x9c
 7898 1e8a 1B1F0000 		.4byte	0x1f1b
 7899 1e8e 18       		.uleb128 0x18
 7900 1e8f 756900   		.ascii	"ui\000"
 7901 1e92 01       		.byte	0x1
 7902 1e93 3304     		.2byte	0x433
 7903 1e95 FB020000 		.4byte	0x2fb
 7904 1e99 38180000 		.4byte	.LLST115
 7905 1e9d 18       		.uleb128 0x18
 7906 1e9e 6D736700 		.ascii	"msg\000"
 7907 1ea2 01       		.byte	0x1
 7908 1ea3 3304     		.2byte	0x433
 7909 1ea5 B4000000 		.4byte	0xb4
 7910 1ea9 6C180000 		.4byte	.LLST116
 7911 1ead 21       		.uleb128 0x21
 7912 1eae 93040000 		.4byte	.LASF179
 7913 1eb2 01       		.byte	0x1
 7914 1eb3 3504     		.2byte	0x435
 7915 1eb5 98050000 		.4byte	0x598
 7916 1eb9 01       		.uleb128 0x1
 7917 1eba 55       		.byte	0x55
 7918 1ebb 27       		.uleb128 0x27
 7919 1ebc 18000000 		.4byte	.LVL372
 7920 1ec0 372B0000 		.4byte	0x2b37
 7921 1ec4 1C       		.uleb128 0x1c
 7922 1ec5 24000000 		.4byte	.LVL373
 7923 1ec9 372B0000 		.4byte	0x2b37
 7924 1ecd DD1E0000 		.4byte	0x1edd
 7925 1ed1 1D       		.uleb128 0x1d
 7926 1ed2 01       		.uleb128 0x1
 7927 1ed3 50       		.byte	0x50
 7928 1ed4 02       		.uleb128 0x2
 7929 1ed5 74       		.byte	0x74
 7930 1ed6 00       		.sleb128 0
 7931 1ed7 1D       		.uleb128 0x1d
 7932 1ed8 01       		.uleb128 0x1
 7933 1ed9 51       		.byte	0x51
 7934 1eda 01       		.uleb128 0x1
 7935 1edb 30       		.byte	0x30
 7936 1edc 00       		.byte	0
 7937 1edd 1C       		.uleb128 0x1c
 7938 1ede 32000000 		.4byte	.LVL374
 7939 1ee2 F50E0000 		.4byte	0xef5
 7940 1ee6 011F0000 		.4byte	0x1f01
 7941 1eea 1D       		.uleb128 0x1d
 7942 1eeb 01       		.uleb128 0x1
 7943 1eec 50       		.byte	0x50
 7944 1eed 02       		.uleb128 0x2
 7945 1eee 74       		.byte	0x74
 7946 1eef 00       		.sleb128 0
 7947 1ef0 1D       		.uleb128 0x1d
 7948 1ef1 01       		.uleb128 0x1
ARM GAS  C:\Users\brian\AppData\Local\Temp\ccwE2E8f.s 			page 177


 7949 1ef2 51       		.byte	0x51
 7950 1ef3 01       		.uleb128 0x1
 7951 1ef4 30       		.byte	0x30
 7952 1ef5 1D       		.uleb128 0x1d
 7953 1ef6 01       		.uleb128 0x1
 7954 1ef7 52       		.byte	0x52
 7955 1ef8 01       		.uleb128 0x1
 7956 1ef9 31       		.byte	0x31
 7957 1efa 1D       		.uleb128 0x1d
 7958 1efb 01       		.uleb128 0x1
 7959 1efc 53       		.byte	0x53
 7960 1efd 02       		.uleb128 0x2
 7961 1efe 74       		.byte	0x74
 7962 1eff 3C       		.sleb128 60
 7963 1f00 00       		.byte	0
 7964 1f01 27       		.uleb128 0x27
 7965 1f02 38000000 		.4byte	.LVL376
 7966 1f06 732B0000 		.4byte	0x2b73
 7967 1f0a 1E       		.uleb128 0x1e
 7968 1f0b 44000000 		.4byte	.LVL377
 7969 1f0f 1F2B0000 		.4byte	0x2b1f
 7970 1f13 1D       		.uleb128 0x1d
 7971 1f14 01       		.uleb128 0x1
 7972 1f15 50       		.byte	0x50
 7973 1f16 02       		.uleb128 0x2
 7974 1f17 74       		.byte	0x74
 7975 1f18 00       		.sleb128 0
 7976 1f19 00       		.byte	0
 7977 1f1a 00       		.byte	0
 7978 1f1b 28       		.uleb128 0x28
 7979 1f1c BB0C0000 		.4byte	.LASF221
 7980 1f20 01       		.byte	0x1
 7981 1f21 5704     		.2byte	0x457
 7982 1f23 B4000000 		.4byte	0xb4
 7983 1f27 00000000 		.4byte	.LFB32
 7984 1f2b 72000000 		.4byte	.LFE32-.LFB32
 7985 1f2f 01       		.uleb128 0x1
 7986 1f30 9C       		.byte	0x9c
 7987 1f31 D51F0000 		.4byte	0x1fd5
 7988 1f35 18       		.uleb128 0x18
 7989 1f36 756900   		.ascii	"ui\000"
 7990 1f39 01       		.byte	0x1
 7991 1f3a 5704     		.2byte	0x457
 7992 1f3c FB020000 		.4byte	0x2fb
 7993 1f40 A6180000 		.4byte	.LLST117
 7994 1f44 18       		.uleb128 0x18
 7995 1f45 6D736700 		.ascii	"msg\000"
 7996 1f49 01       		.byte	0x1
 7997 1f4a 5704     		.2byte	0x457
 7998 1f4c B4000000 		.4byte	0xb4
 7999 1f50 C4180000 		.4byte	.LLST118
 8000 1f54 20       		.uleb128 0x20
 8001 1f55 93040000 		.4byte	.LASF179
 8002 1f59 01       		.byte	0x1
 8003 1f5a 5904     		.2byte	0x459
 8004 1f5c 98050000 		.4byte	0x598
 8005 1f60 54190000 		.4byte	.LLST119
ARM GAS  C:\Users\brian\AppData\Local\Temp\ccwE2E8f.s 			page 178


 8006 1f64 22       		.uleb128 0x22
 8007 1f65 61726700 		.ascii	"arg\000"
 8008 1f69 01       		.byte	0x1
 8009 1f6a 5A04     		.2byte	0x45a
 8010 1f6c B4000000 		.4byte	0xb4
 8011 1f70 E5190000 		.4byte	.LLST120
 8012 1f74 1C       		.uleb128 0x1c
 8013 1f75 3A000000 		.4byte	.LVL385
 8014 1f79 7F2B0000 		.4byte	0x2b7f
 8015 1f7d 881F0000 		.4byte	0x1f88
 8016 1f81 1D       		.uleb128 0x1d
 8017 1f82 01       		.uleb128 0x1
 8018 1f83 50       		.byte	0x50
 8019 1f84 02       		.uleb128 0x2
 8020 1f85 74       		.byte	0x74
 8021 1f86 00       		.sleb128 0
 8022 1f87 00       		.byte	0
 8023 1f88 1C       		.uleb128 0x1c
 8024 1f89 46000000 		.4byte	.LVL388
 8025 1f8d F10A0000 		.4byte	0xaf1
 8026 1f91 9C1F0000 		.4byte	0x1f9c
 8027 1f95 1D       		.uleb128 0x1d
 8028 1f96 01       		.uleb128 0x1
 8029 1f97 50       		.byte	0x50
 8030 1f98 02       		.uleb128 0x2
 8031 1f99 74       		.byte	0x74
 8032 1f9a 00       		.sleb128 0
 8033 1f9b 00       		.byte	0
 8034 1f9c 1C       		.uleb128 0x1c
 8035 1f9d 56000000 		.4byte	.LVL393
 8036 1fa1 E32A0000 		.4byte	0x2ae3
 8037 1fa5 B01F0000 		.4byte	0x1fb0
 8038 1fa9 1D       		.uleb128 0x1d
 8039 1faa 01       		.uleb128 0x1
 8040 1fab 50       		.byte	0x50
 8041 1fac 02       		.uleb128 0x2
 8042 1fad 74       		.byte	0x74
 8043 1fae 00       		.sleb128 0
 8044 1faf 00       		.byte	0
 8045 1fb0 1C       		.uleb128 0x1c
 8046 1fb1 60000000 		.4byte	.LVL396
 8047 1fb5 F10A0000 		.4byte	0xaf1
 8048 1fb9 C41F0000 		.4byte	0x1fc4
 8049 1fbd 1D       		.uleb128 0x1d
 8050 1fbe 01       		.uleb128 0x1
 8051 1fbf 50       		.byte	0x50
 8052 1fc0 02       		.uleb128 0x2
 8053 1fc1 74       		.byte	0x74
 8054 1fc2 00       		.sleb128 0
 8055 1fc3 00       		.byte	0
 8056 1fc4 1E       		.uleb128 0x1e
 8057 1fc5 68000000 		.4byte	.LVL399
 8058 1fc9 F10A0000 		.4byte	0xaf1
 8059 1fcd 1D       		.uleb128 0x1d
 8060 1fce 01       		.uleb128 0x1
 8061 1fcf 50       		.byte	0x50
 8062 1fd0 02       		.uleb128 0x2
ARM GAS  C:\Users\brian\AppData\Local\Temp\ccwE2E8f.s 			page 179


 8063 1fd1 74       		.byte	0x74
 8064 1fd2 00       		.sleb128 0
 8065 1fd3 00       		.byte	0
 8066 1fd4 00       		.byte	0
 8067 1fd5 28       		.uleb128 0x28
 8068 1fd6 54080000 		.4byte	.LASF222
 8069 1fda 01       		.byte	0x1
 8070 1fdb 8204     		.2byte	0x482
 8071 1fdd B4000000 		.4byte	0xb4
 8072 1fe1 00000000 		.4byte	.LFB33
 8073 1fe5 C6000000 		.4byte	.LFE33-.LFB33
 8074 1fe9 01       		.uleb128 0x1
 8075 1fea 9C       		.byte	0x9c
 8076 1feb 9D210000 		.4byte	0x219d
 8077 1fef 18       		.uleb128 0x18
 8078 1ff0 756900   		.ascii	"ui\000"
 8079 1ff3 01       		.byte	0x1
 8080 1ff4 8204     		.2byte	0x482
 8081 1ff6 FB020000 		.4byte	0x2fb
 8082 1ffa 601A0000 		.4byte	.LLST121
 8083 1ffe 18       		.uleb128 0x18
 8084 1fff 6D736700 		.ascii	"msg\000"
 8085 2003 01       		.byte	0x1
 8086 2004 8204     		.2byte	0x482
 8087 2006 B4000000 		.4byte	0xb4
 8088 200a BD1A0000 		.4byte	.LLST122
 8089 200e 20       		.uleb128 0x20
 8090 200f 81100000 		.4byte	.LASF183
 8091 2013 01       		.byte	0x1
 8092 2014 8404     		.2byte	0x484
 8093 2016 E0070000 		.4byte	0x7e0
 8094 201a DE1A0000 		.4byte	.LLST123
 8095 201e 21       		.uleb128 0x21
 8096 201f 93040000 		.4byte	.LASF179
 8097 2023 01       		.byte	0x1
 8098 2024 8504     		.2byte	0x485
 8099 2026 98050000 		.4byte	0x598
 8100 202a 01       		.uleb128 0x1
 8101 202b 5A       		.byte	0x5a
 8102 202c 22       		.uleb128 0x22
 8103 202d 61726700 		.ascii	"arg\000"
 8104 2031 01       		.byte	0x1
 8105 2032 8604     		.2byte	0x486
 8106 2034 B4000000 		.4byte	0xb4
 8107 2038 121B0000 		.4byte	.LLST124
 8108 203c 29       		.uleb128 0x29
 8109 203d 1E000000 		.4byte	.LBB5
 8110 2041 92000000 		.4byte	.LBE5-.LBB5
 8111 2045 72210000 		.4byte	0x2172
 8112 2049 22       		.uleb128 0x22
 8113 204a 7700     		.ascii	"w\000"
 8114 204c 01       		.byte	0x1
 8115 204d 8C04     		.2byte	0x48c
 8116 204f B4050000 		.4byte	0x5b4
 8117 2053 3B1B0000 		.4byte	.LLST125
 8118 2057 22       		.uleb128 0x22
 8119 2058 6100     		.ascii	"a\000"
ARM GAS  C:\Users\brian\AppData\Local\Temp\ccwE2E8f.s 			page 180


 8120 205a 01       		.byte	0x1
 8121 205b 8D04     		.2byte	0x48d
 8122 205d B4050000 		.4byte	0x5b4
 8123 2061 7C1B0000 		.4byte	.LLST126
 8124 2065 22       		.uleb128 0x22
 8125 2066 7800     		.ascii	"x\000"
 8126 2068 01       		.byte	0x1
 8127 2069 8E04     		.2byte	0x48e
 8128 206b B4050000 		.4byte	0x5b4
 8129 206f B01B0000 		.4byte	.LLST127
 8130 2073 22       		.uleb128 0x22
 8131 2074 7900     		.ascii	"y\000"
 8132 2076 01       		.byte	0x1
 8133 2077 8F04     		.2byte	0x48f
 8134 2079 B4050000 		.4byte	0x5b4
 8135 207d CE1B0000 		.4byte	.LLST128
 8136 2081 20       		.uleb128 0x20
 8137 2082 FC0C0000 		.4byte	.LASF223
 8138 2086 01       		.byte	0x1
 8139 2087 9004     		.2byte	0x490
 8140 2089 B4000000 		.4byte	0xb4
 8141 208d EE1B0000 		.4byte	.LLST129
 8142 2091 1C       		.uleb128 0x1c
 8143 2092 2E000000 		.4byte	.LVL411
 8144 2096 A10D0000 		.4byte	0xda1
 8145 209a A5200000 		.4byte	0x20a5
 8146 209e 1D       		.uleb128 0x1d
 8147 209f 01       		.uleb128 0x1
 8148 20a0 50       		.byte	0x50
 8149 20a1 02       		.uleb128 0x2
 8150 20a2 74       		.byte	0x74
 8151 20a3 00       		.sleb128 0
 8152 20a4 00       		.byte	0
 8153 20a5 1C       		.uleb128 0x1c
 8154 20a6 36000000 		.4byte	.LVL413
 8155 20aa 510D0000 		.4byte	0xd51
 8156 20ae B9200000 		.4byte	0x20b9
 8157 20b2 1D       		.uleb128 0x1d
 8158 20b3 01       		.uleb128 0x1
 8159 20b4 50       		.byte	0x50
 8160 20b5 02       		.uleb128 0x2
 8161 20b6 74       		.byte	0x74
 8162 20b7 00       		.sleb128 0
 8163 20b8 00       		.byte	0
 8164 20b9 1C       		.uleb128 0x1c
 8165 20ba 58000000 		.4byte	.LVL416
 8166 20be 1C0C0000 		.4byte	0xc1c
 8167 20c2 E1200000 		.4byte	0x20e1
 8168 20c6 1D       		.uleb128 0x1d
 8169 20c7 01       		.uleb128 0x1
 8170 20c8 50       		.byte	0x50
 8171 20c9 02       		.uleb128 0x2
 8172 20ca 78       		.byte	0x78
 8173 20cb 00       		.sleb128 0
 8174 20cc 1D       		.uleb128 0x1d
 8175 20cd 01       		.uleb128 0x1
 8176 20ce 51       		.byte	0x51
ARM GAS  C:\Users\brian\AppData\Local\Temp\ccwE2E8f.s 			page 181


 8177 20cf 02       		.uleb128 0x2
 8178 20d0 7B       		.byte	0x7b
 8179 20d1 00       		.sleb128 0
 8180 20d2 1D       		.uleb128 0x1d
 8181 20d3 01       		.uleb128 0x1
 8182 20d4 52       		.byte	0x52
 8183 20d5 04       		.uleb128 0x4
 8184 20d6 91       		.byte	0x91
 8185 20d7 54       		.sleb128 -44
 8186 20d8 94       		.byte	0x94
 8187 20d9 02       		.byte	0x2
 8188 20da 1D       		.uleb128 0x1d
 8189 20db 01       		.uleb128 0x1
 8190 20dc 53       		.byte	0x53
 8191 20dd 02       		.uleb128 0x2
 8192 20de 75       		.byte	0x75
 8193 20df 00       		.sleb128 0
 8194 20e0 00       		.byte	0
 8195 20e1 1C       		.uleb128 0x1c
 8196 20e2 6C000000 		.4byte	.LVL417
 8197 20e6 8B2B0000 		.4byte	0x2b8b
 8198 20ea F5200000 		.4byte	0x20f5
 8199 20ee 1D       		.uleb128 0x1d
 8200 20ef 01       		.uleb128 0x1
 8201 20f0 50       		.byte	0x50
 8202 20f1 02       		.uleb128 0x2
 8203 20f2 74       		.byte	0x74
 8204 20f3 00       		.sleb128 0
 8205 20f4 00       		.byte	0
 8206 20f5 1C       		.uleb128 0x1c
 8207 20f6 7C000000 		.4byte	.LVL419
 8208 20fa 4F2B0000 		.4byte	0x2b4f
 8209 20fe 0F210000 		.4byte	0x210f
 8210 2102 1D       		.uleb128 0x1d
 8211 2103 01       		.uleb128 0x1
 8212 2104 50       		.byte	0x50
 8213 2105 02       		.uleb128 0x2
 8214 2106 78       		.byte	0x78
 8215 2107 00       		.sleb128 0
 8216 2108 1D       		.uleb128 0x1d
 8217 2109 01       		.uleb128 0x1
 8218 210a 51       		.byte	0x51
 8219 210b 02       		.uleb128 0x2
 8220 210c 74       		.byte	0x74
 8221 210d 00       		.sleb128 0
 8222 210e 00       		.byte	0
 8223 210f 1C       		.uleb128 0x1c
 8224 2110 8E000000 		.4byte	.LVL421
 8225 2114 5B2B0000 		.4byte	0x2b5b
 8226 2118 3A210000 		.4byte	0x213a
 8227 211c 1D       		.uleb128 0x1d
 8228 211d 01       		.uleb128 0x1
 8229 211e 50       		.byte	0x50
 8230 211f 02       		.uleb128 0x2
 8231 2120 78       		.byte	0x78
 8232 2121 00       		.sleb128 0
 8233 2122 1D       		.uleb128 0x1d
ARM GAS  C:\Users\brian\AppData\Local\Temp\ccwE2E8f.s 			page 182


 8234 2123 01       		.uleb128 0x1
 8235 2124 51       		.byte	0x51
 8236 2125 05       		.uleb128 0x5
 8237 2126 76       		.byte	0x76
 8238 2127 00       		.sleb128 0
 8239 2128 7B       		.byte	0x7b
 8240 2129 00       		.sleb128 0
 8241 212a 22       		.byte	0x22
 8242 212b 1D       		.uleb128 0x1d
 8243 212c 01       		.uleb128 0x1
 8244 212d 52       		.byte	0x52
 8245 212e 04       		.uleb128 0x4
 8246 212f 91       		.byte	0x91
 8247 2130 54       		.sleb128 -44
 8248 2131 94       		.byte	0x94
 8249 2132 02       		.byte	0x2
 8250 2133 1D       		.uleb128 0x1d
 8251 2134 01       		.uleb128 0x1
 8252 2135 53       		.byte	0x53
 8253 2136 02       		.uleb128 0x2
 8254 2137 74       		.byte	0x74
 8255 2138 00       		.sleb128 0
 8256 2139 00       		.byte	0
 8257 213a 1E       		.uleb128 0x1e
 8258 213b B0000000 		.4byte	.LVL425
 8259 213f 672B0000 		.4byte	0x2b67
 8260 2143 1D       		.uleb128 0x1d
 8261 2144 01       		.uleb128 0x1
 8262 2145 50       		.byte	0x50
 8263 2146 02       		.uleb128 0x2
 8264 2147 78       		.byte	0x78
 8265 2148 00       		.sleb128 0
 8266 2149 1D       		.uleb128 0x1d
 8267 214a 01       		.uleb128 0x1
 8268 214b 51       		.byte	0x51
 8269 214c 02       		.uleb128 0x2
 8270 214d 7B       		.byte	0x7b
 8271 214e 00       		.sleb128 0
 8272 214f 1D       		.uleb128 0x1d
 8273 2150 01       		.uleb128 0x1
 8274 2151 52       		.byte	0x52
 8275 2152 04       		.uleb128 0x4
 8276 2153 91       		.byte	0x91
 8277 2154 54       		.sleb128 -44
 8278 2155 94       		.byte	0x94
 8279 2156 02       		.byte	0x2
 8280 2157 1D       		.uleb128 0x1d
 8281 2158 01       		.uleb128 0x1
 8282 2159 53       		.byte	0x53
 8283 215a 02       		.uleb128 0x2
 8284 215b 08       		.byte	0x8
 8285 215c 20       		.byte	0x20
 8286 215d 1D       		.uleb128 0x1d
 8287 215e 02       		.uleb128 0x2
 8288 215f 7D       		.byte	0x7d
 8289 2160 00       		.sleb128 0
 8290 2161 02       		.uleb128 0x2
ARM GAS  C:\Users\brian\AppData\Local\Temp\ccwE2E8f.s 			page 183


 8291 2162 75       		.byte	0x75
 8292 2163 00       		.sleb128 0
 8293 2164 1D       		.uleb128 0x1d
 8294 2165 02       		.uleb128 0x2
 8295 2166 7D       		.byte	0x7d
 8296 2167 04       		.sleb128 4
 8297 2168 01       		.uleb128 0x1
 8298 2169 31       		.byte	0x31
 8299 216a 1D       		.uleb128 0x1d
 8300 216b 02       		.uleb128 0x2
 8301 216c 7D       		.byte	0x7d
 8302 216d 08       		.sleb128 8
 8303 216e 01       		.uleb128 0x1
 8304 216f 31       		.byte	0x31
 8305 2170 00       		.byte	0
 8306 2171 00       		.byte	0
 8307 2172 1C       		.uleb128 0x1c
 8308 2173 0E000000 		.4byte	.LVL405
 8309 2177 790D0000 		.4byte	0xd79
 8310 217b 86210000 		.4byte	0x2186
 8311 217f 1D       		.uleb128 0x1d
 8312 2180 01       		.uleb128 0x1
 8313 2181 50       		.byte	0x50
 8314 2182 02       		.uleb128 0x2
 8315 2183 74       		.byte	0x74
 8316 2184 00       		.sleb128 0
 8317 2185 00       		.byte	0
 8318 2186 1E       		.uleb128 0x1e
 8319 2187 BC000000 		.4byte	.LVL428
 8320 218b 1B1F0000 		.4byte	0x1f1b
 8321 218f 1D       		.uleb128 0x1d
 8322 2190 01       		.uleb128 0x1
 8323 2191 50       		.byte	0x50
 8324 2192 02       		.uleb128 0x2
 8325 2193 74       		.byte	0x74
 8326 2194 00       		.sleb128 0
 8327 2195 1D       		.uleb128 0x1d
 8328 2196 01       		.uleb128 0x1
 8329 2197 51       		.byte	0x51
 8330 2198 02       		.uleb128 0x2
 8331 2199 75       		.byte	0x75
 8332 219a 00       		.sleb128 0
 8333 219b 00       		.byte	0
 8334 219c 00       		.byte	0
 8335 219d 28       		.uleb128 0x28
 8336 219e 230C0000 		.4byte	.LASF224
 8337 21a2 01       		.byte	0x1
 8338 21a3 AF04     		.2byte	0x4af
 8339 21a5 B4000000 		.4byte	0xb4
 8340 21a9 00000000 		.4byte	.LFB34
 8341 21ad BA000000 		.4byte	.LFE34-.LFB34
 8342 21b1 01       		.uleb128 0x1
 8343 21b2 9C       		.byte	0x9c
 8344 21b3 35230000 		.4byte	0x2335
 8345 21b7 18       		.uleb128 0x18
 8346 21b8 756900   		.ascii	"ui\000"
 8347 21bb 01       		.byte	0x1
ARM GAS  C:\Users\brian\AppData\Local\Temp\ccwE2E8f.s 			page 184


 8348 21bc AF04     		.2byte	0x4af
 8349 21be FB020000 		.4byte	0x2fb
 8350 21c2 0C1C0000 		.4byte	.LLST130
 8351 21c6 18       		.uleb128 0x18
 8352 21c7 6D736700 		.ascii	"msg\000"
 8353 21cb 01       		.byte	0x1
 8354 21cc AF04     		.2byte	0x4af
 8355 21ce B4000000 		.4byte	0xb4
 8356 21d2 511C0000 		.4byte	.LLST131
 8357 21d6 20       		.uleb128 0x20
 8358 21d7 81100000 		.4byte	.LASF183
 8359 21db 01       		.byte	0x1
 8360 21dc B104     		.2byte	0x4b1
 8361 21de E0070000 		.4byte	0x7e0
 8362 21e2 721C0000 		.4byte	.LLST132
 8363 21e6 21       		.uleb128 0x21
 8364 21e7 93040000 		.4byte	.LASF179
 8365 21eb 01       		.byte	0x1
 8366 21ec B204     		.2byte	0x4b2
 8367 21ee 98050000 		.4byte	0x598
 8368 21f2 01       		.uleb128 0x1
 8369 21f3 5A       		.byte	0x5a
 8370 21f4 2A       		.uleb128 0x2a
 8371 21f5 61726700 		.ascii	"arg\000"
 8372 21f9 01       		.byte	0x1
 8373 21fa B304     		.2byte	0x4b3
 8374 21fc B4000000 		.4byte	0xb4
 8375 2200 01       		.uleb128 0x1
 8376 2201 59       		.byte	0x59
 8377 2202 29       		.uleb128 0x29
 8378 2203 1E000000 		.4byte	.LBB6
 8379 2207 86000000 		.4byte	.LBE6-.LBB6
 8380 220b 0A230000 		.4byte	0x230a
 8381 220f 22       		.uleb128 0x22
 8382 2210 6100     		.ascii	"a\000"
 8383 2212 01       		.byte	0x1
 8384 2213 BA04     		.2byte	0x4ba
 8385 2215 B4050000 		.4byte	0x5b4
 8386 2219 A61C0000 		.4byte	.LLST133
 8387 221d 22       		.uleb128 0x22
 8388 221e 7800     		.ascii	"x\000"
 8389 2220 01       		.byte	0x1
 8390 2221 BB04     		.2byte	0x4bb
 8391 2223 B4050000 		.4byte	0x5b4
 8392 2227 C41C0000 		.4byte	.LLST134
 8393 222b 22       		.uleb128 0x22
 8394 222c 7900     		.ascii	"y\000"
 8395 222e 01       		.byte	0x1
 8396 222f BC04     		.2byte	0x4bc
 8397 2231 B4050000 		.4byte	0x5b4
 8398 2235 E21C0000 		.4byte	.LLST135
 8399 2239 20       		.uleb128 0x20
 8400 223a FC0C0000 		.4byte	.LASF223
 8401 223e 01       		.byte	0x1
 8402 223f BD04     		.2byte	0x4bd
 8403 2241 B4000000 		.4byte	0xb4
 8404 2245 021D0000 		.4byte	.LLST136
ARM GAS  C:\Users\brian\AppData\Local\Temp\ccwE2E8f.s 			page 185


 8405 2249 1C       		.uleb128 0x1c
 8406 224a 32000000 		.4byte	.LVL437
 8407 224e A10D0000 		.4byte	0xda1
 8408 2252 5D220000 		.4byte	0x225d
 8409 2256 1D       		.uleb128 0x1d
 8410 2257 01       		.uleb128 0x1
 8411 2258 50       		.byte	0x50
 8412 2259 02       		.uleb128 0x2
 8413 225a 74       		.byte	0x74
 8414 225b 00       		.sleb128 0
 8415 225c 00       		.byte	0
 8416 225d 1C       		.uleb128 0x1c
 8417 225e 3A000000 		.4byte	.LVL439
 8418 2262 510D0000 		.4byte	0xd51
 8419 2266 71220000 		.4byte	0x2271
 8420 226a 1D       		.uleb128 0x1d
 8421 226b 01       		.uleb128 0x1
 8422 226c 50       		.byte	0x50
 8423 226d 02       		.uleb128 0x2
 8424 226e 74       		.byte	0x74
 8425 226f 00       		.sleb128 0
 8426 2270 00       		.byte	0
 8427 2271 1C       		.uleb128 0x1c
 8428 2272 5C000000 		.4byte	.LVL442
 8429 2276 1C0C0000 		.4byte	0xc1c
 8430 227a 99220000 		.4byte	0x2299
 8431 227e 1D       		.uleb128 0x1d
 8432 227f 01       		.uleb128 0x1
 8433 2280 50       		.byte	0x50
 8434 2281 02       		.uleb128 0x2
 8435 2282 77       		.byte	0x77
 8436 2283 00       		.sleb128 0
 8437 2284 1D       		.uleb128 0x1d
 8438 2285 01       		.uleb128 0x1
 8439 2286 51       		.byte	0x51
 8440 2287 02       		.uleb128 0x2
 8441 2288 7B       		.byte	0x7b
 8442 2289 00       		.sleb128 0
 8443 228a 1D       		.uleb128 0x1d
 8444 228b 01       		.uleb128 0x1
 8445 228c 52       		.byte	0x52
 8446 228d 04       		.uleb128 0x4
 8447 228e 91       		.byte	0x91
 8448 228f 54       		.sleb128 -44
 8449 2290 94       		.byte	0x94
 8450 2291 02       		.byte	0x2
 8451 2292 1D       		.uleb128 0x1d
 8452 2293 01       		.uleb128 0x1
 8453 2294 53       		.byte	0x53
 8454 2295 02       		.uleb128 0x2
 8455 2296 78       		.byte	0x78
 8456 2297 00       		.sleb128 0
 8457 2298 00       		.byte	0
 8458 2299 1C       		.uleb128 0x1c
 8459 229a 70000000 		.4byte	.LVL443
 8460 229e 8B2B0000 		.4byte	0x2b8b
 8461 22a2 AD220000 		.4byte	0x22ad
ARM GAS  C:\Users\brian\AppData\Local\Temp\ccwE2E8f.s 			page 186


 8462 22a6 1D       		.uleb128 0x1d
 8463 22a7 01       		.uleb128 0x1
 8464 22a8 50       		.byte	0x50
 8465 22a9 02       		.uleb128 0x2
 8466 22aa 74       		.byte	0x74
 8467 22ab 00       		.sleb128 0
 8468 22ac 00       		.byte	0
 8469 22ad 1C       		.uleb128 0x1c
 8470 22ae 88000000 		.4byte	.LVL445
 8471 22b2 5B2B0000 		.4byte	0x2b5b
 8472 22b6 D8220000 		.4byte	0x22d8
 8473 22ba 1D       		.uleb128 0x1d
 8474 22bb 01       		.uleb128 0x1
 8475 22bc 50       		.byte	0x50
 8476 22bd 02       		.uleb128 0x2
 8477 22be 77       		.byte	0x77
 8478 22bf 00       		.sleb128 0
 8479 22c0 1D       		.uleb128 0x1d
 8480 22c1 01       		.uleb128 0x1
 8481 22c2 51       		.byte	0x51
 8482 22c3 05       		.uleb128 0x5
 8483 22c4 75       		.byte	0x75
 8484 22c5 00       		.sleb128 0
 8485 22c6 7B       		.byte	0x7b
 8486 22c7 00       		.sleb128 0
 8487 22c8 22       		.byte	0x22
 8488 22c9 1D       		.uleb128 0x1d
 8489 22ca 01       		.uleb128 0x1
 8490 22cb 52       		.byte	0x52
 8491 22cc 04       		.uleb128 0x4
 8492 22cd 91       		.byte	0x91
 8493 22ce 54       		.sleb128 -44
 8494 22cf 94       		.byte	0x94
 8495 22d0 02       		.byte	0x2
 8496 22d1 1D       		.uleb128 0x1d
 8497 22d2 01       		.uleb128 0x1
 8498 22d3 53       		.byte	0x53
 8499 22d4 02       		.uleb128 0x2
 8500 22d5 74       		.byte	0x74
 8501 22d6 3C       		.sleb128 60
 8502 22d7 00       		.byte	0
 8503 22d8 1E       		.uleb128 0x1e
 8504 22d9 A4000000 		.4byte	.LVL447
 8505 22dd 672B0000 		.4byte	0x2b67
 8506 22e1 1D       		.uleb128 0x1d
 8507 22e2 01       		.uleb128 0x1
 8508 22e3 50       		.byte	0x50
 8509 22e4 02       		.uleb128 0x2
 8510 22e5 77       		.byte	0x77
 8511 22e6 00       		.sleb128 0
 8512 22e7 1D       		.uleb128 0x1d
 8513 22e8 01       		.uleb128 0x1
 8514 22e9 51       		.byte	0x51
 8515 22ea 02       		.uleb128 0x2
 8516 22eb 74       		.byte	0x74
 8517 22ec 00       		.sleb128 0
 8518 22ed 1D       		.uleb128 0x1d
ARM GAS  C:\Users\brian\AppData\Local\Temp\ccwE2E8f.s 			page 187


 8519 22ee 01       		.uleb128 0x1
 8520 22ef 52       		.byte	0x52
 8521 22f0 04       		.uleb128 0x4
 8522 22f1 91       		.byte	0x91
 8523 22f2 54       		.sleb128 -44
 8524 22f3 94       		.byte	0x94
 8525 22f4 02       		.byte	0x2
 8526 22f5 1D       		.uleb128 0x1d
 8527 22f6 01       		.uleb128 0x1
 8528 22f7 53       		.byte	0x53
 8529 22f8 02       		.uleb128 0x2
 8530 22f9 08       		.byte	0x8
 8531 22fa 20       		.byte	0x20
 8532 22fb 1D       		.uleb128 0x1d
 8533 22fc 02       		.uleb128 0x2
 8534 22fd 7D       		.byte	0x7d
 8535 22fe 04       		.sleb128 4
 8536 22ff 02       		.uleb128 0x2
 8537 2300 74       		.byte	0x74
 8538 2301 00       		.sleb128 0
 8539 2302 1D       		.uleb128 0x1d
 8540 2303 02       		.uleb128 0x2
 8541 2304 7D       		.byte	0x7d
 8542 2305 08       		.sleb128 8
 8543 2306 01       		.uleb128 0x1
 8544 2307 31       		.byte	0x31
 8545 2308 00       		.byte	0
 8546 2309 00       		.byte	0
 8547 230a 1C       		.uleb128 0x1c
 8548 230b 0E000000 		.4byte	.LVL432
 8549 230f 790D0000 		.4byte	0xd79
 8550 2313 1E230000 		.4byte	0x231e
 8551 2317 1D       		.uleb128 0x1d
 8552 2318 01       		.uleb128 0x1
 8553 2319 50       		.byte	0x50
 8554 231a 02       		.uleb128 0x2
 8555 231b 74       		.byte	0x74
 8556 231c 00       		.sleb128 0
 8557 231d 00       		.byte	0
 8558 231e 1E       		.uleb128 0x1e
 8559 231f B0000000 		.4byte	.LVL450
 8560 2323 1B1F0000 		.4byte	0x1f1b
 8561 2327 1D       		.uleb128 0x1d
 8562 2328 01       		.uleb128 0x1
 8563 2329 50       		.byte	0x50
 8564 232a 02       		.uleb128 0x2
 8565 232b 74       		.byte	0x74
 8566 232c 00       		.sleb128 0
 8567 232d 1D       		.uleb128 0x1d
 8568 232e 01       		.uleb128 0x1
 8569 232f 51       		.byte	0x51
 8570 2330 02       		.uleb128 0x2
 8571 2331 75       		.byte	0x75
 8572 2332 00       		.sleb128 0
 8573 2333 00       		.byte	0
 8574 2334 00       		.byte	0
 8575 2335 28       		.uleb128 0x28
ARM GAS  C:\Users\brian\AppData\Local\Temp\ccwE2E8f.s 			page 188


 8576 2336 7B0A0000 		.4byte	.LASF225
 8577 233a 01       		.byte	0x1
 8578 233b DD04     		.2byte	0x4dd
 8579 233d B4000000 		.4byte	0xb4
 8580 2341 00000000 		.4byte	.LFB35
 8581 2345 7C000000 		.4byte	.LFE35-.LFB35
 8582 2349 01       		.uleb128 0x1
 8583 234a 9C       		.byte	0x9c
 8584 234b 83240000 		.4byte	0x2483
 8585 234f 18       		.uleb128 0x18
 8586 2350 756900   		.ascii	"ui\000"
 8587 2353 01       		.byte	0x1
 8588 2354 DD04     		.2byte	0x4dd
 8589 2356 FB020000 		.4byte	0x2fb
 8590 235a 201D0000 		.4byte	.LLST137
 8591 235e 18       		.uleb128 0x18
 8592 235f 6D736700 		.ascii	"msg\000"
 8593 2363 01       		.byte	0x1
 8594 2364 DD04     		.2byte	0x4dd
 8595 2366 B4000000 		.4byte	0xb4
 8596 236a 831D0000 		.4byte	.LLST138
 8597 236e 20       		.uleb128 0x20
 8598 236f 81100000 		.4byte	.LASF183
 8599 2373 01       		.byte	0x1
 8600 2374 DF04     		.2byte	0x4df
 8601 2376 E0070000 		.4byte	0x7e0
 8602 237a A41D0000 		.4byte	.LLST139
 8603 237e 2A       		.uleb128 0x2a
 8604 237f 61726700 		.ascii	"arg\000"
 8605 2383 01       		.byte	0x1
 8606 2384 E104     		.2byte	0x4e1
 8607 2386 B4000000 		.4byte	0xb4
 8608 238a 01       		.uleb128 0x1
 8609 238b 59       		.byte	0x59
 8610 238c 29       		.uleb128 0x29
 8611 238d 18000000 		.4byte	.LBB7
 8612 2391 4E000000 		.4byte	.LBE7-.LBB7
 8613 2395 58240000 		.4byte	0x2458
 8614 2399 22       		.uleb128 0x22
 8615 239a 7800     		.ascii	"x\000"
 8616 239c 01       		.byte	0x1
 8617 239d E804     		.2byte	0x4e8
 8618 239f B4050000 		.4byte	0x5b4
 8619 23a3 D81D0000 		.4byte	.LLST140
 8620 23a7 22       		.uleb128 0x22
 8621 23a8 7900     		.ascii	"y\000"
 8622 23aa 01       		.byte	0x1
 8623 23ab E904     		.2byte	0x4e9
 8624 23ad B4050000 		.4byte	0x5b4
 8625 23b1 F61D0000 		.4byte	.LLST141
 8626 23b5 20       		.uleb128 0x20
 8627 23b6 23100000 		.4byte	.LASF193
 8628 23ba 01       		.byte	0x1
 8629 23bb EA04     		.2byte	0x4ea
 8630 23bd B4000000 		.4byte	0xb4
 8631 23c1 141E0000 		.4byte	.LLST142
 8632 23c5 1C       		.uleb128 0x1c
ARM GAS  C:\Users\brian\AppData\Local\Temp\ccwE2E8f.s 			page 189


 8633 23c6 1E000000 		.4byte	.LVL457
 8634 23ca A10D0000 		.4byte	0xda1
 8635 23ce D9230000 		.4byte	0x23d9
 8636 23d2 1D       		.uleb128 0x1d
 8637 23d3 01       		.uleb128 0x1
 8638 23d4 50       		.byte	0x50
 8639 23d5 02       		.uleb128 0x2
 8640 23d6 74       		.byte	0x74
 8641 23d7 00       		.sleb128 0
 8642 23d8 00       		.byte	0
 8643 23d9 1C       		.uleb128 0x1c
 8644 23da 26000000 		.4byte	.LVL459
 8645 23de 510D0000 		.4byte	0xd51
 8646 23e2 ED230000 		.4byte	0x23ed
 8647 23e6 1D       		.uleb128 0x1d
 8648 23e7 01       		.uleb128 0x1
 8649 23e8 50       		.byte	0x50
 8650 23e9 02       		.uleb128 0x2
 8651 23ea 74       		.byte	0x74
 8652 23eb 00       		.sleb128 0
 8653 23ec 00       		.byte	0
 8654 23ed 1C       		.uleb128 0x1c
 8655 23ee 2E000000 		.4byte	.LVL461
 8656 23f2 BE0E0000 		.4byte	0xebe
 8657 23f6 01240000 		.4byte	0x2401
 8658 23fa 1D       		.uleb128 0x1d
 8659 23fb 01       		.uleb128 0x1
 8660 23fc 50       		.byte	0x50
 8661 23fd 02       		.uleb128 0x2
 8662 23fe 74       		.byte	0x74
 8663 23ff 00       		.sleb128 0
 8664 2400 00       		.byte	0
 8665 2401 1C       		.uleb128 0x1c
 8666 2402 44000000 		.4byte	.LVL463
 8667 2406 8B2B0000 		.4byte	0x2b8b
 8668 240a 15240000 		.4byte	0x2415
 8669 240e 1D       		.uleb128 0x1d
 8670 240f 01       		.uleb128 0x1
 8671 2410 50       		.byte	0x50
 8672 2411 02       		.uleb128 0x2
 8673 2412 74       		.byte	0x74
 8674 2413 00       		.sleb128 0
 8675 2414 00       		.byte	0
 8676 2415 1E       		.uleb128 0x1e
 8677 2416 66000000 		.4byte	.LVL466
 8678 241a EF2A0000 		.4byte	0x2aef
 8679 241e 1D       		.uleb128 0x1d
 8680 241f 01       		.uleb128 0x1
 8681 2420 50       		.byte	0x50
 8682 2421 02       		.uleb128 0x2
 8683 2422 76       		.byte	0x76
 8684 2423 00       		.sleb128 0
 8685 2424 1D       		.uleb128 0x1d
 8686 2425 01       		.uleb128 0x1
 8687 2426 51       		.byte	0x51
 8688 2427 02       		.uleb128 0x2
 8689 2428 75       		.byte	0x75
ARM GAS  C:\Users\brian\AppData\Local\Temp\ccwE2E8f.s 			page 190


 8690 2429 00       		.sleb128 0
 8691 242a 1D       		.uleb128 0x1d
 8692 242b 01       		.uleb128 0x1
 8693 242c 52       		.byte	0x52
 8694 242d 02       		.uleb128 0x2
 8695 242e 77       		.byte	0x77
 8696 242f 00       		.sleb128 0
 8697 2430 1D       		.uleb128 0x1d
 8698 2431 01       		.uleb128 0x1
 8699 2432 53       		.byte	0x53
 8700 2433 05       		.uleb128 0x5
 8701 2434 78       		.byte	0x78
 8702 2435 00       		.sleb128 0
 8703 2436 08       		.byte	0x8
 8704 2437 FF       		.byte	0xff
 8705 2438 1A       		.byte	0x1a
 8706 2439 1D       		.uleb128 0x1d
 8707 243a 02       		.uleb128 0x2
 8708 243b 7D       		.byte	0x7d
 8709 243c 00       		.sleb128 0
 8710 243d 02       		.uleb128 0x2
 8711 243e 74       		.byte	0x74
 8712 243f 00       		.sleb128 0
 8713 2440 1D       		.uleb128 0x1d
 8714 2441 02       		.uleb128 0x2
 8715 2442 7D       		.byte	0x7d
 8716 2443 04       		.sleb128 4
 8717 2444 01       		.uleb128 0x1
 8718 2445 31       		.byte	0x31
 8719 2446 1D       		.uleb128 0x1d
 8720 2447 02       		.uleb128 0x2
 8721 2448 7D       		.byte	0x7d
 8722 2449 08       		.sleb128 8
 8723 244a 01       		.uleb128 0x1
 8724 244b 31       		.byte	0x31
 8725 244c 1D       		.uleb128 0x1d
 8726 244d 02       		.uleb128 0x2
 8727 244e 7D       		.byte	0x7d
 8728 244f 0C       		.sleb128 12
 8729 2450 05       		.uleb128 0x5
 8730 2451 F3       		.byte	0xf3
 8731 2452 01       		.uleb128 0x1
 8732 2453 50       		.byte	0x50
 8733 2454 23       		.byte	0x23
 8734 2455 3C       		.uleb128 0x3c
 8735 2456 00       		.byte	0
 8736 2457 00       		.byte	0
 8737 2458 1C       		.uleb128 0x1c
 8738 2459 0E000000 		.4byte	.LVL454
 8739 245d 790D0000 		.4byte	0xd79
 8740 2461 6C240000 		.4byte	0x246c
 8741 2465 1D       		.uleb128 0x1d
 8742 2466 01       		.uleb128 0x1
 8743 2467 50       		.byte	0x50
 8744 2468 02       		.uleb128 0x2
 8745 2469 74       		.byte	0x74
 8746 246a 00       		.sleb128 0
ARM GAS  C:\Users\brian\AppData\Local\Temp\ccwE2E8f.s 			page 191


 8747 246b 00       		.byte	0
 8748 246c 1E       		.uleb128 0x1e
 8749 246d 72000000 		.4byte	.LVL469
 8750 2471 1B1F0000 		.4byte	0x1f1b
 8751 2475 1D       		.uleb128 0x1d
 8752 2476 01       		.uleb128 0x1
 8753 2477 50       		.byte	0x50
 8754 2478 02       		.uleb128 0x2
 8755 2479 74       		.byte	0x74
 8756 247a 00       		.sleb128 0
 8757 247b 1D       		.uleb128 0x1d
 8758 247c 01       		.uleb128 0x1
 8759 247d 51       		.byte	0x51
 8760 247e 02       		.uleb128 0x2
 8761 247f 75       		.byte	0x75
 8762 2480 00       		.sleb128 0
 8763 2481 00       		.byte	0
 8764 2482 00       		.byte	0
 8765 2483 28       		.uleb128 0x28
 8766 2484 4A060000 		.4byte	.LASF226
 8767 2488 01       		.byte	0x1
 8768 2489 0705     		.2byte	0x507
 8769 248b B4000000 		.4byte	0xb4
 8770 248f 00000000 		.4byte	.LFB36
 8771 2493 0C000000 		.4byte	.LFE36-.LFB36
 8772 2497 01       		.uleb128 0x1
 8773 2498 9C       		.byte	0x9c
 8774 2499 BB240000 		.4byte	0x24bb
 8775 249d 18       		.uleb128 0x18
 8776 249e 756900   		.ascii	"ui\000"
 8777 24a1 01       		.byte	0x1
 8778 24a2 0705     		.2byte	0x507
 8779 24a4 FB020000 		.4byte	0x2fb
 8780 24a8 321E0000 		.4byte	.LLST143
 8781 24ac 2B       		.uleb128 0x2b
 8782 24ad 6D736700 		.ascii	"msg\000"
 8783 24b1 01       		.byte	0x1
 8784 24b2 0705     		.2byte	0x507
 8785 24b4 B4000000 		.4byte	0xb4
 8786 24b8 01       		.uleb128 0x1
 8787 24b9 51       		.byte	0x51
 8788 24ba 00       		.byte	0
 8789 24bb 28       		.uleb128 0x28
 8790 24bc 7A060000 		.4byte	.LASF227
 8791 24c0 01       		.byte	0x1
 8792 24c1 2405     		.2byte	0x524
 8793 24c3 B4000000 		.4byte	0xb4
 8794 24c7 00000000 		.4byte	.LFB37
 8795 24cb 7C000000 		.4byte	.LFE37-.LFB37
 8796 24cf 01       		.uleb128 0x1
 8797 24d0 9C       		.byte	0x9c
 8798 24d1 AE250000 		.4byte	0x25ae
 8799 24d5 18       		.uleb128 0x18
 8800 24d6 756900   		.ascii	"ui\000"
 8801 24d9 01       		.byte	0x1
 8802 24da 2405     		.2byte	0x524
 8803 24dc FB020000 		.4byte	0x2fb
ARM GAS  C:\Users\brian\AppData\Local\Temp\ccwE2E8f.s 			page 192


 8804 24e0 531E0000 		.4byte	.LLST144
 8805 24e4 18       		.uleb128 0x18
 8806 24e5 6D736700 		.ascii	"msg\000"
 8807 24e9 01       		.byte	0x1
 8808 24ea 2405     		.2byte	0x524
 8809 24ec B4000000 		.4byte	0xb4
 8810 24f0 711E0000 		.4byte	.LLST145
 8811 24f4 20       		.uleb128 0x20
 8812 24f5 81100000 		.4byte	.LASF183
 8813 24f9 01       		.byte	0x1
 8814 24fa 2605     		.2byte	0x526
 8815 24fc E0070000 		.4byte	0x7e0
 8816 2500 921E0000 		.4byte	.LLST146
 8817 2504 22       		.uleb128 0x22
 8818 2505 61726700 		.ascii	"arg\000"
 8819 2509 01       		.byte	0x1
 8820 250a 2705     		.2byte	0x527
 8821 250c B4000000 		.4byte	0xb4
 8822 2510 C61E0000 		.4byte	.LLST147
 8823 2514 1C       		.uleb128 0x1c
 8824 2515 0A000000 		.4byte	.LVL475
 8825 2519 790D0000 		.4byte	0xd79
 8826 251d 28250000 		.4byte	0x2528
 8827 2521 1D       		.uleb128 0x1d
 8828 2522 01       		.uleb128 0x1
 8829 2523 50       		.byte	0x50
 8830 2524 02       		.uleb128 0x2
 8831 2525 74       		.byte	0x74
 8832 2526 00       		.sleb128 0
 8833 2527 00       		.byte	0
 8834 2528 1C       		.uleb128 0x1c
 8835 2529 28000000 		.4byte	.LVL478
 8836 252d 8B2B0000 		.4byte	0x2b8b
 8837 2531 3C250000 		.4byte	0x253c
 8838 2535 1D       		.uleb128 0x1d
 8839 2536 01       		.uleb128 0x1
 8840 2537 50       		.byte	0x50
 8841 2538 02       		.uleb128 0x2
 8842 2539 74       		.byte	0x74
 8843 253a 00       		.sleb128 0
 8844 253b 00       		.byte	0
 8845 253c 1C       		.uleb128 0x1c
 8846 253d 36000000 		.4byte	.LVL479
 8847 2541 A10D0000 		.4byte	0xda1
 8848 2545 50250000 		.4byte	0x2550
 8849 2549 1D       		.uleb128 0x1d
 8850 254a 01       		.uleb128 0x1
 8851 254b 50       		.byte	0x50
 8852 254c 02       		.uleb128 0x2
 8853 254d 74       		.byte	0x74
 8854 254e 00       		.sleb128 0
 8855 254f 00       		.byte	0
 8856 2550 1C       		.uleb128 0x1c
 8857 2551 48000000 		.4byte	.LVL480
 8858 2555 F50E0000 		.4byte	0xef5
 8859 2559 6A250000 		.4byte	0x256a
 8860 255d 1D       		.uleb128 0x1d
ARM GAS  C:\Users\brian\AppData\Local\Temp\ccwE2E8f.s 			page 193


 8861 255e 01       		.uleb128 0x1
 8862 255f 50       		.byte	0x50
 8863 2560 02       		.uleb128 0x2
 8864 2561 74       		.byte	0x74
 8865 2562 00       		.sleb128 0
 8866 2563 1D       		.uleb128 0x1d
 8867 2564 01       		.uleb128 0x1
 8868 2565 53       		.byte	0x53
 8869 2566 02       		.uleb128 0x2
 8870 2567 74       		.byte	0x74
 8871 2568 3D       		.sleb128 61
 8872 2569 00       		.byte	0
 8873 256a 1C       		.uleb128 0x1c
 8874 256b 5A000000 		.4byte	.LVL483
 8875 256f 8B2B0000 		.4byte	0x2b8b
 8876 2573 7E250000 		.4byte	0x257e
 8877 2577 1D       		.uleb128 0x1d
 8878 2578 01       		.uleb128 0x1
 8879 2579 50       		.byte	0x50
 8880 257a 02       		.uleb128 0x2
 8881 257b 74       		.byte	0x74
 8882 257c 00       		.sleb128 0
 8883 257d 00       		.byte	0
 8884 257e 1C       		.uleb128 0x1c
 8885 257f 6A000000 		.4byte	.LVL484
 8886 2583 1F2B0000 		.4byte	0x2b1f
 8887 2587 97250000 		.4byte	0x2597
 8888 258b 1D       		.uleb128 0x1d
 8889 258c 01       		.uleb128 0x1
 8890 258d 50       		.byte	0x50
 8891 258e 02       		.uleb128 0x2
 8892 258f 74       		.byte	0x74
 8893 2590 00       		.sleb128 0
 8894 2591 1D       		.uleb128 0x1d
 8895 2592 01       		.uleb128 0x1
 8896 2593 52       		.byte	0x52
 8897 2594 01       		.uleb128 0x1
 8898 2595 30       		.byte	0x30
 8899 2596 00       		.byte	0
 8900 2597 1E       		.uleb128 0x1e
 8901 2598 76000000 		.4byte	.LVL487
 8902 259c 1B1F0000 		.4byte	0x1f1b
 8903 25a0 1D       		.uleb128 0x1d
 8904 25a1 01       		.uleb128 0x1
 8905 25a2 50       		.byte	0x50
 8906 25a3 02       		.uleb128 0x2
 8907 25a4 74       		.byte	0x74
 8908 25a5 00       		.sleb128 0
 8909 25a6 1D       		.uleb128 0x1d
 8910 25a7 01       		.uleb128 0x1
 8911 25a8 51       		.byte	0x51
 8912 25a9 02       		.uleb128 0x2
 8913 25aa 75       		.byte	0x75
 8914 25ab 00       		.sleb128 0
 8915 25ac 00       		.byte	0
 8916 25ad 00       		.byte	0
 8917 25ae 2C       		.uleb128 0x2c
ARM GAS  C:\Users\brian\AppData\Local\Temp\ccwE2E8f.s 			page 194


 8918 25af 77050000 		.4byte	.LASF228
 8919 25b3 01       		.byte	0x1
 8920 25b4 3C05     		.2byte	0x53c
 8921 25b6 B4000000 		.4byte	0xb4
 8922 25ba 00000000 		.4byte	.LFB38
 8923 25be 46000000 		.4byte	.LFE38-.LFB38
 8924 25c2 01       		.uleb128 0x1
 8925 25c3 9C       		.byte	0x9c
 8926 25c4 51260000 		.4byte	0x2651
 8927 25c8 18       		.uleb128 0x18
 8928 25c9 756900   		.ascii	"ui\000"
 8929 25cc 01       		.byte	0x1
 8930 25cd 3C05     		.2byte	0x53c
 8931 25cf FB020000 		.4byte	0x2fb
 8932 25d3 EF1E0000 		.4byte	.LLST148
 8933 25d7 18       		.uleb128 0x18
 8934 25d8 6D736700 		.ascii	"msg\000"
 8935 25dc 01       		.byte	0x1
 8936 25dd 3C05     		.2byte	0x53c
 8937 25df B4000000 		.4byte	0xb4
 8938 25e3 1B1F0000 		.4byte	.LLST149
 8939 25e7 20       		.uleb128 0x20
 8940 25e8 68020000 		.4byte	.LASF188
 8941 25ec 01       		.byte	0x1
 8942 25ed 3F05     		.2byte	0x53f
 8943 25ef 4B0D0000 		.4byte	0xd4b
 8944 25f3 551F0000 		.4byte	.LLST150
 8945 25f7 21       		.uleb128 0x21
 8946 25f8 0E090000 		.4byte	.LASF174
 8947 25fc 01       		.byte	0x1
 8948 25fd 4005     		.2byte	0x540
 8949 25ff 9A0A0000 		.4byte	0xa9a
 8950 2603 01       		.uleb128 0x1
 8951 2604 55       		.byte	0x55
 8952 2605 20       		.uleb128 0x20
 8953 2606 F4070000 		.4byte	.LASF48
 8954 260a 01       		.byte	0x1
 8955 260b 4105     		.2byte	0x541
 8956 260d DC000000 		.4byte	0xdc
 8957 2611 981F0000 		.4byte	.LLST151
 8958 2615 20       		.uleb128 0x20
 8959 2616 76100000 		.4byte	.LASF229
 8960 261a 01       		.byte	0x1
 8961 261b 4205     		.2byte	0x542
 8962 261d 180A0000 		.4byte	0xa18
 8963 2621 B61F0000 		.4byte	.LLST152
 8964 2625 20       		.uleb128 0x20
 8965 2626 86100000 		.4byte	.LASF189
 8966 262a 01       		.byte	0x1
 8967 262b 4305     		.2byte	0x543
 8968 262d 3D0A0000 		.4byte	0xa3d
 8969 2631 D41F0000 		.4byte	.LLST153
 8970 2635 1E       		.uleb128 0x1e
 8971 2636 2E000000 		.4byte	.LVL496
 8972 263a F50E0000 		.4byte	0xef5
 8973 263e 1D       		.uleb128 0x1d
 8974 263f 01       		.uleb128 0x1
ARM GAS  C:\Users\brian\AppData\Local\Temp\ccwE2E8f.s 			page 195


 8975 2640 50       		.byte	0x50
 8976 2641 02       		.uleb128 0x2
 8977 2642 74       		.byte	0x74
 8978 2643 00       		.sleb128 0
 8979 2644 1D       		.uleb128 0x1d
 8980 2645 01       		.uleb128 0x1
 8981 2646 51       		.byte	0x51
 8982 2647 02       		.uleb128 0x2
 8983 2648 76       		.byte	0x76
 8984 2649 00       		.sleb128 0
 8985 264a 1D       		.uleb128 0x1d
 8986 264b 01       		.uleb128 0x1
 8987 264c 52       		.byte	0x52
 8988 264d 01       		.uleb128 0x1
 8989 264e 31       		.byte	0x31
 8990 264f 00       		.byte	0
 8991 2650 00       		.byte	0
 8992 2651 2C       		.uleb128 0x2c
 8993 2652 5A040000 		.4byte	.LASF230
 8994 2656 01       		.byte	0x1
 8995 2657 6005     		.2byte	0x560
 8996 2659 B4000000 		.4byte	0xb4
 8997 265d 00000000 		.4byte	.LFB39
 8998 2661 90000000 		.4byte	.LFE39-.LFB39
 8999 2665 01       		.uleb128 0x1
 9000 2666 9C       		.byte	0x9c
 9001 2667 F2260000 		.4byte	0x26f2
 9002 266b 18       		.uleb128 0x18
 9003 266c 756900   		.ascii	"ui\000"
 9004 266f 01       		.byte	0x1
 9005 2670 6005     		.2byte	0x560
 9006 2672 FB020000 		.4byte	0x2fb
 9007 2676 F21F0000 		.4byte	.LLST154
 9008 267a 18       		.uleb128 0x18
 9009 267b 6D736700 		.ascii	"msg\000"
 9010 267f 01       		.byte	0x1
 9011 2680 6005     		.2byte	0x560
 9012 2682 B4000000 		.4byte	0xb4
 9013 2686 37200000 		.4byte	.LLST155
 9014 268a 20       		.uleb128 0x20
 9015 268b 68020000 		.4byte	.LASF188
 9016 268f 01       		.byte	0x1
 9017 2690 6305     		.2byte	0x563
 9018 2692 4B0D0000 		.4byte	0xd4b
 9019 2696 58200000 		.4byte	.LLST156
 9020 269a 21       		.uleb128 0x21
 9021 269b 0E090000 		.4byte	.LASF174
 9022 269f 01       		.byte	0x1
 9023 26a0 6405     		.2byte	0x564
 9024 26a2 9A0A0000 		.4byte	0xa9a
 9025 26a6 01       		.uleb128 0x1
 9026 26a7 55       		.byte	0x55
 9027 26a8 20       		.uleb128 0x20
 9028 26a9 F4070000 		.4byte	.LASF48
 9029 26ad 01       		.byte	0x1
 9030 26ae 6505     		.2byte	0x565
 9031 26b0 DC000000 		.4byte	0xdc
ARM GAS  C:\Users\brian\AppData\Local\Temp\ccwE2E8f.s 			page 196


 9032 26b4 D7200000 		.4byte	.LLST157
 9033 26b8 21       		.uleb128 0x21
 9034 26b9 76100000 		.4byte	.LASF229
 9035 26bd 01       		.byte	0x1
 9036 26be 6605     		.2byte	0x566
 9037 26c0 180A0000 		.4byte	0xa18
 9038 26c4 01       		.uleb128 0x1
 9039 26c5 56       		.byte	0x56
 9040 26c6 20       		.uleb128 0x20
 9041 26c7 86100000 		.4byte	.LASF189
 9042 26cb 01       		.byte	0x1
 9043 26cc 6705     		.2byte	0x567
 9044 26ce 3D0A0000 		.4byte	0xa3d
 9045 26d2 0B210000 		.4byte	.LLST158
 9046 26d6 1E       		.uleb128 0x1e
 9047 26d7 3A000000 		.4byte	.LVL510
 9048 26db F50E0000 		.4byte	0xef5
 9049 26df 1D       		.uleb128 0x1d
 9050 26e0 01       		.uleb128 0x1
 9051 26e1 50       		.byte	0x50
 9052 26e2 02       		.uleb128 0x2
 9053 26e3 74       		.byte	0x74
 9054 26e4 00       		.sleb128 0
 9055 26e5 1D       		.uleb128 0x1d
 9056 26e6 01       		.uleb128 0x1
 9057 26e7 51       		.byte	0x51
 9058 26e8 02       		.uleb128 0x2
 9059 26e9 77       		.byte	0x77
 9060 26ea 00       		.sleb128 0
 9061 26eb 1D       		.uleb128 0x1d
 9062 26ec 01       		.uleb128 0x1
 9063 26ed 52       		.byte	0x52
 9064 26ee 01       		.uleb128 0x1
 9065 26ef 31       		.byte	0x31
 9066 26f0 00       		.byte	0
 9067 26f1 00       		.byte	0
 9068 26f2 2C       		.uleb128 0x2c
 9069 26f3 0A030000 		.4byte	.LASF231
 9070 26f7 01       		.byte	0x1
 9071 26f8 9A05     		.2byte	0x59a
 9072 26fa B4000000 		.4byte	0xb4
 9073 26fe 00000000 		.4byte	.LFB40
 9074 2702 40000000 		.4byte	.LFE40-.LFB40
 9075 2706 01       		.uleb128 0x1
 9076 2707 9C       		.byte	0x9c
 9077 2708 AC270000 		.4byte	0x27ac
 9078 270c 18       		.uleb128 0x18
 9079 270d 756900   		.ascii	"ui\000"
 9080 2710 01       		.byte	0x1
 9081 2711 9A05     		.2byte	0x59a
 9082 2713 FB020000 		.4byte	0x2fb
 9083 2717 5C210000 		.4byte	.LLST159
 9084 271b 18       		.uleb128 0x18
 9085 271c 6D736700 		.ascii	"msg\000"
 9086 2720 01       		.byte	0x1
 9087 2721 9A05     		.2byte	0x59a
 9088 2723 B4000000 		.4byte	0xb4
ARM GAS  C:\Users\brian\AppData\Local\Temp\ccwE2E8f.s 			page 197


 9089 2727 7A210000 		.4byte	.LLST160
 9090 272b 20       		.uleb128 0x20
 9091 272c 68020000 		.4byte	.LASF188
 9092 2730 01       		.byte	0x1
 9093 2731 9D05     		.2byte	0x59d
 9094 2733 4B0D0000 		.4byte	0xd4b
 9095 2737 B4210000 		.4byte	.LLST161
 9096 273b 21       		.uleb128 0x21
 9097 273c 0E090000 		.4byte	.LASF174
 9098 2740 01       		.byte	0x1
 9099 2741 9E05     		.2byte	0x59e
 9100 2743 9A0A0000 		.4byte	0xa9a
 9101 2747 01       		.uleb128 0x1
 9102 2748 55       		.byte	0x55
 9103 2749 20       		.uleb128 0x20
 9104 274a F4070000 		.4byte	.LASF48
 9105 274e 01       		.byte	0x1
 9106 274f 9F05     		.2byte	0x59f
 9107 2751 DC000000 		.4byte	0xdc
 9108 2755 E5210000 		.4byte	.LLST162
 9109 2759 20       		.uleb128 0x20
 9110 275a 76100000 		.4byte	.LASF229
 9111 275e 01       		.byte	0x1
 9112 275f A005     		.2byte	0x5a0
 9113 2761 180A0000 		.4byte	0xa18
 9114 2765 15220000 		.4byte	.LLST163
 9115 2769 1C       		.uleb128 0x1c
 9116 276a 28000000 		.4byte	.LVL529
 9117 276e F50E0000 		.4byte	0xef5
 9118 2772 87270000 		.4byte	0x2787
 9119 2776 1D       		.uleb128 0x1d
 9120 2777 01       		.uleb128 0x1
 9121 2778 50       		.byte	0x50
 9122 2779 02       		.uleb128 0x2
 9123 277a 74       		.byte	0x74
 9124 277b 00       		.sleb128 0
 9125 277c 1D       		.uleb128 0x1d
 9126 277d 01       		.uleb128 0x1
 9127 277e 51       		.byte	0x51
 9128 277f 01       		.uleb128 0x1
 9129 2780 30       		.byte	0x30
 9130 2781 1D       		.uleb128 0x1d
 9131 2782 01       		.uleb128 0x1
 9132 2783 52       		.byte	0x52
 9133 2784 01       		.uleb128 0x1
 9134 2785 31       		.byte	0x31
 9135 2786 00       		.byte	0
 9136 2787 1C       		.uleb128 0x1c
 9137 2788 30000000 		.4byte	.LVL532
 9138 278c 732B0000 		.4byte	0x2b73
 9139 2790 9B270000 		.4byte	0x279b
 9140 2794 1D       		.uleb128 0x1d
 9141 2795 01       		.uleb128 0x1
 9142 2796 50       		.byte	0x50
 9143 2797 02       		.uleb128 0x2
 9144 2798 74       		.byte	0x74
 9145 2799 00       		.sleb128 0
ARM GAS  C:\Users\brian\AppData\Local\Temp\ccwE2E8f.s 			page 198


 9146 279a 00       		.byte	0
 9147 279b 1E       		.uleb128 0x1e
 9148 279c 3C000000 		.4byte	.LVL533
 9149 27a0 1F2B0000 		.4byte	0x2b1f
 9150 27a4 1D       		.uleb128 0x1d
 9151 27a5 01       		.uleb128 0x1
 9152 27a6 50       		.byte	0x50
 9153 27a7 02       		.uleb128 0x2
 9154 27a8 74       		.byte	0x74
 9155 27a9 00       		.sleb128 0
 9156 27aa 00       		.byte	0
 9157 27ab 00       		.byte	0
 9158 27ac 28       		.uleb128 0x28
 9159 27ad 5D0F0000 		.4byte	.LASF232
 9160 27b1 01       		.byte	0x1
 9161 27b2 EA05     		.2byte	0x5ea
 9162 27b4 B4000000 		.4byte	0xb4
 9163 27b8 00000000 		.4byte	.LFB42
 9164 27bc BE000000 		.4byte	.LFE42-.LFB42
 9165 27c0 01       		.uleb128 0x1
 9166 27c1 9C       		.byte	0x9c
 9167 27c2 92290000 		.4byte	0x2992
 9168 27c6 18       		.uleb128 0x18
 9169 27c7 756900   		.ascii	"ui\000"
 9170 27ca 01       		.byte	0x1
 9171 27cb EA05     		.2byte	0x5ea
 9172 27cd FB020000 		.4byte	0x2fb
 9173 27d1 33220000 		.4byte	.LLST164
 9174 27d5 18       		.uleb128 0x18
 9175 27d6 6D736700 		.ascii	"msg\000"
 9176 27da 01       		.byte	0x1
 9177 27db EA05     		.2byte	0x5ea
 9178 27dd B4000000 		.4byte	0xb4
 9179 27e1 78220000 		.4byte	.LLST165
 9180 27e5 20       		.uleb128 0x20
 9181 27e6 81100000 		.4byte	.LASF183
 9182 27ea 01       		.byte	0x1
 9183 27eb EC05     		.2byte	0x5ec
 9184 27ed E0070000 		.4byte	0x7e0
 9185 27f1 99220000 		.4byte	.LLST166
 9186 27f5 20       		.uleb128 0x20
 9187 27f6 68020000 		.4byte	.LASF188
 9188 27fa 01       		.byte	0x1
 9189 27fb ED05     		.2byte	0x5ed
 9190 27fd 4B0D0000 		.4byte	0xd4b
 9191 2801 CF220000 		.4byte	.LLST167
 9192 2805 21       		.uleb128 0x21
 9193 2806 0E090000 		.4byte	.LASF174
 9194 280a 01       		.byte	0x1
 9195 280b EE05     		.2byte	0x5ee
 9196 280d 9A0A0000 		.4byte	0xa9a
 9197 2811 01       		.uleb128 0x1
 9198 2812 5A       		.byte	0x5a
 9199 2813 20       		.uleb128 0x20
 9200 2814 F4070000 		.4byte	.LASF48
 9201 2818 01       		.byte	0x1
 9202 2819 EF05     		.2byte	0x5ef
ARM GAS  C:\Users\brian\AppData\Local\Temp\ccwE2E8f.s 			page 199


 9203 281b DC000000 		.4byte	0xdc
 9204 281f ED220000 		.4byte	.LLST168
 9205 2823 21       		.uleb128 0x21
 9206 2824 76100000 		.4byte	.LASF229
 9207 2828 01       		.byte	0x1
 9208 2829 F005     		.2byte	0x5f0
 9209 282b 180A0000 		.4byte	0xa18
 9210 282f 01       		.uleb128 0x1
 9211 2830 57       		.byte	0x57
 9212 2831 21       		.uleb128 0x21
 9213 2832 86100000 		.4byte	.LASF189
 9214 2836 01       		.byte	0x1
 9215 2837 F105     		.2byte	0x5f1
 9216 2839 3D0A0000 		.4byte	0xa3d
 9217 283d 01       		.uleb128 0x1
 9218 283e 59       		.byte	0x59
 9219 283f 22       		.uleb128 0x22
 9220 2840 706F7300 		.ascii	"pos\000"
 9221 2844 01       		.byte	0x1
 9222 2845 F205     		.2byte	0x5f2
 9223 2847 BF000000 		.4byte	0xbf
 9224 284b 23230000 		.4byte	.LLST169
 9225 284f 29       		.uleb128 0x29
 9226 2850 2A000000 		.4byte	.LBB8
 9227 2854 7E000000 		.4byte	.LBE8-.LBB8
 9228 2858 67290000 		.4byte	0x2967
 9229 285c 22       		.uleb128 0x22
 9230 285d 6100     		.ascii	"a\000"
 9231 285f 01       		.byte	0x1
 9232 2860 F805     		.2byte	0x5f8
 9233 2862 B4050000 		.4byte	0x5b4
 9234 2866 41230000 		.4byte	.LLST170
 9235 286a 22       		.uleb128 0x22
 9236 286b 7800     		.ascii	"x\000"
 9237 286d 01       		.byte	0x1
 9238 286e F905     		.2byte	0x5f9
 9239 2870 B4050000 		.4byte	0x5b4
 9240 2874 5F230000 		.4byte	.LLST171
 9241 2878 22       		.uleb128 0x22
 9242 2879 7900     		.ascii	"y\000"
 9243 287b 01       		.byte	0x1
 9244 287c FA05     		.2byte	0x5fa
 9245 287e B4050000 		.4byte	0x5b4
 9246 2882 7F230000 		.4byte	.LLST172
 9247 2886 20       		.uleb128 0x20
 9248 2887 FC0C0000 		.4byte	.LASF223
 9249 288b 01       		.byte	0x1
 9250 288c FB05     		.2byte	0x5fb
 9251 288e B4000000 		.4byte	0xb4
 9252 2892 9F230000 		.4byte	.LLST173
 9253 2896 1C       		.uleb128 0x1c
 9254 2897 3E000000 		.4byte	.LVL545
 9255 289b A10D0000 		.4byte	0xda1
 9256 289f AA280000 		.4byte	0x28aa
 9257 28a3 1D       		.uleb128 0x1d
 9258 28a4 01       		.uleb128 0x1
 9259 28a5 50       		.byte	0x50
ARM GAS  C:\Users\brian\AppData\Local\Temp\ccwE2E8f.s 			page 200


 9260 28a6 02       		.uleb128 0x2
 9261 28a7 74       		.byte	0x74
 9262 28a8 00       		.sleb128 0
 9263 28a9 00       		.byte	0
 9264 28aa 1C       		.uleb128 0x1c
 9265 28ab 46000000 		.4byte	.LVL547
 9266 28af 510D0000 		.4byte	0xd51
 9267 28b3 BE280000 		.4byte	0x28be
 9268 28b7 1D       		.uleb128 0x1d
 9269 28b8 01       		.uleb128 0x1
 9270 28b9 50       		.byte	0x50
 9271 28ba 02       		.uleb128 0x2
 9272 28bb 74       		.byte	0x74
 9273 28bc 00       		.sleb128 0
 9274 28bd 00       		.byte	0
 9275 28be 1C       		.uleb128 0x1c
 9276 28bf 6C000000 		.4byte	.LVL552
 9277 28c3 1C0C0000 		.4byte	0xc1c
 9278 28c7 E9280000 		.4byte	0x28e9
 9279 28cb 1D       		.uleb128 0x1d
 9280 28cc 01       		.uleb128 0x1
 9281 28cd 50       		.byte	0x50
 9282 28ce 03       		.uleb128 0x3
 9283 28cf 91       		.byte	0x91
 9284 28d0 4C       		.sleb128 -52
 9285 28d1 06       		.byte	0x6
 9286 28d2 1D       		.uleb128 0x1d
 9287 28d3 01       		.uleb128 0x1
 9288 28d4 51       		.byte	0x51
 9289 28d5 04       		.uleb128 0x4
 9290 28d6 91       		.byte	0x91
 9291 28d7 54       		.sleb128 -44
 9292 28d8 94       		.byte	0x94
 9293 28d9 02       		.byte	0x2
 9294 28da 1D       		.uleb128 0x1d
 9295 28db 01       		.uleb128 0x1
 9296 28dc 52       		.byte	0x52
 9297 28dd 04       		.uleb128 0x4
 9298 28de 91       		.byte	0x91
 9299 28df 50       		.sleb128 -48
 9300 28e0 94       		.byte	0x94
 9301 28e1 02       		.byte	0x2
 9302 28e2 1D       		.uleb128 0x1d
 9303 28e3 01       		.uleb128 0x1
 9304 28e4 53       		.byte	0x53
 9305 28e5 02       		.uleb128 0x2
 9306 28e6 78       		.byte	0x78
 9307 28e7 00       		.sleb128 0
 9308 28e8 00       		.byte	0
 9309 28e9 2D       		.uleb128 0x2d
 9310 28ea 70000000 		.4byte	.LVL553
 9311 28ee FA280000 		.4byte	0x28fa
 9312 28f2 1D       		.uleb128 0x1d
 9313 28f3 01       		.uleb128 0x1
 9314 28f4 50       		.byte	0x50
 9315 28f5 03       		.uleb128 0x3
 9316 28f6 91       		.byte	0x91
ARM GAS  C:\Users\brian\AppData\Local\Temp\ccwE2E8f.s 			page 201


 9317 28f7 48       		.sleb128 -56
 9318 28f8 06       		.byte	0x6
 9319 28f9 00       		.byte	0
 9320 28fa 2D       		.uleb128 0x2d
 9321 28fb 80000000 		.4byte	.LVL555
 9322 28ff 11290000 		.4byte	0x2911
 9323 2903 1D       		.uleb128 0x1d
 9324 2904 01       		.uleb128 0x1
 9325 2905 50       		.byte	0x50
 9326 2906 03       		.uleb128 0x3
 9327 2907 91       		.byte	0x91
 9328 2908 48       		.sleb128 -56
 9329 2909 06       		.byte	0x6
 9330 290a 1D       		.uleb128 0x1d
 9331 290b 01       		.uleb128 0x1
 9332 290c 51       		.byte	0x51
 9333 290d 02       		.uleb128 0x2
 9334 290e 7B       		.byte	0x7b
 9335 290f 00       		.sleb128 0
 9336 2910 00       		.byte	0
 9337 2911 1C       		.uleb128 0x1c
 9338 2912 8C000000 		.4byte	.LVL556
 9339 2916 5B2B0000 		.4byte	0x2b5b
 9340 291a 34290000 		.4byte	0x2934
 9341 291e 1D       		.uleb128 0x1d
 9342 291f 01       		.uleb128 0x1
 9343 2920 50       		.byte	0x50
 9344 2921 03       		.uleb128 0x3
 9345 2922 91       		.byte	0x91
 9346 2923 4C       		.sleb128 -52
 9347 2924 06       		.byte	0x6
 9348 2925 1D       		.uleb128 0x1d
 9349 2926 01       		.uleb128 0x1
 9350 2927 51       		.byte	0x51
 9351 2928 02       		.uleb128 0x2
 9352 2929 75       		.byte	0x75
 9353 292a 00       		.sleb128 0
 9354 292b 1D       		.uleb128 0x1d
 9355 292c 01       		.uleb128 0x1
 9356 292d 52       		.byte	0x52
 9357 292e 04       		.uleb128 0x4
 9358 292f 91       		.byte	0x91
 9359 2930 50       		.sleb128 -48
 9360 2931 94       		.byte	0x94
 9361 2932 02       		.byte	0x2
 9362 2933 00       		.byte	0
 9363 2934 1E       		.uleb128 0x1e
 9364 2935 A8000000 		.4byte	.LVL558
 9365 2939 672B0000 		.4byte	0x2b67
 9366 293d 1D       		.uleb128 0x1d
 9367 293e 01       		.uleb128 0x1
 9368 293f 50       		.byte	0x50
 9369 2940 03       		.uleb128 0x3
 9370 2941 91       		.byte	0x91
 9371 2942 4C       		.sleb128 -52
 9372 2943 06       		.byte	0x6
 9373 2944 1D       		.uleb128 0x1d
ARM GAS  C:\Users\brian\AppData\Local\Temp\ccwE2E8f.s 			page 202


 9374 2945 01       		.uleb128 0x1
 9375 2946 51       		.byte	0x51
 9376 2947 02       		.uleb128 0x2
 9377 2948 74       		.byte	0x74
 9378 2949 00       		.sleb128 0
 9379 294a 1D       		.uleb128 0x1d
 9380 294b 01       		.uleb128 0x1
 9381 294c 52       		.byte	0x52
 9382 294d 04       		.uleb128 0x4
 9383 294e 91       		.byte	0x91
 9384 294f 50       		.sleb128 -48
 9385 2950 94       		.byte	0x94
 9386 2951 02       		.byte	0x2
 9387 2952 1D       		.uleb128 0x1d
 9388 2953 01       		.uleb128 0x1
 9389 2954 53       		.byte	0x53
 9390 2955 02       		.uleb128 0x2
 9391 2956 08       		.byte	0x8
 9392 2957 20       		.byte	0x20
 9393 2958 1D       		.uleb128 0x1d
 9394 2959 02       		.uleb128 0x2
 9395 295a 7D       		.byte	0x7d
 9396 295b 04       		.sleb128 4
 9397 295c 02       		.uleb128 0x2
 9398 295d 74       		.byte	0x74
 9399 295e 00       		.sleb128 0
 9400 295f 1D       		.uleb128 0x1d
 9401 2960 02       		.uleb128 0x2
 9402 2961 7D       		.byte	0x7d
 9403 2962 08       		.sleb128 8
 9404 2963 01       		.uleb128 0x1
 9405 2964 31       		.byte	0x31
 9406 2965 00       		.byte	0
 9407 2966 00       		.byte	0
 9408 2967 1C       		.uleb128 0x1c
 9409 2968 0E000000 		.4byte	.LVL535
 9410 296c 790D0000 		.4byte	0xd79
 9411 2970 7B290000 		.4byte	0x297b
 9412 2974 1D       		.uleb128 0x1d
 9413 2975 01       		.uleb128 0x1
 9414 2976 50       		.byte	0x50
 9415 2977 02       		.uleb128 0x2
 9416 2978 74       		.byte	0x74
 9417 2979 00       		.sleb128 0
 9418 297a 00       		.byte	0
 9419 297b 1E       		.uleb128 0x1e
 9420 297c B4000000 		.4byte	.LVL561
 9421 2980 790C0000 		.4byte	0xc79
 9422 2984 1D       		.uleb128 0x1d
 9423 2985 01       		.uleb128 0x1
 9424 2986 50       		.byte	0x50
 9425 2987 02       		.uleb128 0x2
 9426 2988 74       		.byte	0x74
 9427 2989 00       		.sleb128 0
 9428 298a 1D       		.uleb128 0x1d
 9429 298b 01       		.uleb128 0x1
 9430 298c 51       		.byte	0x51
ARM GAS  C:\Users\brian\AppData\Local\Temp\ccwE2E8f.s 			page 203


 9431 298d 02       		.uleb128 0x2
 9432 298e 75       		.byte	0x75
 9433 298f 00       		.sleb128 0
 9434 2990 00       		.byte	0
 9435 2991 00       		.byte	0
 9436 2992 28       		.uleb128 0x28
 9437 2993 37030000 		.4byte	.LASF233
 9438 2997 01       		.byte	0x1
 9439 2998 1206     		.2byte	0x612
 9440 299a B4000000 		.4byte	0xb4
 9441 299e 00000000 		.4byte	.LFB43
 9442 29a2 7C000000 		.4byte	.LFE43-.LFB43
 9443 29a6 01       		.uleb128 0x1
 9444 29a7 9C       		.byte	0x9c
 9445 29a8 CB2A0000 		.4byte	0x2acb
 9446 29ac 18       		.uleb128 0x18
 9447 29ad 756900   		.ascii	"ui\000"
 9448 29b0 01       		.byte	0x1
 9449 29b1 1206     		.2byte	0x612
 9450 29b3 FB020000 		.4byte	0x2fb
 9451 29b7 BD230000 		.4byte	.LLST174
 9452 29bb 18       		.uleb128 0x18
 9453 29bc 6D736700 		.ascii	"msg\000"
 9454 29c0 01       		.byte	0x1
 9455 29c1 1206     		.2byte	0x612
 9456 29c3 B4000000 		.4byte	0xb4
 9457 29c7 DB230000 		.4byte	.LLST175
 9458 29cb 20       		.uleb128 0x20
 9459 29cc 81100000 		.4byte	.LASF183
 9460 29d0 01       		.byte	0x1
 9461 29d1 1406     		.2byte	0x614
 9462 29d3 E0070000 		.4byte	0x7e0
 9463 29d7 FC230000 		.4byte	.LLST176
 9464 29db 20       		.uleb128 0x20
 9465 29dc 68020000 		.4byte	.LASF188
 9466 29e0 01       		.byte	0x1
 9467 29e1 1506     		.2byte	0x615
 9468 29e3 4B0D0000 		.4byte	0xd4b
 9469 29e7 25240000 		.4byte	.LLST177
 9470 29eb 20       		.uleb128 0x20
 9471 29ec 0E090000 		.4byte	.LASF174
 9472 29f0 01       		.byte	0x1
 9473 29f1 1606     		.2byte	0x616
 9474 29f3 9A0A0000 		.4byte	0xa9a
 9475 29f7 65240000 		.4byte	.LLST178
 9476 29fb 21       		.uleb128 0x21
 9477 29fc F4070000 		.4byte	.LASF48
 9478 2a00 01       		.byte	0x1
 9479 2a01 1706     		.2byte	0x617
 9480 2a03 DC000000 		.4byte	0xdc
 9481 2a07 01       		.uleb128 0x1
 9482 2a08 57       		.byte	0x57
 9483 2a09 21       		.uleb128 0x21
 9484 2a0a 76100000 		.4byte	.LASF229
 9485 2a0e 01       		.byte	0x1
 9486 2a0f 1806     		.2byte	0x618
 9487 2a11 180A0000 		.4byte	0xa18
ARM GAS  C:\Users\brian\AppData\Local\Temp\ccwE2E8f.s 			page 204


 9488 2a15 01       		.uleb128 0x1
 9489 2a16 58       		.byte	0x58
 9490 2a17 22       		.uleb128 0x22
 9491 2a18 706F7300 		.ascii	"pos\000"
 9492 2a1c 01       		.byte	0x1
 9493 2a1d 1B06     		.2byte	0x61b
 9494 2a1f BF000000 		.4byte	0xbf
 9495 2a23 8E240000 		.4byte	.LLST179
 9496 2a27 1C       		.uleb128 0x1c
 9497 2a28 0C000000 		.4byte	.LVL565
 9498 2a2c 790D0000 		.4byte	0xd79
 9499 2a30 3B2A0000 		.4byte	0x2a3b
 9500 2a34 1D       		.uleb128 0x1d
 9501 2a35 01       		.uleb128 0x1
 9502 2a36 50       		.byte	0x50
 9503 2a37 02       		.uleb128 0x2
 9504 2a38 75       		.byte	0x75
 9505 2a39 00       		.sleb128 0
 9506 2a3a 00       		.byte	0
 9507 2a3b 1C       		.uleb128 0x1c
 9508 2a3c 36000000 		.4byte	.LVL575
 9509 2a40 A10D0000 		.4byte	0xda1
 9510 2a44 4F2A0000 		.4byte	0x2a4f
 9511 2a48 1D       		.uleb128 0x1d
 9512 2a49 01       		.uleb128 0x1
 9513 2a4a 50       		.byte	0x50
 9514 2a4b 02       		.uleb128 0x2
 9515 2a4c 75       		.byte	0x75
 9516 2a4d 00       		.sleb128 0
 9517 2a4e 00       		.byte	0
 9518 2a4f 2D       		.uleb128 0x2d
 9519 2a50 44000000 		.4byte	.LVL576
 9520 2a54 652A0000 		.4byte	0x2a65
 9521 2a58 1D       		.uleb128 0x1d
 9522 2a59 01       		.uleb128 0x1
 9523 2a5a 50       		.byte	0x50
 9524 2a5b 02       		.uleb128 0x2
 9525 2a5c 77       		.byte	0x77
 9526 2a5d 00       		.sleb128 0
 9527 2a5e 1D       		.uleb128 0x1d
 9528 2a5f 01       		.uleb128 0x1
 9529 2a60 51       		.byte	0x51
 9530 2a61 02       		.uleb128 0x2
 9531 2a62 74       		.byte	0x74
 9532 2a63 00       		.sleb128 0
 9533 2a64 00       		.byte	0
 9534 2a65 1C       		.uleb128 0x1c
 9535 2a66 50000000 		.4byte	.LVL577
 9536 2a6a F50E0000 		.4byte	0xef5
 9537 2a6e 852A0000 		.4byte	0x2a85
 9538 2a72 1D       		.uleb128 0x1d
 9539 2a73 01       		.uleb128 0x1
 9540 2a74 50       		.byte	0x50
 9541 2a75 02       		.uleb128 0x2
 9542 2a76 75       		.byte	0x75
 9543 2a77 00       		.sleb128 0
 9544 2a78 1D       		.uleb128 0x1d
ARM GAS  C:\Users\brian\AppData\Local\Temp\ccwE2E8f.s 			page 205


 9545 2a79 01       		.uleb128 0x1
 9546 2a7a 51       		.byte	0x51
 9547 2a7b 02       		.uleb128 0x2
 9548 2a7c 76       		.byte	0x76
 9549 2a7d 00       		.sleb128 0
 9550 2a7e 1D       		.uleb128 0x1d
 9551 2a7f 01       		.uleb128 0x1
 9552 2a80 52       		.byte	0x52
 9553 2a81 02       		.uleb128 0x2
 9554 2a82 79       		.byte	0x79
 9555 2a83 00       		.sleb128 0
 9556 2a84 00       		.byte	0
 9557 2a85 2D       		.uleb128 0x2d
 9558 2a86 60000000 		.4byte	.LVL581
 9559 2a8a 9B2A0000 		.4byte	0x2a9b
 9560 2a8e 1D       		.uleb128 0x1d
 9561 2a8f 01       		.uleb128 0x1
 9562 2a90 50       		.byte	0x50
 9563 2a91 02       		.uleb128 0x2
 9564 2a92 77       		.byte	0x77
 9565 2a93 00       		.sleb128 0
 9566 2a94 1D       		.uleb128 0x1d
 9567 2a95 01       		.uleb128 0x1
 9568 2a96 51       		.byte	0x51
 9569 2a97 02       		.uleb128 0x2
 9570 2a98 74       		.byte	0x74
 9571 2a99 00       		.sleb128 0
 9572 2a9a 00       		.byte	0
 9573 2a9b 1C       		.uleb128 0x1c
 9574 2a9c 6A000000 		.4byte	.LVL582
 9575 2aa0 1F2B0000 		.4byte	0x2b1f
 9576 2aa4 B42A0000 		.4byte	0x2ab4
 9577 2aa8 1D       		.uleb128 0x1d
 9578 2aa9 01       		.uleb128 0x1
 9579 2aaa 50       		.byte	0x50
 9580 2aab 02       		.uleb128 0x2
 9581 2aac 75       		.byte	0x75
 9582 2aad 00       		.sleb128 0
 9583 2aae 1D       		.uleb128 0x1d
 9584 2aaf 01       		.uleb128 0x1
 9585 2ab0 52       		.byte	0x52
 9586 2ab1 01       		.uleb128 0x1
 9587 2ab2 30       		.byte	0x30
 9588 2ab3 00       		.byte	0
 9589 2ab4 1E       		.uleb128 0x1e
 9590 2ab5 78000000 		.4byte	.LVL585
 9591 2ab9 790C0000 		.4byte	0xc79
 9592 2abd 1D       		.uleb128 0x1d
 9593 2abe 01       		.uleb128 0x1
 9594 2abf 50       		.byte	0x50
 9595 2ac0 02       		.uleb128 0x2
 9596 2ac1 75       		.byte	0x75
 9597 2ac2 00       		.sleb128 0
 9598 2ac3 1D       		.uleb128 0x1d
 9599 2ac4 01       		.uleb128 0x1
 9600 2ac5 51       		.byte	0x51
 9601 2ac6 02       		.uleb128 0x2
ARM GAS  C:\Users\brian\AppData\Local\Temp\ccwE2E8f.s 			page 206


 9602 2ac7 76       		.byte	0x76
 9603 2ac8 00       		.sleb128 0
 9604 2ac9 00       		.byte	0
 9605 2aca 00       		.byte	0
 9606 2acb 2E       		.uleb128 0x2e
 9607 2acc 1F040000 		.4byte	.LASF234
 9608 2ad0 1F040000 		.4byte	.LASF234
 9609 2ad4 07       		.byte	0x7
 9610 2ad5 B305     		.2byte	0x5b3
 9611 2ad7 2E       		.uleb128 0x2e
 9612 2ad8 DE020000 		.4byte	.LASF235
 9613 2adc DE020000 		.4byte	.LASF235
 9614 2ae0 07       		.byte	0x7
 9615 2ae1 B205     		.2byte	0x5b2
 9616 2ae3 2E       		.uleb128 0x2e
 9617 2ae4 A5040000 		.4byte	.LASF236
 9618 2ae8 A5040000 		.4byte	.LASF236
 9619 2aec 05       		.byte	0x5
 9620 2aed 1102     		.2byte	0x211
 9621 2aef 2E       		.uleb128 0x2e
 9622 2af0 B90A0000 		.4byte	.LASF237
 9623 2af4 B90A0000 		.4byte	.LASF237
 9624 2af8 07       		.byte	0x7
 9625 2af9 D305     		.2byte	0x5d3
 9626 2afb 2E       		.uleb128 0x2e
 9627 2afc 47020000 		.4byte	.LASF238
 9628 2b00 47020000 		.4byte	.LASF238
 9629 2b04 07       		.byte	0x7
 9630 2b05 0A06     		.2byte	0x60a
 9631 2b07 2E       		.uleb128 0x2e
 9632 2b08 360A0000 		.4byte	.LASF239
 9633 2b0c 360A0000 		.4byte	.LASF239
 9634 2b10 06       		.byte	0x6
 9635 2b11 F503     		.2byte	0x3f5
 9636 2b13 2E       		.uleb128 0x2e
 9637 2b14 12040000 		.4byte	.LASF240
 9638 2b18 12040000 		.4byte	.LASF240
 9639 2b1c 07       		.byte	0x7
 9640 2b1d FC05     		.2byte	0x5fc
 9641 2b1f 2E       		.uleb128 0x2e
 9642 2b20 2D090000 		.4byte	.LASF241
 9643 2b24 2D090000 		.4byte	.LASF241
 9644 2b28 05       		.byte	0x5
 9645 2b29 0F02     		.2byte	0x20f
 9646 2b2b 2E       		.uleb128 0x2e
 9647 2b2c 990B0000 		.4byte	.LASF242
 9648 2b30 990B0000 		.4byte	.LASF242
 9649 2b34 05       		.byte	0x5
 9650 2b35 0E02     		.2byte	0x20e
 9651 2b37 2E       		.uleb128 0x2e
 9652 2b38 B30D0000 		.4byte	.LASF243
 9653 2b3c B30D0000 		.4byte	.LASF243
 9654 2b40 05       		.byte	0x5
 9655 2b41 0302     		.2byte	0x203
 9656 2b43 2E       		.uleb128 0x2e
 9657 2b44 34060000 		.4byte	.LASF244
 9658 2b48 34060000 		.4byte	.LASF244
ARM GAS  C:\Users\brian\AppData\Local\Temp\ccwE2E8f.s 			page 207


 9659 2b4c 05       		.byte	0x5
 9660 2b4d 0402     		.2byte	0x204
 9661 2b4f 2E       		.uleb128 0x2e
 9662 2b50 9C070000 		.4byte	.LASF245
 9663 2b54 9C070000 		.4byte	.LASF245
 9664 2b58 07       		.byte	0x7
 9665 2b59 0B06     		.2byte	0x60b
 9666 2b5b 2E       		.uleb128 0x2e
 9667 2b5c 92010000 		.4byte	.LASF246
 9668 2b60 92010000 		.4byte	.LASF246
 9669 2b64 07       		.byte	0x7
 9670 2b65 FD05     		.2byte	0x5fd
 9671 2b67 2E       		.uleb128 0x2e
 9672 2b68 CE070000 		.4byte	.LASF247
 9673 2b6c CE070000 		.4byte	.LASF247
 9674 2b70 07       		.byte	0x7
 9675 2b71 D205     		.2byte	0x5d2
 9676 2b73 2E       		.uleb128 0x2e
 9677 2b74 8A0D0000 		.4byte	.LASF248
 9678 2b78 8A0D0000 		.4byte	.LASF248
 9679 2b7c 05       		.byte	0x5
 9680 2b7d 1002     		.2byte	0x210
 9681 2b7f 2E       		.uleb128 0x2e
 9682 2b80 920F0000 		.4byte	.LASF249
 9683 2b84 920F0000 		.4byte	.LASF249
 9684 2b88 05       		.byte	0x5
 9685 2b89 0C02     		.2byte	0x20c
 9686 2b8b 2E       		.uleb128 0x2e
 9687 2b8c F60B0000 		.4byte	.LASF250
 9688 2b90 F60B0000 		.4byte	.LASF250
 9689 2b94 05       		.byte	0x5
 9690 2b95 0A02     		.2byte	0x20a
 9691 2b97 00       		.byte	0
 9692              		.section	.debug_abbrev,"",%progbits
 9693              	.Ldebug_abbrev0:
 9694 0000 01       		.uleb128 0x1
 9695 0001 11       		.uleb128 0x11
 9696 0002 01       		.byte	0x1
 9697 0003 25       		.uleb128 0x25
 9698 0004 0E       		.uleb128 0xe
 9699 0005 13       		.uleb128 0x13
 9700 0006 0B       		.uleb128 0xb
 9701 0007 03       		.uleb128 0x3
 9702 0008 0E       		.uleb128 0xe
 9703 0009 1B       		.uleb128 0x1b
 9704 000a 0E       		.uleb128 0xe
 9705 000b 55       		.uleb128 0x55
 9706 000c 17       		.uleb128 0x17
 9707 000d 11       		.uleb128 0x11
 9708 000e 01       		.uleb128 0x1
 9709 000f 10       		.uleb128 0x10
 9710 0010 17       		.uleb128 0x17
 9711 0011 00       		.byte	0
 9712 0012 00       		.byte	0
 9713 0013 02       		.uleb128 0x2
 9714 0014 24       		.uleb128 0x24
 9715 0015 00       		.byte	0
ARM GAS  C:\Users\brian\AppData\Local\Temp\ccwE2E8f.s 			page 208


 9716 0016 0B       		.uleb128 0xb
 9717 0017 0B       		.uleb128 0xb
 9718 0018 3E       		.uleb128 0x3e
 9719 0019 0B       		.uleb128 0xb
 9720 001a 03       		.uleb128 0x3
 9721 001b 08       		.uleb128 0x8
 9722 001c 00       		.byte	0
 9723 001d 00       		.byte	0
 9724 001e 03       		.uleb128 0x3
 9725 001f 16       		.uleb128 0x16
 9726 0020 00       		.byte	0
 9727 0021 03       		.uleb128 0x3
 9728 0022 0E       		.uleb128 0xe
 9729 0023 3A       		.uleb128 0x3a
 9730 0024 0B       		.uleb128 0xb
 9731 0025 3B       		.uleb128 0x3b
 9732 0026 0B       		.uleb128 0xb
 9733 0027 49       		.uleb128 0x49
 9734 0028 13       		.uleb128 0x13
 9735 0029 00       		.byte	0
 9736 002a 00       		.byte	0
 9737 002b 04       		.uleb128 0x4
 9738 002c 24       		.uleb128 0x24
 9739 002d 00       		.byte	0
 9740 002e 0B       		.uleb128 0xb
 9741 002f 0B       		.uleb128 0xb
 9742 0030 3E       		.uleb128 0x3e
 9743 0031 0B       		.uleb128 0xb
 9744 0032 03       		.uleb128 0x3
 9745 0033 0E       		.uleb128 0xe
 9746 0034 00       		.byte	0
 9747 0035 00       		.byte	0
 9748 0036 05       		.uleb128 0x5
 9749 0037 0F       		.uleb128 0xf
 9750 0038 00       		.byte	0
 9751 0039 0B       		.uleb128 0xb
 9752 003a 0B       		.uleb128 0xb
 9753 003b 00       		.byte	0
 9754 003c 00       		.byte	0
 9755 003d 06       		.uleb128 0x6
 9756 003e 0F       		.uleb128 0xf
 9757 003f 00       		.byte	0
 9758 0040 0B       		.uleb128 0xb
 9759 0041 0B       		.uleb128 0xb
 9760 0042 49       		.uleb128 0x49
 9761 0043 13       		.uleb128 0x13
 9762 0044 00       		.byte	0
 9763 0045 00       		.byte	0
 9764 0046 07       		.uleb128 0x7
 9765 0047 26       		.uleb128 0x26
 9766 0048 00       		.byte	0
 9767 0049 49       		.uleb128 0x49
 9768 004a 13       		.uleb128 0x13
 9769 004b 00       		.byte	0
 9770 004c 00       		.byte	0
 9771 004d 08       		.uleb128 0x8
 9772 004e 13       		.uleb128 0x13
ARM GAS  C:\Users\brian\AppData\Local\Temp\ccwE2E8f.s 			page 209


 9773 004f 01       		.byte	0x1
 9774 0050 03       		.uleb128 0x3
 9775 0051 0E       		.uleb128 0xe
 9776 0052 0B       		.uleb128 0xb
 9777 0053 0B       		.uleb128 0xb
 9778 0054 3A       		.uleb128 0x3a
 9779 0055 0B       		.uleb128 0xb
 9780 0056 3B       		.uleb128 0x3b
 9781 0057 0B       		.uleb128 0xb
 9782 0058 01       		.uleb128 0x1
 9783 0059 13       		.uleb128 0x13
 9784 005a 00       		.byte	0
 9785 005b 00       		.byte	0
 9786 005c 09       		.uleb128 0x9
 9787 005d 0D       		.uleb128 0xd
 9788 005e 00       		.byte	0
 9789 005f 03       		.uleb128 0x3
 9790 0060 0E       		.uleb128 0xe
 9791 0061 3A       		.uleb128 0x3a
 9792 0062 0B       		.uleb128 0xb
 9793 0063 3B       		.uleb128 0x3b
 9794 0064 0B       		.uleb128 0xb
 9795 0065 49       		.uleb128 0x49
 9796 0066 13       		.uleb128 0x13
 9797 0067 38       		.uleb128 0x38
 9798 0068 0B       		.uleb128 0xb
 9799 0069 00       		.byte	0
 9800 006a 00       		.byte	0
 9801 006b 0A       		.uleb128 0xa
 9802 006c 0D       		.uleb128 0xd
 9803 006d 00       		.byte	0
 9804 006e 03       		.uleb128 0x3
 9805 006f 08       		.uleb128 0x8
 9806 0070 3A       		.uleb128 0x3a
 9807 0071 0B       		.uleb128 0xb
 9808 0072 3B       		.uleb128 0x3b
 9809 0073 0B       		.uleb128 0xb
 9810 0074 49       		.uleb128 0x49
 9811 0075 13       		.uleb128 0x13
 9812 0076 38       		.uleb128 0x38
 9813 0077 0B       		.uleb128 0xb
 9814 0078 00       		.byte	0
 9815 0079 00       		.byte	0
 9816 007a 0B       		.uleb128 0xb
 9817 007b 15       		.uleb128 0x15
 9818 007c 01       		.byte	0x1
 9819 007d 27       		.uleb128 0x27
 9820 007e 19       		.uleb128 0x19
 9821 007f 49       		.uleb128 0x49
 9822 0080 13       		.uleb128 0x13
 9823 0081 01       		.uleb128 0x1
 9824 0082 13       		.uleb128 0x13
 9825 0083 00       		.byte	0
 9826 0084 00       		.byte	0
 9827 0085 0C       		.uleb128 0xc
 9828 0086 05       		.uleb128 0x5
 9829 0087 00       		.byte	0
ARM GAS  C:\Users\brian\AppData\Local\Temp\ccwE2E8f.s 			page 210


 9830 0088 49       		.uleb128 0x49
 9831 0089 13       		.uleb128 0x13
 9832 008a 00       		.byte	0
 9833 008b 00       		.byte	0
 9834 008c 0D       		.uleb128 0xd
 9835 008d 01       		.uleb128 0x1
 9836 008e 01       		.byte	0x1
 9837 008f 49       		.uleb128 0x49
 9838 0090 13       		.uleb128 0x13
 9839 0091 01       		.uleb128 0x1
 9840 0092 13       		.uleb128 0x13
 9841 0093 00       		.byte	0
 9842 0094 00       		.byte	0
 9843 0095 0E       		.uleb128 0xe
 9844 0096 21       		.uleb128 0x21
 9845 0097 00       		.byte	0
 9846 0098 49       		.uleb128 0x49
 9847 0099 13       		.uleb128 0x13
 9848 009a 2F       		.uleb128 0x2f
 9849 009b 0B       		.uleb128 0xb
 9850 009c 00       		.byte	0
 9851 009d 00       		.byte	0
 9852 009e 0F       		.uleb128 0xf
 9853 009f 13       		.uleb128 0x13
 9854 00a0 01       		.byte	0x1
 9855 00a1 03       		.uleb128 0x3
 9856 00a2 0E       		.uleb128 0xe
 9857 00a3 0B       		.uleb128 0xb
 9858 00a4 0B       		.uleb128 0xb
 9859 00a5 3A       		.uleb128 0x3a
 9860 00a6 0B       		.uleb128 0xb
 9861 00a7 3B       		.uleb128 0x3b
 9862 00a8 05       		.uleb128 0x5
 9863 00a9 01       		.uleb128 0x1
 9864 00aa 13       		.uleb128 0x13
 9865 00ab 00       		.byte	0
 9866 00ac 00       		.byte	0
 9867 00ad 10       		.uleb128 0x10
 9868 00ae 0D       		.uleb128 0xd
 9869 00af 00       		.byte	0
 9870 00b0 03       		.uleb128 0x3
 9871 00b1 0E       		.uleb128 0xe
 9872 00b2 3A       		.uleb128 0x3a
 9873 00b3 0B       		.uleb128 0xb
 9874 00b4 3B       		.uleb128 0x3b
 9875 00b5 05       		.uleb128 0x5
 9876 00b6 49       		.uleb128 0x49
 9877 00b7 13       		.uleb128 0x13
 9878 00b8 38       		.uleb128 0x38
 9879 00b9 0B       		.uleb128 0xb
 9880 00ba 00       		.byte	0
 9881 00bb 00       		.byte	0
 9882 00bc 11       		.uleb128 0x11
 9883 00bd 0D       		.uleb128 0xd
 9884 00be 00       		.byte	0
 9885 00bf 03       		.uleb128 0x3
 9886 00c0 08       		.uleb128 0x8
ARM GAS  C:\Users\brian\AppData\Local\Temp\ccwE2E8f.s 			page 211


 9887 00c1 3A       		.uleb128 0x3a
 9888 00c2 0B       		.uleb128 0xb
 9889 00c3 3B       		.uleb128 0x3b
 9890 00c4 05       		.uleb128 0x5
 9891 00c5 49       		.uleb128 0x49
 9892 00c6 13       		.uleb128 0x13
 9893 00c7 38       		.uleb128 0x38
 9894 00c8 0B       		.uleb128 0xb
 9895 00c9 00       		.byte	0
 9896 00ca 00       		.byte	0
 9897 00cb 12       		.uleb128 0x12
 9898 00cc 15       		.uleb128 0x15
 9899 00cd 01       		.byte	0x1
 9900 00ce 27       		.uleb128 0x27
 9901 00cf 19       		.uleb128 0x19
 9902 00d0 01       		.uleb128 0x1
 9903 00d1 13       		.uleb128 0x13
 9904 00d2 00       		.byte	0
 9905 00d3 00       		.byte	0
 9906 00d4 13       		.uleb128 0x13
 9907 00d5 16       		.uleb128 0x16
 9908 00d6 00       		.byte	0
 9909 00d7 03       		.uleb128 0x3
 9910 00d8 0E       		.uleb128 0xe
 9911 00d9 3A       		.uleb128 0x3a
 9912 00da 0B       		.uleb128 0xb
 9913 00db 3B       		.uleb128 0x3b
 9914 00dc 05       		.uleb128 0x5
 9915 00dd 49       		.uleb128 0x49
 9916 00de 13       		.uleb128 0x13
 9917 00df 00       		.byte	0
 9918 00e0 00       		.byte	0
 9919 00e1 14       		.uleb128 0x14
 9920 00e2 2E       		.uleb128 0x2e
 9921 00e3 01       		.byte	0x1
 9922 00e4 03       		.uleb128 0x3
 9923 00e5 0E       		.uleb128 0xe
 9924 00e6 3A       		.uleb128 0x3a
 9925 00e7 0B       		.uleb128 0xb
 9926 00e8 3B       		.uleb128 0x3b
 9927 00e9 0B       		.uleb128 0xb
 9928 00ea 27       		.uleb128 0x27
 9929 00eb 19       		.uleb128 0x19
 9930 00ec 49       		.uleb128 0x49
 9931 00ed 13       		.uleb128 0x13
 9932 00ee 11       		.uleb128 0x11
 9933 00ef 01       		.uleb128 0x1
 9934 00f0 12       		.uleb128 0x12
 9935 00f1 06       		.uleb128 0x6
 9936 00f2 40       		.uleb128 0x40
 9937 00f3 18       		.uleb128 0x18
 9938 00f4 9742     		.uleb128 0x2117
 9939 00f6 19       		.uleb128 0x19
 9940 00f7 01       		.uleb128 0x1
 9941 00f8 13       		.uleb128 0x13
 9942 00f9 00       		.byte	0
 9943 00fa 00       		.byte	0
ARM GAS  C:\Users\brian\AppData\Local\Temp\ccwE2E8f.s 			page 212


 9944 00fb 15       		.uleb128 0x15
 9945 00fc 05       		.uleb128 0x5
 9946 00fd 00       		.byte	0
 9947 00fe 03       		.uleb128 0x3
 9948 00ff 08       		.uleb128 0x8
 9949 0100 3A       		.uleb128 0x3a
 9950 0101 0B       		.uleb128 0xb
 9951 0102 3B       		.uleb128 0x3b
 9952 0103 0B       		.uleb128 0xb
 9953 0104 49       		.uleb128 0x49
 9954 0105 13       		.uleb128 0x13
 9955 0106 02       		.uleb128 0x2
 9956 0107 17       		.uleb128 0x17
 9957 0108 00       		.byte	0
 9958 0109 00       		.byte	0
 9959 010a 16       		.uleb128 0x16
 9960 010b 34       		.uleb128 0x34
 9961 010c 00       		.byte	0
 9962 010d 03       		.uleb128 0x3
 9963 010e 08       		.uleb128 0x8
 9964 010f 3A       		.uleb128 0x3a
 9965 0110 0B       		.uleb128 0xb
 9966 0111 3B       		.uleb128 0x3b
 9967 0112 0B       		.uleb128 0xb
 9968 0113 49       		.uleb128 0x49
 9969 0114 13       		.uleb128 0x13
 9970 0115 02       		.uleb128 0x2
 9971 0116 17       		.uleb128 0x17
 9972 0117 00       		.byte	0
 9973 0118 00       		.byte	0
 9974 0119 17       		.uleb128 0x17
 9975 011a 2E       		.uleb128 0x2e
 9976 011b 01       		.byte	0x1
 9977 011c 03       		.uleb128 0x3
 9978 011d 0E       		.uleb128 0xe
 9979 011e 3A       		.uleb128 0x3a
 9980 011f 0B       		.uleb128 0xb
 9981 0120 3B       		.uleb128 0x3b
 9982 0121 05       		.uleb128 0x5
 9983 0122 27       		.uleb128 0x27
 9984 0123 19       		.uleb128 0x19
 9985 0124 49       		.uleb128 0x49
 9986 0125 13       		.uleb128 0x13
 9987 0126 11       		.uleb128 0x11
 9988 0127 01       		.uleb128 0x1
 9989 0128 12       		.uleb128 0x12
 9990 0129 06       		.uleb128 0x6
 9991 012a 40       		.uleb128 0x40
 9992 012b 18       		.uleb128 0x18
 9993 012c 9742     		.uleb128 0x2117
 9994 012e 19       		.uleb128 0x19
 9995 012f 01       		.uleb128 0x1
 9996 0130 13       		.uleb128 0x13
 9997 0131 00       		.byte	0
 9998 0132 00       		.byte	0
 9999 0133 18       		.uleb128 0x18
 10000 0134 05       		.uleb128 0x5
ARM GAS  C:\Users\brian\AppData\Local\Temp\ccwE2E8f.s 			page 213


 10001 0135 00       		.byte	0
 10002 0136 03       		.uleb128 0x3
 10003 0137 08       		.uleb128 0x8
 10004 0138 3A       		.uleb128 0x3a
 10005 0139 0B       		.uleb128 0xb
 10006 013a 3B       		.uleb128 0x3b
 10007 013b 05       		.uleb128 0x5
 10008 013c 49       		.uleb128 0x49
 10009 013d 13       		.uleb128 0x13
 10010 013e 02       		.uleb128 0x2
 10011 013f 17       		.uleb128 0x17
 10012 0140 00       		.byte	0
 10013 0141 00       		.byte	0
 10014 0142 19       		.uleb128 0x19
 10015 0143 2E       		.uleb128 0x2e
 10016 0144 01       		.byte	0x1
 10017 0145 03       		.uleb128 0x3
 10018 0146 0E       		.uleb128 0xe
 10019 0147 3A       		.uleb128 0x3a
 10020 0148 0B       		.uleb128 0xb
 10021 0149 3B       		.uleb128 0x3b
 10022 014a 0B       		.uleb128 0xb
 10023 014b 27       		.uleb128 0x27
 10024 014c 19       		.uleb128 0x19
 10025 014d 11       		.uleb128 0x11
 10026 014e 01       		.uleb128 0x1
 10027 014f 12       		.uleb128 0x12
 10028 0150 06       		.uleb128 0x6
 10029 0151 40       		.uleb128 0x40
 10030 0152 18       		.uleb128 0x18
 10031 0153 9742     		.uleb128 0x2117
 10032 0155 19       		.uleb128 0x19
 10033 0156 01       		.uleb128 0x1
 10034 0157 13       		.uleb128 0x13
 10035 0158 00       		.byte	0
 10036 0159 00       		.byte	0
 10037 015a 1A       		.uleb128 0x1a
 10038 015b 05       		.uleb128 0x5
 10039 015c 00       		.byte	0
 10040 015d 03       		.uleb128 0x3
 10041 015e 0E       		.uleb128 0xe
 10042 015f 3A       		.uleb128 0x3a
 10043 0160 0B       		.uleb128 0xb
 10044 0161 3B       		.uleb128 0x3b
 10045 0162 0B       		.uleb128 0xb
 10046 0163 49       		.uleb128 0x49
 10047 0164 13       		.uleb128 0x13
 10048 0165 02       		.uleb128 0x2
 10049 0166 17       		.uleb128 0x17
 10050 0167 00       		.byte	0
 10051 0168 00       		.byte	0
 10052 0169 1B       		.uleb128 0x1b
 10053 016a 05       		.uleb128 0x5
 10054 016b 00       		.byte	0
 10055 016c 03       		.uleb128 0x3
 10056 016d 0E       		.uleb128 0xe
 10057 016e 3A       		.uleb128 0x3a
ARM GAS  C:\Users\brian\AppData\Local\Temp\ccwE2E8f.s 			page 214


 10058 016f 0B       		.uleb128 0xb
 10059 0170 3B       		.uleb128 0x3b
 10060 0171 0B       		.uleb128 0xb
 10061 0172 49       		.uleb128 0x49
 10062 0173 13       		.uleb128 0x13
 10063 0174 02       		.uleb128 0x2
 10064 0175 18       		.uleb128 0x18
 10065 0176 00       		.byte	0
 10066 0177 00       		.byte	0
 10067 0178 1C       		.uleb128 0x1c
 10068 0179 898201   		.uleb128 0x4109
 10069 017c 01       		.byte	0x1
 10070 017d 11       		.uleb128 0x11
 10071 017e 01       		.uleb128 0x1
 10072 017f 31       		.uleb128 0x31
 10073 0180 13       		.uleb128 0x13
 10074 0181 01       		.uleb128 0x1
 10075 0182 13       		.uleb128 0x13
 10076 0183 00       		.byte	0
 10077 0184 00       		.byte	0
 10078 0185 1D       		.uleb128 0x1d
 10079 0186 8A8201   		.uleb128 0x410a
 10080 0189 00       		.byte	0
 10081 018a 02       		.uleb128 0x2
 10082 018b 18       		.uleb128 0x18
 10083 018c 9142     		.uleb128 0x2111
 10084 018e 18       		.uleb128 0x18
 10085 018f 00       		.byte	0
 10086 0190 00       		.byte	0
 10087 0191 1E       		.uleb128 0x1e
 10088 0192 898201   		.uleb128 0x4109
 10089 0195 01       		.byte	0x1
 10090 0196 11       		.uleb128 0x11
 10091 0197 01       		.uleb128 0x1
 10092 0198 31       		.uleb128 0x31
 10093 0199 13       		.uleb128 0x13
 10094 019a 00       		.byte	0
 10095 019b 00       		.byte	0
 10096 019c 1F       		.uleb128 0x1f
 10097 019d 2E       		.uleb128 0x2e
 10098 019e 01       		.byte	0x1
 10099 019f 03       		.uleb128 0x3
 10100 01a0 0E       		.uleb128 0xe
 10101 01a1 3A       		.uleb128 0x3a
 10102 01a2 0B       		.uleb128 0xb
 10103 01a3 3B       		.uleb128 0x3b
 10104 01a4 05       		.uleb128 0x5
 10105 01a5 27       		.uleb128 0x27
 10106 01a6 19       		.uleb128 0x19
 10107 01a7 49       		.uleb128 0x49
 10108 01a8 13       		.uleb128 0x13
 10109 01a9 11       		.uleb128 0x11
 10110 01aa 01       		.uleb128 0x1
 10111 01ab 12       		.uleb128 0x12
 10112 01ac 06       		.uleb128 0x6
 10113 01ad 40       		.uleb128 0x40
 10114 01ae 18       		.uleb128 0x18
ARM GAS  C:\Users\brian\AppData\Local\Temp\ccwE2E8f.s 			page 215


 10115 01af 9642     		.uleb128 0x2116
 10116 01b1 19       		.uleb128 0x19
 10117 01b2 01       		.uleb128 0x1
 10118 01b3 13       		.uleb128 0x13
 10119 01b4 00       		.byte	0
 10120 01b5 00       		.byte	0
 10121 01b6 20       		.uleb128 0x20
 10122 01b7 34       		.uleb128 0x34
 10123 01b8 00       		.byte	0
 10124 01b9 03       		.uleb128 0x3
 10125 01ba 0E       		.uleb128 0xe
 10126 01bb 3A       		.uleb128 0x3a
 10127 01bc 0B       		.uleb128 0xb
 10128 01bd 3B       		.uleb128 0x3b
 10129 01be 05       		.uleb128 0x5
 10130 01bf 49       		.uleb128 0x49
 10131 01c0 13       		.uleb128 0x13
 10132 01c1 02       		.uleb128 0x2
 10133 01c2 17       		.uleb128 0x17
 10134 01c3 00       		.byte	0
 10135 01c4 00       		.byte	0
 10136 01c5 21       		.uleb128 0x21
 10137 01c6 34       		.uleb128 0x34
 10138 01c7 00       		.byte	0
 10139 01c8 03       		.uleb128 0x3
 10140 01c9 0E       		.uleb128 0xe
 10141 01ca 3A       		.uleb128 0x3a
 10142 01cb 0B       		.uleb128 0xb
 10143 01cc 3B       		.uleb128 0x3b
 10144 01cd 05       		.uleb128 0x5
 10145 01ce 49       		.uleb128 0x49
 10146 01cf 13       		.uleb128 0x13
 10147 01d0 02       		.uleb128 0x2
 10148 01d1 18       		.uleb128 0x18
 10149 01d2 00       		.byte	0
 10150 01d3 00       		.byte	0
 10151 01d4 22       		.uleb128 0x22
 10152 01d5 34       		.uleb128 0x34
 10153 01d6 00       		.byte	0
 10154 01d7 03       		.uleb128 0x3
 10155 01d8 08       		.uleb128 0x8
 10156 01d9 3A       		.uleb128 0x3a
 10157 01da 0B       		.uleb128 0xb
 10158 01db 3B       		.uleb128 0x3b
 10159 01dc 05       		.uleb128 0x5
 10160 01dd 49       		.uleb128 0x49
 10161 01de 13       		.uleb128 0x13
 10162 01df 02       		.uleb128 0x2
 10163 01e0 17       		.uleb128 0x17
 10164 01e1 00       		.byte	0
 10165 01e2 00       		.byte	0
 10166 01e3 23       		.uleb128 0x23
 10167 01e4 2E       		.uleb128 0x2e
 10168 01e5 01       		.byte	0x1
 10169 01e6 3F       		.uleb128 0x3f
 10170 01e7 19       		.uleb128 0x19
 10171 01e8 03       		.uleb128 0x3
ARM GAS  C:\Users\brian\AppData\Local\Temp\ccwE2E8f.s 			page 216


 10172 01e9 0E       		.uleb128 0xe
 10173 01ea 3A       		.uleb128 0x3a
 10174 01eb 0B       		.uleb128 0xb
 10175 01ec 3B       		.uleb128 0x3b
 10176 01ed 0B       		.uleb128 0xb
 10177 01ee 27       		.uleb128 0x27
 10178 01ef 19       		.uleb128 0x19
 10179 01f0 49       		.uleb128 0x49
 10180 01f1 13       		.uleb128 0x13
 10181 01f2 11       		.uleb128 0x11
 10182 01f3 01       		.uleb128 0x1
 10183 01f4 12       		.uleb128 0x12
 10184 01f5 06       		.uleb128 0x6
 10185 01f6 40       		.uleb128 0x40
 10186 01f7 18       		.uleb128 0x18
 10187 01f8 9742     		.uleb128 0x2117
 10188 01fa 19       		.uleb128 0x19
 10189 01fb 01       		.uleb128 0x1
 10190 01fc 13       		.uleb128 0x13
 10191 01fd 00       		.byte	0
 10192 01fe 00       		.byte	0
 10193 01ff 24       		.uleb128 0x24
 10194 0200 2E       		.uleb128 0x2e
 10195 0201 01       		.byte	0x1
 10196 0202 3F       		.uleb128 0x3f
 10197 0203 19       		.uleb128 0x19
 10198 0204 03       		.uleb128 0x3
 10199 0205 0E       		.uleb128 0xe
 10200 0206 3A       		.uleb128 0x3a
 10201 0207 0B       		.uleb128 0xb
 10202 0208 3B       		.uleb128 0x3b
 10203 0209 0B       		.uleb128 0xb
 10204 020a 27       		.uleb128 0x27
 10205 020b 19       		.uleb128 0x19
 10206 020c 11       		.uleb128 0x11
 10207 020d 01       		.uleb128 0x1
 10208 020e 12       		.uleb128 0x12
 10209 020f 06       		.uleb128 0x6
 10210 0210 40       		.uleb128 0x40
 10211 0211 18       		.uleb128 0x18
 10212 0212 9742     		.uleb128 0x2117
 10213 0214 19       		.uleb128 0x19
 10214 0215 01       		.uleb128 0x1
 10215 0216 13       		.uleb128 0x13
 10216 0217 00       		.byte	0
 10217 0218 00       		.byte	0
 10218 0219 25       		.uleb128 0x25
 10219 021a 34       		.uleb128 0x34
 10220 021b 00       		.byte	0
 10221 021c 03       		.uleb128 0x3
 10222 021d 0E       		.uleb128 0xe
 10223 021e 3A       		.uleb128 0x3a
 10224 021f 0B       		.uleb128 0xb
 10225 0220 3B       		.uleb128 0x3b
 10226 0221 0B       		.uleb128 0xb
 10227 0222 49       		.uleb128 0x49
 10228 0223 13       		.uleb128 0x13
ARM GAS  C:\Users\brian\AppData\Local\Temp\ccwE2E8f.s 			page 217


 10229 0224 02       		.uleb128 0x2
 10230 0225 17       		.uleb128 0x17
 10231 0226 00       		.byte	0
 10232 0227 00       		.byte	0
 10233 0228 26       		.uleb128 0x26
 10234 0229 2E       		.uleb128 0x2e
 10235 022a 01       		.byte	0x1
 10236 022b 03       		.uleb128 0x3
 10237 022c 0E       		.uleb128 0xe
 10238 022d 3A       		.uleb128 0x3a
 10239 022e 0B       		.uleb128 0xb
 10240 022f 3B       		.uleb128 0x3b
 10241 0230 05       		.uleb128 0x5
 10242 0231 27       		.uleb128 0x27
 10243 0232 19       		.uleb128 0x19
 10244 0233 11       		.uleb128 0x11
 10245 0234 01       		.uleb128 0x1
 10246 0235 12       		.uleb128 0x12
 10247 0236 06       		.uleb128 0x6
 10248 0237 40       		.uleb128 0x40
 10249 0238 18       		.uleb128 0x18
 10250 0239 9742     		.uleb128 0x2117
 10251 023b 19       		.uleb128 0x19
 10252 023c 01       		.uleb128 0x1
 10253 023d 13       		.uleb128 0x13
 10254 023e 00       		.byte	0
 10255 023f 00       		.byte	0
 10256 0240 27       		.uleb128 0x27
 10257 0241 898201   		.uleb128 0x4109
 10258 0244 00       		.byte	0
 10259 0245 11       		.uleb128 0x11
 10260 0246 01       		.uleb128 0x1
 10261 0247 31       		.uleb128 0x31
 10262 0248 13       		.uleb128 0x13
 10263 0249 00       		.byte	0
 10264 024a 00       		.byte	0
 10265 024b 28       		.uleb128 0x28
 10266 024c 2E       		.uleb128 0x2e
 10267 024d 01       		.byte	0x1
 10268 024e 3F       		.uleb128 0x3f
 10269 024f 19       		.uleb128 0x19
 10270 0250 03       		.uleb128 0x3
 10271 0251 0E       		.uleb128 0xe
 10272 0252 3A       		.uleb128 0x3a
 10273 0253 0B       		.uleb128 0xb
 10274 0254 3B       		.uleb128 0x3b
 10275 0255 05       		.uleb128 0x5
 10276 0256 27       		.uleb128 0x27
 10277 0257 19       		.uleb128 0x19
 10278 0258 49       		.uleb128 0x49
 10279 0259 13       		.uleb128 0x13
 10280 025a 11       		.uleb128 0x11
 10281 025b 01       		.uleb128 0x1
 10282 025c 12       		.uleb128 0x12
 10283 025d 06       		.uleb128 0x6
 10284 025e 40       		.uleb128 0x40
 10285 025f 18       		.uleb128 0x18
ARM GAS  C:\Users\brian\AppData\Local\Temp\ccwE2E8f.s 			page 218


 10286 0260 9742     		.uleb128 0x2117
 10287 0262 19       		.uleb128 0x19
 10288 0263 01       		.uleb128 0x1
 10289 0264 13       		.uleb128 0x13
 10290 0265 00       		.byte	0
 10291 0266 00       		.byte	0
 10292 0267 29       		.uleb128 0x29
 10293 0268 0B       		.uleb128 0xb
 10294 0269 01       		.byte	0x1
 10295 026a 11       		.uleb128 0x11
 10296 026b 01       		.uleb128 0x1
 10297 026c 12       		.uleb128 0x12
 10298 026d 06       		.uleb128 0x6
 10299 026e 01       		.uleb128 0x1
 10300 026f 13       		.uleb128 0x13
 10301 0270 00       		.byte	0
 10302 0271 00       		.byte	0
 10303 0272 2A       		.uleb128 0x2a
 10304 0273 34       		.uleb128 0x34
 10305 0274 00       		.byte	0
 10306 0275 03       		.uleb128 0x3
 10307 0276 08       		.uleb128 0x8
 10308 0277 3A       		.uleb128 0x3a
 10309 0278 0B       		.uleb128 0xb
 10310 0279 3B       		.uleb128 0x3b
 10311 027a 05       		.uleb128 0x5
 10312 027b 49       		.uleb128 0x49
 10313 027c 13       		.uleb128 0x13
 10314 027d 02       		.uleb128 0x2
 10315 027e 18       		.uleb128 0x18
 10316 027f 00       		.byte	0
 10317 0280 00       		.byte	0
 10318 0281 2B       		.uleb128 0x2b
 10319 0282 05       		.uleb128 0x5
 10320 0283 00       		.byte	0
 10321 0284 03       		.uleb128 0x3
 10322 0285 08       		.uleb128 0x8
 10323 0286 3A       		.uleb128 0x3a
 10324 0287 0B       		.uleb128 0xb
 10325 0288 3B       		.uleb128 0x3b
 10326 0289 05       		.uleb128 0x5
 10327 028a 49       		.uleb128 0x49
 10328 028b 13       		.uleb128 0x13
 10329 028c 02       		.uleb128 0x2
 10330 028d 18       		.uleb128 0x18
 10331 028e 00       		.byte	0
 10332 028f 00       		.byte	0
 10333 0290 2C       		.uleb128 0x2c
 10334 0291 2E       		.uleb128 0x2e
 10335 0292 01       		.byte	0x1
 10336 0293 3F       		.uleb128 0x3f
 10337 0294 19       		.uleb128 0x19
 10338 0295 03       		.uleb128 0x3
 10339 0296 0E       		.uleb128 0xe
 10340 0297 3A       		.uleb128 0x3a
 10341 0298 0B       		.uleb128 0xb
 10342 0299 3B       		.uleb128 0x3b
ARM GAS  C:\Users\brian\AppData\Local\Temp\ccwE2E8f.s 			page 219


 10343 029a 05       		.uleb128 0x5
 10344 029b 27       		.uleb128 0x27
 10345 029c 19       		.uleb128 0x19
 10346 029d 49       		.uleb128 0x49
 10347 029e 13       		.uleb128 0x13
 10348 029f 11       		.uleb128 0x11
 10349 02a0 01       		.uleb128 0x1
 10350 02a1 12       		.uleb128 0x12
 10351 02a2 06       		.uleb128 0x6
 10352 02a3 40       		.uleb128 0x40
 10353 02a4 18       		.uleb128 0x18
 10354 02a5 9642     		.uleb128 0x2116
 10355 02a7 19       		.uleb128 0x19
 10356 02a8 01       		.uleb128 0x1
 10357 02a9 13       		.uleb128 0x13
 10358 02aa 00       		.byte	0
 10359 02ab 00       		.byte	0
 10360 02ac 2D       		.uleb128 0x2d
 10361 02ad 898201   		.uleb128 0x4109
 10362 02b0 01       		.byte	0x1
 10363 02b1 11       		.uleb128 0x11
 10364 02b2 01       		.uleb128 0x1
 10365 02b3 01       		.uleb128 0x1
 10366 02b4 13       		.uleb128 0x13
 10367 02b5 00       		.byte	0
 10368 02b6 00       		.byte	0
 10369 02b7 2E       		.uleb128 0x2e
 10370 02b8 2E       		.uleb128 0x2e
 10371 02b9 00       		.byte	0
 10372 02ba 3F       		.uleb128 0x3f
 10373 02bb 19       		.uleb128 0x19
 10374 02bc 3C       		.uleb128 0x3c
 10375 02bd 19       		.uleb128 0x19
 10376 02be 6E       		.uleb128 0x6e
 10377 02bf 0E       		.uleb128 0xe
 10378 02c0 03       		.uleb128 0x3
 10379 02c1 0E       		.uleb128 0xe
 10380 02c2 3A       		.uleb128 0x3a
 10381 02c3 0B       		.uleb128 0xb
 10382 02c4 3B       		.uleb128 0x3b
 10383 02c5 05       		.uleb128 0x5
 10384 02c6 00       		.byte	0
 10385 02c7 00       		.byte	0
 10386 02c8 00       		.byte	0
 10387              		.section	.debug_loc,"",%progbits
 10388              	.Ldebug_loc0:
 10389              	.LLST0:
 10390 0000 00000000 		.4byte	.LVL0
 10391 0004 20000000 		.4byte	.LVL3
 10392 0008 0100     		.2byte	0x1
 10393 000a 50       		.byte	0x50
 10394 000b 20000000 		.4byte	.LVL3
 10395 000f 22000000 		.4byte	.LVL4
 10396 0013 0400     		.2byte	0x4
 10397 0015 F3       		.byte	0xf3
 10398 0016 01       		.uleb128 0x1
 10399 0017 50       		.byte	0x50
ARM GAS  C:\Users\brian\AppData\Local\Temp\ccwE2E8f.s 			page 220


 10400 0018 9F       		.byte	0x9f
 10401 0019 22000000 		.4byte	.LVL4
 10402 001d 3C000000 		.4byte	.LVL8
 10403 0021 0100     		.2byte	0x1
 10404 0023 50       		.byte	0x50
 10405 0024 3C000000 		.4byte	.LVL8
 10406 0028 3E000000 		.4byte	.LVL9
 10407 002c 0400     		.2byte	0x4
 10408 002e F3       		.byte	0xf3
 10409 002f 01       		.uleb128 0x1
 10410 0030 50       		.byte	0x50
 10411 0031 9F       		.byte	0x9f
 10412 0032 3E000000 		.4byte	.LVL9
 10413 0036 44000000 		.4byte	.LVL10
 10414 003a 0100     		.2byte	0x1
 10415 003c 50       		.byte	0x50
 10416 003d 44000000 		.4byte	.LVL10
 10417 0041 46000000 		.4byte	.LVL11
 10418 0045 0400     		.2byte	0x4
 10419 0047 F3       		.byte	0xf3
 10420 0048 01       		.uleb128 0x1
 10421 0049 50       		.byte	0x50
 10422 004a 9F       		.byte	0x9f
 10423 004b 46000000 		.4byte	.LVL11
 10424 004f 52000000 		.4byte	.LVL13
 10425 0053 0100     		.2byte	0x1
 10426 0055 50       		.byte	0x50
 10427 0056 52000000 		.4byte	.LVL13
 10428 005a 54000000 		.4byte	.LVL14
 10429 005e 0400     		.2byte	0x4
 10430 0060 F3       		.byte	0xf3
 10431 0061 01       		.uleb128 0x1
 10432 0062 50       		.byte	0x50
 10433 0063 9F       		.byte	0x9f
 10434 0064 54000000 		.4byte	.LVL14
 10435 0068 64000000 		.4byte	.LVL15
 10436 006c 0100     		.2byte	0x1
 10437 006e 50       		.byte	0x50
 10438 006f 64000000 		.4byte	.LVL15
 10439 0073 66000000 		.4byte	.LVL16
 10440 0077 0400     		.2byte	0x4
 10441 0079 F3       		.byte	0xf3
 10442 007a 01       		.uleb128 0x1
 10443 007b 50       		.byte	0x50
 10444 007c 9F       		.byte	0x9f
 10445 007d 66000000 		.4byte	.LVL16
 10446 0081 6C000000 		.4byte	.LVL17
 10447 0085 0100     		.2byte	0x1
 10448 0087 50       		.byte	0x50
 10449 0088 6C000000 		.4byte	.LVL17
 10450 008c 6E000000 		.4byte	.LVL18
 10451 0090 0400     		.2byte	0x4
 10452 0092 F3       		.byte	0xf3
 10453 0093 01       		.uleb128 0x1
 10454 0094 50       		.byte	0x50
 10455 0095 9F       		.byte	0x9f
 10456 0096 6E000000 		.4byte	.LVL18
ARM GAS  C:\Users\brian\AppData\Local\Temp\ccwE2E8f.s 			page 221


 10457 009a 70000000 		.4byte	.LVL19
 10458 009e 0100     		.2byte	0x1
 10459 00a0 50       		.byte	0x50
 10460 00a1 70000000 		.4byte	.LVL19
 10461 00a5 72000000 		.4byte	.LVL20
 10462 00a9 0400     		.2byte	0x4
 10463 00ab F3       		.byte	0xf3
 10464 00ac 01       		.uleb128 0x1
 10465 00ad 50       		.byte	0x50
 10466 00ae 9F       		.byte	0x9f
 10467 00af 72000000 		.4byte	.LVL20
 10468 00b3 74000000 		.4byte	.LVL21
 10469 00b7 0100     		.2byte	0x1
 10470 00b9 50       		.byte	0x50
 10471 00ba 74000000 		.4byte	.LVL21
 10472 00be 76000000 		.4byte	.LVL22
 10473 00c2 0400     		.2byte	0x4
 10474 00c4 F3       		.byte	0xf3
 10475 00c5 01       		.uleb128 0x1
 10476 00c6 50       		.byte	0x50
 10477 00c7 9F       		.byte	0x9f
 10478 00c8 76000000 		.4byte	.LVL22
 10479 00cc 78000000 		.4byte	.LVL23
 10480 00d0 0100     		.2byte	0x1
 10481 00d2 50       		.byte	0x50
 10482 00d3 78000000 		.4byte	.LVL23
 10483 00d7 7A000000 		.4byte	.LVL24
 10484 00db 0400     		.2byte	0x4
 10485 00dd F3       		.byte	0xf3
 10486 00de 01       		.uleb128 0x1
 10487 00df 50       		.byte	0x50
 10488 00e0 9F       		.byte	0x9f
 10489 00e1 7A000000 		.4byte	.LVL24
 10490 00e5 7C000000 		.4byte	.LVL25
 10491 00e9 0100     		.2byte	0x1
 10492 00eb 50       		.byte	0x50
 10493 00ec 7C000000 		.4byte	.LVL25
 10494 00f0 7E000000 		.4byte	.LVL26
 10495 00f4 0400     		.2byte	0x4
 10496 00f6 F3       		.byte	0xf3
 10497 00f7 01       		.uleb128 0x1
 10498 00f8 50       		.byte	0x50
 10499 00f9 9F       		.byte	0x9f
 10500 00fa 7E000000 		.4byte	.LVL26
 10501 00fe 80000000 		.4byte	.LVL27
 10502 0102 0100     		.2byte	0x1
 10503 0104 50       		.byte	0x50
 10504 0105 80000000 		.4byte	.LVL27
 10505 0109 82000000 		.4byte	.LFE12
 10506 010d 0400     		.2byte	0x4
 10507 010f F3       		.byte	0xf3
 10508 0110 01       		.uleb128 0x1
 10509 0111 50       		.byte	0x50
 10510 0112 9F       		.byte	0x9f
 10511 0113 00000000 		.4byte	0
 10512 0117 00000000 		.4byte	0
 10513              	.LLST1:
ARM GAS  C:\Users\brian\AppData\Local\Temp\ccwE2E8f.s 			page 222


 10514 011b 00000000 		.4byte	.LVL0
 10515 011f 32000000 		.4byte	.LVL7
 10516 0123 0100     		.2byte	0x1
 10517 0125 51       		.byte	0x51
 10518 0126 32000000 		.4byte	.LVL7
 10519 012a 46000000 		.4byte	.LVL11
 10520 012e 0400     		.2byte	0x4
 10521 0130 F3       		.byte	0xf3
 10522 0131 01       		.uleb128 0x1
 10523 0132 51       		.byte	0x51
 10524 0133 9F       		.byte	0x9f
 10525 0134 46000000 		.4byte	.LVL11
 10526 0138 82000000 		.4byte	.LFE12
 10527 013c 0100     		.2byte	0x1
 10528 013e 51       		.byte	0x51
 10529 013f 00000000 		.4byte	0
 10530 0143 00000000 		.4byte	0
 10531              	.LLST2:
 10532 0147 04000000 		.4byte	.LVL1
 10533 014b 18000000 		.4byte	.LVL2
 10534 014f 0100     		.2byte	0x1
 10535 0151 53       		.byte	0x53
 10536 0152 18000000 		.4byte	.LVL2
 10537 0156 20000000 		.4byte	.LVL3
 10538 015a 0200     		.2byte	0x2
 10539 015c 70       		.byte	0x70
 10540 015d 2E       		.sleb128 46
 10541 015e 20000000 		.4byte	.LVL3
 10542 0162 22000000 		.4byte	.LVL4
 10543 0166 0500     		.2byte	0x5
 10544 0168 F3       		.byte	0xf3
 10545 0169 01       		.uleb128 0x1
 10546 016a 50       		.byte	0x50
 10547 016b 23       		.byte	0x23
 10548 016c 2E       		.uleb128 0x2e
 10549 016d 22000000 		.4byte	.LVL4
 10550 0171 24000000 		.4byte	.LVL5
 10551 0175 0100     		.2byte	0x1
 10552 0177 53       		.byte	0x53
 10553 0178 24000000 		.4byte	.LVL5
 10554 017c 2E000000 		.4byte	.LVL6
 10555 0180 0300     		.2byte	0x3
 10556 0182 73       		.byte	0x73
 10557 0183 7F       		.sleb128 -1
 10558 0184 9F       		.byte	0x9f
 10559 0185 2E000000 		.4byte	.LVL6
 10560 0189 3C000000 		.4byte	.LVL8
 10561 018d 0200     		.2byte	0x2
 10562 018f 70       		.byte	0x70
 10563 0190 2E       		.sleb128 46
 10564 0191 3C000000 		.4byte	.LVL8
 10565 0195 3E000000 		.4byte	.LVL9
 10566 0199 0500     		.2byte	0x5
 10567 019b F3       		.byte	0xf3
 10568 019c 01       		.uleb128 0x1
 10569 019d 50       		.byte	0x50
 10570 019e 23       		.byte	0x23
ARM GAS  C:\Users\brian\AppData\Local\Temp\ccwE2E8f.s 			page 223


 10571 019f 2E       		.uleb128 0x2e
 10572 01a0 3E000000 		.4byte	.LVL9
 10573 01a4 44000000 		.4byte	.LVL10
 10574 01a8 0200     		.2byte	0x2
 10575 01aa 70       		.byte	0x70
 10576 01ab 2E       		.sleb128 46
 10577 01ac 44000000 		.4byte	.LVL10
 10578 01b0 46000000 		.4byte	.LVL11
 10579 01b4 0500     		.2byte	0x5
 10580 01b6 F3       		.byte	0xf3
 10581 01b7 01       		.uleb128 0x1
 10582 01b8 50       		.byte	0x50
 10583 01b9 23       		.byte	0x23
 10584 01ba 2E       		.uleb128 0x2e
 10585 01bb 46000000 		.4byte	.LVL11
 10586 01bf 4A000000 		.4byte	.LVL12
 10587 01c3 0100     		.2byte	0x1
 10588 01c5 53       		.byte	0x53
 10589 01c6 4A000000 		.4byte	.LVL12
 10590 01ca 52000000 		.4byte	.LVL13
 10591 01ce 0200     		.2byte	0x2
 10592 01d0 70       		.byte	0x70
 10593 01d1 2E       		.sleb128 46
 10594 01d2 52000000 		.4byte	.LVL13
 10595 01d6 54000000 		.4byte	.LVL14
 10596 01da 0500     		.2byte	0x5
 10597 01dc F3       		.byte	0xf3
 10598 01dd 01       		.uleb128 0x1
 10599 01de 50       		.byte	0x50
 10600 01df 23       		.byte	0x23
 10601 01e0 2E       		.uleb128 0x2e
 10602 01e1 54000000 		.4byte	.LVL14
 10603 01e5 64000000 		.4byte	.LVL15
 10604 01e9 0200     		.2byte	0x2
 10605 01eb 70       		.byte	0x70
 10606 01ec 2E       		.sleb128 46
 10607 01ed 64000000 		.4byte	.LVL15
 10608 01f1 66000000 		.4byte	.LVL16
 10609 01f5 0500     		.2byte	0x5
 10610 01f7 F3       		.byte	0xf3
 10611 01f8 01       		.uleb128 0x1
 10612 01f9 50       		.byte	0x50
 10613 01fa 23       		.byte	0x23
 10614 01fb 2E       		.uleb128 0x2e
 10615 01fc 66000000 		.4byte	.LVL16
 10616 0200 6C000000 		.4byte	.LVL17
 10617 0204 0200     		.2byte	0x2
 10618 0206 70       		.byte	0x70
 10619 0207 2E       		.sleb128 46
 10620 0208 6C000000 		.4byte	.LVL17
 10621 020c 6E000000 		.4byte	.LVL18
 10622 0210 0500     		.2byte	0x5
 10623 0212 F3       		.byte	0xf3
 10624 0213 01       		.uleb128 0x1
 10625 0214 50       		.byte	0x50
 10626 0215 23       		.byte	0x23
 10627 0216 2E       		.uleb128 0x2e
ARM GAS  C:\Users\brian\AppData\Local\Temp\ccwE2E8f.s 			page 224


 10628 0217 6E000000 		.4byte	.LVL18
 10629 021b 76000000 		.4byte	.LVL22
 10630 021f 0100     		.2byte	0x1
 10631 0221 53       		.byte	0x53
 10632 0222 76000000 		.4byte	.LVL22
 10633 0226 78000000 		.4byte	.LVL23
 10634 022a 0200     		.2byte	0x2
 10635 022c 70       		.byte	0x70
 10636 022d 2E       		.sleb128 46
 10637 022e 78000000 		.4byte	.LVL23
 10638 0232 7A000000 		.4byte	.LVL24
 10639 0236 0500     		.2byte	0x5
 10640 0238 F3       		.byte	0xf3
 10641 0239 01       		.uleb128 0x1
 10642 023a 50       		.byte	0x50
 10643 023b 23       		.byte	0x23
 10644 023c 2E       		.uleb128 0x2e
 10645 023d 7A000000 		.4byte	.LVL24
 10646 0241 7E000000 		.4byte	.LVL26
 10647 0245 0300     		.2byte	0x3
 10648 0247 73       		.byte	0x73
 10649 0248 7F       		.sleb128 -1
 10650 0249 9F       		.byte	0x9f
 10651 024a 7E000000 		.4byte	.LVL26
 10652 024e 82000000 		.4byte	.LFE12
 10653 0252 0100     		.2byte	0x1
 10654 0254 53       		.byte	0x53
 10655 0255 00000000 		.4byte	0
 10656 0259 00000000 		.4byte	0
 10657              	.LLST3:
 10658 025d 00000000 		.4byte	.LVL28
 10659 0261 1A000000 		.4byte	.LVL29
 10660 0265 0100     		.2byte	0x1
 10661 0267 50       		.byte	0x50
 10662 0268 1A000000 		.4byte	.LVL29
 10663 026c 24000000 		.4byte	.LVL30
 10664 0270 0400     		.2byte	0x4
 10665 0272 F3       		.byte	0xf3
 10666 0273 01       		.uleb128 0x1
 10667 0274 50       		.byte	0x50
 10668 0275 9F       		.byte	0x9f
 10669 0276 24000000 		.4byte	.LVL30
 10670 027a 26000000 		.4byte	.LVL31
 10671 027e 0100     		.2byte	0x1
 10672 0280 50       		.byte	0x50
 10673 0281 26000000 		.4byte	.LVL31
 10674 0285 28000000 		.4byte	.LVL32
 10675 0289 0400     		.2byte	0x4
 10676 028b F3       		.byte	0xf3
 10677 028c 01       		.uleb128 0x1
 10678 028d 50       		.byte	0x50
 10679 028e 9F       		.byte	0x9f
 10680 028f 28000000 		.4byte	.LVL32
 10681 0293 2A000000 		.4byte	.LVL33
 10682 0297 0100     		.2byte	0x1
 10683 0299 50       		.byte	0x50
 10684 029a 2A000000 		.4byte	.LVL33
ARM GAS  C:\Users\brian\AppData\Local\Temp\ccwE2E8f.s 			page 225


 10685 029e 2C000000 		.4byte	.LVL34
 10686 02a2 0400     		.2byte	0x4
 10687 02a4 F3       		.byte	0xf3
 10688 02a5 01       		.uleb128 0x1
 10689 02a6 50       		.byte	0x50
 10690 02a7 9F       		.byte	0x9f
 10691 02a8 2C000000 		.4byte	.LVL34
 10692 02ac 2E000000 		.4byte	.LVL35
 10693 02b0 0100     		.2byte	0x1
 10694 02b2 50       		.byte	0x50
 10695 02b3 2E000000 		.4byte	.LVL35
 10696 02b7 34000000 		.4byte	.LFE25
 10697 02bb 0400     		.2byte	0x4
 10698 02bd F3       		.byte	0xf3
 10699 02be 01       		.uleb128 0x1
 10700 02bf 50       		.byte	0x50
 10701 02c0 9F       		.byte	0x9f
 10702 02c1 00000000 		.4byte	0
 10703 02c5 00000000 		.4byte	0
 10704              	.LLST4:
 10705 02c9 00000000 		.4byte	.LVL36
 10706 02cd 1B000000 		.4byte	.LVL38-1
 10707 02d1 0100     		.2byte	0x1
 10708 02d3 50       		.byte	0x50
 10709 02d4 1B000000 		.4byte	.LVL38-1
 10710 02d8 3A000000 		.4byte	.LFE0
 10711 02dc 0100     		.2byte	0x1
 10712 02de 58       		.byte	0x58
 10713 02df 00000000 		.4byte	0
 10714 02e3 00000000 		.4byte	0
 10715              	.LLST5:
 10716 02e7 00000000 		.4byte	.LVL36
 10717 02eb 1B000000 		.4byte	.LVL38-1
 10718 02ef 0100     		.2byte	0x1
 10719 02f1 51       		.byte	0x51
 10720 02f2 1B000000 		.4byte	.LVL38-1
 10721 02f6 3A000000 		.4byte	.LFE0
 10722 02fa 0400     		.2byte	0x4
 10723 02fc F3       		.byte	0xf3
 10724 02fd 01       		.uleb128 0x1
 10725 02fe 51       		.byte	0x51
 10726 02ff 9F       		.byte	0x9f
 10727 0300 00000000 		.4byte	0
 10728 0304 00000000 		.4byte	0
 10729              	.LLST6:
 10730 0308 00000000 		.4byte	.LVL36
 10731 030c 14000000 		.4byte	.LVL37
 10732 0310 0100     		.2byte	0x1
 10733 0312 52       		.byte	0x52
 10734 0313 14000000 		.4byte	.LVL37
 10735 0317 3A000000 		.4byte	.LFE0
 10736 031b 0400     		.2byte	0x4
 10737 031d F3       		.byte	0xf3
 10738 031e 01       		.uleb128 0x1
 10739 031f 52       		.byte	0x52
 10740 0320 9F       		.byte	0x9f
 10741 0321 00000000 		.4byte	0
ARM GAS  C:\Users\brian\AppData\Local\Temp\ccwE2E8f.s 			page 226


 10742 0325 00000000 		.4byte	0
 10743              	.LLST7:
 10744 0329 00000000 		.4byte	.LVL36
 10745 032d 1B000000 		.4byte	.LVL38-1
 10746 0331 0100     		.2byte	0x1
 10747 0333 53       		.byte	0x53
 10748 0334 1B000000 		.4byte	.LVL38-1
 10749 0338 22000000 		.4byte	.LVL39
 10750 033c 0400     		.2byte	0x4
 10751 033e F3       		.byte	0xf3
 10752 033f 01       		.uleb128 0x1
 10753 0340 53       		.byte	0x53
 10754 0341 9F       		.byte	0x9f
 10755 0342 22000000 		.4byte	.LVL39
 10756 0346 33000000 		.4byte	.LVL40-1
 10757 034a 0100     		.2byte	0x1
 10758 034c 53       		.byte	0x53
 10759 034d 33000000 		.4byte	.LVL40-1
 10760 0351 34000000 		.4byte	.LVL40
 10761 0355 0300     		.2byte	0x3
 10762 0357 74       		.byte	0x74
 10763 0358 7C       		.sleb128 -4
 10764 0359 9F       		.byte	0x9f
 10765 035a 00000000 		.4byte	0
 10766 035e 00000000 		.4byte	0
 10767              	.LLST8:
 10768 0362 00000000 		.4byte	.LVL41
 10769 0366 0D000000 		.4byte	.LVL43-1
 10770 036a 0100     		.2byte	0x1
 10771 036c 50       		.byte	0x50
 10772 036d 0D000000 		.4byte	.LVL43-1
 10773 0371 12000000 		.4byte	.LFE1
 10774 0375 0400     		.2byte	0x4
 10775 0377 F3       		.byte	0xf3
 10776 0378 01       		.uleb128 0x1
 10777 0379 50       		.byte	0x50
 10778 037a 9F       		.byte	0x9f
 10779 037b 00000000 		.4byte	0
 10780 037f 00000000 		.4byte	0
 10781              	.LLST9:
 10782 0383 00000000 		.4byte	.LVL41
 10783 0387 0D000000 		.4byte	.LVL43-1
 10784 038b 0100     		.2byte	0x1
 10785 038d 51       		.byte	0x51
 10786 038e 0D000000 		.4byte	.LVL43-1
 10787 0392 12000000 		.4byte	.LFE1
 10788 0396 0400     		.2byte	0x4
 10789 0398 F3       		.byte	0xf3
 10790 0399 01       		.uleb128 0x1
 10791 039a 51       		.byte	0x51
 10792 039b 9F       		.byte	0x9f
 10793 039c 00000000 		.4byte	0
 10794 03a0 00000000 		.4byte	0
 10795              	.LLST10:
 10796 03a4 00000000 		.4byte	.LVL41
 10797 03a8 06000000 		.4byte	.LVL42
 10798 03ac 0100     		.2byte	0x1
ARM GAS  C:\Users\brian\AppData\Local\Temp\ccwE2E8f.s 			page 227


 10799 03ae 52       		.byte	0x52
 10800 03af 06000000 		.4byte	.LVL42
 10801 03b3 12000000 		.4byte	.LFE1
 10802 03b7 0400     		.2byte	0x4
 10803 03b9 F3       		.byte	0xf3
 10804 03ba 01       		.uleb128 0x1
 10805 03bb 52       		.byte	0x52
 10806 03bc 9F       		.byte	0x9f
 10807 03bd 00000000 		.4byte	0
 10808 03c1 00000000 		.4byte	0
 10809              	.LLST11:
 10810 03c5 00000000 		.4byte	.LVL41
 10811 03c9 0D000000 		.4byte	.LVL43-1
 10812 03cd 0100     		.2byte	0x1
 10813 03cf 53       		.byte	0x53
 10814 03d0 0D000000 		.4byte	.LVL43-1
 10815 03d4 12000000 		.4byte	.LFE1
 10816 03d8 0400     		.2byte	0x4
 10817 03da F3       		.byte	0xf3
 10818 03db 01       		.uleb128 0x1
 10819 03dc 53       		.byte	0x53
 10820 03dd 9F       		.byte	0x9f
 10821 03de 00000000 		.4byte	0
 10822 03e2 00000000 		.4byte	0
 10823              	.LLST12:
 10824 03e6 00000000 		.4byte	.LVL44
 10825 03ea 0C000000 		.4byte	.LVL47
 10826 03ee 0100     		.2byte	0x1
 10827 03f0 50       		.byte	0x50
 10828 03f1 0C000000 		.4byte	.LVL47
 10829 03f5 76000000 		.4byte	.LFE41
 10830 03f9 0100     		.2byte	0x1
 10831 03fb 54       		.byte	0x54
 10832 03fc 00000000 		.4byte	0
 10833 0400 00000000 		.4byte	0
 10834              	.LLST13:
 10835 0404 00000000 		.4byte	.LVL44
 10836 0408 3D000000 		.4byte	.LVL54-1
 10837 040c 0100     		.2byte	0x1
 10838 040e 51       		.byte	0x51
 10839 040f 3D000000 		.4byte	.LVL54-1
 10840 0413 44000000 		.4byte	.LVL55
 10841 0417 0400     		.2byte	0x4
 10842 0419 F3       		.byte	0xf3
 10843 041a 01       		.uleb128 0x1
 10844 041b 51       		.byte	0x51
 10845 041c 9F       		.byte	0x9f
 10846 041d 44000000 		.4byte	.LVL55
 10847 0421 49000000 		.4byte	.LVL57-1
 10848 0425 0100     		.2byte	0x1
 10849 0427 51       		.byte	0x51
 10850 0428 49000000 		.4byte	.LVL57-1
 10851 042c 4C000000 		.4byte	.LVL58
 10852 0430 0400     		.2byte	0x4
 10853 0432 F3       		.byte	0xf3
 10854 0433 01       		.uleb128 0x1
 10855 0434 51       		.byte	0x51
ARM GAS  C:\Users\brian\AppData\Local\Temp\ccwE2E8f.s 			page 228


 10856 0435 9F       		.byte	0x9f
 10857 0436 4C000000 		.4byte	.LVL58
 10858 043a 59000000 		.4byte	.LVL62-1
 10859 043e 0100     		.2byte	0x1
 10860 0440 51       		.byte	0x51
 10861 0441 59000000 		.4byte	.LVL62-1
 10862 0445 5E000000 		.4byte	.LVL63
 10863 0449 0400     		.2byte	0x4
 10864 044b F3       		.byte	0xf3
 10865 044c 01       		.uleb128 0x1
 10866 044d 51       		.byte	0x51
 10867 044e 9F       		.byte	0x9f
 10868 044f 5E000000 		.4byte	.LVL63
 10869 0453 63000000 		.4byte	.LVL65-1
 10870 0457 0100     		.2byte	0x1
 10871 0459 51       		.byte	0x51
 10872 045a 63000000 		.4byte	.LVL65-1
 10873 045e 66000000 		.4byte	.LVL66
 10874 0462 0400     		.2byte	0x4
 10875 0464 F3       		.byte	0xf3
 10876 0465 01       		.uleb128 0x1
 10877 0466 51       		.byte	0x51
 10878 0467 9F       		.byte	0x9f
 10879 0468 66000000 		.4byte	.LVL66
 10880 046c 6B000000 		.4byte	.LVL68-1
 10881 0470 0100     		.2byte	0x1
 10882 0472 51       		.byte	0x51
 10883 0473 6B000000 		.4byte	.LVL68-1
 10884 0477 6E000000 		.4byte	.LVL69
 10885 047b 0400     		.2byte	0x4
 10886 047d F3       		.byte	0xf3
 10887 047e 01       		.uleb128 0x1
 10888 047f 51       		.byte	0x51
 10889 0480 9F       		.byte	0x9f
 10890 0481 6E000000 		.4byte	.LVL69
 10891 0485 76000000 		.4byte	.LFE41
 10892 0489 0100     		.2byte	0x1
 10893 048b 51       		.byte	0x51
 10894 048c 00000000 		.4byte	0
 10895 0490 00000000 		.4byte	0
 10896              	.LLST14:
 10897 0494 08000000 		.4byte	.LVL45
 10898 0498 14000000 		.4byte	.LVL50
 10899 049c 0100     		.2byte	0x1
 10900 049e 53       		.byte	0x53
 10901 049f 14000000 		.4byte	.LVL50
 10902 04a3 2A000000 		.4byte	.LVL51
 10903 04a7 0500     		.2byte	0x5
 10904 04a9 74       		.byte	0x74
 10905 04aa 38       		.sleb128 56
 10906 04ab 06       		.byte	0x6
 10907 04ac 23       		.byte	0x23
 10908 04ad 04       		.uleb128 0x4
 10909 04ae 44000000 		.4byte	.LVL55
 10910 04b2 49000000 		.4byte	.LVL57-1
 10911 04b6 0500     		.2byte	0x5
 10912 04b8 74       		.byte	0x74
ARM GAS  C:\Users\brian\AppData\Local\Temp\ccwE2E8f.s 			page 229


 10913 04b9 38       		.sleb128 56
 10914 04ba 06       		.byte	0x6
 10915 04bb 23       		.byte	0x23
 10916 04bc 04       		.uleb128 0x4
 10917 04bd 4C000000 		.4byte	.LVL58
 10918 04c1 54000000 		.4byte	.LVL60
 10919 04c5 0500     		.2byte	0x5
 10920 04c7 74       		.byte	0x74
 10921 04c8 38       		.sleb128 56
 10922 04c9 06       		.byte	0x6
 10923 04ca 23       		.byte	0x23
 10924 04cb 04       		.uleb128 0x4
 10925 04cc 5E000000 		.4byte	.LVL63
 10926 04d0 63000000 		.4byte	.LVL65-1
 10927 04d4 0500     		.2byte	0x5
 10928 04d6 74       		.byte	0x74
 10929 04d7 38       		.sleb128 56
 10930 04d8 06       		.byte	0x6
 10931 04d9 23       		.byte	0x23
 10932 04da 04       		.uleb128 0x4
 10933 04db 66000000 		.4byte	.LVL66
 10934 04df 6B000000 		.4byte	.LVL68-1
 10935 04e3 0500     		.2byte	0x5
 10936 04e5 74       		.byte	0x74
 10937 04e6 38       		.sleb128 56
 10938 04e7 06       		.byte	0x6
 10939 04e8 23       		.byte	0x23
 10940 04e9 04       		.uleb128 0x4
 10941 04ea 6E000000 		.4byte	.LVL69
 10942 04ee 72000000 		.4byte	.LVL71
 10943 04f2 0500     		.2byte	0x5
 10944 04f4 74       		.byte	0x74
 10945 04f5 38       		.sleb128 56
 10946 04f6 06       		.byte	0x6
 10947 04f7 23       		.byte	0x23
 10948 04f8 04       		.uleb128 0x4
 10949 04f9 00000000 		.4byte	0
 10950 04fd 00000000 		.4byte	0
 10951              	.LLST15:
 10952 0501 0C000000 		.4byte	.LVL47
 10953 0505 3D000000 		.4byte	.LVL54-1
 10954 0509 0100     		.2byte	0x1
 10955 050b 50       		.byte	0x50
 10956 050c 44000000 		.4byte	.LVL55
 10957 0510 46000000 		.4byte	.LVL56
 10958 0514 0100     		.2byte	0x1
 10959 0516 50       		.byte	0x50
 10960 0517 46000000 		.4byte	.LVL56
 10961 051b 49000000 		.4byte	.LVL57-1
 10962 051f 0800     		.2byte	0x8
 10963 0521 74       		.byte	0x74
 10964 0522 38       		.sleb128 56
 10965 0523 06       		.byte	0x6
 10966 0524 23       		.byte	0x23
 10967 0525 04       		.uleb128 0x4
 10968 0526 06       		.byte	0x6
 10969 0527 23       		.byte	0x23
ARM GAS  C:\Users\brian\AppData\Local\Temp\ccwE2E8f.s 			page 230


 10970 0528 04       		.uleb128 0x4
 10971 0529 4C000000 		.4byte	.LVL58
 10972 052d 56000000 		.4byte	.LVL61
 10973 0531 0100     		.2byte	0x1
 10974 0533 50       		.byte	0x50
 10975 0534 5E000000 		.4byte	.LVL63
 10976 0538 60000000 		.4byte	.LVL64
 10977 053c 0100     		.2byte	0x1
 10978 053e 50       		.byte	0x50
 10979 053f 60000000 		.4byte	.LVL64
 10980 0543 63000000 		.4byte	.LVL65-1
 10981 0547 0800     		.2byte	0x8
 10982 0549 74       		.byte	0x74
 10983 054a 38       		.sleb128 56
 10984 054b 06       		.byte	0x6
 10985 054c 23       		.byte	0x23
 10986 054d 04       		.uleb128 0x4
 10987 054e 06       		.byte	0x6
 10988 054f 23       		.byte	0x23
 10989 0550 04       		.uleb128 0x4
 10990 0551 66000000 		.4byte	.LVL66
 10991 0555 68000000 		.4byte	.LVL67
 10992 0559 0100     		.2byte	0x1
 10993 055b 50       		.byte	0x50
 10994 055c 68000000 		.4byte	.LVL67
 10995 0560 6B000000 		.4byte	.LVL68-1
 10996 0564 0800     		.2byte	0x8
 10997 0566 74       		.byte	0x74
 10998 0567 38       		.sleb128 56
 10999 0568 06       		.byte	0x6
 11000 0569 23       		.byte	0x23
 11001 056a 04       		.uleb128 0x4
 11002 056b 06       		.byte	0x6
 11003 056c 23       		.byte	0x23
 11004 056d 04       		.uleb128 0x4
 11005 056e 6E000000 		.4byte	.LVL69
 11006 0572 70000000 		.4byte	.LVL70
 11007 0576 0100     		.2byte	0x1
 11008 0578 50       		.byte	0x50
 11009 0579 70000000 		.4byte	.LVL70
 11010 057d 72000000 		.4byte	.LVL71
 11011 0581 0800     		.2byte	0x8
 11012 0583 74       		.byte	0x74
 11013 0584 38       		.sleb128 56
 11014 0585 06       		.byte	0x6
 11015 0586 23       		.byte	0x23
 11016 0587 04       		.uleb128 0x4
 11017 0588 06       		.byte	0x6
 11018 0589 23       		.byte	0x23
 11019 058a 04       		.uleb128 0x4
 11020 058b 72000000 		.4byte	.LVL71
 11021 058f 74000000 		.4byte	.LVL72
 11022 0593 0100     		.2byte	0x1
 11023 0595 50       		.byte	0x50
 11024 0596 00000000 		.4byte	0
 11025 059a 00000000 		.4byte	0
 11026              	.LLST16:
ARM GAS  C:\Users\brian\AppData\Local\Temp\ccwE2E8f.s 			page 231


 11027 059e 12000000 		.4byte	.LVL49
 11028 05a2 34000000 		.4byte	.LVL52
 11029 05a6 0100     		.2byte	0x1
 11030 05a8 52       		.byte	0x52
 11031 05a9 34000000 		.4byte	.LVL52
 11032 05ad 38000000 		.4byte	.LVL53
 11033 05b1 0300     		.2byte	0x3
 11034 05b3 72       		.byte	0x72
 11035 05b4 7F       		.sleb128 -1
 11036 05b5 9F       		.byte	0x9f
 11037 05b6 38000000 		.4byte	.LVL53
 11038 05ba 3D000000 		.4byte	.LVL54-1
 11039 05be 0200     		.2byte	0x2
 11040 05c0 74       		.byte	0x74
 11041 05c1 2E       		.sleb128 46
 11042 05c2 44000000 		.4byte	.LVL55
 11043 05c6 49000000 		.4byte	.LVL57-1
 11044 05ca 0100     		.2byte	0x1
 11045 05cc 52       		.byte	0x52
 11046 05cd 4C000000 		.4byte	.LVL58
 11047 05d1 52000000 		.4byte	.LVL59
 11048 05d5 0100     		.2byte	0x1
 11049 05d7 52       		.byte	0x52
 11050 05d8 52000000 		.4byte	.LVL59
 11051 05dc 54000000 		.4byte	.LVL60
 11052 05e0 0200     		.2byte	0x2
 11053 05e2 74       		.byte	0x74
 11054 05e3 2E       		.sleb128 46
 11055 05e4 5E000000 		.4byte	.LVL63
 11056 05e8 63000000 		.4byte	.LVL65-1
 11057 05ec 0100     		.2byte	0x1
 11058 05ee 52       		.byte	0x52
 11059 05ef 66000000 		.4byte	.LVL66
 11060 05f3 6B000000 		.4byte	.LVL68-1
 11061 05f7 0100     		.2byte	0x1
 11062 05f9 52       		.byte	0x52
 11063 05fa 6E000000 		.4byte	.LVL69
 11064 05fe 72000000 		.4byte	.LVL71
 11065 0602 0100     		.2byte	0x1
 11066 0604 52       		.byte	0x52
 11067 0605 72000000 		.4byte	.LVL71
 11068 0609 76000000 		.4byte	.LFE41
 11069 060d 0200     		.2byte	0x2
 11070 060f 74       		.byte	0x74
 11071 0610 2E       		.sleb128 46
 11072 0611 00000000 		.4byte	0
 11073 0615 00000000 		.4byte	0
 11074              	.LLST17:
 11075 0619 00000000 		.4byte	.LVL73
 11076 061d 04000000 		.4byte	.LVL74
 11077 0621 0100     		.2byte	0x1
 11078 0623 50       		.byte	0x50
 11079 0624 04000000 		.4byte	.LVL74
 11080 0628 06000000 		.4byte	.LFE3
 11081 062c 0400     		.2byte	0x4
 11082 062e F3       		.byte	0xf3
 11083 062f 01       		.uleb128 0x1
ARM GAS  C:\Users\brian\AppData\Local\Temp\ccwE2E8f.s 			page 232


 11084 0630 50       		.byte	0x50
 11085 0631 9F       		.byte	0x9f
 11086 0632 00000000 		.4byte	0
 11087 0636 00000000 		.4byte	0
 11088              	.LLST18:
 11089 063a 00000000 		.4byte	.LVL75
 11090 063e 02000000 		.4byte	.LVL76
 11091 0642 0100     		.2byte	0x1
 11092 0644 50       		.byte	0x50
 11093 0645 02000000 		.4byte	.LVL76
 11094 0649 04000000 		.4byte	.LFE4
 11095 064d 0400     		.2byte	0x4
 11096 064f F3       		.byte	0xf3
 11097 0650 01       		.uleb128 0x1
 11098 0651 50       		.byte	0x50
 11099 0652 9F       		.byte	0x9f
 11100 0653 00000000 		.4byte	0
 11101 0657 00000000 		.4byte	0
 11102              	.LLST19:
 11103 065b 00000000 		.4byte	.LVL77
 11104 065f 07000000 		.4byte	.LVL78-1
 11105 0663 0100     		.2byte	0x1
 11106 0665 50       		.byte	0x50
 11107 0666 07000000 		.4byte	.LVL78-1
 11108 066a 1E000000 		.4byte	.LFE2
 11109 066e 0100     		.2byte	0x1
 11110 0670 54       		.byte	0x54
 11111 0671 00000000 		.4byte	0
 11112 0675 00000000 		.4byte	0
 11113              	.LLST20:
 11114 0679 00000000 		.4byte	.LVL80
 11115 067d 16000000 		.4byte	.LVL82
 11116 0681 0100     		.2byte	0x1
 11117 0683 50       		.byte	0x50
 11118 0684 16000000 		.4byte	.LVL82
 11119 0688 4C000000 		.4byte	.LVL87
 11120 068c 0100     		.2byte	0x1
 11121 068e 54       		.byte	0x54
 11122 068f 4C000000 		.4byte	.LVL87
 11123 0693 50000000 		.4byte	.LFE5
 11124 0697 0400     		.2byte	0x4
 11125 0699 F3       		.byte	0xf3
 11126 069a 01       		.uleb128 0x1
 11127 069b 50       		.byte	0x50
 11128 069c 9F       		.byte	0x9f
 11129 069d 00000000 		.4byte	0
 11130 06a1 00000000 		.4byte	0
 11131              	.LLST21:
 11132 06a5 00000000 		.4byte	.LVL80
 11133 06a9 19000000 		.4byte	.LVL83-1
 11134 06ad 0100     		.2byte	0x1
 11135 06af 51       		.byte	0x51
 11136 06b0 19000000 		.4byte	.LVL83-1
 11137 06b4 50000000 		.4byte	.LFE5
 11138 06b8 0400     		.2byte	0x4
 11139 06ba F3       		.byte	0xf3
 11140 06bb 01       		.uleb128 0x1
ARM GAS  C:\Users\brian\AppData\Local\Temp\ccwE2E8f.s 			page 233


 11141 06bc 51       		.byte	0x51
 11142 06bd 9F       		.byte	0x9f
 11143 06be 00000000 		.4byte	0
 11144 06c2 00000000 		.4byte	0
 11145              	.LLST22:
 11146 06c6 00000000 		.4byte	.LVL80
 11147 06ca 19000000 		.4byte	.LVL83-1
 11148 06ce 0100     		.2byte	0x1
 11149 06d0 52       		.byte	0x52
 11150 06d1 19000000 		.4byte	.LVL83-1
 11151 06d5 50000000 		.4byte	.LFE5
 11152 06d9 0400     		.2byte	0x4
 11153 06db F3       		.byte	0xf3
 11154 06dc 01       		.uleb128 0x1
 11155 06dd 52       		.byte	0x52
 11156 06de 9F       		.byte	0x9f
 11157 06df 00000000 		.4byte	0
 11158 06e3 00000000 		.4byte	0
 11159              	.LLST23:
 11160 06e7 00000000 		.4byte	.LVL80
 11161 06eb 19000000 		.4byte	.LVL83-1
 11162 06ef 0100     		.2byte	0x1
 11163 06f1 53       		.byte	0x53
 11164 06f2 19000000 		.4byte	.LVL83-1
 11165 06f6 50000000 		.4byte	.LFE5
 11166 06fa 0400     		.2byte	0x4
 11167 06fc F3       		.byte	0xf3
 11168 06fd 01       		.uleb128 0x1
 11169 06fe 53       		.byte	0x53
 11170 06ff 9F       		.byte	0x9f
 11171 0700 00000000 		.4byte	0
 11172 0704 00000000 		.4byte	0
 11173              	.LLST24:
 11174 0708 00000000 		.4byte	.LVL80
 11175 070c 4C000000 		.4byte	.LVL87
 11176 0710 0200     		.2byte	0x2
 11177 0712 91       		.byte	0x91
 11178 0713 00       		.sleb128 0
 11179 0714 4C000000 		.4byte	.LVL87
 11180 0718 50000000 		.4byte	.LFE5
 11181 071c 0200     		.2byte	0x2
 11182 071e 7D       		.byte	0x7d
 11183 071f 00       		.sleb128 0
 11184 0720 00000000 		.4byte	0
 11185 0724 00000000 		.4byte	0
 11186              	.LLST25:
 11187 0728 00000000 		.4byte	.LVL80
 11188 072c 14000000 		.4byte	.LVL81
 11189 0730 0200     		.2byte	0x2
 11190 0732 91       		.byte	0x91
 11191 0733 04       		.sleb128 4
 11192 0734 14000000 		.4byte	.LVL81
 11193 0738 4C000000 		.4byte	.LVL87
 11194 073c 0100     		.2byte	0x1
 11195 073e 55       		.byte	0x55
 11196 073f 00000000 		.4byte	0
 11197 0743 00000000 		.4byte	0
ARM GAS  C:\Users\brian\AppData\Local\Temp\ccwE2E8f.s 			page 234


 11198              	.LLST26:
 11199 0747 00000000 		.4byte	.LVL88
 11200 074b 12000000 		.4byte	.LVL90
 11201 074f 0100     		.2byte	0x1
 11202 0751 50       		.byte	0x50
 11203 0752 12000000 		.4byte	.LVL90
 11204 0756 14000000 		.4byte	.LVL91
 11205 075a 0400     		.2byte	0x4
 11206 075c F3       		.byte	0xf3
 11207 075d 01       		.uleb128 0x1
 11208 075e 50       		.byte	0x50
 11209 075f 9F       		.byte	0x9f
 11210 0760 14000000 		.4byte	.LVL91
 11211 0764 16000000 		.4byte	.LVL92
 11212 0768 0100     		.2byte	0x1
 11213 076a 50       		.byte	0x50
 11214 076b 16000000 		.4byte	.LVL92
 11215 076f 18000000 		.4byte	.LVL93
 11216 0773 0400     		.2byte	0x4
 11217 0775 F3       		.byte	0xf3
 11218 0776 01       		.uleb128 0x1
 11219 0777 50       		.byte	0x50
 11220 0778 9F       		.byte	0x9f
 11221 0779 18000000 		.4byte	.LVL93
 11222 077d 1A000000 		.4byte	.LVL94
 11223 0781 0100     		.2byte	0x1
 11224 0783 50       		.byte	0x50
 11225 0784 1A000000 		.4byte	.LVL94
 11226 0788 1C000000 		.4byte	.LFE6
 11227 078c 0400     		.2byte	0x4
 11228 078e F3       		.byte	0xf3
 11229 078f 01       		.uleb128 0x1
 11230 0790 50       		.byte	0x50
 11231 0791 9F       		.byte	0x9f
 11232 0792 00000000 		.4byte	0
 11233 0796 00000000 		.4byte	0
 11234              	.LLST27:
 11235 079a 00000000 		.4byte	.LVL88
 11236 079e 0A000000 		.4byte	.LVL89
 11237 07a2 0200     		.2byte	0x2
 11238 07a4 30       		.byte	0x30
 11239 07a5 9F       		.byte	0x9f
 11240 07a6 0A000000 		.4byte	.LVL89
 11241 07aa 14000000 		.4byte	.LVL91
 11242 07ae 0300     		.2byte	0x3
 11243 07b0 08       		.byte	0x8
 11244 07b1 20       		.byte	0x20
 11245 07b2 9F       		.byte	0x9f
 11246 07b3 14000000 		.4byte	.LVL91
 11247 07b7 18000000 		.4byte	.LVL93
 11248 07bb 0200     		.2byte	0x2
 11249 07bd 30       		.byte	0x30
 11250 07be 9F       		.byte	0x9f
 11251 07bf 18000000 		.4byte	.LVL93
 11252 07c3 1A000000 		.4byte	.LVL94
 11253 07c7 0300     		.2byte	0x3
 11254 07c9 08       		.byte	0x8
ARM GAS  C:\Users\brian\AppData\Local\Temp\ccwE2E8f.s 			page 235


 11255 07ca 20       		.byte	0x20
 11256 07cb 9F       		.byte	0x9f
 11257 07cc 1A000000 		.4byte	.LVL94
 11258 07d0 1C000000 		.4byte	.LFE6
 11259 07d4 0100     		.2byte	0x1
 11260 07d6 50       		.byte	0x50
 11261 07d7 00000000 		.4byte	0
 11262 07db 00000000 		.4byte	0
 11263              	.LLST28:
 11264 07df 00000000 		.4byte	.LVL95
 11265 07e3 0F000000 		.4byte	.LVL96-1
 11266 07e7 0100     		.2byte	0x1
 11267 07e9 50       		.byte	0x50
 11268 07ea 0F000000 		.4byte	.LVL96-1
 11269 07ee 26000000 		.4byte	.LFE7
 11270 07f2 0100     		.2byte	0x1
 11271 07f4 54       		.byte	0x54
 11272 07f5 00000000 		.4byte	0
 11273 07f9 00000000 		.4byte	0
 11274              	.LLST29:
 11275 07fd 00000000 		.4byte	.LVL95
 11276 0801 0F000000 		.4byte	.LVL96-1
 11277 0805 0100     		.2byte	0x1
 11278 0807 51       		.byte	0x51
 11279 0808 0F000000 		.4byte	.LVL96-1
 11280 080c 26000000 		.4byte	.LFE7
 11281 0810 0400     		.2byte	0x4
 11282 0812 F3       		.byte	0xf3
 11283 0813 01       		.uleb128 0x1
 11284 0814 51       		.byte	0x51
 11285 0815 9F       		.byte	0x9f
 11286 0816 00000000 		.4byte	0
 11287 081a 00000000 		.4byte	0
 11288              	.LLST30:
 11289 081e 00000000 		.4byte	.LVL95
 11290 0822 0F000000 		.4byte	.LVL96-1
 11291 0826 0100     		.2byte	0x1
 11292 0828 52       		.byte	0x52
 11293 0829 0F000000 		.4byte	.LVL96-1
 11294 082d 26000000 		.4byte	.LFE7
 11295 0831 0400     		.2byte	0x4
 11296 0833 F3       		.byte	0xf3
 11297 0834 01       		.uleb128 0x1
 11298 0835 52       		.byte	0x52
 11299 0836 9F       		.byte	0x9f
 11300 0837 00000000 		.4byte	0
 11301 083b 00000000 		.4byte	0
 11302              	.LLST31:
 11303 083f 00000000 		.4byte	.LVL95
 11304 0843 0F000000 		.4byte	.LVL96-1
 11305 0847 0100     		.2byte	0x1
 11306 0849 53       		.byte	0x53
 11307 084a 0F000000 		.4byte	.LVL96-1
 11308 084e 26000000 		.4byte	.LFE7
 11309 0852 0100     		.2byte	0x1
 11310 0854 57       		.byte	0x57
 11311 0855 00000000 		.4byte	0
ARM GAS  C:\Users\brian\AppData\Local\Temp\ccwE2E8f.s 			page 236


 11312 0859 00000000 		.4byte	0
 11313              	.LLST32:
 11314 085d 00000000 		.4byte	.LVL98
 11315 0861 07000000 		.4byte	.LVL99-1
 11316 0865 0100     		.2byte	0x1
 11317 0867 50       		.byte	0x50
 11318 0868 07000000 		.4byte	.LVL99-1
 11319 086c 58000000 		.4byte	.LVL112
 11320 0870 0100     		.2byte	0x1
 11321 0872 57       		.byte	0x57
 11322 0873 58000000 		.4byte	.LVL112
 11323 0877 60000000 		.4byte	.LFE19
 11324 087b 0400     		.2byte	0x4
 11325 087d F3       		.byte	0xf3
 11326 087e 01       		.uleb128 0x1
 11327 087f 50       		.byte	0x50
 11328 0880 9F       		.byte	0x9f
 11329 0881 00000000 		.4byte	0
 11330 0885 00000000 		.4byte	0
 11331              	.LLST33:
 11332 0889 08000000 		.4byte	.LVL99
 11333 088d 3D000000 		.4byte	.LVL109-1
 11334 0891 0100     		.2byte	0x1
 11335 0893 50       		.byte	0x50
 11336 0894 00000000 		.4byte	0
 11337 0898 00000000 		.4byte	0
 11338              	.LLST34:
 11339 089c 0C000000 		.4byte	.LVL100
 11340 08a0 12000000 		.4byte	.LVL103
 11341 08a4 0100     		.2byte	0x1
 11342 08a6 53       		.byte	0x53
 11343 08a7 12000000 		.4byte	.LVL103
 11344 08ab 1A000000 		.4byte	.LVL104
 11345 08af 0500     		.2byte	0x5
 11346 08b1 77       		.byte	0x77
 11347 08b2 38       		.sleb128 56
 11348 08b3 06       		.byte	0x6
 11349 08b4 23       		.byte	0x23
 11350 08b5 04       		.uleb128 0x4
 11351 08b6 00000000 		.4byte	0
 11352 08ba 00000000 		.4byte	0
 11353              	.LLST35:
 11354 08be 0C000000 		.4byte	.LVL100
 11355 08c2 30000000 		.4byte	.LVL105
 11356 08c6 0600     		.2byte	0x6
 11357 08c8 03       		.byte	0x3
 11358 08c9 04000000 		.4byte	.LC1
 11359 08cd 9F       		.byte	0x9f
 11360 08ce 30000000 		.4byte	.LVL105
 11361 08d2 3D000000 		.4byte	.LVL109-1
 11362 08d6 0100     		.2byte	0x1
 11363 08d8 51       		.byte	0x51
 11364 08d9 00000000 		.4byte	0
 11365 08dd 00000000 		.4byte	0
 11366              	.LLST36:
 11367 08e1 0E000000 		.4byte	.LVL101
 11368 08e5 58000000 		.4byte	.LVL112
ARM GAS  C:\Users\brian\AppData\Local\Temp\ccwE2E8f.s 			page 237


 11369 08e9 0100     		.2byte	0x1
 11370 08eb 54       		.byte	0x54
 11371 08ec 00000000 		.4byte	0
 11372 08f0 00000000 		.4byte	0
 11373              	.LLST37:
 11374 08f4 10000000 		.4byte	.LVL102
 11375 08f8 3D000000 		.4byte	.LVL109-1
 11376 08fc 0100     		.2byte	0x1
 11377 08fe 52       		.byte	0x52
 11378 08ff 00000000 		.4byte	0
 11379 0903 00000000 		.4byte	0
 11380              	.LLST38:
 11381 0907 12000000 		.4byte	.LVL103
 11382 090b 3D000000 		.4byte	.LVL109-1
 11383 090f 0100     		.2byte	0x1
 11384 0911 53       		.byte	0x53
 11385 0912 00000000 		.4byte	0
 11386 0916 00000000 		.4byte	0
 11387              	.LLST39:
 11388 091a 12000000 		.4byte	.LVL103
 11389 091e 30000000 		.4byte	.LVL105
 11390 0922 0200     		.2byte	0x2
 11391 0924 33       		.byte	0x33
 11392 0925 9F       		.byte	0x9f
 11393 0926 30000000 		.4byte	.LVL105
 11394 092a 38000000 		.4byte	.LVL107
 11395 092e 0100     		.2byte	0x1
 11396 0930 55       		.byte	0x55
 11397 0931 3A000000 		.4byte	.LVL108
 11398 0935 58000000 		.4byte	.LVL112
 11399 0939 0100     		.2byte	0x1
 11400 093b 55       		.byte	0x55
 11401 093c 00000000 		.4byte	0
 11402 0940 00000000 		.4byte	0
 11403              	.LLST40:
 11404 0944 00000000 		.4byte	.LVL113
 11405 0948 12000000 		.4byte	.LVL115
 11406 094c 0100     		.2byte	0x1
 11407 094e 50       		.byte	0x50
 11408 094f 12000000 		.4byte	.LVL115
 11409 0953 14000000 		.4byte	.LVL116
 11410 0957 0400     		.2byte	0x4
 11411 0959 F3       		.byte	0xf3
 11412 095a 01       		.uleb128 0x1
 11413 095b 50       		.byte	0x50
 11414 095c 9F       		.byte	0x9f
 11415 095d 14000000 		.4byte	.LVL116
 11416 0961 16000000 		.4byte	.LVL117
 11417 0965 0100     		.2byte	0x1
 11418 0967 50       		.byte	0x50
 11419 0968 16000000 		.4byte	.LVL117
 11420 096c 18000000 		.4byte	.LVL118
 11421 0970 0400     		.2byte	0x4
 11422 0972 F3       		.byte	0xf3
 11423 0973 01       		.uleb128 0x1
 11424 0974 50       		.byte	0x50
 11425 0975 9F       		.byte	0x9f
ARM GAS  C:\Users\brian\AppData\Local\Temp\ccwE2E8f.s 			page 238


 11426 0976 18000000 		.4byte	.LVL118
 11427 097a 1A000000 		.4byte	.LVL119
 11428 097e 0100     		.2byte	0x1
 11429 0980 50       		.byte	0x50
 11430 0981 1A000000 		.4byte	.LVL119
 11431 0985 1C000000 		.4byte	.LFE8
 11432 0989 0400     		.2byte	0x4
 11433 098b F3       		.byte	0xf3
 11434 098c 01       		.uleb128 0x1
 11435 098d 50       		.byte	0x50
 11436 098e 9F       		.byte	0x9f
 11437 098f 00000000 		.4byte	0
 11438 0993 00000000 		.4byte	0
 11439              	.LLST41:
 11440 0997 00000000 		.4byte	.LVL113
 11441 099b 0A000000 		.4byte	.LVL114
 11442 099f 0200     		.2byte	0x2
 11443 09a1 31       		.byte	0x31
 11444 09a2 9F       		.byte	0x9f
 11445 09a3 0A000000 		.4byte	.LVL114
 11446 09a7 14000000 		.4byte	.LVL116
 11447 09ab 0300     		.2byte	0x3
 11448 09ad 08       		.byte	0x8
 11449 09ae 21       		.byte	0x21
 11450 09af 9F       		.byte	0x9f
 11451 09b0 14000000 		.4byte	.LVL116
 11452 09b4 18000000 		.4byte	.LVL118
 11453 09b8 0200     		.2byte	0x2
 11454 09ba 31       		.byte	0x31
 11455 09bb 9F       		.byte	0x9f
 11456 09bc 18000000 		.4byte	.LVL118
 11457 09c0 1A000000 		.4byte	.LVL119
 11458 09c4 0300     		.2byte	0x3
 11459 09c6 08       		.byte	0x8
 11460 09c7 21       		.byte	0x21
 11461 09c8 9F       		.byte	0x9f
 11462 09c9 1A000000 		.4byte	.LVL119
 11463 09cd 1C000000 		.4byte	.LFE8
 11464 09d1 0100     		.2byte	0x1
 11465 09d3 50       		.byte	0x50
 11466 09d4 00000000 		.4byte	0
 11467 09d8 00000000 		.4byte	0
 11468              	.LLST42:
 11469 09dc 00000000 		.4byte	.LVL120
 11470 09e0 0F000000 		.4byte	.LVL121-1
 11471 09e4 0100     		.2byte	0x1
 11472 09e6 50       		.byte	0x50
 11473 09e7 0F000000 		.4byte	.LVL121-1
 11474 09eb 26000000 		.4byte	.LFE9
 11475 09ef 0100     		.2byte	0x1
 11476 09f1 54       		.byte	0x54
 11477 09f2 00000000 		.4byte	0
 11478 09f6 00000000 		.4byte	0
 11479              	.LLST43:
 11480 09fa 00000000 		.4byte	.LVL120
 11481 09fe 0F000000 		.4byte	.LVL121-1
 11482 0a02 0100     		.2byte	0x1
ARM GAS  C:\Users\brian\AppData\Local\Temp\ccwE2E8f.s 			page 239


 11483 0a04 51       		.byte	0x51
 11484 0a05 0F000000 		.4byte	.LVL121-1
 11485 0a09 26000000 		.4byte	.LFE9
 11486 0a0d 0400     		.2byte	0x4
 11487 0a0f F3       		.byte	0xf3
 11488 0a10 01       		.uleb128 0x1
 11489 0a11 51       		.byte	0x51
 11490 0a12 9F       		.byte	0x9f
 11491 0a13 00000000 		.4byte	0
 11492 0a17 00000000 		.4byte	0
 11493              	.LLST44:
 11494 0a1b 00000000 		.4byte	.LVL120
 11495 0a1f 0F000000 		.4byte	.LVL121-1
 11496 0a23 0100     		.2byte	0x1
 11497 0a25 52       		.byte	0x52
 11498 0a26 0F000000 		.4byte	.LVL121-1
 11499 0a2a 26000000 		.4byte	.LFE9
 11500 0a2e 0400     		.2byte	0x4
 11501 0a30 F3       		.byte	0xf3
 11502 0a31 01       		.uleb128 0x1
 11503 0a32 52       		.byte	0x52
 11504 0a33 9F       		.byte	0x9f
 11505 0a34 00000000 		.4byte	0
 11506 0a38 00000000 		.4byte	0
 11507              	.LLST45:
 11508 0a3c 00000000 		.4byte	.LVL120
 11509 0a40 0F000000 		.4byte	.LVL121-1
 11510 0a44 0100     		.2byte	0x1
 11511 0a46 53       		.byte	0x53
 11512 0a47 0F000000 		.4byte	.LVL121-1
 11513 0a4b 26000000 		.4byte	.LFE9
 11514 0a4f 0100     		.2byte	0x1
 11515 0a51 57       		.byte	0x57
 11516 0a52 00000000 		.4byte	0
 11517 0a56 00000000 		.4byte	0
 11518              	.LLST46:
 11519 0a5a 00000000 		.4byte	.LVL123
 11520 0a5e 12000000 		.4byte	.LVL125
 11521 0a62 0100     		.2byte	0x1
 11522 0a64 50       		.byte	0x50
 11523 0a65 12000000 		.4byte	.LVL125
 11524 0a69 14000000 		.4byte	.LVL126
 11525 0a6d 0400     		.2byte	0x4
 11526 0a6f F3       		.byte	0xf3
 11527 0a70 01       		.uleb128 0x1
 11528 0a71 50       		.byte	0x50
 11529 0a72 9F       		.byte	0x9f
 11530 0a73 14000000 		.4byte	.LVL126
 11531 0a77 16000000 		.4byte	.LVL127
 11532 0a7b 0100     		.2byte	0x1
 11533 0a7d 50       		.byte	0x50
 11534 0a7e 16000000 		.4byte	.LVL127
 11535 0a82 18000000 		.4byte	.LVL128
 11536 0a86 0400     		.2byte	0x4
 11537 0a88 F3       		.byte	0xf3
 11538 0a89 01       		.uleb128 0x1
 11539 0a8a 50       		.byte	0x50
ARM GAS  C:\Users\brian\AppData\Local\Temp\ccwE2E8f.s 			page 240


 11540 0a8b 9F       		.byte	0x9f
 11541 0a8c 18000000 		.4byte	.LVL128
 11542 0a90 1A000000 		.4byte	.LVL129
 11543 0a94 0100     		.2byte	0x1
 11544 0a96 50       		.byte	0x50
 11545 0a97 1A000000 		.4byte	.LVL129
 11546 0a9b 1C000000 		.4byte	.LFE10
 11547 0a9f 0400     		.2byte	0x4
 11548 0aa1 F3       		.byte	0xf3
 11549 0aa2 01       		.uleb128 0x1
 11550 0aa3 50       		.byte	0x50
 11551 0aa4 9F       		.byte	0x9f
 11552 0aa5 00000000 		.4byte	0
 11553 0aa9 00000000 		.4byte	0
 11554              	.LLST47:
 11555 0aad 00000000 		.4byte	.LVL123
 11556 0ab1 0A000000 		.4byte	.LVL124
 11557 0ab5 0200     		.2byte	0x2
 11558 0ab7 30       		.byte	0x30
 11559 0ab8 9F       		.byte	0x9f
 11560 0ab9 0A000000 		.4byte	.LVL124
 11561 0abd 14000000 		.4byte	.LVL126
 11562 0ac1 0200     		.2byte	0x2
 11563 0ac3 31       		.byte	0x31
 11564 0ac4 9F       		.byte	0x9f
 11565 0ac5 14000000 		.4byte	.LVL126
 11566 0ac9 18000000 		.4byte	.LVL128
 11567 0acd 0200     		.2byte	0x2
 11568 0acf 30       		.byte	0x30
 11569 0ad0 9F       		.byte	0x9f
 11570 0ad1 18000000 		.4byte	.LVL128
 11571 0ad5 1A000000 		.4byte	.LVL129
 11572 0ad9 0200     		.2byte	0x2
 11573 0adb 31       		.byte	0x31
 11574 0adc 9F       		.byte	0x9f
 11575 0add 1A000000 		.4byte	.LVL129
 11576 0ae1 1C000000 		.4byte	.LFE10
 11577 0ae5 0100     		.2byte	0x1
 11578 0ae7 50       		.byte	0x50
 11579 0ae8 00000000 		.4byte	0
 11580 0aec 00000000 		.4byte	0
 11581              	.LLST48:
 11582 0af0 00000000 		.4byte	.LVL130
 11583 0af4 0F000000 		.4byte	.LVL131-1
 11584 0af8 0100     		.2byte	0x1
 11585 0afa 50       		.byte	0x50
 11586 0afb 0F000000 		.4byte	.LVL131-1
 11587 0aff 26000000 		.4byte	.LFE11
 11588 0b03 0100     		.2byte	0x1
 11589 0b05 54       		.byte	0x54
 11590 0b06 00000000 		.4byte	0
 11591 0b0a 00000000 		.4byte	0
 11592              	.LLST49:
 11593 0b0e 00000000 		.4byte	.LVL130
 11594 0b12 0F000000 		.4byte	.LVL131-1
 11595 0b16 0100     		.2byte	0x1
 11596 0b18 51       		.byte	0x51
ARM GAS  C:\Users\brian\AppData\Local\Temp\ccwE2E8f.s 			page 241


 11597 0b19 0F000000 		.4byte	.LVL131-1
 11598 0b1d 26000000 		.4byte	.LFE11
 11599 0b21 0400     		.2byte	0x4
 11600 0b23 F3       		.byte	0xf3
 11601 0b24 01       		.uleb128 0x1
 11602 0b25 51       		.byte	0x51
 11603 0b26 9F       		.byte	0x9f
 11604 0b27 00000000 		.4byte	0
 11605 0b2b 00000000 		.4byte	0
 11606              	.LLST50:
 11607 0b2f 00000000 		.4byte	.LVL130
 11608 0b33 0F000000 		.4byte	.LVL131-1
 11609 0b37 0100     		.2byte	0x1
 11610 0b39 52       		.byte	0x52
 11611 0b3a 0F000000 		.4byte	.LVL131-1
 11612 0b3e 26000000 		.4byte	.LFE11
 11613 0b42 0400     		.2byte	0x4
 11614 0b44 F3       		.byte	0xf3
 11615 0b45 01       		.uleb128 0x1
 11616 0b46 52       		.byte	0x52
 11617 0b47 9F       		.byte	0x9f
 11618 0b48 00000000 		.4byte	0
 11619 0b4c 00000000 		.4byte	0
 11620              	.LLST51:
 11621 0b50 00000000 		.4byte	.LVL130
 11622 0b54 0F000000 		.4byte	.LVL131-1
 11623 0b58 0100     		.2byte	0x1
 11624 0b5a 53       		.byte	0x53
 11625 0b5b 0F000000 		.4byte	.LVL131-1
 11626 0b5f 26000000 		.4byte	.LFE11
 11627 0b63 0100     		.2byte	0x1
 11628 0b65 57       		.byte	0x57
 11629 0b66 00000000 		.4byte	0
 11630 0b6a 00000000 		.4byte	0
 11631              	.LLST52:
 11632 0b6e 00000000 		.4byte	.LVL133
 11633 0b72 07000000 		.4byte	.LVL134-1
 11634 0b76 0100     		.2byte	0x1
 11635 0b78 50       		.byte	0x50
 11636 0b79 07000000 		.4byte	.LVL134-1
 11637 0b7d 58000000 		.4byte	.LVL147
 11638 0b81 0100     		.2byte	0x1
 11639 0b83 57       		.byte	0x57
 11640 0b84 58000000 		.4byte	.LVL147
 11641 0b88 60000000 		.4byte	.LFE22
 11642 0b8c 0400     		.2byte	0x4
 11643 0b8e F3       		.byte	0xf3
 11644 0b8f 01       		.uleb128 0x1
 11645 0b90 50       		.byte	0x50
 11646 0b91 9F       		.byte	0x9f
 11647 0b92 00000000 		.4byte	0
 11648 0b96 00000000 		.4byte	0
 11649              	.LLST53:
 11650 0b9a 08000000 		.4byte	.LVL134
 11651 0b9e 3D000000 		.4byte	.LVL144-1
 11652 0ba2 0100     		.2byte	0x1
 11653 0ba4 50       		.byte	0x50
ARM GAS  C:\Users\brian\AppData\Local\Temp\ccwE2E8f.s 			page 242


 11654 0ba5 00000000 		.4byte	0
 11655 0ba9 00000000 		.4byte	0
 11656              	.LLST54:
 11657 0bad 0C000000 		.4byte	.LVL135
 11658 0bb1 12000000 		.4byte	.LVL138
 11659 0bb5 0100     		.2byte	0x1
 11660 0bb7 53       		.byte	0x53
 11661 0bb8 12000000 		.4byte	.LVL138
 11662 0bbc 1A000000 		.4byte	.LVL139
 11663 0bc0 0500     		.2byte	0x5
 11664 0bc2 77       		.byte	0x77
 11665 0bc3 38       		.sleb128 56
 11666 0bc4 06       		.byte	0x6
 11667 0bc5 23       		.byte	0x23
 11668 0bc6 04       		.uleb128 0x4
 11669 0bc7 00000000 		.4byte	0
 11670 0bcb 00000000 		.4byte	0
 11671              	.LLST55:
 11672 0bcf 0C000000 		.4byte	.LVL135
 11673 0bd3 30000000 		.4byte	.LVL140
 11674 0bd7 0600     		.2byte	0x6
 11675 0bd9 03       		.byte	0x3
 11676 0bda 04000000 		.4byte	.LC1
 11677 0bde 9F       		.byte	0x9f
 11678 0bdf 30000000 		.4byte	.LVL140
 11679 0be3 3D000000 		.4byte	.LVL144-1
 11680 0be7 0100     		.2byte	0x1
 11681 0be9 51       		.byte	0x51
 11682 0bea 00000000 		.4byte	0
 11683 0bee 00000000 		.4byte	0
 11684              	.LLST56:
 11685 0bf2 0E000000 		.4byte	.LVL136
 11686 0bf6 58000000 		.4byte	.LVL147
 11687 0bfa 0100     		.2byte	0x1
 11688 0bfc 54       		.byte	0x54
 11689 0bfd 00000000 		.4byte	0
 11690 0c01 00000000 		.4byte	0
 11691              	.LLST57:
 11692 0c05 10000000 		.4byte	.LVL137
 11693 0c09 3D000000 		.4byte	.LVL144-1
 11694 0c0d 0100     		.2byte	0x1
 11695 0c0f 52       		.byte	0x52
 11696 0c10 00000000 		.4byte	0
 11697 0c14 00000000 		.4byte	0
 11698              	.LLST58:
 11699 0c18 12000000 		.4byte	.LVL138
 11700 0c1c 3D000000 		.4byte	.LVL144-1
 11701 0c20 0100     		.2byte	0x1
 11702 0c22 53       		.byte	0x53
 11703 0c23 00000000 		.4byte	0
 11704 0c27 00000000 		.4byte	0
 11705              	.LLST59:
 11706 0c2b 12000000 		.4byte	.LVL138
 11707 0c2f 30000000 		.4byte	.LVL140
 11708 0c33 0200     		.2byte	0x2
 11709 0c35 33       		.byte	0x33
 11710 0c36 9F       		.byte	0x9f
ARM GAS  C:\Users\brian\AppData\Local\Temp\ccwE2E8f.s 			page 243


 11711 0c37 30000000 		.4byte	.LVL140
 11712 0c3b 38000000 		.4byte	.LVL142
 11713 0c3f 0100     		.2byte	0x1
 11714 0c41 55       		.byte	0x55
 11715 0c42 3A000000 		.4byte	.LVL143
 11716 0c46 58000000 		.4byte	.LVL147
 11717 0c4a 0100     		.2byte	0x1
 11718 0c4c 55       		.byte	0x55
 11719 0c4d 00000000 		.4byte	0
 11720 0c51 00000000 		.4byte	0
 11721              	.LLST60:
 11722 0c55 00000000 		.4byte	.LVL148
 11723 0c59 0B000000 		.4byte	.LVL149-1
 11724 0c5d 0100     		.2byte	0x1
 11725 0c5f 50       		.byte	0x50
 11726 0c60 0B000000 		.4byte	.LVL149-1
 11727 0c64 2E000000 		.4byte	.LVL153
 11728 0c68 0100     		.2byte	0x1
 11729 0c6a 54       		.byte	0x54
 11730 0c6b 2E000000 		.4byte	.LVL153
 11731 0c6f 30000000 		.4byte	.LVL154
 11732 0c73 0100     		.2byte	0x1
 11733 0c75 50       		.byte	0x50
 11734 0c76 30000000 		.4byte	.LVL154
 11735 0c7a 32000000 		.4byte	.LFE13
 11736 0c7e 0400     		.2byte	0x4
 11737 0c80 F3       		.byte	0xf3
 11738 0c81 01       		.uleb128 0x1
 11739 0c82 50       		.byte	0x50
 11740 0c83 9F       		.byte	0x9f
 11741 0c84 00000000 		.4byte	0
 11742 0c88 00000000 		.4byte	0
 11743              	.LLST61:
 11744 0c8c 00000000 		.4byte	.LVL148
 11745 0c90 0B000000 		.4byte	.LVL149-1
 11746 0c94 0100     		.2byte	0x1
 11747 0c96 51       		.byte	0x51
 11748 0c97 0B000000 		.4byte	.LVL149-1
 11749 0c9b 2E000000 		.4byte	.LVL153
 11750 0c9f 0400     		.2byte	0x4
 11751 0ca1 F3       		.byte	0xf3
 11752 0ca2 01       		.uleb128 0x1
 11753 0ca3 51       		.byte	0x51
 11754 0ca4 9F       		.byte	0x9f
 11755 0ca5 2E000000 		.4byte	.LVL153
 11756 0ca9 32000000 		.4byte	.LFE13
 11757 0cad 0100     		.2byte	0x1
 11758 0caf 51       		.byte	0x51
 11759 0cb0 00000000 		.4byte	0
 11760 0cb4 00000000 		.4byte	0
 11761              	.LLST62:
 11762 0cb8 00000000 		.4byte	.LVL155
 11763 0cbc 13000000 		.4byte	.LVL156-1
 11764 0cc0 0100     		.2byte	0x1
 11765 0cc2 50       		.byte	0x50
 11766 0cc3 13000000 		.4byte	.LVL156-1
 11767 0cc7 30000000 		.4byte	.LVL158
ARM GAS  C:\Users\brian\AppData\Local\Temp\ccwE2E8f.s 			page 244


 11768 0ccb 0100     		.2byte	0x1
 11769 0ccd 54       		.byte	0x54
 11770 0cce 30000000 		.4byte	.LVL158
 11771 0cd2 39000000 		.4byte	.LVL160-1
 11772 0cd6 0100     		.2byte	0x1
 11773 0cd8 50       		.byte	0x50
 11774 0cd9 39000000 		.4byte	.LVL160-1
 11775 0cdd 3C000000 		.4byte	.LVL161
 11776 0ce1 0100     		.2byte	0x1
 11777 0ce3 54       		.byte	0x54
 11778 0ce4 3C000000 		.4byte	.LVL161
 11779 0ce8 3E000000 		.4byte	.LVL162
 11780 0cec 0100     		.2byte	0x1
 11781 0cee 50       		.byte	0x50
 11782 0cef 3E000000 		.4byte	.LVL162
 11783 0cf3 42000000 		.4byte	.LFE14
 11784 0cf7 0100     		.2byte	0x1
 11785 0cf9 54       		.byte	0x54
 11786 0cfa 00000000 		.4byte	0
 11787 0cfe 00000000 		.4byte	0
 11788              	.LLST63:
 11789 0d02 00000000 		.4byte	.LVL155
 11790 0d06 13000000 		.4byte	.LVL156-1
 11791 0d0a 0100     		.2byte	0x1
 11792 0d0c 51       		.byte	0x51
 11793 0d0d 13000000 		.4byte	.LVL156-1
 11794 0d11 30000000 		.4byte	.LVL158
 11795 0d15 0400     		.2byte	0x4
 11796 0d17 F3       		.byte	0xf3
 11797 0d18 01       		.uleb128 0x1
 11798 0d19 51       		.byte	0x51
 11799 0d1a 9F       		.byte	0x9f
 11800 0d1b 30000000 		.4byte	.LVL158
 11801 0d1f 36000000 		.4byte	.LVL159
 11802 0d23 0100     		.2byte	0x1
 11803 0d25 51       		.byte	0x51
 11804 0d26 36000000 		.4byte	.LVL159
 11805 0d2a 3C000000 		.4byte	.LVL161
 11806 0d2e 0400     		.2byte	0x4
 11807 0d30 F3       		.byte	0xf3
 11808 0d31 01       		.uleb128 0x1
 11809 0d32 51       		.byte	0x51
 11810 0d33 9F       		.byte	0x9f
 11811 0d34 3C000000 		.4byte	.LVL161
 11812 0d38 3E000000 		.4byte	.LVL162
 11813 0d3c 0100     		.2byte	0x1
 11814 0d3e 51       		.byte	0x51
 11815 0d3f 3E000000 		.4byte	.LVL162
 11816 0d43 42000000 		.4byte	.LFE14
 11817 0d47 0400     		.2byte	0x4
 11818 0d49 F3       		.byte	0xf3
 11819 0d4a 01       		.uleb128 0x1
 11820 0d4b 51       		.byte	0x51
 11821 0d4c 9F       		.byte	0x9f
 11822 0d4d 00000000 		.4byte	0
 11823 0d51 00000000 		.4byte	0
 11824              	.LLST64:
ARM GAS  C:\Users\brian\AppData\Local\Temp\ccwE2E8f.s 			page 245


 11825 0d55 00000000 		.4byte	.LVL163
 11826 0d59 0B000000 		.4byte	.LVL164-1
 11827 0d5d 0100     		.2byte	0x1
 11828 0d5f 50       		.byte	0x50
 11829 0d60 0B000000 		.4byte	.LVL164-1
 11830 0d64 58000000 		.4byte	.LFE15
 11831 0d68 0100     		.2byte	0x1
 11832 0d6a 55       		.byte	0x55
 11833 0d6b 00000000 		.4byte	0
 11834 0d6f 00000000 		.4byte	0
 11835              	.LLST65:
 11836 0d73 00000000 		.4byte	.LVL163
 11837 0d77 0B000000 		.4byte	.LVL164-1
 11838 0d7b 0100     		.2byte	0x1
 11839 0d7d 51       		.byte	0x51
 11840 0d7e 0B000000 		.4byte	.LVL164-1
 11841 0d82 58000000 		.4byte	.LFE15
 11842 0d86 0400     		.2byte	0x4
 11843 0d88 F3       		.byte	0xf3
 11844 0d89 01       		.uleb128 0x1
 11845 0d8a 51       		.byte	0x51
 11846 0d8b 9F       		.byte	0x9f
 11847 0d8c 00000000 		.4byte	0
 11848 0d90 00000000 		.4byte	0
 11849              	.LLST66:
 11850 0d94 0C000000 		.4byte	.LVL164
 11851 0d98 1A000000 		.4byte	.LVL165
 11852 0d9c 0100     		.2byte	0x1
 11853 0d9e 50       		.byte	0x50
 11854 0d9f 1A000000 		.4byte	.LVL165
 11855 0da3 44000000 		.4byte	.LVL168
 11856 0da7 0100     		.2byte	0x1
 11857 0da9 56       		.byte	0x56
 11858 0daa 44000000 		.4byte	.LVL168
 11859 0dae 4C000000 		.4byte	.LVL169
 11860 0db2 0100     		.2byte	0x1
 11861 0db4 50       		.byte	0x50
 11862 0db5 52000000 		.4byte	.LVL171
 11863 0db9 54000000 		.4byte	.LVL172
 11864 0dbd 0100     		.2byte	0x1
 11865 0dbf 50       		.byte	0x50
 11866 0dc0 00000000 		.4byte	0
 11867 0dc4 00000000 		.4byte	0
 11868              	.LLST67:
 11869 0dc8 00000000 		.4byte	.LVL173
 11870 0dcc 13000000 		.4byte	.LVL174-1
 11871 0dd0 0100     		.2byte	0x1
 11872 0dd2 50       		.byte	0x50
 11873 0dd3 13000000 		.4byte	.LVL174-1
 11874 0dd7 30000000 		.4byte	.LVL176
 11875 0ddb 0100     		.2byte	0x1
 11876 0ddd 54       		.byte	0x54
 11877 0dde 30000000 		.4byte	.LVL176
 11878 0de2 3E000000 		.4byte	.LVL178
 11879 0de6 0100     		.2byte	0x1
 11880 0de8 50       		.byte	0x50
 11881 0de9 3E000000 		.4byte	.LVL178
ARM GAS  C:\Users\brian\AppData\Local\Temp\ccwE2E8f.s 			page 246


 11882 0ded 46000000 		.4byte	.LVL180
 11883 0df1 0100     		.2byte	0x1
 11884 0df3 54       		.byte	0x54
 11885 0df4 46000000 		.4byte	.LVL180
 11886 0df8 48000000 		.4byte	.LVL181
 11887 0dfc 0100     		.2byte	0x1
 11888 0dfe 50       		.byte	0x50
 11889 0dff 48000000 		.4byte	.LVL181
 11890 0e03 4C000000 		.4byte	.LFE16
 11891 0e07 0100     		.2byte	0x1
 11892 0e09 54       		.byte	0x54
 11893 0e0a 00000000 		.4byte	0
 11894 0e0e 00000000 		.4byte	0
 11895              	.LLST68:
 11896 0e12 00000000 		.4byte	.LVL173
 11897 0e16 13000000 		.4byte	.LVL174-1
 11898 0e1a 0100     		.2byte	0x1
 11899 0e1c 51       		.byte	0x51
 11900 0e1d 13000000 		.4byte	.LVL174-1
 11901 0e21 30000000 		.4byte	.LVL176
 11902 0e25 0400     		.2byte	0x4
 11903 0e27 F3       		.byte	0xf3
 11904 0e28 01       		.uleb128 0x1
 11905 0e29 51       		.byte	0x51
 11906 0e2a 9F       		.byte	0x9f
 11907 0e2b 30000000 		.4byte	.LVL176
 11908 0e2f 41000000 		.4byte	.LVL179-1
 11909 0e33 0100     		.2byte	0x1
 11910 0e35 51       		.byte	0x51
 11911 0e36 41000000 		.4byte	.LVL179-1
 11912 0e3a 46000000 		.4byte	.LVL180
 11913 0e3e 0400     		.2byte	0x4
 11914 0e40 F3       		.byte	0xf3
 11915 0e41 01       		.uleb128 0x1
 11916 0e42 51       		.byte	0x51
 11917 0e43 9F       		.byte	0x9f
 11918 0e44 46000000 		.4byte	.LVL180
 11919 0e48 48000000 		.4byte	.LVL181
 11920 0e4c 0100     		.2byte	0x1
 11921 0e4e 51       		.byte	0x51
 11922 0e4f 48000000 		.4byte	.LVL181
 11923 0e53 4C000000 		.4byte	.LFE16
 11924 0e57 0400     		.2byte	0x4
 11925 0e59 F3       		.byte	0xf3
 11926 0e5a 01       		.uleb128 0x1
 11927 0e5b 51       		.byte	0x51
 11928 0e5c 9F       		.byte	0x9f
 11929 0e5d 00000000 		.4byte	0
 11930 0e61 00000000 		.4byte	0
 11931              	.LLST69:
 11932 0e65 34000000 		.4byte	.LVL177
 11933 0e69 41000000 		.4byte	.LVL179-1
 11934 0e6d 0100     		.2byte	0x1
 11935 0e6f 53       		.byte	0x53
 11936 0e70 00000000 		.4byte	0
 11937 0e74 00000000 		.4byte	0
 11938              	.LLST70:
ARM GAS  C:\Users\brian\AppData\Local\Temp\ccwE2E8f.s 			page 247


 11939 0e78 00000000 		.4byte	.LVL182
 11940 0e7c 09000000 		.4byte	.LVL183-1
 11941 0e80 0100     		.2byte	0x1
 11942 0e82 50       		.byte	0x50
 11943 0e83 09000000 		.4byte	.LVL183-1
 11944 0e87 46000000 		.4byte	.LFE17
 11945 0e8b 0100     		.2byte	0x1
 11946 0e8d 55       		.byte	0x55
 11947 0e8e 00000000 		.4byte	0
 11948 0e92 00000000 		.4byte	0
 11949              	.LLST71:
 11950 0e96 00000000 		.4byte	.LVL182
 11951 0e9a 09000000 		.4byte	.LVL183-1
 11952 0e9e 0100     		.2byte	0x1
 11953 0ea0 51       		.byte	0x51
 11954 0ea1 09000000 		.4byte	.LVL183-1
 11955 0ea5 46000000 		.4byte	.LFE17
 11956 0ea9 0400     		.2byte	0x4
 11957 0eab F3       		.byte	0xf3
 11958 0eac 01       		.uleb128 0x1
 11959 0ead 51       		.byte	0x51
 11960 0eae 9F       		.byte	0x9f
 11961 0eaf 00000000 		.4byte	0
 11962 0eb3 00000000 		.4byte	0
 11963              	.LLST72:
 11964 0eb7 0A000000 		.4byte	.LVL183
 11965 0ebb 1A000000 		.4byte	.LVL184
 11966 0ebf 0100     		.2byte	0x1
 11967 0ec1 50       		.byte	0x50
 11968 0ec2 34000000 		.4byte	.LVL187
 11969 0ec6 3C000000 		.4byte	.LVL188
 11970 0eca 0100     		.2byte	0x1
 11971 0ecc 50       		.byte	0x50
 11972 0ecd 42000000 		.4byte	.LVL190
 11973 0ed1 44000000 		.4byte	.LVL191
 11974 0ed5 0100     		.2byte	0x1
 11975 0ed7 50       		.byte	0x50
 11976 0ed8 00000000 		.4byte	0
 11977 0edc 00000000 		.4byte	0
 11978              	.LLST73:
 11979 0ee0 00000000 		.4byte	.LVL192
 11980 0ee4 09000000 		.4byte	.LVL193-1
 11981 0ee8 0100     		.2byte	0x1
 11982 0eea 50       		.byte	0x50
 11983 0eeb 09000000 		.4byte	.LVL193-1
 11984 0eef 48000000 		.4byte	.LFE18
 11985 0ef3 0100     		.2byte	0x1
 11986 0ef5 55       		.byte	0x55
 11987 0ef6 00000000 		.4byte	0
 11988 0efa 00000000 		.4byte	0
 11989              	.LLST74:
 11990 0efe 00000000 		.4byte	.LVL192
 11991 0f02 09000000 		.4byte	.LVL193-1
 11992 0f06 0100     		.2byte	0x1
 11993 0f08 51       		.byte	0x51
 11994 0f09 09000000 		.4byte	.LVL193-1
 11995 0f0d 48000000 		.4byte	.LFE18
ARM GAS  C:\Users\brian\AppData\Local\Temp\ccwE2E8f.s 			page 248


 11996 0f11 0400     		.2byte	0x4
 11997 0f13 F3       		.byte	0xf3
 11998 0f14 01       		.uleb128 0x1
 11999 0f15 51       		.byte	0x51
 12000 0f16 9F       		.byte	0x9f
 12001 0f17 00000000 		.4byte	0
 12002 0f1b 00000000 		.4byte	0
 12003              	.LLST75:
 12004 0f1f 0A000000 		.4byte	.LVL193
 12005 0f23 1A000000 		.4byte	.LVL194
 12006 0f27 0100     		.2byte	0x1
 12007 0f29 50       		.byte	0x50
 12008 0f2a 36000000 		.4byte	.LVL197
 12009 0f2e 3E000000 		.4byte	.LVL198
 12010 0f32 0100     		.2byte	0x1
 12011 0f34 50       		.byte	0x50
 12012 0f35 44000000 		.4byte	.LVL200
 12013 0f39 46000000 		.4byte	.LVL201
 12014 0f3d 0100     		.2byte	0x1
 12015 0f3f 50       		.byte	0x50
 12016 0f40 00000000 		.4byte	0
 12017 0f44 00000000 		.4byte	0
 12018              	.LLST76:
 12019 0f48 00000000 		.4byte	.LVL202
 12020 0f4c 19000000 		.4byte	.LVL207-1
 12021 0f50 0100     		.2byte	0x1
 12022 0f52 50       		.byte	0x50
 12023 0f53 19000000 		.4byte	.LVL207-1
 12024 0f57 1C000000 		.4byte	.LVL208
 12025 0f5b 0400     		.2byte	0x4
 12026 0f5d F3       		.byte	0xf3
 12027 0f5e 01       		.uleb128 0x1
 12028 0f5f 50       		.byte	0x50
 12029 0f60 9F       		.byte	0x9f
 12030 0f61 1C000000 		.4byte	.LVL208
 12031 0f65 2A000000 		.4byte	.LVL211
 12032 0f69 0100     		.2byte	0x1
 12033 0f6b 50       		.byte	0x50
 12034 0f6c 2A000000 		.4byte	.LVL211
 12035 0f70 2E000000 		.4byte	.LFE20
 12036 0f74 0400     		.2byte	0x4
 12037 0f76 F3       		.byte	0xf3
 12038 0f77 01       		.uleb128 0x1
 12039 0f78 50       		.byte	0x50
 12040 0f79 9F       		.byte	0x9f
 12041 0f7a 00000000 		.4byte	0
 12042 0f7e 00000000 		.4byte	0
 12043              	.LLST77:
 12044 0f82 00000000 		.4byte	.LVL202
 12045 0f86 19000000 		.4byte	.LVL207-1
 12046 0f8a 0100     		.2byte	0x1
 12047 0f8c 51       		.byte	0x51
 12048 0f8d 19000000 		.4byte	.LVL207-1
 12049 0f91 1C000000 		.4byte	.LVL208
 12050 0f95 0400     		.2byte	0x4
 12051 0f97 F3       		.byte	0xf3
 12052 0f98 01       		.uleb128 0x1
ARM GAS  C:\Users\brian\AppData\Local\Temp\ccwE2E8f.s 			page 249


 12053 0f99 51       		.byte	0x51
 12054 0f9a 9F       		.byte	0x9f
 12055 0f9b 1C000000 		.4byte	.LVL208
 12056 0f9f 2A000000 		.4byte	.LVL211
 12057 0fa3 0100     		.2byte	0x1
 12058 0fa5 51       		.byte	0x51
 12059 0fa6 2A000000 		.4byte	.LVL211
 12060 0faa 2E000000 		.4byte	.LFE20
 12061 0fae 0400     		.2byte	0x4
 12062 0fb0 F3       		.byte	0xf3
 12063 0fb1 01       		.uleb128 0x1
 12064 0fb2 51       		.byte	0x51
 12065 0fb3 9F       		.byte	0x9f
 12066 0fb4 00000000 		.4byte	0
 12067 0fb8 00000000 		.4byte	0
 12068              	.LLST78:
 12069 0fbc 06000000 		.4byte	.LVL203
 12070 0fc0 19000000 		.4byte	.LVL207-1
 12071 0fc4 0100     		.2byte	0x1
 12072 0fc6 53       		.byte	0x53
 12073 0fc7 1C000000 		.4byte	.LVL208
 12074 0fcb 1E000000 		.4byte	.LVL209
 12075 0fcf 0100     		.2byte	0x1
 12076 0fd1 53       		.byte	0x53
 12077 0fd2 1E000000 		.4byte	.LVL209
 12078 0fd6 24000000 		.4byte	.LVL210
 12079 0fda 0500     		.2byte	0x5
 12080 0fdc 70       		.byte	0x70
 12081 0fdd 38       		.sleb128 56
 12082 0fde 06       		.byte	0x6
 12083 0fdf 23       		.byte	0x23
 12084 0fe0 04       		.uleb128 0x4
 12085 0fe1 00000000 		.4byte	0
 12086 0fe5 00000000 		.4byte	0
 12087              	.LLST79:
 12088 0fe9 08000000 		.4byte	.LVL204
 12089 0fed 19000000 		.4byte	.LVL207-1
 12090 0ff1 0100     		.2byte	0x1
 12091 0ff3 52       		.byte	0x52
 12092 0ff4 1C000000 		.4byte	.LVL208
 12093 0ff8 2A000000 		.4byte	.LVL211
 12094 0ffc 0100     		.2byte	0x1
 12095 0ffe 52       		.byte	0x52
 12096 0fff 00000000 		.4byte	0
 12097 1003 00000000 		.4byte	0
 12098              	.LLST80:
 12099 1007 00000000 		.4byte	.LVL212
 12100 100b 23000000 		.4byte	.LVL218-1
 12101 100f 0100     		.2byte	0x1
 12102 1011 50       		.byte	0x50
 12103 1012 23000000 		.4byte	.LVL218-1
 12104 1016 28000000 		.4byte	.LVL219
 12105 101a 0400     		.2byte	0x4
 12106 101c F3       		.byte	0xf3
 12107 101d 01       		.uleb128 0x1
 12108 101e 50       		.byte	0x50
 12109 101f 9F       		.byte	0x9f
ARM GAS  C:\Users\brian\AppData\Local\Temp\ccwE2E8f.s 			page 250


 12110 1020 28000000 		.4byte	.LVL219
 12111 1024 38000000 		.4byte	.LVL222
 12112 1028 0100     		.2byte	0x1
 12113 102a 50       		.byte	0x50
 12114 102b 38000000 		.4byte	.LVL222
 12115 102f 3A000000 		.4byte	.LVL223
 12116 1033 0400     		.2byte	0x4
 12117 1035 F3       		.byte	0xf3
 12118 1036 01       		.uleb128 0x1
 12119 1037 50       		.byte	0x50
 12120 1038 9F       		.byte	0x9f
 12121 1039 3A000000 		.4byte	.LVL223
 12122 103d 3E000000 		.4byte	.LVL224
 12123 1041 0100     		.2byte	0x1
 12124 1043 50       		.byte	0x50
 12125 1044 3E000000 		.4byte	.LVL224
 12126 1048 52000000 		.4byte	.LVL226
 12127 104c 0400     		.2byte	0x4
 12128 104e F3       		.byte	0xf3
 12129 104f 01       		.uleb128 0x1
 12130 1050 50       		.byte	0x50
 12131 1051 9F       		.byte	0x9f
 12132 1052 52000000 		.4byte	.LVL226
 12133 1056 56000000 		.4byte	.LVL227
 12134 105a 0100     		.2byte	0x1
 12135 105c 50       		.byte	0x50
 12136 105d 56000000 		.4byte	.LVL227
 12137 1061 6C000000 		.4byte	.LVL231
 12138 1065 0400     		.2byte	0x4
 12139 1067 F3       		.byte	0xf3
 12140 1068 01       		.uleb128 0x1
 12141 1069 50       		.byte	0x50
 12142 106a 9F       		.byte	0x9f
 12143 106b 6C000000 		.4byte	.LVL231
 12144 106f 6E000000 		.4byte	.LVL232
 12145 1073 0100     		.2byte	0x1
 12146 1075 50       		.byte	0x50
 12147 1076 6E000000 		.4byte	.LVL232
 12148 107a 74000000 		.4byte	.LFE21
 12149 107e 0400     		.2byte	0x4
 12150 1080 F3       		.byte	0xf3
 12151 1081 01       		.uleb128 0x1
 12152 1082 50       		.byte	0x50
 12153 1083 9F       		.byte	0x9f
 12154 1084 00000000 		.4byte	0
 12155 1088 00000000 		.4byte	0
 12156              	.LLST81:
 12157 108c 00000000 		.4byte	.LVL212
 12158 1090 0E000000 		.4byte	.LVL217
 12159 1094 0100     		.2byte	0x1
 12160 1096 51       		.byte	0x51
 12161 1097 0E000000 		.4byte	.LVL217
 12162 109b 74000000 		.4byte	.LFE21
 12163 109f 0400     		.2byte	0x4
 12164 10a1 F3       		.byte	0xf3
 12165 10a2 01       		.uleb128 0x1
 12166 10a3 51       		.byte	0x51
ARM GAS  C:\Users\brian\AppData\Local\Temp\ccwE2E8f.s 			page 251


 12167 10a4 9F       		.byte	0x9f
 12168 10a5 00000000 		.4byte	0
 12169 10a9 00000000 		.4byte	0
 12170              	.LLST82:
 12171 10ad 06000000 		.4byte	.LVL213
 12172 10b1 0C000000 		.4byte	.LVL216
 12173 10b5 0100     		.2byte	0x1
 12174 10b7 53       		.byte	0x53
 12175 10b8 0C000000 		.4byte	.LVL216
 12176 10bc 23000000 		.4byte	.LVL218-1
 12177 10c0 0500     		.2byte	0x5
 12178 10c2 70       		.byte	0x70
 12179 10c3 38       		.sleb128 56
 12180 10c4 06       		.byte	0x6
 12181 10c5 23       		.byte	0x23
 12182 10c6 04       		.uleb128 0x4
 12183 10c7 28000000 		.4byte	.LVL219
 12184 10cb 36000000 		.4byte	.LVL221
 12185 10cf 0500     		.2byte	0x5
 12186 10d1 70       		.byte	0x70
 12187 10d2 38       		.sleb128 56
 12188 10d3 06       		.byte	0x6
 12189 10d4 23       		.byte	0x23
 12190 10d5 04       		.uleb128 0x4
 12191 10d6 3A000000 		.4byte	.LVL223
 12192 10da 3E000000 		.4byte	.LVL224
 12193 10de 0500     		.2byte	0x5
 12194 10e0 70       		.byte	0x70
 12195 10e1 38       		.sleb128 56
 12196 10e2 06       		.byte	0x6
 12197 10e3 23       		.byte	0x23
 12198 10e4 04       		.uleb128 0x4
 12199 10e5 3E000000 		.4byte	.LVL224
 12200 10e9 48000000 		.4byte	.LVL225
 12201 10ed 0800     		.2byte	0x8
 12202 10ef F3       		.byte	0xf3
 12203 10f0 01       		.uleb128 0x1
 12204 10f1 50       		.byte	0x50
 12205 10f2 23       		.byte	0x23
 12206 10f3 38       		.uleb128 0x38
 12207 10f4 06       		.byte	0x6
 12208 10f5 23       		.byte	0x23
 12209 10f6 04       		.uleb128 0x4
 12210 10f7 52000000 		.4byte	.LVL226
 12211 10fb 56000000 		.4byte	.LVL227
 12212 10ff 0500     		.2byte	0x5
 12213 1101 70       		.byte	0x70
 12214 1102 38       		.sleb128 56
 12215 1103 06       		.byte	0x6
 12216 1104 23       		.byte	0x23
 12217 1105 04       		.uleb128 0x4
 12218 1106 56000000 		.4byte	.LVL227
 12219 110a 60000000 		.4byte	.LVL228
 12220 110e 0800     		.2byte	0x8
 12221 1110 F3       		.byte	0xf3
 12222 1111 01       		.uleb128 0x1
 12223 1112 50       		.byte	0x50
ARM GAS  C:\Users\brian\AppData\Local\Temp\ccwE2E8f.s 			page 252


 12224 1113 23       		.byte	0x23
 12225 1114 38       		.uleb128 0x38
 12226 1115 06       		.byte	0x6
 12227 1116 23       		.byte	0x23
 12228 1117 04       		.uleb128 0x4
 12229 1118 64000000 		.4byte	.LVL229
 12230 111c 68000000 		.4byte	.LVL230
 12231 1120 0800     		.2byte	0x8
 12232 1122 F3       		.byte	0xf3
 12233 1123 01       		.uleb128 0x1
 12234 1124 50       		.byte	0x50
 12235 1125 23       		.byte	0x23
 12236 1126 38       		.uleb128 0x38
 12237 1127 06       		.byte	0x6
 12238 1128 23       		.byte	0x23
 12239 1129 04       		.uleb128 0x4
 12240 112a 6C000000 		.4byte	.LVL231
 12241 112e 6E000000 		.4byte	.LVL232
 12242 1132 0500     		.2byte	0x5
 12243 1134 70       		.byte	0x70
 12244 1135 38       		.sleb128 56
 12245 1136 06       		.byte	0x6
 12246 1137 23       		.byte	0x23
 12247 1138 04       		.uleb128 0x4
 12248 1139 6E000000 		.4byte	.LVL232
 12249 113d 70000000 		.4byte	.LVL233
 12250 1141 0800     		.2byte	0x8
 12251 1143 F3       		.byte	0xf3
 12252 1144 01       		.uleb128 0x1
 12253 1145 50       		.byte	0x50
 12254 1146 23       		.byte	0x23
 12255 1147 38       		.uleb128 0x38
 12256 1148 06       		.byte	0x6
 12257 1149 23       		.byte	0x23
 12258 114a 04       		.uleb128 0x4
 12259 114b 00000000 		.4byte	0
 12260 114f 00000000 		.4byte	0
 12261              	.LLST83:
 12262 1153 08000000 		.4byte	.LVL214
 12263 1157 23000000 		.4byte	.LVL218-1
 12264 115b 0100     		.2byte	0x1
 12265 115d 52       		.byte	0x52
 12266 115e 28000000 		.4byte	.LVL219
 12267 1162 74000000 		.4byte	.LFE21
 12268 1166 0100     		.2byte	0x1
 12269 1168 52       		.byte	0x52
 12270 1169 00000000 		.4byte	0
 12271 116d 00000000 		.4byte	0
 12272              	.LLST84:
 12273 1171 0C000000 		.4byte	.LVL216
 12274 1175 23000000 		.4byte	.LVL218-1
 12275 1179 0100     		.2byte	0x1
 12276 117b 53       		.byte	0x53
 12277 117c 28000000 		.4byte	.LVL219
 12278 1180 2C000000 		.4byte	.LVL220
 12279 1184 0100     		.2byte	0x1
 12280 1186 53       		.byte	0x53
ARM GAS  C:\Users\brian\AppData\Local\Temp\ccwE2E8f.s 			page 253


 12281 1187 2C000000 		.4byte	.LVL220
 12282 118b 36000000 		.4byte	.LVL221
 12283 118f 0800     		.2byte	0x8
 12284 1191 70       		.byte	0x70
 12285 1192 38       		.sleb128 56
 12286 1193 06       		.byte	0x6
 12287 1194 23       		.byte	0x23
 12288 1195 04       		.uleb128 0x4
 12289 1196 06       		.byte	0x6
 12290 1197 23       		.byte	0x23
 12291 1198 05       		.uleb128 0x5
 12292 1199 3A000000 		.4byte	.LVL223
 12293 119d 74000000 		.4byte	.LFE21
 12294 11a1 0100     		.2byte	0x1
 12295 11a3 53       		.byte	0x53
 12296 11a4 00000000 		.4byte	0
 12297 11a8 00000000 		.4byte	0
 12298              	.LLST85:
 12299 11ac 00000000 		.4byte	.LVL234
 12300 11b0 19000000 		.4byte	.LVL239-1
 12301 11b4 0100     		.2byte	0x1
 12302 11b6 50       		.byte	0x50
 12303 11b7 19000000 		.4byte	.LVL239-1
 12304 11bb 1C000000 		.4byte	.LVL240
 12305 11bf 0400     		.2byte	0x4
 12306 11c1 F3       		.byte	0xf3
 12307 11c2 01       		.uleb128 0x1
 12308 11c3 50       		.byte	0x50
 12309 11c4 9F       		.byte	0x9f
 12310 11c5 1C000000 		.4byte	.LVL240
 12311 11c9 2A000000 		.4byte	.LVL243
 12312 11cd 0100     		.2byte	0x1
 12313 11cf 50       		.byte	0x50
 12314 11d0 2A000000 		.4byte	.LVL243
 12315 11d4 2E000000 		.4byte	.LFE23
 12316 11d8 0400     		.2byte	0x4
 12317 11da F3       		.byte	0xf3
 12318 11db 01       		.uleb128 0x1
 12319 11dc 50       		.byte	0x50
 12320 11dd 9F       		.byte	0x9f
 12321 11de 00000000 		.4byte	0
 12322 11e2 00000000 		.4byte	0
 12323              	.LLST86:
 12324 11e6 00000000 		.4byte	.LVL234
 12325 11ea 19000000 		.4byte	.LVL239-1
 12326 11ee 0100     		.2byte	0x1
 12327 11f0 51       		.byte	0x51
 12328 11f1 19000000 		.4byte	.LVL239-1
 12329 11f5 1C000000 		.4byte	.LVL240
 12330 11f9 0400     		.2byte	0x4
 12331 11fb F3       		.byte	0xf3
 12332 11fc 01       		.uleb128 0x1
 12333 11fd 51       		.byte	0x51
 12334 11fe 9F       		.byte	0x9f
 12335 11ff 1C000000 		.4byte	.LVL240
 12336 1203 2A000000 		.4byte	.LVL243
 12337 1207 0100     		.2byte	0x1
ARM GAS  C:\Users\brian\AppData\Local\Temp\ccwE2E8f.s 			page 254


 12338 1209 51       		.byte	0x51
 12339 120a 2A000000 		.4byte	.LVL243
 12340 120e 2E000000 		.4byte	.LFE23
 12341 1212 0400     		.2byte	0x4
 12342 1214 F3       		.byte	0xf3
 12343 1215 01       		.uleb128 0x1
 12344 1216 51       		.byte	0x51
 12345 1217 9F       		.byte	0x9f
 12346 1218 00000000 		.4byte	0
 12347 121c 00000000 		.4byte	0
 12348              	.LLST87:
 12349 1220 06000000 		.4byte	.LVL235
 12350 1224 19000000 		.4byte	.LVL239-1
 12351 1228 0100     		.2byte	0x1
 12352 122a 53       		.byte	0x53
 12353 122b 1C000000 		.4byte	.LVL240
 12354 122f 1E000000 		.4byte	.LVL241
 12355 1233 0100     		.2byte	0x1
 12356 1235 53       		.byte	0x53
 12357 1236 1E000000 		.4byte	.LVL241
 12358 123a 24000000 		.4byte	.LVL242
 12359 123e 0500     		.2byte	0x5
 12360 1240 70       		.byte	0x70
 12361 1241 38       		.sleb128 56
 12362 1242 06       		.byte	0x6
 12363 1243 23       		.byte	0x23
 12364 1244 04       		.uleb128 0x4
 12365 1245 00000000 		.4byte	0
 12366 1249 00000000 		.4byte	0
 12367              	.LLST88:
 12368 124d 08000000 		.4byte	.LVL236
 12369 1251 19000000 		.4byte	.LVL239-1
 12370 1255 0100     		.2byte	0x1
 12371 1257 52       		.byte	0x52
 12372 1258 1C000000 		.4byte	.LVL240
 12373 125c 2A000000 		.4byte	.LVL243
 12374 1260 0100     		.2byte	0x1
 12375 1262 52       		.byte	0x52
 12376 1263 00000000 		.4byte	0
 12377 1267 00000000 		.4byte	0
 12378              	.LLST89:
 12379 126b 00000000 		.4byte	.LVL244
 12380 126f 23000000 		.4byte	.LVL250-1
 12381 1273 0100     		.2byte	0x1
 12382 1275 50       		.byte	0x50
 12383 1276 23000000 		.4byte	.LVL250-1
 12384 127a 28000000 		.4byte	.LVL251
 12385 127e 0400     		.2byte	0x4
 12386 1280 F3       		.byte	0xf3
 12387 1281 01       		.uleb128 0x1
 12388 1282 50       		.byte	0x50
 12389 1283 9F       		.byte	0x9f
 12390 1284 28000000 		.4byte	.LVL251
 12391 1288 38000000 		.4byte	.LVL254
 12392 128c 0100     		.2byte	0x1
 12393 128e 50       		.byte	0x50
 12394 128f 38000000 		.4byte	.LVL254
ARM GAS  C:\Users\brian\AppData\Local\Temp\ccwE2E8f.s 			page 255


 12395 1293 3A000000 		.4byte	.LVL255
 12396 1297 0400     		.2byte	0x4
 12397 1299 F3       		.byte	0xf3
 12398 129a 01       		.uleb128 0x1
 12399 129b 50       		.byte	0x50
 12400 129c 9F       		.byte	0x9f
 12401 129d 3A000000 		.4byte	.LVL255
 12402 12a1 3E000000 		.4byte	.LVL256
 12403 12a5 0100     		.2byte	0x1
 12404 12a7 50       		.byte	0x50
 12405 12a8 3E000000 		.4byte	.LVL256
 12406 12ac 52000000 		.4byte	.LVL258
 12407 12b0 0400     		.2byte	0x4
 12408 12b2 F3       		.byte	0xf3
 12409 12b3 01       		.uleb128 0x1
 12410 12b4 50       		.byte	0x50
 12411 12b5 9F       		.byte	0x9f
 12412 12b6 52000000 		.4byte	.LVL258
 12413 12ba 56000000 		.4byte	.LVL259
 12414 12be 0100     		.2byte	0x1
 12415 12c0 50       		.byte	0x50
 12416 12c1 56000000 		.4byte	.LVL259
 12417 12c5 6C000000 		.4byte	.LVL263
 12418 12c9 0400     		.2byte	0x4
 12419 12cb F3       		.byte	0xf3
 12420 12cc 01       		.uleb128 0x1
 12421 12cd 50       		.byte	0x50
 12422 12ce 9F       		.byte	0x9f
 12423 12cf 6C000000 		.4byte	.LVL263
 12424 12d3 6E000000 		.4byte	.LVL264
 12425 12d7 0100     		.2byte	0x1
 12426 12d9 50       		.byte	0x50
 12427 12da 6E000000 		.4byte	.LVL264
 12428 12de 74000000 		.4byte	.LFE24
 12429 12e2 0400     		.2byte	0x4
 12430 12e4 F3       		.byte	0xf3
 12431 12e5 01       		.uleb128 0x1
 12432 12e6 50       		.byte	0x50
 12433 12e7 9F       		.byte	0x9f
 12434 12e8 00000000 		.4byte	0
 12435 12ec 00000000 		.4byte	0
 12436              	.LLST90:
 12437 12f0 00000000 		.4byte	.LVL244
 12438 12f4 0E000000 		.4byte	.LVL249
 12439 12f8 0100     		.2byte	0x1
 12440 12fa 51       		.byte	0x51
 12441 12fb 0E000000 		.4byte	.LVL249
 12442 12ff 74000000 		.4byte	.LFE24
 12443 1303 0400     		.2byte	0x4
 12444 1305 F3       		.byte	0xf3
 12445 1306 01       		.uleb128 0x1
 12446 1307 51       		.byte	0x51
 12447 1308 9F       		.byte	0x9f
 12448 1309 00000000 		.4byte	0
 12449 130d 00000000 		.4byte	0
 12450              	.LLST91:
 12451 1311 06000000 		.4byte	.LVL245
ARM GAS  C:\Users\brian\AppData\Local\Temp\ccwE2E8f.s 			page 256


 12452 1315 0C000000 		.4byte	.LVL248
 12453 1319 0100     		.2byte	0x1
 12454 131b 53       		.byte	0x53
 12455 131c 0C000000 		.4byte	.LVL248
 12456 1320 23000000 		.4byte	.LVL250-1
 12457 1324 0500     		.2byte	0x5
 12458 1326 70       		.byte	0x70
 12459 1327 38       		.sleb128 56
 12460 1328 06       		.byte	0x6
 12461 1329 23       		.byte	0x23
 12462 132a 04       		.uleb128 0x4
 12463 132b 28000000 		.4byte	.LVL251
 12464 132f 36000000 		.4byte	.LVL253
 12465 1333 0500     		.2byte	0x5
 12466 1335 70       		.byte	0x70
 12467 1336 38       		.sleb128 56
 12468 1337 06       		.byte	0x6
 12469 1338 23       		.byte	0x23
 12470 1339 04       		.uleb128 0x4
 12471 133a 3A000000 		.4byte	.LVL255
 12472 133e 3E000000 		.4byte	.LVL256
 12473 1342 0500     		.2byte	0x5
 12474 1344 70       		.byte	0x70
 12475 1345 38       		.sleb128 56
 12476 1346 06       		.byte	0x6
 12477 1347 23       		.byte	0x23
 12478 1348 04       		.uleb128 0x4
 12479 1349 3E000000 		.4byte	.LVL256
 12480 134d 48000000 		.4byte	.LVL257
 12481 1351 0800     		.2byte	0x8
 12482 1353 F3       		.byte	0xf3
 12483 1354 01       		.uleb128 0x1
 12484 1355 50       		.byte	0x50
 12485 1356 23       		.byte	0x23
 12486 1357 38       		.uleb128 0x38
 12487 1358 06       		.byte	0x6
 12488 1359 23       		.byte	0x23
 12489 135a 04       		.uleb128 0x4
 12490 135b 52000000 		.4byte	.LVL258
 12491 135f 56000000 		.4byte	.LVL259
 12492 1363 0500     		.2byte	0x5
 12493 1365 70       		.byte	0x70
 12494 1366 38       		.sleb128 56
 12495 1367 06       		.byte	0x6
 12496 1368 23       		.byte	0x23
 12497 1369 04       		.uleb128 0x4
 12498 136a 56000000 		.4byte	.LVL259
 12499 136e 60000000 		.4byte	.LVL260
 12500 1372 0800     		.2byte	0x8
 12501 1374 F3       		.byte	0xf3
 12502 1375 01       		.uleb128 0x1
 12503 1376 50       		.byte	0x50
 12504 1377 23       		.byte	0x23
 12505 1378 38       		.uleb128 0x38
 12506 1379 06       		.byte	0x6
 12507 137a 23       		.byte	0x23
 12508 137b 04       		.uleb128 0x4
ARM GAS  C:\Users\brian\AppData\Local\Temp\ccwE2E8f.s 			page 257


 12509 137c 64000000 		.4byte	.LVL261
 12510 1380 68000000 		.4byte	.LVL262
 12511 1384 0800     		.2byte	0x8
 12512 1386 F3       		.byte	0xf3
 12513 1387 01       		.uleb128 0x1
 12514 1388 50       		.byte	0x50
 12515 1389 23       		.byte	0x23
 12516 138a 38       		.uleb128 0x38
 12517 138b 06       		.byte	0x6
 12518 138c 23       		.byte	0x23
 12519 138d 04       		.uleb128 0x4
 12520 138e 6C000000 		.4byte	.LVL263
 12521 1392 6E000000 		.4byte	.LVL264
 12522 1396 0500     		.2byte	0x5
 12523 1398 70       		.byte	0x70
 12524 1399 38       		.sleb128 56
 12525 139a 06       		.byte	0x6
 12526 139b 23       		.byte	0x23
 12527 139c 04       		.uleb128 0x4
 12528 139d 6E000000 		.4byte	.LVL264
 12529 13a1 70000000 		.4byte	.LVL265
 12530 13a5 0800     		.2byte	0x8
 12531 13a7 F3       		.byte	0xf3
 12532 13a8 01       		.uleb128 0x1
 12533 13a9 50       		.byte	0x50
 12534 13aa 23       		.byte	0x23
 12535 13ab 38       		.uleb128 0x38
 12536 13ac 06       		.byte	0x6
 12537 13ad 23       		.byte	0x23
 12538 13ae 04       		.uleb128 0x4
 12539 13af 00000000 		.4byte	0
 12540 13b3 00000000 		.4byte	0
 12541              	.LLST92:
 12542 13b7 08000000 		.4byte	.LVL246
 12543 13bb 23000000 		.4byte	.LVL250-1
 12544 13bf 0100     		.2byte	0x1
 12545 13c1 52       		.byte	0x52
 12546 13c2 28000000 		.4byte	.LVL251
 12547 13c6 74000000 		.4byte	.LFE24
 12548 13ca 0100     		.2byte	0x1
 12549 13cc 52       		.byte	0x52
 12550 13cd 00000000 		.4byte	0
 12551 13d1 00000000 		.4byte	0
 12552              	.LLST93:
 12553 13d5 0C000000 		.4byte	.LVL248
 12554 13d9 23000000 		.4byte	.LVL250-1
 12555 13dd 0100     		.2byte	0x1
 12556 13df 53       		.byte	0x53
 12557 13e0 28000000 		.4byte	.LVL251
 12558 13e4 2C000000 		.4byte	.LVL252
 12559 13e8 0100     		.2byte	0x1
 12560 13ea 53       		.byte	0x53
 12561 13eb 2C000000 		.4byte	.LVL252
 12562 13ef 36000000 		.4byte	.LVL253
 12563 13f3 0800     		.2byte	0x8
 12564 13f5 70       		.byte	0x70
 12565 13f6 38       		.sleb128 56
ARM GAS  C:\Users\brian\AppData\Local\Temp\ccwE2E8f.s 			page 258


 12566 13f7 06       		.byte	0x6
 12567 13f8 23       		.byte	0x23
 12568 13f9 04       		.uleb128 0x4
 12569 13fa 06       		.byte	0x6
 12570 13fb 23       		.byte	0x23
 12571 13fc 05       		.uleb128 0x5
 12572 13fd 3A000000 		.4byte	.LVL255
 12573 1401 74000000 		.4byte	.LFE24
 12574 1405 0100     		.2byte	0x1
 12575 1407 53       		.byte	0x53
 12576 1408 00000000 		.4byte	0
 12577 140c 00000000 		.4byte	0
 12578              	.LLST94:
 12579 1410 00000000 		.4byte	.LVL266
 12580 1414 0B000000 		.4byte	.LVL267-1
 12581 1418 0100     		.2byte	0x1
 12582 141a 50       		.byte	0x50
 12583 141b 0B000000 		.4byte	.LVL267-1
 12584 141f A0000000 		.4byte	.LFE26
 12585 1423 0100     		.2byte	0x1
 12586 1425 56       		.byte	0x56
 12587 1426 00000000 		.4byte	0
 12588 142a 00000000 		.4byte	0
 12589              	.LLST95:
 12590 142e 00000000 		.4byte	.LVL266
 12591 1432 0B000000 		.4byte	.LVL267-1
 12592 1436 0100     		.2byte	0x1
 12593 1438 51       		.byte	0x51
 12594 1439 0B000000 		.4byte	.LVL267-1
 12595 143d A0000000 		.4byte	.LFE26
 12596 1441 0400     		.2byte	0x4
 12597 1443 F3       		.byte	0xf3
 12598 1444 01       		.uleb128 0x1
 12599 1445 51       		.byte	0x51
 12600 1446 9F       		.byte	0x9f
 12601 1447 00000000 		.4byte	0
 12602 144b 00000000 		.4byte	0
 12603              	.LLST96:
 12604 144f 0E000000 		.4byte	.LVL268
 12605 1453 26000000 		.4byte	.LVL270
 12606 1457 0100     		.2byte	0x1
 12607 1459 50       		.byte	0x50
 12608 145a 26000000 		.4byte	.LVL270
 12609 145e 54000000 		.4byte	.LVL273
 12610 1462 0100     		.2byte	0x1
 12611 1464 57       		.byte	0x57
 12612 1465 54000000 		.4byte	.LVL273
 12613 1469 64000000 		.4byte	.LVL274
 12614 146d 0100     		.2byte	0x1
 12615 146f 50       		.byte	0x50
 12616 1470 64000000 		.4byte	.LVL274
 12617 1474 66000000 		.4byte	.LVL275
 12618 1478 0100     		.2byte	0x1
 12619 147a 57       		.byte	0x57
 12620 147b 66000000 		.4byte	.LVL275
 12621 147f 6A000000 		.4byte	.LVL276
 12622 1483 0100     		.2byte	0x1
ARM GAS  C:\Users\brian\AppData\Local\Temp\ccwE2E8f.s 			page 259


 12623 1485 50       		.byte	0x50
 12624 1486 6A000000 		.4byte	.LVL276
 12625 148a 80000000 		.4byte	.LVL278
 12626 148e 0100     		.2byte	0x1
 12627 1490 57       		.byte	0x57
 12628 1491 80000000 		.4byte	.LVL278
 12629 1495 84000000 		.4byte	.LVL279
 12630 1499 0100     		.2byte	0x1
 12631 149b 50       		.byte	0x50
 12632 149c 84000000 		.4byte	.LVL279
 12633 14a0 9A000000 		.4byte	.LVL281
 12634 14a4 0100     		.2byte	0x1
 12635 14a6 57       		.byte	0x57
 12636 14a7 9A000000 		.4byte	.LVL281
 12637 14ab 9C000000 		.4byte	.LVL282
 12638 14af 0100     		.2byte	0x1
 12639 14b1 50       		.byte	0x50
 12640 14b2 9C000000 		.4byte	.LVL282
 12641 14b6 A0000000 		.4byte	.LFE26
 12642 14ba 0100     		.2byte	0x1
 12643 14bc 57       		.byte	0x57
 12644 14bd 00000000 		.4byte	0
 12645 14c1 00000000 		.4byte	0
 12646              	.LLST97:
 12647 14c5 00000000 		.4byte	.LVL283
 12648 14c9 17000000 		.4byte	.LVL286-1
 12649 14cd 0100     		.2byte	0x1
 12650 14cf 50       		.byte	0x50
 12651 14d0 17000000 		.4byte	.LVL286-1
 12652 14d4 36000000 		.4byte	.LVL289
 12653 14d8 0100     		.2byte	0x1
 12654 14da 54       		.byte	0x54
 12655 14db 36000000 		.4byte	.LVL289
 12656 14df 41000000 		.4byte	.LVL291-1
 12657 14e3 0100     		.2byte	0x1
 12658 14e5 50       		.byte	0x50
 12659 14e6 41000000 		.4byte	.LVL291-1
 12660 14ea 4C000000 		.4byte	.LFE27
 12661 14ee 0100     		.2byte	0x1
 12662 14f0 54       		.byte	0x54
 12663 14f1 00000000 		.4byte	0
 12664 14f5 00000000 		.4byte	0
 12665              	.LLST98:
 12666 14f9 00000000 		.4byte	.LVL283
 12667 14fd 14000000 		.4byte	.LVL285
 12668 1501 0100     		.2byte	0x1
 12669 1503 51       		.byte	0x51
 12670 1504 14000000 		.4byte	.LVL285
 12671 1508 36000000 		.4byte	.LVL289
 12672 150c 0400     		.2byte	0x4
 12673 150e F3       		.byte	0xf3
 12674 150f 01       		.uleb128 0x1
 12675 1510 51       		.byte	0x51
 12676 1511 9F       		.byte	0x9f
 12677 1512 36000000 		.4byte	.LVL289
 12678 1516 38000000 		.4byte	.LVL290
 12679 151a 0100     		.2byte	0x1
ARM GAS  C:\Users\brian\AppData\Local\Temp\ccwE2E8f.s 			page 260


 12680 151c 51       		.byte	0x51
 12681 151d 38000000 		.4byte	.LVL290
 12682 1521 4C000000 		.4byte	.LFE27
 12683 1525 0400     		.2byte	0x4
 12684 1527 F3       		.byte	0xf3
 12685 1528 01       		.uleb128 0x1
 12686 1529 51       		.byte	0x51
 12687 152a 9F       		.byte	0x9f
 12688 152b 00000000 		.4byte	0
 12689 152f 00000000 		.4byte	0
 12690              	.LLST99:
 12691 1533 00000000 		.4byte	.LVL292
 12692 1537 21000000 		.4byte	.LVL295-1
 12693 153b 0100     		.2byte	0x1
 12694 153d 50       		.byte	0x50
 12695 153e 21000000 		.4byte	.LVL295-1
 12696 1542 42000000 		.4byte	.LVL298
 12697 1546 0100     		.2byte	0x1
 12698 1548 54       		.byte	0x54
 12699 1549 42000000 		.4byte	.LVL298
 12700 154d 52000000 		.4byte	.LVL299
 12701 1551 0100     		.2byte	0x1
 12702 1553 50       		.byte	0x50
 12703 1554 52000000 		.4byte	.LVL299
 12704 1558 54000000 		.4byte	.LVL300
 12705 155c 0100     		.2byte	0x1
 12706 155e 54       		.byte	0x54
 12707 155f 54000000 		.4byte	.LVL300
 12708 1563 58000000 		.4byte	.LVL301
 12709 1567 0100     		.2byte	0x1
 12710 1569 50       		.byte	0x50
 12711 156a 58000000 		.4byte	.LVL301
 12712 156e 72000000 		.4byte	.LVL303
 12713 1572 0100     		.2byte	0x1
 12714 1574 54       		.byte	0x54
 12715 1575 72000000 		.4byte	.LVL303
 12716 1579 76000000 		.4byte	.LVL304
 12717 157d 0100     		.2byte	0x1
 12718 157f 50       		.byte	0x50
 12719 1580 76000000 		.4byte	.LVL304
 12720 1584 8E000000 		.4byte	.LVL306
 12721 1588 0100     		.2byte	0x1
 12722 158a 54       		.byte	0x54
 12723 158b 8E000000 		.4byte	.LVL306
 12724 158f 90000000 		.4byte	.LVL307
 12725 1593 0100     		.2byte	0x1
 12726 1595 50       		.byte	0x50
 12727 1596 90000000 		.4byte	.LVL307
 12728 159a 96000000 		.4byte	.LFE28
 12729 159e 0100     		.2byte	0x1
 12730 15a0 54       		.byte	0x54
 12731 15a1 00000000 		.4byte	0
 12732 15a5 00000000 		.4byte	0
 12733              	.LLST100:
 12734 15a9 00000000 		.4byte	.LVL292
 12735 15ad 0A000000 		.4byte	.LVL294
 12736 15b1 0100     		.2byte	0x1
ARM GAS  C:\Users\brian\AppData\Local\Temp\ccwE2E8f.s 			page 261


 12737 15b3 51       		.byte	0x51
 12738 15b4 0A000000 		.4byte	.LVL294
 12739 15b8 96000000 		.4byte	.LFE28
 12740 15bc 0400     		.2byte	0x4
 12741 15be F3       		.byte	0xf3
 12742 15bf 01       		.uleb128 0x1
 12743 15c0 51       		.byte	0x51
 12744 15c1 9F       		.byte	0x9f
 12745 15c2 00000000 		.4byte	0
 12746 15c6 00000000 		.4byte	0
 12747              	.LLST101:
 12748 15ca 00000000 		.4byte	.LVL309
 12749 15ce 0D000000 		.4byte	.LVL310-1
 12750 15d2 0100     		.2byte	0x1
 12751 15d4 50       		.byte	0x50
 12752 15d5 0D000000 		.4byte	.LVL310-1
 12753 15d9 FC000000 		.4byte	.LFE29
 12754 15dd 0100     		.2byte	0x1
 12755 15df 54       		.byte	0x54
 12756 15e0 00000000 		.4byte	0
 12757 15e4 00000000 		.4byte	0
 12758              	.LLST102:
 12759 15e8 00000000 		.4byte	.LVL309
 12760 15ec 0D000000 		.4byte	.LVL310-1
 12761 15f0 0100     		.2byte	0x1
 12762 15f2 51       		.byte	0x51
 12763 15f3 0D000000 		.4byte	.LVL310-1
 12764 15f7 FC000000 		.4byte	.LFE29
 12765 15fb 0400     		.2byte	0x4
 12766 15fd F3       		.byte	0xf3
 12767 15fe 01       		.uleb128 0x1
 12768 15ff 51       		.byte	0x51
 12769 1600 9F       		.byte	0x9f
 12770 1601 00000000 		.4byte	0
 12771 1605 00000000 		.4byte	0
 12772              	.LLST103:
 12773 1609 0E000000 		.4byte	.LVL310
 12774 160d 44000000 		.4byte	.LVL315
 12775 1611 0100     		.2byte	0x1
 12776 1613 50       		.byte	0x50
 12777 1614 44000000 		.4byte	.LVL315
 12778 1618 62000000 		.4byte	.LVL319
 12779 161c 0100     		.2byte	0x1
 12780 161e 56       		.byte	0x56
 12781 161f 62000000 		.4byte	.LVL319
 12782 1623 64000000 		.4byte	.LVL320
 12783 1627 0100     		.2byte	0x1
 12784 1629 50       		.byte	0x50
 12785 162a 64000000 		.4byte	.LVL320
 12786 162e E4000000 		.4byte	.LVL337
 12787 1632 0100     		.2byte	0x1
 12788 1634 56       		.byte	0x56
 12789 1635 E4000000 		.4byte	.LVL337
 12790 1639 F4000000 		.4byte	.LVL338
 12791 163d 0100     		.2byte	0x1
 12792 163f 50       		.byte	0x50
 12793 1640 00000000 		.4byte	0
ARM GAS  C:\Users\brian\AppData\Local\Temp\ccwE2E8f.s 			page 262


 12794 1644 00000000 		.4byte	0
 12795              	.LLST104:
 12796 1648 0E000000 		.4byte	.LVL310
 12797 164c 38000000 		.4byte	.LVL312
 12798 1650 0200     		.2byte	0x2
 12799 1652 30       		.byte	0x30
 12800 1653 9F       		.byte	0x9f
 12801 1654 38000000 		.4byte	.LVL312
 12802 1658 E4000000 		.4byte	.LVL337
 12803 165c 0100     		.2byte	0x1
 12804 165e 57       		.byte	0x57
 12805 165f E4000000 		.4byte	.LVL337
 12806 1663 F4000000 		.4byte	.LVL338
 12807 1667 0200     		.2byte	0x2
 12808 1669 30       		.byte	0x30
 12809 166a 9F       		.byte	0x9f
 12810 166b 00000000 		.4byte	0
 12811 166f 00000000 		.4byte	0
 12812              	.LLST105:
 12813 1673 12000000 		.4byte	.LVL311
 12814 1677 40000000 		.4byte	.LVL314
 12815 167b 0100     		.2byte	0x1
 12816 167d 53       		.byte	0x53
 12817 167e E4000000 		.4byte	.LVL337
 12818 1682 F4000000 		.4byte	.LVL338
 12819 1686 0100     		.2byte	0x1
 12820 1688 53       		.byte	0x53
 12821 1689 00000000 		.4byte	0
 12822 168d 00000000 		.4byte	0
 12823              	.LLST106:
 12824 1691 38000000 		.4byte	.LVL312
 12825 1695 94000000 		.4byte	.LVL325
 12826 1699 0200     		.2byte	0x2
 12827 169b 30       		.byte	0x30
 12828 169c 9F       		.byte	0x9f
 12829 169d 94000000 		.4byte	.LVL325
 12830 16a1 B8000000 		.4byte	.LVL331
 12831 16a5 0100     		.2byte	0x1
 12832 16a7 59       		.byte	0x59
 12833 16a8 B8000000 		.4byte	.LVL331
 12834 16ac BC000000 		.4byte	.LVL332
 12835 16b0 0200     		.2byte	0x2
 12836 16b2 30       		.byte	0x30
 12837 16b3 9F       		.byte	0x9f
 12838 16b4 BC000000 		.4byte	.LVL332
 12839 16b8 E4000000 		.4byte	.LVL337
 12840 16bc 0100     		.2byte	0x1
 12841 16be 59       		.byte	0x59
 12842 16bf 00000000 		.4byte	0
 12843 16c3 00000000 		.4byte	0
 12844              	.LLST107:
 12845 16c7 3E000000 		.4byte	.LVL313
 12846 16cb 96000000 		.4byte	.LVL326
 12847 16cf 0100     		.2byte	0x1
 12848 16d1 55       		.byte	0x55
 12849 16d2 96000000 		.4byte	.LVL326
 12850 16d6 98000000 		.4byte	.LVL327
ARM GAS  C:\Users\brian\AppData\Local\Temp\ccwE2E8f.s 			page 263


 12851 16da 0300     		.2byte	0x3
 12852 16dc 75       		.byte	0x75
 12853 16dd 7E       		.sleb128 -2
 12854 16de 9F       		.byte	0x9f
 12855 16df 98000000 		.4byte	.LVL327
 12856 16e3 D2000000 		.4byte	.LVL335
 12857 16e7 0100     		.2byte	0x1
 12858 16e9 55       		.byte	0x55
 12859 16ea 00000000 		.4byte	0
 12860 16ee 00000000 		.4byte	0
 12861              	.LLST108:
 12862 16f2 00000000 		.4byte	.LVL339
 12863 16f6 0D000000 		.4byte	.LVL340-1
 12864 16fa 0100     		.2byte	0x1
 12865 16fc 50       		.byte	0x50
 12866 16fd 0D000000 		.4byte	.LVL340-1
 12867 1701 EE000000 		.4byte	.LFE30
 12868 1705 0100     		.2byte	0x1
 12869 1707 54       		.byte	0x54
 12870 1708 00000000 		.4byte	0
 12871 170c 00000000 		.4byte	0
 12872              	.LLST109:
 12873 1710 00000000 		.4byte	.LVL339
 12874 1714 0D000000 		.4byte	.LVL340-1
 12875 1718 0100     		.2byte	0x1
 12876 171a 51       		.byte	0x51
 12877 171b 0D000000 		.4byte	.LVL340-1
 12878 171f EE000000 		.4byte	.LFE30
 12879 1723 0400     		.2byte	0x4
 12880 1725 F3       		.byte	0xf3
 12881 1726 01       		.uleb128 0x1
 12882 1727 51       		.byte	0x51
 12883 1728 9F       		.byte	0x9f
 12884 1729 00000000 		.4byte	0
 12885 172d 00000000 		.4byte	0
 12886              	.LLST110:
 12887 1731 0E000000 		.4byte	.LVL340
 12888 1735 40000000 		.4byte	.LVL345
 12889 1739 0100     		.2byte	0x1
 12890 173b 50       		.byte	0x50
 12891 173c 40000000 		.4byte	.LVL345
 12892 1740 5E000000 		.4byte	.LVL349
 12893 1744 0100     		.2byte	0x1
 12894 1746 56       		.byte	0x56
 12895 1747 5E000000 		.4byte	.LVL349
 12896 174b 60000000 		.4byte	.LVL350
 12897 174f 0100     		.2byte	0x1
 12898 1751 50       		.byte	0x50
 12899 1752 60000000 		.4byte	.LVL350
 12900 1756 E0000000 		.4byte	.LVL367
 12901 175a 0100     		.2byte	0x1
 12902 175c 56       		.byte	0x56
 12903 175d E0000000 		.4byte	.LVL367
 12904 1761 E6000000 		.4byte	.LVL368
 12905 1765 0100     		.2byte	0x1
 12906 1767 50       		.byte	0x50
 12907 1768 00000000 		.4byte	0
ARM GAS  C:\Users\brian\AppData\Local\Temp\ccwE2E8f.s 			page 264


 12908 176c 00000000 		.4byte	0
 12909              	.LLST111:
 12910 1770 0E000000 		.4byte	.LVL340
 12911 1774 2E000000 		.4byte	.LVL342
 12912 1778 0200     		.2byte	0x2
 12913 177a 30       		.byte	0x30
 12914 177b 9F       		.byte	0x9f
 12915 177c 2E000000 		.4byte	.LVL342
 12916 1780 E0000000 		.4byte	.LVL367
 12917 1784 0100     		.2byte	0x1
 12918 1786 57       		.byte	0x57
 12919 1787 E0000000 		.4byte	.LVL367
 12920 178b E6000000 		.4byte	.LVL368
 12921 178f 0200     		.2byte	0x2
 12922 1791 30       		.byte	0x30
 12923 1792 9F       		.byte	0x9f
 12924 1793 00000000 		.4byte	0
 12925 1797 00000000 		.4byte	0
 12926              	.LLST112:
 12927 179b 12000000 		.4byte	.LVL341
 12928 179f 3A000000 		.4byte	.LVL344
 12929 17a3 0100     		.2byte	0x1
 12930 17a5 53       		.byte	0x53
 12931 17a6 3A000000 		.4byte	.LVL344
 12932 17aa 43000000 		.4byte	.LVL346-1
 12933 17ae 0500     		.2byte	0x5
 12934 17b0 74       		.byte	0x74
 12935 17b1 38       		.sleb128 56
 12936 17b2 06       		.byte	0x6
 12937 17b3 23       		.byte	0x23
 12938 17b4 04       		.uleb128 0x4
 12939 17b5 5E000000 		.4byte	.LVL349
 12940 17b9 63000000 		.4byte	.LVL351-1
 12941 17bd 0500     		.2byte	0x5
 12942 17bf 74       		.byte	0x74
 12943 17c0 38       		.sleb128 56
 12944 17c1 06       		.byte	0x6
 12945 17c2 23       		.byte	0x23
 12946 17c3 04       		.uleb128 0x4
 12947 17c4 E0000000 		.4byte	.LVL367
 12948 17c8 E6000000 		.4byte	.LVL368
 12949 17cc 0100     		.2byte	0x1
 12950 17ce 53       		.byte	0x53
 12951 17cf 00000000 		.4byte	0
 12952 17d3 00000000 		.4byte	0
 12953              	.LLST113:
 12954 17d7 2E000000 		.4byte	.LVL342
 12955 17db 90000000 		.4byte	.LVL355
 12956 17df 0200     		.2byte	0x2
 12957 17e1 30       		.byte	0x30
 12958 17e2 9F       		.byte	0x9f
 12959 17e3 90000000 		.4byte	.LVL355
 12960 17e7 B4000000 		.4byte	.LVL361
 12961 17eb 0100     		.2byte	0x1
 12962 17ed 59       		.byte	0x59
 12963 17ee B4000000 		.4byte	.LVL361
 12964 17f2 B8000000 		.4byte	.LVL362
ARM GAS  C:\Users\brian\AppData\Local\Temp\ccwE2E8f.s 			page 265


 12965 17f6 0200     		.2byte	0x2
 12966 17f8 30       		.byte	0x30
 12967 17f9 9F       		.byte	0x9f
 12968 17fa B8000000 		.4byte	.LVL362
 12969 17fe E0000000 		.4byte	.LVL367
 12970 1802 0100     		.2byte	0x1
 12971 1804 59       		.byte	0x59
 12972 1805 00000000 		.4byte	0
 12973 1809 00000000 		.4byte	0
 12974              	.LLST114:
 12975 180d 34000000 		.4byte	.LVL343
 12976 1811 92000000 		.4byte	.LVL356
 12977 1815 0100     		.2byte	0x1
 12978 1817 55       		.byte	0x55
 12979 1818 92000000 		.4byte	.LVL356
 12980 181c 94000000 		.4byte	.LVL357
 12981 1820 0300     		.2byte	0x3
 12982 1822 75       		.byte	0x75
 12983 1823 7E       		.sleb128 -2
 12984 1824 9F       		.byte	0x9f
 12985 1825 94000000 		.4byte	.LVL357
 12986 1829 CE000000 		.4byte	.LVL365
 12987 182d 0100     		.2byte	0x1
 12988 182f 55       		.byte	0x55
 12989 1830 00000000 		.4byte	0
 12990 1834 00000000 		.4byte	0
 12991              	.LLST115:
 12992 1838 00000000 		.4byte	.LVL369
 12993 183c 17000000 		.4byte	.LVL372-1
 12994 1840 0100     		.2byte	0x1
 12995 1842 50       		.byte	0x50
 12996 1843 17000000 		.4byte	.LVL372-1
 12997 1847 34000000 		.4byte	.LVL375
 12998 184b 0100     		.2byte	0x1
 12999 184d 54       		.byte	0x54
 13000 184e 34000000 		.4byte	.LVL375
 13001 1852 37000000 		.4byte	.LVL376-1
 13002 1856 0100     		.2byte	0x1
 13003 1858 50       		.byte	0x50
 13004 1859 37000000 		.4byte	.LVL376-1
 13005 185d 48000000 		.4byte	.LFE31
 13006 1861 0100     		.2byte	0x1
 13007 1863 54       		.byte	0x54
 13008 1864 00000000 		.4byte	0
 13009 1868 00000000 		.4byte	0
 13010              	.LLST116:
 13011 186c 00000000 		.4byte	.LVL369
 13012 1870 14000000 		.4byte	.LVL371
 13013 1874 0100     		.2byte	0x1
 13014 1876 51       		.byte	0x51
 13015 1877 14000000 		.4byte	.LVL371
 13016 187b 34000000 		.4byte	.LVL375
 13017 187f 0400     		.2byte	0x4
 13018 1881 F3       		.byte	0xf3
 13019 1882 01       		.uleb128 0x1
 13020 1883 51       		.byte	0x51
 13021 1884 9F       		.byte	0x9f
ARM GAS  C:\Users\brian\AppData\Local\Temp\ccwE2E8f.s 			page 266


 13022 1885 34000000 		.4byte	.LVL375
 13023 1889 37000000 		.4byte	.LVL376-1
 13024 188d 0100     		.2byte	0x1
 13025 188f 51       		.byte	0x51
 13026 1890 37000000 		.4byte	.LVL376-1
 13027 1894 48000000 		.4byte	.LFE31
 13028 1898 0400     		.2byte	0x4
 13029 189a F3       		.byte	0xf3
 13030 189b 01       		.uleb128 0x1
 13031 189c 51       		.byte	0x51
 13032 189d 9F       		.byte	0x9f
 13033 189e 00000000 		.4byte	0
 13034 18a2 00000000 		.4byte	0
 13035              	.LLST117:
 13036 18a6 00000000 		.4byte	.LVL378
 13037 18aa 08000000 		.4byte	.LVL379
 13038 18ae 0100     		.2byte	0x1
 13039 18b0 50       		.byte	0x50
 13040 18b1 08000000 		.4byte	.LVL379
 13041 18b5 72000000 		.4byte	.LFE32
 13042 18b9 0100     		.2byte	0x1
 13043 18bb 54       		.byte	0x54
 13044 18bc 00000000 		.4byte	0
 13045 18c0 00000000 		.4byte	0
 13046              	.LLST118:
 13047 18c4 00000000 		.4byte	.LVL378
 13048 18c8 34000000 		.4byte	.LVL383
 13049 18cc 0100     		.2byte	0x1
 13050 18ce 51       		.byte	0x51
 13051 18cf 34000000 		.4byte	.LVL383
 13052 18d3 40000000 		.4byte	.LVL386
 13053 18d7 0400     		.2byte	0x4
 13054 18d9 F3       		.byte	0xf3
 13055 18da 01       		.uleb128 0x1
 13056 18db 51       		.byte	0x51
 13057 18dc 9F       		.byte	0x9f
 13058 18dd 40000000 		.4byte	.LVL386
 13059 18e1 45000000 		.4byte	.LVL388-1
 13060 18e5 0100     		.2byte	0x1
 13061 18e7 51       		.byte	0x51
 13062 18e8 45000000 		.4byte	.LVL388-1
 13063 18ec 48000000 		.4byte	.LVL389
 13064 18f0 0400     		.2byte	0x4
 13065 18f2 F3       		.byte	0xf3
 13066 18f3 01       		.uleb128 0x1
 13067 18f4 51       		.byte	0x51
 13068 18f5 9F       		.byte	0x9f
 13069 18f6 48000000 		.4byte	.LVL389
 13070 18fa 55000000 		.4byte	.LVL393-1
 13071 18fe 0100     		.2byte	0x1
 13072 1900 51       		.byte	0x51
 13073 1901 55000000 		.4byte	.LVL393-1
 13074 1905 5A000000 		.4byte	.LVL394
 13075 1909 0400     		.2byte	0x4
 13076 190b F3       		.byte	0xf3
 13077 190c 01       		.uleb128 0x1
 13078 190d 51       		.byte	0x51
ARM GAS  C:\Users\brian\AppData\Local\Temp\ccwE2E8f.s 			page 267


 13079 190e 9F       		.byte	0x9f
 13080 190f 5A000000 		.4byte	.LVL394
 13081 1913 5F000000 		.4byte	.LVL396-1
 13082 1917 0100     		.2byte	0x1
 13083 1919 51       		.byte	0x51
 13084 191a 5F000000 		.4byte	.LVL396-1
 13085 191e 62000000 		.4byte	.LVL397
 13086 1922 0400     		.2byte	0x4
 13087 1924 F3       		.byte	0xf3
 13088 1925 01       		.uleb128 0x1
 13089 1926 51       		.byte	0x51
 13090 1927 9F       		.byte	0x9f
 13091 1928 62000000 		.4byte	.LVL397
 13092 192c 67000000 		.4byte	.LVL399-1
 13093 1930 0100     		.2byte	0x1
 13094 1932 51       		.byte	0x51
 13095 1933 67000000 		.4byte	.LVL399-1
 13096 1937 6A000000 		.4byte	.LVL400
 13097 193b 0400     		.2byte	0x4
 13098 193d F3       		.byte	0xf3
 13099 193e 01       		.uleb128 0x1
 13100 193f 51       		.byte	0x51
 13101 1940 9F       		.byte	0x9f
 13102 1941 6A000000 		.4byte	.LVL400
 13103 1945 72000000 		.4byte	.LFE32
 13104 1949 0100     		.2byte	0x1
 13105 194b 51       		.byte	0x51
 13106 194c 00000000 		.4byte	0
 13107 1950 00000000 		.4byte	0
 13108              	.LLST119:
 13109 1954 08000000 		.4byte	.LVL379
 13110 1958 36000000 		.4byte	.LVL384
 13111 195c 0100     		.2byte	0x1
 13112 195e 50       		.byte	0x50
 13113 195f 40000000 		.4byte	.LVL386
 13114 1963 42000000 		.4byte	.LVL387
 13115 1967 0100     		.2byte	0x1
 13116 1969 50       		.byte	0x50
 13117 196a 42000000 		.4byte	.LVL387
 13118 196e 45000000 		.4byte	.LVL388-1
 13119 1972 0500     		.2byte	0x5
 13120 1974 74       		.byte	0x74
 13121 1975 38       		.sleb128 56
 13122 1976 06       		.byte	0x6
 13123 1977 23       		.byte	0x23
 13124 1978 04       		.uleb128 0x4
 13125 1979 48000000 		.4byte	.LVL389
 13126 197d 52000000 		.4byte	.LVL392
 13127 1981 0100     		.2byte	0x1
 13128 1983 50       		.byte	0x50
 13129 1984 5A000000 		.4byte	.LVL394
 13130 1988 5C000000 		.4byte	.LVL395
 13131 198c 0100     		.2byte	0x1
 13132 198e 50       		.byte	0x50
 13133 198f 5C000000 		.4byte	.LVL395
 13134 1993 5F000000 		.4byte	.LVL396-1
 13135 1997 0500     		.2byte	0x5
ARM GAS  C:\Users\brian\AppData\Local\Temp\ccwE2E8f.s 			page 268


 13136 1999 74       		.byte	0x74
 13137 199a 38       		.sleb128 56
 13138 199b 06       		.byte	0x6
 13139 199c 23       		.byte	0x23
 13140 199d 04       		.uleb128 0x4
 13141 199e 62000000 		.4byte	.LVL397
 13142 19a2 64000000 		.4byte	.LVL398
 13143 19a6 0100     		.2byte	0x1
 13144 19a8 50       		.byte	0x50
 13145 19a9 64000000 		.4byte	.LVL398
 13146 19ad 67000000 		.4byte	.LVL399-1
 13147 19b1 0500     		.2byte	0x5
 13148 19b3 74       		.byte	0x74
 13149 19b4 38       		.sleb128 56
 13150 19b5 06       		.byte	0x6
 13151 19b6 23       		.byte	0x23
 13152 19b7 04       		.uleb128 0x4
 13153 19b8 6A000000 		.4byte	.LVL400
 13154 19bc 6C000000 		.4byte	.LVL401
 13155 19c0 0100     		.2byte	0x1
 13156 19c2 50       		.byte	0x50
 13157 19c3 6C000000 		.4byte	.LVL401
 13158 19c7 6E000000 		.4byte	.LVL402
 13159 19cb 0500     		.2byte	0x5
 13160 19cd 74       		.byte	0x74
 13161 19ce 38       		.sleb128 56
 13162 19cf 06       		.byte	0x6
 13163 19d0 23       		.byte	0x23
 13164 19d1 04       		.uleb128 0x4
 13165 19d2 6E000000 		.4byte	.LVL402
 13166 19d6 70000000 		.4byte	.LVL403
 13167 19da 0100     		.2byte	0x1
 13168 19dc 50       		.byte	0x50
 13169 19dd 00000000 		.4byte	0
 13170 19e1 00000000 		.4byte	0
 13171              	.LLST120:
 13172 19e5 0C000000 		.4byte	.LVL380
 13173 19e9 2A000000 		.4byte	.LVL381
 13174 19ed 0100     		.2byte	0x1
 13175 19ef 52       		.byte	0x52
 13176 19f0 2A000000 		.4byte	.LVL381
 13177 19f4 2E000000 		.4byte	.LVL382
 13178 19f8 0300     		.2byte	0x3
 13179 19fa 72       		.byte	0x72
 13180 19fb 7F       		.sleb128 -1
 13181 19fc 9F       		.byte	0x9f
 13182 19fd 2E000000 		.4byte	.LVL382
 13183 1a01 39000000 		.4byte	.LVL385-1
 13184 1a05 0200     		.2byte	0x2
 13185 1a07 74       		.byte	0x74
 13186 1a08 2E       		.sleb128 46
 13187 1a09 40000000 		.4byte	.LVL386
 13188 1a0d 45000000 		.4byte	.LVL388-1
 13189 1a11 0100     		.2byte	0x1
 13190 1a13 52       		.byte	0x52
 13191 1a14 48000000 		.4byte	.LVL389
 13192 1a18 4E000000 		.4byte	.LVL390
ARM GAS  C:\Users\brian\AppData\Local\Temp\ccwE2E8f.s 			page 269


 13193 1a1c 0100     		.2byte	0x1
 13194 1a1e 52       		.byte	0x52
 13195 1a1f 4E000000 		.4byte	.LVL390
 13196 1a23 50000000 		.4byte	.LVL391
 13197 1a27 0200     		.2byte	0x2
 13198 1a29 74       		.byte	0x74
 13199 1a2a 2E       		.sleb128 46
 13200 1a2b 5A000000 		.4byte	.LVL394
 13201 1a2f 5F000000 		.4byte	.LVL396-1
 13202 1a33 0100     		.2byte	0x1
 13203 1a35 52       		.byte	0x52
 13204 1a36 62000000 		.4byte	.LVL397
 13205 1a3a 67000000 		.4byte	.LVL399-1
 13206 1a3e 0100     		.2byte	0x1
 13207 1a40 52       		.byte	0x52
 13208 1a41 6A000000 		.4byte	.LVL400
 13209 1a45 6E000000 		.4byte	.LVL402
 13210 1a49 0100     		.2byte	0x1
 13211 1a4b 52       		.byte	0x52
 13212 1a4c 6E000000 		.4byte	.LVL402
 13213 1a50 72000000 		.4byte	.LFE32
 13214 1a54 0200     		.2byte	0x2
 13215 1a56 74       		.byte	0x74
 13216 1a57 2E       		.sleb128 46
 13217 1a58 00000000 		.4byte	0
 13218 1a5c 00000000 		.4byte	0
 13219              	.LLST121:
 13220 1a60 00000000 		.4byte	.LVL404
 13221 1a64 0D000000 		.4byte	.LVL405-1
 13222 1a68 0100     		.2byte	0x1
 13223 1a6a 50       		.byte	0x50
 13224 1a6b 0D000000 		.4byte	.LVL405-1
 13225 1a6f 74000000 		.4byte	.LVL418
 13226 1a73 0100     		.2byte	0x1
 13227 1a75 54       		.byte	0x54
 13228 1a76 74000000 		.4byte	.LVL418
 13229 1a7a 92000000 		.4byte	.LVL422
 13230 1a7e 0300     		.2byte	0x3
 13231 1a80 74       		.byte	0x74
 13232 1a81 44       		.sleb128 -60
 13233 1a82 9F       		.byte	0x9f
 13234 1a83 92000000 		.4byte	.LVL422
 13235 1a87 96000000 		.4byte	.LVL423
 13236 1a8b 0100     		.2byte	0x1
 13237 1a8d 54       		.byte	0x54
 13238 1a8e 96000000 		.4byte	.LVL423
 13239 1a92 B4000000 		.4byte	.LVL426
 13240 1a96 0400     		.2byte	0x4
 13241 1a98 F3       		.byte	0xf3
 13242 1a99 01       		.uleb128 0x1
 13243 1a9a 50       		.byte	0x50
 13244 1a9b 9F       		.byte	0x9f
 13245 1a9c B4000000 		.4byte	.LVL426
 13246 1aa0 BE000000 		.4byte	.LVL429
 13247 1aa4 0100     		.2byte	0x1
 13248 1aa6 54       		.byte	0x54
 13249 1aa7 BE000000 		.4byte	.LVL429
ARM GAS  C:\Users\brian\AppData\Local\Temp\ccwE2E8f.s 			page 270


 13250 1aab C6000000 		.4byte	.LFE33
 13251 1aaf 0400     		.2byte	0x4
 13252 1ab1 F3       		.byte	0xf3
 13253 1ab2 01       		.uleb128 0x1
 13254 1ab3 50       		.byte	0x50
 13255 1ab4 9F       		.byte	0x9f
 13256 1ab5 00000000 		.4byte	0
 13257 1ab9 00000000 		.4byte	0
 13258              	.LLST122:
 13259 1abd 00000000 		.4byte	.LVL404
 13260 1ac1 0D000000 		.4byte	.LVL405-1
 13261 1ac5 0100     		.2byte	0x1
 13262 1ac7 51       		.byte	0x51
 13263 1ac8 0D000000 		.4byte	.LVL405-1
 13264 1acc C6000000 		.4byte	.LFE33
 13265 1ad0 0400     		.2byte	0x4
 13266 1ad2 F3       		.byte	0xf3
 13267 1ad3 01       		.uleb128 0x1
 13268 1ad4 51       		.byte	0x51
 13269 1ad5 9F       		.byte	0x9f
 13270 1ad6 00000000 		.4byte	0
 13271 1ada 00000000 		.4byte	0
 13272              	.LLST123:
 13273 1ade 0E000000 		.4byte	.LVL405
 13274 1ae2 2A000000 		.4byte	.LVL410
 13275 1ae6 0100     		.2byte	0x1
 13276 1ae8 50       		.byte	0x50
 13277 1ae9 2A000000 		.4byte	.LVL410
 13278 1aed B4000000 		.4byte	.LVL426
 13279 1af1 0100     		.2byte	0x1
 13280 1af3 58       		.byte	0x58
 13281 1af4 B4000000 		.4byte	.LVL426
 13282 1af8 B8000000 		.4byte	.LVL427
 13283 1afc 0100     		.2byte	0x1
 13284 1afe 50       		.byte	0x50
 13285 1aff BE000000 		.4byte	.LVL429
 13286 1b03 C0000000 		.4byte	.LVL430
 13287 1b07 0100     		.2byte	0x1
 13288 1b09 58       		.byte	0x58
 13289 1b0a 00000000 		.4byte	0
 13290 1b0e 00000000 		.4byte	0
 13291              	.LLST124:
 13292 1b12 18000000 		.4byte	.LVL407
 13293 1b16 7E000000 		.4byte	.LVL420
 13294 1b1a 0100     		.2byte	0x1
 13295 1b1c 59       		.byte	0x59
 13296 1b1d 92000000 		.4byte	.LVL422
 13297 1b21 96000000 		.4byte	.LVL423
 13298 1b25 0100     		.2byte	0x1
 13299 1b27 59       		.byte	0x59
 13300 1b28 B4000000 		.4byte	.LVL426
 13301 1b2c BE000000 		.4byte	.LVL429
 13302 1b30 0100     		.2byte	0x1
 13303 1b32 59       		.byte	0x59
 13304 1b33 00000000 		.4byte	0
 13305 1b37 00000000 		.4byte	0
 13306              	.LLST125:
ARM GAS  C:\Users\brian\AppData\Local\Temp\ccwE2E8f.s 			page 271


 13307 1b3b 1E000000 		.4byte	.LVL408
 13308 1b3f 7E000000 		.4byte	.LVL420
 13309 1b43 0200     		.2byte	0x2
 13310 1b45 30       		.byte	0x30
 13311 1b46 9F       		.byte	0x9f
 13312 1b47 7E000000 		.4byte	.LVL420
 13313 1b4b 92000000 		.4byte	.LVL422
 13314 1b4f 0100     		.2byte	0x1
 13315 1b51 59       		.byte	0x59
 13316 1b52 92000000 		.4byte	.LVL422
 13317 1b56 96000000 		.4byte	.LVL423
 13318 1b5a 0200     		.2byte	0x2
 13319 1b5c 30       		.byte	0x30
 13320 1b5d 9F       		.byte	0x9f
 13321 1b5e 96000000 		.4byte	.LVL423
 13322 1b62 B4000000 		.4byte	.LVL426
 13323 1b66 0100     		.2byte	0x1
 13324 1b68 59       		.byte	0x59
 13325 1b69 BE000000 		.4byte	.LVL429
 13326 1b6d C0000000 		.4byte	.LVL430
 13327 1b71 0100     		.2byte	0x1
 13328 1b73 59       		.byte	0x59
 13329 1b74 00000000 		.4byte	0
 13330 1b78 00000000 		.4byte	0
 13331              	.LLST126:
 13332 1b7c 28000000 		.4byte	.LVL409
 13333 1b80 7E000000 		.4byte	.LVL420
 13334 1b84 0100     		.2byte	0x1
 13335 1b86 55       		.byte	0x55
 13336 1b87 7E000000 		.4byte	.LVL420
 13337 1b8b 92000000 		.4byte	.LVL422
 13338 1b8f 0100     		.2byte	0x1
 13339 1b91 56       		.byte	0x56
 13340 1b92 92000000 		.4byte	.LVL422
 13341 1b96 A0000000 		.4byte	.LVL424
 13342 1b9a 0100     		.2byte	0x1
 13343 1b9c 55       		.byte	0x55
 13344 1b9d BE000000 		.4byte	.LVL429
 13345 1ba1 C0000000 		.4byte	.LVL430
 13346 1ba5 0100     		.2byte	0x1
 13347 1ba7 55       		.byte	0x55
 13348 1ba8 00000000 		.4byte	0
 13349 1bac 00000000 		.4byte	0
 13350              	.LLST127:
 13351 1bb0 30000000 		.4byte	.LVL412
 13352 1bb4 B4000000 		.4byte	.LVL426
 13353 1bb8 0100     		.2byte	0x1
 13354 1bba 5B       		.byte	0x5b
 13355 1bbb BE000000 		.4byte	.LVL429
 13356 1bbf C0000000 		.4byte	.LVL430
 13357 1bc3 0100     		.2byte	0x1
 13358 1bc5 5B       		.byte	0x5b
 13359 1bc6 00000000 		.4byte	0
 13360 1bca 00000000 		.4byte	0
 13361              	.LLST128:
 13362 1bce 38000000 		.4byte	.LVL414
 13363 1bd2 B4000000 		.4byte	.LVL426
ARM GAS  C:\Users\brian\AppData\Local\Temp\ccwE2E8f.s 			page 272


 13364 1bd6 0200     		.2byte	0x2
 13365 1bd8 91       		.byte	0x91
 13366 1bd9 54       		.sleb128 -44
 13367 1bda BE000000 		.4byte	.LVL429
 13368 1bde C0000000 		.4byte	.LVL430
 13369 1be2 0200     		.2byte	0x2
 13370 1be4 91       		.byte	0x91
 13371 1be5 54       		.sleb128 -44
 13372 1be6 00000000 		.4byte	0
 13373 1bea 00000000 		.4byte	0
 13374              	.LLST129:
 13375 1bee 40000000 		.4byte	.LVL415
 13376 1bf2 B4000000 		.4byte	.LVL426
 13377 1bf6 0100     		.2byte	0x1
 13378 1bf8 57       		.byte	0x57
 13379 1bf9 BE000000 		.4byte	.LVL429
 13380 1bfd C0000000 		.4byte	.LVL430
 13381 1c01 0100     		.2byte	0x1
 13382 1c03 57       		.byte	0x57
 13383 1c04 00000000 		.4byte	0
 13384 1c08 00000000 		.4byte	0
 13385              	.LLST130:
 13386 1c0c 00000000 		.4byte	.LVL431
 13387 1c10 0D000000 		.4byte	.LVL432-1
 13388 1c14 0100     		.2byte	0x1
 13389 1c16 50       		.byte	0x50
 13390 1c17 0D000000 		.4byte	.LVL432-1
 13391 1c1b 90000000 		.4byte	.LVL446
 13392 1c1f 0100     		.2byte	0x1
 13393 1c21 54       		.byte	0x54
 13394 1c22 90000000 		.4byte	.LVL446
 13395 1c26 A8000000 		.4byte	.LVL448
 13396 1c2a 0400     		.2byte	0x4
 13397 1c2c F3       		.byte	0xf3
 13398 1c2d 01       		.uleb128 0x1
 13399 1c2e 50       		.byte	0x50
 13400 1c2f 9F       		.byte	0x9f
 13401 1c30 A8000000 		.4byte	.LVL448
 13402 1c34 B4000000 		.4byte	.LVL452
 13403 1c38 0100     		.2byte	0x1
 13404 1c3a 54       		.byte	0x54
 13405 1c3b B4000000 		.4byte	.LVL452
 13406 1c3f BA000000 		.4byte	.LFE34
 13407 1c43 0400     		.2byte	0x4
 13408 1c45 F3       		.byte	0xf3
 13409 1c46 01       		.uleb128 0x1
 13410 1c47 50       		.byte	0x50
 13411 1c48 9F       		.byte	0x9f
 13412 1c49 00000000 		.4byte	0
 13413 1c4d 00000000 		.4byte	0
 13414              	.LLST131:
 13415 1c51 00000000 		.4byte	.LVL431
 13416 1c55 0D000000 		.4byte	.LVL432-1
 13417 1c59 0100     		.2byte	0x1
 13418 1c5b 51       		.byte	0x51
 13419 1c5c 0D000000 		.4byte	.LVL432-1
 13420 1c60 BA000000 		.4byte	.LFE34
ARM GAS  C:\Users\brian\AppData\Local\Temp\ccwE2E8f.s 			page 273


 13421 1c64 0400     		.2byte	0x4
 13422 1c66 F3       		.byte	0xf3
 13423 1c67 01       		.uleb128 0x1
 13424 1c68 51       		.byte	0x51
 13425 1c69 9F       		.byte	0x9f
 13426 1c6a 00000000 		.4byte	0
 13427 1c6e 00000000 		.4byte	0
 13428              	.LLST132:
 13429 1c72 0E000000 		.4byte	.LVL432
 13430 1c76 2E000000 		.4byte	.LVL436
 13431 1c7a 0100     		.2byte	0x1
 13432 1c7c 50       		.byte	0x50
 13433 1c7d 2E000000 		.4byte	.LVL436
 13434 1c81 A8000000 		.4byte	.LVL448
 13435 1c85 0100     		.2byte	0x1
 13436 1c87 57       		.byte	0x57
 13437 1c88 A8000000 		.4byte	.LVL448
 13438 1c8c AC000000 		.4byte	.LVL449
 13439 1c90 0100     		.2byte	0x1
 13440 1c92 50       		.byte	0x50
 13441 1c93 B2000000 		.4byte	.LVL451
 13442 1c97 B4000000 		.4byte	.LVL452
 13443 1c9b 0100     		.2byte	0x1
 13444 1c9d 57       		.byte	0x57
 13445 1c9e 00000000 		.4byte	0
 13446 1ca2 00000000 		.4byte	0
 13447              	.LLST133:
 13448 1ca6 2C000000 		.4byte	.LVL435
 13449 1caa 76000000 		.4byte	.LVL444
 13450 1cae 0100     		.2byte	0x1
 13451 1cb0 58       		.byte	0x58
 13452 1cb1 76000000 		.4byte	.LVL444
 13453 1cb5 88000000 		.4byte	.LVL445
 13454 1cb9 0100     		.2byte	0x1
 13455 1cbb 55       		.byte	0x55
 13456 1cbc 00000000 		.4byte	0
 13457 1cc0 00000000 		.4byte	0
 13458              	.LLST134:
 13459 1cc4 34000000 		.4byte	.LVL438
 13460 1cc8 A8000000 		.4byte	.LVL448
 13461 1ccc 0100     		.2byte	0x1
 13462 1cce 5B       		.byte	0x5b
 13463 1ccf B2000000 		.4byte	.LVL451
 13464 1cd3 B4000000 		.4byte	.LVL452
 13465 1cd7 0100     		.2byte	0x1
 13466 1cd9 5B       		.byte	0x5b
 13467 1cda 00000000 		.4byte	0
 13468 1cde 00000000 		.4byte	0
 13469              	.LLST135:
 13470 1ce2 3C000000 		.4byte	.LVL440
 13471 1ce6 A8000000 		.4byte	.LVL448
 13472 1cea 0200     		.2byte	0x2
 13473 1cec 91       		.byte	0x91
 13474 1ced 54       		.sleb128 -44
 13475 1cee B2000000 		.4byte	.LVL451
 13476 1cf2 B4000000 		.4byte	.LVL452
 13477 1cf6 0200     		.2byte	0x2
ARM GAS  C:\Users\brian\AppData\Local\Temp\ccwE2E8f.s 			page 274


 13478 1cf8 91       		.byte	0x91
 13479 1cf9 54       		.sleb128 -44
 13480 1cfa 00000000 		.4byte	0
 13481 1cfe 00000000 		.4byte	0
 13482              	.LLST136:
 13483 1d02 44000000 		.4byte	.LVL441
 13484 1d06 A8000000 		.4byte	.LVL448
 13485 1d0a 0100     		.2byte	0x1
 13486 1d0c 56       		.byte	0x56
 13487 1d0d B2000000 		.4byte	.LVL451
 13488 1d11 B4000000 		.4byte	.LVL452
 13489 1d15 0100     		.2byte	0x1
 13490 1d17 56       		.byte	0x56
 13491 1d18 00000000 		.4byte	0
 13492 1d1c 00000000 		.4byte	0
 13493              	.LLST137:
 13494 1d20 00000000 		.4byte	.LVL453
 13495 1d24 0D000000 		.4byte	.LVL454-1
 13496 1d28 0100     		.2byte	0x1
 13497 1d2a 50       		.byte	0x50
 13498 1d2b 0D000000 		.4byte	.LVL454-1
 13499 1d2f 4C000000 		.4byte	.LVL464
 13500 1d33 0100     		.2byte	0x1
 13501 1d35 54       		.byte	0x54
 13502 1d36 4C000000 		.4byte	.LVL464
 13503 1d3a 56000000 		.4byte	.LVL465
 13504 1d3e 0300     		.2byte	0x3
 13505 1d40 74       		.byte	0x74
 13506 1d41 44       		.sleb128 -60
 13507 1d42 9F       		.byte	0x9f
 13508 1d43 56000000 		.4byte	.LVL465
 13509 1d47 65000000 		.4byte	.LVL466-1
 13510 1d4b 0700     		.2byte	0x7
 13511 1d4d 91       		.byte	0x91
 13512 1d4e 5C       		.sleb128 -36
 13513 1d4f 06       		.byte	0x6
 13514 1d50 08       		.byte	0x8
 13515 1d51 3C       		.byte	0x3c
 13516 1d52 1C       		.byte	0x1c
 13517 1d53 9F       		.byte	0x9f
 13518 1d54 65000000 		.4byte	.LVL466-1
 13519 1d58 6A000000 		.4byte	.LVL467
 13520 1d5c 0400     		.2byte	0x4
 13521 1d5e F3       		.byte	0xf3
 13522 1d5f 01       		.uleb128 0x1
 13523 1d60 50       		.byte	0x50
 13524 1d61 9F       		.byte	0x9f
 13525 1d62 6A000000 		.4byte	.LVL467
 13526 1d66 76000000 		.4byte	.LVL471
 13527 1d6a 0100     		.2byte	0x1
 13528 1d6c 54       		.byte	0x54
 13529 1d6d 76000000 		.4byte	.LVL471
 13530 1d71 7C000000 		.4byte	.LFE35
 13531 1d75 0400     		.2byte	0x4
 13532 1d77 F3       		.byte	0xf3
 13533 1d78 01       		.uleb128 0x1
 13534 1d79 50       		.byte	0x50
ARM GAS  C:\Users\brian\AppData\Local\Temp\ccwE2E8f.s 			page 275


 13535 1d7a 9F       		.byte	0x9f
 13536 1d7b 00000000 		.4byte	0
 13537 1d7f 00000000 		.4byte	0
 13538              	.LLST138:
 13539 1d83 00000000 		.4byte	.LVL453
 13540 1d87 0D000000 		.4byte	.LVL454-1
 13541 1d8b 0100     		.2byte	0x1
 13542 1d8d 51       		.byte	0x51
 13543 1d8e 0D000000 		.4byte	.LVL454-1
 13544 1d92 7C000000 		.4byte	.LFE35
 13545 1d96 0400     		.2byte	0x4
 13546 1d98 F3       		.byte	0xf3
 13547 1d99 01       		.uleb128 0x1
 13548 1d9a 51       		.byte	0x51
 13549 1d9b 9F       		.byte	0x9f
 13550 1d9c 00000000 		.4byte	0
 13551 1da0 00000000 		.4byte	0
 13552              	.LLST139:
 13553 1da4 0E000000 		.4byte	.LVL454
 13554 1da8 1A000000 		.4byte	.LVL456
 13555 1dac 0100     		.2byte	0x1
 13556 1dae 50       		.byte	0x50
 13557 1daf 1A000000 		.4byte	.LVL456
 13558 1db3 6A000000 		.4byte	.LVL467
 13559 1db7 0100     		.2byte	0x1
 13560 1db9 56       		.byte	0x56
 13561 1dba 6A000000 		.4byte	.LVL467
 13562 1dbe 6E000000 		.4byte	.LVL468
 13563 1dc2 0100     		.2byte	0x1
 13564 1dc4 50       		.byte	0x50
 13565 1dc5 74000000 		.4byte	.LVL470
 13566 1dc9 76000000 		.4byte	.LVL471
 13567 1dcd 0100     		.2byte	0x1
 13568 1dcf 56       		.byte	0x56
 13569 1dd0 00000000 		.4byte	0
 13570 1dd4 00000000 		.4byte	0
 13571              	.LLST140:
 13572 1dd8 20000000 		.4byte	.LVL458
 13573 1ddc 6A000000 		.4byte	.LVL467
 13574 1de0 0100     		.2byte	0x1
 13575 1de2 55       		.byte	0x55
 13576 1de3 74000000 		.4byte	.LVL470
 13577 1de7 76000000 		.4byte	.LVL471
 13578 1deb 0100     		.2byte	0x1
 13579 1ded 55       		.byte	0x55
 13580 1dee 00000000 		.4byte	0
 13581 1df2 00000000 		.4byte	0
 13582              	.LLST141:
 13583 1df6 28000000 		.4byte	.LVL460
 13584 1dfa 6A000000 		.4byte	.LVL467
 13585 1dfe 0100     		.2byte	0x1
 13586 1e00 57       		.byte	0x57
 13587 1e01 74000000 		.4byte	.LVL470
 13588 1e05 76000000 		.4byte	.LVL471
 13589 1e09 0100     		.2byte	0x1
 13590 1e0b 57       		.byte	0x57
 13591 1e0c 00000000 		.4byte	0
ARM GAS  C:\Users\brian\AppData\Local\Temp\ccwE2E8f.s 			page 276


 13592 1e10 00000000 		.4byte	0
 13593              	.LLST142:
 13594 1e14 30000000 		.4byte	.LVL462
 13595 1e18 6A000000 		.4byte	.LVL467
 13596 1e1c 0100     		.2byte	0x1
 13597 1e1e 58       		.byte	0x58
 13598 1e1f 74000000 		.4byte	.LVL470
 13599 1e23 76000000 		.4byte	.LVL471
 13600 1e27 0100     		.2byte	0x1
 13601 1e29 58       		.byte	0x58
 13602 1e2a 00000000 		.4byte	0
 13603 1e2e 00000000 		.4byte	0
 13604              	.LLST143:
 13605 1e32 00000000 		.4byte	.LVL472
 13606 1e36 0A000000 		.4byte	.LVL473
 13607 1e3a 0100     		.2byte	0x1
 13608 1e3c 50       		.byte	0x50
 13609 1e3d 0A000000 		.4byte	.LVL473
 13610 1e41 0C000000 		.4byte	.LFE36
 13611 1e45 0400     		.2byte	0x4
 13612 1e47 F3       		.byte	0xf3
 13613 1e48 01       		.uleb128 0x1
 13614 1e49 50       		.byte	0x50
 13615 1e4a 9F       		.byte	0x9f
 13616 1e4b 00000000 		.4byte	0
 13617 1e4f 00000000 		.4byte	0
 13618              	.LLST144:
 13619 1e53 00000000 		.4byte	.LVL474
 13620 1e57 09000000 		.4byte	.LVL475-1
 13621 1e5b 0100     		.2byte	0x1
 13622 1e5d 50       		.byte	0x50
 13623 1e5e 09000000 		.4byte	.LVL475-1
 13624 1e62 7C000000 		.4byte	.LFE37
 13625 1e66 0100     		.2byte	0x1
 13626 1e68 54       		.byte	0x54
 13627 1e69 00000000 		.4byte	0
 13628 1e6d 00000000 		.4byte	0
 13629              	.LLST145:
 13630 1e71 00000000 		.4byte	.LVL474
 13631 1e75 09000000 		.4byte	.LVL475-1
 13632 1e79 0100     		.2byte	0x1
 13633 1e7b 51       		.byte	0x51
 13634 1e7c 09000000 		.4byte	.LVL475-1
 13635 1e80 7C000000 		.4byte	.LFE37
 13636 1e84 0400     		.2byte	0x4
 13637 1e86 F3       		.byte	0xf3
 13638 1e87 01       		.uleb128 0x1
 13639 1e88 51       		.byte	0x51
 13640 1e89 9F       		.byte	0x9f
 13641 1e8a 00000000 		.4byte	0
 13642 1e8e 00000000 		.4byte	0
 13643              	.LLST146:
 13644 1e92 0A000000 		.4byte	.LVL475
 13645 1e96 24000000 		.4byte	.LVL477
 13646 1e9a 0100     		.2byte	0x1
 13647 1e9c 50       		.byte	0x50
 13648 1e9d 24000000 		.4byte	.LVL477
ARM GAS  C:\Users\brian\AppData\Local\Temp\ccwE2E8f.s 			page 277


 13649 1ea1 4C000000 		.4byte	.LVL481
 13650 1ea5 0100     		.2byte	0x1
 13651 1ea7 56       		.byte	0x56
 13652 1ea8 4C000000 		.4byte	.LVL481
 13653 1eac 56000000 		.4byte	.LVL482
 13654 1eb0 0100     		.2byte	0x1
 13655 1eb2 50       		.byte	0x50
 13656 1eb3 6E000000 		.4byte	.LVL485
 13657 1eb7 72000000 		.4byte	.LVL486
 13658 1ebb 0100     		.2byte	0x1
 13659 1ebd 50       		.byte	0x50
 13660 1ebe 00000000 		.4byte	0
 13661 1ec2 00000000 		.4byte	0
 13662              	.LLST147:
 13663 1ec6 0E000000 		.4byte	.LVL476
 13664 1eca 27000000 		.4byte	.LVL478-1
 13665 1ece 0100     		.2byte	0x1
 13666 1ed0 53       		.byte	0x53
 13667 1ed1 4C000000 		.4byte	.LVL481
 13668 1ed5 59000000 		.4byte	.LVL483-1
 13669 1ed9 0100     		.2byte	0x1
 13670 1edb 53       		.byte	0x53
 13671 1edc 6E000000 		.4byte	.LVL485
 13672 1ee0 75000000 		.4byte	.LVL487-1
 13673 1ee4 0100     		.2byte	0x1
 13674 1ee6 53       		.byte	0x53
 13675 1ee7 00000000 		.4byte	0
 13676 1eeb 00000000 		.4byte	0
 13677              	.LLST148:
 13678 1eef 00000000 		.4byte	.LVL488
 13679 1ef3 0C000000 		.4byte	.LVL491
 13680 1ef7 0100     		.2byte	0x1
 13681 1ef9 50       		.byte	0x50
 13682 1efa 0C000000 		.4byte	.LVL491
 13683 1efe 32000000 		.4byte	.LVL498
 13684 1f02 0100     		.2byte	0x1
 13685 1f04 54       		.byte	0x54
 13686 1f05 32000000 		.4byte	.LVL498
 13687 1f09 46000000 		.4byte	.LFE38
 13688 1f0d 0400     		.2byte	0x4
 13689 1f0f F3       		.byte	0xf3
 13690 1f10 01       		.uleb128 0x1
 13691 1f11 50       		.byte	0x50
 13692 1f12 9F       		.byte	0x9f
 13693 1f13 00000000 		.4byte	0
 13694 1f17 00000000 		.4byte	0
 13695              	.LLST149:
 13696 1f1b 00000000 		.4byte	.LVL488
 13697 1f1f 20000000 		.4byte	.LVL494
 13698 1f23 0100     		.2byte	0x1
 13699 1f25 51       		.byte	0x51
 13700 1f26 20000000 		.4byte	.LVL494
 13701 1f2a 30000000 		.4byte	.LVL497
 13702 1f2e 0400     		.2byte	0x4
 13703 1f30 F3       		.byte	0xf3
 13704 1f31 01       		.uleb128 0x1
 13705 1f32 51       		.byte	0x51
ARM GAS  C:\Users\brian\AppData\Local\Temp\ccwE2E8f.s 			page 278


 13706 1f33 9F       		.byte	0x9f
 13707 1f34 30000000 		.4byte	.LVL497
 13708 1f38 39000000 		.4byte	.LVL500-1
 13709 1f3c 0100     		.2byte	0x1
 13710 1f3e 51       		.byte	0x51
 13711 1f3f 39000000 		.4byte	.LVL500-1
 13712 1f43 46000000 		.4byte	.LFE38
 13713 1f47 0400     		.2byte	0x4
 13714 1f49 F3       		.byte	0xf3
 13715 1f4a 01       		.uleb128 0x1
 13716 1f4b 51       		.byte	0x51
 13717 1f4c 9F       		.byte	0x9f
 13718 1f4d 00000000 		.4byte	0
 13719 1f51 00000000 		.4byte	0
 13720              	.LLST150:
 13721 1f55 08000000 		.4byte	.LVL489
 13722 1f59 10000000 		.4byte	.LVL493
 13723 1f5d 0100     		.2byte	0x1
 13724 1f5f 53       		.byte	0x53
 13725 1f60 10000000 		.4byte	.LVL493
 13726 1f64 21000000 		.4byte	.LVL495-1
 13727 1f68 0500     		.2byte	0x5
 13728 1f6a 74       		.byte	0x74
 13729 1f6b 38       		.sleb128 56
 13730 1f6c 06       		.byte	0x6
 13731 1f6d 23       		.byte	0x23
 13732 1f6e 04       		.uleb128 0x4
 13733 1f6f 30000000 		.4byte	.LVL497
 13734 1f73 32000000 		.4byte	.LVL498
 13735 1f77 0500     		.2byte	0x5
 13736 1f79 74       		.byte	0x74
 13737 1f7a 38       		.sleb128 56
 13738 1f7b 06       		.byte	0x6
 13739 1f7c 23       		.byte	0x23
 13740 1f7d 04       		.uleb128 0x4
 13741 1f7e 32000000 		.4byte	.LVL498
 13742 1f82 38000000 		.4byte	.LVL499
 13743 1f86 0800     		.2byte	0x8
 13744 1f88 F3       		.byte	0xf3
 13745 1f89 01       		.uleb128 0x1
 13746 1f8a 50       		.byte	0x50
 13747 1f8b 23       		.byte	0x23
 13748 1f8c 38       		.uleb128 0x38
 13749 1f8d 06       		.byte	0x6
 13750 1f8e 23       		.byte	0x23
 13751 1f8f 04       		.uleb128 0x4
 13752 1f90 00000000 		.4byte	0
 13753 1f94 00000000 		.4byte	0
 13754              	.LLST151:
 13755 1f98 0C000000 		.4byte	.LVL491
 13756 1f9c 21000000 		.4byte	.LVL495-1
 13757 1fa0 0100     		.2byte	0x1
 13758 1fa2 50       		.byte	0x50
 13759 1fa3 30000000 		.4byte	.LVL497
 13760 1fa7 39000000 		.4byte	.LVL500-1
 13761 1fab 0100     		.2byte	0x1
 13762 1fad 50       		.byte	0x50
ARM GAS  C:\Users\brian\AppData\Local\Temp\ccwE2E8f.s 			page 279


 13763 1fae 00000000 		.4byte	0
 13764 1fb2 00000000 		.4byte	0
 13765              	.LLST152:
 13766 1fb6 0E000000 		.4byte	.LVL492
 13767 1fba 21000000 		.4byte	.LVL495-1
 13768 1fbe 0100     		.2byte	0x1
 13769 1fc0 52       		.byte	0x52
 13770 1fc1 30000000 		.4byte	.LVL497
 13771 1fc5 39000000 		.4byte	.LVL500-1
 13772 1fc9 0100     		.2byte	0x1
 13773 1fcb 52       		.byte	0x52
 13774 1fcc 00000000 		.4byte	0
 13775 1fd0 00000000 		.4byte	0
 13776              	.LLST153:
 13777 1fd4 10000000 		.4byte	.LVL493
 13778 1fd8 21000000 		.4byte	.LVL495-1
 13779 1fdc 0100     		.2byte	0x1
 13780 1fde 53       		.byte	0x53
 13781 1fdf 30000000 		.4byte	.LVL497
 13782 1fe3 39000000 		.4byte	.LVL500-1
 13783 1fe7 0100     		.2byte	0x1
 13784 1fe9 53       		.byte	0x53
 13785 1fea 00000000 		.4byte	0
 13786 1fee 00000000 		.4byte	0
 13787              	.LLST154:
 13788 1ff2 00000000 		.4byte	.LVL501
 13789 1ff6 1A000000 		.4byte	.LVL508
 13790 1ffa 0100     		.2byte	0x1
 13791 1ffc 50       		.byte	0x50
 13792 1ffd 1A000000 		.4byte	.LVL508
 13793 2001 58000000 		.4byte	.LVL515
 13794 2005 0100     		.2byte	0x1
 13795 2007 54       		.byte	0x54
 13796 2008 58000000 		.4byte	.LVL515
 13797 200c 6E000000 		.4byte	.LVL518
 13798 2010 0400     		.2byte	0x4
 13799 2012 F3       		.byte	0xf3
 13800 2013 01       		.uleb128 0x1
 13801 2014 50       		.byte	0x50
 13802 2015 9F       		.byte	0x9f
 13803 2016 6E000000 		.4byte	.LVL518
 13804 201a 8C000000 		.4byte	.LVL521
 13805 201e 0100     		.2byte	0x1
 13806 2020 54       		.byte	0x54
 13807 2021 8C000000 		.4byte	.LVL521
 13808 2025 90000000 		.4byte	.LFE39
 13809 2029 0400     		.2byte	0x4
 13810 202b F3       		.byte	0xf3
 13811 202c 01       		.uleb128 0x1
 13812 202d 50       		.byte	0x50
 13813 202e 9F       		.byte	0x9f
 13814 202f 00000000 		.4byte	0
 13815 2033 00000000 		.4byte	0
 13816              	.LLST155:
 13817 2037 00000000 		.4byte	.LVL501
 13818 203b 12000000 		.4byte	.LVL507
 13819 203f 0100     		.2byte	0x1
ARM GAS  C:\Users\brian\AppData\Local\Temp\ccwE2E8f.s 			page 280


 13820 2041 51       		.byte	0x51
 13821 2042 12000000 		.4byte	.LVL507
 13822 2046 90000000 		.4byte	.LFE39
 13823 204a 0400     		.2byte	0x4
 13824 204c F3       		.byte	0xf3
 13825 204d 01       		.uleb128 0x1
 13826 204e 51       		.byte	0x51
 13827 204f 9F       		.byte	0x9f
 13828 2050 00000000 		.4byte	0
 13829 2054 00000000 		.4byte	0
 13830              	.LLST156:
 13831 2058 08000000 		.4byte	.LVL502
 13832 205c 10000000 		.4byte	.LVL506
 13833 2060 0100     		.2byte	0x1
 13834 2062 53       		.byte	0x53
 13835 2063 10000000 		.4byte	.LVL506
 13836 2067 1A000000 		.4byte	.LVL508
 13837 206b 0500     		.2byte	0x5
 13838 206d 70       		.byte	0x70
 13839 206e 38       		.sleb128 56
 13840 206f 06       		.byte	0x6
 13841 2070 23       		.byte	0x23
 13842 2071 04       		.uleb128 0x4
 13843 2072 1A000000 		.4byte	.LVL508
 13844 2076 2D000000 		.4byte	.LVL509-1
 13845 207a 0500     		.2byte	0x5
 13846 207c 74       		.byte	0x74
 13847 207d 38       		.sleb128 56
 13848 207e 06       		.byte	0x6
 13849 207f 23       		.byte	0x23
 13850 2080 04       		.uleb128 0x4
 13851 2081 3E000000 		.4byte	.LVL511
 13852 2085 4C000000 		.4byte	.LVL513
 13853 2089 0500     		.2byte	0x5
 13854 208b 74       		.byte	0x74
 13855 208c 38       		.sleb128 56
 13856 208d 06       		.byte	0x6
 13857 208e 23       		.byte	0x23
 13858 208f 04       		.uleb128 0x4
 13859 2090 50000000 		.4byte	.LVL514
 13860 2094 58000000 		.4byte	.LVL515
 13861 2098 0500     		.2byte	0x5
 13862 209a 74       		.byte	0x74
 13863 209b 38       		.sleb128 56
 13864 209c 06       		.byte	0x6
 13865 209d 23       		.byte	0x23
 13866 209e 04       		.uleb128 0x4
 13867 209f 58000000 		.4byte	.LVL515
 13868 20a3 5E000000 		.4byte	.LVL516
 13869 20a7 0800     		.2byte	0x8
 13870 20a9 F3       		.byte	0xf3
 13871 20aa 01       		.uleb128 0x1
 13872 20ab 50       		.byte	0x50
 13873 20ac 23       		.byte	0x23
 13874 20ad 38       		.uleb128 0x38
 13875 20ae 06       		.byte	0x6
 13876 20af 23       		.byte	0x23
ARM GAS  C:\Users\brian\AppData\Local\Temp\ccwE2E8f.s 			page 281


 13877 20b0 04       		.uleb128 0x4
 13878 20b1 6E000000 		.4byte	.LVL518
 13879 20b5 7B000000 		.4byte	.LVL519-1
 13880 20b9 0500     		.2byte	0x5
 13881 20bb 74       		.byte	0x74
 13882 20bc 38       		.sleb128 56
 13883 20bd 06       		.byte	0x6
 13884 20be 23       		.byte	0x23
 13885 20bf 04       		.uleb128 0x4
 13886 20c0 88000000 		.4byte	.LVL520
 13887 20c4 8C000000 		.4byte	.LVL521
 13888 20c8 0500     		.2byte	0x5
 13889 20ca 74       		.byte	0x74
 13890 20cb 38       		.sleb128 56
 13891 20cc 06       		.byte	0x6
 13892 20cd 23       		.byte	0x23
 13893 20ce 04       		.uleb128 0x4
 13894 20cf 00000000 		.4byte	0
 13895 20d3 00000000 		.4byte	0
 13896              	.LLST157:
 13897 20d7 0C000000 		.4byte	.LVL504
 13898 20db 2D000000 		.4byte	.LVL509-1
 13899 20df 0100     		.2byte	0x1
 13900 20e1 52       		.byte	0x52
 13901 20e2 3E000000 		.4byte	.LVL511
 13902 20e6 61000000 		.4byte	.LVL517-1
 13903 20ea 0100     		.2byte	0x1
 13904 20ec 52       		.byte	0x52
 13905 20ed 6E000000 		.4byte	.LVL518
 13906 20f1 7B000000 		.4byte	.LVL519-1
 13907 20f5 0100     		.2byte	0x1
 13908 20f7 52       		.byte	0x52
 13909 20f8 88000000 		.4byte	.LVL520
 13910 20fc 8C000000 		.4byte	.LVL521
 13911 2100 0100     		.2byte	0x1
 13912 2102 52       		.byte	0x52
 13913 2103 00000000 		.4byte	0
 13914 2107 00000000 		.4byte	0
 13915              	.LLST158:
 13916 210b 10000000 		.4byte	.LVL506
 13917 210f 2D000000 		.4byte	.LVL509-1
 13918 2113 0100     		.2byte	0x1
 13919 2115 53       		.byte	0x53
 13920 2116 3E000000 		.4byte	.LVL511
 13921 211a 42000000 		.4byte	.LVL512
 13922 211e 0100     		.2byte	0x1
 13923 2120 53       		.byte	0x53
 13924 2121 42000000 		.4byte	.LVL512
 13925 2125 4C000000 		.4byte	.LVL513
 13926 2129 0800     		.2byte	0x8
 13927 212b 74       		.byte	0x74
 13928 212c 38       		.sleb128 56
 13929 212d 06       		.byte	0x6
 13930 212e 23       		.byte	0x23
 13931 212f 04       		.uleb128 0x4
 13932 2130 06       		.byte	0x6
 13933 2131 23       		.byte	0x23
ARM GAS  C:\Users\brian\AppData\Local\Temp\ccwE2E8f.s 			page 282


 13934 2132 0C       		.uleb128 0xc
 13935 2133 50000000 		.4byte	.LVL514
 13936 2137 61000000 		.4byte	.LVL517-1
 13937 213b 0100     		.2byte	0x1
 13938 213d 53       		.byte	0x53
 13939 213e 6E000000 		.4byte	.LVL518
 13940 2142 7B000000 		.4byte	.LVL519-1
 13941 2146 0100     		.2byte	0x1
 13942 2148 53       		.byte	0x53
 13943 2149 88000000 		.4byte	.LVL520
 13944 214d 8C000000 		.4byte	.LVL521
 13945 2151 0100     		.2byte	0x1
 13946 2153 53       		.byte	0x53
 13947 2154 00000000 		.4byte	0
 13948 2158 00000000 		.4byte	0
 13949              	.LLST159:
 13950 215c 00000000 		.4byte	.LVL522
 13951 2160 0C000000 		.4byte	.LVL525
 13952 2164 0100     		.2byte	0x1
 13953 2166 50       		.byte	0x50
 13954 2167 0C000000 		.4byte	.LVL525
 13955 216b 40000000 		.4byte	.LFE40
 13956 216f 0100     		.2byte	0x1
 13957 2171 54       		.byte	0x54
 13958 2172 00000000 		.4byte	0
 13959 2176 00000000 		.4byte	0
 13960              	.LLST160:
 13961 217a 00000000 		.4byte	.LVL522
 13962 217e 1A000000 		.4byte	.LVL527
 13963 2182 0100     		.2byte	0x1
 13964 2184 51       		.byte	0x51
 13965 2185 1A000000 		.4byte	.LVL527
 13966 2189 2A000000 		.4byte	.LVL530
 13967 218d 0400     		.2byte	0x4
 13968 218f F3       		.byte	0xf3
 13969 2190 01       		.uleb128 0x1
 13970 2191 51       		.byte	0x51
 13971 2192 9F       		.byte	0x9f
 13972 2193 2A000000 		.4byte	.LVL530
 13973 2197 2F000000 		.4byte	.LVL532-1
 13974 219b 0100     		.2byte	0x1
 13975 219d 51       		.byte	0x51
 13976 219e 2F000000 		.4byte	.LVL532-1
 13977 21a2 40000000 		.4byte	.LFE40
 13978 21a6 0400     		.2byte	0x4
 13979 21a8 F3       		.byte	0xf3
 13980 21a9 01       		.uleb128 0x1
 13981 21aa 51       		.byte	0x51
 13982 21ab 9F       		.byte	0x9f
 13983 21ac 00000000 		.4byte	0
 13984 21b0 00000000 		.4byte	0
 13985              	.LLST161:
 13986 21b4 08000000 		.4byte	.LVL523
 13987 21b8 0E000000 		.4byte	.LVL526
 13988 21bc 0100     		.2byte	0x1
 13989 21be 53       		.byte	0x53
 13990 21bf 0E000000 		.4byte	.LVL526
ARM GAS  C:\Users\brian\AppData\Local\Temp\ccwE2E8f.s 			page 283


 13991 21c3 1B000000 		.4byte	.LVL528-1
 13992 21c7 0500     		.2byte	0x5
 13993 21c9 74       		.byte	0x74
 13994 21ca 38       		.sleb128 56
 13995 21cb 06       		.byte	0x6
 13996 21cc 23       		.byte	0x23
 13997 21cd 04       		.uleb128 0x4
 13998 21ce 2A000000 		.4byte	.LVL530
 13999 21d2 2F000000 		.4byte	.LVL532-1
 14000 21d6 0500     		.2byte	0x5
 14001 21d8 74       		.byte	0x74
 14002 21d9 38       		.sleb128 56
 14003 21da 06       		.byte	0x6
 14004 21db 23       		.byte	0x23
 14005 21dc 04       		.uleb128 0x4
 14006 21dd 00000000 		.4byte	0
 14007 21e1 00000000 		.4byte	0
 14008              	.LLST162:
 14009 21e5 0C000000 		.4byte	.LVL525
 14010 21e9 1B000000 		.4byte	.LVL528-1
 14011 21ed 0100     		.2byte	0x1
 14012 21ef 50       		.byte	0x50
 14013 21f0 2A000000 		.4byte	.LVL530
 14014 21f4 2C000000 		.4byte	.LVL531
 14015 21f8 0100     		.2byte	0x1
 14016 21fa 50       		.byte	0x50
 14017 21fb 2C000000 		.4byte	.LVL531
 14018 21ff 2F000000 		.4byte	.LVL532-1
 14019 2203 0800     		.2byte	0x8
 14020 2205 74       		.byte	0x74
 14021 2206 38       		.sleb128 56
 14022 2207 06       		.byte	0x6
 14023 2208 23       		.byte	0x23
 14024 2209 04       		.uleb128 0x4
 14025 220a 06       		.byte	0x6
 14026 220b 23       		.byte	0x23
 14027 220c 04       		.uleb128 0x4
 14028 220d 00000000 		.4byte	0
 14029 2211 00000000 		.4byte	0
 14030              	.LLST163:
 14031 2215 0E000000 		.4byte	.LVL526
 14032 2219 1B000000 		.4byte	.LVL528-1
 14033 221d 0100     		.2byte	0x1
 14034 221f 53       		.byte	0x53
 14035 2220 2A000000 		.4byte	.LVL530
 14036 2224 2F000000 		.4byte	.LVL532-1
 14037 2228 0100     		.2byte	0x1
 14038 222a 53       		.byte	0x53
 14039 222b 00000000 		.4byte	0
 14040 222f 00000000 		.4byte	0
 14041              	.LLST164:
 14042 2233 00000000 		.4byte	.LVL534
 14043 2237 0D000000 		.4byte	.LVL535-1
 14044 223b 0100     		.2byte	0x1
 14045 223d 50       		.byte	0x50
 14046 223e 0D000000 		.4byte	.LVL535-1
 14047 2242 94000000 		.4byte	.LVL557
ARM GAS  C:\Users\brian\AppData\Local\Temp\ccwE2E8f.s 			page 284


 14048 2246 0100     		.2byte	0x1
 14049 2248 54       		.byte	0x54
 14050 2249 94000000 		.4byte	.LVL557
 14051 224d AC000000 		.4byte	.LVL559
 14052 2251 0400     		.2byte	0x4
 14053 2253 F3       		.byte	0xf3
 14054 2254 01       		.uleb128 0x1
 14055 2255 50       		.byte	0x50
 14056 2256 9F       		.byte	0x9f
 14057 2257 AC000000 		.4byte	.LVL559
 14058 225b B8000000 		.4byte	.LVL563
 14059 225f 0100     		.2byte	0x1
 14060 2261 54       		.byte	0x54
 14061 2262 B8000000 		.4byte	.LVL563
 14062 2266 BE000000 		.4byte	.LFE42
 14063 226a 0400     		.2byte	0x4
 14064 226c F3       		.byte	0xf3
 14065 226d 01       		.uleb128 0x1
 14066 226e 50       		.byte	0x50
 14067 226f 9F       		.byte	0x9f
 14068 2270 00000000 		.4byte	0
 14069 2274 00000000 		.4byte	0
 14070              	.LLST165:
 14071 2278 00000000 		.4byte	.LVL534
 14072 227c 0D000000 		.4byte	.LVL535-1
 14073 2280 0100     		.2byte	0x1
 14074 2282 51       		.byte	0x51
 14075 2283 0D000000 		.4byte	.LVL535-1
 14076 2287 BE000000 		.4byte	.LFE42
 14077 228b 0400     		.2byte	0x4
 14078 228d F3       		.byte	0xf3
 14079 228e 01       		.uleb128 0x1
 14080 228f 51       		.byte	0x51
 14081 2290 9F       		.byte	0x9f
 14082 2291 00000000 		.4byte	0
 14083 2295 00000000 		.4byte	0
 14084              	.LLST166:
 14085 2299 10000000 		.4byte	.LVL536
 14086 229d 3A000000 		.4byte	.LVL544
 14087 22a1 0100     		.2byte	0x1
 14088 22a3 50       		.byte	0x50
 14089 22a4 3A000000 		.4byte	.LVL544
 14090 22a8 AC000000 		.4byte	.LVL559
 14091 22ac 0200     		.2byte	0x2
 14092 22ae 91       		.byte	0x91
 14093 22af 4C       		.sleb128 -52
 14094 22b0 AC000000 		.4byte	.LVL559
 14095 22b4 B0000000 		.4byte	.LVL560
 14096 22b8 0100     		.2byte	0x1
 14097 22ba 50       		.byte	0x50
 14098 22bb B0000000 		.4byte	.LVL560
 14099 22bf BE000000 		.4byte	.LFE42
 14100 22c3 0200     		.2byte	0x2
 14101 22c5 91       		.byte	0x91
 14102 22c6 4C       		.sleb128 -52
 14103 22c7 00000000 		.4byte	0
 14104 22cb 00000000 		.4byte	0
ARM GAS  C:\Users\brian\AppData\Local\Temp\ccwE2E8f.s 			page 285


 14105              	.LLST167:
 14106 22cf 14000000 		.4byte	.LVL537
 14107 22d3 3D000000 		.4byte	.LVL545-1
 14108 22d7 0100     		.2byte	0x1
 14109 22d9 53       		.byte	0x53
 14110 22da AC000000 		.4byte	.LVL559
 14111 22de B3000000 		.4byte	.LVL561-1
 14112 22e2 0100     		.2byte	0x1
 14113 22e4 53       		.byte	0x53
 14114 22e5 00000000 		.4byte	0
 14115 22e9 00000000 		.4byte	0
 14116              	.LLST168:
 14117 22ed 1C000000 		.4byte	.LVL539
 14118 22f1 3D000000 		.4byte	.LVL545-1
 14119 22f5 0100     		.2byte	0x1
 14120 22f7 52       		.byte	0x52
 14121 22f8 3D000000 		.4byte	.LVL545-1
 14122 22fc AC000000 		.4byte	.LVL559
 14123 2300 0200     		.2byte	0x2
 14124 2302 91       		.byte	0x91
 14125 2303 48       		.sleb128 -56
 14126 2304 AC000000 		.4byte	.LVL559
 14127 2308 B3000000 		.4byte	.LVL561-1
 14128 230c 0100     		.2byte	0x1
 14129 230e 52       		.byte	0x52
 14130 230f B3000000 		.4byte	.LVL561-1
 14131 2313 BE000000 		.4byte	.LFE42
 14132 2317 0200     		.2byte	0x2
 14133 2319 91       		.byte	0x91
 14134 231a 48       		.sleb128 -56
 14135 231b 00000000 		.4byte	0
 14136 231f 00000000 		.4byte	0
 14137              	.LLST169:
 14138 2323 26000000 		.4byte	.LVL542
 14139 2327 54000000 		.4byte	.LVL550
 14140 232b 0100     		.2byte	0x1
 14141 232d 5B       		.byte	0x5b
 14142 232e 58000000 		.4byte	.LVL551
 14143 2332 BE000000 		.4byte	.LFE42
 14144 2336 0100     		.2byte	0x1
 14145 2338 5B       		.byte	0x5b
 14146 2339 00000000 		.4byte	0
 14147 233d 00000000 		.4byte	0
 14148              	.LLST170:
 14149 2341 38000000 		.4byte	.LVL543
 14150 2345 6C000000 		.4byte	.LVL552
 14151 2349 0100     		.2byte	0x1
 14152 234b 58       		.byte	0x58
 14153 234c 6C000000 		.4byte	.LVL552
 14154 2350 78000000 		.4byte	.LVL554
 14155 2354 0100     		.2byte	0x1
 14156 2356 55       		.byte	0x55
 14157 2357 00000000 		.4byte	0
 14158 235b 00000000 		.4byte	0
 14159              	.LLST171:
 14160 235f 40000000 		.4byte	.LVL546
 14161 2363 AC000000 		.4byte	.LVL559
ARM GAS  C:\Users\brian\AppData\Local\Temp\ccwE2E8f.s 			page 286


 14162 2367 0200     		.2byte	0x2
 14163 2369 91       		.byte	0x91
 14164 236a 54       		.sleb128 -44
 14165 236b B6000000 		.4byte	.LVL562
 14166 236f B8000000 		.4byte	.LVL563
 14167 2373 0200     		.2byte	0x2
 14168 2375 91       		.byte	0x91
 14169 2376 54       		.sleb128 -44
 14170 2377 00000000 		.4byte	0
 14171 237b 00000000 		.4byte	0
 14172              	.LLST172:
 14173 237f 48000000 		.4byte	.LVL548
 14174 2383 AC000000 		.4byte	.LVL559
 14175 2387 0200     		.2byte	0x2
 14176 2389 91       		.byte	0x91
 14177 238a 50       		.sleb128 -48
 14178 238b B6000000 		.4byte	.LVL562
 14179 238f B8000000 		.4byte	.LVL563
 14180 2393 0200     		.2byte	0x2
 14181 2395 91       		.byte	0x91
 14182 2396 50       		.sleb128 -48
 14183 2397 00000000 		.4byte	0
 14184 239b 00000000 		.4byte	0
 14185              	.LLST173:
 14186 239f 50000000 		.4byte	.LVL549
 14187 23a3 AC000000 		.4byte	.LVL559
 14188 23a7 0100     		.2byte	0x1
 14189 23a9 56       		.byte	0x56
 14190 23aa B6000000 		.4byte	.LVL562
 14191 23ae B8000000 		.4byte	.LVL563
 14192 23b2 0100     		.2byte	0x1
 14193 23b4 56       		.byte	0x56
 14194 23b5 00000000 		.4byte	0
 14195 23b9 00000000 		.4byte	0
 14196              	.LLST174:
 14197 23bd 00000000 		.4byte	.LVL564
 14198 23c1 0B000000 		.4byte	.LVL565-1
 14199 23c5 0100     		.2byte	0x1
 14200 23c7 50       		.byte	0x50
 14201 23c8 0B000000 		.4byte	.LVL565-1
 14202 23cc 7C000000 		.4byte	.LFE43
 14203 23d0 0100     		.2byte	0x1
 14204 23d2 55       		.byte	0x55
 14205 23d3 00000000 		.4byte	0
 14206 23d7 00000000 		.4byte	0
 14207              	.LLST175:
 14208 23db 00000000 		.4byte	.LVL564
 14209 23df 0B000000 		.4byte	.LVL565-1
 14210 23e3 0100     		.2byte	0x1
 14211 23e5 51       		.byte	0x51
 14212 23e6 0B000000 		.4byte	.LVL565-1
 14213 23ea 7C000000 		.4byte	.LFE43
 14214 23ee 0400     		.2byte	0x4
 14215 23f0 F3       		.byte	0xf3
 14216 23f1 01       		.uleb128 0x1
 14217 23f2 51       		.byte	0x51
 14218 23f3 9F       		.byte	0x9f
ARM GAS  C:\Users\brian\AppData\Local\Temp\ccwE2E8f.s 			page 287


 14219 23f4 00000000 		.4byte	0
 14220 23f8 00000000 		.4byte	0
 14221              	.LLST176:
 14222 23fc 0C000000 		.4byte	.LVL565
 14223 2400 32000000 		.4byte	.LVL574
 14224 2404 0100     		.2byte	0x1
 14225 2406 50       		.byte	0x50
 14226 2407 56000000 		.4byte	.LVL578
 14227 240b 5E000000 		.4byte	.LVL580
 14228 240f 0100     		.2byte	0x1
 14229 2411 50       		.byte	0x50
 14230 2412 70000000 		.4byte	.LVL583
 14231 2416 74000000 		.4byte	.LVL584
 14232 241a 0100     		.2byte	0x1
 14233 241c 50       		.byte	0x50
 14234 241d 00000000 		.4byte	0
 14235 2421 00000000 		.4byte	0
 14236              	.LLST177:
 14237 2425 10000000 		.4byte	.LVL566
 14238 2429 1E000000 		.4byte	.LVL571
 14239 242d 0100     		.2byte	0x1
 14240 242f 53       		.byte	0x53
 14241 2430 1E000000 		.4byte	.LVL571
 14242 2434 35000000 		.4byte	.LVL575-1
 14243 2438 0500     		.2byte	0x5
 14244 243a 75       		.byte	0x75
 14245 243b 38       		.sleb128 56
 14246 243c 06       		.byte	0x6
 14247 243d 23       		.byte	0x23
 14248 243e 04       		.uleb128 0x4
 14249 243f 56000000 		.4byte	.LVL578
 14250 2443 5A000000 		.4byte	.LVL579
 14251 2447 0500     		.2byte	0x5
 14252 2449 75       		.byte	0x75
 14253 244a 38       		.sleb128 56
 14254 244b 06       		.byte	0x6
 14255 244c 23       		.byte	0x23
 14256 244d 04       		.uleb128 0x4
 14257 244e 70000000 		.4byte	.LVL583
 14258 2452 77000000 		.4byte	.LVL585-1
 14259 2456 0500     		.2byte	0x5
 14260 2458 75       		.byte	0x75
 14261 2459 38       		.sleb128 56
 14262 245a 06       		.byte	0x6
 14263 245b 23       		.byte	0x23
 14264 245c 04       		.uleb128 0x4
 14265 245d 00000000 		.4byte	0
 14266 2461 00000000 		.4byte	0
 14267              	.LLST178:
 14268 2465 12000000 		.4byte	.LVL567
 14269 2469 35000000 		.4byte	.LVL575-1
 14270 246d 0100     		.2byte	0x1
 14271 246f 52       		.byte	0x52
 14272 2470 56000000 		.4byte	.LVL578
 14273 2474 5F000000 		.4byte	.LVL581-1
 14274 2478 0100     		.2byte	0x1
 14275 247a 52       		.byte	0x52
ARM GAS  C:\Users\brian\AppData\Local\Temp\ccwE2E8f.s 			page 288


 14276 247b 70000000 		.4byte	.LVL583
 14277 247f 77000000 		.4byte	.LVL585-1
 14278 2483 0100     		.2byte	0x1
 14279 2485 52       		.byte	0x52
 14280 2486 00000000 		.4byte	0
 14281 248a 00000000 		.4byte	0
 14282              	.LLST179:
 14283 248e 1C000000 		.4byte	.LVL570
 14284 2492 20000000 		.4byte	.LVL572
 14285 2496 0100     		.2byte	0x1
 14286 2498 51       		.byte	0x51
 14287 2499 20000000 		.4byte	.LVL572
 14288 249d 22000000 		.4byte	.LVL573
 14289 24a1 0800     		.2byte	0x8
 14290 24a3 75       		.byte	0x75
 14291 24a4 2E       		.sleb128 46
 14292 24a5 94       		.byte	0x94
 14293 24a6 01       		.byte	0x1
 14294 24a7 08       		.byte	0x8
 14295 24a8 FF       		.byte	0xff
 14296 24a9 1A       		.byte	0x1a
 14297 24aa 9F       		.byte	0x9f
 14298 24ab 22000000 		.4byte	.LVL573
 14299 24af 7C000000 		.4byte	.LFE43
 14300 24b3 0100     		.2byte	0x1
 14301 24b5 54       		.byte	0x54
 14302 24b6 00000000 		.4byte	0
 14303 24ba 00000000 		.4byte	0
 14304              		.section	.debug_aranges,"",%progbits
 14305 0000 74010000 		.4byte	0x174
 14306 0004 0200     		.2byte	0x2
 14307 0006 00000000 		.4byte	.Ldebug_info0
 14308 000a 04       		.byte	0x4
 14309 000b 00       		.byte	0
 14310 000c 0000     		.2byte	0
 14311 000e 0000     		.2byte	0
 14312 0010 00000000 		.4byte	.LFB12
 14313 0014 82000000 		.4byte	.LFE12-.LFB12
 14314 0018 00000000 		.4byte	.LFB25
 14315 001c 34000000 		.4byte	.LFE25-.LFB25
 14316 0020 00000000 		.4byte	.LFB0
 14317 0024 3A000000 		.4byte	.LFE0-.LFB0
 14318 0028 00000000 		.4byte	.LFB1
 14319 002c 12000000 		.4byte	.LFE1-.LFB1
 14320 0030 00000000 		.4byte	.LFB41
 14321 0034 76000000 		.4byte	.LFE41-.LFB41
 14322 0038 00000000 		.4byte	.LFB3
 14323 003c 06000000 		.4byte	.LFE3-.LFB3
 14324 0040 00000000 		.4byte	.LFB4
 14325 0044 04000000 		.4byte	.LFE4-.LFB4
 14326 0048 00000000 		.4byte	.LFB2
 14327 004c 1E000000 		.4byte	.LFE2-.LFB2
 14328 0050 00000000 		.4byte	.LFB5
 14329 0054 50000000 		.4byte	.LFE5-.LFB5
 14330 0058 00000000 		.4byte	.LFB6
 14331 005c 1C000000 		.4byte	.LFE6-.LFB6
 14332 0060 00000000 		.4byte	.LFB7
ARM GAS  C:\Users\brian\AppData\Local\Temp\ccwE2E8f.s 			page 289


 14333 0064 26000000 		.4byte	.LFE7-.LFB7
 14334 0068 00000000 		.4byte	.LFB19
 14335 006c 60000000 		.4byte	.LFE19-.LFB19
 14336 0070 00000000 		.4byte	.LFB8
 14337 0074 1C000000 		.4byte	.LFE8-.LFB8
 14338 0078 00000000 		.4byte	.LFB9
 14339 007c 26000000 		.4byte	.LFE9-.LFB9
 14340 0080 00000000 		.4byte	.LFB10
 14341 0084 1C000000 		.4byte	.LFE10-.LFB10
 14342 0088 00000000 		.4byte	.LFB11
 14343 008c 26000000 		.4byte	.LFE11-.LFB11
 14344 0090 00000000 		.4byte	.LFB22
 14345 0094 60000000 		.4byte	.LFE22-.LFB22
 14346 0098 00000000 		.4byte	.LFB13
 14347 009c 32000000 		.4byte	.LFE13-.LFB13
 14348 00a0 00000000 		.4byte	.LFB14
 14349 00a4 42000000 		.4byte	.LFE14-.LFB14
 14350 00a8 00000000 		.4byte	.LFB15
 14351 00ac 58000000 		.4byte	.LFE15-.LFB15
 14352 00b0 00000000 		.4byte	.LFB16
 14353 00b4 4C000000 		.4byte	.LFE16-.LFB16
 14354 00b8 00000000 		.4byte	.LFB17
 14355 00bc 46000000 		.4byte	.LFE17-.LFB17
 14356 00c0 00000000 		.4byte	.LFB18
 14357 00c4 48000000 		.4byte	.LFE18-.LFB18
 14358 00c8 00000000 		.4byte	.LFB20
 14359 00cc 2E000000 		.4byte	.LFE20-.LFB20
 14360 00d0 00000000 		.4byte	.LFB21
 14361 00d4 74000000 		.4byte	.LFE21-.LFB21
 14362 00d8 00000000 		.4byte	.LFB23
 14363 00dc 2E000000 		.4byte	.LFE23-.LFB23
 14364 00e0 00000000 		.4byte	.LFB24
 14365 00e4 74000000 		.4byte	.LFE24-.LFB24
 14366 00e8 00000000 		.4byte	.LFB26
 14367 00ec A0000000 		.4byte	.LFE26-.LFB26
 14368 00f0 00000000 		.4byte	.LFB27
 14369 00f4 4C000000 		.4byte	.LFE27-.LFB27
 14370 00f8 00000000 		.4byte	.LFB28
 14371 00fc 96000000 		.4byte	.LFE28-.LFB28
 14372 0100 00000000 		.4byte	.LFB29
 14373 0104 FC000000 		.4byte	.LFE29-.LFB29
 14374 0108 00000000 		.4byte	.LFB30
 14375 010c EE000000 		.4byte	.LFE30-.LFB30
 14376 0110 00000000 		.4byte	.LFB31
 14377 0114 48000000 		.4byte	.LFE31-.LFB31
 14378 0118 00000000 		.4byte	.LFB32
 14379 011c 72000000 		.4byte	.LFE32-.LFB32
 14380 0120 00000000 		.4byte	.LFB33
 14381 0124 C6000000 		.4byte	.LFE33-.LFB33
 14382 0128 00000000 		.4byte	.LFB34
 14383 012c BA000000 		.4byte	.LFE34-.LFB34
 14384 0130 00000000 		.4byte	.LFB35
 14385 0134 7C000000 		.4byte	.LFE35-.LFB35
 14386 0138 00000000 		.4byte	.LFB36
 14387 013c 0C000000 		.4byte	.LFE36-.LFB36
 14388 0140 00000000 		.4byte	.LFB37
 14389 0144 7C000000 		.4byte	.LFE37-.LFB37
ARM GAS  C:\Users\brian\AppData\Local\Temp\ccwE2E8f.s 			page 290


 14390 0148 00000000 		.4byte	.LFB38
 14391 014c 46000000 		.4byte	.LFE38-.LFB38
 14392 0150 00000000 		.4byte	.LFB39
 14393 0154 90000000 		.4byte	.LFE39-.LFB39
 14394 0158 00000000 		.4byte	.LFB40
 14395 015c 40000000 		.4byte	.LFE40-.LFB40
 14396 0160 00000000 		.4byte	.LFB42
 14397 0164 BE000000 		.4byte	.LFE42-.LFB42
 14398 0168 00000000 		.4byte	.LFB43
 14399 016c 7C000000 		.4byte	.LFE43-.LFB43
 14400 0170 00000000 		.4byte	0
 14401 0174 00000000 		.4byte	0
 14402              		.section	.debug_ranges,"",%progbits
 14403              	.Ldebug_ranges0:
 14404 0000 00000000 		.4byte	.LFB12
 14405 0004 82000000 		.4byte	.LFE12
 14406 0008 00000000 		.4byte	.LFB25
 14407 000c 34000000 		.4byte	.LFE25
 14408 0010 00000000 		.4byte	.LFB0
 14409 0014 3A000000 		.4byte	.LFE0
 14410 0018 00000000 		.4byte	.LFB1
 14411 001c 12000000 		.4byte	.LFE1
 14412 0020 00000000 		.4byte	.LFB41
 14413 0024 76000000 		.4byte	.LFE41
 14414 0028 00000000 		.4byte	.LFB3
 14415 002c 06000000 		.4byte	.LFE3
 14416 0030 00000000 		.4byte	.LFB4
 14417 0034 04000000 		.4byte	.LFE4
 14418 0038 00000000 		.4byte	.LFB2
 14419 003c 1E000000 		.4byte	.LFE2
 14420 0040 00000000 		.4byte	.LFB5
 14421 0044 50000000 		.4byte	.LFE5
 14422 0048 00000000 		.4byte	.LFB6
 14423 004c 1C000000 		.4byte	.LFE6
 14424 0050 00000000 		.4byte	.LFB7
 14425 0054 26000000 		.4byte	.LFE7
 14426 0058 00000000 		.4byte	.LFB19
 14427 005c 60000000 		.4byte	.LFE19
 14428 0060 00000000 		.4byte	.LFB8
 14429 0064 1C000000 		.4byte	.LFE8
 14430 0068 00000000 		.4byte	.LFB9
 14431 006c 26000000 		.4byte	.LFE9
 14432 0070 00000000 		.4byte	.LFB10
 14433 0074 1C000000 		.4byte	.LFE10
 14434 0078 00000000 		.4byte	.LFB11
 14435 007c 26000000 		.4byte	.LFE11
 14436 0080 00000000 		.4byte	.LFB22
 14437 0084 60000000 		.4byte	.LFE22
 14438 0088 00000000 		.4byte	.LFB13
 14439 008c 32000000 		.4byte	.LFE13
 14440 0090 00000000 		.4byte	.LFB14
 14441 0094 42000000 		.4byte	.LFE14
 14442 0098 00000000 		.4byte	.LFB15
 14443 009c 58000000 		.4byte	.LFE15
 14444 00a0 00000000 		.4byte	.LFB16
 14445 00a4 4C000000 		.4byte	.LFE16
 14446 00a8 00000000 		.4byte	.LFB17
ARM GAS  C:\Users\brian\AppData\Local\Temp\ccwE2E8f.s 			page 291


 14447 00ac 46000000 		.4byte	.LFE17
 14448 00b0 00000000 		.4byte	.LFB18
 14449 00b4 48000000 		.4byte	.LFE18
 14450 00b8 00000000 		.4byte	.LFB20
 14451 00bc 2E000000 		.4byte	.LFE20
 14452 00c0 00000000 		.4byte	.LFB21
 14453 00c4 74000000 		.4byte	.LFE21
 14454 00c8 00000000 		.4byte	.LFB23
 14455 00cc 2E000000 		.4byte	.LFE23
 14456 00d0 00000000 		.4byte	.LFB24
 14457 00d4 74000000 		.4byte	.LFE24
 14458 00d8 00000000 		.4byte	.LFB26
 14459 00dc A0000000 		.4byte	.LFE26
 14460 00e0 00000000 		.4byte	.LFB27
 14461 00e4 4C000000 		.4byte	.LFE27
 14462 00e8 00000000 		.4byte	.LFB28
 14463 00ec 96000000 		.4byte	.LFE28
 14464 00f0 00000000 		.4byte	.LFB29
 14465 00f4 FC000000 		.4byte	.LFE29
 14466 00f8 00000000 		.4byte	.LFB30
 14467 00fc EE000000 		.4byte	.LFE30
 14468 0100 00000000 		.4byte	.LFB31
 14469 0104 48000000 		.4byte	.LFE31
 14470 0108 00000000 		.4byte	.LFB32
 14471 010c 72000000 		.4byte	.LFE32
 14472 0110 00000000 		.4byte	.LFB33
 14473 0114 C6000000 		.4byte	.LFE33
 14474 0118 00000000 		.4byte	.LFB34
 14475 011c BA000000 		.4byte	.LFE34
 14476 0120 00000000 		.4byte	.LFB35
 14477 0124 7C000000 		.4byte	.LFE35
 14478 0128 00000000 		.4byte	.LFB36
 14479 012c 0C000000 		.4byte	.LFE36
 14480 0130 00000000 		.4byte	.LFB37
 14481 0134 7C000000 		.4byte	.LFE37
 14482 0138 00000000 		.4byte	.LFB38
 14483 013c 46000000 		.4byte	.LFE38
 14484 0140 00000000 		.4byte	.LFB39
 14485 0144 90000000 		.4byte	.LFE39
 14486 0148 00000000 		.4byte	.LFB40
 14487 014c 40000000 		.4byte	.LFE40
 14488 0150 00000000 		.4byte	.LFB42
 14489 0154 BE000000 		.4byte	.LFE42
 14490 0158 00000000 		.4byte	.LFB43
 14491 015c 7C000000 		.4byte	.LFE43
 14492 0160 00000000 		.4byte	0
 14493 0164 00000000 		.4byte	0
 14494              		.section	.debug_line,"",%progbits
 14495              	.Ldebug_line0:
 14496 0000 8E070000 		.section	.debug_str,"MS",%progbits,1
 14496      0200D801 
 14496      00000201 
 14496      FB0E0D00 
 14496      01010101 
 14497              	.LASF180:
 14498 0000 6D75695F 		.ascii	"mui_u8g2_u8_min_max_t\000"
 14498      75386732 
ARM GAS  C:\Users\brian\AppData\Local\Temp\ccwE2E8f.s 			page 292


 14498      5F75385F 
 14498      6D696E5F 
 14498      6D61785F 
 14499              	.LASF77:
 14500 0016 7072655F 		.ascii	"pre_chip_disable_wait_ns\000"
 14500      63686970 
 14500      5F646973 
 14500      61626C65 
 14500      5F776169 
 14501              	.LASF69:
 14502 002f 6465626F 		.ascii	"debounce_last_pin_state\000"
 14502      756E6365 
 14502      5F6C6173 
 14502      745F7069 
 14502      6E5F7374 
 14503              	.LASF138:
 14504 0047 5F753867 		.ascii	"_u8g2_font_info_t\000"
 14504      325F666F 
 14504      6E745F69 
 14504      6E666F5F 
 14504      7400
 14505              	.LASF133:
 14506 0059 64726177 		.ascii	"draw_l90\000"
 14506      5F6C3930 
 14506      00
 14507              	.LASF205:
 14508 0062 6D75695F 		.ascii	"mui_u8g2_draw_text\000"
 14508      75386732 
 14508      5F647261 
 14508      775F7465 
 14508      787400
 14509              	.LASF33:
 14510 0075 746D7038 		.ascii	"tmp8\000"
 14510      00
 14511              	.LASF66:
 14512 007a 75746638 		.ascii	"utf8_state\000"
 14512      5F737461 
 14512      746500
 14513              	.LASF160:
 14514 0085 6465636F 		.ascii	"decode_ptr\000"
 14514      64655F70 
 14514      747200
 14515              	.LASF92:
 14516 0090 70697865 		.ascii	"pixel_height\000"
 14516      6C5F6865 
 14516      69676874 
 14516      00
 14517              	.LASF175:
 14518 009d 6765745F 		.ascii	"get_list_element\000"
 14518      6C697374 
 14518      5F656C65 
 14518      6D656E74 
 14518      00
 14519              	.LASF147:
 14520 00ae 62697473 		.ascii	"bits_per_delta_x\000"
 14520      5F706572 
 14520      5F64656C 
ARM GAS  C:\Users\brian\AppData\Local\Temp\ccwE2E8f.s 			page 293


 14520      74615F78 
 14520      00
 14521              	.LASF31:
 14522 00bf 666F726D 		.ascii	"form_scroll_top\000"
 14522      5F736372 
 14522      6F6C6C5F 
 14522      746F7000 
 14523              	.LASF218:
 14524 00cf 6D75695F 		.ascii	"mui_u8g2_u8_chkbox_wm_pi\000"
 14524      75386732 
 14524      5F75385F 
 14524      63686B62 
 14524      6F785F77 
 14525              	.LASF136:
 14526 00e8 75386732 		.ascii	"u8g2_draw_l90_cb\000"
 14526      5F647261 
 14526      775F6C39 
 14526      305F6362 
 14526      00
 14527              	.LASF39:
 14528 00f9 74617267 		.ascii	"target_fds\000"
 14528      65745F66 
 14528      647300
 14529              	.LASF178:
 14530 0104 6D75695F 		.ascii	"mui_u8g2_u8_min_max_struct\000"
 14530      75386732 
 14530      5F75385F 
 14530      6D696E5F 
 14530      6D61785F 
 14531              	.LASF141:
 14532 011f 62697473 		.ascii	"bits_per_0\000"
 14532      5F706572 
 14532      5F3000
 14533              	.LASF50:
 14534 012a 6664735F 		.ascii	"fds_t\000"
 14534      7400
 14535              	.LASF120:
 14536 0130 666F6E74 		.ascii	"font_info\000"
 14536      5F696E66 
 14536      6F00
 14537              	.LASF26:
 14538 013a 63757272 		.ascii	"current_form_fds\000"
 14538      656E745F 
 14538      666F726D 
 14538      5F666473 
 14538      00
 14539              	.LASF131:
 14540 014b 75706461 		.ascii	"update_dimension\000"
 14540      74655F64 
 14540      696D656E 
 14540      73696F6E 
 14540      00
 14541              	.LASF0:
 14542 015c 756E7369 		.ascii	"unsigned int\000"
 14542      676E6564 
 14542      20696E74 
 14542      00
ARM GAS  C:\Users\brian\AppData\Local\Temp\ccwE2E8f.s 			page 294


 14543              	.LASF173:
 14544 0169 6D75695F 		.ascii	"mui_u8g2_list_struct\000"
 14544      75386732 
 14544      5F6C6973 
 14544      745F7374 
 14544      72756374 
 14545              	.LASF38:
 14546 017e 746D705F 		.ascii	"tmp_fds\000"
 14546      66647300 
 14547              	.LASF98:
 14548 0186 75387838 		.ascii	"u8x8\000"
 14548      00
 14549              	.LASF43:
 14550 018b 6D756966 		.ascii	"muif_t\000"
 14550      5F7400
 14551              	.LASF246:
 14552 0192 75386732 		.ascii	"u8g2_DrawUTF8\000"
 14552      5F447261 
 14552      77555446 
 14552      3800
 14553              	.LASF200:
 14554 01a0 6D75695F 		.ascii	"mui_u8g2_get_fi_flags\000"
 14554      75386732 
 14554      5F676574 
 14554      5F66695F 
 14554      666C6167 
 14555              	.LASF213:
 14556 01b6 6D75695F 		.ascii	"mui_u8g2_u8_min_max_wm_mse_pf\000"
 14556      75386732 
 14556      5F75385F 
 14556      6D696E5F 
 14556      6D61785F 
 14557              	.LASF211:
 14558 01d4 6D75695F 		.ascii	"mui_u8g2_u8_min_max_wm_mse_pi\000"
 14558      75386732 
 14558      5F75385F 
 14558      6D696E5F 
 14558      6D61785F 
 14559              	.LASF252:
 14560 01f2 2E2E5C75 		.ascii	"..\\u8g2\\csrc\\mui_u8g2.c\000"
 14560      3867325C 
 14560      63737263 
 14560      5C6D7569 
 14560      5F753867 
 14561              	.LASF202:
 14562 020a 6D75695F 		.ascii	"mui_u8g2_get_pf_flags\000"
 14562      75386732 
 14562      5F676574 
 14562      5F70665F 
 14562      666C6167 
 14563              	.LASF118:
 14564 0220 666F6E74 		.ascii	"font_calc_vref\000"
 14564      5F63616C 
 14564      635F7672 
 14564      656600
 14565              	.LASF148:
 14566 022f 6D61785F 		.ascii	"max_char_width\000"
ARM GAS  C:\Users\brian\AppData\Local\Temp\ccwE2E8f.s 			page 295


 14566      63686172 
 14566      5F776964 
 14566      746800
 14567              	.LASF62:
 14568 023e 785F6F66 		.ascii	"x_offset\000"
 14568      66736574 
 14568      00
 14569              	.LASF238:
 14570 0247 75386732 		.ascii	"u8g2_GetStrWidth\000"
 14570      5F476574 
 14570      53747257 
 14570      69647468 
 14570      00
 14571              	.LASF150:
 14572 0258 795F6F66 		.ascii	"y_offset\000"
 14572      66736574 
 14572      00
 14573              	.LASF36:
 14574 0261 64666C61 		.ascii	"dflags\000"
 14574      677300
 14575              	.LASF188:
 14576 0268 6C697374 		.ascii	"list\000"
 14576      00
 14577              	.LASF162:
 14578 026d 74617267 		.ascii	"target_y\000"
 14578      65745F79 
 14578      00
 14579              	.LASF154:
 14580 0276 64657363 		.ascii	"descent_para\000"
 14580      656E745F 
 14580      70617261 
 14580      00
 14581              	.LASF125:
 14582 0283 676C7970 		.ascii	"glyph_x_offset\000"
 14582      685F785F 
 14582      6F666673 
 14582      657400
 14583              	.LASF82:
 14584 0292 73636B5F 		.ascii	"sck_clock_hz\000"
 14584      636C6F63 
 14584      6B5F687A 
 14584      00
 14585              	.LASF18:
 14586 029f 75696E74 		.ascii	"uint32_t\000"
 14586      33325F74 
 14586      00
 14587              	.LASF15:
 14588 02a8 696E7438 		.ascii	"int8_t\000"
 14588      5F7400
 14589              	.LASF167:
 14590 02af 66675F63 		.ascii	"fg_color\000"
 14590      6F6C6F72 
 14590      00
 14591              	.LASF40:
 14592 02b8 6C617374 		.ascii	"last_form_id\000"
 14592      5F666F72 
 14592      6D5F6964 
ARM GAS  C:\Users\brian\AppData\Local\Temp\ccwE2E8f.s 			page 296


 14592      00
 14593              	.LASF197:
 14594 02c5 6D75695F 		.ascii	"mui_u8g2_draw_button_utf\000"
 14594      75386732 
 14594      5F647261 
 14594      775F6275 
 14594      74746F6E 
 14595              	.LASF235:
 14596 02de 75386732 		.ascii	"u8g2_DrawBox\000"
 14596      5F447261 
 14596      77426F78 
 14596      00
 14597              	.LASF30:
 14598 02eb 666F726D 		.ascii	"form_scroll_total\000"
 14598      5F736372 
 14598      6F6C6C5F 
 14598      746F7461 
 14598      6C00
 14599              	.LASF191:
 14600 02fd 6D75695F 		.ascii	"mui_get_U8g2\000"
 14600      6765745F 
 14600      55386732 
 14600      00
 14601              	.LASF231:
 14602 030a 6D75695F 		.ascii	"mui_u8g2_u16_list_parent_wm_mse_pi\000"
 14602      75386732 
 14602      5F753136 
 14602      5F6C6973 
 14602      745F7061 
 14603              	.LASF139:
 14604 032d 676C7970 		.ascii	"glyph_cnt\000"
 14604      685F636E 
 14604      7400
 14605              	.LASF233:
 14606 0337 6D75695F 		.ascii	"mui_u8g2_u16_list_goto_w1_mse_pi\000"
 14606      75386732 
 14606      5F753136 
 14606      5F6C6973 
 14606      745F676F 
 14607              	.LASF14:
 14608 0358 6C6F6E67 		.ascii	"long long unsigned int\000"
 14608      206C6F6E 
 14608      6720756E 
 14608      7369676E 
 14608      65642069 
 14609              	.LASF171:
 14610 036f 6D75695F 		.ascii	"mui_u8g2_get_list_element_cb\000"
 14610      75386732 
 14610      5F676574 
 14610      5F6C6973 
 14610      745F656C 
 14611              	.LASF32:
 14612 038c 666F726D 		.ascii	"form_scroll_visible\000"
 14612      5F736372 
 14612      6F6C6C5F 
 14612      76697369 
 14612      626C6500 
ARM GAS  C:\Users\brian\AppData\Local\Temp\ccwE2E8f.s 			page 297


 14613              	.LASF156:
 14614 03a0 73746172 		.ascii	"start_pos_lower_a\000"
 14614      745F706F 
 14614      735F6C6F 
 14614      7765725F 
 14614      6100
 14615              	.LASF149:
 14616 03b2 6D61785F 		.ascii	"max_char_height\000"
 14616      63686172 
 14616      5F686569 
 14616      67687400 
 14617              	.LASF9:
 14618 03c2 5F5F7569 		.ascii	"__uint16_t\000"
 14618      6E743136 
 14618      5F7400
 14619              	.LASF170:
 14620 03cd 75386732 		.ascii	"u8g2_font_calc_vref_fnptr\000"
 14620      5F666F6E 
 14620      745F6361 
 14620      6C635F76 
 14620      7265665F 
 14621              	.LASF155:
 14622 03e7 73746172 		.ascii	"start_pos_upper_A\000"
 14622      745F706F 
 14622      735F7570 
 14622      7065725F 
 14622      4100
 14623              	.LASF134:
 14624 03f9 75386732 		.ascii	"u8g2_update_dimension_cb\000"
 14624      5F757064 
 14624      6174655F 
 14624      64696D65 
 14624      6E73696F 
 14625              	.LASF240:
 14626 0412 75386732 		.ascii	"u8g2_DrawStr\000"
 14626      5F447261 
 14626      77537472 
 14626      00
 14627              	.LASF234:
 14628 041f 75386732 		.ascii	"u8g2_DrawFrame\000"
 14628      5F447261 
 14628      77467261 
 14628      6D6500
 14629              	.LASF54:
 14630 042e 6E657874 		.ascii	"next_cb\000"
 14630      5F636200 
 14631              	.LASF93:
 14632 0436 75387838 		.ascii	"u8x8_msg_cb\000"
 14632      5F6D7367 
 14632      5F636200 
 14633              	.LASF208:
 14634 0442 6D75695F 		.ascii	"mui_u8g2_btn_exit_wm_fi\000"
 14634      75386732 
 14634      5F62746E 
 14634      5F657869 
 14634      745F776D 
 14635              	.LASF230:
ARM GAS  C:\Users\brian\AppData\Local\Temp\ccwE2E8f.s 			page 298


 14636 045a 6D75695F 		.ascii	"mui_u8g2_u16_list_line_wa_mud_pi\000"
 14636      75386732 
 14636      5F753136 
 14636      5F6C6973 
 14636      745F6C69 
 14637              	.LASF201:
 14638 047b 6D75695F 		.ascii	"mui_u8g2_draw_button_fi\000"
 14638      75386732 
 14638      5F647261 
 14638      775F6275 
 14638      74746F6E 
 14639              	.LASF179:
 14640 0493 76616C75 		.ascii	"value\000"
 14640      6500
 14641              	.LASF119:
 14642 0499 666F6E74 		.ascii	"font_decode\000"
 14642      5F646563 
 14642      6F646500 
 14643              	.LASF236:
 14644 04a5 6D75695F 		.ascii	"mui_RestoreForm\000"
 14644      52657374 
 14644      6F726546 
 14644      6F726D00 
 14645              	.LASF58:
 14646 04b5 6770696F 		.ascii	"gpio_and_delay_cb\000"
 14646      5F616E64 
 14646      5F64656C 
 14646      61795F63 
 14646      6200
 14647              	.LASF251:
 14648 04c7 474E5520 		.ascii	"GNU C11 5.4.1 20160609 (release) [ARM/embedded-5-br"
 14648      43313120 
 14648      352E342E 
 14648      31203230 
 14648      31363036 
 14649 04fa 616E6368 		.ascii	"anch revision 237715] -mcpu=cortex-m3 -mthumb -g -O"
 14649      20726576 
 14649      6973696F 
 14649      6E203233 
 14649      37373135 
 14650 052d 67202D66 		.ascii	"g -ffunction-sections -ffat-lto-objects\000"
 14650      66756E63 
 14650      74696F6E 
 14650      2D736563 
 14650      74696F6E 
 14651              	.LASF99:
 14652 0555 6C6C5F68 		.ascii	"ll_hvline\000"
 14652      766C696E 
 14652      6500
 14653              	.LASF24:
 14654 055f 6D756966 		.ascii	"muif_tlist\000"
 14654      5F746C69 
 14654      737400
 14655              	.LASF164:
 14656 056a 676C7970 		.ascii	"glyph_height\000"
 14656      685F6865 
 14656      69676874 
ARM GAS  C:\Users\brian\AppData\Local\Temp\ccwE2E8f.s 			page 299


 14656      00
 14657              	.LASF228:
 14658 0577 6D75695F 		.ascii	"mui_u8g2_u16_list_line_wa_mse_pi\000"
 14658      75386732 
 14658      5F753136 
 14658      5F6C6973 
 14658      745F6C69 
 14659              	.LASF3:
 14660 0598 73697A65 		.ascii	"size_t\000"
 14660      5F7400
 14661              	.LASF207:
 14662 059f 6D75695F 		.ascii	"mui_u8g2_btn_goto_w2_fi\000"
 14662      75386732 
 14662      5F62746E 
 14662      5F676F74 
 14662      6F5F7732 
 14663              	.LASF108:
 14664 05b7 77696474 		.ascii	"width\000"
 14664      6800
 14665              	.LASF185:
 14666 05bd 75386732 		.ascii	"u8g2_DrawCheckbox\000"
 14666      5F447261 
 14666      77436865 
 14666      636B626F 
 14666      7800
 14667              	.LASF159:
 14668 05cf 5F753867 		.ascii	"_u8g2_font_decode_t\000"
 14668      325F666F 
 14668      6E745F64 
 14668      65636F64 
 14668      655F7400 
 14669              	.LASF151:
 14670 05e3 61736365 		.ascii	"ascent_A\000"
 14670      6E745F41 
 14670      00
 14671              	.LASF187:
 14672 05ec 6D75695F 		.ascii	"mui_u8g2_u16_list_child_mse_common\000"
 14672      75386732 
 14672      5F753136 
 14672      5F6C6973 
 14672      745F6368 
 14673              	.LASF76:
 14674 060f 706F7374 		.ascii	"post_chip_enable_wait_ns\000"
 14674      5F636869 
 14674      705F656E 
 14674      61626C65 
 14674      5F776169 
 14675              	.LASF88:
 14676 0628 74696C65 		.ascii	"tile_height\000"
 14676      5F686569 
 14676      67687400 
 14677              	.LASF244:
 14678 0634 6D75695F 		.ascii	"mui_fds_get_token_cnt\000"
 14678      6664735F 
 14678      6765745F 
 14678      746F6B65 
 14678      6E5F636E 
ARM GAS  C:\Users\brian\AppData\Local\Temp\ccwE2E8f.s 			page 300


 14679              	.LASF226:
 14680 064a 6D75695F 		.ascii	"mui_u8g2_goto_parent\000"
 14680      75386732 
 14680      5F676F74 
 14680      6F5F7061 
 14680      72656E74 
 14681              	.LASF68:
 14682 065f 6465626F 		.ascii	"debounce_default_pin_state\000"
 14682      756E6365 
 14682      5F646566 
 14682      61756C74 
 14682      5F70696E 
 14683              	.LASF227:
 14684 067a 6D75695F 		.ascii	"mui_u8g2_goto_child_w1_mse_pi\000"
 14684      75386732 
 14684      5F676F74 
 14684      6F5F6368 
 14684      696C645F 
 14685              	.LASF206:
 14686 0698 6D75695F 		.ascii	"mui_u8g2_btn_goto_wm_fi\000"
 14686      75386732 
 14686      5F62746E 
 14686      5F676F74 
 14686      6F5F776D 
 14687              	.LASF84:
 14688 06b0 6932635F 		.ascii	"i2c_bus_clock_100kHz\000"
 14688      6275735F 
 14688      636C6F63 
 14688      6B5F3130 
 14688      306B487A 
 14689              	.LASF152:
 14690 06c5 64657363 		.ascii	"descent_g\000"
 14690      656E745F 
 14690      6700
 14691              	.LASF253:
 14692 06cf 433A5C55 		.ascii	"C:\\Users\\brian\\Documents\\PSoC Creator\\Lab7\\La"
 14692      73657273 
 14692      5C627269 
 14692      616E5C44 
 14692      6F63756D 
 14693 06fc 62372E63 		.ascii	"b7.cydsn\000"
 14693      7964736E 
 14693      00
 14694              	.LASF41:
 14695 0705 6C617374 		.ascii	"last_form_cursor_focus_position\000"
 14695      5F666F72 
 14695      6D5F6375 
 14695      72736F72 
 14695      5F666F63 
 14696              	.LASF73:
 14697 0725 75387838 		.ascii	"u8x8_display_info_struct\000"
 14697      5F646973 
 14697      706C6179 
 14697      5F696E66 
 14697      6F5F7374 
 14698              	.LASF204:
 14699 073e 6D75695F 		.ascii	"mui_u8g2_u8_vmm_draw_wm_pf\000"
ARM GAS  C:\Users\brian\AppData\Local\Temp\ccwE2E8f.s 			page 301


 14699      75386732 
 14699      5F75385F 
 14699      766D6D5F 
 14699      64726177 
 14700              	.LASF209:
 14701 0759 6D75695F 		.ascii	"mui_u8g2_btn_goto_w1_pi\000"
 14701      75386732 
 14701      5F62746E 
 14701      5F676F74 
 14701      6F5F7731 
 14702              	.LASF199:
 14703 0771 6D75695F 		.ascii	"mui_u8g2_u8_vmm_draw_wm_pi\000"
 14703      75386732 
 14703      5F75385F 
 14703      766D6D5F 
 14703      64726177 
 14704              	.LASF20:
 14705 078c 63686172 		.ascii	"char\000"
 14705      00
 14706              	.LASF87:
 14707 0791 74696C65 		.ascii	"tile_width\000"
 14707      5F776964 
 14707      746800
 14708              	.LASF245:
 14709 079c 75386732 		.ascii	"u8g2_GetUTF8Width\000"
 14709      5F476574 
 14709      55544638 
 14709      57696474 
 14709      6800
 14710              	.LASF161:
 14711 07ae 74617267 		.ascii	"target_x\000"
 14711      65745F78 
 14711      00
 14712              	.LASF61:
 14713 07b7 656E636F 		.ascii	"encoding\000"
 14713      64696E67 
 14713      00
 14714              	.LASF23:
 14715 07c0 726F6F74 		.ascii	"root_fds\000"
 14715      5F666473 
 14715      00
 14716              	.LASF37:
 14717 07c9 74657874 		.ascii	"text\000"
 14717      00
 14718              	.LASF247:
 14719 07ce 75386732 		.ascii	"u8g2_DrawButtonFrame\000"
 14719      5F447261 
 14719      77427574 
 14719      746F6E46 
 14719      72616D65 
 14720              	.LASF89:
 14721 07e3 64656661 		.ascii	"default_x_offset\000"
 14721      756C745F 
 14721      785F6F66 
 14721      66736574 
 14721      00
 14722              	.LASF48:
ARM GAS  C:\Users\brian\AppData\Local\Temp\ccwE2E8f.s 			page 302


 14723 07f4 64617461 		.ascii	"data\000"
 14723      00
 14724              	.LASF153:
 14725 07f9 61736365 		.ascii	"ascent_para\000"
 14725      6E745F70 
 14725      61726100 
 14726              	.LASF16:
 14727 0805 75696E74 		.ascii	"uint8_t\000"
 14727      385F7400 
 14728              	.LASF21:
 14729 080d 6D75695F 		.ascii	"mui_t\000"
 14729      7400
 14730              	.LASF144:
 14731 0813 62697473 		.ascii	"bits_per_char_height\000"
 14731      5F706572 
 14731      5F636861 
 14731      725F6865 
 14731      69676874 
 14732              	.LASF137:
 14733 0828 75386732 		.ascii	"u8g2_draw_ll_hvline_cb\000"
 14733      5F647261 
 14733      775F6C6C 
 14733      5F68766C 
 14733      696E655F 
 14734              	.LASF96:
 14735 083f 75386732 		.ascii	"u8g2_t\000"
 14735      5F7400
 14736              	.LASF1:
 14737 0846 6C6F6E67 		.ascii	"long long int\000"
 14737      206C6F6E 
 14737      6720696E 
 14737      7400
 14738              	.LASF222:
 14739 0854 6D75695F 		.ascii	"mui_u8g2_u8_opt_radio_child_wm_mse_pi\000"
 14739      75386732 
 14739      5F75385F 
 14739      6F70745F 
 14739      72616469 
 14740              	.LASF25:
 14741 087a 6D756966 		.ascii	"muif_tcnt\000"
 14741      5F74636E 
 14741      7400
 14742              	.LASF57:
 14743 0884 62797465 		.ascii	"byte_cb\000"
 14743      5F636200 
 14744              	.LASF42:
 14745 088c 6C617374 		.ascii	"last_form_fds\000"
 14745      5F666F72 
 14745      6D5F6664 
 14745      7300
 14746              	.LASF192:
 14747 089a 6D75695F 		.ascii	"mui_get_x\000"
 14747      6765745F 
 14747      7800
 14748              	.LASF103:
 14749 08a4 70697865 		.ascii	"pixel_buf_width\000"
 14749      6C5F6275 
ARM GAS  C:\Users\brian\AppData\Local\Temp\ccwE2E8f.s 			page 303


 14749      665F7769 
 14749      64746800 
 14750              	.LASF63:
 14751 08b4 69735F66 		.ascii	"is_font_inverse_mode\000"
 14751      6F6E745F 
 14751      696E7665 
 14751      7273655F 
 14751      6D6F6465 
 14752              	.LASF216:
 14753 08c9 6D75695F 		.ascii	"mui_u8g2_u8_opt_line_wa_mse_pi\000"
 14753      75386732 
 14753      5F75385F 
 14753      6F70745F 
 14753      6C696E65 
 14754              	.LASF97:
 14755 08e8 75386732 		.ascii	"u8g2_struct\000"
 14755      5F737472 
 14755      75637400 
 14756              	.LASF22:
 14757 08f4 67726170 		.ascii	"graphics_data\000"
 14757      68696373 
 14757      5F646174 
 14757      6100
 14758              	.LASF65:
 14759 0902 6932635F 		.ascii	"i2c_started\000"
 14759      73746172 
 14759      74656400 
 14760              	.LASF174:
 14761 090e 73656C65 		.ascii	"selection\000"
 14761      6374696F 
 14761      6E00
 14762              	.LASF106:
 14763 0918 6275665F 		.ascii	"buf_y0\000"
 14763      793000
 14764              	.LASF107:
 14765 091f 6275665F 		.ascii	"buf_y1\000"
 14765      793100
 14766              	.LASF46:
 14767 0926 63666C61 		.ascii	"cflags\000"
 14767      677300
 14768              	.LASF241:
 14769 092d 6D75695F 		.ascii	"mui_GotoForm\000"
 14769      476F746F 
 14769      466F726D 
 14769      00
 14770              	.LASF158:
 14771 093a 75386732 		.ascii	"u8g2_font_info_t\000"
 14771      5F666F6E 
 14771      745F696E 
 14771      666F5F74 
 14771      00
 14772              	.LASF165:
 14773 094b 6465636F 		.ascii	"decode_bit_pos\000"
 14773      64655F62 
 14773      69745F70 
 14773      6F7300
 14774              	.LASF35:
ARM GAS  C:\Users\brian\AppData\Local\Temp\ccwE2E8f.s 			page 304


 14775 095a 64656C69 		.ascii	"delimiter\000"
 14775      6D697465 
 14775      7200
 14776              	.LASF111:
 14777 0964 75736572 		.ascii	"user_x1\000"
 14777      5F783100 
 14778              	.LASF157:
 14779 096c 73746172 		.ascii	"start_pos_unicode\000"
 14779      745F706F 
 14779      735F756E 
 14779      69636F64 
 14779      6500
 14780              	.LASF190:
 14781 097e 6D75695F 		.ascii	"mui_get_y\000"
 14781      6765745F 
 14781      7900
 14782              	.LASF47:
 14783 0988 65787472 		.ascii	"extra\000"
 14783      6100
 14784              	.LASF127:
 14785 098e 64726177 		.ascii	"draw_color\000"
 14785      5F636F6C 
 14785      6F7200
 14786              	.LASF166:
 14787 0999 69735F74 		.ascii	"is_transparent\000"
 14787      72616E73 
 14787      70617265 
 14787      6E7400
 14788              	.LASF79:
 14789 09a8 706F7374 		.ascii	"post_reset_wait_ms\000"
 14789      5F726573 
 14789      65745F77 
 14789      6169745F 
 14789      6D7300
 14790              	.LASF109:
 14791 09bb 68656967 		.ascii	"height\000"
 14791      687400
 14792              	.LASF132:
 14793 09c2 75706461 		.ascii	"update_page_win\000"
 14793      74655F70 
 14793      6167655F 
 14793      77696E00 
 14794              	.LASF56:
 14795 09d2 6361645F 		.ascii	"cad_cb\000"
 14795      636200
 14796              	.LASF86:
 14797 09d9 77726974 		.ascii	"write_pulse_width_ns\000"
 14797      655F7075 
 14797      6C73655F 
 14797      77696474 
 14797      685F6E73 
 14798              	.LASF145:
 14799 09ee 62697473 		.ascii	"bits_per_char_x\000"
 14799      5F706572 
 14799      5F636861 
 14799      725F7800 
 14800              	.LASF146:
ARM GAS  C:\Users\brian\AppData\Local\Temp\ccwE2E8f.s 			page 305


 14801 09fe 62697473 		.ascii	"bits_per_char_y\000"
 14801      5F706572 
 14801      5F636861 
 14801      725F7900 
 14802              	.LASF194:
 14803 0a0e 70616464 		.ascii	"padding_h\000"
 14803      696E675F 
 14803      6800
 14804              	.LASF78:
 14805 0a18 72657365 		.ascii	"reset_pulse_width_ms\000"
 14805      745F7075 
 14805      6C73655F 
 14805      77696474 
 14805      685F6D73 
 14806              	.LASF4:
 14807 0a2d 5F5F696E 		.ascii	"__int8_t\000"
 14807      74385F74 
 14807      00
 14808              	.LASF239:
 14809 0a36 75387838 		.ascii	"u8x8_u8toa\000"
 14809      5F753874 
 14809      6F6100
 14810              	.LASF112:
 14811 0a41 75736572 		.ascii	"user_y0\000"
 14811      5F793000 
 14812              	.LASF113:
 14813 0a49 75736572 		.ascii	"user_y1\000"
 14813      5F793100 
 14814              	.LASF2:
 14815 0a51 6C6F6E67 		.ascii	"long double\000"
 14815      20646F75 
 14815      626C6500 
 14816              	.LASF105:
 14817 0a5d 70697865 		.ascii	"pixel_curr_row\000"
 14817      6C5F6375 
 14817      72725F72 
 14817      6F7700
 14818              	.LASF17:
 14819 0a6c 75696E74 		.ascii	"uint16_t\000"
 14819      31365F74 
 14819      00
 14820              	.LASF29:
 14821 0a75 746F6B65 		.ascii	"token\000"
 14821      6E00
 14822              	.LASF225:
 14823 0a7b 6D75695F 		.ascii	"mui_u8g2_u8_opt_child_wm_mse_pi\000"
 14823      75386732 
 14823      5F75385F 
 14823      6F70745F 
 14823      6368696C 
 14824              	.LASF52:
 14825 0a9b 75387838 		.ascii	"u8x8_struct\000"
 14825      5F737472 
 14825      75637400 
 14826              	.LASF182:
 14827 0aa7 6D75695F 		.ascii	"mui_is_valid_char\000"
 14827      69735F76 
ARM GAS  C:\Users\brian\AppData\Local\Temp\ccwE2E8f.s 			page 306


 14827      616C6964 
 14827      5F636861 
 14827      7200
 14828              	.LASF237:
 14829 0ab9 75386732 		.ascii	"u8g2_DrawButtonUTF8\000"
 14829      5F447261 
 14829      77427574 
 14829      746F6E55 
 14829      54463800 
 14830              	.LASF100:
 14831 0acd 74696C65 		.ascii	"tile_buf_ptr\000"
 14831      5F627566 
 14831      5F707472 
 14831      00
 14832              	.LASF95:
 14833 0ada 75386732 		.ascii	"u8g2_uint_t\000"
 14833      5F75696E 
 14833      745F7400 
 14834              	.LASF101:
 14835 0ae6 74696C65 		.ascii	"tile_buf_height\000"
 14835      5F627566 
 14835      5F686569 
 14835      67687400 
 14836              	.LASF49:
 14837 0af6 6D756966 		.ascii	"muif_cb\000"
 14837      5F636200 
 14838              	.LASF122:
 14839 0afe 666F6E74 		.ascii	"font_height_mode\000"
 14839      5F686569 
 14839      6768745F 
 14839      6D6F6465 
 14839      00
 14840              	.LASF8:
 14841 0b0f 73686F72 		.ascii	"short int\000"
 14841      7420696E 
 14841      7400
 14842              	.LASF27:
 14843 0b19 63757273 		.ascii	"cursor_focus_fds\000"
 14843      6F725F66 
 14843      6F637573 
 14843      5F666473 
 14843      00
 14844              	.LASF51:
 14845 0b2a 75387838 		.ascii	"u8x8_t\000"
 14845      5F7400
 14846              	.LASF128:
 14847 0b31 69735F61 		.ascii	"is_auto_page_clear\000"
 14847      75746F5F 
 14847      70616765 
 14847      5F636C65 
 14847      617200
 14848              	.LASF11:
 14849 0b44 6C6F6E67 		.ascii	"long int\000"
 14849      20696E74 
 14849      00
 14850              	.LASF91:
 14851 0b4d 70697865 		.ascii	"pixel_width\000"
ARM GAS  C:\Users\brian\AppData\Local\Temp\ccwE2E8f.s 			page 307


 14851      6C5F7769 
 14851      64746800 
 14852              	.LASF219:
 14853 0b59 6D75695F 		.ascii	"mui_u8g2_u8_radio_wm_pi\000"
 14853      75386732 
 14853      5F75385F 
 14853      72616469 
 14853      6F5F776D 
 14854              	.LASF135:
 14855 0b71 75386732 		.ascii	"u8g2_update_page_win_cb\000"
 14855      5F757064 
 14855      6174655F 
 14855      70616765 
 14855      5F77696E 
 14856              	.LASF114:
 14857 0b89 636C6970 		.ascii	"clip_x0\000"
 14857      5F783000 
 14858              	.LASF115:
 14859 0b91 636C6970 		.ascii	"clip_x1\000"
 14859      5F783100 
 14860              	.LASF242:
 14861 0b99 6D75695F 		.ascii	"mui_LeaveForm\000"
 14861      4C656176 
 14861      65466F72 
 14861      6D00
 14862              	.LASF83:
 14863 0ba7 7370695F 		.ascii	"spi_mode\000"
 14863      6D6F6465 
 14863      00
 14864              	.LASF71:
 14865 0bb0 6465626F 		.ascii	"debounce_result_msg\000"
 14865      756E6365 
 14865      5F726573 
 14865      756C745F 
 14865      6D736700 
 14866              	.LASF169:
 14867 0bc4 75386732 		.ascii	"u8g2_font_decode_t\000"
 14867      5F666F6E 
 14867      745F6465 
 14867      636F6465 
 14867      5F7400
 14868              	.LASF123:
 14869 0bd7 666F6E74 		.ascii	"font_ref_ascent\000"
 14869      5F726566 
 14869      5F617363 
 14869      656E7400 
 14870              	.LASF70:
 14871 0be7 6465626F 		.ascii	"debounce_state\000"
 14871      756E6365 
 14871      5F737461 
 14871      746500
 14872              	.LASF250:
 14873 0bf6 6D75695F 		.ascii	"mui_GetSelectableFieldTextOption\000"
 14873      47657453 
 14873      656C6563 
 14873      7461626C 
 14873      65466965 
ARM GAS  C:\Users\brian\AppData\Local\Temp\ccwE2E8f.s 			page 308


 14874              	.LASF64:
 14875 0c17 6932635F 		.ascii	"i2c_address\000"
 14875      61646472 
 14875      65737300 
 14876              	.LASF224:
 14877 0c23 6D75695F 		.ascii	"mui_u8g2_u8_opt_radio_child_w1_mse_pi\000"
 14877      75386732 
 14877      5F75385F 
 14877      6F70745F 
 14877      72616469 
 14878              	.LASF195:
 14879 0c49 70616464 		.ascii	"padding_v\000"
 14879      696E675F 
 14879      7600
 14880              	.LASF124:
 14881 0c53 666F6E74 		.ascii	"font_ref_descent\000"
 14881      5F726566 
 14881      5F646573 
 14881      63656E74 
 14881      00
 14882              	.LASF72:
 14883 0c64 75387838 		.ascii	"u8x8_display_info_t\000"
 14883      5F646973 
 14883      706C6179 
 14883      5F696E66 
 14883      6F5F7400 
 14884              	.LASF59:
 14885 0c78 6275735F 		.ascii	"bus_clock\000"
 14885      636C6F63 
 14885      6B00
 14886              	.LASF210:
 14887 0c82 6D75695F 		.ascii	"mui_u8g2_btn_goto_w1_fi\000"
 14887      75386732 
 14887      5F62746E 
 14887      5F676F74 
 14887      6F5F7731 
 14888              	.LASF6:
 14889 0c9a 5F5F7569 		.ascii	"__uint8_t\000"
 14889      6E74385F 
 14889      7400
 14890              	.LASF142:
 14891 0ca4 62697473 		.ascii	"bits_per_1\000"
 14891      5F706572 
 14891      5F3100
 14892              	.LASF67:
 14893 0caf 6770696F 		.ascii	"gpio_result\000"
 14893      5F726573 
 14893      756C7400 
 14894              	.LASF221:
 14895 0cbb 6D75695F 		.ascii	"mui_u8g2_u8_opt_child_mse_common\000"
 14895      75386732 
 14895      5F75385F 
 14895      6F70745F 
 14895      6368696C 
 14896              	.LASF28:
 14897 0cdc 746F7563 		.ascii	"touch_focus_fds\000"
 14897      685F666F 
ARM GAS  C:\Users\brian\AppData\Local\Temp\ccwE2E8f.s 			page 309


 14897      6375735F 
 14897      66647300 
 14898              	.LASF116:
 14899 0cec 636C6970 		.ascii	"clip_y0\000"
 14899      5F793000 
 14900              	.LASF117:
 14901 0cf4 636C6970 		.ascii	"clip_y1\000"
 14901      5F793100 
 14902              	.LASF223:
 14903 0cfc 69735F66 		.ascii	"is_focus\000"
 14903      6F637573 
 14903      00
 14904              	.LASF196:
 14905 0d05 6D75695F 		.ascii	"mui_u8g2_get_pi_flags\000"
 14905      75386732 
 14905      5F676574 
 14905      5F70695F 
 14905      666C6167 
 14906              	.LASF60:
 14907 0d1b 666F6E74 		.ascii	"font\000"
 14907      00
 14908              	.LASF44:
 14909 0d20 6D75695F 		.ascii	"mui_struct\000"
 14909      73747275 
 14909      637400
 14910              	.LASF181:
 14911 0d2b 6D75695F 		.ascii	"mui_u8g2_handle_scroll_next_prev_events\000"
 14911      75386732 
 14911      5F68616E 
 14911      646C655F 
 14911      7363726F 
 14912              	.LASF19:
 14913 0d53 73697A65 		.ascii	"sizetype\000"
 14913      74797065 
 14913      00
 14914              	.LASF13:
 14915 0d5c 6C6F6E67 		.ascii	"long unsigned int\000"
 14915      20756E73 
 14915      69676E65 
 14915      6420696E 
 14915      7400
 14916              	.LASF34:
 14917 0d6e 69735F6D 		.ascii	"is_mud\000"
 14917      756400
 14918              	.LASF140:
 14919 0d75 6262785F 		.ascii	"bbx_mode\000"
 14919      6D6F6465 
 14919      00
 14920              	.LASF45:
 14921 0d7e 6D756966 		.ascii	"muif_struct\000"
 14921      5F737472 
 14921      75637400 
 14922              	.LASF248:
 14923 0d8a 6D75695F 		.ascii	"mui_SaveForm\000"
 14923      53617665 
 14923      466F726D 
 14923      00
ARM GAS  C:\Users\brian\AppData\Local\Temp\ccwE2E8f.s 			page 310


 14924              	.LASF168:
 14925 0d97 62675F63 		.ascii	"bg_color\000"
 14925      6F6C6F72 
 14925      00
 14926              	.LASF85:
 14927 0da0 64617461 		.ascii	"data_setup_time_ns\000"
 14927      5F736574 
 14927      75705F74 
 14927      696D655F 
 14927      6E7300
 14928              	.LASF243:
 14929 0db3 6D75695F 		.ascii	"mui_fds_get_nth_token\000"
 14929      6664735F 
 14929      6765745F 
 14929      6E74685F 
 14929      746F6B65 
 14930              	.LASF220:
 14931 0dc9 6D75695F 		.ascii	"mui_u8g2_u8_opt_parent_wm_mse_pi\000"
 14931      75386732 
 14931      5F75385F 
 14931      6F70745F 
 14931      70617265 
 14932              	.LASF74:
 14933 0dea 63686970 		.ascii	"chip_enable_level\000"
 14933      5F656E61 
 14933      626C655F 
 14933      6C657665 
 14933      6C00
 14934              	.LASF104:
 14935 0dfc 70697865 		.ascii	"pixel_buf_height\000"
 14935      6C5F6275 
 14935      665F6865 
 14935      69676874 
 14935      00
 14936              	.LASF7:
 14937 0e0d 756E7369 		.ascii	"unsigned char\000"
 14937      676E6564 
 14937      20636861 
 14937      7200
 14938              	.LASF12:
 14939 0e1b 5F5F7569 		.ascii	"__uint32_t\000"
 14939      6E743332 
 14939      5F7400
 14940              	.LASF176:
 14941 0e26 6765745F 		.ascii	"get_list_count\000"
 14941      6C697374 
 14941      5F636F75 
 14941      6E7400
 14942              	.LASF102:
 14943 0e35 74696C65 		.ascii	"tile_curr_row\000"
 14943      5F637572 
 14943      725F726F 
 14943      7700
 14944              	.LASF214:
 14945 0e43 6D75695F 		.ascii	"mui_u8g2_u8_min_max_wm_mud_pf\000"
 14945      75386732 
 14945      5F75385F 
ARM GAS  C:\Users\brian\AppData\Local\Temp\ccwE2E8f.s 			page 311


 14945      6D696E5F 
 14945      6D61785F 
 14946              	.LASF212:
 14947 0e61 6D75695F 		.ascii	"mui_u8g2_u8_min_max_wm_mud_pi\000"
 14947      75386732 
 14947      5F75385F 
 14947      6D696E5F 
 14947      6D61785F 
 14948              	.LASF121:
 14949 0e7f 69735F70 		.ascii	"is_page_clip_window_intersection\000"
 14949      6167655F 
 14949      636C6970 
 14949      5F77696E 
 14949      646F775F 
 14950              	.LASF172:
 14951 0ea0 6D75695F 		.ascii	"mui_u8g2_get_list_count_cb\000"
 14951      75386732 
 14951      5F676574 
 14951      5F6C6973 
 14951      745F636F 
 14952              	.LASF217:
 14953 0ebb 6D75695F 		.ascii	"mui_u8g2_u8_opt_line_wa_mud_pi\000"
 14953      75386732 
 14953      5F75385F 
 14953      6F70745F 
 14953      6C696E65 
 14954              	.LASF81:
 14955 0eda 73636B5F 		.ascii	"sck_pulse_width_ns\000"
 14955      70756C73 
 14955      655F7769 
 14955      6474685F 
 14955      6E7300
 14956              	.LASF143:
 14957 0eed 62697473 		.ascii	"bits_per_char_width\000"
 14957      5F706572 
 14957      5F636861 
 14957      725F7769 
 14957      64746800 
 14958              	.LASF130:
 14959 0f01 75386732 		.ascii	"u8g2_cb_struct\000"
 14959      5F63625F 
 14959      73747275 
 14959      637400
 14960              	.LASF163:
 14961 0f10 676C7970 		.ascii	"glyph_width\000"
 14961      685F7769 
 14961      64746800 
 14962              	.LASF5:
 14963 0f1c 7369676E 		.ascii	"signed char\000"
 14963      65642063 
 14963      68617200 
 14964              	.LASF10:
 14965 0f28 73686F72 		.ascii	"short unsigned int\000"
 14965      7420756E 
 14965      7369676E 
 14965      65642069 
 14965      6E7400
ARM GAS  C:\Users\brian\AppData\Local\Temp\ccwE2E8f.s 			page 312


 14966              	.LASF94:
 14967 0f3b 75387838 		.ascii	"u8x8_char_cb\000"
 14967      5F636861 
 14967      725F6362 
 14967      00
 14968              	.LASF184:
 14969 0f48 69735F63 		.ascii	"is_checked\000"
 14969      6865636B 
 14969      656400
 14970              	.LASF129:
 14971 0f53 75386732 		.ascii	"u8g2_cb_t\000"
 14971      5F63625F 
 14971      7400
 14972              	.LASF232:
 14973 0f5d 6D75695F 		.ascii	"mui_u8g2_u16_list_child_w1_mse_pi\000"
 14973      75386732 
 14973      5F753136 
 14973      5F6C6973 
 14973      745F6368 
 14974              	.LASF75:
 14975 0f7f 63686970 		.ascii	"chip_disable_level\000"
 14975      5F646973 
 14975      61626C65 
 14975      5F6C6576 
 14975      656C00
 14976              	.LASF249:
 14977 0f92 6D75695F 		.ascii	"mui_GetSelectableFieldOptionCnt\000"
 14977      47657453 
 14977      656C6563 
 14977      7461626C 
 14977      65466965 
 14978              	.LASF203:
 14979 0fb2 6D75695F 		.ascii	"mui_u8g2_draw_button_pf\000"
 14979      75386732 
 14979      5F647261 
 14979      775F6275 
 14979      74746F6E 
 14980              	.LASF198:
 14981 0fca 6D75695F 		.ascii	"mui_u8g2_draw_button_pi\000"
 14981      75386732 
 14981      5F647261 
 14981      775F6275 
 14981      74746F6E 
 14982              	.LASF215:
 14983 0fe2 6D75695F 		.ascii	"mui_u8g2_u8_char_wm_mud_pi\000"
 14983      75386732 
 14983      5F75385F 
 14983      63686172 
 14983      5F776D5F 
 14984              	.LASF80:
 14985 0ffd 7364615F 		.ascii	"sda_setup_time_ns\000"
 14985      73657475 
 14985      705F7469 
 14985      6D655F6E 
 14985      7300
 14986              	.LASF126:
 14987 100f 6269746D 		.ascii	"bitmap_transparency\000"
ARM GAS  C:\Users\brian\AppData\Local\Temp\ccwE2E8f.s 			page 313


 14987      61705F74 
 14987      72616E73 
 14987      70617265 
 14987      6E637900 
 14988              	.LASF193:
 14989 1023 666C6167 		.ascii	"flags\000"
 14989      7300
 14990              	.LASF177:
 14991 1029 6D75695F 		.ascii	"mui_u8g2_list_t\000"
 14991      75386732 
 14991      5F6C6973 
 14991      745F7400 
 14992              	.LASF186:
 14993 1039 75386732 		.ascii	"u8g2_DrawValueMark\000"
 14993      5F447261 
 14993      7756616C 
 14993      75654D61 
 14993      726B00
 14994              	.LASF90:
 14995 104c 666C6970 		.ascii	"flipmode_x_offset\000"
 14995      6D6F6465 
 14995      5F785F6F 
 14995      66667365 
 14995      7400
 14996              	.LASF55:
 14997 105e 64697370 		.ascii	"display_cb\000"
 14997      6C61795F 
 14997      636200
 14998              	.LASF53:
 14999 1069 64697370 		.ascii	"display_info\000"
 14999      6C61795F 
 14999      696E666F 
 14999      00
 15000              	.LASF229:
 15001 1076 656C656D 		.ascii	"element_cb\000"
 15001      656E745F 
 15001      636200
 15002              	.LASF183:
 15003 1081 75386732 		.ascii	"u8g2\000"
 15003      00
 15004              	.LASF189:
 15005 1086 636F756E 		.ascii	"count_cb\000"
 15005      745F6362 
 15005      00
 15006              	.LASF110:
 15007 108f 75736572 		.ascii	"user_x0\000"
 15007      5F783000 
 15008              		.ident	"GCC: (GNU Tools for ARM Embedded Processors) 5.4.1 20160609 (release) [ARM/embedded-5-bran
