ARM GAS  C:\Users\brian\AppData\Local\Temp\ccwE2E8f.s 			page 1


   1              		.syntax unified
   2              		.cpu cortex-m3
   3              		.fpu softvfp
   4              		.eabi_attribute 20, 1
   5              		.eabi_attribute 21, 1
   6              		.eabi_attribute 23, 3
   7              		.eabi_attribute 24, 1
   8              		.eabi_attribute 25, 1
   9              		.eabi_attribute 26, 1
  10              		.eabi_attribute 30, 1
  11              		.eabi_attribute 34, 1
  12              		.eabi_attribute 18, 4
  13              		.thumb
  14              		.syntax unified
  15              		.file	"mui_u8g2.c"
  16              		.text
  17              	.Ltext0:
  18              		.cfi_sections	.debug_frame
  19              		.section	.text.mui_u8g2_handle_scroll_next_prev_events,"ax",%progbits
  20              		.align	2
  21              		.thumb
  22              		.thumb_func
  23              		.type	mui_u8g2_handle_scroll_next_prev_events, %function
  24              	mui_u8g2_handle_scroll_next_prev_events:
  25              	.LFB12:
  26              		.file 1 "..\\u8g2\\csrc\\mui_u8g2.c"
   1:..\u8g2\csrc/mui_u8g2.c **** /*
   2:..\u8g2\csrc/mui_u8g2.c **** 
   3:..\u8g2\csrc/mui_u8g2.c ****   mui_u8g2.c
   4:..\u8g2\csrc/mui_u8g2.c **** 
   5:..\u8g2\csrc/mui_u8g2.c ****   Monochrome minimal user interface: Glue code between mui and u8g2.
   6:..\u8g2\csrc/mui_u8g2.c **** 
   7:..\u8g2\csrc/mui_u8g2.c ****   Universal 8bit Graphics Library (https://github.com/olikraus/u8g2/)
   8:..\u8g2\csrc/mui_u8g2.c **** 
   9:..\u8g2\csrc/mui_u8g2.c ****   Copyright (c) 2021, olikraus@gmail.com
  10:..\u8g2\csrc/mui_u8g2.c ****   All rights reserved.
  11:..\u8g2\csrc/mui_u8g2.c **** 
  12:..\u8g2\csrc/mui_u8g2.c ****   Redistribution and use in source and binary forms, with or without modification, 
  13:..\u8g2\csrc/mui_u8g2.c ****   are permitted provided that the following conditions are met:
  14:..\u8g2\csrc/mui_u8g2.c **** 
  15:..\u8g2\csrc/mui_u8g2.c ****   * Redistributions of source code must retain the above copyright notice, this list 
  16:..\u8g2\csrc/mui_u8g2.c ****     of conditions and the following disclaimer.
  17:..\u8g2\csrc/mui_u8g2.c ****     
  18:..\u8g2\csrc/mui_u8g2.c ****   * Redistributions in binary form must reproduce the above copyright notice, this 
  19:..\u8g2\csrc/mui_u8g2.c ****     list of conditions and the following disclaimer in the documentation and/or other 
  20:..\u8g2\csrc/mui_u8g2.c ****     materials provided with the distribution.
  21:..\u8g2\csrc/mui_u8g2.c **** 
  22:..\u8g2\csrc/mui_u8g2.c ****   THIS SOFTWARE IS PROVIDED BY THE COPYRIGHT HOLDERS AND 
  23:..\u8g2\csrc/mui_u8g2.c ****   CONTRIBUTORS "AS IS" AND ANY EXPRESS OR IMPLIED WARRANTIES, 
  24:..\u8g2\csrc/mui_u8g2.c ****   INCLUDING, BUT NOT LIMITED TO, THE IMPLIED WARRANTIES OF 
  25:..\u8g2\csrc/mui_u8g2.c ****   MERCHANTABILITY AND FITNESS FOR A PARTICULAR PURPOSE ARE 
  26:..\u8g2\csrc/mui_u8g2.c ****   DISCLAIMED. IN NO EVENT SHALL THE COPYRIGHT HOLDER OR 
  27:..\u8g2\csrc/mui_u8g2.c ****   CONTRIBUTORS BE LIABLE FOR ANY DIRECT, INDIRECT, INCIDENTAL, 
  28:..\u8g2\csrc/mui_u8g2.c ****   SPECIAL, EXEMPLARY, OR CONSEQUENTIAL DAMAGES (INCLUDING, BUT 
  29:..\u8g2\csrc/mui_u8g2.c ****   NOT LIMITED TO, PROCUREMENT OF SUBSTITUTE GOODS OR SERVICES; 
  30:..\u8g2\csrc/mui_u8g2.c ****   LOSS OF USE, DATA, OR PROFITS; OR BUSINESS INTERRUPTION) HOWEVER 
  31:..\u8g2\csrc/mui_u8g2.c ****   CAUSED AND ON ANY THEORY OF LIABILITY, WHETHER IN CONTRACT, 
ARM GAS  C:\Users\brian\AppData\Local\Temp\ccwE2E8f.s 			page 2


  32:..\u8g2\csrc/mui_u8g2.c ****   STRICT LIABILITY, OR TORT (INCLUDING NEGLIGENCE OR OTHERWISE) 
  33:..\u8g2\csrc/mui_u8g2.c ****   ARISING IN ANY WAY OUT OF THE USE OF THIS SOFTWARE, EVEN IF 
  34:..\u8g2\csrc/mui_u8g2.c ****   ADVISED OF THE POSSIBILITY OF SUCH DAMAGE.  
  35:..\u8g2\csrc/mui_u8g2.c **** 
  36:..\u8g2\csrc/mui_u8g2.c **** */
  37:..\u8g2\csrc/mui_u8g2.c **** 
  38:..\u8g2\csrc/mui_u8g2.c **** /*
  39:..\u8g2\csrc/mui_u8g2.c **** 
  40:..\u8g2\csrc/mui_u8g2.c ****   field function naming convention
  41:..\u8g2\csrc/mui_u8g2.c **** 
  42:..\u8g2\csrc/mui_u8g2.c ****     action
  43:..\u8g2\csrc/mui_u8g2.c ****       draw_text:                        (rename from draw label)
  44:..\u8g2\csrc/mui_u8g2.c ****       draw_str:                      
  45:..\u8g2\csrc/mui_u8g2.c ****       btn_jmp   button jump to:                      a button which jumps to a specific form
  46:..\u8g2\csrc/mui_u8g2.c ****       btn_exit          button leave:                     a button which leaves the form and places
  47:..\u8g2\csrc/mui_u8g2.c ****       u8_value_0_9      
  48:..\u8g2\csrc/mui_u8g2.c ****       u8_chkbox
  49:..\u8g2\csrc/mui_u8g2.c ****       u8_radio
  50:..\u8g2\csrc/mui_u8g2.c ****       u8_opt_line       edit value options in the same line
  51:..\u8g2\csrc/mui_u8g2.c ****       u8_opt_parent       edit value options parent
  52:..\u8g2\csrc/mui_u8g2.c ****       u8_opt_child       edit value options child
  53:..\u8g2\csrc/mui_u8g2.c ****     
  54:..\u8g2\csrc/mui_u8g2.c ****     
  55:..\u8g2\csrc/mui_u8g2.c ****     field width (not for draw text/str)
  56:..\u8g2\csrc/mui_u8g2.c ****       wm                minimum width
  57:..\u8g2\csrc/mui_u8g2.c ****       wa                width can be provided via FDS argument
  58:..\u8g2\csrc/mui_u8g2.c ****       w1                full display width
  59:..\u8g2\csrc/mui_u8g2.c ****       w2                half display size (minus some pixel)
  60:..\u8g2\csrc/mui_u8g2.c ****       w3                one/third of the dispay width (minus some pixel)
  61:..\u8g2\csrc/mui_u8g2.c **** 
  62:..\u8g2\csrc/mui_u8g2.c ****     edit mode  (not for draw text/str, buttons and checkbox)                  
  63:..\u8g2\csrc/mui_u8g2.c ****       mse       select: select event will increment the value or activate the field (buttons)
  64:..\u8g2\csrc/mui_u8g2.c ****       mud      up/down:  select will enter the up/down edit mode. Next/prev event will increment/de
  65:..\u8g2\csrc/mui_u8g2.c ****       
  66:..\u8g2\csrc/mui_u8g2.c ****     styles (not for draw text/str)
  67:..\u8g2\csrc/mui_u8g2.c ****       unselected                selected                        up/down edit
  68:..\u8g2\csrc/mui_u8g2.c ****       plain                          invers                             invers + gap + frame       
  69:..\u8g2\csrc/mui_u8g2.c ****       frame                         invers+frame                frame                              
  70:..\u8g2\csrc/mui_u8g2.c ****       
  71:..\u8g2\csrc/mui_u8g2.c ****       plain                          frame                              invers + frame             
  72:..\u8g2\csrc/mui_u8g2.c ****       invers                        frame                               invers + frame             
  73:..\u8g2\csrc/mui_u8g2.c ****       
  74:..\u8g2\csrc/mui_u8g2.c ****       
  75:..\u8g2\csrc/mui_u8g2.c ****     mui_u8g2_[action]_[field_width]_[edit_mode]_[style]
  76:..\u8g2\csrc/mui_u8g2.c **** 
  77:..\u8g2\csrc/mui_u8g2.c ****   mui _label_u8g2 --> mui_u8g2_draw_text
  78:..\u8g2\csrc/mui_u8g2.c ****   mui _goto_frame_button_invers_select_u8g2                              --> mui_u8g2_btn_goto_wm_f
  79:..\u8g2\csrc/mui_u8g2.c ****   mui _goto_half_width_frame_button_invers_select_u8g2           --> mui_u8g2_btn_goto_w2_fi
  80:..\u8g2\csrc/mui_u8g2.c ****   mui _goto_line_button_invers_select_u8g2 -->  mui_u8g2_btn_goto_w1_fi
  81:..\u8g2\csrc/mui_u8g2.c ****   mui _leave_menu_frame_button_invers_select_u8g2 --> mui_u8g2_btn_exit_wm_fi
  82:..\u8g2\csrc/mui_u8g2.c ****   
  83:..\u8g2\csrc/mui_u8g2.c ****   mui _input_uint8_invers_select_u8g2 --> mui_u8g2_u8_value_0_9_wm_mse_pi
  84:..\u8g2\csrc/mui_u8g2.c ****   mui _single_line_option_invers_select_u8g2     --> mui_u8g2_u8_opt_line_wa_mse_pi
  85:..\u8g2\csrc/mui_u8g2.c ****   mui _select_options_parent_invers_select_u8g2  --> mui_u8g2_u8_opt_parent_wa_mse_pi
  86:..\u8g2\csrc/mui_u8g2.c ****   mui _select_options_child_invers_select_u8g2  --> mui_u8g2_u8_opt_child_wm_mse_pi
  87:..\u8g2\csrc/mui_u8g2.c **** 
  88:..\u8g2\csrc/mui_u8g2.c ****   mui _checkbox_invers_select_u8g2 --> mui_u8g2_u8_chkbox_wm_pi
ARM GAS  C:\Users\brian\AppData\Local\Temp\ccwE2E8f.s 			page 3


  89:..\u8g2\csrc/mui_u8g2.c ****   mui _radio_invers_select_u8g2 --> mui_u8g2_u8_radio_wm_pi
  90:..\u8g2\csrc/mui_u8g2.c **** 
  91:..\u8g2\csrc/mui_u8g2.c ****   mui _input_char_invers_select_u8g2 --> mui_u8g2_u8_char_wm_mud_pi
  92:..\u8g2\csrc/mui_u8g2.c **** 
  93:..\u8g2\csrc/mui_u8g2.c **** */
  94:..\u8g2\csrc/mui_u8g2.c **** 
  95:..\u8g2\csrc/mui_u8g2.c **** 
  96:..\u8g2\csrc/mui_u8g2.c **** 
  97:..\u8g2\csrc/mui_u8g2.c **** #include "mui.h"
  98:..\u8g2\csrc/mui_u8g2.c **** #include "u8g2.h"
  99:..\u8g2\csrc/mui_u8g2.c **** #include "mui_u8g2.h"
 100:..\u8g2\csrc/mui_u8g2.c **** 
 101:..\u8g2\csrc/mui_u8g2.c **** /*
 102:..\u8g2\csrc/mui_u8g2.c **** 
 103:..\u8g2\csrc/mui_u8g2.c **** uint8_t mui_template(mui_t *ui, uint8_t msg)
 104:..\u8g2\csrc/mui_u8g2.c **** {
 105:..\u8g2\csrc/mui_u8g2.c ****   //u8g2_t *u8g2 = mui_get_U8g2(ui);
 106:..\u8g2\csrc/mui_u8g2.c ****   //ui->dflags                          MUIF_DFLAG_IS_CURSOR_FOCUS       MUIF_DFLAG_IS_TOUCH_FOCUS
 107:..\u8g2\csrc/mui_u8g2.c ****   //muif_get_cflags(ui->uif)       MUIF_CFLAG_IS_CURSOR_SELECTABLE
 108:..\u8g2\csrc/mui_u8g2.c ****   //muif_get_data(ui->uif)
 109:..\u8g2\csrc/mui_u8g2.c ****   switch(msg)
 110:..\u8g2\csrc/mui_u8g2.c ****   {
 111:..\u8g2\csrc/mui_u8g2.c ****     case MUIF_MSG_DRAW:
 112:..\u8g2\csrc/mui_u8g2.c ****       break;
 113:..\u8g2\csrc/mui_u8g2.c ****     case MUIF_MSG_FORM_START:
 114:..\u8g2\csrc/mui_u8g2.c ****       break;
 115:..\u8g2\csrc/mui_u8g2.c ****     case MUIF_MSG_FORM_END:
 116:..\u8g2\csrc/mui_u8g2.c ****       break;
 117:..\u8g2\csrc/mui_u8g2.c ****     case MUIF_MSG_CURSOR_ENTER:
 118:..\u8g2\csrc/mui_u8g2.c ****       break;
 119:..\u8g2\csrc/mui_u8g2.c ****     case MUIF_MSG_CURSOR_SELECT:
 120:..\u8g2\csrc/mui_u8g2.c ****       break;
 121:..\u8g2\csrc/mui_u8g2.c ****     case MUIF_MSG_CURSOR_LEAVE:
 122:..\u8g2\csrc/mui_u8g2.c ****       break;
 123:..\u8g2\csrc/mui_u8g2.c ****     case MUIF_MSG_TOUCH_DOWN:
 124:..\u8g2\csrc/mui_u8g2.c ****       break;
 125:..\u8g2\csrc/mui_u8g2.c ****     case MUIF_MSG_TOUCH_UP:
 126:..\u8g2\csrc/mui_u8g2.c ****       break;
 127:..\u8g2\csrc/mui_u8g2.c ****   }
 128:..\u8g2\csrc/mui_u8g2.c ****   return 0;
 129:..\u8g2\csrc/mui_u8g2.c **** }
 130:..\u8g2\csrc/mui_u8g2.c **** */
 131:..\u8g2\csrc/mui_u8g2.c **** 
 132:..\u8g2\csrc/mui_u8g2.c **** /*=========================================================================*/
 133:..\u8g2\csrc/mui_u8g2.c **** #define MUI_U8G2_V_PADDING 1
 134:..\u8g2\csrc/mui_u8g2.c **** 
 135:..\u8g2\csrc/mui_u8g2.c **** /*=========================================================================*/
 136:..\u8g2\csrc/mui_u8g2.c **** /* extra u8g2 drawing functions */
 137:..\u8g2\csrc/mui_u8g2.c **** 
 138:..\u8g2\csrc/mui_u8g2.c **** static void u8g2_DrawCheckbox(u8g2_t *u8g2, u8g2_uint_t x, u8g2_uint_t y, u8g2_uint_t w, u8g2_uint_
 139:..\u8g2\csrc/mui_u8g2.c **** static void u8g2_DrawCheckbox(u8g2_t *u8g2, u8g2_uint_t x, u8g2_uint_t y, u8g2_uint_t w, u8g2_uint_
 140:..\u8g2\csrc/mui_u8g2.c **** {
 141:..\u8g2\csrc/mui_u8g2.c ****   u8g2_DrawFrame(u8g2, x, y-w, w, w);
 142:..\u8g2\csrc/mui_u8g2.c ****   if ( is_checked )
 143:..\u8g2\csrc/mui_u8g2.c ****   {
 144:..\u8g2\csrc/mui_u8g2.c ****     w-=4;
 145:..\u8g2\csrc/mui_u8g2.c ****     u8g2_DrawBox(u8g2, x+2, y-w-2, w, w);
ARM GAS  C:\Users\brian\AppData\Local\Temp\ccwE2E8f.s 			page 4


 146:..\u8g2\csrc/mui_u8g2.c ****   }
 147:..\u8g2\csrc/mui_u8g2.c **** }
 148:..\u8g2\csrc/mui_u8g2.c **** 
 149:..\u8g2\csrc/mui_u8g2.c **** static void u8g2_DrawValueMark(u8g2_t *u8g2, u8g2_uint_t x, u8g2_uint_t y, u8g2_uint_t w)
 150:..\u8g2\csrc/mui_u8g2.c **** {
 151:..\u8g2\csrc/mui_u8g2.c ****   u8g2_DrawBox(u8g2, x, y-w, w, w);
 152:..\u8g2\csrc/mui_u8g2.c **** }
 153:..\u8g2\csrc/mui_u8g2.c **** 
 154:..\u8g2\csrc/mui_u8g2.c **** 
 155:..\u8g2\csrc/mui_u8g2.c **** /*=========================================================================*/
 156:..\u8g2\csrc/mui_u8g2.c **** /* helper function */
 157:..\u8g2\csrc/mui_u8g2.c **** 
 158:..\u8g2\csrc/mui_u8g2.c **** u8g2_uint_t mui_get_x(mui_t *ui) MUI_NOINLINE;
 159:..\u8g2\csrc/mui_u8g2.c **** u8g2_uint_t mui_get_x(mui_t *ui)
 160:..\u8g2\csrc/mui_u8g2.c **** {
 161:..\u8g2\csrc/mui_u8g2.c ****   if ( u8g2_GetDisplayWidth(mui_get_U8g2(ui)) >= 255 )
 162:..\u8g2\csrc/mui_u8g2.c ****       return ui->x / 2;
 163:..\u8g2\csrc/mui_u8g2.c ****   return ui->x;
 164:..\u8g2\csrc/mui_u8g2.c **** }
 165:..\u8g2\csrc/mui_u8g2.c **** 
 166:..\u8g2\csrc/mui_u8g2.c **** u8g2_uint_t mui_get_y(mui_t *ui)
 167:..\u8g2\csrc/mui_u8g2.c **** {
 168:..\u8g2\csrc/mui_u8g2.c ****   return ui->y;
 169:..\u8g2\csrc/mui_u8g2.c **** }
 170:..\u8g2\csrc/mui_u8g2.c **** 
 171:..\u8g2\csrc/mui_u8g2.c **** u8g2_t *mui_get_U8g2(mui_t *ui)
 172:..\u8g2\csrc/mui_u8g2.c **** {
 173:..\u8g2\csrc/mui_u8g2.c ****   return (u8g2_t *)(ui->graphics_data);
 174:..\u8g2\csrc/mui_u8g2.c **** }
 175:..\u8g2\csrc/mui_u8g2.c **** 
 176:..\u8g2\csrc/mui_u8g2.c **** //void u8g2_DrawButtonUTF8(u8g2_t *u8g2, u8g2_uint_t x, u8g2_uint_t y, u8g2_uint_t flags, u8g2_uint
 177:..\u8g2\csrc/mui_u8g2.c **** void mui_u8g2_draw_button_utf(mui_t *ui, u8g2_uint_t flags, u8g2_uint_t width, u8g2_uint_t padding_
 178:..\u8g2\csrc/mui_u8g2.c **** {
 179:..\u8g2\csrc/mui_u8g2.c ****   if ( text==NULL)
 180:..\u8g2\csrc/mui_u8g2.c ****     text = "";
 181:..\u8g2\csrc/mui_u8g2.c ****   u8g2_DrawButtonUTF8(mui_get_U8g2(ui), mui_get_x(ui), mui_get_y(ui), flags, width, padding_h, padd
 182:..\u8g2\csrc/mui_u8g2.c **** }
 183:..\u8g2\csrc/mui_u8g2.c **** 
 184:..\u8g2\csrc/mui_u8g2.c **** u8g2_uint_t mui_u8g2_get_pi_flags(mui_t *ui)
 185:..\u8g2\csrc/mui_u8g2.c **** {
 186:..\u8g2\csrc/mui_u8g2.c ****   u8g2_uint_t flags = 0;
 187:..\u8g2\csrc/mui_u8g2.c ****   if ( mui_IsCursorFocus(ui) )
 188:..\u8g2\csrc/mui_u8g2.c ****   {
 189:..\u8g2\csrc/mui_u8g2.c ****     flags |= U8G2_BTN_INV;
 190:..\u8g2\csrc/mui_u8g2.c ****     if ( ui->is_mud )
 191:..\u8g2\csrc/mui_u8g2.c ****     {
 192:..\u8g2\csrc/mui_u8g2.c ****       flags |= U8G2_BTN_XFRAME;
 193:..\u8g2\csrc/mui_u8g2.c ****     }      
 194:..\u8g2\csrc/mui_u8g2.c ****   }
 195:..\u8g2\csrc/mui_u8g2.c ****   return flags;
 196:..\u8g2\csrc/mui_u8g2.c **** }
 197:..\u8g2\csrc/mui_u8g2.c **** 
 198:..\u8g2\csrc/mui_u8g2.c **** 
 199:..\u8g2\csrc/mui_u8g2.c **** void mui_u8g2_draw_button_pi(mui_t *ui, u8g2_uint_t width, u8g2_uint_t padding_h, const char *text)
 200:..\u8g2\csrc/mui_u8g2.c **** {
 201:..\u8g2\csrc/mui_u8g2.c ****   mui_u8g2_draw_button_utf(ui, mui_u8g2_get_pi_flags(ui), width, padding_h , MUI_U8G2_V_PADDING, te
 202:..\u8g2\csrc/mui_u8g2.c **** }
ARM GAS  C:\Users\brian\AppData\Local\Temp\ccwE2E8f.s 			page 5


 203:..\u8g2\csrc/mui_u8g2.c **** 
 204:..\u8g2\csrc/mui_u8g2.c **** 
 205:..\u8g2\csrc/mui_u8g2.c **** u8g2_uint_t mui_u8g2_get_fi_flags(mui_t *ui)
 206:..\u8g2\csrc/mui_u8g2.c **** {
 207:..\u8g2\csrc/mui_u8g2.c ****   u8g2_uint_t flags = 1;
 208:..\u8g2\csrc/mui_u8g2.c ****   if ( mui_IsCursorFocus(ui) )
 209:..\u8g2\csrc/mui_u8g2.c ****   {
 210:..\u8g2\csrc/mui_u8g2.c ****     flags |= U8G2_BTN_INV;
 211:..\u8g2\csrc/mui_u8g2.c ****     if ( ui->is_mud )
 212:..\u8g2\csrc/mui_u8g2.c ****     {
 213:..\u8g2\csrc/mui_u8g2.c ****       flags = 1;        // undo INV
 214:..\u8g2\csrc/mui_u8g2.c ****     }      
 215:..\u8g2\csrc/mui_u8g2.c ****   }
 216:..\u8g2\csrc/mui_u8g2.c ****   return flags;
 217:..\u8g2\csrc/mui_u8g2.c **** }
 218:..\u8g2\csrc/mui_u8g2.c **** 
 219:..\u8g2\csrc/mui_u8g2.c **** void mui_u8g2_draw_button_fi(mui_t *ui, u8g2_uint_t width, u8g2_uint_t padding_h, const char *text)
 220:..\u8g2\csrc/mui_u8g2.c **** {
 221:..\u8g2\csrc/mui_u8g2.c ****   mui_u8g2_draw_button_utf(ui, mui_u8g2_get_fi_flags(ui), width, padding_h , MUI_U8G2_V_PADDING, te
 222:..\u8g2\csrc/mui_u8g2.c **** }
 223:..\u8g2\csrc/mui_u8g2.c **** 
 224:..\u8g2\csrc/mui_u8g2.c **** 
 225:..\u8g2\csrc/mui_u8g2.c **** u8g2_uint_t mui_u8g2_get_pf_flags(mui_t *ui)
 226:..\u8g2\csrc/mui_u8g2.c **** {
 227:..\u8g2\csrc/mui_u8g2.c ****   u8g2_uint_t flags = 0;
 228:..\u8g2\csrc/mui_u8g2.c ****   if ( mui_IsCursorFocus(ui) )
 229:..\u8g2\csrc/mui_u8g2.c ****   {
 230:..\u8g2\csrc/mui_u8g2.c ****     flags |= 1;
 231:..\u8g2\csrc/mui_u8g2.c ****     if ( ui->is_mud )
 232:..\u8g2\csrc/mui_u8g2.c ****     {
 233:..\u8g2\csrc/mui_u8g2.c ****       flags |= U8G2_BTN_INV;
 234:..\u8g2\csrc/mui_u8g2.c ****     }      
 235:..\u8g2\csrc/mui_u8g2.c ****   }
 236:..\u8g2\csrc/mui_u8g2.c ****   return flags;
 237:..\u8g2\csrc/mui_u8g2.c **** }
 238:..\u8g2\csrc/mui_u8g2.c **** 
 239:..\u8g2\csrc/mui_u8g2.c **** void mui_u8g2_draw_button_pf(mui_t *ui, u8g2_uint_t width, u8g2_uint_t padding_h, const char *text)
 240:..\u8g2\csrc/mui_u8g2.c **** {
 241:..\u8g2\csrc/mui_u8g2.c ****   mui_u8g2_draw_button_utf(ui, mui_u8g2_get_pf_flags(ui), width, padding_h , MUI_U8G2_V_PADDING, te
 242:..\u8g2\csrc/mui_u8g2.c **** }
 243:..\u8g2\csrc/mui_u8g2.c **** 
 244:..\u8g2\csrc/mui_u8g2.c **** 
 245:..\u8g2\csrc/mui_u8g2.c **** static uint8_t mui_u8g2_handle_scroll_next_prev_events(mui_t *ui, uint8_t msg) MUI_NOINLINE;
 246:..\u8g2\csrc/mui_u8g2.c **** static uint8_t mui_u8g2_handle_scroll_next_prev_events(mui_t *ui, uint8_t msg)
 247:..\u8g2\csrc/mui_u8g2.c **** {
  27              		.loc 1 247 0
  28              		.cfi_startproc
  29              		@ args = 0, pretend = 0, frame = 0
  30              		@ frame_needed = 0, uses_anonymous_args = 0
  31              		@ link register save eliminated.
  32              	.LVL0:
 248:..\u8g2\csrc/mui_u8g2.c ****   uint8_t arg = ui->arg;
  33              		.loc 1 248 0
  34 0000 90F82E30 		ldrb	r3, [r0, #46]	@ zero_extendqisi2
  35              	.LVL1:
 249:..\u8g2\csrc/mui_u8g2.c ****   switch(msg)
  36              		.loc 1 249 0
ARM GAS  C:\Users\brian\AppData\Local\Temp\ccwE2E8f.s 			page 6


  37 0004 0929     		cmp	r1, #9
  38 0006 0CD0     		beq	.L3
  39 0008 0A29     		cmp	r1, #10
  40 000a 1CD0     		beq	.L4
  41 000c 0429     		cmp	r1, #4
  42 000e 2ED1     		bne	.L14
 250:..\u8g2\csrc/mui_u8g2.c ****   {
 251:..\u8g2\csrc/mui_u8g2.c ****     case MUIF_MSG_CURSOR_ENTER:
 252:..\u8g2\csrc/mui_u8g2.c ****       if ( (arg > 0) && (ui->form_scroll_top + arg >= ui->form_scroll_total) )
  43              		.loc 1 252 0
  44 0010 002B     		cmp	r3, #0
  45 0012 2ED0     		beq	.L10
  46              		.loc 1 252 0 is_stmt 0 discriminator 1
  47 0014 428C     		ldrh	r2, [r0, #34]
  48 0016 1344     		add	r3, r3, r2
  49              	.LVL2:
  50 0018 028C     		ldrh	r2, [r0, #32]
  51 001a 9342     		cmp	r3, r2
  52 001c 2BDB     		blt	.L11
 253:..\u8g2\csrc/mui_u8g2.c ****         return 255;
  53              		.loc 1 253 0 is_stmt 1
  54 001e FF20     		movs	r0, #255
  55              	.LVL3:
  56 0020 7047     		bx	lr
  57              	.LVL4:
  58              	.L3:
 254:..\u8g2\csrc/mui_u8g2.c ****       break;
 255:..\u8g2\csrc/mui_u8g2.c ****     case MUIF_MSG_EVENT_NEXT:
 256:..\u8g2\csrc/mui_u8g2.c ****       if ( arg+1 == ui->form_scroll_visible )
  59              		.loc 1 256 0
  60 0022 0133     		adds	r3, r3, #1
  61              	.LVL5:
  62 0024 90F82420 		ldrb	r2, [r0, #36]	@ zero_extendqisi2
  63 0028 9342     		cmp	r3, r2
  64 002a 26D1     		bne	.L12
 257:..\u8g2\csrc/mui_u8g2.c ****       {
 258:..\u8g2\csrc/mui_u8g2.c ****         if ( ui->form_scroll_visible + ui->form_scroll_top < ui->form_scroll_total )
  65              		.loc 1 258 0
  66 002c 438C     		ldrh	r3, [r0, #34]
  67              	.LVL6:
  68 002e 1A44     		add	r2, r2, r3
  69 0030 018C     		ldrh	r1, [r0, #32]
  70              	.LVL7:
  71 0032 8A42     		cmp	r2, r1
  72 0034 03DA     		bge	.L6
 259:..\u8g2\csrc/mui_u8g2.c ****         {
 260:..\u8g2\csrc/mui_u8g2.c ****           ui->form_scroll_top++;
  73              		.loc 1 260 0
  74 0036 0133     		adds	r3, r3, #1
  75 0038 4384     		strh	r3, [r0, #34]	@ movhi
 261:..\u8g2\csrc/mui_u8g2.c ****           return 1;
  76              		.loc 1 261 0
  77 003a 0120     		movs	r0, #1
  78              	.LVL8:
  79 003c 7047     		bx	lr
  80              	.LVL9:
  81              	.L6:
ARM GAS  C:\Users\brian\AppData\Local\Temp\ccwE2E8f.s 			page 7


 262:..\u8g2\csrc/mui_u8g2.c ****         }
 263:..\u8g2\csrc/mui_u8g2.c ****         else
 264:..\u8g2\csrc/mui_u8g2.c ****         {
 265:..\u8g2\csrc/mui_u8g2.c ****           ui->form_scroll_top = 0;
  82              		.loc 1 265 0
  83 003e 0023     		movs	r3, #0
  84 0040 4384     		strh	r3, [r0, #34]	@ movhi
 266:..\u8g2\csrc/mui_u8g2.c ****         }
 267:..\u8g2\csrc/mui_u8g2.c ****       }
 268:..\u8g2\csrc/mui_u8g2.c ****       break;
 269:..\u8g2\csrc/mui_u8g2.c ****     case MUIF_MSG_EVENT_PREV:
 270:..\u8g2\csrc/mui_u8g2.c ****       if ( arg == 0 )
 271:..\u8g2\csrc/mui_u8g2.c ****       {
 272:..\u8g2\csrc/mui_u8g2.c ****         if ( ui->form_scroll_top > 0 )
 273:..\u8g2\csrc/mui_u8g2.c ****         {
 274:..\u8g2\csrc/mui_u8g2.c ****           ui->form_scroll_top--;
 275:..\u8g2\csrc/mui_u8g2.c ****           return 1;
 276:..\u8g2\csrc/mui_u8g2.c ****         }
 277:..\u8g2\csrc/mui_u8g2.c ****         else
 278:..\u8g2\csrc/mui_u8g2.c ****         {
 279:..\u8g2\csrc/mui_u8g2.c ****           if ( ui->form_scroll_total >  ui->form_scroll_visible  )
 280:..\u8g2\csrc/mui_u8g2.c ****           {
 281:..\u8g2\csrc/mui_u8g2.c ****             ui->form_scroll_top = ui->form_scroll_total - ui->form_scroll_visible;
 282:..\u8g2\csrc/mui_u8g2.c ****           }
 283:..\u8g2\csrc/mui_u8g2.c ****           else
 284:..\u8g2\csrc/mui_u8g2.c ****           {
 285:..\u8g2\csrc/mui_u8g2.c ****             ui->form_scroll_top = 0;
 286:..\u8g2\csrc/mui_u8g2.c ****           }
 287:..\u8g2\csrc/mui_u8g2.c ****         }
 288:..\u8g2\csrc/mui_u8g2.c ****       }
 289:..\u8g2\csrc/mui_u8g2.c ****       break;
 290:..\u8g2\csrc/mui_u8g2.c ****   }
 291:..\u8g2\csrc/mui_u8g2.c ****   return 0;
  85              		.loc 1 291 0
  86 0042 1846     		mov	r0, r3
  87              	.LVL10:
  88 0044 7047     		bx	lr
  89              	.LVL11:
  90              	.L4:
 270:..\u8g2\csrc/mui_u8g2.c ****       {
  91              		.loc 1 270 0
  92 0046 D3B9     		cbnz	r3, .L13
 272:..\u8g2\csrc/mui_u8g2.c ****         {
  93              		.loc 1 272 0
  94 0048 438C     		ldrh	r3, [r0, #34]
  95              	.LVL12:
  96 004a 1BB1     		cbz	r3, .L7
 274:..\u8g2\csrc/mui_u8g2.c ****           return 1;
  97              		.loc 1 274 0
  98 004c 013B     		subs	r3, r3, #1
  99 004e 4384     		strh	r3, [r0, #34]	@ movhi
 275:..\u8g2\csrc/mui_u8g2.c ****         }
 100              		.loc 1 275 0
 101 0050 0120     		movs	r0, #1
 102              	.LVL13:
 103 0052 7047     		bx	lr
 104              	.LVL14:
ARM GAS  C:\Users\brian\AppData\Local\Temp\ccwE2E8f.s 			page 8


 105              	.L7:
 279:..\u8g2\csrc/mui_u8g2.c ****           {
 106              		.loc 1 279 0
 107 0054 038C     		ldrh	r3, [r0, #32]
 108 0056 90F82420 		ldrb	r2, [r0, #36]	@ zero_extendqisi2
 109 005a 9342     		cmp	r3, r2
 110 005c 03D9     		bls	.L8
 281:..\u8g2\csrc/mui_u8g2.c ****           }
 111              		.loc 1 281 0
 112 005e 9B1A     		subs	r3, r3, r2
 113 0060 4384     		strh	r3, [r0, #34]	@ movhi
 114              		.loc 1 291 0
 115 0062 0020     		movs	r0, #0
 116              	.LVL15:
 117 0064 7047     		bx	lr
 118              	.LVL16:
 119              	.L8:
 285:..\u8g2\csrc/mui_u8g2.c ****           }
 120              		.loc 1 285 0
 121 0066 0023     		movs	r3, #0
 122 0068 4384     		strh	r3, [r0, #34]	@ movhi
 123              		.loc 1 291 0
 124 006a 1846     		mov	r0, r3
 125              	.LVL17:
 126 006c 7047     		bx	lr
 127              	.LVL18:
 128              	.L14:
 129 006e 0020     		movs	r0, #0
 130              	.LVL19:
 131 0070 7047     		bx	lr
 132              	.LVL20:
 133              	.L10:
 134 0072 0020     		movs	r0, #0
 135              	.LVL21:
 136 0074 7047     		bx	lr
 137              	.LVL22:
 138              	.L11:
 139 0076 0020     		movs	r0, #0
 140              	.LVL23:
 141 0078 7047     		bx	lr
 142              	.LVL24:
 143              	.L12:
 144 007a 0020     		movs	r0, #0
 145              	.LVL25:
 146 007c 7047     		bx	lr
 147              	.LVL26:
 148              	.L13:
 149 007e 0020     		movs	r0, #0
 150              	.LVL27:
 292:..\u8g2\csrc/mui_u8g2.c **** }
 151              		.loc 1 292 0
 152 0080 7047     		bx	lr
 153              		.cfi_endproc
 154              	.LFE12:
 155              		.size	mui_u8g2_handle_scroll_next_prev_events, .-mui_u8g2_handle_scroll_next_prev_events
 156 0082 00BF     		.section	.text.mui_is_valid_char,"ax",%progbits
 157              		.align	2
ARM GAS  C:\Users\brian\AppData\Local\Temp\ccwE2E8f.s 			page 9


 158              		.thumb
 159              		.thumb_func
 160              		.type	mui_is_valid_char, %function
 161              	mui_is_valid_char:
 162              	.LFB25:
 293:..\u8g2\csrc/mui_u8g2.c **** /*=========================================================================*/
 294:..\u8g2\csrc/mui_u8g2.c **** /* field functions */
 295:..\u8g2\csrc/mui_u8g2.c **** 
 296:..\u8g2\csrc/mui_u8g2.c **** /*
 297:..\u8g2\csrc/mui_u8g2.c ****   xy: yes, arg: no, text: yes
 298:..\u8g2\csrc/mui_u8g2.c **** */
 299:..\u8g2\csrc/mui_u8g2.c **** 
 300:..\u8g2\csrc/mui_u8g2.c **** uint8_t mui_u8g2_draw_text(mui_t *ui, uint8_t msg)
 301:..\u8g2\csrc/mui_u8g2.c **** {
 302:..\u8g2\csrc/mui_u8g2.c ****   switch(msg)
 303:..\u8g2\csrc/mui_u8g2.c ****   {
 304:..\u8g2\csrc/mui_u8g2.c ****     case MUIF_MSG_DRAW:
 305:..\u8g2\csrc/mui_u8g2.c ****       u8g2_DrawStr(mui_get_U8g2(ui), mui_get_x(ui), mui_get_y(ui), ui->text);
 306:..\u8g2\csrc/mui_u8g2.c ****       break;
 307:..\u8g2\csrc/mui_u8g2.c ****     case MUIF_MSG_FORM_START:
 308:..\u8g2\csrc/mui_u8g2.c ****       break;
 309:..\u8g2\csrc/mui_u8g2.c ****     case MUIF_MSG_FORM_END:
 310:..\u8g2\csrc/mui_u8g2.c ****       break;
 311:..\u8g2\csrc/mui_u8g2.c ****     case MUIF_MSG_CURSOR_ENTER:
 312:..\u8g2\csrc/mui_u8g2.c ****       break;
 313:..\u8g2\csrc/mui_u8g2.c ****     case MUIF_MSG_CURSOR_SELECT:
 314:..\u8g2\csrc/mui_u8g2.c ****       break;
 315:..\u8g2\csrc/mui_u8g2.c ****     case MUIF_MSG_CURSOR_LEAVE:
 316:..\u8g2\csrc/mui_u8g2.c ****       break;
 317:..\u8g2\csrc/mui_u8g2.c ****     case MUIF_MSG_TOUCH_DOWN:
 318:..\u8g2\csrc/mui_u8g2.c ****       break;
 319:..\u8g2\csrc/mui_u8g2.c ****     case MUIF_MSG_TOUCH_UP:
 320:..\u8g2\csrc/mui_u8g2.c ****       break;    
 321:..\u8g2\csrc/mui_u8g2.c ****   }
 322:..\u8g2\csrc/mui_u8g2.c ****   return 0;
 323:..\u8g2\csrc/mui_u8g2.c **** }
 324:..\u8g2\csrc/mui_u8g2.c **** 
 325:..\u8g2\csrc/mui_u8g2.c **** 
 326:..\u8g2\csrc/mui_u8g2.c **** /*
 327:..\u8g2\csrc/mui_u8g2.c **** 
 328:..\u8g2\csrc/mui_u8g2.c ****   uint8_t mui_u8g2_btn_goto_wm_fi(mui_t *ui, uint8_t msg)
 329:..\u8g2\csrc/mui_u8g2.c **** 
 330:..\u8g2\csrc/mui_u8g2.c ****   Description:
 331:..\u8g2\csrc/mui_u8g2.c ****     A button with size equal to button text plus one pixel padding
 332:..\u8g2\csrc/mui_u8g2.c ****     The button has a one pixel frame around the text.
 333:..\u8g2\csrc/mui_u8g2.c ****     If the selected, then the form will change to the specified form number.
 334:..\u8g2\csrc/mui_u8g2.c ****     
 335:..\u8g2\csrc/mui_u8g2.c ****   Message Handling: DRAW, CURSOR_SELECT
 336:..\u8g2\csrc/mui_u8g2.c **** 
 337:..\u8g2\csrc/mui_u8g2.c ****   Style
 338:..\u8g2\csrc/mui_u8g2.c ****     No Selection: Text + Frame
 339:..\u8g2\csrc/mui_u8g2.c ****     Cursor Selection: Inverted text + Frame
 340:..\u8g2\csrc/mui_u8g2.c **** 
 341:..\u8g2\csrc/mui_u8g2.c ****   User interface field list (muif):
 342:..\u8g2\csrc/mui_u8g2.c ****     flags: MUIF_CFLAG_IS_CURSOR_SELECTABLE
 343:..\u8g2\csrc/mui_u8g2.c ****     data: not used
 344:..\u8g2\csrc/mui_u8g2.c **** 
ARM GAS  C:\Users\brian\AppData\Local\Temp\ccwE2E8f.s 			page 10


 345:..\u8g2\csrc/mui_u8g2.c ****   Field definition string (fds):
 346:..\u8g2\csrc/mui_u8g2.c ****     xy: Left position of the text (required)
 347:..\u8g2\csrc/mui_u8g2.c ****     arg: Form numner (required)
 348:..\u8g2\csrc/mui_u8g2.c ****     text: Button label
 349:..\u8g2\csrc/mui_u8g2.c ****     
 350:..\u8g2\csrc/mui_u8g2.c **** */
 351:..\u8g2\csrc/mui_u8g2.c **** uint8_t mui_u8g2_btn_goto_wm_fi(mui_t *ui, uint8_t msg)
 352:..\u8g2\csrc/mui_u8g2.c **** {
 353:..\u8g2\csrc/mui_u8g2.c ****   switch(msg)
 354:..\u8g2\csrc/mui_u8g2.c ****   {
 355:..\u8g2\csrc/mui_u8g2.c ****     case MUIF_MSG_DRAW:
 356:..\u8g2\csrc/mui_u8g2.c ****       mui_u8g2_draw_button_utf(ui, U8G2_BTN_HCENTER |mui_u8g2_get_fi_flags(ui), 0, 1, MUI_U8G2_V_PA
 357:..\u8g2\csrc/mui_u8g2.c ****       break;
 358:..\u8g2\csrc/mui_u8g2.c ****     case MUIF_MSG_FORM_START:
 359:..\u8g2\csrc/mui_u8g2.c ****       break;
 360:..\u8g2\csrc/mui_u8g2.c ****     case MUIF_MSG_FORM_END:
 361:..\u8g2\csrc/mui_u8g2.c ****       break;
 362:..\u8g2\csrc/mui_u8g2.c ****     case MUIF_MSG_CURSOR_ENTER:
 363:..\u8g2\csrc/mui_u8g2.c ****       break;
 364:..\u8g2\csrc/mui_u8g2.c ****     case MUIF_MSG_CURSOR_SELECT:
 365:..\u8g2\csrc/mui_u8g2.c ****       return mui_GotoForm(ui, ui->arg, 0);
 366:..\u8g2\csrc/mui_u8g2.c ****     case MUIF_MSG_CURSOR_LEAVE:
 367:..\u8g2\csrc/mui_u8g2.c ****       break;
 368:..\u8g2\csrc/mui_u8g2.c ****     case MUIF_MSG_TOUCH_DOWN:
 369:..\u8g2\csrc/mui_u8g2.c ****       break;
 370:..\u8g2\csrc/mui_u8g2.c ****     case MUIF_MSG_TOUCH_UP:
 371:..\u8g2\csrc/mui_u8g2.c ****       break;    
 372:..\u8g2\csrc/mui_u8g2.c ****     
 373:..\u8g2\csrc/mui_u8g2.c ****   }
 374:..\u8g2\csrc/mui_u8g2.c ****   return 0;
 375:..\u8g2\csrc/mui_u8g2.c **** }
 376:..\u8g2\csrc/mui_u8g2.c **** 
 377:..\u8g2\csrc/mui_u8g2.c **** uint8_t mui_u8g2_btn_goto_w2_fi(mui_t *ui, uint8_t msg)
 378:..\u8g2\csrc/mui_u8g2.c **** {
 379:..\u8g2\csrc/mui_u8g2.c ****   u8g2_t *u8g2 = mui_get_U8g2(ui);
 380:..\u8g2\csrc/mui_u8g2.c ****   switch(msg)
 381:..\u8g2\csrc/mui_u8g2.c ****   {
 382:..\u8g2\csrc/mui_u8g2.c ****     case MUIF_MSG_DRAW:
 383:..\u8g2\csrc/mui_u8g2.c ****       mui_u8g2_draw_button_utf(ui, U8G2_BTN_HCENTER | mui_u8g2_get_fi_flags(ui), u8g2_GetDisplayWid
 384:..\u8g2\csrc/mui_u8g2.c ****       break;
 385:..\u8g2\csrc/mui_u8g2.c ****     case MUIF_MSG_FORM_START:
 386:..\u8g2\csrc/mui_u8g2.c ****       break;
 387:..\u8g2\csrc/mui_u8g2.c ****     case MUIF_MSG_FORM_END:
 388:..\u8g2\csrc/mui_u8g2.c ****       break;
 389:..\u8g2\csrc/mui_u8g2.c ****     case MUIF_MSG_CURSOR_ENTER:
 390:..\u8g2\csrc/mui_u8g2.c ****       break;
 391:..\u8g2\csrc/mui_u8g2.c ****     case MUIF_MSG_CURSOR_SELECT:
 392:..\u8g2\csrc/mui_u8g2.c ****       return mui_GotoForm(ui, ui->arg, 0);
 393:..\u8g2\csrc/mui_u8g2.c ****     case MUIF_MSG_CURSOR_LEAVE:
 394:..\u8g2\csrc/mui_u8g2.c ****       break;
 395:..\u8g2\csrc/mui_u8g2.c ****     case MUIF_MSG_TOUCH_DOWN:
 396:..\u8g2\csrc/mui_u8g2.c ****       break;
 397:..\u8g2\csrc/mui_u8g2.c ****     case MUIF_MSG_TOUCH_UP:
 398:..\u8g2\csrc/mui_u8g2.c ****       break;    
 399:..\u8g2\csrc/mui_u8g2.c ****   }
 400:..\u8g2\csrc/mui_u8g2.c ****   return 0;
 401:..\u8g2\csrc/mui_u8g2.c **** }
ARM GAS  C:\Users\brian\AppData\Local\Temp\ccwE2E8f.s 			page 11


 402:..\u8g2\csrc/mui_u8g2.c **** 
 403:..\u8g2\csrc/mui_u8g2.c **** /*
 404:..\u8g2\csrc/mui_u8g2.c **** 
 405:..\u8g2\csrc/mui_u8g2.c ****   uint8_t mui_u8g2_btn_exit_wm_fi(mui_t *ui, uint8_t msg)
 406:..\u8g2\csrc/mui_u8g2.c **** 
 407:..\u8g2\csrc/mui_u8g2.c ****   Description:
 408:..\u8g2\csrc/mui_u8g2.c ****     A button with size equal to button text plus one pixel padding
 409:..\u8g2\csrc/mui_u8g2.c ****     The button has a one pixel frame around the text.
 410:..\u8g2\csrc/mui_u8g2.c ****     If the selected, then the menu system will be closed.
 411:..\u8g2\csrc/mui_u8g2.c ****     The arg value will be stored at the specified data location (if not NULL).
 412:..\u8g2\csrc/mui_u8g2.c ****     The arg value can be used as an exit value of the button.
 413:..\u8g2\csrc/mui_u8g2.c ****     
 414:..\u8g2\csrc/mui_u8g2.c ****   Message Handling: DRAW, CURSOR_SELECT
 415:..\u8g2\csrc/mui_u8g2.c **** 
 416:..\u8g2\csrc/mui_u8g2.c ****   Style
 417:..\u8g2\csrc/mui_u8g2.c ****     No Selection: Text + Frame
 418:..\u8g2\csrc/mui_u8g2.c ****     Cursor Selection: Inverted text + Frame
 419:..\u8g2\csrc/mui_u8g2.c **** 
 420:..\u8g2\csrc/mui_u8g2.c ****   User interface field list (muif):
 421:..\u8g2\csrc/mui_u8g2.c ****     flags: MUIF_CFLAG_IS_CURSOR_SELECTABLE
 422:..\u8g2\csrc/mui_u8g2.c ****     data: Optionally points to uint8_t value which will receive the arg value of the field.
 423:..\u8g2\csrc/mui_u8g2.c **** 
 424:..\u8g2\csrc/mui_u8g2.c ****   Field definition string (fds):
 425:..\u8g2\csrc/mui_u8g2.c ****     xy: Left position of the text (required)
 426:..\u8g2\csrc/mui_u8g2.c ****     arg: Value which will be stored at *data (optional)
 427:..\u8g2\csrc/mui_u8g2.c ****     text: Button label
 428:..\u8g2\csrc/mui_u8g2.c ****     
 429:..\u8g2\csrc/mui_u8g2.c **** */
 430:..\u8g2\csrc/mui_u8g2.c **** uint8_t mui_u8g2_btn_exit_wm_fi(mui_t *ui, uint8_t msg)
 431:..\u8g2\csrc/mui_u8g2.c **** {
 432:..\u8g2\csrc/mui_u8g2.c ****   switch(msg)
 433:..\u8g2\csrc/mui_u8g2.c ****   {
 434:..\u8g2\csrc/mui_u8g2.c ****     case MUIF_MSG_DRAW:
 435:..\u8g2\csrc/mui_u8g2.c ****       mui_u8g2_draw_button_utf(ui, U8G2_BTN_HCENTER |mui_u8g2_get_fi_flags(ui), 0, 1, MUI_U8G2_V_PA
 436:..\u8g2\csrc/mui_u8g2.c ****       break;
 437:..\u8g2\csrc/mui_u8g2.c ****     case MUIF_MSG_FORM_START:
 438:..\u8g2\csrc/mui_u8g2.c ****       break;
 439:..\u8g2\csrc/mui_u8g2.c ****     case MUIF_MSG_FORM_END:
 440:..\u8g2\csrc/mui_u8g2.c ****       break;
 441:..\u8g2\csrc/mui_u8g2.c ****     case MUIF_MSG_CURSOR_ENTER:
 442:..\u8g2\csrc/mui_u8g2.c ****       break;
 443:..\u8g2\csrc/mui_u8g2.c ****     case MUIF_MSG_CURSOR_SELECT:
 444:..\u8g2\csrc/mui_u8g2.c ****       {
 445:..\u8g2\csrc/mui_u8g2.c ****         uint8_t *value = (uint8_t *)muif_get_data(ui->uif);
 446:..\u8g2\csrc/mui_u8g2.c ****         if ( value != NULL )
 447:..\u8g2\csrc/mui_u8g2.c ****           *value = ui->arg;
 448:..\u8g2\csrc/mui_u8g2.c ****       }
 449:..\u8g2\csrc/mui_u8g2.c ****       mui_LeaveForm(ui);
 450:..\u8g2\csrc/mui_u8g2.c ****       return 1;
 451:..\u8g2\csrc/mui_u8g2.c ****     case MUIF_MSG_CURSOR_LEAVE:
 452:..\u8g2\csrc/mui_u8g2.c ****       break;
 453:..\u8g2\csrc/mui_u8g2.c ****     case MUIF_MSG_TOUCH_DOWN:
 454:..\u8g2\csrc/mui_u8g2.c ****       break;
 455:..\u8g2\csrc/mui_u8g2.c ****     case MUIF_MSG_TOUCH_UP:
 456:..\u8g2\csrc/mui_u8g2.c ****       break;    
 457:..\u8g2\csrc/mui_u8g2.c ****   }
 458:..\u8g2\csrc/mui_u8g2.c ****   return 0;
ARM GAS  C:\Users\brian\AppData\Local\Temp\ccwE2E8f.s 			page 12


 459:..\u8g2\csrc/mui_u8g2.c **** }
 460:..\u8g2\csrc/mui_u8g2.c **** 
 461:..\u8g2\csrc/mui_u8g2.c **** 
 462:..\u8g2\csrc/mui_u8g2.c **** uint8_t mui_u8g2_btn_goto_w1_pi(mui_t *ui, uint8_t msg)
 463:..\u8g2\csrc/mui_u8g2.c **** {
 464:..\u8g2\csrc/mui_u8g2.c ****   u8g2_t *u8g2 = mui_get_U8g2(ui);
 465:..\u8g2\csrc/mui_u8g2.c ****   switch(msg)
 466:..\u8g2\csrc/mui_u8g2.c ****   {
 467:..\u8g2\csrc/mui_u8g2.c ****     case MUIF_MSG_DRAW:
 468:..\u8g2\csrc/mui_u8g2.c ****       mui_u8g2_draw_button_pi(ui, u8g2_GetDisplayWidth(u8g2)-mui_get_x(ui)*2, mui_get_x(ui) , ui->t
 469:..\u8g2\csrc/mui_u8g2.c ****       //mui_u8g2_draw_button_utf(ui, mui_u8g2_get_pi_flags(ui), u8g2_GetDisplayWidth(u8g2)-mui_get_
 470:..\u8g2\csrc/mui_u8g2.c ****       break;
 471:..\u8g2\csrc/mui_u8g2.c ****     case MUIF_MSG_FORM_START:
 472:..\u8g2\csrc/mui_u8g2.c ****       break;
 473:..\u8g2\csrc/mui_u8g2.c ****     case MUIF_MSG_FORM_END:
 474:..\u8g2\csrc/mui_u8g2.c ****       break;
 475:..\u8g2\csrc/mui_u8g2.c ****     case MUIF_MSG_CURSOR_ENTER:
 476:..\u8g2\csrc/mui_u8g2.c ****       break;
 477:..\u8g2\csrc/mui_u8g2.c ****     case MUIF_MSG_CURSOR_SELECT:
 478:..\u8g2\csrc/mui_u8g2.c ****       return mui_GotoForm(ui, ui->arg, 0);
 479:..\u8g2\csrc/mui_u8g2.c ****     case MUIF_MSG_CURSOR_LEAVE:
 480:..\u8g2\csrc/mui_u8g2.c ****       break;
 481:..\u8g2\csrc/mui_u8g2.c ****     case MUIF_MSG_TOUCH_DOWN:
 482:..\u8g2\csrc/mui_u8g2.c ****       break;
 483:..\u8g2\csrc/mui_u8g2.c ****     case MUIF_MSG_TOUCH_UP:
 484:..\u8g2\csrc/mui_u8g2.c ****       break;    
 485:..\u8g2\csrc/mui_u8g2.c ****   }
 486:..\u8g2\csrc/mui_u8g2.c ****   return 0;
 487:..\u8g2\csrc/mui_u8g2.c **** }
 488:..\u8g2\csrc/mui_u8g2.c **** 
 489:..\u8g2\csrc/mui_u8g2.c **** 
 490:..\u8g2\csrc/mui_u8g2.c **** uint8_t mui_u8g2_btn_goto_w1_fi(mui_t *ui, uint8_t msg)
 491:..\u8g2\csrc/mui_u8g2.c **** {
 492:..\u8g2\csrc/mui_u8g2.c ****   u8g2_t *u8g2 = mui_get_U8g2(ui);
 493:..\u8g2\csrc/mui_u8g2.c ****   switch(msg)
 494:..\u8g2\csrc/mui_u8g2.c ****   {
 495:..\u8g2\csrc/mui_u8g2.c ****     case MUIF_MSG_DRAW:
 496:..\u8g2\csrc/mui_u8g2.c ****       mui_u8g2_draw_button_fi(ui, u8g2_GetDisplayWidth(u8g2)-mui_get_x(ui)*2, mui_get_x(ui)-1 , ui-
 497:..\u8g2\csrc/mui_u8g2.c ****       //mui_u8g2_draw_button_utf(ui, mui_u8g2_get_pi_flags(ui), u8g2_GetDisplayWidth(u8g2)-mui_get_
 498:..\u8g2\csrc/mui_u8g2.c ****       break;
 499:..\u8g2\csrc/mui_u8g2.c ****     case MUIF_MSG_FORM_START:
 500:..\u8g2\csrc/mui_u8g2.c ****       break;
 501:..\u8g2\csrc/mui_u8g2.c ****     case MUIF_MSG_FORM_END:
 502:..\u8g2\csrc/mui_u8g2.c ****       break;
 503:..\u8g2\csrc/mui_u8g2.c ****     case MUIF_MSG_CURSOR_ENTER:
 504:..\u8g2\csrc/mui_u8g2.c ****       break;
 505:..\u8g2\csrc/mui_u8g2.c ****     case MUIF_MSG_CURSOR_SELECT:
 506:..\u8g2\csrc/mui_u8g2.c ****       return mui_GotoForm(ui, ui->arg, 0);
 507:..\u8g2\csrc/mui_u8g2.c ****     case MUIF_MSG_CURSOR_LEAVE:
 508:..\u8g2\csrc/mui_u8g2.c ****       break;
 509:..\u8g2\csrc/mui_u8g2.c ****     case MUIF_MSG_TOUCH_DOWN:
 510:..\u8g2\csrc/mui_u8g2.c ****       break;
 511:..\u8g2\csrc/mui_u8g2.c ****     case MUIF_MSG_TOUCH_UP:
 512:..\u8g2\csrc/mui_u8g2.c ****       break;    
 513:..\u8g2\csrc/mui_u8g2.c ****   }
 514:..\u8g2\csrc/mui_u8g2.c ****   return 0;
 515:..\u8g2\csrc/mui_u8g2.c **** }
ARM GAS  C:\Users\brian\AppData\Local\Temp\ccwE2E8f.s 			page 13


 516:..\u8g2\csrc/mui_u8g2.c **** 
 517:..\u8g2\csrc/mui_u8g2.c **** /*===============================================================================*/
 518:..\u8g2\csrc/mui_u8g2.c **** 
 519:..\u8g2\csrc/mui_u8g2.c **** 
 520:..\u8g2\csrc/mui_u8g2.c **** static void mui_u8g2_u8_vmm_draw_wm_pi(mui_t *ui) MUI_NOINLINE;
 521:..\u8g2\csrc/mui_u8g2.c **** static void mui_u8g2_u8_vmm_draw_wm_pi(mui_t *ui)
 522:..\u8g2\csrc/mui_u8g2.c **** {
 523:..\u8g2\csrc/mui_u8g2.c ****   u8g2_t *u8g2 = mui_get_U8g2(ui);
 524:..\u8g2\csrc/mui_u8g2.c ****   mui_u8g2_u8_min_max_t *vmm= (mui_u8g2_u8_min_max_t *)muif_get_data(ui->uif);
 525:..\u8g2\csrc/mui_u8g2.c ****   char *s = "999";
 526:..\u8g2\csrc/mui_u8g2.c ****   uint8_t *value = mui_u8g2_u8mm_get_valptr(vmm);
 527:..\u8g2\csrc/mui_u8g2.c ****   uint8_t min = mui_u8g2_u8mm_get_min(vmm);
 528:..\u8g2\csrc/mui_u8g2.c ****   uint8_t max = mui_u8g2_u8mm_get_max(vmm);
 529:..\u8g2\csrc/mui_u8g2.c ****   uint8_t cnt = 3;
 530:..\u8g2\csrc/mui_u8g2.c ****   
 531:..\u8g2\csrc/mui_u8g2.c ****   if ( *value > max ) 
 532:..\u8g2\csrc/mui_u8g2.c ****     *value = max;
 533:..\u8g2\csrc/mui_u8g2.c ****   if ( *value <= min )
 534:..\u8g2\csrc/mui_u8g2.c ****     *value = min;
 535:..\u8g2\csrc/mui_u8g2.c ****   if ( max < 100 )
 536:..\u8g2\csrc/mui_u8g2.c ****   {
 537:..\u8g2\csrc/mui_u8g2.c ****     s++;
 538:..\u8g2\csrc/mui_u8g2.c ****     cnt--;
 539:..\u8g2\csrc/mui_u8g2.c ****   }
 540:..\u8g2\csrc/mui_u8g2.c ****   if ( max < 10 )
 541:..\u8g2\csrc/mui_u8g2.c ****   {
 542:..\u8g2\csrc/mui_u8g2.c ****     s++;
 543:..\u8g2\csrc/mui_u8g2.c ****     cnt--;
 544:..\u8g2\csrc/mui_u8g2.c ****   }
 545:..\u8g2\csrc/mui_u8g2.c ****   //mui_u8g2_draw_button_utf(ui, mui_u8g2_get_pi_flags(ui), u8g2_GetStrWidth(u8g2, s)+1, 1, MUI_U8G
 546:..\u8g2\csrc/mui_u8g2.c ****   mui_u8g2_draw_button_pi(ui, u8g2_GetStrWidth(u8g2, s)+1, 1, u8x8_u8toa(*value, cnt));
 547:..\u8g2\csrc/mui_u8g2.c **** }
 548:..\u8g2\csrc/mui_u8g2.c **** 
 549:..\u8g2\csrc/mui_u8g2.c **** 
 550:..\u8g2\csrc/mui_u8g2.c **** uint8_t mui_u8g2_u8_min_max_wm_mse_pi(mui_t *ui, uint8_t msg)
 551:..\u8g2\csrc/mui_u8g2.c **** {
 552:..\u8g2\csrc/mui_u8g2.c ****   mui_u8g2_u8_min_max_t *vmm= (mui_u8g2_u8_min_max_t *)muif_get_data(ui->uif);
 553:..\u8g2\csrc/mui_u8g2.c ****   uint8_t *value = mui_u8g2_u8mm_get_valptr(vmm);
 554:..\u8g2\csrc/mui_u8g2.c ****   uint8_t min = mui_u8g2_u8mm_get_min(vmm);
 555:..\u8g2\csrc/mui_u8g2.c ****   uint8_t max = mui_u8g2_u8mm_get_max(vmm);
 556:..\u8g2\csrc/mui_u8g2.c ****   switch(msg)
 557:..\u8g2\csrc/mui_u8g2.c ****   {
 558:..\u8g2\csrc/mui_u8g2.c ****     case MUIF_MSG_DRAW:
 559:..\u8g2\csrc/mui_u8g2.c ****       mui_u8g2_u8_vmm_draw_wm_pi(ui);
 560:..\u8g2\csrc/mui_u8g2.c ****       break;
 561:..\u8g2\csrc/mui_u8g2.c ****     case MUIF_MSG_FORM_START:
 562:..\u8g2\csrc/mui_u8g2.c ****       break;
 563:..\u8g2\csrc/mui_u8g2.c ****     case MUIF_MSG_FORM_END:
 564:..\u8g2\csrc/mui_u8g2.c ****       break;
 565:..\u8g2\csrc/mui_u8g2.c ****     case MUIF_MSG_CURSOR_ENTER:
 566:..\u8g2\csrc/mui_u8g2.c ****       break;
 567:..\u8g2\csrc/mui_u8g2.c ****     case MUIF_MSG_CURSOR_SELECT:
 568:..\u8g2\csrc/mui_u8g2.c ****       (*value)++;
 569:..\u8g2\csrc/mui_u8g2.c ****       if ( *value > max ) *value = min;
 570:..\u8g2\csrc/mui_u8g2.c ****       break;
 571:..\u8g2\csrc/mui_u8g2.c ****     case MUIF_MSG_CURSOR_LEAVE:
 572:..\u8g2\csrc/mui_u8g2.c ****       break;
ARM GAS  C:\Users\brian\AppData\Local\Temp\ccwE2E8f.s 			page 14


 573:..\u8g2\csrc/mui_u8g2.c ****     case MUIF_MSG_TOUCH_DOWN:
 574:..\u8g2\csrc/mui_u8g2.c ****       break;
 575:..\u8g2\csrc/mui_u8g2.c ****     case MUIF_MSG_TOUCH_UP:
 576:..\u8g2\csrc/mui_u8g2.c ****       break;
 577:..\u8g2\csrc/mui_u8g2.c ****   }
 578:..\u8g2\csrc/mui_u8g2.c ****   return 0;
 579:..\u8g2\csrc/mui_u8g2.c **** }
 580:..\u8g2\csrc/mui_u8g2.c **** 
 581:..\u8g2\csrc/mui_u8g2.c **** uint8_t mui_u8g2_u8_min_max_wm_mud_pi(mui_t *ui, uint8_t msg)
 582:..\u8g2\csrc/mui_u8g2.c **** {
 583:..\u8g2\csrc/mui_u8g2.c ****   mui_u8g2_u8_min_max_t *vmm= (mui_u8g2_u8_min_max_t *)muif_get_data(ui->uif);
 584:..\u8g2\csrc/mui_u8g2.c ****   uint8_t *value = mui_u8g2_u8mm_get_valptr(vmm);
 585:..\u8g2\csrc/mui_u8g2.c ****   uint8_t min = mui_u8g2_u8mm_get_min(vmm);
 586:..\u8g2\csrc/mui_u8g2.c ****   uint8_t max = mui_u8g2_u8mm_get_max(vmm);
 587:..\u8g2\csrc/mui_u8g2.c ****   switch(msg)
 588:..\u8g2\csrc/mui_u8g2.c ****   {
 589:..\u8g2\csrc/mui_u8g2.c ****     case MUIF_MSG_DRAW:
 590:..\u8g2\csrc/mui_u8g2.c ****       mui_u8g2_u8_vmm_draw_wm_pi(ui);
 591:..\u8g2\csrc/mui_u8g2.c ****       break;
 592:..\u8g2\csrc/mui_u8g2.c ****     case MUIF_MSG_FORM_START:
 593:..\u8g2\csrc/mui_u8g2.c ****       break;
 594:..\u8g2\csrc/mui_u8g2.c ****     case MUIF_MSG_FORM_END:
 595:..\u8g2\csrc/mui_u8g2.c ****       break;
 596:..\u8g2\csrc/mui_u8g2.c ****     case MUIF_MSG_CURSOR_ENTER:
 597:..\u8g2\csrc/mui_u8g2.c ****       break;
 598:..\u8g2\csrc/mui_u8g2.c ****     case MUIF_MSG_CURSOR_SELECT:
 599:..\u8g2\csrc/mui_u8g2.c ****       /* toggle between normal mode and capture next/prev mode */
 600:..\u8g2\csrc/mui_u8g2.c ****       ui->is_mud = !ui->is_mud;
 601:..\u8g2\csrc/mui_u8g2.c ****       break;
 602:..\u8g2\csrc/mui_u8g2.c ****     case MUIF_MSG_CURSOR_LEAVE:
 603:..\u8g2\csrc/mui_u8g2.c ****       break;
 604:..\u8g2\csrc/mui_u8g2.c ****     case MUIF_MSG_TOUCH_DOWN:
 605:..\u8g2\csrc/mui_u8g2.c ****       break;
 606:..\u8g2\csrc/mui_u8g2.c ****     case MUIF_MSG_TOUCH_UP:
 607:..\u8g2\csrc/mui_u8g2.c ****       break;
 608:..\u8g2\csrc/mui_u8g2.c ****     case MUIF_MSG_EVENT_NEXT:
 609:..\u8g2\csrc/mui_u8g2.c ****       if ( ui->is_mud )
 610:..\u8g2\csrc/mui_u8g2.c ****       {
 611:..\u8g2\csrc/mui_u8g2.c ****         (*value)++;
 612:..\u8g2\csrc/mui_u8g2.c ****         if ( *value > max )
 613:..\u8g2\csrc/mui_u8g2.c ****           *value = min;
 614:..\u8g2\csrc/mui_u8g2.c ****         return 1;
 615:..\u8g2\csrc/mui_u8g2.c ****       }
 616:..\u8g2\csrc/mui_u8g2.c ****       break;
 617:..\u8g2\csrc/mui_u8g2.c ****     case MUIF_MSG_EVENT_PREV:
 618:..\u8g2\csrc/mui_u8g2.c ****       if ( ui->is_mud )
 619:..\u8g2\csrc/mui_u8g2.c ****       {
 620:..\u8g2\csrc/mui_u8g2.c ****         if ( *value <= min )
 621:..\u8g2\csrc/mui_u8g2.c ****           *value = max;
 622:..\u8g2\csrc/mui_u8g2.c ****         else
 623:..\u8g2\csrc/mui_u8g2.c ****           (*value)--;
 624:..\u8g2\csrc/mui_u8g2.c ****         return 1;
 625:..\u8g2\csrc/mui_u8g2.c ****       }
 626:..\u8g2\csrc/mui_u8g2.c ****       break;
 627:..\u8g2\csrc/mui_u8g2.c ****   }
 628:..\u8g2\csrc/mui_u8g2.c ****   return 0;
 629:..\u8g2\csrc/mui_u8g2.c **** }
ARM GAS  C:\Users\brian\AppData\Local\Temp\ccwE2E8f.s 			page 15


 630:..\u8g2\csrc/mui_u8g2.c **** 
 631:..\u8g2\csrc/mui_u8g2.c **** 
 632:..\u8g2\csrc/mui_u8g2.c **** 
 633:..\u8g2\csrc/mui_u8g2.c **** static void mui_u8g2_u8_vmm_draw_wm_pf(mui_t *ui) MUI_NOINLINE;
 634:..\u8g2\csrc/mui_u8g2.c **** static void mui_u8g2_u8_vmm_draw_wm_pf(mui_t *ui)
 635:..\u8g2\csrc/mui_u8g2.c **** {
 636:..\u8g2\csrc/mui_u8g2.c ****   u8g2_t *u8g2 = mui_get_U8g2(ui);
 637:..\u8g2\csrc/mui_u8g2.c ****   mui_u8g2_u8_min_max_t *vmm= (mui_u8g2_u8_min_max_t *)muif_get_data(ui->uif);
 638:..\u8g2\csrc/mui_u8g2.c ****   char *s = "999";
 639:..\u8g2\csrc/mui_u8g2.c ****   uint8_t *value = mui_u8g2_u8mm_get_valptr(vmm);
 640:..\u8g2\csrc/mui_u8g2.c ****   uint8_t min = mui_u8g2_u8mm_get_min(vmm);
 641:..\u8g2\csrc/mui_u8g2.c ****   uint8_t max = mui_u8g2_u8mm_get_max(vmm);
 642:..\u8g2\csrc/mui_u8g2.c ****   uint8_t cnt = 3;
 643:..\u8g2\csrc/mui_u8g2.c ****   
 644:..\u8g2\csrc/mui_u8g2.c ****   if ( *value > max ) 
 645:..\u8g2\csrc/mui_u8g2.c ****     *value = max;
 646:..\u8g2\csrc/mui_u8g2.c ****   if ( *value <= min )
 647:..\u8g2\csrc/mui_u8g2.c ****     *value = min;
 648:..\u8g2\csrc/mui_u8g2.c ****   if ( max < 100 )
 649:..\u8g2\csrc/mui_u8g2.c ****   {
 650:..\u8g2\csrc/mui_u8g2.c ****     s++;
 651:..\u8g2\csrc/mui_u8g2.c ****     cnt--;
 652:..\u8g2\csrc/mui_u8g2.c ****   }
 653:..\u8g2\csrc/mui_u8g2.c ****   if ( max < 10 )
 654:..\u8g2\csrc/mui_u8g2.c ****   {
 655:..\u8g2\csrc/mui_u8g2.c ****     s++;
 656:..\u8g2\csrc/mui_u8g2.c ****     cnt--;
 657:..\u8g2\csrc/mui_u8g2.c ****   }
 658:..\u8g2\csrc/mui_u8g2.c ****   //mui_u8g2_draw_button_utf(ui, mui_u8g2_get_pi_flags(ui), u8g2_GetStrWidth(u8g2, s)+1, 1, MUI_U8G
 659:..\u8g2\csrc/mui_u8g2.c ****   mui_u8g2_draw_button_pf(ui, u8g2_GetStrWidth(u8g2, s)+1, 1, u8x8_u8toa(*value, cnt));
 660:..\u8g2\csrc/mui_u8g2.c **** }
 661:..\u8g2\csrc/mui_u8g2.c **** 
 662:..\u8g2\csrc/mui_u8g2.c **** 
 663:..\u8g2\csrc/mui_u8g2.c **** uint8_t mui_u8g2_u8_min_max_wm_mse_pf(mui_t *ui, uint8_t msg)
 664:..\u8g2\csrc/mui_u8g2.c **** {
 665:..\u8g2\csrc/mui_u8g2.c ****   mui_u8g2_u8_min_max_t *vmm= (mui_u8g2_u8_min_max_t *)muif_get_data(ui->uif);
 666:..\u8g2\csrc/mui_u8g2.c ****   uint8_t *value = mui_u8g2_u8mm_get_valptr(vmm);
 667:..\u8g2\csrc/mui_u8g2.c ****   uint8_t min = mui_u8g2_u8mm_get_min(vmm);
 668:..\u8g2\csrc/mui_u8g2.c ****   uint8_t max = mui_u8g2_u8mm_get_max(vmm);
 669:..\u8g2\csrc/mui_u8g2.c ****   switch(msg)
 670:..\u8g2\csrc/mui_u8g2.c ****   {
 671:..\u8g2\csrc/mui_u8g2.c ****     case MUIF_MSG_DRAW:
 672:..\u8g2\csrc/mui_u8g2.c ****       mui_u8g2_u8_vmm_draw_wm_pf(ui);
 673:..\u8g2\csrc/mui_u8g2.c ****       break;
 674:..\u8g2\csrc/mui_u8g2.c ****     case MUIF_MSG_FORM_START:
 675:..\u8g2\csrc/mui_u8g2.c ****       break;
 676:..\u8g2\csrc/mui_u8g2.c ****     case MUIF_MSG_FORM_END:
 677:..\u8g2\csrc/mui_u8g2.c ****       break;
 678:..\u8g2\csrc/mui_u8g2.c ****     case MUIF_MSG_CURSOR_ENTER:
 679:..\u8g2\csrc/mui_u8g2.c ****       break;
 680:..\u8g2\csrc/mui_u8g2.c ****     case MUIF_MSG_CURSOR_SELECT:
 681:..\u8g2\csrc/mui_u8g2.c ****       (*value)++;
 682:..\u8g2\csrc/mui_u8g2.c ****       if ( *value > max ) *value = min;
 683:..\u8g2\csrc/mui_u8g2.c ****       break;
 684:..\u8g2\csrc/mui_u8g2.c ****     case MUIF_MSG_CURSOR_LEAVE:
 685:..\u8g2\csrc/mui_u8g2.c ****       break;
 686:..\u8g2\csrc/mui_u8g2.c ****     case MUIF_MSG_TOUCH_DOWN:
ARM GAS  C:\Users\brian\AppData\Local\Temp\ccwE2E8f.s 			page 16


 687:..\u8g2\csrc/mui_u8g2.c ****       break;
 688:..\u8g2\csrc/mui_u8g2.c ****     case MUIF_MSG_TOUCH_UP:
 689:..\u8g2\csrc/mui_u8g2.c ****       break;
 690:..\u8g2\csrc/mui_u8g2.c ****   }
 691:..\u8g2\csrc/mui_u8g2.c ****   return 0;
 692:..\u8g2\csrc/mui_u8g2.c **** }
 693:..\u8g2\csrc/mui_u8g2.c **** 
 694:..\u8g2\csrc/mui_u8g2.c **** uint8_t mui_u8g2_u8_min_max_wm_mud_pf(mui_t *ui, uint8_t msg)
 695:..\u8g2\csrc/mui_u8g2.c **** {
 696:..\u8g2\csrc/mui_u8g2.c ****   mui_u8g2_u8_min_max_t *vmm= (mui_u8g2_u8_min_max_t *)muif_get_data(ui->uif);
 697:..\u8g2\csrc/mui_u8g2.c ****   uint8_t *value = mui_u8g2_u8mm_get_valptr(vmm);
 698:..\u8g2\csrc/mui_u8g2.c ****   uint8_t min = mui_u8g2_u8mm_get_min(vmm);
 699:..\u8g2\csrc/mui_u8g2.c ****   uint8_t max = mui_u8g2_u8mm_get_max(vmm);
 700:..\u8g2\csrc/mui_u8g2.c ****   switch(msg)
 701:..\u8g2\csrc/mui_u8g2.c ****   {
 702:..\u8g2\csrc/mui_u8g2.c ****     case MUIF_MSG_DRAW:
 703:..\u8g2\csrc/mui_u8g2.c ****       mui_u8g2_u8_vmm_draw_wm_pf(ui);
 704:..\u8g2\csrc/mui_u8g2.c ****       break;
 705:..\u8g2\csrc/mui_u8g2.c ****     case MUIF_MSG_FORM_START:
 706:..\u8g2\csrc/mui_u8g2.c ****       break;
 707:..\u8g2\csrc/mui_u8g2.c ****     case MUIF_MSG_FORM_END:
 708:..\u8g2\csrc/mui_u8g2.c ****       break;
 709:..\u8g2\csrc/mui_u8g2.c ****     case MUIF_MSG_CURSOR_ENTER:
 710:..\u8g2\csrc/mui_u8g2.c ****       break;
 711:..\u8g2\csrc/mui_u8g2.c ****     case MUIF_MSG_CURSOR_SELECT:
 712:..\u8g2\csrc/mui_u8g2.c ****       /* toggle between normal mode and capture next/prev mode */
 713:..\u8g2\csrc/mui_u8g2.c ****       ui->is_mud = !ui->is_mud;
 714:..\u8g2\csrc/mui_u8g2.c ****       break;
 715:..\u8g2\csrc/mui_u8g2.c ****     case MUIF_MSG_CURSOR_LEAVE:
 716:..\u8g2\csrc/mui_u8g2.c ****       break;
 717:..\u8g2\csrc/mui_u8g2.c ****     case MUIF_MSG_TOUCH_DOWN:
 718:..\u8g2\csrc/mui_u8g2.c ****       break;
 719:..\u8g2\csrc/mui_u8g2.c ****     case MUIF_MSG_TOUCH_UP:
 720:..\u8g2\csrc/mui_u8g2.c ****       break;
 721:..\u8g2\csrc/mui_u8g2.c ****     case MUIF_MSG_EVENT_NEXT:
 722:..\u8g2\csrc/mui_u8g2.c ****       if ( ui->is_mud )
 723:..\u8g2\csrc/mui_u8g2.c ****       {
 724:..\u8g2\csrc/mui_u8g2.c ****         (*value)++;
 725:..\u8g2\csrc/mui_u8g2.c ****         if ( *value > max )
 726:..\u8g2\csrc/mui_u8g2.c ****           *value = min;
 727:..\u8g2\csrc/mui_u8g2.c ****         return 1;
 728:..\u8g2\csrc/mui_u8g2.c ****       }
 729:..\u8g2\csrc/mui_u8g2.c ****       break;
 730:..\u8g2\csrc/mui_u8g2.c ****     case MUIF_MSG_EVENT_PREV:
 731:..\u8g2\csrc/mui_u8g2.c ****       if ( ui->is_mud )
 732:..\u8g2\csrc/mui_u8g2.c ****       {
 733:..\u8g2\csrc/mui_u8g2.c ****         if ( *value <= min )
 734:..\u8g2\csrc/mui_u8g2.c ****           *value = max;
 735:..\u8g2\csrc/mui_u8g2.c ****         else
 736:..\u8g2\csrc/mui_u8g2.c ****           (*value)--;
 737:..\u8g2\csrc/mui_u8g2.c ****         return 1;
 738:..\u8g2\csrc/mui_u8g2.c ****       }
 739:..\u8g2\csrc/mui_u8g2.c ****       break;
 740:..\u8g2\csrc/mui_u8g2.c ****   }
 741:..\u8g2\csrc/mui_u8g2.c ****   return 0;
 742:..\u8g2\csrc/mui_u8g2.c **** }
 743:..\u8g2\csrc/mui_u8g2.c **** 
ARM GAS  C:\Users\brian\AppData\Local\Temp\ccwE2E8f.s 			page 17


 744:..\u8g2\csrc/mui_u8g2.c **** 
 745:..\u8g2\csrc/mui_u8g2.c **** /*===============================================================================*/
 746:..\u8g2\csrc/mui_u8g2.c **** 
 747:..\u8g2\csrc/mui_u8g2.c **** static uint8_t mui_is_valid_char(uint8_t c) MUI_NOINLINE;
 748:..\u8g2\csrc/mui_u8g2.c **** uint8_t mui_is_valid_char(uint8_t c)
 749:..\u8g2\csrc/mui_u8g2.c **** {
 163              		.loc 1 749 0
 164              		.cfi_startproc
 165              		@ args = 0, pretend = 0, frame = 0
 166              		@ frame_needed = 0, uses_anonymous_args = 0
 167              		@ link register save eliminated.
 168              	.LVL28:
 750:..\u8g2\csrc/mui_u8g2.c ****   if ( c == 32 )
 169              		.loc 1 750 0
 170 0000 2028     		cmp	r0, #32
 171 0002 0FD0     		beq	.L17
 751:..\u8g2\csrc/mui_u8g2.c ****     return 1;
 752:..\u8g2\csrc/mui_u8g2.c ****   if ( c >= 'A' && c <= 'Z' )
 172              		.loc 1 752 0
 173 0004 A0F14103 		sub	r3, r0, #65
 174 0008 DBB2     		uxtb	r3, r3
 175 000a 192B     		cmp	r3, #25
 176 000c 0CD9     		bls	.L18
 753:..\u8g2\csrc/mui_u8g2.c ****     return 1;
 754:..\u8g2\csrc/mui_u8g2.c ****   if ( c >= 'a' && c <= 'z' )
 177              		.loc 1 754 0
 178 000e A0F16103 		sub	r3, r0, #97
 179 0012 DBB2     		uxtb	r3, r3
 180 0014 192B     		cmp	r3, #25
 181 0016 09D9     		bls	.L19
 755:..\u8g2\csrc/mui_u8g2.c ****     return 1;
 756:..\u8g2\csrc/mui_u8g2.c ****   if ( c >= '0' && c <= '9' )
 182              		.loc 1 756 0
 183 0018 3038     		subs	r0, r0, #48
 184              	.LVL29:
 185 001a C0B2     		uxtb	r0, r0
 186 001c 0928     		cmp	r0, #9
 187 001e 07D8     		bhi	.L20
 757:..\u8g2\csrc/mui_u8g2.c ****     return 1;
 188              		.loc 1 757 0
 189 0020 0120     		movs	r0, #1
 190 0022 7047     		bx	lr
 191              	.LVL30:
 192              	.L17:
 751:..\u8g2\csrc/mui_u8g2.c ****   if ( c >= 'A' && c <= 'Z' )
 193              		.loc 1 751 0
 194 0024 0120     		movs	r0, #1
 195              	.LVL31:
 196 0026 7047     		bx	lr
 197              	.LVL32:
 198              	.L18:
 753:..\u8g2\csrc/mui_u8g2.c ****   if ( c >= 'a' && c <= 'z' )
 199              		.loc 1 753 0
 200 0028 0120     		movs	r0, #1
 201              	.LVL33:
 202 002a 7047     		bx	lr
 203              	.LVL34:
ARM GAS  C:\Users\brian\AppData\Local\Temp\ccwE2E8f.s 			page 18


 204              	.L19:
 755:..\u8g2\csrc/mui_u8g2.c ****   if ( c >= '0' && c <= '9' )
 205              		.loc 1 755 0
 206 002c 0120     		movs	r0, #1
 207              	.LVL35:
 208 002e 7047     		bx	lr
 209              	.L20:
 758:..\u8g2\csrc/mui_u8g2.c ****   return 0;
 210              		.loc 1 758 0
 211 0030 0020     		movs	r0, #0
 759:..\u8g2\csrc/mui_u8g2.c **** }
 212              		.loc 1 759 0
 213 0032 7047     		bx	lr
 214              		.cfi_endproc
 215              	.LFE25:
 216              		.size	mui_is_valid_char, .-mui_is_valid_char
 217              		.section	.text.u8g2_DrawCheckbox,"ax",%progbits
 218              		.align	2
 219              		.thumb
 220              		.thumb_func
 221              		.type	u8g2_DrawCheckbox, %function
 222              	u8g2_DrawCheckbox:
 223              	.LFB0:
 140:..\u8g2\csrc/mui_u8g2.c ****   u8g2_DrawFrame(u8g2, x, y-w, w, w);
 224              		.loc 1 140 0
 225              		.cfi_startproc
 226              		@ args = 4, pretend = 0, frame = 0
 227              		@ frame_needed = 0, uses_anonymous_args = 0
 228              	.LVL36:
 229 0000 2DE9F041 		push	{r4, r5, r6, r7, r8, lr}
 230              		.cfi_def_cfa_offset 24
 231              		.cfi_offset 4, -24
 232              		.cfi_offset 5, -20
 233              		.cfi_offset 6, -16
 234              		.cfi_offset 7, -12
 235              		.cfi_offset 8, -8
 236              		.cfi_offset 14, -4
 237 0004 82B0     		sub	sp, sp, #8
 238              		.cfi_def_cfa_offset 32
 239 0006 8046     		mov	r8, r0
 240 0008 0E46     		mov	r6, r1
 241 000a 1546     		mov	r5, r2
 242 000c 1C46     		mov	r4, r3
 243 000e BDF82070 		ldrh	r7, [sp, #32]
 141:..\u8g2\csrc/mui_u8g2.c ****   if ( is_checked )
 244              		.loc 1 141 0
 245 0012 D21A     		subs	r2, r2, r3
 246              	.LVL37:
 247 0014 0093     		str	r3, [sp]
 248 0016 92B2     		uxth	r2, r2
 249 0018 FFF7FEFF 		bl	u8g2_DrawFrame
 250              	.LVL38:
 142:..\u8g2\csrc/mui_u8g2.c ****   {
 251              		.loc 1 142 0
 252 001c 57B1     		cbz	r7, .L21
 144:..\u8g2\csrc/mui_u8g2.c ****     u8g2_DrawBox(u8g2, x+2, y-w-2, w, w);
 253              		.loc 1 144 0
ARM GAS  C:\Users\brian\AppData\Local\Temp\ccwE2E8f.s 			page 19


 254 001e 231F     		subs	r3, r4, #4
 255 0020 9BB2     		uxth	r3, r3
 256              	.LVL39:
 145:..\u8g2\csrc/mui_u8g2.c ****   }
 257              		.loc 1 145 0
 258 0022 EA1A     		subs	r2, r5, r3
 259 0024 023A     		subs	r2, r2, #2
 260 0026 B11C     		adds	r1, r6, #2
 261 0028 0093     		str	r3, [sp]
 262 002a 92B2     		uxth	r2, r2
 263 002c 89B2     		uxth	r1, r1
 264 002e 4046     		mov	r0, r8
 265 0030 FFF7FEFF 		bl	u8g2_DrawBox
 266              	.LVL40:
 267              	.L21:
 147:..\u8g2\csrc/mui_u8g2.c **** 
 268              		.loc 1 147 0
 269 0034 02B0     		add	sp, sp, #8
 270              		.cfi_def_cfa_offset 24
 271              		@ sp needed
 272 0036 BDE8F081 		pop	{r4, r5, r6, r7, r8, pc}
 273              		.cfi_endproc
 274              	.LFE0:
 275              		.size	u8g2_DrawCheckbox, .-u8g2_DrawCheckbox
 276 003a 00BF     		.section	.text.u8g2_DrawValueMark,"ax",%progbits
 277              		.align	2
 278              		.thumb
 279              		.thumb_func
 280              		.type	u8g2_DrawValueMark, %function
 281              	u8g2_DrawValueMark:
 282              	.LFB1:
 150:..\u8g2\csrc/mui_u8g2.c ****   u8g2_DrawBox(u8g2, x, y-w, w, w);
 283              		.loc 1 150 0
 284              		.cfi_startproc
 285              		@ args = 0, pretend = 0, frame = 0
 286              		@ frame_needed = 0, uses_anonymous_args = 0
 287              	.LVL41:
 288 0000 10B5     		push	{r4, lr}
 289              		.cfi_def_cfa_offset 8
 290              		.cfi_offset 4, -8
 291              		.cfi_offset 14, -4
 292 0002 82B0     		sub	sp, sp, #8
 293              		.cfi_def_cfa_offset 16
 151:..\u8g2\csrc/mui_u8g2.c **** }
 294              		.loc 1 151 0
 295 0004 D21A     		subs	r2, r2, r3
 296              	.LVL42:
 297 0006 0093     		str	r3, [sp]
 298 0008 92B2     		uxth	r2, r2
 299 000a FFF7FEFF 		bl	u8g2_DrawBox
 300              	.LVL43:
 152:..\u8g2\csrc/mui_u8g2.c **** 
 301              		.loc 1 152 0
 302 000e 02B0     		add	sp, sp, #8
 303              		.cfi_def_cfa_offset 8
 304              		@ sp needed
 305 0010 10BD     		pop	{r4, pc}
ARM GAS  C:\Users\brian\AppData\Local\Temp\ccwE2E8f.s 			page 20


 306              		.cfi_endproc
 307              	.LFE1:
 308              		.size	u8g2_DrawValueMark, .-u8g2_DrawValueMark
 309 0012 00BF     		.section	.text.mui_u8g2_u16_list_child_mse_common,"ax",%progbits
 310              		.align	2
 311              		.thumb
 312              		.thumb_func
 313              		.type	mui_u8g2_u16_list_child_mse_common, %function
 314              	mui_u8g2_u16_list_child_mse_common:
 315              	.LFB41:
 760:..\u8g2\csrc/mui_u8g2.c **** 
 761:..\u8g2\csrc/mui_u8g2.c **** 
 762:..\u8g2\csrc/mui_u8g2.c **** 
 763:..\u8g2\csrc/mui_u8g2.c **** uint8_t mui_u8g2_u8_char_wm_mud_pi(mui_t *ui, uint8_t msg)
 764:..\u8g2\csrc/mui_u8g2.c **** {
 765:..\u8g2\csrc/mui_u8g2.c ****   //ui->dflags                          MUIF_DFLAG_IS_CURSOR_FOCUS       MUIF_DFLAG_IS_TOUCH_FOCUS
 766:..\u8g2\csrc/mui_u8g2.c ****   //mui_get_cflags(ui->uif)       MUIF_CFLAG_IS_CURSOR_SELECTABLE
 767:..\u8g2\csrc/mui_u8g2.c ****   u8g2_t *u8g2 = mui_get_U8g2(ui);
 768:..\u8g2\csrc/mui_u8g2.c ****   uint8_t *value = (uint8_t *)muif_get_data(ui->uif);
 769:..\u8g2\csrc/mui_u8g2.c ****   char buf[6];
 770:..\u8g2\csrc/mui_u8g2.c ****   switch(msg)
 771:..\u8g2\csrc/mui_u8g2.c ****   {
 772:..\u8g2\csrc/mui_u8g2.c ****     case MUIF_MSG_DRAW:
 773:..\u8g2\csrc/mui_u8g2.c ****       while( mui_is_valid_char(*value) == 0 )
 774:..\u8g2\csrc/mui_u8g2.c ****           (*value)++;
 775:..\u8g2\csrc/mui_u8g2.c ****       buf[0] = *value;
 776:..\u8g2\csrc/mui_u8g2.c ****       buf[1] = '\0';
 777:..\u8g2\csrc/mui_u8g2.c ****       mui_u8g2_draw_button_pi(ui, u8g2_GetMaxCharWidth(u8g2), 1, buf);
 778:..\u8g2\csrc/mui_u8g2.c ****       //mui_u8g2_draw_button_utf(ui, mui_u8g2_get_pi_flags(ui), u8g2_GetMaxCharWidth(u8g2), 1, MUI_
 779:..\u8g2\csrc/mui_u8g2.c ****       //u8g2_DrawButtonUTF8(u8g2, mui_get_x(ui), mui_get_y(ui), mui_u8g2_get_pi_flags(ui), u8g2_Get
 780:..\u8g2\csrc/mui_u8g2.c ****       break;
 781:..\u8g2\csrc/mui_u8g2.c ****     case MUIF_MSG_FORM_START:
 782:..\u8g2\csrc/mui_u8g2.c ****       break;
 783:..\u8g2\csrc/mui_u8g2.c ****     case MUIF_MSG_FORM_END:
 784:..\u8g2\csrc/mui_u8g2.c ****       break;
 785:..\u8g2\csrc/mui_u8g2.c ****     case MUIF_MSG_CURSOR_ENTER:
 786:..\u8g2\csrc/mui_u8g2.c ****       break;
 787:..\u8g2\csrc/mui_u8g2.c ****     case MUIF_MSG_CURSOR_SELECT:
 788:..\u8g2\csrc/mui_u8g2.c ****       /* toggle between normal mode and capture next/prev mode */
 789:..\u8g2\csrc/mui_u8g2.c ****        ui->is_mud = !ui->is_mud;
 790:..\u8g2\csrc/mui_u8g2.c ****      break;
 791:..\u8g2\csrc/mui_u8g2.c ****     case MUIF_MSG_CURSOR_LEAVE:
 792:..\u8g2\csrc/mui_u8g2.c ****       break;
 793:..\u8g2\csrc/mui_u8g2.c ****     case MUIF_MSG_TOUCH_DOWN:
 794:..\u8g2\csrc/mui_u8g2.c ****       break;
 795:..\u8g2\csrc/mui_u8g2.c ****     case MUIF_MSG_TOUCH_UP:
 796:..\u8g2\csrc/mui_u8g2.c ****       break;
 797:..\u8g2\csrc/mui_u8g2.c ****     case MUIF_MSG_EVENT_NEXT:
 798:..\u8g2\csrc/mui_u8g2.c ****       if ( ui->is_mud )
 799:..\u8g2\csrc/mui_u8g2.c ****       {
 800:..\u8g2\csrc/mui_u8g2.c ****         do {
 801:..\u8g2\csrc/mui_u8g2.c ****           (*value)++;
 802:..\u8g2\csrc/mui_u8g2.c ****         } while( mui_is_valid_char(*value) == 0 );
 803:..\u8g2\csrc/mui_u8g2.c ****         return 1;
 804:..\u8g2\csrc/mui_u8g2.c ****       }
 805:..\u8g2\csrc/mui_u8g2.c ****       break;
 806:..\u8g2\csrc/mui_u8g2.c ****     case MUIF_MSG_EVENT_PREV:
ARM GAS  C:\Users\brian\AppData\Local\Temp\ccwE2E8f.s 			page 21


 807:..\u8g2\csrc/mui_u8g2.c ****       if ( ui->is_mud )
 808:..\u8g2\csrc/mui_u8g2.c ****       {
 809:..\u8g2\csrc/mui_u8g2.c ****         do {
 810:..\u8g2\csrc/mui_u8g2.c ****           (*value)--;
 811:..\u8g2\csrc/mui_u8g2.c ****         } while( mui_is_valid_char(*value) == 0 );
 812:..\u8g2\csrc/mui_u8g2.c ****         return 1;
 813:..\u8g2\csrc/mui_u8g2.c ****       }
 814:..\u8g2\csrc/mui_u8g2.c ****       break;
 815:..\u8g2\csrc/mui_u8g2.c ****   }
 816:..\u8g2\csrc/mui_u8g2.c ****   return 0;
 817:..\u8g2\csrc/mui_u8g2.c **** }
 818:..\u8g2\csrc/mui_u8g2.c **** 
 819:..\u8g2\csrc/mui_u8g2.c **** 
 820:..\u8g2\csrc/mui_u8g2.c **** 
 821:..\u8g2\csrc/mui_u8g2.c **** 
 822:..\u8g2\csrc/mui_u8g2.c **** 
 823:..\u8g2\csrc/mui_u8g2.c **** /*
 824:..\u8g2\csrc/mui_u8g2.c **** 
 825:..\u8g2\csrc/mui_u8g2.c ****   uint8_t mui_u8g2_u8_opt_line_wa_mse_pi(mui_t *ui, uint8_t msg)
 826:..\u8g2\csrc/mui_u8g2.c **** 
 827:..\u8g2\csrc/mui_u8g2.c ****   Description:
 828:..\u8g2\csrc/mui_u8g2.c ****     Select one of several options. First option has value 0.
 829:..\u8g2\csrc/mui_u8g2.c ****     Only one option is visible.
 830:..\u8g2\csrc/mui_u8g2.c ****     The visible option is automatically the selected option.
 831:..\u8g2\csrc/mui_u8g2.c **** 
 832:..\u8g2\csrc/mui_u8g2.c ****   Message Handling: DRAW, SELECT
 833:..\u8g2\csrc/mui_u8g2.c **** 
 834:..\u8g2\csrc/mui_u8g2.c ****   Style
 835:..\u8g2\csrc/mui_u8g2.c ****     No Selection: Text only
 836:..\u8g2\csrc/mui_u8g2.c ****     Cursor Selection: Inverted text
 837:..\u8g2\csrc/mui_u8g2.c **** 
 838:..\u8g2\csrc/mui_u8g2.c ****   User interface field list (muif):
 839:..\u8g2\csrc/mui_u8g2.c ****     flags: MUIF_CFLAG_IS_CURSOR_SELECTABLE
 840:..\u8g2\csrc/mui_u8g2.c ****     data: uint8_t *, pointer to a uint8_t variable, which contains the selected option 
 841:..\u8g2\csrc/mui_u8g2.c **** 
 842:..\u8g2\csrc/mui_u8g2.c ****   Field definition string (fds):
 843:..\u8g2\csrc/mui_u8g2.c ****     xy: Left position of the text (required)
 844:..\u8g2\csrc/mui_u8g2.c ****     arg: total width of the selectable option (optional), 
 845:..\u8g2\csrc/mui_u8g2.c ****     text: '|' separated list of options
 846:..\u8g2\csrc/mui_u8g2.c ****     
 847:..\u8g2\csrc/mui_u8g2.c **** */
 848:..\u8g2\csrc/mui_u8g2.c **** uint8_t mui_u8g2_u8_opt_line_wa_mse_pi(mui_t *ui, uint8_t msg)
 849:..\u8g2\csrc/mui_u8g2.c **** {
 850:..\u8g2\csrc/mui_u8g2.c ****   //u8g2_t *u8g2 = mui_get_U8g2(ui);
 851:..\u8g2\csrc/mui_u8g2.c ****   uint8_t *value = (uint8_t *)muif_get_data(ui->uif);
 852:..\u8g2\csrc/mui_u8g2.c ****   switch(msg)
 853:..\u8g2\csrc/mui_u8g2.c ****   {
 854:..\u8g2\csrc/mui_u8g2.c ****     case MUIF_MSG_DRAW:
 855:..\u8g2\csrc/mui_u8g2.c ****       if ( mui_fds_get_nth_token(ui, *value) == 0 )
 856:..\u8g2\csrc/mui_u8g2.c ****       {
 857:..\u8g2\csrc/mui_u8g2.c ****         *value = 0;
 858:..\u8g2\csrc/mui_u8g2.c ****         mui_fds_get_nth_token(ui, *value);
 859:..\u8g2\csrc/mui_u8g2.c ****       }
 860:..\u8g2\csrc/mui_u8g2.c ****       mui_u8g2_draw_button_pi(ui, ui->arg, 1, ui->text);
 861:..\u8g2\csrc/mui_u8g2.c ****       //mui_u8g2_draw_button_utf(ui, mui_u8g2_get_pi_flags(ui), ui->arg, 1, MUI_U8G2_V_PADDING, ui-
 862:..\u8g2\csrc/mui_u8g2.c ****       //u8g2_DrawButtonUTF8(u8g2, mui_get_x(ui), mui_get_y(ui), mui_u8g2_get_pi_flags(ui), ui->arg,
 863:..\u8g2\csrc/mui_u8g2.c ****       
ARM GAS  C:\Users\brian\AppData\Local\Temp\ccwE2E8f.s 			page 22


 864:..\u8g2\csrc/mui_u8g2.c ****       break;
 865:..\u8g2\csrc/mui_u8g2.c ****     case MUIF_MSG_FORM_START:
 866:..\u8g2\csrc/mui_u8g2.c ****       break;
 867:..\u8g2\csrc/mui_u8g2.c ****     case MUIF_MSG_FORM_END:
 868:..\u8g2\csrc/mui_u8g2.c ****       break;
 869:..\u8g2\csrc/mui_u8g2.c ****     case MUIF_MSG_CURSOR_ENTER:
 870:..\u8g2\csrc/mui_u8g2.c ****       break;
 871:..\u8g2\csrc/mui_u8g2.c ****     case MUIF_MSG_CURSOR_SELECT:
 872:..\u8g2\csrc/mui_u8g2.c ****       (*value)++;
 873:..\u8g2\csrc/mui_u8g2.c ****       if ( mui_fds_get_nth_token(ui, *value) == 0 ) 
 874:..\u8g2\csrc/mui_u8g2.c ****         *value = 0;      
 875:..\u8g2\csrc/mui_u8g2.c ****       break;
 876:..\u8g2\csrc/mui_u8g2.c ****     case MUIF_MSG_CURSOR_LEAVE:
 877:..\u8g2\csrc/mui_u8g2.c ****       break;
 878:..\u8g2\csrc/mui_u8g2.c ****     case MUIF_MSG_TOUCH_DOWN:
 879:..\u8g2\csrc/mui_u8g2.c ****       break;
 880:..\u8g2\csrc/mui_u8g2.c ****     case MUIF_MSG_TOUCH_UP:
 881:..\u8g2\csrc/mui_u8g2.c ****       break;
 882:..\u8g2\csrc/mui_u8g2.c ****   }
 883:..\u8g2\csrc/mui_u8g2.c ****   return 0;
 884:..\u8g2\csrc/mui_u8g2.c **** }
 885:..\u8g2\csrc/mui_u8g2.c ****    
 886:..\u8g2\csrc/mui_u8g2.c **** uint8_t mui_u8g2_u8_opt_line_wa_mud_pi(mui_t *ui, uint8_t msg)
 887:..\u8g2\csrc/mui_u8g2.c **** {
 888:..\u8g2\csrc/mui_u8g2.c ****   //u8g2_t *u8g2 = mui_get_U8g2(ui);
 889:..\u8g2\csrc/mui_u8g2.c ****   uint8_t *value = (uint8_t *)muif_get_data(ui->uif);
 890:..\u8g2\csrc/mui_u8g2.c ****   switch(msg)
 891:..\u8g2\csrc/mui_u8g2.c ****   {
 892:..\u8g2\csrc/mui_u8g2.c ****     case MUIF_MSG_DRAW:
 893:..\u8g2\csrc/mui_u8g2.c ****       if ( mui_fds_get_nth_token(ui, *value) == 0 )
 894:..\u8g2\csrc/mui_u8g2.c ****       {
 895:..\u8g2\csrc/mui_u8g2.c ****         *value = 0;
 896:..\u8g2\csrc/mui_u8g2.c ****         mui_fds_get_nth_token(ui, *value);
 897:..\u8g2\csrc/mui_u8g2.c ****       }
 898:..\u8g2\csrc/mui_u8g2.c ****       mui_u8g2_draw_button_pi(ui, ui->arg, 1, ui->text);
 899:..\u8g2\csrc/mui_u8g2.c ****       //mui_u8g2_draw_button_utf(ui, mui_u8g2_get_pi_flags(ui), ui->arg, 1, MUI_U8G2_V_PADDING, ui-
 900:..\u8g2\csrc/mui_u8g2.c ****       //u8g2_DrawButtonUTF8(u8g2, mui_get_x(ui), mui_get_y(ui), mui_u8g2_get_pi_flags(ui), ui->arg,
 901:..\u8g2\csrc/mui_u8g2.c ****       
 902:..\u8g2\csrc/mui_u8g2.c ****       break;
 903:..\u8g2\csrc/mui_u8g2.c ****     case MUIF_MSG_FORM_START:
 904:..\u8g2\csrc/mui_u8g2.c ****       break;
 905:..\u8g2\csrc/mui_u8g2.c ****     case MUIF_MSG_FORM_END:
 906:..\u8g2\csrc/mui_u8g2.c ****       break;
 907:..\u8g2\csrc/mui_u8g2.c ****     case MUIF_MSG_CURSOR_ENTER:
 908:..\u8g2\csrc/mui_u8g2.c ****       break;
 909:..\u8g2\csrc/mui_u8g2.c ****     case MUIF_MSG_CURSOR_SELECT:
 910:..\u8g2\csrc/mui_u8g2.c ****       /* toggle between normal mode and capture next/prev mode */
 911:..\u8g2\csrc/mui_u8g2.c ****        ui->is_mud = !ui->is_mud;
 912:..\u8g2\csrc/mui_u8g2.c ****      break;
 913:..\u8g2\csrc/mui_u8g2.c ****     case MUIF_MSG_CURSOR_LEAVE:
 914:..\u8g2\csrc/mui_u8g2.c ****       break;
 915:..\u8g2\csrc/mui_u8g2.c ****     case MUIF_MSG_TOUCH_DOWN:
 916:..\u8g2\csrc/mui_u8g2.c ****       break;
 917:..\u8g2\csrc/mui_u8g2.c ****     case MUIF_MSG_TOUCH_UP:
 918:..\u8g2\csrc/mui_u8g2.c ****       break;
 919:..\u8g2\csrc/mui_u8g2.c ****     case MUIF_MSG_EVENT_NEXT:
 920:..\u8g2\csrc/mui_u8g2.c ****       if ( ui->is_mud )
ARM GAS  C:\Users\brian\AppData\Local\Temp\ccwE2E8f.s 			page 23


 921:..\u8g2\csrc/mui_u8g2.c ****       {
 922:..\u8g2\csrc/mui_u8g2.c ****         (*value)++;
 923:..\u8g2\csrc/mui_u8g2.c ****         if ( mui_fds_get_nth_token(ui, *value) == 0 ) 
 924:..\u8g2\csrc/mui_u8g2.c ****           *value = 0;      
 925:..\u8g2\csrc/mui_u8g2.c ****         return 1;
 926:..\u8g2\csrc/mui_u8g2.c ****       }
 927:..\u8g2\csrc/mui_u8g2.c ****       break;
 928:..\u8g2\csrc/mui_u8g2.c ****     case MUIF_MSG_EVENT_PREV:
 929:..\u8g2\csrc/mui_u8g2.c ****       if ( ui->is_mud )
 930:..\u8g2\csrc/mui_u8g2.c ****       {
 931:..\u8g2\csrc/mui_u8g2.c ****         if ( *value == 0 )
 932:..\u8g2\csrc/mui_u8g2.c ****           *value = mui_fds_get_token_cnt(ui);
 933:..\u8g2\csrc/mui_u8g2.c ****         (*value)--;
 934:..\u8g2\csrc/mui_u8g2.c ****         return 1;
 935:..\u8g2\csrc/mui_u8g2.c ****       }
 936:..\u8g2\csrc/mui_u8g2.c ****       break;
 937:..\u8g2\csrc/mui_u8g2.c ****   }
 938:..\u8g2\csrc/mui_u8g2.c ****   return 0;
 939:..\u8g2\csrc/mui_u8g2.c **** }
 940:..\u8g2\csrc/mui_u8g2.c **** 
 941:..\u8g2\csrc/mui_u8g2.c **** 
 942:..\u8g2\csrc/mui_u8g2.c **** 
 943:..\u8g2\csrc/mui_u8g2.c **** 
 944:..\u8g2\csrc/mui_u8g2.c **** /*
 945:..\u8g2\csrc/mui_u8g2.c **** 
 946:..\u8g2\csrc/mui_u8g2.c ****   uint8_t mui_u8g2_u8_chkbox_wm_pi(mui_t *ui, uint8_t msg)
 947:..\u8g2\csrc/mui_u8g2.c ****   
 948:..\u8g2\csrc/mui_u8g2.c ****   Description:
 949:..\u8g2\csrc/mui_u8g2.c ****     Checkbox with the values 0 (not selected) and 1 (selected). 
 950:..\u8g2\csrc/mui_u8g2.c **** 
 951:..\u8g2\csrc/mui_u8g2.c ****   Message Handling: DRAW, SELECT
 952:..\u8g2\csrc/mui_u8g2.c **** 
 953:..\u8g2\csrc/mui_u8g2.c ****   Style
 954:..\u8g2\csrc/mui_u8g2.c ****     No Selection: Plain checkbox and text
 955:..\u8g2\csrc/mui_u8g2.c ****     Cursor Selection: Checkbox and text is inverted
 956:..\u8g2\csrc/mui_u8g2.c **** 
 957:..\u8g2\csrc/mui_u8g2.c ****   User interface field list (muif):
 958:..\u8g2\csrc/mui_u8g2.c ****     flags: MUIF_CFLAG_IS_CURSOR_SELECTABLE
 959:..\u8g2\csrc/mui_u8g2.c ****     data: uint8_t *, pointer to a uint8_t variable, which contains the values 0 or 1
 960:..\u8g2\csrc/mui_u8g2.c **** 
 961:..\u8g2\csrc/mui_u8g2.c ****   Field definition string (fds):
 962:..\u8g2\csrc/mui_u8g2.c ****     xy: Left position of the text (required)
 963:..\u8g2\csrc/mui_u8g2.c ****     arg: not used
 964:..\u8g2\csrc/mui_u8g2.c ****     text: Optional: Text will be printed after the checkbox with a small gap
 965:..\u8g2\csrc/mui_u8g2.c ****     
 966:..\u8g2\csrc/mui_u8g2.c **** */
 967:..\u8g2\csrc/mui_u8g2.c **** 
 968:..\u8g2\csrc/mui_u8g2.c **** uint8_t mui_u8g2_u8_chkbox_wm_pi(mui_t *ui, uint8_t msg)
 969:..\u8g2\csrc/mui_u8g2.c **** {
 970:..\u8g2\csrc/mui_u8g2.c ****   u8g2_t *u8g2 = mui_get_U8g2(ui);
 971:..\u8g2\csrc/mui_u8g2.c ****   u8g2_uint_t flags = 0;
 972:..\u8g2\csrc/mui_u8g2.c ****   uint8_t *value = (uint8_t *)muif_get_data(ui->uif);
 973:..\u8g2\csrc/mui_u8g2.c ****   switch(msg)
 974:..\u8g2\csrc/mui_u8g2.c ****   {
 975:..\u8g2\csrc/mui_u8g2.c ****     case MUIF_MSG_DRAW:
 976:..\u8g2\csrc/mui_u8g2.c ****       if ( *value > 1 ) *value = 1;
 977:..\u8g2\csrc/mui_u8g2.c ****       if ( mui_IsCursorFocus(ui) )
ARM GAS  C:\Users\brian\AppData\Local\Temp\ccwE2E8f.s 			page 24


 978:..\u8g2\csrc/mui_u8g2.c ****       {
 979:..\u8g2\csrc/mui_u8g2.c ****         flags |= U8G2_BTN_INV;
 980:..\u8g2\csrc/mui_u8g2.c ****       }
 981:..\u8g2\csrc/mui_u8g2.c ****       
 982:..\u8g2\csrc/mui_u8g2.c ****       {
 983:..\u8g2\csrc/mui_u8g2.c ****         u8g2_uint_t w = 0;
 984:..\u8g2\csrc/mui_u8g2.c ****         u8g2_uint_t a = u8g2_GetAscent(u8g2);
 985:..\u8g2\csrc/mui_u8g2.c ****         if ( *value )
 986:..\u8g2\csrc/mui_u8g2.c ****           u8g2_DrawCheckbox(u8g2, mui_get_x(ui), mui_get_y(ui), a, 1);
 987:..\u8g2\csrc/mui_u8g2.c ****         else
 988:..\u8g2\csrc/mui_u8g2.c ****           u8g2_DrawCheckbox(u8g2, mui_get_x(ui), mui_get_y(ui), a, 0);
 989:..\u8g2\csrc/mui_u8g2.c ****         
 990:..\u8g2\csrc/mui_u8g2.c ****         if ( ui->text[0] != '\0' )
 991:..\u8g2\csrc/mui_u8g2.c ****         {
 992:..\u8g2\csrc/mui_u8g2.c ****           w =  u8g2_GetUTF8Width(u8g2, ui->text);
 993:..\u8g2\csrc/mui_u8g2.c ****           //u8g2_SetFontMode(u8g2, 1);
 994:..\u8g2\csrc/mui_u8g2.c ****           a += 2;       /* add gap between the checkbox and the text area */
 995:..\u8g2\csrc/mui_u8g2.c ****           u8g2_DrawUTF8(u8g2, mui_get_x(ui)+a, mui_get_y(ui), ui->text);
 996:..\u8g2\csrc/mui_u8g2.c ****         }
 997:..\u8g2\csrc/mui_u8g2.c ****         
 998:..\u8g2\csrc/mui_u8g2.c ****         u8g2_DrawButtonFrame(u8g2, mui_get_x(ui), mui_get_y(ui), flags, w+a, 1, MUI_U8G2_V_PADDING)
 999:..\u8g2\csrc/mui_u8g2.c ****       }
1000:..\u8g2\csrc/mui_u8g2.c ****       break;
1001:..\u8g2\csrc/mui_u8g2.c ****     case MUIF_MSG_FORM_START:
1002:..\u8g2\csrc/mui_u8g2.c ****       break;
1003:..\u8g2\csrc/mui_u8g2.c ****     case MUIF_MSG_FORM_END:
1004:..\u8g2\csrc/mui_u8g2.c ****       break;
1005:..\u8g2\csrc/mui_u8g2.c ****     case MUIF_MSG_CURSOR_ENTER:
1006:..\u8g2\csrc/mui_u8g2.c ****       break;
1007:..\u8g2\csrc/mui_u8g2.c ****     case MUIF_MSG_CURSOR_SELECT:
1008:..\u8g2\csrc/mui_u8g2.c ****       (*value)++;
1009:..\u8g2\csrc/mui_u8g2.c ****       if ( *value > 1 ) *value = 0;      
1010:..\u8g2\csrc/mui_u8g2.c ****     case MUIF_MSG_CURSOR_LEAVE:
1011:..\u8g2\csrc/mui_u8g2.c ****       break;
1012:..\u8g2\csrc/mui_u8g2.c ****     case MUIF_MSG_TOUCH_DOWN:
1013:..\u8g2\csrc/mui_u8g2.c ****       break;
1014:..\u8g2\csrc/mui_u8g2.c ****     case MUIF_MSG_TOUCH_UP:
1015:..\u8g2\csrc/mui_u8g2.c ****       break;
1016:..\u8g2\csrc/mui_u8g2.c ****   }
1017:..\u8g2\csrc/mui_u8g2.c ****   return 0;
1018:..\u8g2\csrc/mui_u8g2.c **** }
1019:..\u8g2\csrc/mui_u8g2.c **** 
1020:..\u8g2\csrc/mui_u8g2.c **** /*
1021:..\u8g2\csrc/mui_u8g2.c ****   radio button style, arg is assigned as value
1022:..\u8g2\csrc/mui_u8g2.c **** */
1023:..\u8g2\csrc/mui_u8g2.c **** uint8_t mui_u8g2_u8_radio_wm_pi(mui_t *ui, uint8_t msg)
1024:..\u8g2\csrc/mui_u8g2.c **** {
1025:..\u8g2\csrc/mui_u8g2.c ****   u8g2_t *u8g2 = mui_get_U8g2(ui);
1026:..\u8g2\csrc/mui_u8g2.c ****   u8g2_uint_t flags = 0;
1027:..\u8g2\csrc/mui_u8g2.c ****   uint8_t *value = (uint8_t *)muif_get_data(ui->uif);
1028:..\u8g2\csrc/mui_u8g2.c ****   switch(msg)
1029:..\u8g2\csrc/mui_u8g2.c ****   {
1030:..\u8g2\csrc/mui_u8g2.c ****     case MUIF_MSG_DRAW:
1031:..\u8g2\csrc/mui_u8g2.c ****        if ( mui_IsCursorFocus(ui) )
1032:..\u8g2\csrc/mui_u8g2.c ****       {
1033:..\u8g2\csrc/mui_u8g2.c ****         flags |= U8G2_BTN_INV;
1034:..\u8g2\csrc/mui_u8g2.c ****       }
ARM GAS  C:\Users\brian\AppData\Local\Temp\ccwE2E8f.s 			page 25


1035:..\u8g2\csrc/mui_u8g2.c ****       
1036:..\u8g2\csrc/mui_u8g2.c ****       {
1037:..\u8g2\csrc/mui_u8g2.c ****         u8g2_uint_t w = 0;
1038:..\u8g2\csrc/mui_u8g2.c ****         u8g2_uint_t a = u8g2_GetAscent(u8g2);
1039:..\u8g2\csrc/mui_u8g2.c ****         if ( *value == ui->arg )
1040:..\u8g2\csrc/mui_u8g2.c ****           u8g2_DrawCheckbox(u8g2, mui_get_x(ui), mui_get_y(ui), a, 1);
1041:..\u8g2\csrc/mui_u8g2.c ****         else
1042:..\u8g2\csrc/mui_u8g2.c ****           u8g2_DrawCheckbox(u8g2, mui_get_x(ui), mui_get_y(ui), a, 0);
1043:..\u8g2\csrc/mui_u8g2.c ****         
1044:..\u8g2\csrc/mui_u8g2.c ****         if ( ui->text[0] != '\0' )
1045:..\u8g2\csrc/mui_u8g2.c ****         {
1046:..\u8g2\csrc/mui_u8g2.c ****           w =  u8g2_GetUTF8Width(u8g2, ui->text);
1047:..\u8g2\csrc/mui_u8g2.c ****           //u8g2_SetFontMode(u8g2, 1);
1048:..\u8g2\csrc/mui_u8g2.c ****           a += 2;       /* add gap between the checkbox and the text area */
1049:..\u8g2\csrc/mui_u8g2.c ****           u8g2_DrawUTF8(u8g2, mui_get_x(ui)+a, mui_get_y(ui), ui->text);
1050:..\u8g2\csrc/mui_u8g2.c ****         }
1051:..\u8g2\csrc/mui_u8g2.c ****         
1052:..\u8g2\csrc/mui_u8g2.c ****         u8g2_DrawButtonFrame(u8g2, mui_get_x(ui), mui_get_y(ui), flags, w+a, 1, MUI_U8G2_V_PADDING)
1053:..\u8g2\csrc/mui_u8g2.c ****       }
1054:..\u8g2\csrc/mui_u8g2.c ****       break;
1055:..\u8g2\csrc/mui_u8g2.c ****    case MUIF_MSG_FORM_START:
1056:..\u8g2\csrc/mui_u8g2.c ****       break;
1057:..\u8g2\csrc/mui_u8g2.c ****     case MUIF_MSG_FORM_END:
1058:..\u8g2\csrc/mui_u8g2.c ****       break;
1059:..\u8g2\csrc/mui_u8g2.c ****     case MUIF_MSG_CURSOR_ENTER:
1060:..\u8g2\csrc/mui_u8g2.c ****       break;
1061:..\u8g2\csrc/mui_u8g2.c ****     case MUIF_MSG_CURSOR_SELECT:
1062:..\u8g2\csrc/mui_u8g2.c ****       *value = ui->arg;
1063:..\u8g2\csrc/mui_u8g2.c ****       break;
1064:..\u8g2\csrc/mui_u8g2.c ****     case MUIF_MSG_CURSOR_LEAVE:
1065:..\u8g2\csrc/mui_u8g2.c ****       break;
1066:..\u8g2\csrc/mui_u8g2.c ****     case MUIF_MSG_TOUCH_DOWN:
1067:..\u8g2\csrc/mui_u8g2.c ****       break;
1068:..\u8g2\csrc/mui_u8g2.c ****     case MUIF_MSG_TOUCH_UP:
1069:..\u8g2\csrc/mui_u8g2.c ****       break;
1070:..\u8g2\csrc/mui_u8g2.c ****   }
1071:..\u8g2\csrc/mui_u8g2.c ****   return 0;  
1072:..\u8g2\csrc/mui_u8g2.c **** }
1073:..\u8g2\csrc/mui_u8g2.c **** 
1074:..\u8g2\csrc/mui_u8g2.c **** 
1075:..\u8g2\csrc/mui_u8g2.c **** uint8_t mui_u8g2_u8_opt_parent_wm_mse_pi(mui_t *ui, uint8_t msg)
1076:..\u8g2\csrc/mui_u8g2.c **** {
1077:..\u8g2\csrc/mui_u8g2.c ****   uint8_t *value = (uint8_t *)muif_get_data(ui->uif);
1078:..\u8g2\csrc/mui_u8g2.c ****   switch(msg)
1079:..\u8g2\csrc/mui_u8g2.c ****   {
1080:..\u8g2\csrc/mui_u8g2.c ****     case MUIF_MSG_DRAW:
1081:..\u8g2\csrc/mui_u8g2.c ****       if ( mui_fds_get_nth_token(ui, *value) == 0 )
1082:..\u8g2\csrc/mui_u8g2.c ****       {
1083:..\u8g2\csrc/mui_u8g2.c ****         *value = 0;
1084:..\u8g2\csrc/mui_u8g2.c ****         mui_fds_get_nth_token(ui, *value);
1085:..\u8g2\csrc/mui_u8g2.c ****       }      
1086:..\u8g2\csrc/mui_u8g2.c ****       mui_u8g2_draw_button_pi(ui, 0, 1, ui->text);
1087:..\u8g2\csrc/mui_u8g2.c ****       //mui_u8g2_draw_button_utf(ui, mui_u8g2_get_pi_flags(ui), 0, 1, MUI_U8G2_V_PADDING, ui->text)
1088:..\u8g2\csrc/mui_u8g2.c ****       
1089:..\u8g2\csrc/mui_u8g2.c ****       break;
1090:..\u8g2\csrc/mui_u8g2.c ****     case MUIF_MSG_FORM_START:
1091:..\u8g2\csrc/mui_u8g2.c ****       break;
ARM GAS  C:\Users\brian\AppData\Local\Temp\ccwE2E8f.s 			page 26


1092:..\u8g2\csrc/mui_u8g2.c ****     case MUIF_MSG_FORM_END:
1093:..\u8g2\csrc/mui_u8g2.c ****       break;
1094:..\u8g2\csrc/mui_u8g2.c ****     case MUIF_MSG_CURSOR_ENTER:
1095:..\u8g2\csrc/mui_u8g2.c ****       break;
1096:..\u8g2\csrc/mui_u8g2.c ****     case MUIF_MSG_CURSOR_SELECT:
1097:..\u8g2\csrc/mui_u8g2.c ****       mui_SaveForm(ui);          // store the current form and position so that the child can jump 
1098:..\u8g2\csrc/mui_u8g2.c ****       mui_GotoForm(ui, ui->arg, *value);  // assumes that the selectable values are at the beginnin
1099:..\u8g2\csrc/mui_u8g2.c ****       break;
1100:..\u8g2\csrc/mui_u8g2.c ****     case MUIF_MSG_CURSOR_LEAVE:
1101:..\u8g2\csrc/mui_u8g2.c ****       break;
1102:..\u8g2\csrc/mui_u8g2.c ****     case MUIF_MSG_TOUCH_DOWN:
1103:..\u8g2\csrc/mui_u8g2.c ****       break;
1104:..\u8g2\csrc/mui_u8g2.c ****     case MUIF_MSG_TOUCH_UP:
1105:..\u8g2\csrc/mui_u8g2.c ****       break;
1106:..\u8g2\csrc/mui_u8g2.c ****   }
1107:..\u8g2\csrc/mui_u8g2.c ****   return 0;
1108:..\u8g2\csrc/mui_u8g2.c **** }
1109:..\u8g2\csrc/mui_u8g2.c **** 
1110:..\u8g2\csrc/mui_u8g2.c **** 
1111:..\u8g2\csrc/mui_u8g2.c **** uint8_t mui_u8g2_u8_opt_child_mse_common(mui_t *ui, uint8_t msg)
1112:..\u8g2\csrc/mui_u8g2.c **** {
1113:..\u8g2\csrc/mui_u8g2.c ****   uint8_t *value = (uint8_t *)muif_get_data(ui->uif);
1114:..\u8g2\csrc/mui_u8g2.c ****   uint8_t arg = ui->arg;        // remember the arg value, because it might be overwritten
1115:..\u8g2\csrc/mui_u8g2.c ****   
1116:..\u8g2\csrc/mui_u8g2.c ****   switch(msg)
1117:..\u8g2\csrc/mui_u8g2.c ****   {
1118:..\u8g2\csrc/mui_u8g2.c ****     case MUIF_MSG_DRAW:
1119:..\u8g2\csrc/mui_u8g2.c ****       /* done by the calling function */
1120:..\u8g2\csrc/mui_u8g2.c ****       break;
1121:..\u8g2\csrc/mui_u8g2.c ****     case MUIF_MSG_FORM_START:
1122:..\u8g2\csrc/mui_u8g2.c ****       /* we can assume that the list starts at the top. It will be adjisted by cursor down events l
1123:..\u8g2\csrc/mui_u8g2.c ****       /* ui->form_scroll_top = 0 and all other form_scroll values are set to 0 if a new form is ent
1124:..\u8g2\csrc/mui_u8g2.c ****       if ( ui->form_scroll_visible <= arg )
1125:..\u8g2\csrc/mui_u8g2.c ****         ui->form_scroll_visible = arg+1;
1126:..\u8g2\csrc/mui_u8g2.c ****       if ( ui->form_scroll_total == 0 )
1127:..\u8g2\csrc/mui_u8g2.c ****           ui->form_scroll_total = mui_GetSelectableFieldOptionCnt(ui, ui->last_form_fds);
1128:..\u8g2\csrc/mui_u8g2.c ****       //printf("MUIF_MSG_FORM_START: arg=%d visible=%d top=%d total=%d\n", arg, ui->form_scroll_vis
1129:..\u8g2\csrc/mui_u8g2.c ****       break;
1130:..\u8g2\csrc/mui_u8g2.c ****     case MUIF_MSG_FORM_END:  
1131:..\u8g2\csrc/mui_u8g2.c ****       break;
1132:..\u8g2\csrc/mui_u8g2.c ****     case MUIF_MSG_CURSOR_ENTER:
1133:..\u8g2\csrc/mui_u8g2.c ****       return mui_u8g2_handle_scroll_next_prev_events(ui, msg);
1134:..\u8g2\csrc/mui_u8g2.c ****     case MUIF_MSG_CURSOR_SELECT:
1135:..\u8g2\csrc/mui_u8g2.c ****       if ( value != NULL )
1136:..\u8g2\csrc/mui_u8g2.c ****         *value = ui->form_scroll_top + arg;
1137:..\u8g2\csrc/mui_u8g2.c ****       mui_RestoreForm(ui);
1138:..\u8g2\csrc/mui_u8g2.c ****       break;
1139:..\u8g2\csrc/mui_u8g2.c ****     case MUIF_MSG_CURSOR_LEAVE:
1140:..\u8g2\csrc/mui_u8g2.c ****       break;
1141:..\u8g2\csrc/mui_u8g2.c ****     case MUIF_MSG_TOUCH_DOWN:
1142:..\u8g2\csrc/mui_u8g2.c ****       break;
1143:..\u8g2\csrc/mui_u8g2.c ****     case MUIF_MSG_TOUCH_UP:
1144:..\u8g2\csrc/mui_u8g2.c ****       break;
1145:..\u8g2\csrc/mui_u8g2.c ****     case MUIF_MSG_EVENT_NEXT:
1146:..\u8g2\csrc/mui_u8g2.c ****       return mui_u8g2_handle_scroll_next_prev_events(ui, msg);
1147:..\u8g2\csrc/mui_u8g2.c ****     case MUIF_MSG_EVENT_PREV:
1148:..\u8g2\csrc/mui_u8g2.c ****       return mui_u8g2_handle_scroll_next_prev_events(ui, msg);
ARM GAS  C:\Users\brian\AppData\Local\Temp\ccwE2E8f.s 			page 27


1149:..\u8g2\csrc/mui_u8g2.c ****   }
1150:..\u8g2\csrc/mui_u8g2.c ****   return 0;
1151:..\u8g2\csrc/mui_u8g2.c **** }
1152:..\u8g2\csrc/mui_u8g2.c **** 
1153:..\u8g2\csrc/mui_u8g2.c **** 
1154:..\u8g2\csrc/mui_u8g2.c **** uint8_t mui_u8g2_u8_opt_radio_child_wm_mse_pi(mui_t *ui, uint8_t msg)
1155:..\u8g2\csrc/mui_u8g2.c **** {
1156:..\u8g2\csrc/mui_u8g2.c ****   u8g2_t *u8g2 = mui_get_U8g2(ui);
1157:..\u8g2\csrc/mui_u8g2.c ****   uint8_t *value = (uint8_t *)muif_get_data(ui->uif);
1158:..\u8g2\csrc/mui_u8g2.c ****   uint8_t arg = ui->arg;        // remember the arg value, because it might be overwritten
1159:..\u8g2\csrc/mui_u8g2.c ****   
1160:..\u8g2\csrc/mui_u8g2.c ****   switch(msg)
1161:..\u8g2\csrc/mui_u8g2.c ****   {
1162:..\u8g2\csrc/mui_u8g2.c ****     case MUIF_MSG_DRAW:
1163:..\u8g2\csrc/mui_u8g2.c ****       {
1164:..\u8g2\csrc/mui_u8g2.c ****         u8g2_uint_t w = 0;
1165:..\u8g2\csrc/mui_u8g2.c ****         u8g2_uint_t a = u8g2_GetAscent(u8g2) - 2;
1166:..\u8g2\csrc/mui_u8g2.c ****         u8g2_uint_t x = mui_get_x(ui);   // if mui_GetSelectableFieldTextOption is called, then fie
1167:..\u8g2\csrc/mui_u8g2.c ****         u8g2_uint_t y = mui_get_y(ui);  // if mui_GetSelectableFieldTextOption is called, then fiel
1168:..\u8g2\csrc/mui_u8g2.c ****         uint8_t is_focus = mui_IsCursorFocus(ui);
1169:..\u8g2\csrc/mui_u8g2.c ****         if ( *value == arg + ui->form_scroll_top )
1170:..\u8g2\csrc/mui_u8g2.c ****           u8g2_DrawValueMark(u8g2, x, y, a);
1171:..\u8g2\csrc/mui_u8g2.c **** 
1172:..\u8g2\csrc/mui_u8g2.c ****         if ( ui->text[0] == '\0' )
1173:..\u8g2\csrc/mui_u8g2.c ****         {
1174:..\u8g2\csrc/mui_u8g2.c ****           /* if the text is not provided, then try to get the text from the previous (saved) elemen
1175:..\u8g2\csrc/mui_u8g2.c ****           /* this will overwrite all ui member functions, so we must not access any ui members (exc
1176:..\u8g2\csrc/mui_u8g2.c ****           mui_GetSelectableFieldTextOption(ui, ui->last_form_fds, arg + ui->form_scroll_top);
1177:..\u8g2\csrc/mui_u8g2.c ****         }
1178:..\u8g2\csrc/mui_u8g2.c ****         
1179:..\u8g2\csrc/mui_u8g2.c ****         if ( ui->text[0] != '\0' )
1180:..\u8g2\csrc/mui_u8g2.c ****         {
1181:..\u8g2\csrc/mui_u8g2.c ****           w =  u8g2_GetUTF8Width(u8g2, ui->text);
1182:..\u8g2\csrc/mui_u8g2.c ****           //u8g2_SetFontMode(u8g2, 1);
1183:..\u8g2\csrc/mui_u8g2.c ****           a += 2;       /* add gap between the checkbox and the text area */
1184:..\u8g2\csrc/mui_u8g2.c ****           u8g2_DrawUTF8(u8g2, x+a, y, ui->text);
1185:..\u8g2\csrc/mui_u8g2.c ****         }        
1186:..\u8g2\csrc/mui_u8g2.c ****         if ( is_focus )
1187:..\u8g2\csrc/mui_u8g2.c ****         {
1188:..\u8g2\csrc/mui_u8g2.c ****           u8g2_DrawButtonFrame(u8g2, x, y, U8G2_BTN_INV, w+a, 1, MUI_U8G2_V_PADDING);
1189:..\u8g2\csrc/mui_u8g2.c ****         }
1190:..\u8g2\csrc/mui_u8g2.c ****       }
1191:..\u8g2\csrc/mui_u8g2.c ****       break;
1192:..\u8g2\csrc/mui_u8g2.c ****     default:
1193:..\u8g2\csrc/mui_u8g2.c ****       return mui_u8g2_u8_opt_child_mse_common(ui, msg);
1194:..\u8g2\csrc/mui_u8g2.c ****   }
1195:..\u8g2\csrc/mui_u8g2.c ****   return 0;
1196:..\u8g2\csrc/mui_u8g2.c **** }
1197:..\u8g2\csrc/mui_u8g2.c **** 
1198:..\u8g2\csrc/mui_u8g2.c **** 
1199:..\u8g2\csrc/mui_u8g2.c **** uint8_t mui_u8g2_u8_opt_radio_child_w1_mse_pi(mui_t *ui, uint8_t msg)
1200:..\u8g2\csrc/mui_u8g2.c **** {
1201:..\u8g2\csrc/mui_u8g2.c ****   u8g2_t *u8g2 = mui_get_U8g2(ui);
1202:..\u8g2\csrc/mui_u8g2.c ****   uint8_t *value = (uint8_t *)muif_get_data(ui->uif);
1203:..\u8g2\csrc/mui_u8g2.c ****   uint8_t arg = ui->arg;        // remember the arg value, because it might be overwritten
1204:..\u8g2\csrc/mui_u8g2.c ****   
1205:..\u8g2\csrc/mui_u8g2.c ****   switch(msg)
ARM GAS  C:\Users\brian\AppData\Local\Temp\ccwE2E8f.s 			page 28


1206:..\u8g2\csrc/mui_u8g2.c ****   {
1207:..\u8g2\csrc/mui_u8g2.c ****     case MUIF_MSG_DRAW:
1208:..\u8g2\csrc/mui_u8g2.c ****       {
1209:..\u8g2\csrc/mui_u8g2.c ****         //u8g2_uint_t w = 0;
1210:..\u8g2\csrc/mui_u8g2.c ****         u8g2_uint_t a = u8g2_GetAscent(u8g2) - 2;
1211:..\u8g2\csrc/mui_u8g2.c ****         u8g2_uint_t x = mui_get_x(ui);   // if mui_GetSelectableFieldTextOption is called, then fie
1212:..\u8g2\csrc/mui_u8g2.c ****         u8g2_uint_t y = mui_get_y(ui);  // if mui_GetSelectableFieldTextOption is called, then fiel
1213:..\u8g2\csrc/mui_u8g2.c ****         uint8_t is_focus = mui_IsCursorFocus(ui);
1214:..\u8g2\csrc/mui_u8g2.c ****         
1215:..\u8g2\csrc/mui_u8g2.c ****         if ( *value == arg + ui->form_scroll_top )
1216:..\u8g2\csrc/mui_u8g2.c ****           u8g2_DrawValueMark(u8g2, x, y, a);
1217:..\u8g2\csrc/mui_u8g2.c **** 
1218:..\u8g2\csrc/mui_u8g2.c ****         if ( ui->text[0] == '\0' )
1219:..\u8g2\csrc/mui_u8g2.c ****         {
1220:..\u8g2\csrc/mui_u8g2.c ****           /* if the text is not provided, then try to get the text from the previous (saved) elemen
1221:..\u8g2\csrc/mui_u8g2.c ****           /* this will overwrite all ui member functions, so we must not access any ui members (exc
1222:..\u8g2\csrc/mui_u8g2.c ****           mui_GetSelectableFieldTextOption(ui, ui->last_form_fds, arg + ui->form_scroll_top);
1223:..\u8g2\csrc/mui_u8g2.c ****         }
1224:..\u8g2\csrc/mui_u8g2.c ****         
1225:..\u8g2\csrc/mui_u8g2.c ****         if ( ui->text[0] != '\0' )
1226:..\u8g2\csrc/mui_u8g2.c ****         {
1227:..\u8g2\csrc/mui_u8g2.c ****           //w =  u8g2_GetUTF8Width(u8g2, ui->text);
1228:..\u8g2\csrc/mui_u8g2.c ****           //u8g2_SetFontMode(u8g2, 1);
1229:..\u8g2\csrc/mui_u8g2.c ****           a += 2;       /* add gap between the checkbox and the text area */
1230:..\u8g2\csrc/mui_u8g2.c ****           u8g2_DrawUTF8(u8g2, x+a, y, ui->text);
1231:..\u8g2\csrc/mui_u8g2.c ****         }        
1232:..\u8g2\csrc/mui_u8g2.c ****         if ( is_focus )
1233:..\u8g2\csrc/mui_u8g2.c ****         {
1234:..\u8g2\csrc/mui_u8g2.c ****           u8g2_DrawButtonFrame(u8g2, 0, y, U8G2_BTN_INV, u8g2_GetDisplayWidth(u8g2), 0, MUI_U8G2_V_
1235:..\u8g2\csrc/mui_u8g2.c ****         }
1236:..\u8g2\csrc/mui_u8g2.c ****       }
1237:..\u8g2\csrc/mui_u8g2.c ****       break;
1238:..\u8g2\csrc/mui_u8g2.c ****     default:
1239:..\u8g2\csrc/mui_u8g2.c ****       return mui_u8g2_u8_opt_child_mse_common(ui, msg);
1240:..\u8g2\csrc/mui_u8g2.c ****   }
1241:..\u8g2\csrc/mui_u8g2.c ****   return 0;
1242:..\u8g2\csrc/mui_u8g2.c **** }
1243:..\u8g2\csrc/mui_u8g2.c **** 
1244:..\u8g2\csrc/mui_u8g2.c **** 
1245:..\u8g2\csrc/mui_u8g2.c **** uint8_t mui_u8g2_u8_opt_child_wm_mse_pi(mui_t *ui, uint8_t msg)
1246:..\u8g2\csrc/mui_u8g2.c **** {
1247:..\u8g2\csrc/mui_u8g2.c ****   u8g2_t *u8g2 = mui_get_U8g2(ui);
1248:..\u8g2\csrc/mui_u8g2.c ****   //uint8_t *value = (uint8_t *)muif_get_data(ui->uif);
1249:..\u8g2\csrc/mui_u8g2.c ****   uint8_t arg = ui->arg;        // remember the arg value, because it might be overwritten
1250:..\u8g2\csrc/mui_u8g2.c ****   
1251:..\u8g2\csrc/mui_u8g2.c ****   switch(msg)
1252:..\u8g2\csrc/mui_u8g2.c ****   {
1253:..\u8g2\csrc/mui_u8g2.c ****     case MUIF_MSG_DRAW:
1254:..\u8g2\csrc/mui_u8g2.c ****       {
1255:..\u8g2\csrc/mui_u8g2.c ****         //u8g2_uint_t w = 0;
1256:..\u8g2\csrc/mui_u8g2.c ****         u8g2_uint_t x = mui_get_x(ui);   // if mui_GetSelectableFieldTextOption is called, then fie
1257:..\u8g2\csrc/mui_u8g2.c ****         u8g2_uint_t y = mui_get_y(ui);  // if mui_GetSelectableFieldTextOption is called, then fiel
1258:..\u8g2\csrc/mui_u8g2.c ****         uint8_t flags = mui_u8g2_get_pi_flags(ui);
1259:..\u8g2\csrc/mui_u8g2.c ****         //if ( mui_IsCursorFocus(ui) )
1260:..\u8g2\csrc/mui_u8g2.c ****         //{
1261:..\u8g2\csrc/mui_u8g2.c ****         //  flags = U8G2_BTN_INV;
1262:..\u8g2\csrc/mui_u8g2.c ****         //}
ARM GAS  C:\Users\brian\AppData\Local\Temp\ccwE2E8f.s 			page 29


1263:..\u8g2\csrc/mui_u8g2.c **** 
1264:..\u8g2\csrc/mui_u8g2.c ****         if ( ui->text[0] == '\0' )
1265:..\u8g2\csrc/mui_u8g2.c ****         {
1266:..\u8g2\csrc/mui_u8g2.c ****           /* if the text is not provided, then try to get the text from the previous (saved) elemen
1267:..\u8g2\csrc/mui_u8g2.c ****           /* this will overwrite all ui member functions, so we must not access any ui members (exc
1268:..\u8g2\csrc/mui_u8g2.c ****           mui_GetSelectableFieldTextOption(ui, ui->last_form_fds, arg + ui->form_scroll_top);
1269:..\u8g2\csrc/mui_u8g2.c ****         }
1270:..\u8g2\csrc/mui_u8g2.c ****         if ( ui->text[0] != '\0' )
1271:..\u8g2\csrc/mui_u8g2.c ****         {
1272:..\u8g2\csrc/mui_u8g2.c ****           u8g2_DrawButtonUTF8(u8g2, x, y, flags, 0, 1, MUI_U8G2_V_PADDING, ui->text);
1273:..\u8g2\csrc/mui_u8g2.c ****         }        
1274:..\u8g2\csrc/mui_u8g2.c ****       }
1275:..\u8g2\csrc/mui_u8g2.c ****       break;
1276:..\u8g2\csrc/mui_u8g2.c ****     default:
1277:..\u8g2\csrc/mui_u8g2.c ****       return mui_u8g2_u8_opt_child_mse_common(ui, msg);
1278:..\u8g2\csrc/mui_u8g2.c ****   }
1279:..\u8g2\csrc/mui_u8g2.c ****   return 0;
1280:..\u8g2\csrc/mui_u8g2.c **** }
1281:..\u8g2\csrc/mui_u8g2.c **** 
1282:..\u8g2\csrc/mui_u8g2.c **** /* 
1283:..\u8g2\csrc/mui_u8g2.c ****   an invisible field (which will not show anything). It should also not be selectable 
1284:..\u8g2\csrc/mui_u8g2.c ****   it just provides the menu entries, see "mui_u8g2_u8_opt_child_mse_common" and friends 
1285:..\u8g2\csrc/mui_u8g2.c ****   as a consequence it does not have width, input mode and style
1286:..\u8g2\csrc/mui_u8g2.c **** */
1287:..\u8g2\csrc/mui_u8g2.c **** uint8_t mui_u8g2_goto_parent(mui_t *ui, uint8_t msg)
1288:..\u8g2\csrc/mui_u8g2.c **** {
1289:..\u8g2\csrc/mui_u8g2.c ****   switch(msg)
1290:..\u8g2\csrc/mui_u8g2.c ****   {
1291:..\u8g2\csrc/mui_u8g2.c ****     case MUIF_MSG_DRAW:
1292:..\u8g2\csrc/mui_u8g2.c ****       break;
1293:..\u8g2\csrc/mui_u8g2.c ****     case MUIF_MSG_FORM_START:
1294:..\u8g2\csrc/mui_u8g2.c ****       // store the field (and the corresponding elements) in the last_form_fds variable.
1295:..\u8g2\csrc/mui_u8g2.c ****       // last_form_fds is later used to access the elements (see mui_u8g2_u8_opt_child_mse_common a
1296:..\u8g2\csrc/mui_u8g2.c ****       ui->last_form_fds = ui->fds;
1297:..\u8g2\csrc/mui_u8g2.c ****       break;
1298:..\u8g2\csrc/mui_u8g2.c ****     case MUIF_MSG_FORM_END:
1299:..\u8g2\csrc/mui_u8g2.c ****       break;
1300:..\u8g2\csrc/mui_u8g2.c ****     case MUIF_MSG_CURSOR_ENTER:
1301:..\u8g2\csrc/mui_u8g2.c ****       break;
1302:..\u8g2\csrc/mui_u8g2.c ****     case MUIF_MSG_CURSOR_SELECT:
1303:..\u8g2\csrc/mui_u8g2.c ****       break;
1304:..\u8g2\csrc/mui_u8g2.c ****     case MUIF_MSG_CURSOR_LEAVE:
1305:..\u8g2\csrc/mui_u8g2.c ****       break;
1306:..\u8g2\csrc/mui_u8g2.c ****     case MUIF_MSG_TOUCH_DOWN:
1307:..\u8g2\csrc/mui_u8g2.c ****       break;
1308:..\u8g2\csrc/mui_u8g2.c ****     case MUIF_MSG_TOUCH_UP:
1309:..\u8g2\csrc/mui_u8g2.c ****       break;
1310:..\u8g2\csrc/mui_u8g2.c ****   }
1311:..\u8g2\csrc/mui_u8g2.c ****   return 0;
1312:..\u8g2\csrc/mui_u8g2.c **** }
1313:..\u8g2\csrc/mui_u8g2.c **** 
1314:..\u8g2\csrc/mui_u8g2.c **** 
1315:..\u8g2\csrc/mui_u8g2.c **** 
1316:..\u8g2\csrc/mui_u8g2.c **** uint8_t mui_u8g2_goto_child_w1_mse_pi(mui_t *ui, uint8_t msg)
1317:..\u8g2\csrc/mui_u8g2.c **** {
1318:..\u8g2\csrc/mui_u8g2.c ****   u8g2_t *u8g2 = mui_get_U8g2(ui);
1319:..\u8g2\csrc/mui_u8g2.c ****   uint8_t arg = ui->arg;        // remember the arg value, because it might be overwritten  
ARM GAS  C:\Users\brian\AppData\Local\Temp\ccwE2E8f.s 			page 30


1320:..\u8g2\csrc/mui_u8g2.c ****   switch(msg)
1321:..\u8g2\csrc/mui_u8g2.c ****   {
1322:..\u8g2\csrc/mui_u8g2.c ****     case MUIF_MSG_DRAW:
1323:..\u8g2\csrc/mui_u8g2.c ****       if ( mui_GetSelectableFieldTextOption(ui, ui->last_form_fds, arg + ui->form_scroll_top) )
1324:..\u8g2\csrc/mui_u8g2.c ****         mui_u8g2_draw_button_pi(ui, u8g2_GetDisplayWidth(u8g2)-mui_get_x(ui)*2, mui_get_x(ui), ui->
1325:..\u8g2\csrc/mui_u8g2.c ****       break;
1326:..\u8g2\csrc/mui_u8g2.c ****     case MUIF_MSG_CURSOR_SELECT:
1327:..\u8g2\csrc/mui_u8g2.c ****       if ( mui_GetSelectableFieldTextOption(ui, ui->last_form_fds, ui->arg + ui->form_scroll_top) )
1328:..\u8g2\csrc/mui_u8g2.c ****         return mui_GotoForm(ui, (uint8_t)ui->text[0], 0);
1329:..\u8g2\csrc/mui_u8g2.c ****       break;
1330:..\u8g2\csrc/mui_u8g2.c ****     default:
1331:..\u8g2\csrc/mui_u8g2.c ****       return mui_u8g2_u8_opt_child_mse_common(ui, msg);
1332:..\u8g2\csrc/mui_u8g2.c ****   }
1333:..\u8g2\csrc/mui_u8g2.c ****   return 0;
1334:..\u8g2\csrc/mui_u8g2.c **** }
1335:..\u8g2\csrc/mui_u8g2.c **** 
1336:..\u8g2\csrc/mui_u8g2.c **** 
1337:..\u8g2\csrc/mui_u8g2.c **** /*
1338:..\u8g2\csrc/mui_u8g2.c ****   data: mui_u8g2_list_t *
1339:..\u8g2\csrc/mui_u8g2.c **** */
1340:..\u8g2\csrc/mui_u8g2.c **** uint8_t mui_u8g2_u16_list_line_wa_mse_pi(mui_t *ui, uint8_t msg)
1341:..\u8g2\csrc/mui_u8g2.c **** {
1342:..\u8g2\csrc/mui_u8g2.c ****   //u8g2_t *u8g2 = mui_get_U8g2(ui);
1343:..\u8g2\csrc/mui_u8g2.c ****   mui_u8g2_list_t *list = (mui_u8g2_list_t *)muif_get_data(ui->uif);
1344:..\u8g2\csrc/mui_u8g2.c ****   uint16_t *selection =  mui_u8g2_list_get_selection_ptr(list);
1345:..\u8g2\csrc/mui_u8g2.c ****   void *data = mui_u8g2_list_get_data_ptr(list);
1346:..\u8g2\csrc/mui_u8g2.c ****   mui_u8g2_get_list_element_cb element_cb =  mui_u8g2_list_get_element_cb(list);
1347:..\u8g2\csrc/mui_u8g2.c ****   mui_u8g2_get_list_count_cb count_cb = mui_u8g2_list_get_count_cb(list);
1348:..\u8g2\csrc/mui_u8g2.c ****   
1349:..\u8g2\csrc/mui_u8g2.c ****   switch(msg)
1350:..\u8g2\csrc/mui_u8g2.c ****   {
1351:..\u8g2\csrc/mui_u8g2.c ****     case MUIF_MSG_DRAW:
1352:..\u8g2\csrc/mui_u8g2.c ****       mui_u8g2_draw_button_pi(ui, ui->arg, 1, element_cb(data, *selection));
1353:..\u8g2\csrc/mui_u8g2.c ****       //mui_u8g2_draw_button_utf(ui, mui_u8g2_get_pi_flags(ui), ui->arg, 1, MUI_U8G2_V_PADDING, ele
1354:..\u8g2\csrc/mui_u8g2.c ****       break;
1355:..\u8g2\csrc/mui_u8g2.c ****     case MUIF_MSG_FORM_START:
1356:..\u8g2\csrc/mui_u8g2.c ****       break;
1357:..\u8g2\csrc/mui_u8g2.c ****     case MUIF_MSG_FORM_END:
1358:..\u8g2\csrc/mui_u8g2.c ****       break;
1359:..\u8g2\csrc/mui_u8g2.c ****     case MUIF_MSG_CURSOR_ENTER:
1360:..\u8g2\csrc/mui_u8g2.c ****       break;
1361:..\u8g2\csrc/mui_u8g2.c ****     case MUIF_MSG_CURSOR_SELECT:
1362:..\u8g2\csrc/mui_u8g2.c ****       (*selection)++;
1363:..\u8g2\csrc/mui_u8g2.c ****       if ( *selection >= count_cb(data) ) 
1364:..\u8g2\csrc/mui_u8g2.c ****         *selection = 0;
1365:..\u8g2\csrc/mui_u8g2.c ****       break;
1366:..\u8g2\csrc/mui_u8g2.c ****     case MUIF_MSG_CURSOR_LEAVE:
1367:..\u8g2\csrc/mui_u8g2.c ****       break;
1368:..\u8g2\csrc/mui_u8g2.c ****     case MUIF_MSG_TOUCH_DOWN:
1369:..\u8g2\csrc/mui_u8g2.c ****       break;
1370:..\u8g2\csrc/mui_u8g2.c ****     case MUIF_MSG_TOUCH_UP:
1371:..\u8g2\csrc/mui_u8g2.c ****       break;
1372:..\u8g2\csrc/mui_u8g2.c ****   }
1373:..\u8g2\csrc/mui_u8g2.c ****   return 0;
1374:..\u8g2\csrc/mui_u8g2.c **** }
1375:..\u8g2\csrc/mui_u8g2.c **** 
1376:..\u8g2\csrc/mui_u8g2.c **** uint8_t mui_u8g2_u16_list_line_wa_mud_pi(mui_t *ui, uint8_t msg)
ARM GAS  C:\Users\brian\AppData\Local\Temp\ccwE2E8f.s 			page 31


1377:..\u8g2\csrc/mui_u8g2.c **** {
1378:..\u8g2\csrc/mui_u8g2.c ****   //u8g2_t *u8g2 = mui_get_U8g2(ui);
1379:..\u8g2\csrc/mui_u8g2.c ****   mui_u8g2_list_t *list = (mui_u8g2_list_t *)muif_get_data(ui->uif);
1380:..\u8g2\csrc/mui_u8g2.c ****   uint16_t *selection =  mui_u8g2_list_get_selection_ptr(list);
1381:..\u8g2\csrc/mui_u8g2.c ****   void *data = mui_u8g2_list_get_data_ptr(list);
1382:..\u8g2\csrc/mui_u8g2.c ****   mui_u8g2_get_list_element_cb element_cb =  mui_u8g2_list_get_element_cb(list);
1383:..\u8g2\csrc/mui_u8g2.c ****   mui_u8g2_get_list_count_cb count_cb = mui_u8g2_list_get_count_cb(list);
1384:..\u8g2\csrc/mui_u8g2.c ****   
1385:..\u8g2\csrc/mui_u8g2.c ****   switch(msg)
1386:..\u8g2\csrc/mui_u8g2.c ****   {
1387:..\u8g2\csrc/mui_u8g2.c ****     case MUIF_MSG_DRAW:
1388:..\u8g2\csrc/mui_u8g2.c ****       mui_u8g2_draw_button_pi(ui, ui->arg, 1, element_cb(data, *selection));
1389:..\u8g2\csrc/mui_u8g2.c ****       //mui_u8g2_draw_button_utf(ui, mui_u8g2_get_pi_flags(ui), ui->arg, 1, MUI_U8G2_V_PADDING, ele
1390:..\u8g2\csrc/mui_u8g2.c ****       break;
1391:..\u8g2\csrc/mui_u8g2.c ****     case MUIF_MSG_FORM_START:
1392:..\u8g2\csrc/mui_u8g2.c ****       break;
1393:..\u8g2\csrc/mui_u8g2.c ****     case MUIF_MSG_FORM_END:
1394:..\u8g2\csrc/mui_u8g2.c ****       break;
1395:..\u8g2\csrc/mui_u8g2.c ****     case MUIF_MSG_CURSOR_ENTER:
1396:..\u8g2\csrc/mui_u8g2.c ****       break;
1397:..\u8g2\csrc/mui_u8g2.c ****     case MUIF_MSG_CURSOR_SELECT:
1398:..\u8g2\csrc/mui_u8g2.c ****       /* toggle between normal mode and capture next/prev mode */
1399:..\u8g2\csrc/mui_u8g2.c ****        ui->is_mud = !ui->is_mud;
1400:..\u8g2\csrc/mui_u8g2.c ****       break;
1401:..\u8g2\csrc/mui_u8g2.c ****     case MUIF_MSG_CURSOR_LEAVE:
1402:..\u8g2\csrc/mui_u8g2.c ****       break;
1403:..\u8g2\csrc/mui_u8g2.c ****     case MUIF_MSG_TOUCH_DOWN:
1404:..\u8g2\csrc/mui_u8g2.c ****       break;
1405:..\u8g2\csrc/mui_u8g2.c ****     case MUIF_MSG_TOUCH_UP:
1406:..\u8g2\csrc/mui_u8g2.c ****       break;
1407:..\u8g2\csrc/mui_u8g2.c ****     case MUIF_MSG_EVENT_NEXT:
1408:..\u8g2\csrc/mui_u8g2.c ****       if ( ui->is_mud )
1409:..\u8g2\csrc/mui_u8g2.c ****       {
1410:..\u8g2\csrc/mui_u8g2.c ****         (*selection)++;
1411:..\u8g2\csrc/mui_u8g2.c ****         if ( *selection >= count_cb(data)  ) 
1412:..\u8g2\csrc/mui_u8g2.c ****           *selection = 0;      
1413:..\u8g2\csrc/mui_u8g2.c ****         return 1;
1414:..\u8g2\csrc/mui_u8g2.c ****       }
1415:..\u8g2\csrc/mui_u8g2.c ****       break;
1416:..\u8g2\csrc/mui_u8g2.c ****     case MUIF_MSG_EVENT_PREV:
1417:..\u8g2\csrc/mui_u8g2.c ****       if ( ui->is_mud )
1418:..\u8g2\csrc/mui_u8g2.c ****       {
1419:..\u8g2\csrc/mui_u8g2.c ****         if ( *selection == 0 )
1420:..\u8g2\csrc/mui_u8g2.c ****           *selection = count_cb(data);
1421:..\u8g2\csrc/mui_u8g2.c ****         (*selection)--;
1422:..\u8g2\csrc/mui_u8g2.c ****         return 1;
1423:..\u8g2\csrc/mui_u8g2.c ****       }
1424:..\u8g2\csrc/mui_u8g2.c ****       break;
1425:..\u8g2\csrc/mui_u8g2.c ****   }
1426:..\u8g2\csrc/mui_u8g2.c ****   return 0;
1427:..\u8g2\csrc/mui_u8g2.c **** }
1428:..\u8g2\csrc/mui_u8g2.c **** 
1429:..\u8g2\csrc/mui_u8g2.c **** /*
1430:..\u8g2\csrc/mui_u8g2.c ****   MUIF: MUIF_U8G2_U16_LIST
1431:..\u8g2\csrc/mui_u8g2.c ****   FDS: MUI_XYA, arg=form id
1432:..\u8g2\csrc/mui_u8g2.c ****   data: mui_u8g2_list_t *
1433:..\u8g2\csrc/mui_u8g2.c **** */
ARM GAS  C:\Users\brian\AppData\Local\Temp\ccwE2E8f.s 			page 32


1434:..\u8g2\csrc/mui_u8g2.c **** uint8_t mui_u8g2_u16_list_parent_wm_mse_pi(mui_t *ui, uint8_t msg)
1435:..\u8g2\csrc/mui_u8g2.c **** {
1436:..\u8g2\csrc/mui_u8g2.c ****   //u8g2_t *u8g2 = mui_get_U8g2(ui);
1437:..\u8g2\csrc/mui_u8g2.c ****   mui_u8g2_list_t *list = (mui_u8g2_list_t *)muif_get_data(ui->uif);
1438:..\u8g2\csrc/mui_u8g2.c ****   uint16_t *selection =  mui_u8g2_list_get_selection_ptr(list);
1439:..\u8g2\csrc/mui_u8g2.c ****   void *data = mui_u8g2_list_get_data_ptr(list);
1440:..\u8g2\csrc/mui_u8g2.c ****   mui_u8g2_get_list_element_cb element_cb =  mui_u8g2_list_get_element_cb(list);
1441:..\u8g2\csrc/mui_u8g2.c ****   //mui_u8g2_get_list_count_cb count_cb = mui_u8g2_list_get_count_cb(list);
1442:..\u8g2\csrc/mui_u8g2.c ****   switch(msg)
1443:..\u8g2\csrc/mui_u8g2.c ****   {
1444:..\u8g2\csrc/mui_u8g2.c ****     case MUIF_MSG_DRAW:
1445:..\u8g2\csrc/mui_u8g2.c ****       mui_u8g2_draw_button_pi(ui, 0, 1, element_cb(data, *selection));
1446:..\u8g2\csrc/mui_u8g2.c ****       //mui_u8g2_draw_button_utf(ui, mui_u8g2_get_pi_flags(ui), ui->arg, 1, MUI_U8G2_V_PADDING, ele
1447:..\u8g2\csrc/mui_u8g2.c ****       break;
1448:..\u8g2\csrc/mui_u8g2.c ****     case MUIF_MSG_FORM_START:
1449:..\u8g2\csrc/mui_u8g2.c ****       break;
1450:..\u8g2\csrc/mui_u8g2.c ****     case MUIF_MSG_FORM_END:
1451:..\u8g2\csrc/mui_u8g2.c ****       break;
1452:..\u8g2\csrc/mui_u8g2.c ****     case MUIF_MSG_CURSOR_ENTER:
1453:..\u8g2\csrc/mui_u8g2.c ****       break;
1454:..\u8g2\csrc/mui_u8g2.c ****     case MUIF_MSG_CURSOR_SELECT:
1455:..\u8g2\csrc/mui_u8g2.c ****       mui_SaveForm(ui);          // store the current form and position so that the child can jump 
1456:..\u8g2\csrc/mui_u8g2.c ****       mui_GotoForm(ui, ui->arg, *selection);  // assumes that the selectable values are at the begi
1457:..\u8g2\csrc/mui_u8g2.c ****       break;
1458:..\u8g2\csrc/mui_u8g2.c ****     case MUIF_MSG_CURSOR_LEAVE:
1459:..\u8g2\csrc/mui_u8g2.c ****       break;
1460:..\u8g2\csrc/mui_u8g2.c ****     case MUIF_MSG_TOUCH_DOWN:
1461:..\u8g2\csrc/mui_u8g2.c ****       break;
1462:..\u8g2\csrc/mui_u8g2.c ****     case MUIF_MSG_TOUCH_UP:
1463:..\u8g2\csrc/mui_u8g2.c ****       break;
1464:..\u8g2\csrc/mui_u8g2.c ****   }
1465:..\u8g2\csrc/mui_u8g2.c ****   return 0;
1466:..\u8g2\csrc/mui_u8g2.c **** }
1467:..\u8g2\csrc/mui_u8g2.c **** 
1468:..\u8g2\csrc/mui_u8g2.c **** static uint8_t mui_u8g2_u16_list_child_mse_common(mui_t *ui, uint8_t msg)
1469:..\u8g2\csrc/mui_u8g2.c **** {
 316              		.loc 1 1469 0
 317              		.cfi_startproc
 318              		@ args = 0, pretend = 0, frame = 0
 319              		@ frame_needed = 0, uses_anonymous_args = 0
 320              	.LVL44:
 321 0000 70B5     		push	{r4, r5, r6, lr}
 322              		.cfi_def_cfa_offset 16
 323              		.cfi_offset 4, -16
 324              		.cfi_offset 5, -12
 325              		.cfi_offset 6, -8
 326              		.cfi_offset 14, -4
 327 0002 0446     		mov	r4, r0
1470:..\u8g2\csrc/mui_u8g2.c ****   mui_u8g2_list_t *list = (mui_u8g2_list_t *)muif_get_data(ui->uif);
 328              		.loc 1 1470 0
 329 0004 836B     		ldr	r3, [r0, #56]
 330 0006 5B68     		ldr	r3, [r3, #4]
 331              	.LVL45:
1471:..\u8g2\csrc/mui_u8g2.c ****   uint16_t *selection =  mui_u8g2_list_get_selection_ptr(list);
 332              		.loc 1 1471 0
 333 0008 1D68     		ldr	r5, [r3]
 334              	.LVL46:
ARM GAS  C:\Users\brian\AppData\Local\Temp\ccwE2E8f.s 			page 33


1472:..\u8g2\csrc/mui_u8g2.c ****   void *data = mui_u8g2_list_get_data_ptr(list);
 335              		.loc 1 1472 0
 336 000a 5868     		ldr	r0, [r3, #4]
 337              	.LVL47:
1473:..\u8g2\csrc/mui_u8g2.c ****   //mui_u8g2_get_list_element_cb element_cb =  mui_u8g2_list_get_element_cb(list);
1474:..\u8g2\csrc/mui_u8g2.c ****   mui_u8g2_get_list_count_cb count_cb = mui_u8g2_list_get_count_cb(list);
 338              		.loc 1 1474 0
 339 000c DE68     		ldr	r6, [r3, #12]
 340              	.LVL48:
1475:..\u8g2\csrc/mui_u8g2.c **** 
1476:..\u8g2\csrc/mui_u8g2.c ****   uint8_t arg = ui->arg;        // remember the arg value, because it might be overwritten  
 341              		.loc 1 1476 0
 342 000e 94F82E20 		ldrb	r2, [r4, #46]	@ zero_extendqisi2
 343              	.LVL49:
1477:..\u8g2\csrc/mui_u8g2.c ****   
1478:..\u8g2\csrc/mui_u8g2.c ****   switch(msg)
 344              		.loc 1 1478 0
 345 0012 8B1E     		subs	r3, r1, #2
 346              	.LVL50:
 347 0014 082B     		cmp	r3, #8
 348 0016 2AD8     		bhi	.L36
 349 0018 DFE803F0 		tbb	[pc, r3]
 350              	.L29:
 351 001c 05       		.byte	(.L28-.L29)/2
 352 001d 29       		.byte	(.L36-.L29)/2
 353 001e 14       		.byte	(.L30-.L29)/2
 354 001f 18       		.byte	(.L31-.L29)/2
 355 0020 29       		.byte	(.L36-.L29)/2
 356 0021 29       		.byte	(.L36-.L29)/2
 357 0022 29       		.byte	(.L36-.L29)/2
 358 0023 21       		.byte	(.L32-.L29)/2
 359 0024 25       		.byte	(.L33-.L29)/2
 360 0025 00       		.p2align 1
 361              	.L28:
1479:..\u8g2\csrc/mui_u8g2.c ****   {
1480:..\u8g2\csrc/mui_u8g2.c ****     case MUIF_MSG_DRAW:
1481:..\u8g2\csrc/mui_u8g2.c ****       /* done by the calling function */
1482:..\u8g2\csrc/mui_u8g2.c ****       break;
1483:..\u8g2\csrc/mui_u8g2.c ****     case MUIF_MSG_FORM_START:
1484:..\u8g2\csrc/mui_u8g2.c ****       /* we can assume that the list starts at the top. It will be adjisted by cursor down events l
1485:..\u8g2\csrc/mui_u8g2.c ****       ui->form_scroll_top = 0;
 362              		.loc 1 1485 0
 363 0026 0023     		movs	r3, #0
 364 0028 6384     		strh	r3, [r4, #34]	@ movhi
 365              	.LVL51:
1486:..\u8g2\csrc/mui_u8g2.c ****       if ( ui->form_scroll_visible <= arg )
 366              		.loc 1 1486 0
 367 002a 94F82430 		ldrb	r3, [r4, #36]	@ zero_extendqisi2
 368 002e 9A42     		cmp	r2, r3
 369 0030 02D3     		bcc	.L34
1487:..\u8g2\csrc/mui_u8g2.c ****         ui->form_scroll_visible = arg+1;
 370              		.loc 1 1487 0
 371 0032 0132     		adds	r2, r2, #1
 372              	.LVL52:
 373 0034 84F82420 		strb	r2, [r4, #36]
 374              	.LVL53:
 375              	.L34:
ARM GAS  C:\Users\brian\AppData\Local\Temp\ccwE2E8f.s 			page 34


1488:..\u8g2\csrc/mui_u8g2.c ****       if ( ui->form_scroll_total == 0 )
 376              		.loc 1 1488 0
 377 0038 238C     		ldrh	r3, [r4, #32]
 378 003a D3B9     		cbnz	r3, .L37
1489:..\u8g2\csrc/mui_u8g2.c ****           ui->form_scroll_total = count_cb(data);
 379              		.loc 1 1489 0
 380 003c B047     		blx	r6
 381              	.LVL54:
 382 003e 2084     		strh	r0, [r4, #32]	@ movhi
1490:..\u8g2\csrc/mui_u8g2.c ****       break;
1491:..\u8g2\csrc/mui_u8g2.c ****     case MUIF_MSG_FORM_END:
1492:..\u8g2\csrc/mui_u8g2.c ****       break;
1493:..\u8g2\csrc/mui_u8g2.c ****     case MUIF_MSG_CURSOR_ENTER:
1494:..\u8g2\csrc/mui_u8g2.c ****       return mui_u8g2_handle_scroll_next_prev_events(ui, msg);
1495:..\u8g2\csrc/mui_u8g2.c ****     case MUIF_MSG_CURSOR_SELECT:
1496:..\u8g2\csrc/mui_u8g2.c ****       if ( selection != NULL )
1497:..\u8g2\csrc/mui_u8g2.c ****         *selection = ui->form_scroll_top + arg;
1498:..\u8g2\csrc/mui_u8g2.c ****       mui_RestoreForm(ui);
1499:..\u8g2\csrc/mui_u8g2.c ****       break;
1500:..\u8g2\csrc/mui_u8g2.c ****     case MUIF_MSG_CURSOR_LEAVE:
1501:..\u8g2\csrc/mui_u8g2.c ****       break;
1502:..\u8g2\csrc/mui_u8g2.c ****     case MUIF_MSG_TOUCH_DOWN:
1503:..\u8g2\csrc/mui_u8g2.c ****       break;
1504:..\u8g2\csrc/mui_u8g2.c ****     case MUIF_MSG_TOUCH_UP:
1505:..\u8g2\csrc/mui_u8g2.c ****       break;
1506:..\u8g2\csrc/mui_u8g2.c ****     case MUIF_MSG_EVENT_NEXT:
1507:..\u8g2\csrc/mui_u8g2.c ****       return mui_u8g2_handle_scroll_next_prev_events(ui, msg);
1508:..\u8g2\csrc/mui_u8g2.c ****     case MUIF_MSG_EVENT_PREV:
1509:..\u8g2\csrc/mui_u8g2.c ****       return mui_u8g2_handle_scroll_next_prev_events(ui, msg);
1510:..\u8g2\csrc/mui_u8g2.c ****   }
1511:..\u8g2\csrc/mui_u8g2.c ****   return 0;
 383              		.loc 1 1511 0
 384 0040 0020     		movs	r0, #0
 385 0042 70BD     		pop	{r4, r5, r6, pc}
 386              	.LVL55:
 387              	.L30:
1494:..\u8g2\csrc/mui_u8g2.c ****     case MUIF_MSG_CURSOR_SELECT:
 388              		.loc 1 1494 0
 389 0044 2046     		mov	r0, r4
 390              	.LVL56:
 391 0046 FFF7FEFF 		bl	mui_u8g2_handle_scroll_next_prev_events
 392              	.LVL57:
 393 004a 70BD     		pop	{r4, r5, r6, pc}
 394              	.LVL58:
 395              	.L31:
1496:..\u8g2\csrc/mui_u8g2.c ****         *selection = ui->form_scroll_top + arg;
 396              		.loc 1 1496 0
 397 004c 15B1     		cbz	r5, .L35
1497:..\u8g2\csrc/mui_u8g2.c ****       mui_RestoreForm(ui);
 398              		.loc 1 1497 0
 399 004e 638C     		ldrh	r3, [r4, #34]
 400 0050 1A44     		add	r2, r2, r3
 401              	.LVL59:
 402 0052 2A80     		strh	r2, [r5]	@ movhi
 403              	.LVL60:
 404              	.L35:
1498:..\u8g2\csrc/mui_u8g2.c ****       break;
ARM GAS  C:\Users\brian\AppData\Local\Temp\ccwE2E8f.s 			page 35


 405              		.loc 1 1498 0
 406 0054 2046     		mov	r0, r4
 407              	.LVL61:
 408 0056 FFF7FEFF 		bl	mui_RestoreForm
 409              	.LVL62:
 410              		.loc 1 1511 0
 411 005a 0020     		movs	r0, #0
1499:..\u8g2\csrc/mui_u8g2.c ****     case MUIF_MSG_CURSOR_LEAVE:
 412              		.loc 1 1499 0
 413 005c 70BD     		pop	{r4, r5, r6, pc}
 414              	.LVL63:
 415              	.L32:
1507:..\u8g2\csrc/mui_u8g2.c ****     case MUIF_MSG_EVENT_PREV:
 416              		.loc 1 1507 0
 417 005e 2046     		mov	r0, r4
 418              	.LVL64:
 419 0060 FFF7FEFF 		bl	mui_u8g2_handle_scroll_next_prev_events
 420              	.LVL65:
 421 0064 70BD     		pop	{r4, r5, r6, pc}
 422              	.LVL66:
 423              	.L33:
1509:..\u8g2\csrc/mui_u8g2.c ****   }
 424              		.loc 1 1509 0
 425 0066 2046     		mov	r0, r4
 426              	.LVL67:
 427 0068 FFF7FEFF 		bl	mui_u8g2_handle_scroll_next_prev_events
 428              	.LVL68:
 429 006c 70BD     		pop	{r4, r5, r6, pc}
 430              	.LVL69:
 431              	.L36:
 432              		.loc 1 1511 0
 433 006e 0020     		movs	r0, #0
 434              	.LVL70:
 435 0070 70BD     		pop	{r4, r5, r6, pc}
 436              	.LVL71:
 437              	.L37:
 438 0072 0020     		movs	r0, #0
 439              	.LVL72:
1512:..\u8g2\csrc/mui_u8g2.c **** }
 440              		.loc 1 1512 0
 441 0074 70BD     		pop	{r4, r5, r6, pc}
 442              		.cfi_endproc
 443              	.LFE41:
 444              		.size	mui_u8g2_u16_list_child_mse_common, .-mui_u8g2_u16_list_child_mse_common
 445 0076 00BF     		.section	.text.mui_get_y,"ax",%progbits
 446              		.align	2
 447              		.global	mui_get_y
 448              		.thumb
 449              		.thumb_func
 450              		.type	mui_get_y, %function
 451              	mui_get_y:
 452              	.LFB3:
 167:..\u8g2\csrc/mui_u8g2.c ****   return ui->y;
 453              		.loc 1 167 0
 454              		.cfi_startproc
 455              		@ args = 0, pretend = 0, frame = 0
 456              		@ frame_needed = 0, uses_anonymous_args = 0
ARM GAS  C:\Users\brian\AppData\Local\Temp\ccwE2E8f.s 			page 36


 457              		@ link register save eliminated.
 458              	.LVL73:
 169:..\u8g2\csrc/mui_u8g2.c **** 
 459              		.loc 1 169 0
 460 0000 90F82C00 		ldrb	r0, [r0, #44]	@ zero_extendqisi2
 461              	.LVL74:
 462 0004 7047     		bx	lr
 463              		.cfi_endproc
 464              	.LFE3:
 465              		.size	mui_get_y, .-mui_get_y
 466 0006 00BF     		.section	.text.mui_get_U8g2,"ax",%progbits
 467              		.align	2
 468              		.global	mui_get_U8g2
 469              		.thumb
 470              		.thumb_func
 471              		.type	mui_get_U8g2, %function
 472              	mui_get_U8g2:
 473              	.LFB4:
 172:..\u8g2\csrc/mui_u8g2.c ****   return (u8g2_t *)(ui->graphics_data);
 474              		.loc 1 172 0
 475              		.cfi_startproc
 476              		@ args = 0, pretend = 0, frame = 0
 477              		@ frame_needed = 0, uses_anonymous_args = 0
 478              		@ link register save eliminated.
 479              	.LVL75:
 174:..\u8g2\csrc/mui_u8g2.c **** 
 480              		.loc 1 174 0
 481 0000 0068     		ldr	r0, [r0]
 482              	.LVL76:
 483 0002 7047     		bx	lr
 484              		.cfi_endproc
 485              	.LFE4:
 486              		.size	mui_get_U8g2, .-mui_get_U8g2
 487              		.section	.text.mui_get_x,"ax",%progbits
 488              		.align	2
 489              		.global	mui_get_x
 490              		.thumb
 491              		.thumb_func
 492              		.type	mui_get_x, %function
 493              	mui_get_x:
 494              	.LFB2:
 160:..\u8g2\csrc/mui_u8g2.c ****   if ( u8g2_GetDisplayWidth(mui_get_U8g2(ui)) >= 255 )
 495              		.loc 1 160 0
 496              		.cfi_startproc
 497              		@ args = 0, pretend = 0, frame = 0
 498              		@ frame_needed = 0, uses_anonymous_args = 0
 499              	.LVL77:
 500 0000 10B5     		push	{r4, lr}
 501              		.cfi_def_cfa_offset 8
 502              		.cfi_offset 4, -8
 503              		.cfi_offset 14, -4
 504 0002 0446     		mov	r4, r0
 161:..\u8g2\csrc/mui_u8g2.c ****       return ui->x / 2;
 505              		.loc 1 161 0
 506 0004 FFF7FEFF 		bl	mui_get_U8g2
 507              	.LVL78:
 508 0008 B0F84430 		ldrh	r3, [r0, #68]
ARM GAS  C:\Users\brian\AppData\Local\Temp\ccwE2E8f.s 			page 37


 509 000c FE2B     		cmp	r3, #254
 510 000e 03D9     		bls	.L42
 162:..\u8g2\csrc/mui_u8g2.c ****   return ui->x;
 511              		.loc 1 162 0
 512 0010 94F82B00 		ldrb	r0, [r4, #43]	@ zero_extendqisi2
 513 0014 4008     		lsrs	r0, r0, #1
 514 0016 10BD     		pop	{r4, pc}
 515              	.LVL79:
 516              	.L42:
 163:..\u8g2\csrc/mui_u8g2.c **** }
 517              		.loc 1 163 0
 518 0018 94F82B00 		ldrb	r0, [r4, #43]	@ zero_extendqisi2
 164:..\u8g2\csrc/mui_u8g2.c **** 
 519              		.loc 1 164 0
 520 001c 10BD     		pop	{r4, pc}
 521              		.cfi_endproc
 522              	.LFE2:
 523              		.size	mui_get_x, .-mui_get_x
 524 001e 00BF     		.section	.text.mui_u8g2_draw_button_utf,"ax",%progbits
 525              		.align	2
 526              		.global	mui_u8g2_draw_button_utf
 527              		.thumb
 528              		.thumb_func
 529              		.type	mui_u8g2_draw_button_utf, %function
 530              	mui_u8g2_draw_button_utf:
 531              	.LFB5:
 178:..\u8g2\csrc/mui_u8g2.c ****   if ( text==NULL)
 532              		.loc 1 178 0
 533              		.cfi_startproc
 534              		@ args = 8, pretend = 0, frame = 0
 535              		@ frame_needed = 0, uses_anonymous_args = 0
 536              	.LVL80:
 537 0000 2DE9F047 		push	{r4, r5, r6, r7, r8, r9, r10, lr}
 538              		.cfi_def_cfa_offset 32
 539              		.cfi_offset 4, -32
 540              		.cfi_offset 5, -28
 541              		.cfi_offset 6, -24
 542              		.cfi_offset 7, -20
 543              		.cfi_offset 8, -16
 544              		.cfi_offset 9, -12
 545              		.cfi_offset 10, -8
 546              		.cfi_offset 14, -4
 547 0004 84B0     		sub	sp, sp, #16
 548              		.cfi_def_cfa_offset 48
 549 0006 0446     		mov	r4, r0
 550 0008 8846     		mov	r8, r1
 551 000a 9146     		mov	r9, r2
 552 000c 9A46     		mov	r10, r3
 553 000e 0D9D     		ldr	r5, [sp, #52]
 179:..\u8g2\csrc/mui_u8g2.c ****     text = "";
 554              		.loc 1 179 0
 555 0010 05B9     		cbnz	r5, .L46
 180:..\u8g2\csrc/mui_u8g2.c ****   u8g2_DrawButtonUTF8(mui_get_U8g2(ui), mui_get_x(ui), mui_get_y(ui), flags, width, padding_h, padd
 556              		.loc 1 180 0
 557 0012 0E4D     		ldr	r5, .L49
 558              	.L46:
 559              	.LVL81:
ARM GAS  C:\Users\brian\AppData\Local\Temp\ccwE2E8f.s 			page 38


 181:..\u8g2\csrc/mui_u8g2.c **** }
 560              		.loc 1 181 0
 561 0014 2046     		mov	r0, r4
 562              	.LVL82:
 563 0016 FFF7FEFF 		bl	mui_get_U8g2
 564              	.LVL83:
 565 001a 0646     		mov	r6, r0
 566 001c 2046     		mov	r0, r4
 567 001e FFF7FEFF 		bl	mui_get_x
 568              	.LVL84:
 569 0022 0746     		mov	r7, r0
 570 0024 2046     		mov	r0, r4
 571 0026 FFF7FEFF 		bl	mui_get_y
 572              	.LVL85:
 573 002a 0395     		str	r5, [sp, #12]
 574 002c BDF83030 		ldrh	r3, [sp, #48]
 575 0030 0293     		str	r3, [sp, #8]
 576 0032 CDF804A0 		str	r10, [sp, #4]
 577 0036 CDF80090 		str	r9, [sp]
 578 003a 4346     		mov	r3, r8
 579 003c 0246     		mov	r2, r0
 580 003e 3946     		mov	r1, r7
 581 0040 3046     		mov	r0, r6
 582 0042 FFF7FEFF 		bl	u8g2_DrawButtonUTF8
 583              	.LVL86:
 182:..\u8g2\csrc/mui_u8g2.c **** 
 584              		.loc 1 182 0
 585 0046 04B0     		add	sp, sp, #16
 586              		.cfi_def_cfa_offset 32
 587              		@ sp needed
 588 0048 BDE8F087 		pop	{r4, r5, r6, r7, r8, r9, r10, pc}
 589              	.LVL87:
 590              	.L50:
 591              		.align	2
 592              	.L49:
 593 004c 00000000 		.word	.LC0
 594              		.cfi_endproc
 595              	.LFE5:
 596              		.size	mui_u8g2_draw_button_utf, .-mui_u8g2_draw_button_utf
 597              		.section	.text.mui_u8g2_get_pi_flags,"ax",%progbits
 598              		.align	2
 599              		.global	mui_u8g2_get_pi_flags
 600              		.thumb
 601              		.thumb_func
 602              		.type	mui_u8g2_get_pi_flags, %function
 603              	mui_u8g2_get_pi_flags:
 604              	.LFB6:
 185:..\u8g2\csrc/mui_u8g2.c ****   u8g2_uint_t flags = 0;
 605              		.loc 1 185 0
 606              		.cfi_startproc
 607              		@ args = 0, pretend = 0, frame = 0
 608              		@ frame_needed = 0, uses_anonymous_args = 0
 609              		@ link register save eliminated.
 610              	.LVL88:
 187:..\u8g2\csrc/mui_u8g2.c ****   {
 611              		.loc 1 187 0
 612 0000 90F82D30 		ldrb	r3, [r0, #45]	@ zero_extendqisi2
ARM GAS  C:\Users\brian\AppData\Local\Temp\ccwE2E8f.s 			page 39


 613 0004 13F0010F 		tst	r3, #1
 614 0008 04D0     		beq	.L53
 615              	.LVL89:
 190:..\u8g2\csrc/mui_u8g2.c ****     {
 616              		.loc 1 190 0
 617 000a 90F82630 		ldrb	r3, [r0, #38]	@ zero_extendqisi2
 618 000e 1BB9     		cbnz	r3, .L54
 189:..\u8g2\csrc/mui_u8g2.c ****     if ( ui->is_mud )
 619              		.loc 1 189 0
 620 0010 2020     		movs	r0, #32
 621              	.LVL90:
 622 0012 7047     		bx	lr
 623              	.LVL91:
 624              	.L53:
 186:..\u8g2\csrc/mui_u8g2.c ****   if ( mui_IsCursorFocus(ui) )
 625              		.loc 1 186 0
 626 0014 0020     		movs	r0, #0
 627              	.LVL92:
 628 0016 7047     		bx	lr
 629              	.LVL93:
 630              	.L54:
 192:..\u8g2\csrc/mui_u8g2.c ****     }      
 631              		.loc 1 192 0
 632 0018 A020     		movs	r0, #160
 633              	.LVL94:
 196:..\u8g2\csrc/mui_u8g2.c **** 
 634              		.loc 1 196 0
 635 001a 7047     		bx	lr
 636              		.cfi_endproc
 637              	.LFE6:
 638              		.size	mui_u8g2_get_pi_flags, .-mui_u8g2_get_pi_flags
 639              		.section	.text.mui_u8g2_draw_button_pi,"ax",%progbits
 640              		.align	2
 641              		.global	mui_u8g2_draw_button_pi
 642              		.thumb
 643              		.thumb_func
 644              		.type	mui_u8g2_draw_button_pi, %function
 645              	mui_u8g2_draw_button_pi:
 646              	.LFB7:
 200:..\u8g2\csrc/mui_u8g2.c ****   mui_u8g2_draw_button_utf(ui, mui_u8g2_get_pi_flags(ui), width, padding_h , MUI_U8G2_V_PADDING, te
 647              		.loc 1 200 0
 648              		.cfi_startproc
 649              		@ args = 0, pretend = 0, frame = 0
 650              		@ frame_needed = 0, uses_anonymous_args = 0
 651              	.LVL95:
 652 0000 F0B5     		push	{r4, r5, r6, r7, lr}
 653              		.cfi_def_cfa_offset 20
 654              		.cfi_offset 4, -20
 655              		.cfi_offset 5, -16
 656              		.cfi_offset 6, -12
 657              		.cfi_offset 7, -8
 658              		.cfi_offset 14, -4
 659 0002 83B0     		sub	sp, sp, #12
 660              		.cfi_def_cfa_offset 32
 661 0004 0446     		mov	r4, r0
 662 0006 0D46     		mov	r5, r1
 663 0008 1646     		mov	r6, r2
ARM GAS  C:\Users\brian\AppData\Local\Temp\ccwE2E8f.s 			page 40


 664 000a 1F46     		mov	r7, r3
 201:..\u8g2\csrc/mui_u8g2.c **** }
 665              		.loc 1 201 0
 666 000c FFF7FEFF 		bl	mui_u8g2_get_pi_flags
 667              	.LVL96:
 668 0010 0197     		str	r7, [sp, #4]
 669 0012 0123     		movs	r3, #1
 670 0014 0093     		str	r3, [sp]
 671 0016 3346     		mov	r3, r6
 672 0018 2A46     		mov	r2, r5
 673 001a 0146     		mov	r1, r0
 674 001c 2046     		mov	r0, r4
 675 001e FFF7FEFF 		bl	mui_u8g2_draw_button_utf
 676              	.LVL97:
 202:..\u8g2\csrc/mui_u8g2.c **** 
 677              		.loc 1 202 0
 678 0022 03B0     		add	sp, sp, #12
 679              		.cfi_def_cfa_offset 20
 680              		@ sp needed
 681 0024 F0BD     		pop	{r4, r5, r6, r7, pc}
 682              		.cfi_endproc
 683              	.LFE7:
 684              		.size	mui_u8g2_draw_button_pi, .-mui_u8g2_draw_button_pi
 685 0026 00BF     		.section	.text.mui_u8g2_u8_vmm_draw_wm_pi,"ax",%progbits
 686              		.align	2
 687              		.thumb
 688              		.thumb_func
 689              		.type	mui_u8g2_u8_vmm_draw_wm_pi, %function
 690              	mui_u8g2_u8_vmm_draw_wm_pi:
 691              	.LFB19:
 522:..\u8g2\csrc/mui_u8g2.c ****   u8g2_t *u8g2 = mui_get_U8g2(ui);
 692              		.loc 1 522 0
 693              		.cfi_startproc
 694              		@ args = 0, pretend = 0, frame = 0
 695              		@ frame_needed = 0, uses_anonymous_args = 0
 696              	.LVL98:
 697 0000 F8B5     		push	{r3, r4, r5, r6, r7, lr}
 698              		.cfi_def_cfa_offset 24
 699              		.cfi_offset 3, -24
 700              		.cfi_offset 4, -20
 701              		.cfi_offset 5, -16
 702              		.cfi_offset 6, -12
 703              		.cfi_offset 7, -8
 704              		.cfi_offset 14, -4
 705 0002 0746     		mov	r7, r0
 523:..\u8g2\csrc/mui_u8g2.c ****   mui_u8g2_u8_min_max_t *vmm= (mui_u8g2_u8_min_max_t *)muif_get_data(ui->uif);
 706              		.loc 1 523 0
 707 0004 FFF7FEFF 		bl	mui_get_U8g2
 708              	.LVL99:
 524:..\u8g2\csrc/mui_u8g2.c ****   char *s = "999";
 709              		.loc 1 524 0
 710 0008 BB6B     		ldr	r3, [r7, #56]
 711 000a 5B68     		ldr	r3, [r3, #4]
 712              	.LVL100:
 526:..\u8g2\csrc/mui_u8g2.c ****   uint8_t min = mui_u8g2_u8mm_get_min(vmm);
 713              		.loc 1 526 0
 714 000c 1C68     		ldr	r4, [r3]
ARM GAS  C:\Users\brian\AppData\Local\Temp\ccwE2E8f.s 			page 41


 715              	.LVL101:
 527:..\u8g2\csrc/mui_u8g2.c ****   uint8_t max = mui_u8g2_u8mm_get_max(vmm);
 716              		.loc 1 527 0
 717 000e 1A79     		ldrb	r2, [r3, #4]	@ zero_extendqisi2
 718              	.LVL102:
 528:..\u8g2\csrc/mui_u8g2.c ****   uint8_t cnt = 3;
 719              		.loc 1 528 0
 720 0010 5B79     		ldrb	r3, [r3, #5]	@ zero_extendqisi2
 721              	.LVL103:
 531:..\u8g2\csrc/mui_u8g2.c ****     *value = max;
 722              		.loc 1 531 0
 723 0012 2178     		ldrb	r1, [r4]	@ zero_extendqisi2
 724 0014 8B42     		cmp	r3, r1
 725 0016 00D2     		bcs	.L58
 532:..\u8g2\csrc/mui_u8g2.c ****   if ( *value <= min )
 726              		.loc 1 532 0
 727 0018 2370     		strb	r3, [r4]
 728              	.LVL104:
 729              	.L58:
 533:..\u8g2\csrc/mui_u8g2.c ****     *value = min;
 730              		.loc 1 533 0
 731 001a 2178     		ldrb	r1, [r4]	@ zero_extendqisi2
 732 001c 8A42     		cmp	r2, r1
 733 001e 00D3     		bcc	.L59
 534:..\u8g2\csrc/mui_u8g2.c ****   if ( max < 100 )
 734              		.loc 1 534 0
 735 0020 2270     		strb	r2, [r4]
 736              	.L59:
 535:..\u8g2\csrc/mui_u8g2.c ****   {
 737              		.loc 1 535 0
 738 0022 632B     		cmp	r3, #99
 739 0024 02D9     		bls	.L62
 529:..\u8g2\csrc/mui_u8g2.c ****   
 740              		.loc 1 529 0
 741 0026 0325     		movs	r5, #3
 525:..\u8g2\csrc/mui_u8g2.c ****   uint8_t *value = mui_u8g2_u8mm_get_valptr(vmm);
 742              		.loc 1 525 0
 743 0028 0B49     		ldr	r1, .L64
 744 002a 01E0     		b	.L60
 745              	.L62:
 538:..\u8g2\csrc/mui_u8g2.c ****   }
 746              		.loc 1 538 0
 747 002c 0225     		movs	r5, #2
 537:..\u8g2\csrc/mui_u8g2.c ****     cnt--;
 748              		.loc 1 537 0
 749 002e 0B49     		ldr	r1, .L64+4
 750              	.L60:
 751              	.LVL105:
 540:..\u8g2\csrc/mui_u8g2.c ****   {
 752              		.loc 1 540 0
 753 0030 092B     		cmp	r3, #9
 754 0032 02D8     		bhi	.L61
 542:..\u8g2\csrc/mui_u8g2.c ****     cnt--;
 755              		.loc 1 542 0
 756 0034 0131     		adds	r1, r1, #1
 757              	.LVL106:
 543:..\u8g2\csrc/mui_u8g2.c ****   }
ARM GAS  C:\Users\brian\AppData\Local\Temp\ccwE2E8f.s 			page 42


 758              		.loc 1 543 0
 759 0036 013D     		subs	r5, r5, #1
 760              	.LVL107:
 761 0038 EDB2     		uxtb	r5, r5
 762              	.LVL108:
 763              	.L61:
 546:..\u8g2\csrc/mui_u8g2.c **** }
 764              		.loc 1 546 0
 765 003a FFF7FEFF 		bl	u8g2_GetStrWidth
 766              	.LVL109:
 767 003e 0646     		mov	r6, r0
 768 0040 2946     		mov	r1, r5
 769 0042 2078     		ldrb	r0, [r4]	@ zero_extendqisi2
 770 0044 FFF7FEFF 		bl	u8x8_u8toa
 771              	.LVL110:
 772 0048 711C     		adds	r1, r6, #1
 773 004a 0346     		mov	r3, r0
 774 004c 0122     		movs	r2, #1
 775 004e 89B2     		uxth	r1, r1
 776 0050 3846     		mov	r0, r7
 777 0052 FFF7FEFF 		bl	mui_u8g2_draw_button_pi
 778              	.LVL111:
 779 0056 F8BD     		pop	{r3, r4, r5, r6, r7, pc}
 780              	.LVL112:
 781              	.L65:
 782              		.align	2
 783              	.L64:
 784 0058 04000000 		.word	.LC1
 785 005c 01000000 		.word	.LC1+1
 786              		.cfi_endproc
 787              	.LFE19:
 788              		.size	mui_u8g2_u8_vmm_draw_wm_pi, .-mui_u8g2_u8_vmm_draw_wm_pi
 789              		.section	.text.mui_u8g2_get_fi_flags,"ax",%progbits
 790              		.align	2
 791              		.global	mui_u8g2_get_fi_flags
 792              		.thumb
 793              		.thumb_func
 794              		.type	mui_u8g2_get_fi_flags, %function
 795              	mui_u8g2_get_fi_flags:
 796              	.LFB8:
 206:..\u8g2\csrc/mui_u8g2.c ****   u8g2_uint_t flags = 1;
 797              		.loc 1 206 0
 798              		.cfi_startproc
 799              		@ args = 0, pretend = 0, frame = 0
 800              		@ frame_needed = 0, uses_anonymous_args = 0
 801              		@ link register save eliminated.
 802              	.LVL113:
 208:..\u8g2\csrc/mui_u8g2.c ****   {
 803              		.loc 1 208 0
 804 0000 90F82D30 		ldrb	r3, [r0, #45]	@ zero_extendqisi2
 805 0004 13F0010F 		tst	r3, #1
 806 0008 04D0     		beq	.L68
 807              	.LVL114:
 211:..\u8g2\csrc/mui_u8g2.c ****     {
 808              		.loc 1 211 0
 809 000a 90F82630 		ldrb	r3, [r0, #38]	@ zero_extendqisi2
 810 000e 1BB9     		cbnz	r3, .L69
ARM GAS  C:\Users\brian\AppData\Local\Temp\ccwE2E8f.s 			page 43


 210:..\u8g2\csrc/mui_u8g2.c ****     if ( ui->is_mud )
 811              		.loc 1 210 0
 812 0010 2120     		movs	r0, #33
 813              	.LVL115:
 814 0012 7047     		bx	lr
 815              	.LVL116:
 816              	.L68:
 207:..\u8g2\csrc/mui_u8g2.c ****   if ( mui_IsCursorFocus(ui) )
 817              		.loc 1 207 0
 818 0014 0120     		movs	r0, #1
 819              	.LVL117:
 820 0016 7047     		bx	lr
 821              	.LVL118:
 822              	.L69:
 213:..\u8g2\csrc/mui_u8g2.c ****     }      
 823              		.loc 1 213 0
 824 0018 0120     		movs	r0, #1
 825              	.LVL119:
 217:..\u8g2\csrc/mui_u8g2.c **** 
 826              		.loc 1 217 0
 827 001a 7047     		bx	lr
 828              		.cfi_endproc
 829              	.LFE8:
 830              		.size	mui_u8g2_get_fi_flags, .-mui_u8g2_get_fi_flags
 831              		.section	.text.mui_u8g2_draw_button_fi,"ax",%progbits
 832              		.align	2
 833              		.global	mui_u8g2_draw_button_fi
 834              		.thumb
 835              		.thumb_func
 836              		.type	mui_u8g2_draw_button_fi, %function
 837              	mui_u8g2_draw_button_fi:
 838              	.LFB9:
 220:..\u8g2\csrc/mui_u8g2.c ****   mui_u8g2_draw_button_utf(ui, mui_u8g2_get_fi_flags(ui), width, padding_h , MUI_U8G2_V_PADDING, te
 839              		.loc 1 220 0
 840              		.cfi_startproc
 841              		@ args = 0, pretend = 0, frame = 0
 842              		@ frame_needed = 0, uses_anonymous_args = 0
 843              	.LVL120:
 844 0000 F0B5     		push	{r4, r5, r6, r7, lr}
 845              		.cfi_def_cfa_offset 20
 846              		.cfi_offset 4, -20
 847              		.cfi_offset 5, -16
 848              		.cfi_offset 6, -12
 849              		.cfi_offset 7, -8
 850              		.cfi_offset 14, -4
 851 0002 83B0     		sub	sp, sp, #12
 852              		.cfi_def_cfa_offset 32
 853 0004 0446     		mov	r4, r0
 854 0006 0D46     		mov	r5, r1
 855 0008 1646     		mov	r6, r2
 856 000a 1F46     		mov	r7, r3
 221:..\u8g2\csrc/mui_u8g2.c **** }
 857              		.loc 1 221 0
 858 000c FFF7FEFF 		bl	mui_u8g2_get_fi_flags
 859              	.LVL121:
 860 0010 0197     		str	r7, [sp, #4]
 861 0012 0123     		movs	r3, #1
ARM GAS  C:\Users\brian\AppData\Local\Temp\ccwE2E8f.s 			page 44


 862 0014 0093     		str	r3, [sp]
 863 0016 3346     		mov	r3, r6
 864 0018 2A46     		mov	r2, r5
 865 001a 0146     		mov	r1, r0
 866 001c 2046     		mov	r0, r4
 867 001e FFF7FEFF 		bl	mui_u8g2_draw_button_utf
 868              	.LVL122:
 222:..\u8g2\csrc/mui_u8g2.c **** 
 869              		.loc 1 222 0
 870 0022 03B0     		add	sp, sp, #12
 871              		.cfi_def_cfa_offset 20
 872              		@ sp needed
 873 0024 F0BD     		pop	{r4, r5, r6, r7, pc}
 874              		.cfi_endproc
 875              	.LFE9:
 876              		.size	mui_u8g2_draw_button_fi, .-mui_u8g2_draw_button_fi
 877 0026 00BF     		.section	.text.mui_u8g2_get_pf_flags,"ax",%progbits
 878              		.align	2
 879              		.global	mui_u8g2_get_pf_flags
 880              		.thumb
 881              		.thumb_func
 882              		.type	mui_u8g2_get_pf_flags, %function
 883              	mui_u8g2_get_pf_flags:
 884              	.LFB10:
 226:..\u8g2\csrc/mui_u8g2.c ****   u8g2_uint_t flags = 0;
 885              		.loc 1 226 0
 886              		.cfi_startproc
 887              		@ args = 0, pretend = 0, frame = 0
 888              		@ frame_needed = 0, uses_anonymous_args = 0
 889              		@ link register save eliminated.
 890              	.LVL123:
 228:..\u8g2\csrc/mui_u8g2.c ****   {
 891              		.loc 1 228 0
 892 0000 90F82D30 		ldrb	r3, [r0, #45]	@ zero_extendqisi2
 893 0004 13F0010F 		tst	r3, #1
 894 0008 04D0     		beq	.L74
 895              	.LVL124:
 231:..\u8g2\csrc/mui_u8g2.c ****     {
 896              		.loc 1 231 0
 897 000a 90F82630 		ldrb	r3, [r0, #38]	@ zero_extendqisi2
 898 000e 1BB9     		cbnz	r3, .L75
 230:..\u8g2\csrc/mui_u8g2.c ****     if ( ui->is_mud )
 899              		.loc 1 230 0
 900 0010 0120     		movs	r0, #1
 901              	.LVL125:
 902 0012 7047     		bx	lr
 903              	.LVL126:
 904              	.L74:
 227:..\u8g2\csrc/mui_u8g2.c ****   if ( mui_IsCursorFocus(ui) )
 905              		.loc 1 227 0
 906 0014 0020     		movs	r0, #0
 907              	.LVL127:
 908 0016 7047     		bx	lr
 909              	.LVL128:
 910              	.L75:
 233:..\u8g2\csrc/mui_u8g2.c ****     }      
 911              		.loc 1 233 0
ARM GAS  C:\Users\brian\AppData\Local\Temp\ccwE2E8f.s 			page 45


 912 0018 2120     		movs	r0, #33
 913              	.LVL129:
 237:..\u8g2\csrc/mui_u8g2.c **** 
 914              		.loc 1 237 0
 915 001a 7047     		bx	lr
 916              		.cfi_endproc
 917              	.LFE10:
 918              		.size	mui_u8g2_get_pf_flags, .-mui_u8g2_get_pf_flags
 919              		.section	.text.mui_u8g2_draw_button_pf,"ax",%progbits
 920              		.align	2
 921              		.global	mui_u8g2_draw_button_pf
 922              		.thumb
 923              		.thumb_func
 924              		.type	mui_u8g2_draw_button_pf, %function
 925              	mui_u8g2_draw_button_pf:
 926              	.LFB11:
 240:..\u8g2\csrc/mui_u8g2.c ****   mui_u8g2_draw_button_utf(ui, mui_u8g2_get_pf_flags(ui), width, padding_h , MUI_U8G2_V_PADDING, te
 927              		.loc 1 240 0
 928              		.cfi_startproc
 929              		@ args = 0, pretend = 0, frame = 0
 930              		@ frame_needed = 0, uses_anonymous_args = 0
 931              	.LVL130:
 932 0000 F0B5     		push	{r4, r5, r6, r7, lr}
 933              		.cfi_def_cfa_offset 20
 934              		.cfi_offset 4, -20
 935              		.cfi_offset 5, -16
 936              		.cfi_offset 6, -12
 937              		.cfi_offset 7, -8
 938              		.cfi_offset 14, -4
 939 0002 83B0     		sub	sp, sp, #12
 940              		.cfi_def_cfa_offset 32
 941 0004 0446     		mov	r4, r0
 942 0006 0D46     		mov	r5, r1
 943 0008 1646     		mov	r6, r2
 944 000a 1F46     		mov	r7, r3
 241:..\u8g2\csrc/mui_u8g2.c **** }
 945              		.loc 1 241 0
 946 000c FFF7FEFF 		bl	mui_u8g2_get_pf_flags
 947              	.LVL131:
 948 0010 0197     		str	r7, [sp, #4]
 949 0012 0123     		movs	r3, #1
 950 0014 0093     		str	r3, [sp]
 951 0016 3346     		mov	r3, r6
 952 0018 2A46     		mov	r2, r5
 953 001a 0146     		mov	r1, r0
 954 001c 2046     		mov	r0, r4
 955 001e FFF7FEFF 		bl	mui_u8g2_draw_button_utf
 956              	.LVL132:
 242:..\u8g2\csrc/mui_u8g2.c **** 
 957              		.loc 1 242 0
 958 0022 03B0     		add	sp, sp, #12
 959              		.cfi_def_cfa_offset 20
 960              		@ sp needed
 961 0024 F0BD     		pop	{r4, r5, r6, r7, pc}
 962              		.cfi_endproc
 963              	.LFE11:
 964              		.size	mui_u8g2_draw_button_pf, .-mui_u8g2_draw_button_pf
ARM GAS  C:\Users\brian\AppData\Local\Temp\ccwE2E8f.s 			page 46


 965 0026 00BF     		.section	.text.mui_u8g2_u8_vmm_draw_wm_pf,"ax",%progbits
 966              		.align	2
 967              		.thumb
 968              		.thumb_func
 969              		.type	mui_u8g2_u8_vmm_draw_wm_pf, %function
 970              	mui_u8g2_u8_vmm_draw_wm_pf:
 971              	.LFB22:
 635:..\u8g2\csrc/mui_u8g2.c ****   u8g2_t *u8g2 = mui_get_U8g2(ui);
 972              		.loc 1 635 0
 973              		.cfi_startproc
 974              		@ args = 0, pretend = 0, frame = 0
 975              		@ frame_needed = 0, uses_anonymous_args = 0
 976              	.LVL133:
 977 0000 F8B5     		push	{r3, r4, r5, r6, r7, lr}
 978              		.cfi_def_cfa_offset 24
 979              		.cfi_offset 3, -24
 980              		.cfi_offset 4, -20
 981              		.cfi_offset 5, -16
 982              		.cfi_offset 6, -12
 983              		.cfi_offset 7, -8
 984              		.cfi_offset 14, -4
 985 0002 0746     		mov	r7, r0
 636:..\u8g2\csrc/mui_u8g2.c ****   mui_u8g2_u8_min_max_t *vmm= (mui_u8g2_u8_min_max_t *)muif_get_data(ui->uif);
 986              		.loc 1 636 0
 987 0004 FFF7FEFF 		bl	mui_get_U8g2
 988              	.LVL134:
 637:..\u8g2\csrc/mui_u8g2.c ****   char *s = "999";
 989              		.loc 1 637 0
 990 0008 BB6B     		ldr	r3, [r7, #56]
 991 000a 5B68     		ldr	r3, [r3, #4]
 992              	.LVL135:
 639:..\u8g2\csrc/mui_u8g2.c ****   uint8_t min = mui_u8g2_u8mm_get_min(vmm);
 993              		.loc 1 639 0
 994 000c 1C68     		ldr	r4, [r3]
 995              	.LVL136:
 640:..\u8g2\csrc/mui_u8g2.c ****   uint8_t max = mui_u8g2_u8mm_get_max(vmm);
 996              		.loc 1 640 0
 997 000e 1A79     		ldrb	r2, [r3, #4]	@ zero_extendqisi2
 998              	.LVL137:
 641:..\u8g2\csrc/mui_u8g2.c ****   uint8_t cnt = 3;
 999              		.loc 1 641 0
 1000 0010 5B79     		ldrb	r3, [r3, #5]	@ zero_extendqisi2
 1001              	.LVL138:
 644:..\u8g2\csrc/mui_u8g2.c ****     *value = max;
 1002              		.loc 1 644 0
 1003 0012 2178     		ldrb	r1, [r4]	@ zero_extendqisi2
 1004 0014 8B42     		cmp	r3, r1
 1005 0016 00D2     		bcs	.L79
 645:..\u8g2\csrc/mui_u8g2.c ****   if ( *value <= min )
 1006              		.loc 1 645 0
 1007 0018 2370     		strb	r3, [r4]
 1008              	.LVL139:
 1009              	.L79:
 646:..\u8g2\csrc/mui_u8g2.c ****     *value = min;
 1010              		.loc 1 646 0
 1011 001a 2178     		ldrb	r1, [r4]	@ zero_extendqisi2
 1012 001c 8A42     		cmp	r2, r1
ARM GAS  C:\Users\brian\AppData\Local\Temp\ccwE2E8f.s 			page 47


 1013 001e 00D3     		bcc	.L80
 647:..\u8g2\csrc/mui_u8g2.c ****   if ( max < 100 )
 1014              		.loc 1 647 0
 1015 0020 2270     		strb	r2, [r4]
 1016              	.L80:
 648:..\u8g2\csrc/mui_u8g2.c ****   {
 1017              		.loc 1 648 0
 1018 0022 632B     		cmp	r3, #99
 1019 0024 02D9     		bls	.L83
 642:..\u8g2\csrc/mui_u8g2.c ****   
 1020              		.loc 1 642 0
 1021 0026 0325     		movs	r5, #3
 638:..\u8g2\csrc/mui_u8g2.c ****   uint8_t *value = mui_u8g2_u8mm_get_valptr(vmm);
 1022              		.loc 1 638 0
 1023 0028 0B49     		ldr	r1, .L85
 1024 002a 01E0     		b	.L81
 1025              	.L83:
 651:..\u8g2\csrc/mui_u8g2.c ****   }
 1026              		.loc 1 651 0
 1027 002c 0225     		movs	r5, #2
 650:..\u8g2\csrc/mui_u8g2.c ****     cnt--;
 1028              		.loc 1 650 0
 1029 002e 0B49     		ldr	r1, .L85+4
 1030              	.L81:
 1031              	.LVL140:
 653:..\u8g2\csrc/mui_u8g2.c ****   {
 1032              		.loc 1 653 0
 1033 0030 092B     		cmp	r3, #9
 1034 0032 02D8     		bhi	.L82
 655:..\u8g2\csrc/mui_u8g2.c ****     cnt--;
 1035              		.loc 1 655 0
 1036 0034 0131     		adds	r1, r1, #1
 1037              	.LVL141:
 656:..\u8g2\csrc/mui_u8g2.c ****   }
 1038              		.loc 1 656 0
 1039 0036 013D     		subs	r5, r5, #1
 1040              	.LVL142:
 1041 0038 EDB2     		uxtb	r5, r5
 1042              	.LVL143:
 1043              	.L82:
 659:..\u8g2\csrc/mui_u8g2.c **** }
 1044              		.loc 1 659 0
 1045 003a FFF7FEFF 		bl	u8g2_GetStrWidth
 1046              	.LVL144:
 1047 003e 0646     		mov	r6, r0
 1048 0040 2946     		mov	r1, r5
 1049 0042 2078     		ldrb	r0, [r4]	@ zero_extendqisi2
 1050 0044 FFF7FEFF 		bl	u8x8_u8toa
 1051              	.LVL145:
 1052 0048 711C     		adds	r1, r6, #1
 1053 004a 0346     		mov	r3, r0
 1054 004c 0122     		movs	r2, #1
 1055 004e 89B2     		uxth	r1, r1
 1056 0050 3846     		mov	r0, r7
 1057 0052 FFF7FEFF 		bl	mui_u8g2_draw_button_pf
 1058              	.LVL146:
 1059 0056 F8BD     		pop	{r3, r4, r5, r6, r7, pc}
ARM GAS  C:\Users\brian\AppData\Local\Temp\ccwE2E8f.s 			page 48


 1060              	.LVL147:
 1061              	.L86:
 1062              		.align	2
 1063              	.L85:
 1064 0058 04000000 		.word	.LC1
 1065 005c 01000000 		.word	.LC1+1
 1066              		.cfi_endproc
 1067              	.LFE22:
 1068              		.size	mui_u8g2_u8_vmm_draw_wm_pf, .-mui_u8g2_u8_vmm_draw_wm_pf
 1069              		.section	.text.mui_u8g2_draw_text,"ax",%progbits
 1070              		.align	2
 1071              		.global	mui_u8g2_draw_text
 1072              		.thumb
 1073              		.thumb_func
 1074              		.type	mui_u8g2_draw_text, %function
 1075              	mui_u8g2_draw_text:
 1076              	.LFB13:
 301:..\u8g2\csrc/mui_u8g2.c ****   switch(msg)
 1077              		.loc 1 301 0
 1078              		.cfi_startproc
 1079              		@ args = 0, pretend = 0, frame = 0
 1080              		@ frame_needed = 0, uses_anonymous_args = 0
 1081              	.LVL148:
 302:..\u8g2\csrc/mui_u8g2.c ****   {
 1082              		.loc 1 302 0
 1083 0000 0129     		cmp	r1, #1
 1084 0002 14D1     		bne	.L91
 301:..\u8g2\csrc/mui_u8g2.c ****   switch(msg)
 1085              		.loc 1 301 0
 1086 0004 70B5     		push	{r4, r5, r6, lr}
 1087              		.cfi_def_cfa_offset 16
 1088              		.cfi_offset 4, -16
 1089              		.cfi_offset 5, -12
 1090              		.cfi_offset 6, -8
 1091              		.cfi_offset 14, -4
 1092 0006 0446     		mov	r4, r0
 305:..\u8g2\csrc/mui_u8g2.c ****       break;
 1093              		.loc 1 305 0
 1094 0008 FFF7FEFF 		bl	mui_get_U8g2
 1095              	.LVL149:
 1096 000c 0546     		mov	r5, r0
 1097 000e 2046     		mov	r0, r4
 1098 0010 FFF7FEFF 		bl	mui_get_x
 1099              	.LVL150:
 1100 0014 0646     		mov	r6, r0
 1101 0016 2046     		mov	r0, r4
 1102 0018 FFF7FEFF 		bl	mui_get_y
 1103              	.LVL151:
 1104 001c 04F13C03 		add	r3, r4, #60
 1105 0020 0246     		mov	r2, r0
 1106 0022 3146     		mov	r1, r6
 1107 0024 2846     		mov	r0, r5
 1108 0026 FFF7FEFF 		bl	u8g2_DrawStr
 1109              	.LVL152:
 323:..\u8g2\csrc/mui_u8g2.c **** 
 1110              		.loc 1 323 0
 1111 002a 0020     		movs	r0, #0
ARM GAS  C:\Users\brian\AppData\Local\Temp\ccwE2E8f.s 			page 49


 1112 002c 70BD     		pop	{r4, r5, r6, pc}
 1113              	.LVL153:
 1114              	.L91:
 1115              		.cfi_def_cfa_offset 0
 1116              		.cfi_restore 4
 1117              		.cfi_restore 5
 1118              		.cfi_restore 6
 1119              		.cfi_restore 14
 1120 002e 0020     		movs	r0, #0
 1121              	.LVL154:
 1122 0030 7047     		bx	lr
 1123              		.cfi_endproc
 1124              	.LFE13:
 1125              		.size	mui_u8g2_draw_text, .-mui_u8g2_draw_text
 1126 0032 00BF     		.section	.text.mui_u8g2_btn_goto_wm_fi,"ax",%progbits
 1127              		.align	2
 1128              		.global	mui_u8g2_btn_goto_wm_fi
 1129              		.thumb
 1130              		.thumb_func
 1131              		.type	mui_u8g2_btn_goto_wm_fi, %function
 1132              	mui_u8g2_btn_goto_wm_fi:
 1133              	.LFB14:
 352:..\u8g2\csrc/mui_u8g2.c ****   switch(msg)
 1134              		.loc 1 352 0
 1135              		.cfi_startproc
 1136              		@ args = 0, pretend = 0, frame = 0
 1137              		@ frame_needed = 0, uses_anonymous_args = 0
 1138              	.LVL155:
 1139 0000 10B5     		push	{r4, lr}
 1140              		.cfi_def_cfa_offset 8
 1141              		.cfi_offset 4, -8
 1142              		.cfi_offset 14, -4
 1143 0002 82B0     		sub	sp, sp, #8
 1144              		.cfi_def_cfa_offset 16
 1145 0004 0446     		mov	r4, r0
 353:..\u8g2\csrc/mui_u8g2.c ****   {
 1146              		.loc 1 353 0
 1147 0006 0129     		cmp	r1, #1
 1148 0008 02D0     		beq	.L94
 1149 000a 0529     		cmp	r1, #5
 1150 000c 10D0     		beq	.L95
 1151 000e 15E0     		b	.L97
 1152              	.L94:
 356:..\u8g2\csrc/mui_u8g2.c ****       break;
 1153              		.loc 1 356 0
 1154 0010 FFF7FEFF 		bl	mui_u8g2_get_fi_flags
 1155              	.LVL156:
 1156 0014 04F13C03 		add	r3, r4, #60
 1157 0018 40F04001 		orr	r1, r0, #64
 1158 001c 0193     		str	r3, [sp, #4]
 1159 001e 0123     		movs	r3, #1
 1160 0020 0093     		str	r3, [sp]
 1161 0022 0022     		movs	r2, #0
 1162 0024 89B2     		uxth	r1, r1
 1163 0026 2046     		mov	r0, r4
 1164 0028 FFF7FEFF 		bl	mui_u8g2_draw_button_utf
 1165              	.LVL157:
ARM GAS  C:\Users\brian\AppData\Local\Temp\ccwE2E8f.s 			page 50


 374:..\u8g2\csrc/mui_u8g2.c **** }
 1166              		.loc 1 374 0
 1167 002c 0020     		movs	r0, #0
 357:..\u8g2\csrc/mui_u8g2.c ****     case MUIF_MSG_FORM_START:
 1168              		.loc 1 357 0
 1169 002e 06E0     		b	.L93
 1170              	.LVL158:
 1171              	.L95:
 365:..\u8g2\csrc/mui_u8g2.c ****     case MUIF_MSG_CURSOR_LEAVE:
 1172              		.loc 1 365 0
 1173 0030 0022     		movs	r2, #0
 1174 0032 90F82E10 		ldrb	r1, [r0, #46]	@ zero_extendqisi2
 1175              	.LVL159:
 1176 0036 FFF7FEFF 		bl	mui_GotoForm
 1177              	.LVL160:
 1178 003a 00E0     		b	.L93
 1179              	.LVL161:
 1180              	.L97:
 374:..\u8g2\csrc/mui_u8g2.c **** }
 1181              		.loc 1 374 0
 1182 003c 0020     		movs	r0, #0
 1183              	.LVL162:
 1184              	.L93:
 375:..\u8g2\csrc/mui_u8g2.c **** 
 1185              		.loc 1 375 0
 1186 003e 02B0     		add	sp, sp, #8
 1187              		.cfi_def_cfa_offset 8
 1188              		@ sp needed
 1189 0040 10BD     		pop	{r4, pc}
 1190              		.cfi_endproc
 1191              	.LFE14:
 1192              		.size	mui_u8g2_btn_goto_wm_fi, .-mui_u8g2_btn_goto_wm_fi
 1193 0042 00BF     		.section	.text.mui_u8g2_btn_goto_w2_fi,"ax",%progbits
 1194              		.align	2
 1195              		.global	mui_u8g2_btn_goto_w2_fi
 1196              		.thumb
 1197              		.thumb_func
 1198              		.type	mui_u8g2_btn_goto_w2_fi, %function
 1199              	mui_u8g2_btn_goto_w2_fi:
 1200              	.LFB15:
 378:..\u8g2\csrc/mui_u8g2.c ****   u8g2_t *u8g2 = mui_get_U8g2(ui);
 1201              		.loc 1 378 0
 1202              		.cfi_startproc
 1203              		@ args = 0, pretend = 0, frame = 0
 1204              		@ frame_needed = 0, uses_anonymous_args = 0
 1205              	.LVL163:
 1206 0000 70B5     		push	{r4, r5, r6, lr}
 1207              		.cfi_def_cfa_offset 16
 1208              		.cfi_offset 4, -16
 1209              		.cfi_offset 5, -12
 1210              		.cfi_offset 6, -8
 1211              		.cfi_offset 14, -4
 1212 0002 82B0     		sub	sp, sp, #8
 1213              		.cfi_def_cfa_offset 24
 1214 0004 0546     		mov	r5, r0
 1215 0006 0C46     		mov	r4, r1
 379:..\u8g2\csrc/mui_u8g2.c ****   switch(msg)
ARM GAS  C:\Users\brian\AppData\Local\Temp\ccwE2E8f.s 			page 51


 1216              		.loc 1 379 0
 1217 0008 FFF7FEFF 		bl	mui_get_U8g2
 1218              	.LVL164:
 380:..\u8g2\csrc/mui_u8g2.c ****   {
 1219              		.loc 1 380 0
 1220 000c 012C     		cmp	r4, #1
 1221 000e 02D0     		beq	.L101
 1222 0010 052C     		cmp	r4, #5
 1223 0012 17D0     		beq	.L102
 1224 0014 1DE0     		b	.L104
 1225              	.L101:
 1226 0016 0646     		mov	r6, r0
 383:..\u8g2\csrc/mui_u8g2.c ****       break;
 1227              		.loc 1 383 0
 1228 0018 2846     		mov	r0, r5
 1229              	.LVL165:
 1230 001a FFF7FEFF 		bl	mui_u8g2_get_fi_flags
 1231              	.LVL166:
 1232 001e B6F84420 		ldrh	r2, [r6, #68]
 1233 0022 05F13C03 		add	r3, r5, #60
 1234 0026 5208     		lsrs	r2, r2, #1
 1235 0028 0A3A     		subs	r2, r2, #10
 1236 002a 40F04001 		orr	r1, r0, #64
 1237 002e 0193     		str	r3, [sp, #4]
 1238 0030 0123     		movs	r3, #1
 1239 0032 0093     		str	r3, [sp]
 1240 0034 0023     		movs	r3, #0
 1241 0036 92B2     		uxth	r2, r2
 1242 0038 89B2     		uxth	r1, r1
 1243 003a 2846     		mov	r0, r5
 1244 003c FFF7FEFF 		bl	mui_u8g2_draw_button_utf
 1245              	.LVL167:
 400:..\u8g2\csrc/mui_u8g2.c **** }
 1246              		.loc 1 400 0
 1247 0040 0020     		movs	r0, #0
 384:..\u8g2\csrc/mui_u8g2.c ****     case MUIF_MSG_FORM_START:
 1248              		.loc 1 384 0
 1249 0042 07E0     		b	.L100
 1250              	.LVL168:
 1251              	.L102:
 392:..\u8g2\csrc/mui_u8g2.c ****     case MUIF_MSG_CURSOR_LEAVE:
 1252              		.loc 1 392 0
 1253 0044 0022     		movs	r2, #0
 1254 0046 95F82E10 		ldrb	r1, [r5, #46]	@ zero_extendqisi2
 1255 004a 2846     		mov	r0, r5
 1256              	.LVL169:
 1257 004c FFF7FEFF 		bl	mui_GotoForm
 1258              	.LVL170:
 1259 0050 00E0     		b	.L100
 1260              	.LVL171:
 1261              	.L104:
 400:..\u8g2\csrc/mui_u8g2.c **** }
 1262              		.loc 1 400 0
 1263 0052 0020     		movs	r0, #0
 1264              	.LVL172:
 1265              	.L100:
 401:..\u8g2\csrc/mui_u8g2.c **** 
ARM GAS  C:\Users\brian\AppData\Local\Temp\ccwE2E8f.s 			page 52


 1266              		.loc 1 401 0
 1267 0054 02B0     		add	sp, sp, #8
 1268              		.cfi_def_cfa_offset 16
 1269              		@ sp needed
 1270 0056 70BD     		pop	{r4, r5, r6, pc}
 1271              		.cfi_endproc
 1272              	.LFE15:
 1273              		.size	mui_u8g2_btn_goto_w2_fi, .-mui_u8g2_btn_goto_w2_fi
 1274              		.section	.text.mui_u8g2_btn_exit_wm_fi,"ax",%progbits
 1275              		.align	2
 1276              		.global	mui_u8g2_btn_exit_wm_fi
 1277              		.thumb
 1278              		.thumb_func
 1279              		.type	mui_u8g2_btn_exit_wm_fi, %function
 1280              	mui_u8g2_btn_exit_wm_fi:
 1281              	.LFB16:
 431:..\u8g2\csrc/mui_u8g2.c ****   switch(msg)
 1282              		.loc 1 431 0
 1283              		.cfi_startproc
 1284              		@ args = 0, pretend = 0, frame = 0
 1285              		@ frame_needed = 0, uses_anonymous_args = 0
 1286              	.LVL173:
 1287 0000 10B5     		push	{r4, lr}
 1288              		.cfi_def_cfa_offset 8
 1289              		.cfi_offset 4, -8
 1290              		.cfi_offset 14, -4
 1291 0002 82B0     		sub	sp, sp, #8
 1292              		.cfi_def_cfa_offset 16
 1293 0004 0446     		mov	r4, r0
 432:..\u8g2\csrc/mui_u8g2.c ****   {
 1294              		.loc 1 432 0
 1295 0006 0129     		cmp	r1, #1
 1296 0008 02D0     		beq	.L108
 1297 000a 0529     		cmp	r1, #5
 1298 000c 10D0     		beq	.L109
 1299 000e 1AE0     		b	.L112
 1300              	.L108:
 435:..\u8g2\csrc/mui_u8g2.c ****       break;
 1301              		.loc 1 435 0
 1302 0010 FFF7FEFF 		bl	mui_u8g2_get_fi_flags
 1303              	.LVL174:
 1304 0014 04F13C03 		add	r3, r4, #60
 1305 0018 40F04001 		orr	r1, r0, #64
 1306 001c 0193     		str	r3, [sp, #4]
 1307 001e 0123     		movs	r3, #1
 1308 0020 0093     		str	r3, [sp]
 1309 0022 0022     		movs	r2, #0
 1310 0024 89B2     		uxth	r1, r1
 1311 0026 2046     		mov	r0, r4
 1312 0028 FFF7FEFF 		bl	mui_u8g2_draw_button_utf
 1313              	.LVL175:
 458:..\u8g2\csrc/mui_u8g2.c **** }
 1314              		.loc 1 458 0
 1315 002c 0020     		movs	r0, #0
 436:..\u8g2\csrc/mui_u8g2.c ****     case MUIF_MSG_FORM_START:
 1316              		.loc 1 436 0
 1317 002e 0BE0     		b	.L107
ARM GAS  C:\Users\brian\AppData\Local\Temp\ccwE2E8f.s 			page 53


 1318              	.LVL176:
 1319              	.L109:
 1320              	.LBB2:
 445:..\u8g2\csrc/mui_u8g2.c ****         if ( value != NULL )
 1321              		.loc 1 445 0
 1322 0030 836B     		ldr	r3, [r0, #56]
 1323 0032 5B68     		ldr	r3, [r3, #4]
 1324              	.LVL177:
 446:..\u8g2\csrc/mui_u8g2.c ****           *value = ui->arg;
 1325              		.loc 1 446 0
 1326 0034 13B1     		cbz	r3, .L110
 447:..\u8g2\csrc/mui_u8g2.c ****       }
 1327              		.loc 1 447 0
 1328 0036 90F82E20 		ldrb	r2, [r0, #46]	@ zero_extendqisi2
 1329 003a 1A70     		strb	r2, [r3]
 1330              	.L110:
 1331              	.LBE2:
 449:..\u8g2\csrc/mui_u8g2.c ****       return 1;
 1332              		.loc 1 449 0
 1333 003c 2046     		mov	r0, r4
 1334              	.LVL178:
 1335 003e FFF7FEFF 		bl	mui_LeaveForm
 1336              	.LVL179:
 450:..\u8g2\csrc/mui_u8g2.c ****     case MUIF_MSG_CURSOR_LEAVE:
 1337              		.loc 1 450 0
 1338 0042 0120     		movs	r0, #1
 1339 0044 00E0     		b	.L107
 1340              	.LVL180:
 1341              	.L112:
 458:..\u8g2\csrc/mui_u8g2.c **** }
 1342              		.loc 1 458 0
 1343 0046 0020     		movs	r0, #0
 1344              	.LVL181:
 1345              	.L107:
 459:..\u8g2\csrc/mui_u8g2.c **** 
 1346              		.loc 1 459 0
 1347 0048 02B0     		add	sp, sp, #8
 1348              		.cfi_def_cfa_offset 8
 1349              		@ sp needed
 1350 004a 10BD     		pop	{r4, pc}
 1351              		.cfi_endproc
 1352              	.LFE16:
 1353              		.size	mui_u8g2_btn_exit_wm_fi, .-mui_u8g2_btn_exit_wm_fi
 1354              		.section	.text.mui_u8g2_btn_goto_w1_pi,"ax",%progbits
 1355              		.align	2
 1356              		.global	mui_u8g2_btn_goto_w1_pi
 1357              		.thumb
 1358              		.thumb_func
 1359              		.type	mui_u8g2_btn_goto_w1_pi, %function
 1360              	mui_u8g2_btn_goto_w1_pi:
 1361              	.LFB17:
 463:..\u8g2\csrc/mui_u8g2.c ****   u8g2_t *u8g2 = mui_get_U8g2(ui);
 1362              		.loc 1 463 0
 1363              		.cfi_startproc
 1364              		@ args = 0, pretend = 0, frame = 0
 1365              		@ frame_needed = 0, uses_anonymous_args = 0
 1366              	.LVL182:
ARM GAS  C:\Users\brian\AppData\Local\Temp\ccwE2E8f.s 			page 54


 1367 0000 38B5     		push	{r3, r4, r5, lr}
 1368              		.cfi_def_cfa_offset 16
 1369              		.cfi_offset 3, -16
 1370              		.cfi_offset 4, -12
 1371              		.cfi_offset 5, -8
 1372              		.cfi_offset 14, -4
 1373 0002 0546     		mov	r5, r0
 1374 0004 0C46     		mov	r4, r1
 464:..\u8g2\csrc/mui_u8g2.c ****   switch(msg)
 1375              		.loc 1 464 0
 1376 0006 FFF7FEFF 		bl	mui_get_U8g2
 1377              	.LVL183:
 465:..\u8g2\csrc/mui_u8g2.c ****   {
 1378              		.loc 1 465 0
 1379 000a 012C     		cmp	r4, #1
 1380 000c 02D0     		beq	.L116
 1381 000e 052C     		cmp	r4, #5
 1382 0010 10D0     		beq	.L117
 1383 0012 16E0     		b	.L119
 1384              	.L116:
 468:..\u8g2\csrc/mui_u8g2.c ****       //mui_u8g2_draw_button_utf(ui, mui_u8g2_get_pi_flags(ui), u8g2_GetDisplayWidth(u8g2)-mui_get_
 1385              		.loc 1 468 0
 1386 0014 B0F84440 		ldrh	r4, [r0, #68]
 1387 0018 2846     		mov	r0, r5
 1388              	.LVL184:
 1389 001a FFF7FEFF 		bl	mui_get_x
 1390              	.LVL185:
 1391 001e 0246     		mov	r2, r0
 1392 0020 A4EB4001 		sub	r1, r4, r0, lsl #1
 1393 0024 05F13C03 		add	r3, r5, #60
 1394 0028 89B2     		uxth	r1, r1
 1395 002a 2846     		mov	r0, r5
 1396 002c FFF7FEFF 		bl	mui_u8g2_draw_button_pi
 1397              	.LVL186:
 486:..\u8g2\csrc/mui_u8g2.c **** }
 1398              		.loc 1 486 0
 1399 0030 0020     		movs	r0, #0
 470:..\u8g2\csrc/mui_u8g2.c ****     case MUIF_MSG_FORM_START:
 1400              		.loc 1 470 0
 1401 0032 38BD     		pop	{r3, r4, r5, pc}
 1402              	.LVL187:
 1403              	.L117:
 478:..\u8g2\csrc/mui_u8g2.c ****     case MUIF_MSG_CURSOR_LEAVE:
 1404              		.loc 1 478 0
 1405 0034 0022     		movs	r2, #0
 1406 0036 95F82E10 		ldrb	r1, [r5, #46]	@ zero_extendqisi2
 1407 003a 2846     		mov	r0, r5
 1408              	.LVL188:
 1409 003c FFF7FEFF 		bl	mui_GotoForm
 1410              	.LVL189:
 1411 0040 38BD     		pop	{r3, r4, r5, pc}
 1412              	.LVL190:
 1413              	.L119:
 486:..\u8g2\csrc/mui_u8g2.c **** }
 1414              		.loc 1 486 0
 1415 0042 0020     		movs	r0, #0
 1416              	.LVL191:
ARM GAS  C:\Users\brian\AppData\Local\Temp\ccwE2E8f.s 			page 55


 487:..\u8g2\csrc/mui_u8g2.c **** 
 1417              		.loc 1 487 0
 1418 0044 38BD     		pop	{r3, r4, r5, pc}
 1419              		.cfi_endproc
 1420              	.LFE17:
 1421              		.size	mui_u8g2_btn_goto_w1_pi, .-mui_u8g2_btn_goto_w1_pi
 1422 0046 00BF     		.section	.text.mui_u8g2_btn_goto_w1_fi,"ax",%progbits
 1423              		.align	2
 1424              		.global	mui_u8g2_btn_goto_w1_fi
 1425              		.thumb
 1426              		.thumb_func
 1427              		.type	mui_u8g2_btn_goto_w1_fi, %function
 1428              	mui_u8g2_btn_goto_w1_fi:
 1429              	.LFB18:
 491:..\u8g2\csrc/mui_u8g2.c ****   u8g2_t *u8g2 = mui_get_U8g2(ui);
 1430              		.loc 1 491 0
 1431              		.cfi_startproc
 1432              		@ args = 0, pretend = 0, frame = 0
 1433              		@ frame_needed = 0, uses_anonymous_args = 0
 1434              	.LVL192:
 1435 0000 38B5     		push	{r3, r4, r5, lr}
 1436              		.cfi_def_cfa_offset 16
 1437              		.cfi_offset 3, -16
 1438              		.cfi_offset 4, -12
 1439              		.cfi_offset 5, -8
 1440              		.cfi_offset 14, -4
 1441 0002 0546     		mov	r5, r0
 1442 0004 0C46     		mov	r4, r1
 492:..\u8g2\csrc/mui_u8g2.c ****   switch(msg)
 1443              		.loc 1 492 0
 1444 0006 FFF7FEFF 		bl	mui_get_U8g2
 1445              	.LVL193:
 493:..\u8g2\csrc/mui_u8g2.c ****   {
 1446              		.loc 1 493 0
 1447 000a 012C     		cmp	r4, #1
 1448 000c 02D0     		beq	.L123
 1449 000e 052C     		cmp	r4, #5
 1450 0010 11D0     		beq	.L124
 1451 0012 17E0     		b	.L126
 1452              	.L123:
 496:..\u8g2\csrc/mui_u8g2.c ****       //mui_u8g2_draw_button_utf(ui, mui_u8g2_get_pi_flags(ui), u8g2_GetDisplayWidth(u8g2)-mui_get_
 1453              		.loc 1 496 0
 1454 0014 B0F84440 		ldrh	r4, [r0, #68]
 1455 0018 2846     		mov	r0, r5
 1456              	.LVL194:
 1457 001a FFF7FEFF 		bl	mui_get_x
 1458              	.LVL195:
 1459 001e 421E     		subs	r2, r0, #1
 1460 0020 A4EB4001 		sub	r1, r4, r0, lsl #1
 1461 0024 05F13C03 		add	r3, r5, #60
 1462 0028 92B2     		uxth	r2, r2
 1463 002a 89B2     		uxth	r1, r1
 1464 002c 2846     		mov	r0, r5
 1465 002e FFF7FEFF 		bl	mui_u8g2_draw_button_fi
 1466              	.LVL196:
 514:..\u8g2\csrc/mui_u8g2.c **** }
 1467              		.loc 1 514 0
ARM GAS  C:\Users\brian\AppData\Local\Temp\ccwE2E8f.s 			page 56


 1468 0032 0020     		movs	r0, #0
 498:..\u8g2\csrc/mui_u8g2.c ****     case MUIF_MSG_FORM_START:
 1469              		.loc 1 498 0
 1470 0034 38BD     		pop	{r3, r4, r5, pc}
 1471              	.LVL197:
 1472              	.L124:
 506:..\u8g2\csrc/mui_u8g2.c ****     case MUIF_MSG_CURSOR_LEAVE:
 1473              		.loc 1 506 0
 1474 0036 0022     		movs	r2, #0
 1475 0038 95F82E10 		ldrb	r1, [r5, #46]	@ zero_extendqisi2
 1476 003c 2846     		mov	r0, r5
 1477              	.LVL198:
 1478 003e FFF7FEFF 		bl	mui_GotoForm
 1479              	.LVL199:
 1480 0042 38BD     		pop	{r3, r4, r5, pc}
 1481              	.LVL200:
 1482              	.L126:
 514:..\u8g2\csrc/mui_u8g2.c **** }
 1483              		.loc 1 514 0
 1484 0044 0020     		movs	r0, #0
 1485              	.LVL201:
 515:..\u8g2\csrc/mui_u8g2.c **** 
 1486              		.loc 1 515 0
 1487 0046 38BD     		pop	{r3, r4, r5, pc}
 1488              		.cfi_endproc
 1489              	.LFE18:
 1490              		.size	mui_u8g2_btn_goto_w1_fi, .-mui_u8g2_btn_goto_w1_fi
 1491              		.section	.text.mui_u8g2_u8_min_max_wm_mse_pi,"ax",%progbits
 1492              		.align	2
 1493              		.global	mui_u8g2_u8_min_max_wm_mse_pi
 1494              		.thumb
 1495              		.thumb_func
 1496              		.type	mui_u8g2_u8_min_max_wm_mse_pi, %function
 1497              	mui_u8g2_u8_min_max_wm_mse_pi:
 1498              	.LFB20:
 551:..\u8g2\csrc/mui_u8g2.c ****   mui_u8g2_u8_min_max_t *vmm= (mui_u8g2_u8_min_max_t *)muif_get_data(ui->uif);
 1499              		.loc 1 551 0
 1500              		.cfi_startproc
 1501              		@ args = 0, pretend = 0, frame = 0
 1502              		@ frame_needed = 0, uses_anonymous_args = 0
 1503              	.LVL202:
 1504 0000 38B5     		push	{r3, r4, r5, lr}
 1505              		.cfi_def_cfa_offset 16
 1506              		.cfi_offset 3, -16
 1507              		.cfi_offset 4, -12
 1508              		.cfi_offset 5, -8
 1509              		.cfi_offset 14, -4
 552:..\u8g2\csrc/mui_u8g2.c ****   uint8_t *value = mui_u8g2_u8mm_get_valptr(vmm);
 1510              		.loc 1 552 0
 1511 0002 836B     		ldr	r3, [r0, #56]
 1512 0004 5B68     		ldr	r3, [r3, #4]
 1513              	.LVL203:
 553:..\u8g2\csrc/mui_u8g2.c ****   uint8_t min = mui_u8g2_u8mm_get_min(vmm);
 1514              		.loc 1 553 0
 1515 0006 1A68     		ldr	r2, [r3]
 1516              	.LVL204:
 554:..\u8g2\csrc/mui_u8g2.c ****   uint8_t max = mui_u8g2_u8mm_get_max(vmm);
ARM GAS  C:\Users\brian\AppData\Local\Temp\ccwE2E8f.s 			page 57


 1517              		.loc 1 554 0
 1518 0008 1D79     		ldrb	r5, [r3, #4]	@ zero_extendqisi2
 1519              	.LVL205:
 555:..\u8g2\csrc/mui_u8g2.c ****   switch(msg)
 1520              		.loc 1 555 0
 1521 000a 5C79     		ldrb	r4, [r3, #5]	@ zero_extendqisi2
 1522              	.LVL206:
 556:..\u8g2\csrc/mui_u8g2.c ****   {
 1523              		.loc 1 556 0
 1524 000c 0129     		cmp	r1, #1
 1525 000e 02D0     		beq	.L130
 1526 0010 0529     		cmp	r1, #5
 1527 0012 03D0     		beq	.L131
 1528 0014 09E0     		b	.L129
 1529              	.L130:
 559:..\u8g2\csrc/mui_u8g2.c ****       break;
 1530              		.loc 1 559 0
 1531 0016 FFF7FEFF 		bl	mui_u8g2_u8_vmm_draw_wm_pi
 1532              	.LVL207:
 560:..\u8g2\csrc/mui_u8g2.c ****     case MUIF_MSG_FORM_START:
 1533              		.loc 1 560 0
 1534 001a 06E0     		b	.L129
 1535              	.LVL208:
 1536              	.L131:
 568:..\u8g2\csrc/mui_u8g2.c ****       if ( *value > max ) *value = min;
 1537              		.loc 1 568 0
 1538 001c 1378     		ldrb	r3, [r2]	@ zero_extendqisi2
 1539              	.LVL209:
 1540 001e 0133     		adds	r3, r3, #1
 1541 0020 DBB2     		uxtb	r3, r3
 1542 0022 1370     		strb	r3, [r2]
 1543              	.LVL210:
 569:..\u8g2\csrc/mui_u8g2.c ****       break;
 1544              		.loc 1 569 0
 1545 0024 9C42     		cmp	r4, r3
 1546 0026 00D2     		bcs	.L129
 569:..\u8g2\csrc/mui_u8g2.c ****       break;
 1547              		.loc 1 569 0 is_stmt 0 discriminator 1
 1548 0028 1570     		strb	r5, [r2]
 1549              	.LVL211:
 1550              	.L129:
 579:..\u8g2\csrc/mui_u8g2.c **** 
 1551              		.loc 1 579 0 is_stmt 1
 1552 002a 0020     		movs	r0, #0
 1553 002c 38BD     		pop	{r3, r4, r5, pc}
 1554              		.cfi_endproc
 1555              	.LFE20:
 1556              		.size	mui_u8g2_u8_min_max_wm_mse_pi, .-mui_u8g2_u8_min_max_wm_mse_pi
 1557 002e 00BF     		.section	.text.mui_u8g2_u8_min_max_wm_mud_pi,"ax",%progbits
 1558              		.align	2
 1559              		.global	mui_u8g2_u8_min_max_wm_mud_pi
 1560              		.thumb
 1561              		.thumb_func
 1562              		.type	mui_u8g2_u8_min_max_wm_mud_pi, %function
 1563              	mui_u8g2_u8_min_max_wm_mud_pi:
 1564              	.LFB21:
 582:..\u8g2\csrc/mui_u8g2.c ****   mui_u8g2_u8_min_max_t *vmm= (mui_u8g2_u8_min_max_t *)muif_get_data(ui->uif);
ARM GAS  C:\Users\brian\AppData\Local\Temp\ccwE2E8f.s 			page 58


 1565              		.loc 1 582 0
 1566              		.cfi_startproc
 1567              		@ args = 0, pretend = 0, frame = 0
 1568              		@ frame_needed = 0, uses_anonymous_args = 0
 1569              	.LVL212:
 1570 0000 10B5     		push	{r4, lr}
 1571              		.cfi_def_cfa_offset 8
 1572              		.cfi_offset 4, -8
 1573              		.cfi_offset 14, -4
 583:..\u8g2\csrc/mui_u8g2.c ****   uint8_t *value = mui_u8g2_u8mm_get_valptr(vmm);
 1574              		.loc 1 583 0
 1575 0002 836B     		ldr	r3, [r0, #56]
 1576 0004 5B68     		ldr	r3, [r3, #4]
 1577              	.LVL213:
 584:..\u8g2\csrc/mui_u8g2.c ****   uint8_t min = mui_u8g2_u8mm_get_min(vmm);
 1578              		.loc 1 584 0
 1579 0006 1A68     		ldr	r2, [r3]
 1580              	.LVL214:
 585:..\u8g2\csrc/mui_u8g2.c ****   uint8_t max = mui_u8g2_u8mm_get_max(vmm);
 1581              		.loc 1 585 0
 1582 0008 1C79     		ldrb	r4, [r3, #4]	@ zero_extendqisi2
 1583              	.LVL215:
 586:..\u8g2\csrc/mui_u8g2.c ****   switch(msg)
 1584              		.loc 1 586 0
 1585 000a 5B79     		ldrb	r3, [r3, #5]	@ zero_extendqisi2
 1586              	.LVL216:
 587:..\u8g2\csrc/mui_u8g2.c ****   {
 1587              		.loc 1 587 0
 1588 000c 0139     		subs	r1, r1, #1
 1589              	.LVL217:
 1590 000e 0929     		cmp	r1, #9
 1591 0010 2CD8     		bhi	.L141
 1592 0012 DFE801F0 		tbb	[pc, r1]
 1593              	.L136:
 1594 0016 05       		.byte	(.L135-.L136)/2
 1595 0017 2B       		.byte	(.L141-.L136)/2
 1596 0018 2B       		.byte	(.L141-.L136)/2
 1597 0019 2B       		.byte	(.L141-.L136)/2
 1598 001a 09       		.byte	(.L137-.L136)/2
 1599 001b 2B       		.byte	(.L141-.L136)/2
 1600 001c 2B       		.byte	(.L141-.L136)/2
 1601 001d 2B       		.byte	(.L141-.L136)/2
 1602 001e 12       		.byte	(.L138-.L136)/2
 1603 001f 1E       		.byte	(.L139-.L136)/2
 1604              		.p2align 1
 1605              	.L135:
 590:..\u8g2\csrc/mui_u8g2.c ****       break;
 1606              		.loc 1 590 0
 1607 0020 FFF7FEFF 		bl	mui_u8g2_u8_vmm_draw_wm_pi
 1608              	.LVL218:
 628:..\u8g2\csrc/mui_u8g2.c **** }
 1609              		.loc 1 628 0
 1610 0024 0020     		movs	r0, #0
 591:..\u8g2\csrc/mui_u8g2.c ****     case MUIF_MSG_FORM_START:
 1611              		.loc 1 591 0
 1612 0026 10BD     		pop	{r4, pc}
 1613              	.LVL219:
ARM GAS  C:\Users\brian\AppData\Local\Temp\ccwE2E8f.s 			page 59


 1614              	.L137:
 600:..\u8g2\csrc/mui_u8g2.c ****       break;
 1615              		.loc 1 600 0
 1616 0028 90F82630 		ldrb	r3, [r0, #38]	@ zero_extendqisi2
 1617              	.LVL220:
 1618 002c B3FA83F3 		clz	r3, r3
 1619 0030 5B09     		lsrs	r3, r3, #5
 1620 0032 80F82630 		strb	r3, [r0, #38]
 1621              	.LVL221:
 628:..\u8g2\csrc/mui_u8g2.c **** }
 1622              		.loc 1 628 0
 1623 0036 0020     		movs	r0, #0
 1624              	.LVL222:
 601:..\u8g2\csrc/mui_u8g2.c ****     case MUIF_MSG_CURSOR_LEAVE:
 1625              		.loc 1 601 0
 1626 0038 10BD     		pop	{r4, pc}
 1627              	.LVL223:
 1628              	.L138:
 609:..\u8g2\csrc/mui_u8g2.c ****       {
 1629              		.loc 1 609 0
 1630 003a 90F82600 		ldrb	r0, [r0, #38]	@ zero_extendqisi2
 1631              	.LVL224:
 1632 003e C0B1     		cbz	r0, .L134
 611:..\u8g2\csrc/mui_u8g2.c ****         if ( *value > max )
 1633              		.loc 1 611 0
 1634 0040 1178     		ldrb	r1, [r2]	@ zero_extendqisi2
 1635 0042 0131     		adds	r1, r1, #1
 1636 0044 C9B2     		uxtb	r1, r1
 1637 0046 1170     		strb	r1, [r2]
 1638              	.LVL225:
 612:..\u8g2\csrc/mui_u8g2.c ****           *value = min;
 1639              		.loc 1 612 0
 1640 0048 8B42     		cmp	r3, r1
 1641 004a 11D2     		bcs	.L142
 613:..\u8g2\csrc/mui_u8g2.c ****         return 1;
 1642              		.loc 1 613 0
 1643 004c 1470     		strb	r4, [r2]
 614:..\u8g2\csrc/mui_u8g2.c ****       }
 1644              		.loc 1 614 0
 1645 004e 0120     		movs	r0, #1
 1646 0050 10BD     		pop	{r4, pc}
 1647              	.LVL226:
 1648              	.L139:
 618:..\u8g2\csrc/mui_u8g2.c ****       {
 1649              		.loc 1 618 0
 1650 0052 90F82600 		ldrb	r0, [r0, #38]	@ zero_extendqisi2
 1651              	.LVL227:
 1652 0056 60B1     		cbz	r0, .L134
 620:..\u8g2\csrc/mui_u8g2.c ****           *value = max;
 1653              		.loc 1 620 0
 1654 0058 1178     		ldrb	r1, [r2]	@ zero_extendqisi2
 1655 005a 8C42     		cmp	r4, r1
 1656 005c 02D3     		bcc	.L140
 621:..\u8g2\csrc/mui_u8g2.c ****         else
 1657              		.loc 1 621 0
 1658 005e 1370     		strb	r3, [r2]
 1659              	.LVL228:
ARM GAS  C:\Users\brian\AppData\Local\Temp\ccwE2E8f.s 			page 60


 624:..\u8g2\csrc/mui_u8g2.c ****       }
 1660              		.loc 1 624 0
 1661 0060 0120     		movs	r0, #1
 1662 0062 10BD     		pop	{r4, pc}
 1663              	.LVL229:
 1664              	.L140:
 623:..\u8g2\csrc/mui_u8g2.c ****         return 1;
 1665              		.loc 1 623 0
 1666 0064 0139     		subs	r1, r1, #1
 1667 0066 1170     		strb	r1, [r2]
 1668              	.LVL230:
 624:..\u8g2\csrc/mui_u8g2.c ****       }
 1669              		.loc 1 624 0
 1670 0068 0120     		movs	r0, #1
 1671 006a 10BD     		pop	{r4, pc}
 1672              	.LVL231:
 1673              	.L141:
 628:..\u8g2\csrc/mui_u8g2.c **** }
 1674              		.loc 1 628 0
 1675 006c 0020     		movs	r0, #0
 1676              	.LVL232:
 1677 006e 10BD     		pop	{r4, pc}
 1678              	.LVL233:
 1679              	.L142:
 614:..\u8g2\csrc/mui_u8g2.c ****       }
 1680              		.loc 1 614 0
 1681 0070 0120     		movs	r0, #1
 1682              	.L134:
 629:..\u8g2\csrc/mui_u8g2.c **** 
 1683              		.loc 1 629 0
 1684 0072 10BD     		pop	{r4, pc}
 1685              		.cfi_endproc
 1686              	.LFE21:
 1687              		.size	mui_u8g2_u8_min_max_wm_mud_pi, .-mui_u8g2_u8_min_max_wm_mud_pi
 1688              		.section	.text.mui_u8g2_u8_min_max_wm_mse_pf,"ax",%progbits
 1689              		.align	2
 1690              		.global	mui_u8g2_u8_min_max_wm_mse_pf
 1691              		.thumb
 1692              		.thumb_func
 1693              		.type	mui_u8g2_u8_min_max_wm_mse_pf, %function
 1694              	mui_u8g2_u8_min_max_wm_mse_pf:
 1695              	.LFB23:
 664:..\u8g2\csrc/mui_u8g2.c ****   mui_u8g2_u8_min_max_t *vmm= (mui_u8g2_u8_min_max_t *)muif_get_data(ui->uif);
 1696              		.loc 1 664 0
 1697              		.cfi_startproc
 1698              		@ args = 0, pretend = 0, frame = 0
 1699              		@ frame_needed = 0, uses_anonymous_args = 0
 1700              	.LVL234:
 1701 0000 38B5     		push	{r3, r4, r5, lr}
 1702              		.cfi_def_cfa_offset 16
 1703              		.cfi_offset 3, -16
 1704              		.cfi_offset 4, -12
 1705              		.cfi_offset 5, -8
 1706              		.cfi_offset 14, -4
 665:..\u8g2\csrc/mui_u8g2.c ****   uint8_t *value = mui_u8g2_u8mm_get_valptr(vmm);
 1707              		.loc 1 665 0
 1708 0002 836B     		ldr	r3, [r0, #56]
ARM GAS  C:\Users\brian\AppData\Local\Temp\ccwE2E8f.s 			page 61


 1709 0004 5B68     		ldr	r3, [r3, #4]
 1710              	.LVL235:
 666:..\u8g2\csrc/mui_u8g2.c ****   uint8_t min = mui_u8g2_u8mm_get_min(vmm);
 1711              		.loc 1 666 0
 1712 0006 1A68     		ldr	r2, [r3]
 1713              	.LVL236:
 667:..\u8g2\csrc/mui_u8g2.c ****   uint8_t max = mui_u8g2_u8mm_get_max(vmm);
 1714              		.loc 1 667 0
 1715 0008 1D79     		ldrb	r5, [r3, #4]	@ zero_extendqisi2
 1716              	.LVL237:
 668:..\u8g2\csrc/mui_u8g2.c ****   switch(msg)
 1717              		.loc 1 668 0
 1718 000a 5C79     		ldrb	r4, [r3, #5]	@ zero_extendqisi2
 1719              	.LVL238:
 669:..\u8g2\csrc/mui_u8g2.c ****   {
 1720              		.loc 1 669 0
 1721 000c 0129     		cmp	r1, #1
 1722 000e 02D0     		beq	.L146
 1723 0010 0529     		cmp	r1, #5
 1724 0012 03D0     		beq	.L147
 1725 0014 09E0     		b	.L145
 1726              	.L146:
 672:..\u8g2\csrc/mui_u8g2.c ****       break;
 1727              		.loc 1 672 0
 1728 0016 FFF7FEFF 		bl	mui_u8g2_u8_vmm_draw_wm_pf
 1729              	.LVL239:
 673:..\u8g2\csrc/mui_u8g2.c ****     case MUIF_MSG_FORM_START:
 1730              		.loc 1 673 0
 1731 001a 06E0     		b	.L145
 1732              	.LVL240:
 1733              	.L147:
 681:..\u8g2\csrc/mui_u8g2.c ****       if ( *value > max ) *value = min;
 1734              		.loc 1 681 0
 1735 001c 1378     		ldrb	r3, [r2]	@ zero_extendqisi2
 1736              	.LVL241:
 1737 001e 0133     		adds	r3, r3, #1
 1738 0020 DBB2     		uxtb	r3, r3
 1739 0022 1370     		strb	r3, [r2]
 1740              	.LVL242:
 682:..\u8g2\csrc/mui_u8g2.c ****       break;
 1741              		.loc 1 682 0
 1742 0024 9C42     		cmp	r4, r3
 1743 0026 00D2     		bcs	.L145
 682:..\u8g2\csrc/mui_u8g2.c ****       break;
 1744              		.loc 1 682 0 is_stmt 0 discriminator 1
 1745 0028 1570     		strb	r5, [r2]
 1746              	.LVL243:
 1747              	.L145:
 692:..\u8g2\csrc/mui_u8g2.c **** 
 1748              		.loc 1 692 0 is_stmt 1
 1749 002a 0020     		movs	r0, #0
 1750 002c 38BD     		pop	{r3, r4, r5, pc}
 1751              		.cfi_endproc
 1752              	.LFE23:
 1753              		.size	mui_u8g2_u8_min_max_wm_mse_pf, .-mui_u8g2_u8_min_max_wm_mse_pf
 1754 002e 00BF     		.section	.text.mui_u8g2_u8_min_max_wm_mud_pf,"ax",%progbits
 1755              		.align	2
ARM GAS  C:\Users\brian\AppData\Local\Temp\ccwE2E8f.s 			page 62


 1756              		.global	mui_u8g2_u8_min_max_wm_mud_pf
 1757              		.thumb
 1758              		.thumb_func
 1759              		.type	mui_u8g2_u8_min_max_wm_mud_pf, %function
 1760              	mui_u8g2_u8_min_max_wm_mud_pf:
 1761              	.LFB24:
 695:..\u8g2\csrc/mui_u8g2.c ****   mui_u8g2_u8_min_max_t *vmm= (mui_u8g2_u8_min_max_t *)muif_get_data(ui->uif);
 1762              		.loc 1 695 0
 1763              		.cfi_startproc
 1764              		@ args = 0, pretend = 0, frame = 0
 1765              		@ frame_needed = 0, uses_anonymous_args = 0
 1766              	.LVL244:
 1767 0000 10B5     		push	{r4, lr}
 1768              		.cfi_def_cfa_offset 8
 1769              		.cfi_offset 4, -8
 1770              		.cfi_offset 14, -4
 696:..\u8g2\csrc/mui_u8g2.c ****   uint8_t *value = mui_u8g2_u8mm_get_valptr(vmm);
 1771              		.loc 1 696 0
 1772 0002 836B     		ldr	r3, [r0, #56]
 1773 0004 5B68     		ldr	r3, [r3, #4]
 1774              	.LVL245:
 697:..\u8g2\csrc/mui_u8g2.c ****   uint8_t min = mui_u8g2_u8mm_get_min(vmm);
 1775              		.loc 1 697 0
 1776 0006 1A68     		ldr	r2, [r3]
 1777              	.LVL246:
 698:..\u8g2\csrc/mui_u8g2.c ****   uint8_t max = mui_u8g2_u8mm_get_max(vmm);
 1778              		.loc 1 698 0
 1779 0008 1C79     		ldrb	r4, [r3, #4]	@ zero_extendqisi2
 1780              	.LVL247:
 699:..\u8g2\csrc/mui_u8g2.c ****   switch(msg)
 1781              		.loc 1 699 0
 1782 000a 5B79     		ldrb	r3, [r3, #5]	@ zero_extendqisi2
 1783              	.LVL248:
 700:..\u8g2\csrc/mui_u8g2.c ****   {
 1784              		.loc 1 700 0
 1785 000c 0139     		subs	r1, r1, #1
 1786              	.LVL249:
 1787 000e 0929     		cmp	r1, #9
 1788 0010 2CD8     		bhi	.L157
 1789 0012 DFE801F0 		tbb	[pc, r1]
 1790              	.L152:
 1791 0016 05       		.byte	(.L151-.L152)/2
 1792 0017 2B       		.byte	(.L157-.L152)/2
 1793 0018 2B       		.byte	(.L157-.L152)/2
 1794 0019 2B       		.byte	(.L157-.L152)/2
 1795 001a 09       		.byte	(.L153-.L152)/2
 1796 001b 2B       		.byte	(.L157-.L152)/2
 1797 001c 2B       		.byte	(.L157-.L152)/2
 1798 001d 2B       		.byte	(.L157-.L152)/2
 1799 001e 12       		.byte	(.L154-.L152)/2
 1800 001f 1E       		.byte	(.L155-.L152)/2
 1801              		.p2align 1
 1802              	.L151:
 703:..\u8g2\csrc/mui_u8g2.c ****       break;
 1803              		.loc 1 703 0
 1804 0020 FFF7FEFF 		bl	mui_u8g2_u8_vmm_draw_wm_pf
 1805              	.LVL250:
ARM GAS  C:\Users\brian\AppData\Local\Temp\ccwE2E8f.s 			page 63


 741:..\u8g2\csrc/mui_u8g2.c **** }
 1806              		.loc 1 741 0
 1807 0024 0020     		movs	r0, #0
 704:..\u8g2\csrc/mui_u8g2.c ****     case MUIF_MSG_FORM_START:
 1808              		.loc 1 704 0
 1809 0026 10BD     		pop	{r4, pc}
 1810              	.LVL251:
 1811              	.L153:
 713:..\u8g2\csrc/mui_u8g2.c ****       break;
 1812              		.loc 1 713 0
 1813 0028 90F82630 		ldrb	r3, [r0, #38]	@ zero_extendqisi2
 1814              	.LVL252:
 1815 002c B3FA83F3 		clz	r3, r3
 1816 0030 5B09     		lsrs	r3, r3, #5
 1817 0032 80F82630 		strb	r3, [r0, #38]
 1818              	.LVL253:
 741:..\u8g2\csrc/mui_u8g2.c **** }
 1819              		.loc 1 741 0
 1820 0036 0020     		movs	r0, #0
 1821              	.LVL254:
 714:..\u8g2\csrc/mui_u8g2.c ****     case MUIF_MSG_CURSOR_LEAVE:
 1822              		.loc 1 714 0
 1823 0038 10BD     		pop	{r4, pc}
 1824              	.LVL255:
 1825              	.L154:
 722:..\u8g2\csrc/mui_u8g2.c ****       {
 1826              		.loc 1 722 0
 1827 003a 90F82600 		ldrb	r0, [r0, #38]	@ zero_extendqisi2
 1828              	.LVL256:
 1829 003e C0B1     		cbz	r0, .L150
 724:..\u8g2\csrc/mui_u8g2.c ****         if ( *value > max )
 1830              		.loc 1 724 0
 1831 0040 1178     		ldrb	r1, [r2]	@ zero_extendqisi2
 1832 0042 0131     		adds	r1, r1, #1
 1833 0044 C9B2     		uxtb	r1, r1
 1834 0046 1170     		strb	r1, [r2]
 1835              	.LVL257:
 725:..\u8g2\csrc/mui_u8g2.c ****           *value = min;
 1836              		.loc 1 725 0
 1837 0048 8B42     		cmp	r3, r1
 1838 004a 11D2     		bcs	.L158
 726:..\u8g2\csrc/mui_u8g2.c ****         return 1;
 1839              		.loc 1 726 0
 1840 004c 1470     		strb	r4, [r2]
 727:..\u8g2\csrc/mui_u8g2.c ****       }
 1841              		.loc 1 727 0
 1842 004e 0120     		movs	r0, #1
 1843 0050 10BD     		pop	{r4, pc}
 1844              	.LVL258:
 1845              	.L155:
 731:..\u8g2\csrc/mui_u8g2.c ****       {
 1846              		.loc 1 731 0
 1847 0052 90F82600 		ldrb	r0, [r0, #38]	@ zero_extendqisi2
 1848              	.LVL259:
 1849 0056 60B1     		cbz	r0, .L150
 733:..\u8g2\csrc/mui_u8g2.c ****           *value = max;
 1850              		.loc 1 733 0
ARM GAS  C:\Users\brian\AppData\Local\Temp\ccwE2E8f.s 			page 64


 1851 0058 1178     		ldrb	r1, [r2]	@ zero_extendqisi2
 1852 005a 8C42     		cmp	r4, r1
 1853 005c 02D3     		bcc	.L156
 734:..\u8g2\csrc/mui_u8g2.c ****         else
 1854              		.loc 1 734 0
 1855 005e 1370     		strb	r3, [r2]
 1856              	.LVL260:
 737:..\u8g2\csrc/mui_u8g2.c ****       }
 1857              		.loc 1 737 0
 1858 0060 0120     		movs	r0, #1
 1859 0062 10BD     		pop	{r4, pc}
 1860              	.LVL261:
 1861              	.L156:
 736:..\u8g2\csrc/mui_u8g2.c ****         return 1;
 1862              		.loc 1 736 0
 1863 0064 0139     		subs	r1, r1, #1
 1864 0066 1170     		strb	r1, [r2]
 1865              	.LVL262:
 737:..\u8g2\csrc/mui_u8g2.c ****       }
 1866              		.loc 1 737 0
 1867 0068 0120     		movs	r0, #1
 1868 006a 10BD     		pop	{r4, pc}
 1869              	.LVL263:
 1870              	.L157:
 741:..\u8g2\csrc/mui_u8g2.c **** }
 1871              		.loc 1 741 0
 1872 006c 0020     		movs	r0, #0
 1873              	.LVL264:
 1874 006e 10BD     		pop	{r4, pc}
 1875              	.LVL265:
 1876              	.L158:
 727:..\u8g2\csrc/mui_u8g2.c ****       }
 1877              		.loc 1 727 0
 1878 0070 0120     		movs	r0, #1
 1879              	.L150:
 742:..\u8g2\csrc/mui_u8g2.c **** 
 1880              		.loc 1 742 0
 1881 0072 10BD     		pop	{r4, pc}
 1882              		.cfi_endproc
 1883              	.LFE24:
 1884              		.size	mui_u8g2_u8_min_max_wm_mud_pf, .-mui_u8g2_u8_min_max_wm_mud_pf
 1885              		.section	.text.mui_u8g2_u8_char_wm_mud_pi,"ax",%progbits
 1886              		.align	2
 1887              		.global	mui_u8g2_u8_char_wm_mud_pi
 1888              		.thumb
 1889              		.thumb_func
 1890              		.type	mui_u8g2_u8_char_wm_mud_pi, %function
 1891              	mui_u8g2_u8_char_wm_mud_pi:
 1892              	.LFB26:
 764:..\u8g2\csrc/mui_u8g2.c ****   //ui->dflags                          MUIF_DFLAG_IS_CURSOR_FOCUS       MUIF_DFLAG_IS_TOUCH_FOCUS
 1893              		.loc 1 764 0
 1894              		.cfi_startproc
 1895              		@ args = 0, pretend = 0, frame = 8
 1896              		@ frame_needed = 0, uses_anonymous_args = 0
 1897              	.LVL266:
 1898 0000 F0B5     		push	{r4, r5, r6, r7, lr}
 1899              		.cfi_def_cfa_offset 20
ARM GAS  C:\Users\brian\AppData\Local\Temp\ccwE2E8f.s 			page 65


 1900              		.cfi_offset 4, -20
 1901              		.cfi_offset 5, -16
 1902              		.cfi_offset 6, -12
 1903              		.cfi_offset 7, -8
 1904              		.cfi_offset 14, -4
 1905 0002 83B0     		sub	sp, sp, #12
 1906              		.cfi_def_cfa_offset 32
 1907 0004 0646     		mov	r6, r0
 1908 0006 0C46     		mov	r4, r1
 767:..\u8g2\csrc/mui_u8g2.c ****   uint8_t *value = (uint8_t *)muif_get_data(ui->uif);
 1909              		.loc 1 767 0
 1910 0008 FFF7FEFF 		bl	mui_get_U8g2
 1911              	.LVL267:
 1912 000c 0746     		mov	r7, r0
 1913              	.LVL268:
 768:..\u8g2\csrc/mui_u8g2.c ****   char buf[6];
 1914              		.loc 1 768 0
 1915 000e B36B     		ldr	r3, [r6, #56]
 1916 0010 5D68     		ldr	r5, [r3, #4]
 1917              	.LVL269:
 770:..\u8g2\csrc/mui_u8g2.c ****   {
 1918              		.loc 1 770 0
 1919 0012 611E     		subs	r1, r4, #1
 1920 0014 0929     		cmp	r1, #9
 1921 0016 40D8     		bhi	.L170
 1922 0018 DFE801F0 		tbb	[pc, r1]
 1923              	.L163:
 1924 001c 07       		.byte	(.L162-.L163)/2
 1925 001d 3F       		.byte	(.L170-.L163)/2
 1926 001e 3F       		.byte	(.L170-.L163)/2
 1927 001f 3F       		.byte	(.L170-.L163)/2
 1928 0020 1C       		.byte	(.L164-.L163)/2
 1929 0021 3F       		.byte	(.L170-.L163)/2
 1930 0022 3F       		.byte	(.L170-.L163)/2
 1931 0023 3F       		.byte	(.L170-.L163)/2
 1932 0024 25       		.byte	(.L165-.L163)/2
 1933 0025 32       		.byte	(.L166-.L163)/2
 1934              	.LVL270:
 1935              		.p2align 1
 1936              	.L167:
 774:..\u8g2\csrc/mui_u8g2.c ****       buf[0] = *value;
 1937              		.loc 1 774 0
 1938 0026 0134     		adds	r4, r4, #1
 1939 0028 2C70     		strb	r4, [r5]
 1940              	.L162:
 773:..\u8g2\csrc/mui_u8g2.c ****           (*value)++;
 1941              		.loc 1 773 0
 1942 002a 2C78     		ldrb	r4, [r5]	@ zero_extendqisi2
 1943 002c 2046     		mov	r0, r4
 1944 002e FFF7FEFF 		bl	mui_is_valid_char
 1945              	.LVL271:
 1946 0032 0028     		cmp	r0, #0
 1947 0034 F7D0     		beq	.L167
 775:..\u8g2\csrc/mui_u8g2.c ****       buf[1] = '\0';
 1948              		.loc 1 775 0
 1949 0036 8DF80040 		strb	r4, [sp]
 776:..\u8g2\csrc/mui_u8g2.c ****       mui_u8g2_draw_button_pi(ui, u8g2_GetMaxCharWidth(u8g2), 1, buf);
ARM GAS  C:\Users\brian\AppData\Local\Temp\ccwE2E8f.s 			page 66


 1950              		.loc 1 776 0
 1951 003a 0024     		movs	r4, #0
 1952 003c 8DF80140 		strb	r4, [sp, #1]
 777:..\u8g2\csrc/mui_u8g2.c ****       //mui_u8g2_draw_button_utf(ui, mui_u8g2_get_pi_flags(ui), u8g2_GetMaxCharWidth(u8g2), 1, MUI_
 1953              		.loc 1 777 0
 1954 0040 97F97D10 		ldrsb	r1, [r7, #125]
 1955 0044 6B46     		mov	r3, sp
 1956 0046 0122     		movs	r2, #1
 1957 0048 89B2     		uxth	r1, r1
 1958 004a 3046     		mov	r0, r6
 1959 004c FFF7FEFF 		bl	mui_u8g2_draw_button_pi
 1960              	.LVL272:
 816:..\u8g2\csrc/mui_u8g2.c **** }
 1961              		.loc 1 816 0
 1962 0050 2046     		mov	r0, r4
 780:..\u8g2\csrc/mui_u8g2.c ****     case MUIF_MSG_FORM_START:
 1963              		.loc 1 780 0
 1964 0052 23E0     		b	.L161
 1965              	.LVL273:
 1966              	.L164:
 789:..\u8g2\csrc/mui_u8g2.c ****      break;
 1967              		.loc 1 789 0
 1968 0054 96F82630 		ldrb	r3, [r6, #38]	@ zero_extendqisi2
 1969 0058 B3FA83F3 		clz	r3, r3
 1970 005c 5B09     		lsrs	r3, r3, #5
 1971 005e 86F82630 		strb	r3, [r6, #38]
 816:..\u8g2\csrc/mui_u8g2.c **** }
 1972              		.loc 1 816 0
 1973 0062 0020     		movs	r0, #0
 1974              	.LVL274:
 790:..\u8g2\csrc/mui_u8g2.c ****     case MUIF_MSG_CURSOR_LEAVE:
 1975              		.loc 1 790 0
 1976 0064 1AE0     		b	.L161
 1977              	.LVL275:
 1978              	.L165:
 798:..\u8g2\csrc/mui_u8g2.c ****       {
 1979              		.loc 1 798 0
 1980 0066 96F82600 		ldrb	r0, [r6, #38]	@ zero_extendqisi2
 1981              	.LVL276:
 1982 006a B8B1     		cbz	r0, .L161
 1983              	.L168:
 801:..\u8g2\csrc/mui_u8g2.c ****         } while( mui_is_valid_char(*value) == 0 );
 1984              		.loc 1 801 0 discriminator 1
 1985 006c 2878     		ldrb	r0, [r5]	@ zero_extendqisi2
 1986 006e 0130     		adds	r0, r0, #1
 1987 0070 C0B2     		uxtb	r0, r0
 1988 0072 2870     		strb	r0, [r5]
 802:..\u8g2\csrc/mui_u8g2.c ****         return 1;
 1989              		.loc 1 802 0 discriminator 1
 1990 0074 FFF7FEFF 		bl	mui_is_valid_char
 1991              	.LVL277:
 1992 0078 0028     		cmp	r0, #0
 1993 007a F7D0     		beq	.L168
 803:..\u8g2\csrc/mui_u8g2.c ****       }
 1994              		.loc 1 803 0
 1995 007c 0120     		movs	r0, #1
 1996 007e 0DE0     		b	.L161
ARM GAS  C:\Users\brian\AppData\Local\Temp\ccwE2E8f.s 			page 67


 1997              	.LVL278:
 1998              	.L166:
 807:..\u8g2\csrc/mui_u8g2.c ****       {
 1999              		.loc 1 807 0
 2000 0080 96F82600 		ldrb	r0, [r6, #38]	@ zero_extendqisi2
 2001              	.LVL279:
 2002 0084 50B1     		cbz	r0, .L161
 2003              	.L169:
 810:..\u8g2\csrc/mui_u8g2.c ****         } while( mui_is_valid_char(*value) == 0 );
 2004              		.loc 1 810 0 discriminator 1
 2005 0086 2878     		ldrb	r0, [r5]	@ zero_extendqisi2
 2006 0088 0138     		subs	r0, r0, #1
 2007 008a C0B2     		uxtb	r0, r0
 2008 008c 2870     		strb	r0, [r5]
 811:..\u8g2\csrc/mui_u8g2.c ****         return 1;
 2009              		.loc 1 811 0 discriminator 1
 2010 008e FFF7FEFF 		bl	mui_is_valid_char
 2011              	.LVL280:
 2012 0092 0028     		cmp	r0, #0
 2013 0094 F7D0     		beq	.L169
 812:..\u8g2\csrc/mui_u8g2.c ****       }
 2014              		.loc 1 812 0
 2015 0096 0120     		movs	r0, #1
 2016 0098 00E0     		b	.L161
 2017              	.LVL281:
 2018              	.L170:
 816:..\u8g2\csrc/mui_u8g2.c **** }
 2019              		.loc 1 816 0
 2020 009a 0020     		movs	r0, #0
 2021              	.LVL282:
 2022              	.L161:
 817:..\u8g2\csrc/mui_u8g2.c **** 
 2023              		.loc 1 817 0
 2024 009c 03B0     		add	sp, sp, #12
 2025              		.cfi_def_cfa_offset 20
 2026              		@ sp needed
 2027 009e F0BD     		pop	{r4, r5, r6, r7, pc}
 2028              		.cfi_endproc
 2029              	.LFE26:
 2030              		.size	mui_u8g2_u8_char_wm_mud_pi, .-mui_u8g2_u8_char_wm_mud_pi
 2031              		.section	.text.mui_u8g2_u8_opt_line_wa_mse_pi,"ax",%progbits
 2032              		.align	2
 2033              		.global	mui_u8g2_u8_opt_line_wa_mse_pi
 2034              		.thumb
 2035              		.thumb_func
 2036              		.type	mui_u8g2_u8_opt_line_wa_mse_pi, %function
 2037              	mui_u8g2_u8_opt_line_wa_mse_pi:
 2038              	.LFB27:
 849:..\u8g2\csrc/mui_u8g2.c ****   //u8g2_t *u8g2 = mui_get_U8g2(ui);
 2039              		.loc 1 849 0
 2040              		.cfi_startproc
 2041              		@ args = 0, pretend = 0, frame = 0
 2042              		@ frame_needed = 0, uses_anonymous_args = 0
 2043              	.LVL283:
 2044 0000 38B5     		push	{r3, r4, r5, lr}
 2045              		.cfi_def_cfa_offset 16
 2046              		.cfi_offset 3, -16
ARM GAS  C:\Users\brian\AppData\Local\Temp\ccwE2E8f.s 			page 68


 2047              		.cfi_offset 4, -12
 2048              		.cfi_offset 5, -8
 2049              		.cfi_offset 14, -4
 2050 0002 0446     		mov	r4, r0
 851:..\u8g2\csrc/mui_u8g2.c ****   switch(msg)
 2051              		.loc 1 851 0
 2052 0004 836B     		ldr	r3, [r0, #56]
 2053 0006 5D68     		ldr	r5, [r3, #4]
 2054              	.LVL284:
 852:..\u8g2\csrc/mui_u8g2.c ****   {
 2055              		.loc 1 852 0
 2056 0008 0129     		cmp	r1, #1
 2057 000a 02D0     		beq	.L174
 2058 000c 0529     		cmp	r1, #5
 2059 000e 12D0     		beq	.L175
 2060 0010 1AE0     		b	.L173
 2061              	.L174:
 855:..\u8g2\csrc/mui_u8g2.c ****       {
 2062              		.loc 1 855 0
 2063 0012 2978     		ldrb	r1, [r5]	@ zero_extendqisi2
 2064              	.LVL285:
 2065 0014 FFF7FEFF 		bl	mui_fds_get_nth_token
 2066              	.LVL286:
 2067 0018 20B9     		cbnz	r0, .L176
 857:..\u8g2\csrc/mui_u8g2.c ****         mui_fds_get_nth_token(ui, *value);
 2068              		.loc 1 857 0
 2069 001a 0021     		movs	r1, #0
 2070 001c 2970     		strb	r1, [r5]
 858:..\u8g2\csrc/mui_u8g2.c ****       }
 2071              		.loc 1 858 0
 2072 001e 2046     		mov	r0, r4
 2073 0020 FFF7FEFF 		bl	mui_fds_get_nth_token
 2074              	.LVL287:
 2075              	.L176:
 860:..\u8g2\csrc/mui_u8g2.c ****       //mui_u8g2_draw_button_utf(ui, mui_u8g2_get_pi_flags(ui), ui->arg, 1, MUI_U8G2_V_PADDING, ui-
 2076              		.loc 1 860 0
 2077 0024 04F13C03 		add	r3, r4, #60
 2078 0028 0122     		movs	r2, #1
 2079 002a 94F82E10 		ldrb	r1, [r4, #46]	@ zero_extendqisi2
 2080 002e 2046     		mov	r0, r4
 2081 0030 FFF7FEFF 		bl	mui_u8g2_draw_button_pi
 2082              	.LVL288:
 864:..\u8g2\csrc/mui_u8g2.c ****     case MUIF_MSG_FORM_START:
 2083              		.loc 1 864 0
 2084 0034 08E0     		b	.L173
 2085              	.LVL289:
 2086              	.L175:
 872:..\u8g2\csrc/mui_u8g2.c ****       if ( mui_fds_get_nth_token(ui, *value) == 0 ) 
 2087              		.loc 1 872 0
 2088 0036 2978     		ldrb	r1, [r5]	@ zero_extendqisi2
 2089              	.LVL290:
 2090 0038 0131     		adds	r1, r1, #1
 2091 003a C9B2     		uxtb	r1, r1
 2092 003c 2970     		strb	r1, [r5]
 873:..\u8g2\csrc/mui_u8g2.c ****         *value = 0;      
 2093              		.loc 1 873 0
 2094 003e FFF7FEFF 		bl	mui_fds_get_nth_token
ARM GAS  C:\Users\brian\AppData\Local\Temp\ccwE2E8f.s 			page 69


 2095              	.LVL291:
 2096 0042 08B9     		cbnz	r0, .L173
 874:..\u8g2\csrc/mui_u8g2.c ****       break;
 2097              		.loc 1 874 0
 2098 0044 0023     		movs	r3, #0
 2099 0046 2B70     		strb	r3, [r5]
 2100              	.L173:
 884:..\u8g2\csrc/mui_u8g2.c ****    
 2101              		.loc 1 884 0
 2102 0048 0020     		movs	r0, #0
 2103 004a 38BD     		pop	{r3, r4, r5, pc}
 2104              		.cfi_endproc
 2105              	.LFE27:
 2106              		.size	mui_u8g2_u8_opt_line_wa_mse_pi, .-mui_u8g2_u8_opt_line_wa_mse_pi
 2107              		.section	.text.mui_u8g2_u8_opt_line_wa_mud_pi,"ax",%progbits
 2108              		.align	2
 2109              		.global	mui_u8g2_u8_opt_line_wa_mud_pi
 2110              		.thumb
 2111              		.thumb_func
 2112              		.type	mui_u8g2_u8_opt_line_wa_mud_pi, %function
 2113              	mui_u8g2_u8_opt_line_wa_mud_pi:
 2114              	.LFB28:
 887:..\u8g2\csrc/mui_u8g2.c ****   //u8g2_t *u8g2 = mui_get_U8g2(ui);
 2115              		.loc 1 887 0
 2116              		.cfi_startproc
 2117              		@ args = 0, pretend = 0, frame = 0
 2118              		@ frame_needed = 0, uses_anonymous_args = 0
 2119              	.LVL292:
 2120 0000 38B5     		push	{r3, r4, r5, lr}
 2121              		.cfi_def_cfa_offset 16
 2122              		.cfi_offset 3, -16
 2123              		.cfi_offset 4, -12
 2124              		.cfi_offset 5, -8
 2125              		.cfi_offset 14, -4
 2126 0002 0446     		mov	r4, r0
 889:..\u8g2\csrc/mui_u8g2.c ****   switch(msg)
 2127              		.loc 1 889 0
 2128 0004 836B     		ldr	r3, [r0, #56]
 2129 0006 5D68     		ldr	r5, [r3, #4]
 2130              	.LVL293:
 890:..\u8g2\csrc/mui_u8g2.c ****   {
 2131              		.loc 1 890 0
 2132 0008 0139     		subs	r1, r1, #1
 2133              	.LVL294:
 2134 000a 0929     		cmp	r1, #9
 2135 000c 3FD8     		bhi	.L187
 2136 000e DFE801F0 		tbb	[pc, r1]
 2137              	.L181:
 2138 0012 05       		.byte	(.L180-.L181)/2
 2139 0013 3E       		.byte	(.L187-.L181)/2
 2140 0014 3E       		.byte	(.L187-.L181)/2
 2141 0015 3E       		.byte	(.L187-.L181)/2
 2142 0016 18       		.byte	(.L182-.L181)/2
 2143 0017 3E       		.byte	(.L187-.L181)/2
 2144 0018 3E       		.byte	(.L187-.L181)/2
 2145 0019 3E       		.byte	(.L187-.L181)/2
 2146 001a 21       		.byte	(.L183-.L181)/2
ARM GAS  C:\Users\brian\AppData\Local\Temp\ccwE2E8f.s 			page 70


 2147 001b 30       		.byte	(.L184-.L181)/2
 2148              		.p2align 1
 2149              	.L180:
 893:..\u8g2\csrc/mui_u8g2.c ****       {
 2150              		.loc 1 893 0
 2151 001c 2978     		ldrb	r1, [r5]	@ zero_extendqisi2
 2152 001e FFF7FEFF 		bl	mui_fds_get_nth_token
 2153              	.LVL295:
 2154 0022 20B9     		cbnz	r0, .L185
 895:..\u8g2\csrc/mui_u8g2.c ****         mui_fds_get_nth_token(ui, *value);
 2155              		.loc 1 895 0
 2156 0024 0021     		movs	r1, #0
 2157 0026 2970     		strb	r1, [r5]
 896:..\u8g2\csrc/mui_u8g2.c ****       }
 2158              		.loc 1 896 0
 2159 0028 2046     		mov	r0, r4
 2160 002a FFF7FEFF 		bl	mui_fds_get_nth_token
 2161              	.LVL296:
 2162              	.L185:
 898:..\u8g2\csrc/mui_u8g2.c ****       //mui_u8g2_draw_button_utf(ui, mui_u8g2_get_pi_flags(ui), ui->arg, 1, MUI_U8G2_V_PADDING, ui-
 2163              		.loc 1 898 0
 2164 002e 04F13C03 		add	r3, r4, #60
 2165 0032 0122     		movs	r2, #1
 2166 0034 94F82E10 		ldrb	r1, [r4, #46]	@ zero_extendqisi2
 2167 0038 2046     		mov	r0, r4
 2168 003a FFF7FEFF 		bl	mui_u8g2_draw_button_pi
 2169              	.LVL297:
 938:..\u8g2\csrc/mui_u8g2.c **** }
 2170              		.loc 1 938 0
 2171 003e 0020     		movs	r0, #0
 902:..\u8g2\csrc/mui_u8g2.c ****     case MUIF_MSG_FORM_START:
 2172              		.loc 1 902 0
 2173 0040 38BD     		pop	{r3, r4, r5, pc}
 2174              	.LVL298:
 2175              	.L182:
 911:..\u8g2\csrc/mui_u8g2.c ****      break;
 2176              		.loc 1 911 0
 2177 0042 90F82630 		ldrb	r3, [r0, #38]	@ zero_extendqisi2
 2178 0046 B3FA83F3 		clz	r3, r3
 2179 004a 5B09     		lsrs	r3, r3, #5
 2180 004c 80F82630 		strb	r3, [r0, #38]
 938:..\u8g2\csrc/mui_u8g2.c **** }
 2181              		.loc 1 938 0
 2182 0050 0020     		movs	r0, #0
 2183              	.LVL299:
 912:..\u8g2\csrc/mui_u8g2.c ****     case MUIF_MSG_CURSOR_LEAVE:
 2184              		.loc 1 912 0
 2185 0052 38BD     		pop	{r3, r4, r5, pc}
 2186              	.LVL300:
 2187              	.L183:
 920:..\u8g2\csrc/mui_u8g2.c ****       {
 2188              		.loc 1 920 0
 2189 0054 90F82600 		ldrb	r0, [r0, #38]	@ zero_extendqisi2
 2190              	.LVL301:
 2191 0058 E0B1     		cbz	r0, .L179
 922:..\u8g2\csrc/mui_u8g2.c ****         if ( mui_fds_get_nth_token(ui, *value) == 0 ) 
 2192              		.loc 1 922 0
ARM GAS  C:\Users\brian\AppData\Local\Temp\ccwE2E8f.s 			page 71


 2193 005a 2978     		ldrb	r1, [r5]	@ zero_extendqisi2
 2194 005c 0131     		adds	r1, r1, #1
 2195 005e C9B2     		uxtb	r1, r1
 2196 0060 2970     		strb	r1, [r5]
 923:..\u8g2\csrc/mui_u8g2.c ****           *value = 0;      
 2197              		.loc 1 923 0
 2198 0062 2046     		mov	r0, r4
 2199 0064 FFF7FEFF 		bl	mui_fds_get_nth_token
 2200              	.LVL302:
 2201 0068 98B9     		cbnz	r0, .L188
 924:..\u8g2\csrc/mui_u8g2.c ****         return 1;
 2202              		.loc 1 924 0
 2203 006a 0023     		movs	r3, #0
 2204 006c 2B70     		strb	r3, [r5]
 925:..\u8g2\csrc/mui_u8g2.c ****       }
 2205              		.loc 1 925 0
 2206 006e 0120     		movs	r0, #1
 2207 0070 38BD     		pop	{r3, r4, r5, pc}
 2208              	.LVL303:
 2209              	.L184:
 929:..\u8g2\csrc/mui_u8g2.c ****       {
 2210              		.loc 1 929 0
 2211 0072 90F82600 		ldrb	r0, [r0, #38]	@ zero_extendqisi2
 2212              	.LVL304:
 2213 0076 68B1     		cbz	r0, .L179
 931:..\u8g2\csrc/mui_u8g2.c ****           *value = mui_fds_get_token_cnt(ui);
 2214              		.loc 1 931 0
 2215 0078 2B78     		ldrb	r3, [r5]	@ zero_extendqisi2
 2216 007a 1BB9     		cbnz	r3, .L186
 932:..\u8g2\csrc/mui_u8g2.c ****         (*value)--;
 2217              		.loc 1 932 0
 2218 007c 2046     		mov	r0, r4
 2219 007e FFF7FEFF 		bl	mui_fds_get_token_cnt
 2220              	.LVL305:
 2221 0082 2870     		strb	r0, [r5]
 2222              	.L186:
 933:..\u8g2\csrc/mui_u8g2.c ****         return 1;
 2223              		.loc 1 933 0
 2224 0084 2B78     		ldrb	r3, [r5]	@ zero_extendqisi2
 2225 0086 013B     		subs	r3, r3, #1
 2226 0088 2B70     		strb	r3, [r5]
 934:..\u8g2\csrc/mui_u8g2.c ****       }
 2227              		.loc 1 934 0
 2228 008a 0120     		movs	r0, #1
 2229 008c 38BD     		pop	{r3, r4, r5, pc}
 2230              	.LVL306:
 2231              	.L187:
 938:..\u8g2\csrc/mui_u8g2.c **** }
 2232              		.loc 1 938 0
 2233 008e 0020     		movs	r0, #0
 2234              	.LVL307:
 2235 0090 38BD     		pop	{r3, r4, r5, pc}
 2236              	.LVL308:
 2237              	.L188:
 925:..\u8g2\csrc/mui_u8g2.c ****       }
 2238              		.loc 1 925 0
 2239 0092 0120     		movs	r0, #1
ARM GAS  C:\Users\brian\AppData\Local\Temp\ccwE2E8f.s 			page 72


 2240              	.L179:
 939:..\u8g2\csrc/mui_u8g2.c **** 
 2241              		.loc 1 939 0
 2242 0094 38BD     		pop	{r3, r4, r5, pc}
 2243              		.cfi_endproc
 2244              	.LFE28:
 2245              		.size	mui_u8g2_u8_opt_line_wa_mud_pi, .-mui_u8g2_u8_opt_line_wa_mud_pi
 2246 0096 00BF     		.section	.text.mui_u8g2_u8_chkbox_wm_pi,"ax",%progbits
 2247              		.align	2
 2248              		.global	mui_u8g2_u8_chkbox_wm_pi
 2249              		.thumb
 2250              		.thumb_func
 2251              		.type	mui_u8g2_u8_chkbox_wm_pi, %function
 2252              	mui_u8g2_u8_chkbox_wm_pi:
 2253              	.LFB29:
 969:..\u8g2\csrc/mui_u8g2.c ****   u8g2_t *u8g2 = mui_get_U8g2(ui);
 2254              		.loc 1 969 0
 2255              		.cfi_startproc
 2256              		@ args = 0, pretend = 0, frame = 0
 2257              		@ frame_needed = 0, uses_anonymous_args = 0
 2258              	.LVL309:
 2259 0000 2DE9F047 		push	{r4, r5, r6, r7, r8, r9, r10, lr}
 2260              		.cfi_def_cfa_offset 32
 2261              		.cfi_offset 4, -32
 2262              		.cfi_offset 5, -28
 2263              		.cfi_offset 6, -24
 2264              		.cfi_offset 7, -20
 2265              		.cfi_offset 8, -16
 2266              		.cfi_offset 9, -12
 2267              		.cfi_offset 10, -8
 2268              		.cfi_offset 14, -4
 2269 0004 84B0     		sub	sp, sp, #16
 2270              		.cfi_def_cfa_offset 48
 2271 0006 0446     		mov	r4, r0
 2272 0008 0D46     		mov	r5, r1
 970:..\u8g2\csrc/mui_u8g2.c ****   u8g2_uint_t flags = 0;
 2273              		.loc 1 970 0
 2274 000a FFF7FEFF 		bl	mui_get_U8g2
 2275              	.LVL310:
 972:..\u8g2\csrc/mui_u8g2.c ****   switch(msg)
 2276              		.loc 1 972 0
 2277 000e A36B     		ldr	r3, [r4, #56]
 2278 0010 5B68     		ldr	r3, [r3, #4]
 2279              	.LVL311:
 973:..\u8g2\csrc/mui_u8g2.c ****   {
 2280              		.loc 1 973 0
 2281 0012 012D     		cmp	r5, #1
 2282 0014 02D0     		beq	.L192
 2283 0016 052D     		cmp	r5, #5
 2284 0018 64D0     		beq	.L193
 2285 001a 6BE0     		b	.L191
 2286              	.L192:
 2287 001c 0646     		mov	r6, r0
 976:..\u8g2\csrc/mui_u8g2.c ****       if ( mui_IsCursorFocus(ui) )
 2288              		.loc 1 976 0
 2289 001e 1A78     		ldrb	r2, [r3]	@ zero_extendqisi2
 2290 0020 012A     		cmp	r2, #1
ARM GAS  C:\Users\brian\AppData\Local\Temp\ccwE2E8f.s 			page 73


 2291 0022 01D9     		bls	.L194
 976:..\u8g2\csrc/mui_u8g2.c ****       if ( mui_IsCursorFocus(ui) )
 2292              		.loc 1 976 0 is_stmt 0 discriminator 1
 2293 0024 0122     		movs	r2, #1
 2294 0026 1A70     		strb	r2, [r3]
 2295              	.L194:
 977:..\u8g2\csrc/mui_u8g2.c ****       {
 2296              		.loc 1 977 0 is_stmt 1
 2297 0028 94F82D20 		ldrb	r2, [r4, #45]	@ zero_extendqisi2
 2298 002c 12F0010F 		tst	r2, #1
 2299 0030 01D1     		bne	.L199
 971:..\u8g2\csrc/mui_u8g2.c ****   uint8_t *value = (uint8_t *)muif_get_data(ui->uif);
 2300              		.loc 1 971 0
 2301 0032 0027     		movs	r7, #0
 2302 0034 00E0     		b	.L195
 2303              	.L199:
 979:..\u8g2\csrc/mui_u8g2.c ****       }
 2304              		.loc 1 979 0
 2305 0036 2027     		movs	r7, #32
 2306              	.L195:
 2307              	.LVL312:
 2308              	.LBB3:
 984:..\u8g2\csrc/mui_u8g2.c ****         if ( *value )
 2309              		.loc 1 984 0
 2310 0038 96F98E50 		ldrsb	r5, [r6, #142]
 2311 003c ADB2     		uxth	r5, r5
 2312              	.LVL313:
 985:..\u8g2\csrc/mui_u8g2.c ****           u8g2_DrawCheckbox(u8g2, mui_get_x(ui), mui_get_y(ui), a, 1);
 2313              		.loc 1 985 0
 2314 003e 1B78     		ldrb	r3, [r3]	@ zero_extendqisi2
 2315              	.LVL314:
 2316 0040 7BB1     		cbz	r3, .L196
 986:..\u8g2\csrc/mui_u8g2.c ****         else
 2317              		.loc 1 986 0
 2318 0042 2046     		mov	r0, r4
 2319              	.LVL315:
 2320 0044 FFF7FEFF 		bl	mui_get_x
 2321              	.LVL316:
 2322 0048 8046     		mov	r8, r0
 2323 004a 2046     		mov	r0, r4
 2324 004c FFF7FEFF 		bl	mui_get_y
 2325              	.LVL317:
 2326 0050 0123     		movs	r3, #1
 2327 0052 0093     		str	r3, [sp]
 2328 0054 2B46     		mov	r3, r5
 2329 0056 0246     		mov	r2, r0
 2330 0058 4146     		mov	r1, r8
 2331 005a 3046     		mov	r0, r6
 2332 005c FFF7FEFF 		bl	u8g2_DrawCheckbox
 2333              	.LVL318:
 2334 0060 0EE0     		b	.L197
 2335              	.LVL319:
 2336              	.L196:
 988:..\u8g2\csrc/mui_u8g2.c ****         
 2337              		.loc 1 988 0
 2338 0062 2046     		mov	r0, r4
 2339              	.LVL320:
ARM GAS  C:\Users\brian\AppData\Local\Temp\ccwE2E8f.s 			page 74


 2340 0064 FFF7FEFF 		bl	mui_get_x
 2341              	.LVL321:
 2342 0068 8046     		mov	r8, r0
 2343 006a 2046     		mov	r0, r4
 2344 006c FFF7FEFF 		bl	mui_get_y
 2345              	.LVL322:
 2346 0070 0023     		movs	r3, #0
 2347 0072 0093     		str	r3, [sp]
 2348 0074 2B46     		mov	r3, r5
 2349 0076 0246     		mov	r2, r0
 2350 0078 4146     		mov	r1, r8
 2351 007a 3046     		mov	r0, r6
 2352 007c FFF7FEFF 		bl	u8g2_DrawCheckbox
 2353              	.LVL323:
 2354              	.L197:
 990:..\u8g2\csrc/mui_u8g2.c ****         {
 2355              		.loc 1 990 0
 2356 0080 94F83C30 		ldrb	r3, [r4, #60]	@ zero_extendqisi2
 2357 0084 C3B1     		cbz	r3, .L200
 992:..\u8g2\csrc/mui_u8g2.c ****           //u8g2_SetFontMode(u8g2, 1);
 2358              		.loc 1 992 0
 2359 0086 04F13C0A 		add	r10, r4, #60
 2360 008a 5146     		mov	r1, r10
 2361 008c 3046     		mov	r0, r6
 2362 008e FFF7FEFF 		bl	u8g2_GetUTF8Width
 2363              	.LVL324:
 2364 0092 8146     		mov	r9, r0
 2365              	.LVL325:
 994:..\u8g2\csrc/mui_u8g2.c ****           u8g2_DrawUTF8(u8g2, mui_get_x(ui)+a, mui_get_y(ui), ui->text);
 2366              		.loc 1 994 0
 2367 0094 0235     		adds	r5, r5, #2
 2368              	.LVL326:
 2369 0096 ADB2     		uxth	r5, r5
 2370              	.LVL327:
 995:..\u8g2\csrc/mui_u8g2.c ****         }
 2371              		.loc 1 995 0
 2372 0098 2046     		mov	r0, r4
 2373 009a FFF7FEFF 		bl	mui_get_x
 2374              	.LVL328:
 2375 009e 2844     		add	r0, r0, r5
 2376 00a0 1FFA80F8 		uxth	r8, r0
 2377 00a4 2046     		mov	r0, r4
 2378 00a6 FFF7FEFF 		bl	mui_get_y
 2379              	.LVL329:
 2380 00aa 5346     		mov	r3, r10
 2381 00ac 0246     		mov	r2, r0
 2382 00ae 4146     		mov	r1, r8
 2383 00b0 3046     		mov	r0, r6
 2384 00b2 FFF7FEFF 		bl	u8g2_DrawUTF8
 2385              	.LVL330:
 2386 00b6 01E0     		b	.L198
 2387              	.LVL331:
 2388              	.L200:
 983:..\u8g2\csrc/mui_u8g2.c ****         u8g2_uint_t a = u8g2_GetAscent(u8g2);
 2389              		.loc 1 983 0
 2390 00b8 4FF00009 		mov	r9, #0
 2391              	.LVL332:
ARM GAS  C:\Users\brian\AppData\Local\Temp\ccwE2E8f.s 			page 75


 2392              	.L198:
 998:..\u8g2\csrc/mui_u8g2.c ****       }
 2393              		.loc 1 998 0
 2394 00bc 2046     		mov	r0, r4
 2395 00be FFF7FEFF 		bl	mui_get_x
 2396              	.LVL333:
 2397 00c2 8046     		mov	r8, r0
 2398 00c4 2046     		mov	r0, r4
 2399 00c6 FFF7FEFF 		bl	mui_get_y
 2400              	.LVL334:
 2401 00ca 0123     		movs	r3, #1
 2402 00cc 0293     		str	r3, [sp, #8]
 2403 00ce 0193     		str	r3, [sp, #4]
 2404 00d0 4D44     		add	r5, r5, r9
 2405              	.LVL335:
 2406 00d2 ADB2     		uxth	r5, r5
 2407 00d4 0095     		str	r5, [sp]
 2408 00d6 3B46     		mov	r3, r7
 2409 00d8 0246     		mov	r2, r0
 2410 00da 4146     		mov	r1, r8
 2411 00dc 3046     		mov	r0, r6
 2412 00de FFF7FEFF 		bl	u8g2_DrawButtonFrame
 2413              	.LVL336:
 2414              	.LBE3:
1000:..\u8g2\csrc/mui_u8g2.c ****     case MUIF_MSG_FORM_START:
 2415              		.loc 1 1000 0
 2416 00e2 07E0     		b	.L191
 2417              	.LVL337:
 2418              	.L193:
1008:..\u8g2\csrc/mui_u8g2.c ****       if ( *value > 1 ) *value = 0;      
 2419              		.loc 1 1008 0
 2420 00e4 1A78     		ldrb	r2, [r3]	@ zero_extendqisi2
 2421 00e6 0132     		adds	r2, r2, #1
 2422 00e8 D2B2     		uxtb	r2, r2
 2423 00ea 1A70     		strb	r2, [r3]
1009:..\u8g2\csrc/mui_u8g2.c ****     case MUIF_MSG_CURSOR_LEAVE:
 2424              		.loc 1 1009 0
 2425 00ec 012A     		cmp	r2, #1
 2426 00ee 01D9     		bls	.L191
1009:..\u8g2\csrc/mui_u8g2.c ****     case MUIF_MSG_CURSOR_LEAVE:
 2427              		.loc 1 1009 0 is_stmt 0 discriminator 1
 2428 00f0 0022     		movs	r2, #0
 2429 00f2 1A70     		strb	r2, [r3]
 2430              	.LVL338:
 2431              	.L191:
1018:..\u8g2\csrc/mui_u8g2.c **** 
 2432              		.loc 1 1018 0 is_stmt 1
 2433 00f4 0020     		movs	r0, #0
 2434 00f6 04B0     		add	sp, sp, #16
 2435              		.cfi_def_cfa_offset 32
 2436              		@ sp needed
 2437 00f8 BDE8F087 		pop	{r4, r5, r6, r7, r8, r9, r10, pc}
 2438              		.cfi_endproc
 2439              	.LFE29:
 2440              		.size	mui_u8g2_u8_chkbox_wm_pi, .-mui_u8g2_u8_chkbox_wm_pi
 2441              		.section	.text.mui_u8g2_u8_radio_wm_pi,"ax",%progbits
 2442              		.align	2
ARM GAS  C:\Users\brian\AppData\Local\Temp\ccwE2E8f.s 			page 76


 2443              		.global	mui_u8g2_u8_radio_wm_pi
 2444              		.thumb
 2445              		.thumb_func
 2446              		.type	mui_u8g2_u8_radio_wm_pi, %function
 2447              	mui_u8g2_u8_radio_wm_pi:
 2448              	.LFB30:
1024:..\u8g2\csrc/mui_u8g2.c ****   u8g2_t *u8g2 = mui_get_U8g2(ui);
 2449              		.loc 1 1024 0
 2450              		.cfi_startproc
 2451              		@ args = 0, pretend = 0, frame = 0
 2452              		@ frame_needed = 0, uses_anonymous_args = 0
 2453              	.LVL339:
 2454 0000 2DE9F047 		push	{r4, r5, r6, r7, r8, r9, r10, lr}
 2455              		.cfi_def_cfa_offset 32
 2456              		.cfi_offset 4, -32
 2457              		.cfi_offset 5, -28
 2458              		.cfi_offset 6, -24
 2459              		.cfi_offset 7, -20
 2460              		.cfi_offset 8, -16
 2461              		.cfi_offset 9, -12
 2462              		.cfi_offset 10, -8
 2463              		.cfi_offset 14, -4
 2464 0004 84B0     		sub	sp, sp, #16
 2465              		.cfi_def_cfa_offset 48
 2466 0006 0446     		mov	r4, r0
 2467 0008 0D46     		mov	r5, r1
1025:..\u8g2\csrc/mui_u8g2.c ****   u8g2_uint_t flags = 0;
 2468              		.loc 1 1025 0
 2469 000a FFF7FEFF 		bl	mui_get_U8g2
 2470              	.LVL340:
1027:..\u8g2\csrc/mui_u8g2.c ****   switch(msg)
 2471              		.loc 1 1027 0
 2472 000e A36B     		ldr	r3, [r4, #56]
 2473 0010 5B68     		ldr	r3, [r3, #4]
 2474              	.LVL341:
1028:..\u8g2\csrc/mui_u8g2.c ****   {
 2475              		.loc 1 1028 0
 2476 0012 012D     		cmp	r5, #1
 2477 0014 02D0     		beq	.L204
 2478 0016 052D     		cmp	r5, #5
 2479 0018 62D0     		beq	.L205
 2480 001a 64E0     		b	.L203
 2481              	.L204:
 2482 001c 0646     		mov	r6, r0
1031:..\u8g2\csrc/mui_u8g2.c ****       {
 2483              		.loc 1 1031 0
 2484 001e 94F82D20 		ldrb	r2, [r4, #45]	@ zero_extendqisi2
 2485 0022 12F0010F 		tst	r2, #1
 2486 0026 01D1     		bne	.L210
1026:..\u8g2\csrc/mui_u8g2.c ****   uint8_t *value = (uint8_t *)muif_get_data(ui->uif);
 2487              		.loc 1 1026 0
 2488 0028 0027     		movs	r7, #0
 2489 002a 00E0     		b	.L206
 2490              	.L210:
1033:..\u8g2\csrc/mui_u8g2.c ****       }
 2491              		.loc 1 1033 0
 2492 002c 2027     		movs	r7, #32
ARM GAS  C:\Users\brian\AppData\Local\Temp\ccwE2E8f.s 			page 77


 2493              	.L206:
 2494              	.LVL342:
 2495              	.LBB4:
1038:..\u8g2\csrc/mui_u8g2.c ****         if ( *value == ui->arg )
 2496              		.loc 1 1038 0
 2497 002e 96F98E50 		ldrsb	r5, [r6, #142]
 2498 0032 ADB2     		uxth	r5, r5
 2499              	.LVL343:
1039:..\u8g2\csrc/mui_u8g2.c ****           u8g2_DrawCheckbox(u8g2, mui_get_x(ui), mui_get_y(ui), a, 1);
 2500              		.loc 1 1039 0
 2501 0034 1A78     		ldrb	r2, [r3]	@ zero_extendqisi2
 2502 0036 94F82E30 		ldrb	r3, [r4, #46]	@ zero_extendqisi2
 2503              	.LVL344:
 2504 003a 9A42     		cmp	r2, r3
 2505 003c 0FD1     		bne	.L207
1040:..\u8g2\csrc/mui_u8g2.c ****         else
 2506              		.loc 1 1040 0
 2507 003e 2046     		mov	r0, r4
 2508              	.LVL345:
 2509 0040 FFF7FEFF 		bl	mui_get_x
 2510              	.LVL346:
 2511 0044 8046     		mov	r8, r0
 2512 0046 2046     		mov	r0, r4
 2513 0048 FFF7FEFF 		bl	mui_get_y
 2514              	.LVL347:
 2515 004c 0123     		movs	r3, #1
 2516 004e 0093     		str	r3, [sp]
 2517 0050 2B46     		mov	r3, r5
 2518 0052 0246     		mov	r2, r0
 2519 0054 4146     		mov	r1, r8
 2520 0056 3046     		mov	r0, r6
 2521 0058 FFF7FEFF 		bl	u8g2_DrawCheckbox
 2522              	.LVL348:
 2523 005c 0EE0     		b	.L208
 2524              	.LVL349:
 2525              	.L207:
1042:..\u8g2\csrc/mui_u8g2.c ****         
 2526              		.loc 1 1042 0
 2527 005e 2046     		mov	r0, r4
 2528              	.LVL350:
 2529 0060 FFF7FEFF 		bl	mui_get_x
 2530              	.LVL351:
 2531 0064 8046     		mov	r8, r0
 2532 0066 2046     		mov	r0, r4
 2533 0068 FFF7FEFF 		bl	mui_get_y
 2534              	.LVL352:
 2535 006c 0023     		movs	r3, #0
 2536 006e 0093     		str	r3, [sp]
 2537 0070 2B46     		mov	r3, r5
 2538 0072 0246     		mov	r2, r0
 2539 0074 4146     		mov	r1, r8
 2540 0076 3046     		mov	r0, r6
 2541 0078 FFF7FEFF 		bl	u8g2_DrawCheckbox
 2542              	.LVL353:
 2543              	.L208:
1044:..\u8g2\csrc/mui_u8g2.c ****         {
 2544              		.loc 1 1044 0
ARM GAS  C:\Users\brian\AppData\Local\Temp\ccwE2E8f.s 			page 78


 2545 007c 94F83C30 		ldrb	r3, [r4, #60]	@ zero_extendqisi2
 2546 0080 C3B1     		cbz	r3, .L211
1046:..\u8g2\csrc/mui_u8g2.c ****           //u8g2_SetFontMode(u8g2, 1);
 2547              		.loc 1 1046 0
 2548 0082 04F13C0A 		add	r10, r4, #60
 2549 0086 5146     		mov	r1, r10
 2550 0088 3046     		mov	r0, r6
 2551 008a FFF7FEFF 		bl	u8g2_GetUTF8Width
 2552              	.LVL354:
 2553 008e 8146     		mov	r9, r0
 2554              	.LVL355:
1048:..\u8g2\csrc/mui_u8g2.c ****           u8g2_DrawUTF8(u8g2, mui_get_x(ui)+a, mui_get_y(ui), ui->text);
 2555              		.loc 1 1048 0
 2556 0090 0235     		adds	r5, r5, #2
 2557              	.LVL356:
 2558 0092 ADB2     		uxth	r5, r5
 2559              	.LVL357:
1049:..\u8g2\csrc/mui_u8g2.c ****         }
 2560              		.loc 1 1049 0
 2561 0094 2046     		mov	r0, r4
 2562 0096 FFF7FEFF 		bl	mui_get_x
 2563              	.LVL358:
 2564 009a 2844     		add	r0, r0, r5
 2565 009c 1FFA80F8 		uxth	r8, r0
 2566 00a0 2046     		mov	r0, r4
 2567 00a2 FFF7FEFF 		bl	mui_get_y
 2568              	.LVL359:
 2569 00a6 5346     		mov	r3, r10
 2570 00a8 0246     		mov	r2, r0
 2571 00aa 4146     		mov	r1, r8
 2572 00ac 3046     		mov	r0, r6
 2573 00ae FFF7FEFF 		bl	u8g2_DrawUTF8
 2574              	.LVL360:
 2575 00b2 01E0     		b	.L209
 2576              	.LVL361:
 2577              	.L211:
1037:..\u8g2\csrc/mui_u8g2.c ****         u8g2_uint_t a = u8g2_GetAscent(u8g2);
 2578              		.loc 1 1037 0
 2579 00b4 4FF00009 		mov	r9, #0
 2580              	.LVL362:
 2581              	.L209:
1052:..\u8g2\csrc/mui_u8g2.c ****       }
 2582              		.loc 1 1052 0
 2583 00b8 2046     		mov	r0, r4
 2584 00ba FFF7FEFF 		bl	mui_get_x
 2585              	.LVL363:
 2586 00be 8046     		mov	r8, r0
 2587 00c0 2046     		mov	r0, r4
 2588 00c2 FFF7FEFF 		bl	mui_get_y
 2589              	.LVL364:
 2590 00c6 0123     		movs	r3, #1
 2591 00c8 0293     		str	r3, [sp, #8]
 2592 00ca 0193     		str	r3, [sp, #4]
 2593 00cc 4D44     		add	r5, r5, r9
 2594              	.LVL365:
 2595 00ce ADB2     		uxth	r5, r5
 2596 00d0 0095     		str	r5, [sp]
ARM GAS  C:\Users\brian\AppData\Local\Temp\ccwE2E8f.s 			page 79


 2597 00d2 3B46     		mov	r3, r7
 2598 00d4 0246     		mov	r2, r0
 2599 00d6 4146     		mov	r1, r8
 2600 00d8 3046     		mov	r0, r6
 2601 00da FFF7FEFF 		bl	u8g2_DrawButtonFrame
 2602              	.LVL366:
 2603              	.LBE4:
1054:..\u8g2\csrc/mui_u8g2.c ****    case MUIF_MSG_FORM_START:
 2604              		.loc 1 1054 0
 2605 00de 02E0     		b	.L203
 2606              	.LVL367:
 2607              	.L205:
1062:..\u8g2\csrc/mui_u8g2.c ****       break;
 2608              		.loc 1 1062 0
 2609 00e0 94F82E20 		ldrb	r2, [r4, #46]	@ zero_extendqisi2
 2610 00e4 1A70     		strb	r2, [r3]
 2611              	.LVL368:
 2612              	.L203:
1072:..\u8g2\csrc/mui_u8g2.c **** 
 2613              		.loc 1 1072 0
 2614 00e6 0020     		movs	r0, #0
 2615 00e8 04B0     		add	sp, sp, #16
 2616              		.cfi_def_cfa_offset 32
 2617              		@ sp needed
 2618 00ea BDE8F087 		pop	{r4, r5, r6, r7, r8, r9, r10, pc}
 2619              		.cfi_endproc
 2620              	.LFE30:
 2621              		.size	mui_u8g2_u8_radio_wm_pi, .-mui_u8g2_u8_radio_wm_pi
 2622 00ee 00BF     		.section	.text.mui_u8g2_u8_opt_parent_wm_mse_pi,"ax",%progbits
 2623              		.align	2
 2624              		.global	mui_u8g2_u8_opt_parent_wm_mse_pi
 2625              		.thumb
 2626              		.thumb_func
 2627              		.type	mui_u8g2_u8_opt_parent_wm_mse_pi, %function
 2628              	mui_u8g2_u8_opt_parent_wm_mse_pi:
 2629              	.LFB31:
1076:..\u8g2\csrc/mui_u8g2.c ****   uint8_t *value = (uint8_t *)muif_get_data(ui->uif);
 2630              		.loc 1 1076 0
 2631              		.cfi_startproc
 2632              		@ args = 0, pretend = 0, frame = 0
 2633              		@ frame_needed = 0, uses_anonymous_args = 0
 2634              	.LVL369:
 2635 0000 38B5     		push	{r3, r4, r5, lr}
 2636              		.cfi_def_cfa_offset 16
 2637              		.cfi_offset 3, -16
 2638              		.cfi_offset 4, -12
 2639              		.cfi_offset 5, -8
 2640              		.cfi_offset 14, -4
 2641 0002 0446     		mov	r4, r0
1077:..\u8g2\csrc/mui_u8g2.c ****   switch(msg)
 2642              		.loc 1 1077 0
 2643 0004 836B     		ldr	r3, [r0, #56]
 2644 0006 5D68     		ldr	r5, [r3, #4]
 2645              	.LVL370:
1078:..\u8g2\csrc/mui_u8g2.c ****   {
 2646              		.loc 1 1078 0
 2647 0008 0129     		cmp	r1, #1
ARM GAS  C:\Users\brian\AppData\Local\Temp\ccwE2E8f.s 			page 80


 2648 000a 02D0     		beq	.L215
 2649 000c 0529     		cmp	r1, #5
 2650 000e 11D0     		beq	.L216
 2651 0010 18E0     		b	.L214
 2652              	.L215:
1081:..\u8g2\csrc/mui_u8g2.c ****       {
 2653              		.loc 1 1081 0
 2654 0012 2978     		ldrb	r1, [r5]	@ zero_extendqisi2
 2655              	.LVL371:
 2656 0014 FFF7FEFF 		bl	mui_fds_get_nth_token
 2657              	.LVL372:
 2658 0018 20B9     		cbnz	r0, .L217
1083:..\u8g2\csrc/mui_u8g2.c ****         mui_fds_get_nth_token(ui, *value);
 2659              		.loc 1 1083 0
 2660 001a 0021     		movs	r1, #0
 2661 001c 2970     		strb	r1, [r5]
1084:..\u8g2\csrc/mui_u8g2.c ****       }      
 2662              		.loc 1 1084 0
 2663 001e 2046     		mov	r0, r4
 2664 0020 FFF7FEFF 		bl	mui_fds_get_nth_token
 2665              	.LVL373:
 2666              	.L217:
1086:..\u8g2\csrc/mui_u8g2.c ****       //mui_u8g2_draw_button_utf(ui, mui_u8g2_get_pi_flags(ui), 0, 1, MUI_U8G2_V_PADDING, ui->text)
 2667              		.loc 1 1086 0
 2668 0024 04F13C03 		add	r3, r4, #60
 2669 0028 0122     		movs	r2, #1
 2670 002a 0021     		movs	r1, #0
 2671 002c 2046     		mov	r0, r4
 2672 002e FFF7FEFF 		bl	mui_u8g2_draw_button_pi
 2673              	.LVL374:
1089:..\u8g2\csrc/mui_u8g2.c ****     case MUIF_MSG_FORM_START:
 2674              		.loc 1 1089 0
 2675 0032 07E0     		b	.L214
 2676              	.LVL375:
 2677              	.L216:
1097:..\u8g2\csrc/mui_u8g2.c ****       mui_GotoForm(ui, ui->arg, *value);  // assumes that the selectable values are at the beginnin
 2678              		.loc 1 1097 0
 2679 0034 FFF7FEFF 		bl	mui_SaveForm
 2680              	.LVL376:
1098:..\u8g2\csrc/mui_u8g2.c ****       break;
 2681              		.loc 1 1098 0
 2682 0038 2A78     		ldrb	r2, [r5]	@ zero_extendqisi2
 2683 003a 94F82E10 		ldrb	r1, [r4, #46]	@ zero_extendqisi2
 2684 003e 2046     		mov	r0, r4
 2685 0040 FFF7FEFF 		bl	mui_GotoForm
 2686              	.LVL377:
 2687              	.L214:
1108:..\u8g2\csrc/mui_u8g2.c **** 
 2688              		.loc 1 1108 0
 2689 0044 0020     		movs	r0, #0
 2690 0046 38BD     		pop	{r3, r4, r5, pc}
 2691              		.cfi_endproc
 2692              	.LFE31:
 2693              		.size	mui_u8g2_u8_opt_parent_wm_mse_pi, .-mui_u8g2_u8_opt_parent_wm_mse_pi
 2694              		.section	.text.mui_u8g2_u8_opt_child_mse_common,"ax",%progbits
 2695              		.align	2
 2696              		.global	mui_u8g2_u8_opt_child_mse_common
ARM GAS  C:\Users\brian\AppData\Local\Temp\ccwE2E8f.s 			page 81


 2697              		.thumb
 2698              		.thumb_func
 2699              		.type	mui_u8g2_u8_opt_child_mse_common, %function
 2700              	mui_u8g2_u8_opt_child_mse_common:
 2701              	.LFB32:
1112:..\u8g2\csrc/mui_u8g2.c ****   uint8_t *value = (uint8_t *)muif_get_data(ui->uif);
 2702              		.loc 1 1112 0
 2703              		.cfi_startproc
 2704              		@ args = 0, pretend = 0, frame = 0
 2705              		@ frame_needed = 0, uses_anonymous_args = 0
 2706              	.LVL378:
 2707 0000 10B5     		push	{r4, lr}
 2708              		.cfi_def_cfa_offset 8
 2709              		.cfi_offset 4, -8
 2710              		.cfi_offset 14, -4
 2711 0002 0446     		mov	r4, r0
1113:..\u8g2\csrc/mui_u8g2.c ****   uint8_t arg = ui->arg;        // remember the arg value, because it might be overwritten
 2712              		.loc 1 1113 0
 2713 0004 836B     		ldr	r3, [r0, #56]
 2714 0006 5868     		ldr	r0, [r3, #4]
 2715              	.LVL379:
1114:..\u8g2\csrc/mui_u8g2.c ****   
 2716              		.loc 1 1114 0
 2717 0008 94F82E20 		ldrb	r2, [r4, #46]	@ zero_extendqisi2
 2718              	.LVL380:
1116:..\u8g2\csrc/mui_u8g2.c ****   {
 2719              		.loc 1 1116 0
 2720 000c 8B1E     		subs	r3, r1, #2
 2721 000e 082B     		cmp	r3, #8
 2722 0010 2BD8     		bhi	.L229
 2723 0012 DFE803F0 		tbb	[pc, r3]
 2724              	.L222:
 2725 0016 05       		.byte	(.L221-.L222)/2
 2726 0017 2A       		.byte	(.L229-.L222)/2
 2727 0018 15       		.byte	(.L223-.L222)/2
 2728 0019 19       		.byte	(.L224-.L222)/2
 2729 001a 2A       		.byte	(.L229-.L222)/2
 2730 001b 2A       		.byte	(.L229-.L222)/2
 2731 001c 2A       		.byte	(.L229-.L222)/2
 2732 001d 22       		.byte	(.L225-.L222)/2
 2733 001e 26       		.byte	(.L226-.L222)/2
 2734 001f 00       		.p2align 1
 2735              	.L221:
1124:..\u8g2\csrc/mui_u8g2.c ****         ui->form_scroll_visible = arg+1;
 2736              		.loc 1 1124 0
 2737 0020 94F82430 		ldrb	r3, [r4, #36]	@ zero_extendqisi2
 2738 0024 9A42     		cmp	r2, r3
 2739 0026 02D3     		bcc	.L227
1125:..\u8g2\csrc/mui_u8g2.c ****       if ( ui->form_scroll_total == 0 )
 2740              		.loc 1 1125 0
 2741 0028 0132     		adds	r2, r2, #1
 2742              	.LVL381:
 2743 002a 84F82420 		strb	r2, [r4, #36]
 2744              	.LVL382:
 2745              	.L227:
1126:..\u8g2\csrc/mui_u8g2.c ****           ui->form_scroll_total = mui_GetSelectableFieldOptionCnt(ui, ui->last_form_fds);
 2746              		.loc 1 1126 0
ARM GAS  C:\Users\brian\AppData\Local\Temp\ccwE2E8f.s 			page 82


 2747 002e 238C     		ldrh	r3, [r4, #32]
 2748 0030 EBB9     		cbnz	r3, .L230
1127:..\u8g2\csrc/mui_u8g2.c ****       //printf("MUIF_MSG_FORM_START: arg=%d visible=%d top=%d total=%d\n", arg, ui->form_scroll_vis
 2749              		.loc 1 1127 0
 2750 0032 616F     		ldr	r1, [r4, #116]
 2751              	.LVL383:
 2752 0034 2046     		mov	r0, r4
 2753              	.LVL384:
 2754 0036 FFF7FEFF 		bl	mui_GetSelectableFieldOptionCnt
 2755              	.LVL385:
 2756 003a 2084     		strh	r0, [r4, #32]	@ movhi
1150:..\u8g2\csrc/mui_u8g2.c **** }
 2757              		.loc 1 1150 0
 2758 003c 0020     		movs	r0, #0
 2759 003e 10BD     		pop	{r4, pc}
 2760              	.LVL386:
 2761              	.L223:
1133:..\u8g2\csrc/mui_u8g2.c ****     case MUIF_MSG_CURSOR_SELECT:
 2762              		.loc 1 1133 0
 2763 0040 2046     		mov	r0, r4
 2764              	.LVL387:
 2765 0042 FFF7FEFF 		bl	mui_u8g2_handle_scroll_next_prev_events
 2766              	.LVL388:
 2767 0046 10BD     		pop	{r4, pc}
 2768              	.LVL389:
 2769              	.L224:
1135:..\u8g2\csrc/mui_u8g2.c ****         *value = ui->form_scroll_top + arg;
 2770              		.loc 1 1135 0
 2771 0048 10B1     		cbz	r0, .L228
1136:..\u8g2\csrc/mui_u8g2.c ****       mui_RestoreForm(ui);
 2772              		.loc 1 1136 0
 2773 004a 638C     		ldrh	r3, [r4, #34]
 2774 004c 1A44     		add	r2, r2, r3
 2775              	.LVL390:
 2776 004e 0270     		strb	r2, [r0]
 2777              	.LVL391:
 2778              	.L228:
1137:..\u8g2\csrc/mui_u8g2.c ****       break;
 2779              		.loc 1 1137 0
 2780 0050 2046     		mov	r0, r4
 2781              	.LVL392:
 2782 0052 FFF7FEFF 		bl	mui_RestoreForm
 2783              	.LVL393:
1150:..\u8g2\csrc/mui_u8g2.c **** }
 2784              		.loc 1 1150 0
 2785 0056 0020     		movs	r0, #0
1138:..\u8g2\csrc/mui_u8g2.c ****     case MUIF_MSG_CURSOR_LEAVE:
 2786              		.loc 1 1138 0
 2787 0058 10BD     		pop	{r4, pc}
 2788              	.LVL394:
 2789              	.L225:
1146:..\u8g2\csrc/mui_u8g2.c ****     case MUIF_MSG_EVENT_PREV:
 2790              		.loc 1 1146 0
 2791 005a 2046     		mov	r0, r4
 2792              	.LVL395:
 2793 005c FFF7FEFF 		bl	mui_u8g2_handle_scroll_next_prev_events
 2794              	.LVL396:
ARM GAS  C:\Users\brian\AppData\Local\Temp\ccwE2E8f.s 			page 83


 2795 0060 10BD     		pop	{r4, pc}
 2796              	.LVL397:
 2797              	.L226:
1148:..\u8g2\csrc/mui_u8g2.c ****   }
 2798              		.loc 1 1148 0
 2799 0062 2046     		mov	r0, r4
 2800              	.LVL398:
 2801 0064 FFF7FEFF 		bl	mui_u8g2_handle_scroll_next_prev_events
 2802              	.LVL399:
 2803 0068 10BD     		pop	{r4, pc}
 2804              	.LVL400:
 2805              	.L229:
1150:..\u8g2\csrc/mui_u8g2.c **** }
 2806              		.loc 1 1150 0
 2807 006a 0020     		movs	r0, #0
 2808              	.LVL401:
 2809 006c 10BD     		pop	{r4, pc}
 2810              	.LVL402:
 2811              	.L230:
 2812 006e 0020     		movs	r0, #0
 2813              	.LVL403:
1151:..\u8g2\csrc/mui_u8g2.c **** 
 2814              		.loc 1 1151 0
 2815 0070 10BD     		pop	{r4, pc}
 2816              		.cfi_endproc
 2817              	.LFE32:
 2818              		.size	mui_u8g2_u8_opt_child_mse_common, .-mui_u8g2_u8_opt_child_mse_common
 2819 0072 00BF     		.section	.text.mui_u8g2_u8_opt_radio_child_wm_mse_pi,"ax",%progbits
 2820              		.align	2
 2821              		.global	mui_u8g2_u8_opt_radio_child_wm_mse_pi
 2822              		.thumb
 2823              		.thumb_func
 2824              		.type	mui_u8g2_u8_opt_radio_child_wm_mse_pi, %function
 2825              	mui_u8g2_u8_opt_radio_child_wm_mse_pi:
 2826              	.LFB33:
1155:..\u8g2\csrc/mui_u8g2.c ****   u8g2_t *u8g2 = mui_get_U8g2(ui);
 2827              		.loc 1 1155 0
 2828              		.cfi_startproc
 2829              		@ args = 0, pretend = 0, frame = 8
 2830              		@ frame_needed = 0, uses_anonymous_args = 0
 2831              	.LVL404:
 2832 0000 2DE9F04F 		push	{r4, r5, r6, r7, r8, r9, r10, fp, lr}
 2833              		.cfi_def_cfa_offset 36
 2834              		.cfi_offset 4, -36
 2835              		.cfi_offset 5, -32
 2836              		.cfi_offset 6, -28
 2837              		.cfi_offset 7, -24
 2838              		.cfi_offset 8, -20
 2839              		.cfi_offset 9, -16
 2840              		.cfi_offset 10, -12
 2841              		.cfi_offset 11, -8
 2842              		.cfi_offset 14, -4
 2843 0004 87B0     		sub	sp, sp, #28
 2844              		.cfi_def_cfa_offset 64
 2845 0006 0446     		mov	r4, r0
 2846 0008 0D46     		mov	r5, r1
1156:..\u8g2\csrc/mui_u8g2.c ****   uint8_t *value = (uint8_t *)muif_get_data(ui->uif);
ARM GAS  C:\Users\brian\AppData\Local\Temp\ccwE2E8f.s 			page 84


 2847              		.loc 1 1156 0
 2848 000a FFF7FEFF 		bl	mui_get_U8g2
 2849              	.LVL405:
1157:..\u8g2\csrc/mui_u8g2.c ****   uint8_t arg = ui->arg;        // remember the arg value, because it might be overwritten
 2850              		.loc 1 1157 0
 2851 000e A36B     		ldr	r3, [r4, #56]
 2852 0010 D3F804A0 		ldr	r10, [r3, #4]
 2853              	.LVL406:
1158:..\u8g2\csrc/mui_u8g2.c ****   
 2854              		.loc 1 1158 0
 2855 0014 94F82E90 		ldrb	r9, [r4, #46]	@ zero_extendqisi2
 2856              	.LVL407:
1160:..\u8g2\csrc/mui_u8g2.c ****   {
 2857              		.loc 1 1160 0
 2858 0018 012D     		cmp	r5, #1
 2859 001a 4BD1     		bne	.L241
 2860 001c 8046     		mov	r8, r0
 2861              	.LVL408:
 2862              	.LBB5:
1165:..\u8g2\csrc/mui_u8g2.c ****         u8g2_uint_t x = mui_get_x(ui);   // if mui_GetSelectableFieldTextOption is called, then fie
 2863              		.loc 1 1165 0
 2864 001e 90F98E60 		ldrsb	r6, [r0, #142]
 2865 0022 B6B2     		uxth	r6, r6
 2866 0024 B51E     		subs	r5, r6, #2
 2867 0026 ADB2     		uxth	r5, r5
 2868              	.LVL409:
1166:..\u8g2\csrc/mui_u8g2.c ****         u8g2_uint_t y = mui_get_y(ui);  // if mui_GetSelectableFieldTextOption is called, then fiel
 2869              		.loc 1 1166 0
 2870 0028 2046     		mov	r0, r4
 2871              	.LVL410:
 2872 002a FFF7FEFF 		bl	mui_get_x
 2873              	.LVL411:
 2874 002e 8346     		mov	fp, r0
 2875              	.LVL412:
1167:..\u8g2\csrc/mui_u8g2.c ****         uint8_t is_focus = mui_IsCursorFocus(ui);
 2876              		.loc 1 1167 0
 2877 0030 2046     		mov	r0, r4
 2878 0032 FFF7FEFF 		bl	mui_get_y
 2879              	.LVL413:
 2880 0036 0590     		str	r0, [sp, #20]
 2881              	.LVL414:
1168:..\u8g2\csrc/mui_u8g2.c ****         if ( *value == arg + ui->form_scroll_top )
 2882              		.loc 1 1168 0
 2883 0038 94F82D70 		ldrb	r7, [r4, #45]	@ zero_extendqisi2
 2884 003c 07F00107 		and	r7, r7, #1
 2885              	.LVL415:
1169:..\u8g2\csrc/mui_u8g2.c ****           u8g2_DrawValueMark(u8g2, x, y, a);
 2886              		.loc 1 1169 0
 2887 0040 9AF80020 		ldrb	r2, [r10]	@ zero_extendqisi2
 2888 0044 638C     		ldrh	r3, [r4, #34]
 2889 0046 4B44     		add	r3, r3, r9
 2890 0048 9A42     		cmp	r2, r3
 2891 004a 05D1     		bne	.L235
1170:..\u8g2\csrc/mui_u8g2.c **** 
 2892              		.loc 1 1170 0
 2893 004c 2B46     		mov	r3, r5
 2894 004e 0246     		mov	r2, r0
ARM GAS  C:\Users\brian\AppData\Local\Temp\ccwE2E8f.s 			page 85


 2895 0050 5946     		mov	r1, fp
 2896 0052 4046     		mov	r0, r8
 2897 0054 FFF7FEFF 		bl	u8g2_DrawValueMark
 2898              	.LVL416:
 2899              	.L235:
1172:..\u8g2\csrc/mui_u8g2.c ****         {
 2900              		.loc 1 1172 0
 2901 0058 94F83C30 		ldrb	r3, [r4, #60]	@ zero_extendqisi2
 2902 005c 33B9     		cbnz	r3, .L236
1176:..\u8g2\csrc/mui_u8g2.c ****         }
 2903              		.loc 1 1176 0
 2904 005e 628C     		ldrh	r2, [r4, #34]
 2905 0060 4A44     		add	r2, r2, r9
 2906 0062 D2B2     		uxtb	r2, r2
 2907 0064 616F     		ldr	r1, [r4, #116]
 2908 0066 2046     		mov	r0, r4
 2909 0068 FFF7FEFF 		bl	mui_GetSelectableFieldTextOption
 2910              	.LVL417:
 2911              	.L236:
1179:..\u8g2\csrc/mui_u8g2.c ****         {
 2912              		.loc 1 1179 0
 2913 006c 94F83C30 		ldrb	r3, [r4, #60]	@ zero_extendqisi2
 2914 0070 7BB1     		cbz	r3, .L239
1181:..\u8g2\csrc/mui_u8g2.c ****           //u8g2_SetFontMode(u8g2, 1);
 2915              		.loc 1 1181 0
 2916 0072 3C34     		adds	r4, r4, #60
 2917              	.LVL418:
 2918 0074 2146     		mov	r1, r4
 2919 0076 4046     		mov	r0, r8
 2920 0078 FFF7FEFF 		bl	u8g2_GetUTF8Width
 2921              	.LVL419:
 2922 007c 8146     		mov	r9, r0
 2923              	.LVL420:
1184:..\u8g2\csrc/mui_u8g2.c ****         }        
 2924              		.loc 1 1184 0
 2925 007e 06EB0B01 		add	r1, r6, fp
 2926 0082 2346     		mov	r3, r4
 2927 0084 059A     		ldr	r2, [sp, #20]
 2928 0086 89B2     		uxth	r1, r1
 2929 0088 4046     		mov	r0, r8
 2930 008a FFF7FEFF 		bl	u8g2_DrawUTF8
 2931              	.LVL421:
1183:..\u8g2\csrc/mui_u8g2.c ****           u8g2_DrawUTF8(u8g2, x+a, y, ui->text);
 2932              		.loc 1 1183 0
 2933 008e 3546     		mov	r5, r6
 2934 0090 01E0     		b	.L237
 2935              	.LVL422:
 2936              	.L239:
1164:..\u8g2\csrc/mui_u8g2.c ****         u8g2_uint_t a = u8g2_GetAscent(u8g2) - 2;
 2937              		.loc 1 1164 0
 2938 0092 4FF00009 		mov	r9, #0
 2939              	.LVL423:
 2940              	.L237:
1186:..\u8g2\csrc/mui_u8g2.c ****         {
 2941              		.loc 1 1186 0
 2942 0096 97B1     		cbz	r7, .L240
1188:..\u8g2\csrc/mui_u8g2.c ****         }
ARM GAS  C:\Users\brian\AppData\Local\Temp\ccwE2E8f.s 			page 86


 2943              		.loc 1 1188 0
 2944 0098 0123     		movs	r3, #1
 2945 009a 0293     		str	r3, [sp, #8]
 2946 009c 0193     		str	r3, [sp, #4]
 2947 009e 4D44     		add	r5, r5, r9
 2948              	.LVL424:
 2949 00a0 ADB2     		uxth	r5, r5
 2950 00a2 0095     		str	r5, [sp]
 2951 00a4 2023     		movs	r3, #32
 2952 00a6 059A     		ldr	r2, [sp, #20]
 2953 00a8 5946     		mov	r1, fp
 2954 00aa 4046     		mov	r0, r8
 2955 00ac FFF7FEFF 		bl	u8g2_DrawButtonFrame
 2956              	.LVL425:
 2957              	.LBE5:
1195:..\u8g2\csrc/mui_u8g2.c **** }
 2958              		.loc 1 1195 0
 2959 00b0 0020     		movs	r0, #0
 2960 00b2 05E0     		b	.L238
 2961              	.LVL426:
 2962              	.L241:
1193:..\u8g2\csrc/mui_u8g2.c ****   }
 2963              		.loc 1 1193 0
 2964 00b4 2946     		mov	r1, r5
 2965 00b6 2046     		mov	r0, r4
 2966              	.LVL427:
 2967 00b8 FFF7FEFF 		bl	mui_u8g2_u8_opt_child_mse_common
 2968              	.LVL428:
 2969 00bc 00E0     		b	.L238
 2970              	.LVL429:
 2971              	.L240:
1195:..\u8g2\csrc/mui_u8g2.c **** }
 2972              		.loc 1 1195 0
 2973 00be 0020     		movs	r0, #0
 2974              	.LVL430:
 2975              	.L238:
1196:..\u8g2\csrc/mui_u8g2.c **** 
 2976              		.loc 1 1196 0
 2977 00c0 07B0     		add	sp, sp, #28
 2978              		.cfi_def_cfa_offset 36
 2979              		@ sp needed
 2980 00c2 BDE8F08F 		pop	{r4, r5, r6, r7, r8, r9, r10, fp, pc}
 2981              		.cfi_endproc
 2982              	.LFE33:
 2983              		.size	mui_u8g2_u8_opt_radio_child_wm_mse_pi, .-mui_u8g2_u8_opt_radio_child_wm_mse_pi
 2984              		.section	.text.mui_u8g2_u8_opt_radio_child_w1_mse_pi,"ax",%progbits
 2985              		.align	2
 2986              		.global	mui_u8g2_u8_opt_radio_child_w1_mse_pi
 2987              		.thumb
 2988              		.thumb_func
 2989              		.type	mui_u8g2_u8_opt_radio_child_w1_mse_pi, %function
 2990              	mui_u8g2_u8_opt_radio_child_w1_mse_pi:
 2991              	.LFB34:
1200:..\u8g2\csrc/mui_u8g2.c ****   u8g2_t *u8g2 = mui_get_U8g2(ui);
 2992              		.loc 1 1200 0
 2993              		.cfi_startproc
 2994              		@ args = 0, pretend = 0, frame = 8
ARM GAS  C:\Users\brian\AppData\Local\Temp\ccwE2E8f.s 			page 87


 2995              		@ frame_needed = 0, uses_anonymous_args = 0
 2996              	.LVL431:
 2997 0000 2DE9F04F 		push	{r4, r5, r6, r7, r8, r9, r10, fp, lr}
 2998              		.cfi_def_cfa_offset 36
 2999              		.cfi_offset 4, -36
 3000              		.cfi_offset 5, -32
 3001              		.cfi_offset 6, -28
 3002              		.cfi_offset 7, -24
 3003              		.cfi_offset 8, -20
 3004              		.cfi_offset 9, -16
 3005              		.cfi_offset 10, -12
 3006              		.cfi_offset 11, -8
 3007              		.cfi_offset 14, -4
 3008 0004 87B0     		sub	sp, sp, #28
 3009              		.cfi_def_cfa_offset 64
 3010 0006 0446     		mov	r4, r0
 3011 0008 0D46     		mov	r5, r1
1201:..\u8g2\csrc/mui_u8g2.c ****   uint8_t *value = (uint8_t *)muif_get_data(ui->uif);
 3012              		.loc 1 1201 0
 3013 000a FFF7FEFF 		bl	mui_get_U8g2
 3014              	.LVL432:
1202:..\u8g2\csrc/mui_u8g2.c ****   uint8_t arg = ui->arg;        // remember the arg value, because it might be overwritten
 3015              		.loc 1 1202 0
 3016 000e A36B     		ldr	r3, [r4, #56]
 3017 0010 D3F804A0 		ldr	r10, [r3, #4]
 3018              	.LVL433:
1203:..\u8g2\csrc/mui_u8g2.c ****   
 3019              		.loc 1 1203 0
 3020 0014 94F82E90 		ldrb	r9, [r4, #46]	@ zero_extendqisi2
 3021              	.LVL434:
1205:..\u8g2\csrc/mui_u8g2.c ****   {
 3022              		.loc 1 1205 0
 3023 0018 012D     		cmp	r5, #1
 3024 001a 45D1     		bne	.L251
 3025 001c 0746     		mov	r7, r0
 3026              	.LBB6:
1210:..\u8g2\csrc/mui_u8g2.c ****         u8g2_uint_t x = mui_get_x(ui);   // if mui_GetSelectableFieldTextOption is called, then fie
 3027              		.loc 1 1210 0
 3028 001e 90F98E50 		ldrsb	r5, [r0, #142]
 3029 0022 ADB2     		uxth	r5, r5
 3030 0024 A5F10208 		sub	r8, r5, #2
 3031 0028 1FFA88F8 		uxth	r8, r8
 3032              	.LVL435:
1211:..\u8g2\csrc/mui_u8g2.c ****         u8g2_uint_t y = mui_get_y(ui);  // if mui_GetSelectableFieldTextOption is called, then fiel
 3033              		.loc 1 1211 0
 3034 002c 2046     		mov	r0, r4
 3035              	.LVL436:
 3036 002e FFF7FEFF 		bl	mui_get_x
 3037              	.LVL437:
 3038 0032 8346     		mov	fp, r0
 3039              	.LVL438:
1212:..\u8g2\csrc/mui_u8g2.c ****         uint8_t is_focus = mui_IsCursorFocus(ui);
 3040              		.loc 1 1212 0
 3041 0034 2046     		mov	r0, r4
 3042 0036 FFF7FEFF 		bl	mui_get_y
 3043              	.LVL439:
 3044 003a 0590     		str	r0, [sp, #20]
ARM GAS  C:\Users\brian\AppData\Local\Temp\ccwE2E8f.s 			page 88


 3045              	.LVL440:
1213:..\u8g2\csrc/mui_u8g2.c ****         
 3046              		.loc 1 1213 0
 3047 003c 94F82D60 		ldrb	r6, [r4, #45]	@ zero_extendqisi2
 3048 0040 06F00106 		and	r6, r6, #1
 3049              	.LVL441:
1215:..\u8g2\csrc/mui_u8g2.c ****           u8g2_DrawValueMark(u8g2, x, y, a);
 3050              		.loc 1 1215 0
 3051 0044 9AF80020 		ldrb	r2, [r10]	@ zero_extendqisi2
 3052 0048 638C     		ldrh	r3, [r4, #34]
 3053 004a 4B44     		add	r3, r3, r9
 3054 004c 9A42     		cmp	r2, r3
 3055 004e 05D1     		bne	.L246
1216:..\u8g2\csrc/mui_u8g2.c **** 
 3056              		.loc 1 1216 0
 3057 0050 4346     		mov	r3, r8
 3058 0052 0246     		mov	r2, r0
 3059 0054 5946     		mov	r1, fp
 3060 0056 3846     		mov	r0, r7
 3061 0058 FFF7FEFF 		bl	u8g2_DrawValueMark
 3062              	.LVL442:
 3063              	.L246:
1218:..\u8g2\csrc/mui_u8g2.c ****         {
 3064              		.loc 1 1218 0
 3065 005c 94F83C30 		ldrb	r3, [r4, #60]	@ zero_extendqisi2
 3066 0060 33B9     		cbnz	r3, .L247
1222:..\u8g2\csrc/mui_u8g2.c ****         }
 3067              		.loc 1 1222 0
 3068 0062 628C     		ldrh	r2, [r4, #34]
 3069 0064 4A44     		add	r2, r2, r9
 3070 0066 D2B2     		uxtb	r2, r2
 3071 0068 616F     		ldr	r1, [r4, #116]
 3072 006a 2046     		mov	r0, r4
 3073 006c FFF7FEFF 		bl	mui_GetSelectableFieldTextOption
 3074              	.LVL443:
 3075              	.L247:
1225:..\u8g2\csrc/mui_u8g2.c ****         {
 3076              		.loc 1 1225 0
 3077 0070 94F83C30 		ldrb	r3, [r4, #60]	@ zero_extendqisi2
 3078 0074 43B1     		cbz	r3, .L248
 3079              	.LVL444:
1230:..\u8g2\csrc/mui_u8g2.c ****         }        
 3080              		.loc 1 1230 0
 3081 0076 05EB0B01 		add	r1, r5, fp
 3082 007a 04F13C03 		add	r3, r4, #60
 3083 007e 059A     		ldr	r2, [sp, #20]
 3084 0080 89B2     		uxth	r1, r1
 3085 0082 3846     		mov	r0, r7
 3086 0084 FFF7FEFF 		bl	u8g2_DrawUTF8
 3087              	.LVL445:
 3088              	.L248:
1232:..\u8g2\csrc/mui_u8g2.c ****         {
 3089              		.loc 1 1232 0
 3090 0088 9EB1     		cbz	r6, .L250
1234:..\u8g2\csrc/mui_u8g2.c ****         }
 3091              		.loc 1 1234 0
 3092 008a 0123     		movs	r3, #1
ARM GAS  C:\Users\brian\AppData\Local\Temp\ccwE2E8f.s 			page 89


 3093 008c 0293     		str	r3, [sp, #8]
 3094 008e 0024     		movs	r4, #0
 3095              	.LVL446:
 3096 0090 0194     		str	r4, [sp, #4]
 3097 0092 B7F84430 		ldrh	r3, [r7, #68]
 3098 0096 0093     		str	r3, [sp]
 3099 0098 2023     		movs	r3, #32
 3100 009a 059A     		ldr	r2, [sp, #20]
 3101 009c 2146     		mov	r1, r4
 3102 009e 3846     		mov	r0, r7
 3103 00a0 FFF7FEFF 		bl	u8g2_DrawButtonFrame
 3104              	.LVL447:
 3105              	.LBE6:
1241:..\u8g2\csrc/mui_u8g2.c **** }
 3106              		.loc 1 1241 0
 3107 00a4 2046     		mov	r0, r4
 3108 00a6 05E0     		b	.L249
 3109              	.LVL448:
 3110              	.L251:
1239:..\u8g2\csrc/mui_u8g2.c ****   }
 3111              		.loc 1 1239 0
 3112 00a8 2946     		mov	r1, r5
 3113 00aa 2046     		mov	r0, r4
 3114              	.LVL449:
 3115 00ac FFF7FEFF 		bl	mui_u8g2_u8_opt_child_mse_common
 3116              	.LVL450:
 3117 00b0 00E0     		b	.L249
 3118              	.LVL451:
 3119              	.L250:
1241:..\u8g2\csrc/mui_u8g2.c **** }
 3120              		.loc 1 1241 0
 3121 00b2 0020     		movs	r0, #0
 3122              	.LVL452:
 3123              	.L249:
1242:..\u8g2\csrc/mui_u8g2.c **** 
 3124              		.loc 1 1242 0
 3125 00b4 07B0     		add	sp, sp, #28
 3126              		.cfi_def_cfa_offset 36
 3127              		@ sp needed
 3128 00b6 BDE8F08F 		pop	{r4, r5, r6, r7, r8, r9, r10, fp, pc}
 3129              		.cfi_endproc
 3130              	.LFE34:
 3131              		.size	mui_u8g2_u8_opt_radio_child_w1_mse_pi, .-mui_u8g2_u8_opt_radio_child_w1_mse_pi
 3132 00ba 00BF     		.section	.text.mui_u8g2_u8_opt_child_wm_mse_pi,"ax",%progbits
 3133              		.align	2
 3134              		.global	mui_u8g2_u8_opt_child_wm_mse_pi
 3135              		.thumb
 3136              		.thumb_func
 3137              		.type	mui_u8g2_u8_opt_child_wm_mse_pi, %function
 3138              	mui_u8g2_u8_opt_child_wm_mse_pi:
 3139              	.LFB35:
1246:..\u8g2\csrc/mui_u8g2.c ****   u8g2_t *u8g2 = mui_get_U8g2(ui);
 3140              		.loc 1 1246 0
 3141              		.cfi_startproc
 3142              		@ args = 0, pretend = 0, frame = 0
 3143              		@ frame_needed = 0, uses_anonymous_args = 0
 3144              	.LVL453:
ARM GAS  C:\Users\brian\AppData\Local\Temp\ccwE2E8f.s 			page 90


 3145 0000 2DE9F043 		push	{r4, r5, r6, r7, r8, r9, lr}
 3146              		.cfi_def_cfa_offset 28
 3147              		.cfi_offset 4, -28
 3148              		.cfi_offset 5, -24
 3149              		.cfi_offset 6, -20
 3150              		.cfi_offset 7, -16
 3151              		.cfi_offset 8, -12
 3152              		.cfi_offset 9, -8
 3153              		.cfi_offset 14, -4
 3154 0004 85B0     		sub	sp, sp, #20
 3155              		.cfi_def_cfa_offset 48
 3156 0006 0446     		mov	r4, r0
 3157 0008 0D46     		mov	r5, r1
1247:..\u8g2\csrc/mui_u8g2.c ****   //uint8_t *value = (uint8_t *)muif_get_data(ui->uif);
 3158              		.loc 1 1247 0
 3159 000a FFF7FEFF 		bl	mui_get_U8g2
 3160              	.LVL454:
1249:..\u8g2\csrc/mui_u8g2.c ****   
 3161              		.loc 1 1249 0
 3162 000e 94F82E90 		ldrb	r9, [r4, #46]	@ zero_extendqisi2
 3163              	.LVL455:
1251:..\u8g2\csrc/mui_u8g2.c ****   {
 3164              		.loc 1 1251 0
 3165 0012 012D     		cmp	r5, #1
 3166 0014 29D1     		bne	.L259
 3167 0016 0646     		mov	r6, r0
 3168              	.LBB7:
1256:..\u8g2\csrc/mui_u8g2.c ****         u8g2_uint_t y = mui_get_y(ui);  // if mui_GetSelectableFieldTextOption is called, then fiel
 3169              		.loc 1 1256 0
 3170 0018 2046     		mov	r0, r4
 3171              	.LVL456:
 3172 001a FFF7FEFF 		bl	mui_get_x
 3173              	.LVL457:
 3174 001e 0546     		mov	r5, r0
 3175              	.LVL458:
1257:..\u8g2\csrc/mui_u8g2.c ****         uint8_t flags = mui_u8g2_get_pi_flags(ui);
 3176              		.loc 1 1257 0
 3177 0020 2046     		mov	r0, r4
 3178 0022 FFF7FEFF 		bl	mui_get_y
 3179              	.LVL459:
 3180 0026 0746     		mov	r7, r0
 3181              	.LVL460:
1258:..\u8g2\csrc/mui_u8g2.c ****         //if ( mui_IsCursorFocus(ui) )
 3182              		.loc 1 1258 0
 3183 0028 2046     		mov	r0, r4
 3184 002a FFF7FEFF 		bl	mui_u8g2_get_pi_flags
 3185              	.LVL461:
 3186 002e 8046     		mov	r8, r0
 3187              	.LVL462:
1264:..\u8g2\csrc/mui_u8g2.c ****         {
 3188              		.loc 1 1264 0
 3189 0030 94F83C30 		ldrb	r3, [r4, #60]	@ zero_extendqisi2
 3190 0034 33B9     		cbnz	r3, .L256
1268:..\u8g2\csrc/mui_u8g2.c ****         }
 3191              		.loc 1 1268 0
 3192 0036 628C     		ldrh	r2, [r4, #34]
 3193 0038 4A44     		add	r2, r2, r9
ARM GAS  C:\Users\brian\AppData\Local\Temp\ccwE2E8f.s 			page 91


 3194 003a D2B2     		uxtb	r2, r2
 3195 003c 616F     		ldr	r1, [r4, #116]
 3196 003e 2046     		mov	r0, r4
 3197 0040 FFF7FEFF 		bl	mui_GetSelectableFieldTextOption
 3198              	.LVL463:
 3199              	.L256:
1270:..\u8g2\csrc/mui_u8g2.c ****         {
 3200              		.loc 1 1270 0
 3201 0044 94F83C30 		ldrb	r3, [r4, #60]	@ zero_extendqisi2
 3202 0048 A3B1     		cbz	r3, .L258
1272:..\u8g2\csrc/mui_u8g2.c ****         }        
 3203              		.loc 1 1272 0
 3204 004a 3C34     		adds	r4, r4, #60
 3205              	.LVL464:
 3206 004c 0394     		str	r4, [sp, #12]
 3207 004e 0123     		movs	r3, #1
 3208 0050 0293     		str	r3, [sp, #8]
 3209 0052 0193     		str	r3, [sp, #4]
 3210 0054 0024     		movs	r4, #0
 3211              	.LVL465:
 3212 0056 0094     		str	r4, [sp]
 3213 0058 5FFA88F3 		uxtb	r3, r8
 3214 005c 3A46     		mov	r2, r7
 3215 005e 2946     		mov	r1, r5
 3216 0060 3046     		mov	r0, r6
 3217 0062 FFF7FEFF 		bl	u8g2_DrawButtonUTF8
 3218              	.LVL466:
 3219              	.LBE7:
1279:..\u8g2\csrc/mui_u8g2.c **** }
 3220              		.loc 1 1279 0
 3221 0066 2046     		mov	r0, r4
 3222 0068 05E0     		b	.L257
 3223              	.LVL467:
 3224              	.L259:
1277:..\u8g2\csrc/mui_u8g2.c ****   }
 3225              		.loc 1 1277 0
 3226 006a 2946     		mov	r1, r5
 3227 006c 2046     		mov	r0, r4
 3228              	.LVL468:
 3229 006e FFF7FEFF 		bl	mui_u8g2_u8_opt_child_mse_common
 3230              	.LVL469:
 3231 0072 00E0     		b	.L257
 3232              	.LVL470:
 3233              	.L258:
1279:..\u8g2\csrc/mui_u8g2.c **** }
 3234              		.loc 1 1279 0
 3235 0074 0020     		movs	r0, #0
 3236              	.LVL471:
 3237              	.L257:
1280:..\u8g2\csrc/mui_u8g2.c **** 
 3238              		.loc 1 1280 0
 3239 0076 05B0     		add	sp, sp, #20
 3240              		.cfi_def_cfa_offset 28
 3241              		@ sp needed
 3242 0078 BDE8F083 		pop	{r4, r5, r6, r7, r8, r9, pc}
 3243              		.cfi_endproc
