ARM GAS  C:\Users\brian\AppData\Local\Temp\ccmYYpDh.s 			page 1


   1              		.syntax unified
   2              		.cpu cortex-m3
   3              		.fpu softvfp
   4              		.eabi_attribute 20, 1
   5              		.eabi_attribute 21, 1
   6              		.eabi_attribute 23, 3
   7              		.eabi_attribute 24, 1
   8              		.eabi_attribute 25, 1
   9              		.eabi_attribute 26, 1
  10              		.eabi_attribute 30, 1
  11              		.eabi_attribute 34, 1
  12              		.eabi_attribute 18, 4
  13              		.thumb
  14              		.syntax unified
  15              		.file	"u8g2_d_memory.c"
  16              		.text
  17              	.Ltext0:
  18              		.cfi_sections	.debug_frame
  19              		.section	.text.u8g2_m_16_4_1,"ax",%progbits
  20              		.align	2
  21              		.global	u8g2_m_16_4_1
  22              		.thumb
  23              		.thumb_func
  24              		.type	u8g2_m_16_4_1, %function
  25              	u8g2_m_16_4_1:
  26              	.LFB0:
  27              		.file 1 "..\\u8g2\\csrc\\u8g2_d_memory.c"
   1:..\u8g2\csrc/u8g2_d_memory.c **** /* u8g2_d_memory.c */
   2:..\u8g2\csrc/u8g2_d_memory.c **** /* generated code, codebuild, u8g2 project */
   3:..\u8g2\csrc/u8g2_d_memory.c **** 
   4:..\u8g2\csrc/u8g2_d_memory.c **** #include "u8g2.h"
   5:..\u8g2\csrc/u8g2_d_memory.c **** 
   6:..\u8g2\csrc/u8g2_d_memory.c **** uint8_t *u8g2_m_16_4_1(uint8_t *page_cnt)
   7:..\u8g2\csrc/u8g2_d_memory.c **** {
  28              		.loc 1 7 0
  29              		.cfi_startproc
  30              		@ args = 0, pretend = 0, frame = 0
  31              		@ frame_needed = 0, uses_anonymous_args = 0
  32              		@ link register save eliminated.
  33              	.LVL0:
   8:..\u8g2\csrc/u8g2_d_memory.c ****   #ifdef U8G2_USE_DYNAMIC_ALLOC
   9:..\u8g2\csrc/u8g2_d_memory.c ****   *page_cnt = 1;
  10:..\u8g2\csrc/u8g2_d_memory.c ****   return 0;
  11:..\u8g2\csrc/u8g2_d_memory.c ****   #else
  12:..\u8g2\csrc/u8g2_d_memory.c ****   static uint8_t buf[128];
  13:..\u8g2\csrc/u8g2_d_memory.c ****   *page_cnt = 1;
  34              		.loc 1 13 0
  35 0000 0123     		movs	r3, #1
  36 0002 0370     		strb	r3, [r0]
  14:..\u8g2\csrc/u8g2_d_memory.c ****   return buf;
  15:..\u8g2\csrc/u8g2_d_memory.c ****   #endif
  16:..\u8g2\csrc/u8g2_d_memory.c **** }
  37              		.loc 1 16 0
  38 0004 0048     		ldr	r0, .L2
  39              	.LVL1:
  40 0006 7047     		bx	lr
  41              	.L3:
ARM GAS  C:\Users\brian\AppData\Local\Temp\ccmYYpDh.s 			page 2


  42              		.align	2
  43              	.L2:
  44 0008 00000000 		.word	.LANCHOR0
  45              		.cfi_endproc
  46              	.LFE0:
  47              		.size	u8g2_m_16_4_1, .-u8g2_m_16_4_1
  48              		.section	.text.u8g2_m_16_4_2,"ax",%progbits
  49              		.align	2
  50              		.global	u8g2_m_16_4_2
  51              		.thumb
  52              		.thumb_func
  53              		.type	u8g2_m_16_4_2, %function
  54              	u8g2_m_16_4_2:
  55              	.LFB1:
  17:..\u8g2\csrc/u8g2_d_memory.c **** uint8_t *u8g2_m_16_4_2(uint8_t *page_cnt)
  18:..\u8g2\csrc/u8g2_d_memory.c **** {
  56              		.loc 1 18 0
  57              		.cfi_startproc
  58              		@ args = 0, pretend = 0, frame = 0
  59              		@ frame_needed = 0, uses_anonymous_args = 0
  60              		@ link register save eliminated.
  61              	.LVL2:
  19:..\u8g2\csrc/u8g2_d_memory.c ****   #ifdef U8G2_USE_DYNAMIC_ALLOC
  20:..\u8g2\csrc/u8g2_d_memory.c ****   *page_cnt = 2;
  21:..\u8g2\csrc/u8g2_d_memory.c ****   return 0;
  22:..\u8g2\csrc/u8g2_d_memory.c ****   #else
  23:..\u8g2\csrc/u8g2_d_memory.c ****   static uint8_t buf[256];
  24:..\u8g2\csrc/u8g2_d_memory.c ****   *page_cnt = 2;
  62              		.loc 1 24 0
  63 0000 0223     		movs	r3, #2
  64 0002 0370     		strb	r3, [r0]
  25:..\u8g2\csrc/u8g2_d_memory.c ****   return buf;
  26:..\u8g2\csrc/u8g2_d_memory.c ****   #endif
  27:..\u8g2\csrc/u8g2_d_memory.c **** }
  65              		.loc 1 27 0
  66 0004 0048     		ldr	r0, .L5
  67              	.LVL3:
  68 0006 7047     		bx	lr
  69              	.L6:
  70              		.align	2
  71              	.L5:
  72 0008 80000000 		.word	.LANCHOR0+128
  73              		.cfi_endproc
  74              	.LFE1:
  75              		.size	u8g2_m_16_4_2, .-u8g2_m_16_4_2
  76              		.section	.text.u8g2_m_16_4_f,"ax",%progbits
  77              		.align	2
  78              		.global	u8g2_m_16_4_f
  79              		.thumb
  80              		.thumb_func
  81              		.type	u8g2_m_16_4_f, %function
  82              	u8g2_m_16_4_f:
  83              	.LFB2:
  28:..\u8g2\csrc/u8g2_d_memory.c **** uint8_t *u8g2_m_16_4_f(uint8_t *page_cnt)
  29:..\u8g2\csrc/u8g2_d_memory.c **** {
  84              		.loc 1 29 0
  85              		.cfi_startproc
ARM GAS  C:\Users\brian\AppData\Local\Temp\ccmYYpDh.s 			page 3


  86              		@ args = 0, pretend = 0, frame = 0
  87              		@ frame_needed = 0, uses_anonymous_args = 0
  88              		@ link register save eliminated.
  89              	.LVL4:
  30:..\u8g2\csrc/u8g2_d_memory.c ****   #ifdef U8G2_USE_DYNAMIC_ALLOC
  31:..\u8g2\csrc/u8g2_d_memory.c ****   *page_cnt = 4;
  32:..\u8g2\csrc/u8g2_d_memory.c ****   return 0;
  33:..\u8g2\csrc/u8g2_d_memory.c ****   #else
  34:..\u8g2\csrc/u8g2_d_memory.c ****   static uint8_t buf[512];
  35:..\u8g2\csrc/u8g2_d_memory.c ****   *page_cnt = 4;
  90              		.loc 1 35 0
  91 0000 0423     		movs	r3, #4
  92 0002 0370     		strb	r3, [r0]
  36:..\u8g2\csrc/u8g2_d_memory.c ****   return buf;
  37:..\u8g2\csrc/u8g2_d_memory.c ****   #endif
  38:..\u8g2\csrc/u8g2_d_memory.c **** }
  93              		.loc 1 38 0
  94 0004 0048     		ldr	r0, .L8
  95              	.LVL5:
  96 0006 7047     		bx	lr
  97              	.L9:
  98              		.align	2
  99              	.L8:
 100 0008 80010000 		.word	.LANCHOR0+384
 101              		.cfi_endproc
 102              	.LFE2:
 103              		.size	u8g2_m_16_4_f, .-u8g2_m_16_4_f
 104              		.section	.text.u8g2_m_16_8_1,"ax",%progbits
 105              		.align	2
 106              		.global	u8g2_m_16_8_1
 107              		.thumb
 108              		.thumb_func
 109              		.type	u8g2_m_16_8_1, %function
 110              	u8g2_m_16_8_1:
 111              	.LFB3:
  39:..\u8g2\csrc/u8g2_d_memory.c **** uint8_t *u8g2_m_16_8_1(uint8_t *page_cnt)
  40:..\u8g2\csrc/u8g2_d_memory.c **** {
 112              		.loc 1 40 0
 113              		.cfi_startproc
 114              		@ args = 0, pretend = 0, frame = 0
 115              		@ frame_needed = 0, uses_anonymous_args = 0
 116              		@ link register save eliminated.
 117              	.LVL6:
  41:..\u8g2\csrc/u8g2_d_memory.c ****   #ifdef U8G2_USE_DYNAMIC_ALLOC
  42:..\u8g2\csrc/u8g2_d_memory.c ****   *page_cnt = 1;
  43:..\u8g2\csrc/u8g2_d_memory.c ****   return 0;
  44:..\u8g2\csrc/u8g2_d_memory.c ****   #else
  45:..\u8g2\csrc/u8g2_d_memory.c ****   static uint8_t buf[128];
  46:..\u8g2\csrc/u8g2_d_memory.c ****   *page_cnt = 1;
 118              		.loc 1 46 0
 119 0000 0123     		movs	r3, #1
 120 0002 0370     		strb	r3, [r0]
  47:..\u8g2\csrc/u8g2_d_memory.c ****   return buf;
  48:..\u8g2\csrc/u8g2_d_memory.c ****   #endif
  49:..\u8g2\csrc/u8g2_d_memory.c **** }
 121              		.loc 1 49 0
 122 0004 0048     		ldr	r0, .L11
ARM GAS  C:\Users\brian\AppData\Local\Temp\ccmYYpDh.s 			page 4


 123              	.LVL7:
 124 0006 7047     		bx	lr
 125              	.L12:
 126              		.align	2
 127              	.L11:
 128 0008 80030000 		.word	.LANCHOR0+896
 129              		.cfi_endproc
 130              	.LFE3:
 131              		.size	u8g2_m_16_8_1, .-u8g2_m_16_8_1
 132              		.section	.text.u8g2_m_16_8_2,"ax",%progbits
 133              		.align	2
 134              		.global	u8g2_m_16_8_2
 135              		.thumb
 136              		.thumb_func
 137              		.type	u8g2_m_16_8_2, %function
 138              	u8g2_m_16_8_2:
 139              	.LFB4:
  50:..\u8g2\csrc/u8g2_d_memory.c **** uint8_t *u8g2_m_16_8_2(uint8_t *page_cnt)
  51:..\u8g2\csrc/u8g2_d_memory.c **** {
 140              		.loc 1 51 0
 141              		.cfi_startproc
 142              		@ args = 0, pretend = 0, frame = 0
 143              		@ frame_needed = 0, uses_anonymous_args = 0
 144              		@ link register save eliminated.
 145              	.LVL8:
  52:..\u8g2\csrc/u8g2_d_memory.c ****   #ifdef U8G2_USE_DYNAMIC_ALLOC
  53:..\u8g2\csrc/u8g2_d_memory.c ****   *page_cnt = 2;
  54:..\u8g2\csrc/u8g2_d_memory.c ****   return 0;
  55:..\u8g2\csrc/u8g2_d_memory.c ****   #else
  56:..\u8g2\csrc/u8g2_d_memory.c ****   static uint8_t buf[256];
  57:..\u8g2\csrc/u8g2_d_memory.c ****   *page_cnt = 2;
 146              		.loc 1 57 0
 147 0000 0223     		movs	r3, #2
 148 0002 0370     		strb	r3, [r0]
  58:..\u8g2\csrc/u8g2_d_memory.c ****   return buf;
  59:..\u8g2\csrc/u8g2_d_memory.c ****   #endif
  60:..\u8g2\csrc/u8g2_d_memory.c **** }
 149              		.loc 1 60 0
 150 0004 0048     		ldr	r0, .L14
 151              	.LVL9:
 152 0006 7047     		bx	lr
 153              	.L15:
 154              		.align	2
 155              	.L14:
 156 0008 00040000 		.word	.LANCHOR0+1024
 157              		.cfi_endproc
 158              	.LFE4:
 159              		.size	u8g2_m_16_8_2, .-u8g2_m_16_8_2
 160              		.section	.text.u8g2_m_16_8_f,"ax",%progbits
 161              		.align	2
 162              		.global	u8g2_m_16_8_f
 163              		.thumb
 164              		.thumb_func
 165              		.type	u8g2_m_16_8_f, %function
 166              	u8g2_m_16_8_f:
 167              	.LFB5:
  61:..\u8g2\csrc/u8g2_d_memory.c **** uint8_t *u8g2_m_16_8_f(uint8_t *page_cnt)
ARM GAS  C:\Users\brian\AppData\Local\Temp\ccmYYpDh.s 			page 5


  62:..\u8g2\csrc/u8g2_d_memory.c **** {
 168              		.loc 1 62 0
 169              		.cfi_startproc
 170              		@ args = 0, pretend = 0, frame = 0
 171              		@ frame_needed = 0, uses_anonymous_args = 0
 172              		@ link register save eliminated.
 173              	.LVL10:
  63:..\u8g2\csrc/u8g2_d_memory.c ****   #ifdef U8G2_USE_DYNAMIC_ALLOC
  64:..\u8g2\csrc/u8g2_d_memory.c ****   *page_cnt = 8;
  65:..\u8g2\csrc/u8g2_d_memory.c ****   return 0;
  66:..\u8g2\csrc/u8g2_d_memory.c ****   #else
  67:..\u8g2\csrc/u8g2_d_memory.c ****   static uint8_t buf[1024];
  68:..\u8g2\csrc/u8g2_d_memory.c ****   *page_cnt = 8;
 174              		.loc 1 68 0
 175 0000 0823     		movs	r3, #8
 176 0002 0370     		strb	r3, [r0]
  69:..\u8g2\csrc/u8g2_d_memory.c ****   return buf;
  70:..\u8g2\csrc/u8g2_d_memory.c ****   #endif
  71:..\u8g2\csrc/u8g2_d_memory.c **** }
 177              		.loc 1 71 0
 178 0004 0048     		ldr	r0, .L17
 179              	.LVL11:
 180 0006 7047     		bx	lr
 181              	.L18:
 182              		.align	2
 183              	.L17:
 184 0008 00050000 		.word	.LANCHOR0+1280
 185              		.cfi_endproc
 186              	.LFE5:
 187              		.size	u8g2_m_16_8_f, .-u8g2_m_16_8_f
 188              		.section	.text.u8g2_m_255_2_1,"ax",%progbits
 189              		.align	2
 190              		.global	u8g2_m_255_2_1
 191              		.thumb
 192              		.thumb_func
 193              		.type	u8g2_m_255_2_1, %function
 194              	u8g2_m_255_2_1:
 195              	.LFB6:
  72:..\u8g2\csrc/u8g2_d_memory.c **** uint8_t *u8g2_m_255_2_1(uint8_t *page_cnt)
  73:..\u8g2\csrc/u8g2_d_memory.c **** {
 196              		.loc 1 73 0
 197              		.cfi_startproc
 198              		@ args = 0, pretend = 0, frame = 0
 199              		@ frame_needed = 0, uses_anonymous_args = 0
 200              		@ link register save eliminated.
 201              	.LVL12:
  74:..\u8g2\csrc/u8g2_d_memory.c ****   #ifdef U8G2_USE_DYNAMIC_ALLOC
  75:..\u8g2\csrc/u8g2_d_memory.c ****   *page_cnt = 1;
  76:..\u8g2\csrc/u8g2_d_memory.c ****   return 0;
  77:..\u8g2\csrc/u8g2_d_memory.c ****   #else
  78:..\u8g2\csrc/u8g2_d_memory.c ****   static uint8_t buf[2040];
  79:..\u8g2\csrc/u8g2_d_memory.c ****   *page_cnt = 1;
 202              		.loc 1 79 0
 203 0000 0123     		movs	r3, #1
 204 0002 0370     		strb	r3, [r0]
  80:..\u8g2\csrc/u8g2_d_memory.c ****   return buf;
  81:..\u8g2\csrc/u8g2_d_memory.c ****   #endif
ARM GAS  C:\Users\brian\AppData\Local\Temp\ccmYYpDh.s 			page 6


  82:..\u8g2\csrc/u8g2_d_memory.c **** }
 205              		.loc 1 82 0
 206 0004 0048     		ldr	r0, .L20
 207              	.LVL13:
 208 0006 7047     		bx	lr
 209              	.L21:
 210              		.align	2
 211              	.L20:
 212 0008 00090000 		.word	.LANCHOR0+2304
 213              		.cfi_endproc
 214              	.LFE6:
 215              		.size	u8g2_m_255_2_1, .-u8g2_m_255_2_1
 216              		.section	.text.u8g2_m_255_2_2,"ax",%progbits
 217              		.align	2
 218              		.global	u8g2_m_255_2_2
 219              		.thumb
 220              		.thumb_func
 221              		.type	u8g2_m_255_2_2, %function
 222              	u8g2_m_255_2_2:
 223              	.LFB7:
  83:..\u8g2\csrc/u8g2_d_memory.c **** uint8_t *u8g2_m_255_2_2(uint8_t *page_cnt)
  84:..\u8g2\csrc/u8g2_d_memory.c **** {
 224              		.loc 1 84 0
 225              		.cfi_startproc
 226              		@ args = 0, pretend = 0, frame = 0
 227              		@ frame_needed = 0, uses_anonymous_args = 0
 228              		@ link register save eliminated.
 229              	.LVL14:
  85:..\u8g2\csrc/u8g2_d_memory.c ****   #ifdef U8G2_USE_DYNAMIC_ALLOC
  86:..\u8g2\csrc/u8g2_d_memory.c ****   *page_cnt = 2;
  87:..\u8g2\csrc/u8g2_d_memory.c ****   return 0;
  88:..\u8g2\csrc/u8g2_d_memory.c ****   #else
  89:..\u8g2\csrc/u8g2_d_memory.c ****   static uint8_t buf[4080];
  90:..\u8g2\csrc/u8g2_d_memory.c ****   *page_cnt = 2;
 230              		.loc 1 90 0
 231 0000 0223     		movs	r3, #2
 232 0002 0370     		strb	r3, [r0]
  91:..\u8g2\csrc/u8g2_d_memory.c ****   return buf;
  92:..\u8g2\csrc/u8g2_d_memory.c ****   #endif
  93:..\u8g2\csrc/u8g2_d_memory.c **** }
 233              		.loc 1 93 0
 234 0004 0048     		ldr	r0, .L23
 235              	.LVL15:
 236 0006 7047     		bx	lr
 237              	.L24:
 238              		.align	2
 239              	.L23:
 240 0008 F8100000 		.word	.LANCHOR1
 241              		.cfi_endproc
 242              	.LFE7:
 243              		.size	u8g2_m_255_2_2, .-u8g2_m_255_2_2
 244              		.section	.text.u8g2_m_255_2_f,"ax",%progbits
 245              		.align	2
 246              		.global	u8g2_m_255_2_f
 247              		.thumb
 248              		.thumb_func
 249              		.type	u8g2_m_255_2_f, %function
ARM GAS  C:\Users\brian\AppData\Local\Temp\ccmYYpDh.s 			page 7


 250              	u8g2_m_255_2_f:
 251              	.LFB8:
  94:..\u8g2\csrc/u8g2_d_memory.c **** uint8_t *u8g2_m_255_2_f(uint8_t *page_cnt)
  95:..\u8g2\csrc/u8g2_d_memory.c **** {
 252              		.loc 1 95 0
 253              		.cfi_startproc
 254              		@ args = 0, pretend = 0, frame = 0
 255              		@ frame_needed = 0, uses_anonymous_args = 0
 256              		@ link register save eliminated.
 257              	.LVL16:
  96:..\u8g2\csrc/u8g2_d_memory.c ****   #ifdef U8G2_USE_DYNAMIC_ALLOC
  97:..\u8g2\csrc/u8g2_d_memory.c ****   *page_cnt = 2;
  98:..\u8g2\csrc/u8g2_d_memory.c ****   return 0;
  99:..\u8g2\csrc/u8g2_d_memory.c ****   #else
 100:..\u8g2\csrc/u8g2_d_memory.c ****   static uint8_t buf[4080];
 101:..\u8g2\csrc/u8g2_d_memory.c ****   *page_cnt = 2;
 258              		.loc 1 101 0
 259 0000 0223     		movs	r3, #2
 260 0002 0370     		strb	r3, [r0]
 102:..\u8g2\csrc/u8g2_d_memory.c ****   return buf;
 103:..\u8g2\csrc/u8g2_d_memory.c ****   #endif
 104:..\u8g2\csrc/u8g2_d_memory.c **** }
 261              		.loc 1 104 0
 262 0004 0048     		ldr	r0, .L26
 263              	.LVL17:
 264 0006 7047     		bx	lr
 265              	.L27:
 266              		.align	2
 267              	.L26:
 268 0008 E8200000 		.word	.LANCHOR1+4080
 269              		.cfi_endproc
 270              	.LFE8:
 271              		.size	u8g2_m_255_2_f, .-u8g2_m_255_2_f
 272              		.section	.text.u8g2_m_9_5_1,"ax",%progbits
 273              		.align	2
 274              		.global	u8g2_m_9_5_1
 275              		.thumb
 276              		.thumb_func
 277              		.type	u8g2_m_9_5_1, %function
 278              	u8g2_m_9_5_1:
 279              	.LFB9:
 105:..\u8g2\csrc/u8g2_d_memory.c **** uint8_t *u8g2_m_9_5_1(uint8_t *page_cnt)
 106:..\u8g2\csrc/u8g2_d_memory.c **** {
 280              		.loc 1 106 0
 281              		.cfi_startproc
 282              		@ args = 0, pretend = 0, frame = 0
 283              		@ frame_needed = 0, uses_anonymous_args = 0
 284              		@ link register save eliminated.
 285              	.LVL18:
 107:..\u8g2\csrc/u8g2_d_memory.c ****   #ifdef U8G2_USE_DYNAMIC_ALLOC
 108:..\u8g2\csrc/u8g2_d_memory.c ****   *page_cnt = 1;
 109:..\u8g2\csrc/u8g2_d_memory.c ****   return 0;
 110:..\u8g2\csrc/u8g2_d_memory.c ****   #else
 111:..\u8g2\csrc/u8g2_d_memory.c ****   static uint8_t buf[72];
 112:..\u8g2\csrc/u8g2_d_memory.c ****   *page_cnt = 1;
 286              		.loc 1 112 0
 287 0000 0123     		movs	r3, #1
ARM GAS  C:\Users\brian\AppData\Local\Temp\ccmYYpDh.s 			page 8


 288 0002 0370     		strb	r3, [r0]
 113:..\u8g2\csrc/u8g2_d_memory.c ****   return buf;
 114:..\u8g2\csrc/u8g2_d_memory.c ****   #endif
 115:..\u8g2\csrc/u8g2_d_memory.c **** }
 289              		.loc 1 115 0
 290 0004 0048     		ldr	r0, .L29
 291              	.LVL19:
 292 0006 7047     		bx	lr
 293              	.L30:
 294              		.align	2
 295              	.L29:
 296 0008 D8300000 		.word	.LANCHOR2+3816
 297              		.cfi_endproc
 298              	.LFE9:
 299              		.size	u8g2_m_9_5_1, .-u8g2_m_9_5_1
 300              		.section	.text.u8g2_m_9_5_2,"ax",%progbits
 301              		.align	2
 302              		.global	u8g2_m_9_5_2
 303              		.thumb
 304              		.thumb_func
 305              		.type	u8g2_m_9_5_2, %function
 306              	u8g2_m_9_5_2:
 307              	.LFB10:
 116:..\u8g2\csrc/u8g2_d_memory.c **** uint8_t *u8g2_m_9_5_2(uint8_t *page_cnt)
 117:..\u8g2\csrc/u8g2_d_memory.c **** {
 308              		.loc 1 117 0
 309              		.cfi_startproc
 310              		@ args = 0, pretend = 0, frame = 0
 311              		@ frame_needed = 0, uses_anonymous_args = 0
 312              		@ link register save eliminated.
 313              	.LVL20:
 118:..\u8g2\csrc/u8g2_d_memory.c ****   #ifdef U8G2_USE_DYNAMIC_ALLOC
 119:..\u8g2\csrc/u8g2_d_memory.c ****   *page_cnt = 2;
 120:..\u8g2\csrc/u8g2_d_memory.c ****   return 0;
 121:..\u8g2\csrc/u8g2_d_memory.c ****   #else
 122:..\u8g2\csrc/u8g2_d_memory.c ****   static uint8_t buf[144];
 123:..\u8g2\csrc/u8g2_d_memory.c ****   *page_cnt = 2;
 314              		.loc 1 123 0
 315 0000 0223     		movs	r3, #2
 316 0002 0370     		strb	r3, [r0]
 124:..\u8g2\csrc/u8g2_d_memory.c ****   return buf;
 125:..\u8g2\csrc/u8g2_d_memory.c ****   #endif
 126:..\u8g2\csrc/u8g2_d_memory.c **** }
 317              		.loc 1 126 0
 318 0004 0048     		ldr	r0, .L32
 319              	.LVL21:
 320 0006 7047     		bx	lr
 321              	.L33:
 322              		.align	2
 323              	.L32:
 324 0008 20310000 		.word	.LANCHOR2+3888
 325              		.cfi_endproc
 326              	.LFE10:
 327              		.size	u8g2_m_9_5_2, .-u8g2_m_9_5_2
 328              		.section	.text.u8g2_m_9_5_f,"ax",%progbits
 329              		.align	2
 330              		.global	u8g2_m_9_5_f
ARM GAS  C:\Users\brian\AppData\Local\Temp\ccmYYpDh.s 			page 9


 331              		.thumb
 332              		.thumb_func
 333              		.type	u8g2_m_9_5_f, %function
 334              	u8g2_m_9_5_f:
 335              	.LFB11:
 127:..\u8g2\csrc/u8g2_d_memory.c **** uint8_t *u8g2_m_9_5_f(uint8_t *page_cnt)
 128:..\u8g2\csrc/u8g2_d_memory.c **** {
 336              		.loc 1 128 0
 337              		.cfi_startproc
 338              		@ args = 0, pretend = 0, frame = 0
 339              		@ frame_needed = 0, uses_anonymous_args = 0
 340              		@ link register save eliminated.
 341              	.LVL22:
 129:..\u8g2\csrc/u8g2_d_memory.c ****   #ifdef U8G2_USE_DYNAMIC_ALLOC
 130:..\u8g2\csrc/u8g2_d_memory.c ****   *page_cnt = 5;
 131:..\u8g2\csrc/u8g2_d_memory.c ****   return 0;
 132:..\u8g2\csrc/u8g2_d_memory.c ****   #else
 133:..\u8g2\csrc/u8g2_d_memory.c ****   static uint8_t buf[360];
 134:..\u8g2\csrc/u8g2_d_memory.c ****   *page_cnt = 5;
 342              		.loc 1 134 0
 343 0000 0523     		movs	r3, #5
 344 0002 0370     		strb	r3, [r0]
 135:..\u8g2\csrc/u8g2_d_memory.c ****   return buf;
 136:..\u8g2\csrc/u8g2_d_memory.c ****   #endif
 137:..\u8g2\csrc/u8g2_d_memory.c **** }
 345              		.loc 1 137 0
 346 0004 0048     		ldr	r0, .L35
 347              	.LVL23:
 348 0006 7047     		bx	lr
 349              	.L36:
 350              		.align	2
 351              	.L35:
 352 0008 B0310000 		.word	.LANCHOR2+4032
 353              		.cfi_endproc
 354              	.LFE11:
 355              		.size	u8g2_m_9_5_f, .-u8g2_m_9_5_f
 356              		.section	.text.u8g2_m_8_4_1,"ax",%progbits
 357              		.align	2
 358              		.global	u8g2_m_8_4_1
 359              		.thumb
 360              		.thumb_func
 361              		.type	u8g2_m_8_4_1, %function
 362              	u8g2_m_8_4_1:
 363              	.LFB12:
 138:..\u8g2\csrc/u8g2_d_memory.c **** uint8_t *u8g2_m_8_4_1(uint8_t *page_cnt)
 139:..\u8g2\csrc/u8g2_d_memory.c **** {
 364              		.loc 1 139 0
 365              		.cfi_startproc
 366              		@ args = 0, pretend = 0, frame = 0
 367              		@ frame_needed = 0, uses_anonymous_args = 0
 368              		@ link register save eliminated.
 369              	.LVL24:
 140:..\u8g2\csrc/u8g2_d_memory.c ****   #ifdef U8G2_USE_DYNAMIC_ALLOC
 141:..\u8g2\csrc/u8g2_d_memory.c ****   *page_cnt = 1;
 142:..\u8g2\csrc/u8g2_d_memory.c ****   return 0;
 143:..\u8g2\csrc/u8g2_d_memory.c ****   #else
 144:..\u8g2\csrc/u8g2_d_memory.c ****   static uint8_t buf[64];
ARM GAS  C:\Users\brian\AppData\Local\Temp\ccmYYpDh.s 			page 10


 145:..\u8g2\csrc/u8g2_d_memory.c ****   *page_cnt = 1;
 370              		.loc 1 145 0
 371 0000 0123     		movs	r3, #1
 372 0002 0370     		strb	r3, [r0]
 146:..\u8g2\csrc/u8g2_d_memory.c ****   return buf;
 147:..\u8g2\csrc/u8g2_d_memory.c ****   #endif
 148:..\u8g2\csrc/u8g2_d_memory.c **** }
 373              		.loc 1 148 0
 374 0004 0048     		ldr	r0, .L38
 375              	.LVL25:
 376 0006 7047     		bx	lr
 377              	.L39:
 378              		.align	2
 379              	.L38:
 380 0008 18330000 		.word	.LANCHOR3+48
 381              		.cfi_endproc
 382              	.LFE12:
 383              		.size	u8g2_m_8_4_1, .-u8g2_m_8_4_1
 384              		.section	.text.u8g2_m_8_4_2,"ax",%progbits
 385              		.align	2
 386              		.global	u8g2_m_8_4_2
 387              		.thumb
 388              		.thumb_func
 389              		.type	u8g2_m_8_4_2, %function
 390              	u8g2_m_8_4_2:
 391              	.LFB13:
 149:..\u8g2\csrc/u8g2_d_memory.c **** uint8_t *u8g2_m_8_4_2(uint8_t *page_cnt)
 150:..\u8g2\csrc/u8g2_d_memory.c **** {
 392              		.loc 1 150 0
 393              		.cfi_startproc
 394              		@ args = 0, pretend = 0, frame = 0
 395              		@ frame_needed = 0, uses_anonymous_args = 0
 396              		@ link register save eliminated.
 397              	.LVL26:
 151:..\u8g2\csrc/u8g2_d_memory.c ****   #ifdef U8G2_USE_DYNAMIC_ALLOC
 152:..\u8g2\csrc/u8g2_d_memory.c ****   *page_cnt = 2;
 153:..\u8g2\csrc/u8g2_d_memory.c ****   return 0;
 154:..\u8g2\csrc/u8g2_d_memory.c ****   #else
 155:..\u8g2\csrc/u8g2_d_memory.c ****   static uint8_t buf[128];
 156:..\u8g2\csrc/u8g2_d_memory.c ****   *page_cnt = 2;
 398              		.loc 1 156 0
 399 0000 0223     		movs	r3, #2
 400 0002 0370     		strb	r3, [r0]
 157:..\u8g2\csrc/u8g2_d_memory.c ****   return buf;
 158:..\u8g2\csrc/u8g2_d_memory.c ****   #endif
 159:..\u8g2\csrc/u8g2_d_memory.c **** }
 401              		.loc 1 159 0
 402 0004 0048     		ldr	r0, .L41
 403              	.LVL27:
 404 0006 7047     		bx	lr
 405              	.L42:
 406              		.align	2
 407              	.L41:
 408 0008 58330000 		.word	.LANCHOR3+112
 409              		.cfi_endproc
 410              	.LFE13:
 411              		.size	u8g2_m_8_4_2, .-u8g2_m_8_4_2
ARM GAS  C:\Users\brian\AppData\Local\Temp\ccmYYpDh.s 			page 11


 412              		.section	.text.u8g2_m_8_4_f,"ax",%progbits
 413              		.align	2
 414              		.global	u8g2_m_8_4_f
 415              		.thumb
 416              		.thumb_func
 417              		.type	u8g2_m_8_4_f, %function
 418              	u8g2_m_8_4_f:
 419              	.LFB14:
 160:..\u8g2\csrc/u8g2_d_memory.c **** uint8_t *u8g2_m_8_4_f(uint8_t *page_cnt)
 161:..\u8g2\csrc/u8g2_d_memory.c **** {
 420              		.loc 1 161 0
 421              		.cfi_startproc
 422              		@ args = 0, pretend = 0, frame = 0
 423              		@ frame_needed = 0, uses_anonymous_args = 0
 424              		@ link register save eliminated.
 425              	.LVL28:
 162:..\u8g2\csrc/u8g2_d_memory.c ****   #ifdef U8G2_USE_DYNAMIC_ALLOC
 163:..\u8g2\csrc/u8g2_d_memory.c ****   *page_cnt = 4;
 164:..\u8g2\csrc/u8g2_d_memory.c ****   return 0;
 165:..\u8g2\csrc/u8g2_d_memory.c ****   #else
 166:..\u8g2\csrc/u8g2_d_memory.c ****   static uint8_t buf[256];
 167:..\u8g2\csrc/u8g2_d_memory.c ****   *page_cnt = 4;
 426              		.loc 1 167 0
 427 0000 0423     		movs	r3, #4
 428 0002 0370     		strb	r3, [r0]
 168:..\u8g2\csrc/u8g2_d_memory.c ****   return buf;
 169:..\u8g2\csrc/u8g2_d_memory.c ****   #endif
 170:..\u8g2\csrc/u8g2_d_memory.c **** }
 429              		.loc 1 170 0
 430 0004 0048     		ldr	r0, .L44
 431              	.LVL29:
 432 0006 7047     		bx	lr
 433              	.L45:
 434              		.align	2
 435              	.L44:
 436 0008 D8330000 		.word	.LANCHOR3+240
 437              		.cfi_endproc
 438              	.LFE14:
 439              		.size	u8g2_m_8_4_f, .-u8g2_m_8_4_f
 440              		.section	.text.u8g2_m_8_16_1,"ax",%progbits
 441              		.align	2
 442              		.global	u8g2_m_8_16_1
 443              		.thumb
 444              		.thumb_func
 445              		.type	u8g2_m_8_16_1, %function
 446              	u8g2_m_8_16_1:
 447              	.LFB15:
 171:..\u8g2\csrc/u8g2_d_memory.c **** uint8_t *u8g2_m_8_16_1(uint8_t *page_cnt)
 172:..\u8g2\csrc/u8g2_d_memory.c **** {
 448              		.loc 1 172 0
 449              		.cfi_startproc
 450              		@ args = 0, pretend = 0, frame = 0
 451              		@ frame_needed = 0, uses_anonymous_args = 0
 452              		@ link register save eliminated.
 453              	.LVL30:
 173:..\u8g2\csrc/u8g2_d_memory.c ****   #ifdef U8G2_USE_DYNAMIC_ALLOC
 174:..\u8g2\csrc/u8g2_d_memory.c ****   *page_cnt = 1;
ARM GAS  C:\Users\brian\AppData\Local\Temp\ccmYYpDh.s 			page 12


 175:..\u8g2\csrc/u8g2_d_memory.c ****   return 0;
 176:..\u8g2\csrc/u8g2_d_memory.c ****   #else
 177:..\u8g2\csrc/u8g2_d_memory.c ****   static uint8_t buf[64];
 178:..\u8g2\csrc/u8g2_d_memory.c ****   *page_cnt = 1;
 454              		.loc 1 178 0
 455 0000 0123     		movs	r3, #1
 456 0002 0370     		strb	r3, [r0]
 179:..\u8g2\csrc/u8g2_d_memory.c ****   return buf;
 180:..\u8g2\csrc/u8g2_d_memory.c ****   #endif
 181:..\u8g2\csrc/u8g2_d_memory.c **** }
 457              		.loc 1 181 0
 458 0004 0048     		ldr	r0, .L47
 459              	.LVL31:
 460 0006 7047     		bx	lr
 461              	.L48:
 462              		.align	2
 463              	.L47:
 464 0008 D8340000 		.word	.LANCHOR3+496
 465              		.cfi_endproc
 466              	.LFE15:
 467              		.size	u8g2_m_8_16_1, .-u8g2_m_8_16_1
 468              		.section	.text.u8g2_m_8_16_2,"ax",%progbits
 469              		.align	2
 470              		.global	u8g2_m_8_16_2
 471              		.thumb
 472              		.thumb_func
 473              		.type	u8g2_m_8_16_2, %function
 474              	u8g2_m_8_16_2:
 475              	.LFB16:
 182:..\u8g2\csrc/u8g2_d_memory.c **** uint8_t *u8g2_m_8_16_2(uint8_t *page_cnt)
 183:..\u8g2\csrc/u8g2_d_memory.c **** {
 476              		.loc 1 183 0
 477              		.cfi_startproc
 478              		@ args = 0, pretend = 0, frame = 0
 479              		@ frame_needed = 0, uses_anonymous_args = 0
 480              		@ link register save eliminated.
 481              	.LVL32:
 184:..\u8g2\csrc/u8g2_d_memory.c ****   #ifdef U8G2_USE_DYNAMIC_ALLOC
 185:..\u8g2\csrc/u8g2_d_memory.c ****   *page_cnt = 2;
 186:..\u8g2\csrc/u8g2_d_memory.c ****   return 0;
 187:..\u8g2\csrc/u8g2_d_memory.c ****   #else
 188:..\u8g2\csrc/u8g2_d_memory.c ****   static uint8_t buf[128];
 189:..\u8g2\csrc/u8g2_d_memory.c ****   *page_cnt = 2;
 482              		.loc 1 189 0
 483 0000 0223     		movs	r3, #2
 484 0002 0370     		strb	r3, [r0]
 190:..\u8g2\csrc/u8g2_d_memory.c ****   return buf;
 191:..\u8g2\csrc/u8g2_d_memory.c ****   #endif
 192:..\u8g2\csrc/u8g2_d_memory.c **** }
 485              		.loc 1 192 0
 486 0004 0048     		ldr	r0, .L50
 487              	.LVL33:
 488 0006 7047     		bx	lr
 489              	.L51:
 490              		.align	2
 491              	.L50:
 492 0008 18350000 		.word	.LANCHOR3+560
ARM GAS  C:\Users\brian\AppData\Local\Temp\ccmYYpDh.s 			page 13


 493              		.cfi_endproc
 494              	.LFE16:
 495              		.size	u8g2_m_8_16_2, .-u8g2_m_8_16_2
 496              		.section	.text.u8g2_m_8_16_f,"ax",%progbits
 497              		.align	2
 498              		.global	u8g2_m_8_16_f
 499              		.thumb
 500              		.thumb_func
 501              		.type	u8g2_m_8_16_f, %function
 502              	u8g2_m_8_16_f:
 503              	.LFB17:
 193:..\u8g2\csrc/u8g2_d_memory.c **** uint8_t *u8g2_m_8_16_f(uint8_t *page_cnt)
 194:..\u8g2\csrc/u8g2_d_memory.c **** {
 504              		.loc 1 194 0
 505              		.cfi_startproc
 506              		@ args = 0, pretend = 0, frame = 0
 507              		@ frame_needed = 0, uses_anonymous_args = 0
 508              		@ link register save eliminated.
 509              	.LVL34:
 195:..\u8g2\csrc/u8g2_d_memory.c ****   #ifdef U8G2_USE_DYNAMIC_ALLOC
 196:..\u8g2\csrc/u8g2_d_memory.c ****   *page_cnt = 16;
 197:..\u8g2\csrc/u8g2_d_memory.c ****   return 0;
 198:..\u8g2\csrc/u8g2_d_memory.c ****   #else
 199:..\u8g2\csrc/u8g2_d_memory.c ****   static uint8_t buf[1024];
 200:..\u8g2\csrc/u8g2_d_memory.c ****   *page_cnt = 16;
 510              		.loc 1 200 0
 511 0000 1023     		movs	r3, #16
 512 0002 0370     		strb	r3, [r0]
 201:..\u8g2\csrc/u8g2_d_memory.c ****   return buf;
 202:..\u8g2\csrc/u8g2_d_memory.c ****   #endif
 203:..\u8g2\csrc/u8g2_d_memory.c **** }
 513              		.loc 1 203 0
 514 0004 0048     		ldr	r0, .L53
 515              	.LVL35:
 516 0006 7047     		bx	lr
 517              	.L54:
 518              		.align	2
 519              	.L53:
 520 0008 98350000 		.word	.LANCHOR3+688
 521              		.cfi_endproc
 522              	.LFE17:
 523              		.size	u8g2_m_8_16_f, .-u8g2_m_8_16_f
 524              		.section	.text.u8g2_m_12_12_1,"ax",%progbits
 525              		.align	2
 526              		.global	u8g2_m_12_12_1
 527              		.thumb
 528              		.thumb_func
 529              		.type	u8g2_m_12_12_1, %function
 530              	u8g2_m_12_12_1:
 531              	.LFB18:
 204:..\u8g2\csrc/u8g2_d_memory.c **** uint8_t *u8g2_m_12_12_1(uint8_t *page_cnt)
 205:..\u8g2\csrc/u8g2_d_memory.c **** {
 532              		.loc 1 205 0
 533              		.cfi_startproc
 534              		@ args = 0, pretend = 0, frame = 0
 535              		@ frame_needed = 0, uses_anonymous_args = 0
 536              		@ link register save eliminated.
ARM GAS  C:\Users\brian\AppData\Local\Temp\ccmYYpDh.s 			page 14


 537              	.LVL36:
 206:..\u8g2\csrc/u8g2_d_memory.c ****   #ifdef U8G2_USE_DYNAMIC_ALLOC
 207:..\u8g2\csrc/u8g2_d_memory.c ****   *page_cnt = 1;
 208:..\u8g2\csrc/u8g2_d_memory.c ****   return 0;
 209:..\u8g2\csrc/u8g2_d_memory.c ****   #else
 210:..\u8g2\csrc/u8g2_d_memory.c ****   static uint8_t buf[96];
 211:..\u8g2\csrc/u8g2_d_memory.c ****   *page_cnt = 1;
 538              		.loc 1 211 0
 539 0000 0123     		movs	r3, #1
 540 0002 0370     		strb	r3, [r0]
 212:..\u8g2\csrc/u8g2_d_memory.c ****   return buf;
 213:..\u8g2\csrc/u8g2_d_memory.c ****   #endif
 214:..\u8g2\csrc/u8g2_d_memory.c **** }
 541              		.loc 1 214 0
 542 0004 0048     		ldr	r0, .L56
 543              	.LVL37:
 544 0006 7047     		bx	lr
 545              	.L57:
 546              		.align	2
 547              	.L56:
 548 0008 98390000 		.word	.LANCHOR3+1712
 549              		.cfi_endproc
 550              	.LFE18:
 551              		.size	u8g2_m_12_12_1, .-u8g2_m_12_12_1
 552              		.section	.text.u8g2_m_12_12_2,"ax",%progbits
 553              		.align	2
 554              		.global	u8g2_m_12_12_2
 555              		.thumb
 556              		.thumb_func
 557              		.type	u8g2_m_12_12_2, %function
 558              	u8g2_m_12_12_2:
 559              	.LFB19:
 215:..\u8g2\csrc/u8g2_d_memory.c **** uint8_t *u8g2_m_12_12_2(uint8_t *page_cnt)
 216:..\u8g2\csrc/u8g2_d_memory.c **** {
 560              		.loc 1 216 0
 561              		.cfi_startproc
 562              		@ args = 0, pretend = 0, frame = 0
 563              		@ frame_needed = 0, uses_anonymous_args = 0
 564              		@ link register save eliminated.
 565              	.LVL38:
 217:..\u8g2\csrc/u8g2_d_memory.c ****   #ifdef U8G2_USE_DYNAMIC_ALLOC
 218:..\u8g2\csrc/u8g2_d_memory.c ****   *page_cnt = 2;
 219:..\u8g2\csrc/u8g2_d_memory.c ****   return 0;
 220:..\u8g2\csrc/u8g2_d_memory.c ****   #else
 221:..\u8g2\csrc/u8g2_d_memory.c ****   static uint8_t buf[192];
 222:..\u8g2\csrc/u8g2_d_memory.c ****   *page_cnt = 2;
 566              		.loc 1 222 0
 567 0000 0223     		movs	r3, #2
 568 0002 0370     		strb	r3, [r0]
 223:..\u8g2\csrc/u8g2_d_memory.c ****   return buf;
 224:..\u8g2\csrc/u8g2_d_memory.c ****   #endif
 225:..\u8g2\csrc/u8g2_d_memory.c **** }
 569              		.loc 1 225 0
 570 0004 0048     		ldr	r0, .L59
 571              	.LVL39:
 572 0006 7047     		bx	lr
 573              	.L60:
ARM GAS  C:\Users\brian\AppData\Local\Temp\ccmYYpDh.s 			page 15


 574              		.align	2
 575              	.L59:
 576 0008 F8390000 		.word	.LANCHOR3+1808
 577              		.cfi_endproc
 578              	.LFE19:
 579              		.size	u8g2_m_12_12_2, .-u8g2_m_12_12_2
 580              		.section	.text.u8g2_m_12_12_f,"ax",%progbits
 581              		.align	2
 582              		.global	u8g2_m_12_12_f
 583              		.thumb
 584              		.thumb_func
 585              		.type	u8g2_m_12_12_f, %function
 586              	u8g2_m_12_12_f:
 587              	.LFB20:
 226:..\u8g2\csrc/u8g2_d_memory.c **** uint8_t *u8g2_m_12_12_f(uint8_t *page_cnt)
 227:..\u8g2\csrc/u8g2_d_memory.c **** {
 588              		.loc 1 227 0
 589              		.cfi_startproc
 590              		@ args = 0, pretend = 0, frame = 0
 591              		@ frame_needed = 0, uses_anonymous_args = 0
 592              		@ link register save eliminated.
 593              	.LVL40:
 228:..\u8g2\csrc/u8g2_d_memory.c ****   #ifdef U8G2_USE_DYNAMIC_ALLOC
 229:..\u8g2\csrc/u8g2_d_memory.c ****   *page_cnt = 12;
 230:..\u8g2\csrc/u8g2_d_memory.c ****   return 0;
 231:..\u8g2\csrc/u8g2_d_memory.c ****   #else
 232:..\u8g2\csrc/u8g2_d_memory.c ****   static uint8_t buf[1152];
 233:..\u8g2\csrc/u8g2_d_memory.c ****   *page_cnt = 12;
 594              		.loc 1 233 0
 595 0000 0C23     		movs	r3, #12
 596 0002 0370     		strb	r3, [r0]
 234:..\u8g2\csrc/u8g2_d_memory.c ****   return buf;
 235:..\u8g2\csrc/u8g2_d_memory.c ****   #endif
 236:..\u8g2\csrc/u8g2_d_memory.c **** }
 597              		.loc 1 236 0
 598 0004 0048     		ldr	r0, .L62
 599              	.LVL41:
 600 0006 7047     		bx	lr
 601              	.L63:
 602              		.align	2
 603              	.L62:
 604 0008 B83A0000 		.word	.LANCHOR3+2000
 605              		.cfi_endproc
 606              	.LFE20:
 607              		.size	u8g2_m_12_12_f, .-u8g2_m_12_12_f
 608              		.section	.text.u8g2_m_10_16_1,"ax",%progbits
 609              		.align	2
 610              		.global	u8g2_m_10_16_1
 611              		.thumb
 612              		.thumb_func
 613              		.type	u8g2_m_10_16_1, %function
 614              	u8g2_m_10_16_1:
 615              	.LFB21:
 237:..\u8g2\csrc/u8g2_d_memory.c **** uint8_t *u8g2_m_10_16_1(uint8_t *page_cnt)
 238:..\u8g2\csrc/u8g2_d_memory.c **** {
 616              		.loc 1 238 0
 617              		.cfi_startproc
ARM GAS  C:\Users\brian\AppData\Local\Temp\ccmYYpDh.s 			page 16


 618              		@ args = 0, pretend = 0, frame = 0
 619              		@ frame_needed = 0, uses_anonymous_args = 0
 620              		@ link register save eliminated.
 621              	.LVL42:
 239:..\u8g2\csrc/u8g2_d_memory.c ****   #ifdef U8G2_USE_DYNAMIC_ALLOC
 240:..\u8g2\csrc/u8g2_d_memory.c ****   *page_cnt = 1;
 241:..\u8g2\csrc/u8g2_d_memory.c ****   return 0;
 242:..\u8g2\csrc/u8g2_d_memory.c ****   #else
 243:..\u8g2\csrc/u8g2_d_memory.c ****   static uint8_t buf[80];
 244:..\u8g2\csrc/u8g2_d_memory.c ****   *page_cnt = 1;
 622              		.loc 1 244 0
 623 0000 0123     		movs	r3, #1
 624 0002 0370     		strb	r3, [r0]
 245:..\u8g2\csrc/u8g2_d_memory.c ****   return buf;
 246:..\u8g2\csrc/u8g2_d_memory.c ****   #endif
 247:..\u8g2\csrc/u8g2_d_memory.c **** }
 625              		.loc 1 247 0
 626 0004 0048     		ldr	r0, .L65
 627              	.LVL43:
 628 0006 7047     		bx	lr
 629              	.L66:
 630              		.align	2
 631              	.L65:
 632 0008 383F0000 		.word	.LANCHOR3+3152
 633              		.cfi_endproc
 634              	.LFE21:
 635              		.size	u8g2_m_10_16_1, .-u8g2_m_10_16_1
 636              		.section	.text.u8g2_m_10_16_2,"ax",%progbits
 637              		.align	2
 638              		.global	u8g2_m_10_16_2
 639              		.thumb
 640              		.thumb_func
 641              		.type	u8g2_m_10_16_2, %function
 642              	u8g2_m_10_16_2:
 643              	.LFB22:
 248:..\u8g2\csrc/u8g2_d_memory.c **** uint8_t *u8g2_m_10_16_2(uint8_t *page_cnt)
 249:..\u8g2\csrc/u8g2_d_memory.c **** {
 644              		.loc 1 249 0
 645              		.cfi_startproc
 646              		@ args = 0, pretend = 0, frame = 0
 647              		@ frame_needed = 0, uses_anonymous_args = 0
 648              		@ link register save eliminated.
 649              	.LVL44:
 250:..\u8g2\csrc/u8g2_d_memory.c ****   #ifdef U8G2_USE_DYNAMIC_ALLOC
 251:..\u8g2\csrc/u8g2_d_memory.c ****   *page_cnt = 2;
 252:..\u8g2\csrc/u8g2_d_memory.c ****   return 0;
 253:..\u8g2\csrc/u8g2_d_memory.c ****   #else
 254:..\u8g2\csrc/u8g2_d_memory.c ****   static uint8_t buf[160];
 255:..\u8g2\csrc/u8g2_d_memory.c ****   *page_cnt = 2;
 650              		.loc 1 255 0
 651 0000 0223     		movs	r3, #2
 652 0002 0370     		strb	r3, [r0]
 256:..\u8g2\csrc/u8g2_d_memory.c ****   return buf;
 257:..\u8g2\csrc/u8g2_d_memory.c ****   #endif
 258:..\u8g2\csrc/u8g2_d_memory.c **** }
 653              		.loc 1 258 0
 654 0004 0048     		ldr	r0, .L68
ARM GAS  C:\Users\brian\AppData\Local\Temp\ccmYYpDh.s 			page 17


 655              	.LVL45:
 656 0006 7047     		bx	lr
 657              	.L69:
 658              		.align	2
 659              	.L68:
 660 0008 883F0000 		.word	.LANCHOR3+3232
 661              		.cfi_endproc
 662              	.LFE22:
 663              		.size	u8g2_m_10_16_2, .-u8g2_m_10_16_2
 664              		.section	.text.u8g2_m_10_16_f,"ax",%progbits
 665              		.align	2
 666              		.global	u8g2_m_10_16_f
 667              		.thumb
 668              		.thumb_func
 669              		.type	u8g2_m_10_16_f, %function
 670              	u8g2_m_10_16_f:
 671              	.LFB23:
 259:..\u8g2\csrc/u8g2_d_memory.c **** uint8_t *u8g2_m_10_16_f(uint8_t *page_cnt)
 260:..\u8g2\csrc/u8g2_d_memory.c **** {
 672              		.loc 1 260 0
 673              		.cfi_startproc
 674              		@ args = 0, pretend = 0, frame = 0
 675              		@ frame_needed = 0, uses_anonymous_args = 0
 676              		@ link register save eliminated.
 677              	.LVL46:
 261:..\u8g2\csrc/u8g2_d_memory.c ****   #ifdef U8G2_USE_DYNAMIC_ALLOC
 262:..\u8g2\csrc/u8g2_d_memory.c ****   *page_cnt = 16;
 263:..\u8g2\csrc/u8g2_d_memory.c ****   return 0;
 264:..\u8g2\csrc/u8g2_d_memory.c ****   #else
 265:..\u8g2\csrc/u8g2_d_memory.c ****   static uint8_t buf[1280];
 266:..\u8g2\csrc/u8g2_d_memory.c ****   *page_cnt = 16;
 678              		.loc 1 266 0
 679 0000 1023     		movs	r3, #16
 680 0002 0370     		strb	r3, [r0]
 267:..\u8g2\csrc/u8g2_d_memory.c ****   return buf;
 268:..\u8g2\csrc/u8g2_d_memory.c ****   #endif
 269:..\u8g2\csrc/u8g2_d_memory.c **** }
 681              		.loc 1 269 0
 682 0004 0048     		ldr	r0, .L71
 683              	.LVL47:
 684 0006 7047     		bx	lr
 685              	.L72:
 686              		.align	2
 687              	.L71:
 688 0008 28400000 		.word	.LANCHOR3+3392
 689              		.cfi_endproc
 690              	.LFE23:
 691              		.size	u8g2_m_10_16_f, .-u8g2_m_10_16_f
 692              		.section	.text.u8g2_m_16_16_1,"ax",%progbits
 693              		.align	2
 694              		.global	u8g2_m_16_16_1
 695              		.thumb
 696              		.thumb_func
 697              		.type	u8g2_m_16_16_1, %function
 698              	u8g2_m_16_16_1:
 699              	.LFB24:
 270:..\u8g2\csrc/u8g2_d_memory.c **** uint8_t *u8g2_m_16_16_1(uint8_t *page_cnt)
ARM GAS  C:\Users\brian\AppData\Local\Temp\ccmYYpDh.s 			page 18


 271:..\u8g2\csrc/u8g2_d_memory.c **** {
 700              		.loc 1 271 0
 701              		.cfi_startproc
 702              		@ args = 0, pretend = 0, frame = 0
 703              		@ frame_needed = 0, uses_anonymous_args = 0
 704              		@ link register save eliminated.
 705              	.LVL48:
 272:..\u8g2\csrc/u8g2_d_memory.c ****   #ifdef U8G2_USE_DYNAMIC_ALLOC
 273:..\u8g2\csrc/u8g2_d_memory.c ****   *page_cnt = 1;
 274:..\u8g2\csrc/u8g2_d_memory.c ****   return 0;
 275:..\u8g2\csrc/u8g2_d_memory.c ****   #else
 276:..\u8g2\csrc/u8g2_d_memory.c ****   static uint8_t buf[128];
 277:..\u8g2\csrc/u8g2_d_memory.c ****   *page_cnt = 1;
 706              		.loc 1 277 0
 707 0000 0123     		movs	r3, #1
 708 0002 0370     		strb	r3, [r0]
 278:..\u8g2\csrc/u8g2_d_memory.c ****   return buf;
 279:..\u8g2\csrc/u8g2_d_memory.c ****   #endif
 280:..\u8g2\csrc/u8g2_d_memory.c **** }
 709              		.loc 1 280 0
 710 0004 0048     		ldr	r0, .L74
 711              	.LVL49:
 712 0006 7047     		bx	lr
 713              	.L75:
 714              		.align	2
 715              	.L74:
 716 0008 28450000 		.word	.LANCHOR4+328
 717              		.cfi_endproc
 718              	.LFE24:
 719              		.size	u8g2_m_16_16_1, .-u8g2_m_16_16_1
 720              		.section	.text.u8g2_m_16_16_2,"ax",%progbits
 721              		.align	2
 722              		.global	u8g2_m_16_16_2
 723              		.thumb
 724              		.thumb_func
 725              		.type	u8g2_m_16_16_2, %function
 726              	u8g2_m_16_16_2:
 727              	.LFB25:
 281:..\u8g2\csrc/u8g2_d_memory.c **** uint8_t *u8g2_m_16_16_2(uint8_t *page_cnt)
 282:..\u8g2\csrc/u8g2_d_memory.c **** {
 728              		.loc 1 282 0
 729              		.cfi_startproc
 730              		@ args = 0, pretend = 0, frame = 0
 731              		@ frame_needed = 0, uses_anonymous_args = 0
 732              		@ link register save eliminated.
 733              	.LVL50:
 283:..\u8g2\csrc/u8g2_d_memory.c ****   #ifdef U8G2_USE_DYNAMIC_ALLOC
 284:..\u8g2\csrc/u8g2_d_memory.c ****   *page_cnt = 2;
 285:..\u8g2\csrc/u8g2_d_memory.c ****   return 0;
 286:..\u8g2\csrc/u8g2_d_memory.c ****   #else
 287:..\u8g2\csrc/u8g2_d_memory.c ****   static uint8_t buf[256];
 288:..\u8g2\csrc/u8g2_d_memory.c ****   *page_cnt = 2;
 734              		.loc 1 288 0
 735 0000 0223     		movs	r3, #2
 736 0002 0370     		strb	r3, [r0]
 289:..\u8g2\csrc/u8g2_d_memory.c ****   return buf;
 290:..\u8g2\csrc/u8g2_d_memory.c ****   #endif
ARM GAS  C:\Users\brian\AppData\Local\Temp\ccmYYpDh.s 			page 19


 291:..\u8g2\csrc/u8g2_d_memory.c **** }
 737              		.loc 1 291 0
 738 0004 0048     		ldr	r0, .L77
 739              	.LVL51:
 740 0006 7047     		bx	lr
 741              	.L78:
 742              		.align	2
 743              	.L77:
 744 0008 A8450000 		.word	.LANCHOR4+456
 745              		.cfi_endproc
 746              	.LFE25:
 747              		.size	u8g2_m_16_16_2, .-u8g2_m_16_16_2
 748              		.section	.text.u8g2_m_16_16_f,"ax",%progbits
 749              		.align	2
 750              		.global	u8g2_m_16_16_f
 751              		.thumb
 752              		.thumb_func
 753              		.type	u8g2_m_16_16_f, %function
 754              	u8g2_m_16_16_f:
 755              	.LFB26:
 292:..\u8g2\csrc/u8g2_d_memory.c **** uint8_t *u8g2_m_16_16_f(uint8_t *page_cnt)
 293:..\u8g2\csrc/u8g2_d_memory.c **** {
 756              		.loc 1 293 0
 757              		.cfi_startproc
 758              		@ args = 0, pretend = 0, frame = 0
 759              		@ frame_needed = 0, uses_anonymous_args = 0
 760              		@ link register save eliminated.
 761              	.LVL52:
 294:..\u8g2\csrc/u8g2_d_memory.c ****   #ifdef U8G2_USE_DYNAMIC_ALLOC
 295:..\u8g2\csrc/u8g2_d_memory.c ****   *page_cnt = 16;
 296:..\u8g2\csrc/u8g2_d_memory.c ****   return 0;
 297:..\u8g2\csrc/u8g2_d_memory.c ****   #else
 298:..\u8g2\csrc/u8g2_d_memory.c ****   static uint8_t buf[2048];
 299:..\u8g2\csrc/u8g2_d_memory.c ****   *page_cnt = 16;
 762              		.loc 1 299 0
 763 0000 1023     		movs	r3, #16
 764 0002 0370     		strb	r3, [r0]
 300:..\u8g2\csrc/u8g2_d_memory.c ****   return buf;
 301:..\u8g2\csrc/u8g2_d_memory.c ****   #endif
 302:..\u8g2\csrc/u8g2_d_memory.c **** }
 765              		.loc 1 302 0
 766 0004 0048     		ldr	r0, .L80
 767              	.LVL53:
 768 0006 7047     		bx	lr
 769              	.L81:
 770              		.align	2
 771              	.L80:
 772 0008 A8460000 		.word	.LANCHOR4+712
 773              		.cfi_endproc
 774              	.LFE26:
 775              		.size	u8g2_m_16_16_f, .-u8g2_m_16_16_f
 776              		.section	.text.u8g2_m_20_20_1,"ax",%progbits
 777              		.align	2
 778              		.global	u8g2_m_20_20_1
 779              		.thumb
 780              		.thumb_func
 781              		.type	u8g2_m_20_20_1, %function
ARM GAS  C:\Users\brian\AppData\Local\Temp\ccmYYpDh.s 			page 20


 782              	u8g2_m_20_20_1:
 783              	.LFB27:
 303:..\u8g2\csrc/u8g2_d_memory.c **** uint8_t *u8g2_m_20_20_1(uint8_t *page_cnt)
 304:..\u8g2\csrc/u8g2_d_memory.c **** {
 784              		.loc 1 304 0
 785              		.cfi_startproc
 786              		@ args = 0, pretend = 0, frame = 0
 787              		@ frame_needed = 0, uses_anonymous_args = 0
 788              		@ link register save eliminated.
 789              	.LVL54:
 305:..\u8g2\csrc/u8g2_d_memory.c ****   #ifdef U8G2_USE_DYNAMIC_ALLOC
 306:..\u8g2\csrc/u8g2_d_memory.c ****   *page_cnt = 1;
 307:..\u8g2\csrc/u8g2_d_memory.c ****   return 0;
 308:..\u8g2\csrc/u8g2_d_memory.c ****   #else
 309:..\u8g2\csrc/u8g2_d_memory.c ****   static uint8_t buf[160];
 310:..\u8g2\csrc/u8g2_d_memory.c ****   *page_cnt = 1;
 790              		.loc 1 310 0
 791 0000 0123     		movs	r3, #1
 792 0002 0370     		strb	r3, [r0]
 311:..\u8g2\csrc/u8g2_d_memory.c ****   return buf;
 312:..\u8g2\csrc/u8g2_d_memory.c ****   #endif
 313:..\u8g2\csrc/u8g2_d_memory.c **** }
 793              		.loc 1 313 0
 794 0004 0048     		ldr	r0, .L83
 795              	.LVL55:
 796 0006 7047     		bx	lr
 797              	.L84:
 798              		.align	2
 799              	.L83:
 800 0008 A84E0000 		.word	.LANCHOR4+2760
 801              		.cfi_endproc
 802              	.LFE27:
 803              		.size	u8g2_m_20_20_1, .-u8g2_m_20_20_1
 804              		.section	.text.u8g2_m_20_20_2,"ax",%progbits
 805              		.align	2
 806              		.global	u8g2_m_20_20_2
 807              		.thumb
 808              		.thumb_func
 809              		.type	u8g2_m_20_20_2, %function
 810              	u8g2_m_20_20_2:
 811              	.LFB28:
 314:..\u8g2\csrc/u8g2_d_memory.c **** uint8_t *u8g2_m_20_20_2(uint8_t *page_cnt)
 315:..\u8g2\csrc/u8g2_d_memory.c **** {
 812              		.loc 1 315 0
 813              		.cfi_startproc
 814              		@ args = 0, pretend = 0, frame = 0
 815              		@ frame_needed = 0, uses_anonymous_args = 0
 816              		@ link register save eliminated.
 817              	.LVL56:
 316:..\u8g2\csrc/u8g2_d_memory.c ****   #ifdef U8G2_USE_DYNAMIC_ALLOC
 317:..\u8g2\csrc/u8g2_d_memory.c ****   *page_cnt = 2;
 318:..\u8g2\csrc/u8g2_d_memory.c ****   return 0;
 319:..\u8g2\csrc/u8g2_d_memory.c ****   #else
 320:..\u8g2\csrc/u8g2_d_memory.c ****   static uint8_t buf[320];
 321:..\u8g2\csrc/u8g2_d_memory.c ****   *page_cnt = 2;
 818              		.loc 1 321 0
 819 0000 0223     		movs	r3, #2
ARM GAS  C:\Users\brian\AppData\Local\Temp\ccmYYpDh.s 			page 21


 820 0002 0370     		strb	r3, [r0]
 322:..\u8g2\csrc/u8g2_d_memory.c ****   return buf;
 323:..\u8g2\csrc/u8g2_d_memory.c ****   #endif
 324:..\u8g2\csrc/u8g2_d_memory.c **** }
 821              		.loc 1 324 0
 822 0004 0048     		ldr	r0, .L86
 823              	.LVL57:
 824 0006 7047     		bx	lr
 825              	.L87:
 826              		.align	2
 827              	.L86:
 828 0008 484F0000 		.word	.LANCHOR4+2920
 829              		.cfi_endproc
 830              	.LFE28:
 831              		.size	u8g2_m_20_20_2, .-u8g2_m_20_20_2
 832              		.section	.text.u8g2_m_20_20_f,"ax",%progbits
 833              		.align	2
 834              		.global	u8g2_m_20_20_f
 835              		.thumb
 836              		.thumb_func
 837              		.type	u8g2_m_20_20_f, %function
 838              	u8g2_m_20_20_f:
 839              	.LFB29:
 325:..\u8g2\csrc/u8g2_d_memory.c **** uint8_t *u8g2_m_20_20_f(uint8_t *page_cnt)
 326:..\u8g2\csrc/u8g2_d_memory.c **** {
 840              		.loc 1 326 0
 841              		.cfi_startproc
 842              		@ args = 0, pretend = 0, frame = 0
 843              		@ frame_needed = 0, uses_anonymous_args = 0
 844              		@ link register save eliminated.
 845              	.LVL58:
 327:..\u8g2\csrc/u8g2_d_memory.c ****   #ifdef U8G2_USE_DYNAMIC_ALLOC
 328:..\u8g2\csrc/u8g2_d_memory.c ****   *page_cnt = 20;
 329:..\u8g2\csrc/u8g2_d_memory.c ****   return 0;
 330:..\u8g2\csrc/u8g2_d_memory.c ****   #else
 331:..\u8g2\csrc/u8g2_d_memory.c ****   static uint8_t buf[3200];
 332:..\u8g2\csrc/u8g2_d_memory.c ****   *page_cnt = 20;
 846              		.loc 1 332 0
 847 0000 1423     		movs	r3, #20
 848 0002 0370     		strb	r3, [r0]
 333:..\u8g2\csrc/u8g2_d_memory.c ****   return buf;
 334:..\u8g2\csrc/u8g2_d_memory.c ****   #endif
 335:..\u8g2\csrc/u8g2_d_memory.c **** }
 849              		.loc 1 335 0
 850 0004 0048     		ldr	r0, .L89
 851              	.LVL59:
 852 0006 7047     		bx	lr
 853              	.L90:
 854              		.align	2
 855              	.L89:
 856 0008 88500000 		.word	.LANCHOR4+3240
 857              		.cfi_endproc
 858              	.LFE29:
 859              		.size	u8g2_m_20_20_f, .-u8g2_m_20_20_f
 860              		.section	.text.u8g2_m_32_8_1,"ax",%progbits
 861              		.align	2
 862              		.global	u8g2_m_32_8_1
ARM GAS  C:\Users\brian\AppData\Local\Temp\ccmYYpDh.s 			page 22


 863              		.thumb
 864              		.thumb_func
 865              		.type	u8g2_m_32_8_1, %function
 866              	u8g2_m_32_8_1:
 867              	.LFB30:
 336:..\u8g2\csrc/u8g2_d_memory.c **** uint8_t *u8g2_m_32_8_1(uint8_t *page_cnt)
 337:..\u8g2\csrc/u8g2_d_memory.c **** {
 868              		.loc 1 337 0
 869              		.cfi_startproc
 870              		@ args = 0, pretend = 0, frame = 0
 871              		@ frame_needed = 0, uses_anonymous_args = 0
 872              		@ link register save eliminated.
 873              	.LVL60:
 338:..\u8g2\csrc/u8g2_d_memory.c ****   #ifdef U8G2_USE_DYNAMIC_ALLOC
 339:..\u8g2\csrc/u8g2_d_memory.c ****   *page_cnt = 1;
 340:..\u8g2\csrc/u8g2_d_memory.c ****   return 0;
 341:..\u8g2\csrc/u8g2_d_memory.c ****   #else
 342:..\u8g2\csrc/u8g2_d_memory.c ****   static uint8_t buf[256];
 343:..\u8g2\csrc/u8g2_d_memory.c ****   *page_cnt = 1;
 874              		.loc 1 343 0
 875 0000 0123     		movs	r3, #1
 876 0002 0370     		strb	r3, [r0]
 344:..\u8g2\csrc/u8g2_d_memory.c ****   return buf;
 345:..\u8g2\csrc/u8g2_d_memory.c ****   #endif
 346:..\u8g2\csrc/u8g2_d_memory.c **** }
 877              		.loc 1 346 0
 878 0004 0048     		ldr	r0, .L92
 879              	.LVL61:
 880 0006 7047     		bx	lr
 881              	.L93:
 882              		.align	2
 883              	.L92:
 884 0008 085D0000 		.word	.LANCHOR5+2096
 885              		.cfi_endproc
 886              	.LFE30:
 887              		.size	u8g2_m_32_8_1, .-u8g2_m_32_8_1
 888              		.section	.text.u8g2_m_32_8_2,"ax",%progbits
 889              		.align	2
 890              		.global	u8g2_m_32_8_2
 891              		.thumb
 892              		.thumb_func
 893              		.type	u8g2_m_32_8_2, %function
 894              	u8g2_m_32_8_2:
 895              	.LFB31:
 347:..\u8g2\csrc/u8g2_d_memory.c **** uint8_t *u8g2_m_32_8_2(uint8_t *page_cnt)
 348:..\u8g2\csrc/u8g2_d_memory.c **** {
 896              		.loc 1 348 0
 897              		.cfi_startproc
 898              		@ args = 0, pretend = 0, frame = 0
 899              		@ frame_needed = 0, uses_anonymous_args = 0
 900              		@ link register save eliminated.
 901              	.LVL62:
 349:..\u8g2\csrc/u8g2_d_memory.c ****   #ifdef U8G2_USE_DYNAMIC_ALLOC
 350:..\u8g2\csrc/u8g2_d_memory.c ****   *page_cnt = 2;
 351:..\u8g2\csrc/u8g2_d_memory.c ****   return 0;
 352:..\u8g2\csrc/u8g2_d_memory.c ****   #else
 353:..\u8g2\csrc/u8g2_d_memory.c ****   static uint8_t buf[512];
ARM GAS  C:\Users\brian\AppData\Local\Temp\ccmYYpDh.s 			page 23


 354:..\u8g2\csrc/u8g2_d_memory.c ****   *page_cnt = 2;
 902              		.loc 1 354 0
 903 0000 0223     		movs	r3, #2
 904 0002 0370     		strb	r3, [r0]
 355:..\u8g2\csrc/u8g2_d_memory.c ****   return buf;
 356:..\u8g2\csrc/u8g2_d_memory.c ****   #endif
 357:..\u8g2\csrc/u8g2_d_memory.c **** }
 905              		.loc 1 357 0
 906 0004 0048     		ldr	r0, .L95
 907              	.LVL63:
 908 0006 7047     		bx	lr
 909              	.L96:
 910              		.align	2
 911              	.L95:
 912 0008 085E0000 		.word	.LANCHOR5+2352
 913              		.cfi_endproc
 914              	.LFE31:
 915              		.size	u8g2_m_32_8_2, .-u8g2_m_32_8_2
 916              		.section	.text.u8g2_m_32_8_f,"ax",%progbits
 917              		.align	2
 918              		.global	u8g2_m_32_8_f
 919              		.thumb
 920              		.thumb_func
 921              		.type	u8g2_m_32_8_f, %function
 922              	u8g2_m_32_8_f:
 923              	.LFB32:
 358:..\u8g2\csrc/u8g2_d_memory.c **** uint8_t *u8g2_m_32_8_f(uint8_t *page_cnt)
 359:..\u8g2\csrc/u8g2_d_memory.c **** {
 924              		.loc 1 359 0
 925              		.cfi_startproc
 926              		@ args = 0, pretend = 0, frame = 0
 927              		@ frame_needed = 0, uses_anonymous_args = 0
 928              		@ link register save eliminated.
 929              	.LVL64:
 360:..\u8g2\csrc/u8g2_d_memory.c ****   #ifdef U8G2_USE_DYNAMIC_ALLOC
 361:..\u8g2\csrc/u8g2_d_memory.c ****   *page_cnt = 8;
 362:..\u8g2\csrc/u8g2_d_memory.c ****   return 0;
 363:..\u8g2\csrc/u8g2_d_memory.c ****   #else
 364:..\u8g2\csrc/u8g2_d_memory.c ****   static uint8_t buf[2048];
 365:..\u8g2\csrc/u8g2_d_memory.c ****   *page_cnt = 8;
 930              		.loc 1 365 0
 931 0000 0823     		movs	r3, #8
 932 0002 0370     		strb	r3, [r0]
 366:..\u8g2\csrc/u8g2_d_memory.c ****   return buf;
 367:..\u8g2\csrc/u8g2_d_memory.c ****   #endif
 368:..\u8g2\csrc/u8g2_d_memory.c **** }
 933              		.loc 1 368 0
 934 0004 0048     		ldr	r0, .L98
 935              	.LVL65:
 936 0006 7047     		bx	lr
 937              	.L99:
 938              		.align	2
 939              	.L98:
 940 0008 08600000 		.word	.LANCHOR5+2864
 941              		.cfi_endproc
 942              	.LFE32:
 943              		.size	u8g2_m_32_8_f, .-u8g2_m_32_8_f
ARM GAS  C:\Users\brian\AppData\Local\Temp\ccmYYpDh.s 			page 24


 944              		.section	.text.u8g2_m_13_8_1,"ax",%progbits
 945              		.align	2
 946              		.global	u8g2_m_13_8_1
 947              		.thumb
 948              		.thumb_func
 949              		.type	u8g2_m_13_8_1, %function
 950              	u8g2_m_13_8_1:
 951              	.LFB33:
 369:..\u8g2\csrc/u8g2_d_memory.c **** uint8_t *u8g2_m_13_8_1(uint8_t *page_cnt)
 370:..\u8g2\csrc/u8g2_d_memory.c **** {
 952              		.loc 1 370 0
 953              		.cfi_startproc
 954              		@ args = 0, pretend = 0, frame = 0
 955              		@ frame_needed = 0, uses_anonymous_args = 0
 956              		@ link register save eliminated.
 957              	.LVL66:
 371:..\u8g2\csrc/u8g2_d_memory.c ****   #ifdef U8G2_USE_DYNAMIC_ALLOC
 372:..\u8g2\csrc/u8g2_d_memory.c ****   *page_cnt = 1;
 373:..\u8g2\csrc/u8g2_d_memory.c ****   return 0;
 374:..\u8g2\csrc/u8g2_d_memory.c ****   #else
 375:..\u8g2\csrc/u8g2_d_memory.c ****   static uint8_t buf[104];
 376:..\u8g2\csrc/u8g2_d_memory.c ****   *page_cnt = 1;
 958              		.loc 1 376 0
 959 0000 0123     		movs	r3, #1
 960 0002 0370     		strb	r3, [r0]
 377:..\u8g2\csrc/u8g2_d_memory.c ****   return buf;
 378:..\u8g2\csrc/u8g2_d_memory.c ****   #endif
 379:..\u8g2\csrc/u8g2_d_memory.c **** }
 961              		.loc 1 379 0
 962 0004 0048     		ldr	r0, .L101
 963              	.LVL67:
 964 0006 7047     		bx	lr
 965              	.L102:
 966              		.align	2
 967              	.L101:
 968 0008 08680000 		.word	.LANCHOR6+568
 969              		.cfi_endproc
 970              	.LFE33:
 971              		.size	u8g2_m_13_8_1, .-u8g2_m_13_8_1
 972              		.section	.text.u8g2_m_13_8_2,"ax",%progbits
 973              		.align	2
 974              		.global	u8g2_m_13_8_2
 975              		.thumb
 976              		.thumb_func
 977              		.type	u8g2_m_13_8_2, %function
 978              	u8g2_m_13_8_2:
 979              	.LFB34:
 380:..\u8g2\csrc/u8g2_d_memory.c **** uint8_t *u8g2_m_13_8_2(uint8_t *page_cnt)
 381:..\u8g2\csrc/u8g2_d_memory.c **** {
 980              		.loc 1 381 0
 981              		.cfi_startproc
 982              		@ args = 0, pretend = 0, frame = 0
 983              		@ frame_needed = 0, uses_anonymous_args = 0
 984              		@ link register save eliminated.
 985              	.LVL68:
 382:..\u8g2\csrc/u8g2_d_memory.c ****   #ifdef U8G2_USE_DYNAMIC_ALLOC
 383:..\u8g2\csrc/u8g2_d_memory.c ****   *page_cnt = 2;
ARM GAS  C:\Users\brian\AppData\Local\Temp\ccmYYpDh.s 			page 25


 384:..\u8g2\csrc/u8g2_d_memory.c ****   return 0;
 385:..\u8g2\csrc/u8g2_d_memory.c ****   #else
 386:..\u8g2\csrc/u8g2_d_memory.c ****   static uint8_t buf[208];
 387:..\u8g2\csrc/u8g2_d_memory.c ****   *page_cnt = 2;
 986              		.loc 1 387 0
 987 0000 0223     		movs	r3, #2
 988 0002 0370     		strb	r3, [r0]
 388:..\u8g2\csrc/u8g2_d_memory.c ****   return buf;
 389:..\u8g2\csrc/u8g2_d_memory.c ****   #endif
 390:..\u8g2\csrc/u8g2_d_memory.c **** }
 989              		.loc 1 390 0
 990 0004 0048     		ldr	r0, .L104
 991              	.LVL69:
 992 0006 7047     		bx	lr
 993              	.L105:
 994              		.align	2
 995              	.L104:
 996 0008 70680000 		.word	.LANCHOR6+672
 997              		.cfi_endproc
 998              	.LFE34:
 999              		.size	u8g2_m_13_8_2, .-u8g2_m_13_8_2
 1000              		.section	.text.u8g2_m_13_8_f,"ax",%progbits
 1001              		.align	2
 1002              		.global	u8g2_m_13_8_f
 1003              		.thumb
 1004              		.thumb_func
 1005              		.type	u8g2_m_13_8_f, %function
 1006              	u8g2_m_13_8_f:
 1007              	.LFB35:
 391:..\u8g2\csrc/u8g2_d_memory.c **** uint8_t *u8g2_m_13_8_f(uint8_t *page_cnt)
 392:..\u8g2\csrc/u8g2_d_memory.c **** {
 1008              		.loc 1 392 0
 1009              		.cfi_startproc
 1010              		@ args = 0, pretend = 0, frame = 0
 1011              		@ frame_needed = 0, uses_anonymous_args = 0
 1012              		@ link register save eliminated.
 1013              	.LVL70:
 393:..\u8g2\csrc/u8g2_d_memory.c ****   #ifdef U8G2_USE_DYNAMIC_ALLOC
 394:..\u8g2\csrc/u8g2_d_memory.c ****   *page_cnt = 8;
 395:..\u8g2\csrc/u8g2_d_memory.c ****   return 0;
 396:..\u8g2\csrc/u8g2_d_memory.c ****   #else
 397:..\u8g2\csrc/u8g2_d_memory.c ****   static uint8_t buf[832];
 398:..\u8g2\csrc/u8g2_d_memory.c ****   *page_cnt = 8;
 1014              		.loc 1 398 0
 1015 0000 0823     		movs	r3, #8
 1016 0002 0370     		strb	r3, [r0]
 399:..\u8g2\csrc/u8g2_d_memory.c ****   return buf;
 400:..\u8g2\csrc/u8g2_d_memory.c ****   #endif
 401:..\u8g2\csrc/u8g2_d_memory.c **** }
 1017              		.loc 1 401 0
 1018 0004 0048     		ldr	r0, .L107
 1019              	.LVL71:
 1020 0006 7047     		bx	lr
 1021              	.L108:
 1022              		.align	2
 1023              	.L107:
 1024 0008 40690000 		.word	.LANCHOR6+880
ARM GAS  C:\Users\brian\AppData\Local\Temp\ccmYYpDh.s 			page 26


 1025              		.cfi_endproc
 1026              	.LFE35:
 1027              		.size	u8g2_m_13_8_f, .-u8g2_m_13_8_f
 1028              		.section	.text.u8g2_m_8_6_1,"ax",%progbits
 1029              		.align	2
 1030              		.global	u8g2_m_8_6_1
 1031              		.thumb
 1032              		.thumb_func
 1033              		.type	u8g2_m_8_6_1, %function
 1034              	u8g2_m_8_6_1:
 1035              	.LFB36:
 402:..\u8g2\csrc/u8g2_d_memory.c **** uint8_t *u8g2_m_8_6_1(uint8_t *page_cnt)
 403:..\u8g2\csrc/u8g2_d_memory.c **** {
 1036              		.loc 1 403 0
 1037              		.cfi_startproc
 1038              		@ args = 0, pretend = 0, frame = 0
 1039              		@ frame_needed = 0, uses_anonymous_args = 0
 1040              		@ link register save eliminated.
 1041              	.LVL72:
 404:..\u8g2\csrc/u8g2_d_memory.c ****   #ifdef U8G2_USE_DYNAMIC_ALLOC
 405:..\u8g2\csrc/u8g2_d_memory.c ****   *page_cnt = 1;
 406:..\u8g2\csrc/u8g2_d_memory.c ****   return 0;
 407:..\u8g2\csrc/u8g2_d_memory.c ****   #else
 408:..\u8g2\csrc/u8g2_d_memory.c ****   static uint8_t buf[64];
 409:..\u8g2\csrc/u8g2_d_memory.c ****   *page_cnt = 1;
 1042              		.loc 1 409 0
 1043 0000 0123     		movs	r3, #1
 1044 0002 0370     		strb	r3, [r0]
 410:..\u8g2\csrc/u8g2_d_memory.c ****   return buf;
 411:..\u8g2\csrc/u8g2_d_memory.c ****   #endif
 412:..\u8g2\csrc/u8g2_d_memory.c **** }
 1045              		.loc 1 412 0
 1046 0004 0048     		ldr	r0, .L110
 1047              	.LVL73:
 1048 0006 7047     		bx	lr
 1049              	.L111:
 1050              		.align	2
 1051              	.L110:
 1052 0008 806C0000 		.word	.LANCHOR6+1712
 1053              		.cfi_endproc
 1054              	.LFE36:
 1055              		.size	u8g2_m_8_6_1, .-u8g2_m_8_6_1
 1056              		.section	.text.u8g2_m_8_6_2,"ax",%progbits
 1057              		.align	2
 1058              		.global	u8g2_m_8_6_2
 1059              		.thumb
 1060              		.thumb_func
 1061              		.type	u8g2_m_8_6_2, %function
 1062              	u8g2_m_8_6_2:
 1063              	.LFB37:
 413:..\u8g2\csrc/u8g2_d_memory.c **** uint8_t *u8g2_m_8_6_2(uint8_t *page_cnt)
 414:..\u8g2\csrc/u8g2_d_memory.c **** {
 1064              		.loc 1 414 0
 1065              		.cfi_startproc
 1066              		@ args = 0, pretend = 0, frame = 0
 1067              		@ frame_needed = 0, uses_anonymous_args = 0
 1068              		@ link register save eliminated.
ARM GAS  C:\Users\brian\AppData\Local\Temp\ccmYYpDh.s 			page 27


 1069              	.LVL74:
 415:..\u8g2\csrc/u8g2_d_memory.c ****   #ifdef U8G2_USE_DYNAMIC_ALLOC
 416:..\u8g2\csrc/u8g2_d_memory.c ****   *page_cnt = 2;
 417:..\u8g2\csrc/u8g2_d_memory.c ****   return 0;
 418:..\u8g2\csrc/u8g2_d_memory.c ****   #else
 419:..\u8g2\csrc/u8g2_d_memory.c ****   static uint8_t buf[128];
 420:..\u8g2\csrc/u8g2_d_memory.c ****   *page_cnt = 2;
 1070              		.loc 1 420 0
 1071 0000 0223     		movs	r3, #2
 1072 0002 0370     		strb	r3, [r0]
 421:..\u8g2\csrc/u8g2_d_memory.c ****   return buf;
 422:..\u8g2\csrc/u8g2_d_memory.c ****   #endif
 423:..\u8g2\csrc/u8g2_d_memory.c **** }
 1073              		.loc 1 423 0
 1074 0004 0048     		ldr	r0, .L113
 1075              	.LVL75:
 1076 0006 7047     		bx	lr
 1077              	.L114:
 1078              		.align	2
 1079              	.L113:
 1080 0008 C06C0000 		.word	.LANCHOR6+1776
 1081              		.cfi_endproc
 1082              	.LFE37:
 1083              		.size	u8g2_m_8_6_2, .-u8g2_m_8_6_2
 1084              		.section	.text.u8g2_m_8_6_f,"ax",%progbits
 1085              		.align	2
 1086              		.global	u8g2_m_8_6_f
 1087              		.thumb
 1088              		.thumb_func
 1089              		.type	u8g2_m_8_6_f, %function
 1090              	u8g2_m_8_6_f:
 1091              	.LFB38:
 424:..\u8g2\csrc/u8g2_d_memory.c **** uint8_t *u8g2_m_8_6_f(uint8_t *page_cnt)
 425:..\u8g2\csrc/u8g2_d_memory.c **** {
 1092              		.loc 1 425 0
 1093              		.cfi_startproc
 1094              		@ args = 0, pretend = 0, frame = 0
 1095              		@ frame_needed = 0, uses_anonymous_args = 0
 1096              		@ link register save eliminated.
 1097              	.LVL76:
 426:..\u8g2\csrc/u8g2_d_memory.c ****   #ifdef U8G2_USE_DYNAMIC_ALLOC
 427:..\u8g2\csrc/u8g2_d_memory.c ****   *page_cnt = 6;
 428:..\u8g2\csrc/u8g2_d_memory.c ****   return 0;
 429:..\u8g2\csrc/u8g2_d_memory.c ****   #else
 430:..\u8g2\csrc/u8g2_d_memory.c ****   static uint8_t buf[384];
 431:..\u8g2\csrc/u8g2_d_memory.c ****   *page_cnt = 6;
 1098              		.loc 1 431 0
 1099 0000 0623     		movs	r3, #6
 1100 0002 0370     		strb	r3, [r0]
 432:..\u8g2\csrc/u8g2_d_memory.c ****   return buf;
 433:..\u8g2\csrc/u8g2_d_memory.c ****   #endif
 434:..\u8g2\csrc/u8g2_d_memory.c **** }
 1101              		.loc 1 434 0
 1102 0004 0048     		ldr	r0, .L116
 1103              	.LVL77:
 1104 0006 7047     		bx	lr
 1105              	.L117:
ARM GAS  C:\Users\brian\AppData\Local\Temp\ccmYYpDh.s 			page 28


 1106              		.align	2
 1107              	.L116:
 1108 0008 406D0000 		.word	.LANCHOR6+1904
 1109              		.cfi_endproc
 1110              	.LFE38:
 1111              		.size	u8g2_m_8_6_f, .-u8g2_m_8_6_f
 1112              		.section	.text.u8g2_m_6_8_1,"ax",%progbits
 1113              		.align	2
 1114              		.global	u8g2_m_6_8_1
 1115              		.thumb
 1116              		.thumb_func
 1117              		.type	u8g2_m_6_8_1, %function
 1118              	u8g2_m_6_8_1:
 1119              	.LFB39:
 435:..\u8g2\csrc/u8g2_d_memory.c **** uint8_t *u8g2_m_6_8_1(uint8_t *page_cnt)
 436:..\u8g2\csrc/u8g2_d_memory.c **** {
 1120              		.loc 1 436 0
 1121              		.cfi_startproc
 1122              		@ args = 0, pretend = 0, frame = 0
 1123              		@ frame_needed = 0, uses_anonymous_args = 0
 1124              		@ link register save eliminated.
 1125              	.LVL78:
 437:..\u8g2\csrc/u8g2_d_memory.c ****   #ifdef U8G2_USE_DYNAMIC_ALLOC
 438:..\u8g2\csrc/u8g2_d_memory.c ****   *page_cnt = 1;
 439:..\u8g2\csrc/u8g2_d_memory.c ****   return 0;
 440:..\u8g2\csrc/u8g2_d_memory.c ****   #else
 441:..\u8g2\csrc/u8g2_d_memory.c ****   static uint8_t buf[48];
 442:..\u8g2\csrc/u8g2_d_memory.c ****   *page_cnt = 1;
 1126              		.loc 1 442 0
 1127 0000 0123     		movs	r3, #1
 1128 0002 0370     		strb	r3, [r0]
 443:..\u8g2\csrc/u8g2_d_memory.c ****   return buf;
 444:..\u8g2\csrc/u8g2_d_memory.c ****   #endif
 445:..\u8g2\csrc/u8g2_d_memory.c **** }
 1129              		.loc 1 445 0
 1130 0004 0048     		ldr	r0, .L119
 1131              	.LVL79:
 1132 0006 7047     		bx	lr
 1133              	.L120:
 1134              		.align	2
 1135              	.L119:
 1136 0008 C06E0000 		.word	.LANCHOR6+2288
 1137              		.cfi_endproc
 1138              	.LFE39:
 1139              		.size	u8g2_m_6_8_1, .-u8g2_m_6_8_1
 1140              		.section	.text.u8g2_m_6_8_2,"ax",%progbits
 1141              		.align	2
 1142              		.global	u8g2_m_6_8_2
 1143              		.thumb
 1144              		.thumb_func
 1145              		.type	u8g2_m_6_8_2, %function
 1146              	u8g2_m_6_8_2:
 1147              	.LFB40:
 446:..\u8g2\csrc/u8g2_d_memory.c **** uint8_t *u8g2_m_6_8_2(uint8_t *page_cnt)
 447:..\u8g2\csrc/u8g2_d_memory.c **** {
 1148              		.loc 1 447 0
 1149              		.cfi_startproc
ARM GAS  C:\Users\brian\AppData\Local\Temp\ccmYYpDh.s 			page 29


 1150              		@ args = 0, pretend = 0, frame = 0
 1151              		@ frame_needed = 0, uses_anonymous_args = 0
 1152              		@ link register save eliminated.
 1153              	.LVL80:
 448:..\u8g2\csrc/u8g2_d_memory.c ****   #ifdef U8G2_USE_DYNAMIC_ALLOC
 449:..\u8g2\csrc/u8g2_d_memory.c ****   *page_cnt = 2;
 450:..\u8g2\csrc/u8g2_d_memory.c ****   return 0;
 451:..\u8g2\csrc/u8g2_d_memory.c ****   #else
 452:..\u8g2\csrc/u8g2_d_memory.c ****   static uint8_t buf[96];
 453:..\u8g2\csrc/u8g2_d_memory.c ****   *page_cnt = 2;
 1154              		.loc 1 453 0
 1155 0000 0223     		movs	r3, #2
 1156 0002 0370     		strb	r3, [r0]
 454:..\u8g2\csrc/u8g2_d_memory.c ****   return buf;
 455:..\u8g2\csrc/u8g2_d_memory.c ****   #endif
 456:..\u8g2\csrc/u8g2_d_memory.c **** }
 1157              		.loc 1 456 0
 1158 0004 0048     		ldr	r0, .L122
 1159              	.LVL81:
 1160 0006 7047     		bx	lr
 1161              	.L123:
 1162              		.align	2
 1163              	.L122:
 1164 0008 F06E0000 		.word	.LANCHOR6+2336
 1165              		.cfi_endproc
 1166              	.LFE40:
 1167              		.size	u8g2_m_6_8_2, .-u8g2_m_6_8_2
 1168              		.section	.text.u8g2_m_6_8_f,"ax",%progbits
 1169              		.align	2
 1170              		.global	u8g2_m_6_8_f
 1171              		.thumb
 1172              		.thumb_func
 1173              		.type	u8g2_m_6_8_f, %function
 1174              	u8g2_m_6_8_f:
 1175              	.LFB41:
 457:..\u8g2\csrc/u8g2_d_memory.c **** uint8_t *u8g2_m_6_8_f(uint8_t *page_cnt)
 458:..\u8g2\csrc/u8g2_d_memory.c **** {
 1176              		.loc 1 458 0
 1177              		.cfi_startproc
 1178              		@ args = 0, pretend = 0, frame = 0
 1179              		@ frame_needed = 0, uses_anonymous_args = 0
 1180              		@ link register save eliminated.
 1181              	.LVL82:
 459:..\u8g2\csrc/u8g2_d_memory.c ****   #ifdef U8G2_USE_DYNAMIC_ALLOC
 460:..\u8g2\csrc/u8g2_d_memory.c ****   *page_cnt = 8;
 461:..\u8g2\csrc/u8g2_d_memory.c ****   return 0;
 462:..\u8g2\csrc/u8g2_d_memory.c ****   #else
 463:..\u8g2\csrc/u8g2_d_memory.c ****   static uint8_t buf[384];
 464:..\u8g2\csrc/u8g2_d_memory.c ****   *page_cnt = 8;
 1182              		.loc 1 464 0
 1183 0000 0823     		movs	r3, #8
 1184 0002 0370     		strb	r3, [r0]
 465:..\u8g2\csrc/u8g2_d_memory.c ****   return buf;
 466:..\u8g2\csrc/u8g2_d_memory.c ****   #endif
 467:..\u8g2\csrc/u8g2_d_memory.c **** }
 1185              		.loc 1 467 0
 1186 0004 0048     		ldr	r0, .L125
ARM GAS  C:\Users\brian\AppData\Local\Temp\ccmYYpDh.s 			page 30


 1187              	.LVL83:
 1188 0006 7047     		bx	lr
 1189              	.L126:
 1190              		.align	2
 1191              	.L125:
 1192 0008 506F0000 		.word	.LANCHOR6+2432
 1193              		.cfi_endproc
 1194              	.LFE41:
 1195              		.size	u8g2_m_6_8_f, .-u8g2_m_6_8_f
 1196              		.section	.text.u8g2_m_12_2_1,"ax",%progbits
 1197              		.align	2
 1198              		.global	u8g2_m_12_2_1
 1199              		.thumb
 1200              		.thumb_func
 1201              		.type	u8g2_m_12_2_1, %function
 1202              	u8g2_m_12_2_1:
 1203              	.LFB42:
 468:..\u8g2\csrc/u8g2_d_memory.c **** uint8_t *u8g2_m_12_2_1(uint8_t *page_cnt)
 469:..\u8g2\csrc/u8g2_d_memory.c **** {
 1204              		.loc 1 469 0
 1205              		.cfi_startproc
 1206              		@ args = 0, pretend = 0, frame = 0
 1207              		@ frame_needed = 0, uses_anonymous_args = 0
 1208              		@ link register save eliminated.
 1209              	.LVL84:
 470:..\u8g2\csrc/u8g2_d_memory.c ****   #ifdef U8G2_USE_DYNAMIC_ALLOC
 471:..\u8g2\csrc/u8g2_d_memory.c ****   *page_cnt = 1;
 472:..\u8g2\csrc/u8g2_d_memory.c ****   return 0;
 473:..\u8g2\csrc/u8g2_d_memory.c ****   #else
 474:..\u8g2\csrc/u8g2_d_memory.c ****   static uint8_t buf[96];
 475:..\u8g2\csrc/u8g2_d_memory.c ****   *page_cnt = 1;
 1210              		.loc 1 475 0
 1211 0000 0123     		movs	r3, #1
 1212 0002 0370     		strb	r3, [r0]
 476:..\u8g2\csrc/u8g2_d_memory.c ****   return buf;
 477:..\u8g2\csrc/u8g2_d_memory.c ****   #endif
 478:..\u8g2\csrc/u8g2_d_memory.c **** }
 1213              		.loc 1 478 0
 1214 0004 0048     		ldr	r0, .L128
 1215              	.LVL85:
 1216 0006 7047     		bx	lr
 1217              	.L129:
 1218              		.align	2
 1219              	.L128:
 1220 0008 D0700000 		.word	.LANCHOR6+2816
 1221              		.cfi_endproc
 1222              	.LFE42:
 1223              		.size	u8g2_m_12_2_1, .-u8g2_m_12_2_1
 1224              		.section	.text.u8g2_m_12_2_2,"ax",%progbits
 1225              		.align	2
 1226              		.global	u8g2_m_12_2_2
 1227              		.thumb
 1228              		.thumb_func
 1229              		.type	u8g2_m_12_2_2, %function
 1230              	u8g2_m_12_2_2:
 1231              	.LFB43:
 479:..\u8g2\csrc/u8g2_d_memory.c **** uint8_t *u8g2_m_12_2_2(uint8_t *page_cnt)
ARM GAS  C:\Users\brian\AppData\Local\Temp\ccmYYpDh.s 			page 31


 480:..\u8g2\csrc/u8g2_d_memory.c **** {
 1232              		.loc 1 480 0
 1233              		.cfi_startproc
 1234              		@ args = 0, pretend = 0, frame = 0
 1235              		@ frame_needed = 0, uses_anonymous_args = 0
 1236              		@ link register save eliminated.
 1237              	.LVL86:
 481:..\u8g2\csrc/u8g2_d_memory.c ****   #ifdef U8G2_USE_DYNAMIC_ALLOC
 482:..\u8g2\csrc/u8g2_d_memory.c ****   *page_cnt = 2;
 483:..\u8g2\csrc/u8g2_d_memory.c ****   return 0;
 484:..\u8g2\csrc/u8g2_d_memory.c ****   #else
 485:..\u8g2\csrc/u8g2_d_memory.c ****   static uint8_t buf[192];
 486:..\u8g2\csrc/u8g2_d_memory.c ****   *page_cnt = 2;
 1238              		.loc 1 486 0
 1239 0000 0223     		movs	r3, #2
 1240 0002 0370     		strb	r3, [r0]
 487:..\u8g2\csrc/u8g2_d_memory.c ****   return buf;
 488:..\u8g2\csrc/u8g2_d_memory.c ****   #endif
 489:..\u8g2\csrc/u8g2_d_memory.c **** }
 1241              		.loc 1 489 0
 1242 0004 0048     		ldr	r0, .L131
 1243              	.LVL87:
 1244 0006 7047     		bx	lr
 1245              	.L132:
 1246              		.align	2
 1247              	.L131:
 1248 0008 30710000 		.word	.LANCHOR6+2912
 1249              		.cfi_endproc
 1250              	.LFE43:
 1251              		.size	u8g2_m_12_2_2, .-u8g2_m_12_2_2
 1252              		.section	.text.u8g2_m_12_2_f,"ax",%progbits
 1253              		.align	2
 1254              		.global	u8g2_m_12_2_f
 1255              		.thumb
 1256              		.thumb_func
 1257              		.type	u8g2_m_12_2_f, %function
 1258              	u8g2_m_12_2_f:
 1259              	.LFB44:
 490:..\u8g2\csrc/u8g2_d_memory.c **** uint8_t *u8g2_m_12_2_f(uint8_t *page_cnt)
 491:..\u8g2\csrc/u8g2_d_memory.c **** {
 1260              		.loc 1 491 0
 1261              		.cfi_startproc
 1262              		@ args = 0, pretend = 0, frame = 0
 1263              		@ frame_needed = 0, uses_anonymous_args = 0
 1264              		@ link register save eliminated.
 1265              	.LVL88:
 492:..\u8g2\csrc/u8g2_d_memory.c ****   #ifdef U8G2_USE_DYNAMIC_ALLOC
 493:..\u8g2\csrc/u8g2_d_memory.c ****   *page_cnt = 2;
 494:..\u8g2\csrc/u8g2_d_memory.c ****   return 0;
 495:..\u8g2\csrc/u8g2_d_memory.c ****   #else
 496:..\u8g2\csrc/u8g2_d_memory.c ****   static uint8_t buf[192];
 497:..\u8g2\csrc/u8g2_d_memory.c ****   *page_cnt = 2;
 1266              		.loc 1 497 0
 1267 0000 0223     		movs	r3, #2
 1268 0002 0370     		strb	r3, [r0]
 498:..\u8g2\csrc/u8g2_d_memory.c ****   return buf;
 499:..\u8g2\csrc/u8g2_d_memory.c ****   #endif
ARM GAS  C:\Users\brian\AppData\Local\Temp\ccmYYpDh.s 			page 32


 500:..\u8g2\csrc/u8g2_d_memory.c **** }
 1269              		.loc 1 500 0
 1270 0004 0048     		ldr	r0, .L134
 1271              	.LVL89:
 1272 0006 7047     		bx	lr
 1273              	.L135:
 1274              		.align	2
 1275              	.L134:
 1276 0008 F0710000 		.word	.LANCHOR6+3104
 1277              		.cfi_endproc
 1278              	.LFE44:
 1279              		.size	u8g2_m_12_2_f, .-u8g2_m_12_2_f
 1280              		.section	.text.u8g2_m_16_12_1,"ax",%progbits
 1281              		.align	2
 1282              		.global	u8g2_m_16_12_1
 1283              		.thumb
 1284              		.thumb_func
 1285              		.type	u8g2_m_16_12_1, %function
 1286              	u8g2_m_16_12_1:
 1287              	.LFB45:
 501:..\u8g2\csrc/u8g2_d_memory.c **** uint8_t *u8g2_m_16_12_1(uint8_t *page_cnt)
 502:..\u8g2\csrc/u8g2_d_memory.c **** {
 1288              		.loc 1 502 0
 1289              		.cfi_startproc
 1290              		@ args = 0, pretend = 0, frame = 0
 1291              		@ frame_needed = 0, uses_anonymous_args = 0
 1292              		@ link register save eliminated.
 1293              	.LVL90:
 503:..\u8g2\csrc/u8g2_d_memory.c ****   #ifdef U8G2_USE_DYNAMIC_ALLOC
 504:..\u8g2\csrc/u8g2_d_memory.c ****   *page_cnt = 1;
 505:..\u8g2\csrc/u8g2_d_memory.c ****   return 0;
 506:..\u8g2\csrc/u8g2_d_memory.c ****   #else
 507:..\u8g2\csrc/u8g2_d_memory.c ****   static uint8_t buf[128];
 508:..\u8g2\csrc/u8g2_d_memory.c ****   *page_cnt = 1;
 1294              		.loc 1 508 0
 1295 0000 0123     		movs	r3, #1
 1296 0002 0370     		strb	r3, [r0]
 509:..\u8g2\csrc/u8g2_d_memory.c ****   return buf;
 510:..\u8g2\csrc/u8g2_d_memory.c ****   #endif
 511:..\u8g2\csrc/u8g2_d_memory.c **** }
 1297              		.loc 1 511 0
 1298 0004 0048     		ldr	r0, .L137
 1299              	.LVL91:
 1300 0006 7047     		bx	lr
 1301              	.L138:
 1302              		.align	2
 1303              	.L137:
 1304 0008 B0720000 		.word	.LANCHOR6+3296
 1305              		.cfi_endproc
 1306              	.LFE45:
 1307              		.size	u8g2_m_16_12_1, .-u8g2_m_16_12_1
 1308              		.section	.text.u8g2_m_16_12_2,"ax",%progbits
 1309              		.align	2
 1310              		.global	u8g2_m_16_12_2
 1311              		.thumb
 1312              		.thumb_func
 1313              		.type	u8g2_m_16_12_2, %function
ARM GAS  C:\Users\brian\AppData\Local\Temp\ccmYYpDh.s 			page 33


 1314              	u8g2_m_16_12_2:
 1315              	.LFB46:
 512:..\u8g2\csrc/u8g2_d_memory.c **** uint8_t *u8g2_m_16_12_2(uint8_t *page_cnt)
 513:..\u8g2\csrc/u8g2_d_memory.c **** {
 1316              		.loc 1 513 0
 1317              		.cfi_startproc
 1318              		@ args = 0, pretend = 0, frame = 0
 1319              		@ frame_needed = 0, uses_anonymous_args = 0
 1320              		@ link register save eliminated.
 1321              	.LVL92:
 514:..\u8g2\csrc/u8g2_d_memory.c ****   #ifdef U8G2_USE_DYNAMIC_ALLOC
 515:..\u8g2\csrc/u8g2_d_memory.c ****   *page_cnt = 2;
 516:..\u8g2\csrc/u8g2_d_memory.c ****   return 0;
 517:..\u8g2\csrc/u8g2_d_memory.c ****   #else
 518:..\u8g2\csrc/u8g2_d_memory.c ****   static uint8_t buf[256];
 519:..\u8g2\csrc/u8g2_d_memory.c ****   *page_cnt = 2;
 1322              		.loc 1 519 0
 1323 0000 0223     		movs	r3, #2
 1324 0002 0370     		strb	r3, [r0]
 520:..\u8g2\csrc/u8g2_d_memory.c ****   return buf;
 521:..\u8g2\csrc/u8g2_d_memory.c ****   #endif
 522:..\u8g2\csrc/u8g2_d_memory.c **** }
 1325              		.loc 1 522 0
 1326 0004 0048     		ldr	r0, .L140
 1327              	.LVL93:
 1328 0006 7047     		bx	lr
 1329              	.L141:
 1330              		.align	2
 1331              	.L140:
 1332 0008 30730000 		.word	.LANCHOR6+3424
 1333              		.cfi_endproc
 1334              	.LFE46:
 1335              		.size	u8g2_m_16_12_2, .-u8g2_m_16_12_2
 1336              		.section	.text.u8g2_m_16_12_f,"ax",%progbits
 1337              		.align	2
 1338              		.global	u8g2_m_16_12_f
 1339              		.thumb
 1340              		.thumb_func
 1341              		.type	u8g2_m_16_12_f, %function
 1342              	u8g2_m_16_12_f:
 1343              	.LFB47:
 523:..\u8g2\csrc/u8g2_d_memory.c **** uint8_t *u8g2_m_16_12_f(uint8_t *page_cnt)
 524:..\u8g2\csrc/u8g2_d_memory.c **** {
 1344              		.loc 1 524 0
 1345              		.cfi_startproc
 1346              		@ args = 0, pretend = 0, frame = 0
 1347              		@ frame_needed = 0, uses_anonymous_args = 0
 1348              		@ link register save eliminated.
 1349              	.LVL94:
 525:..\u8g2\csrc/u8g2_d_memory.c ****   #ifdef U8G2_USE_DYNAMIC_ALLOC
 526:..\u8g2\csrc/u8g2_d_memory.c ****   *page_cnt = 12;
 527:..\u8g2\csrc/u8g2_d_memory.c ****   return 0;
 528:..\u8g2\csrc/u8g2_d_memory.c ****   #else
 529:..\u8g2\csrc/u8g2_d_memory.c ****   static uint8_t buf[1536];
 530:..\u8g2\csrc/u8g2_d_memory.c ****   *page_cnt = 12;
 1350              		.loc 1 530 0
 1351 0000 0C23     		movs	r3, #12
ARM GAS  C:\Users\brian\AppData\Local\Temp\ccmYYpDh.s 			page 34


 1352 0002 0370     		strb	r3, [r0]
 531:..\u8g2\csrc/u8g2_d_memory.c ****   return buf;
 532:..\u8g2\csrc/u8g2_d_memory.c ****   #endif
 533:..\u8g2\csrc/u8g2_d_memory.c **** }
 1353              		.loc 1 533 0
 1354 0004 0048     		ldr	r0, .L143
 1355              	.LVL95:
 1356 0006 7047     		bx	lr
 1357              	.L144:
 1358              		.align	2
 1359              	.L143:
 1360 0008 30740000 		.word	.LANCHOR6+3680
 1361              		.cfi_endproc
 1362              	.LFE47:
 1363              		.size	u8g2_m_16_12_f, .-u8g2_m_16_12_f
 1364              		.section	.text.u8g2_m_32_4_1,"ax",%progbits
 1365              		.align	2
 1366              		.global	u8g2_m_32_4_1
 1367              		.thumb
 1368              		.thumb_func
 1369              		.type	u8g2_m_32_4_1, %function
 1370              	u8g2_m_32_4_1:
 1371              	.LFB48:
 534:..\u8g2\csrc/u8g2_d_memory.c **** uint8_t *u8g2_m_32_4_1(uint8_t *page_cnt)
 535:..\u8g2\csrc/u8g2_d_memory.c **** {
 1372              		.loc 1 535 0
 1373              		.cfi_startproc
 1374              		@ args = 0, pretend = 0, frame = 0
 1375              		@ frame_needed = 0, uses_anonymous_args = 0
 1376              		@ link register save eliminated.
 1377              	.LVL96:
 536:..\u8g2\csrc/u8g2_d_memory.c ****   #ifdef U8G2_USE_DYNAMIC_ALLOC
 537:..\u8g2\csrc/u8g2_d_memory.c ****   *page_cnt = 1;
 538:..\u8g2\csrc/u8g2_d_memory.c ****   return 0;
 539:..\u8g2\csrc/u8g2_d_memory.c ****   #else
 540:..\u8g2\csrc/u8g2_d_memory.c ****   static uint8_t buf[256];
 541:..\u8g2\csrc/u8g2_d_memory.c ****   *page_cnt = 1;
 1378              		.loc 1 541 0
 1379 0000 0123     		movs	r3, #1
 1380 0002 0370     		strb	r3, [r0]
 542:..\u8g2\csrc/u8g2_d_memory.c ****   return buf;
 543:..\u8g2\csrc/u8g2_d_memory.c ****   #endif
 544:..\u8g2\csrc/u8g2_d_memory.c **** }
 1381              		.loc 1 544 0
 1382 0004 0048     		ldr	r0, .L146
 1383              	.LVL97:
 1384 0006 7047     		bx	lr
 1385              	.L147:
 1386              		.align	2
 1387              	.L146:
 1388 0008 307A0000 		.word	.LANCHOR7+872
 1389              		.cfi_endproc
 1390              	.LFE48:
 1391              		.size	u8g2_m_32_4_1, .-u8g2_m_32_4_1
 1392              		.section	.text.u8g2_m_32_4_2,"ax",%progbits
 1393              		.align	2
 1394              		.global	u8g2_m_32_4_2
ARM GAS  C:\Users\brian\AppData\Local\Temp\ccmYYpDh.s 			page 35


 1395              		.thumb
 1396              		.thumb_func
 1397              		.type	u8g2_m_32_4_2, %function
 1398              	u8g2_m_32_4_2:
 1399              	.LFB49:
 545:..\u8g2\csrc/u8g2_d_memory.c **** uint8_t *u8g2_m_32_4_2(uint8_t *page_cnt)
 546:..\u8g2\csrc/u8g2_d_memory.c **** {
 1400              		.loc 1 546 0
 1401              		.cfi_startproc
 1402              		@ args = 0, pretend = 0, frame = 0
 1403              		@ frame_needed = 0, uses_anonymous_args = 0
 1404              		@ link register save eliminated.
 1405              	.LVL98:
 547:..\u8g2\csrc/u8g2_d_memory.c ****   #ifdef U8G2_USE_DYNAMIC_ALLOC
 548:..\u8g2\csrc/u8g2_d_memory.c ****   *page_cnt = 2;
 549:..\u8g2\csrc/u8g2_d_memory.c ****   return 0;
 550:..\u8g2\csrc/u8g2_d_memory.c ****   #else
 551:..\u8g2\csrc/u8g2_d_memory.c ****   static uint8_t buf[512];
 552:..\u8g2\csrc/u8g2_d_memory.c ****   *page_cnt = 2;
 1406              		.loc 1 552 0
 1407 0000 0223     		movs	r3, #2
 1408 0002 0370     		strb	r3, [r0]
 553:..\u8g2\csrc/u8g2_d_memory.c ****   return buf;
 554:..\u8g2\csrc/u8g2_d_memory.c ****   #endif
 555:..\u8g2\csrc/u8g2_d_memory.c **** }
 1409              		.loc 1 555 0
 1410 0004 0048     		ldr	r0, .L149
 1411              	.LVL99:
 1412 0006 7047     		bx	lr
 1413              	.L150:
 1414              		.align	2
 1415              	.L149:
 1416 0008 307B0000 		.word	.LANCHOR7+1128
 1417              		.cfi_endproc
 1418              	.LFE49:
 1419              		.size	u8g2_m_32_4_2, .-u8g2_m_32_4_2
 1420              		.section	.text.u8g2_m_32_4_f,"ax",%progbits
 1421              		.align	2
 1422              		.global	u8g2_m_32_4_f
 1423              		.thumb
 1424              		.thumb_func
 1425              		.type	u8g2_m_32_4_f, %function
 1426              	u8g2_m_32_4_f:
 1427              	.LFB50:
 556:..\u8g2\csrc/u8g2_d_memory.c **** uint8_t *u8g2_m_32_4_f(uint8_t *page_cnt)
 557:..\u8g2\csrc/u8g2_d_memory.c **** {
 1428              		.loc 1 557 0
 1429              		.cfi_startproc
 1430              		@ args = 0, pretend = 0, frame = 0
 1431              		@ frame_needed = 0, uses_anonymous_args = 0
 1432              		@ link register save eliminated.
 1433              	.LVL100:
 558:..\u8g2\csrc/u8g2_d_memory.c ****   #ifdef U8G2_USE_DYNAMIC_ALLOC
 559:..\u8g2\csrc/u8g2_d_memory.c ****   *page_cnt = 4;
 560:..\u8g2\csrc/u8g2_d_memory.c ****   return 0;
 561:..\u8g2\csrc/u8g2_d_memory.c ****   #else
 562:..\u8g2\csrc/u8g2_d_memory.c ****   static uint8_t buf[1024];
ARM GAS  C:\Users\brian\AppData\Local\Temp\ccmYYpDh.s 			page 36


 563:..\u8g2\csrc/u8g2_d_memory.c ****   *page_cnt = 4;
 1434              		.loc 1 563 0
 1435 0000 0423     		movs	r3, #4
 1436 0002 0370     		strb	r3, [r0]
 564:..\u8g2\csrc/u8g2_d_memory.c ****   return buf;
 565:..\u8g2\csrc/u8g2_d_memory.c ****   #endif
 566:..\u8g2\csrc/u8g2_d_memory.c **** }
 1437              		.loc 1 566 0
 1438 0004 0048     		ldr	r0, .L152
 1439              	.LVL101:
 1440 0006 7047     		bx	lr
 1441              	.L153:
 1442              		.align	2
 1443              	.L152:
 1444 0008 307D0000 		.word	.LANCHOR7+1640
 1445              		.cfi_endproc
 1446              	.LFE50:
 1447              		.size	u8g2_m_32_4_f, .-u8g2_m_32_4_f
 1448              		.section	.text.u8g2_m_12_8_1,"ax",%progbits
 1449              		.align	2
 1450              		.global	u8g2_m_12_8_1
 1451              		.thumb
 1452              		.thumb_func
 1453              		.type	u8g2_m_12_8_1, %function
 1454              	u8g2_m_12_8_1:
 1455              	.LFB51:
 567:..\u8g2\csrc/u8g2_d_memory.c **** uint8_t *u8g2_m_12_8_1(uint8_t *page_cnt)
 568:..\u8g2\csrc/u8g2_d_memory.c **** {
 1456              		.loc 1 568 0
 1457              		.cfi_startproc
 1458              		@ args = 0, pretend = 0, frame = 0
 1459              		@ frame_needed = 0, uses_anonymous_args = 0
 1460              		@ link register save eliminated.
 1461              	.LVL102:
 569:..\u8g2\csrc/u8g2_d_memory.c ****   #ifdef U8G2_USE_DYNAMIC_ALLOC
 570:..\u8g2\csrc/u8g2_d_memory.c ****   *page_cnt = 1;
 571:..\u8g2\csrc/u8g2_d_memory.c ****   return 0;
 572:..\u8g2\csrc/u8g2_d_memory.c ****   #else
 573:..\u8g2\csrc/u8g2_d_memory.c ****   static uint8_t buf[96];
 574:..\u8g2\csrc/u8g2_d_memory.c ****   *page_cnt = 1;
 1462              		.loc 1 574 0
 1463 0000 0123     		movs	r3, #1
 1464 0002 0370     		strb	r3, [r0]
 575:..\u8g2\csrc/u8g2_d_memory.c ****   return buf;
 576:..\u8g2\csrc/u8g2_d_memory.c ****   #endif
 577:..\u8g2\csrc/u8g2_d_memory.c **** }
 1465              		.loc 1 577 0
 1466 0004 0048     		ldr	r0, .L155
 1467              	.LVL103:
 1468 0006 7047     		bx	lr
 1469              	.L156:
 1470              		.align	2
 1471              	.L155:
 1472 0008 30810000 		.word	.LANCHOR7+2664
 1473              		.cfi_endproc
 1474              	.LFE51:
 1475              		.size	u8g2_m_12_8_1, .-u8g2_m_12_8_1
ARM GAS  C:\Users\brian\AppData\Local\Temp\ccmYYpDh.s 			page 37


 1476              		.section	.text.u8g2_m_12_8_2,"ax",%progbits
 1477              		.align	2
 1478              		.global	u8g2_m_12_8_2
 1479              		.thumb
 1480              		.thumb_func
 1481              		.type	u8g2_m_12_8_2, %function
 1482              	u8g2_m_12_8_2:
 1483              	.LFB52:
 578:..\u8g2\csrc/u8g2_d_memory.c **** uint8_t *u8g2_m_12_8_2(uint8_t *page_cnt)
 579:..\u8g2\csrc/u8g2_d_memory.c **** {
 1484              		.loc 1 579 0
 1485              		.cfi_startproc
 1486              		@ args = 0, pretend = 0, frame = 0
 1487              		@ frame_needed = 0, uses_anonymous_args = 0
 1488              		@ link register save eliminated.
 1489              	.LVL104:
 580:..\u8g2\csrc/u8g2_d_memory.c ****   #ifdef U8G2_USE_DYNAMIC_ALLOC
 581:..\u8g2\csrc/u8g2_d_memory.c ****   *page_cnt = 2;
 582:..\u8g2\csrc/u8g2_d_memory.c ****   return 0;
 583:..\u8g2\csrc/u8g2_d_memory.c ****   #else
 584:..\u8g2\csrc/u8g2_d_memory.c ****   static uint8_t buf[192];
 585:..\u8g2\csrc/u8g2_d_memory.c ****   *page_cnt = 2;
 1490              		.loc 1 585 0
 1491 0000 0223     		movs	r3, #2
 1492 0002 0370     		strb	r3, [r0]
 586:..\u8g2\csrc/u8g2_d_memory.c ****   return buf;
 587:..\u8g2\csrc/u8g2_d_memory.c ****   #endif
 588:..\u8g2\csrc/u8g2_d_memory.c **** }
 1493              		.loc 1 588 0
 1494 0004 0048     		ldr	r0, .L158
 1495              	.LVL105:
 1496 0006 7047     		bx	lr
 1497              	.L159:
 1498              		.align	2
 1499              	.L158:
 1500 0008 90810000 		.word	.LANCHOR7+2760
 1501              		.cfi_endproc
 1502              	.LFE52:
 1503              		.size	u8g2_m_12_8_2, .-u8g2_m_12_8_2
 1504              		.section	.text.u8g2_m_12_8_f,"ax",%progbits
 1505              		.align	2
 1506              		.global	u8g2_m_12_8_f
 1507              		.thumb
 1508              		.thumb_func
 1509              		.type	u8g2_m_12_8_f, %function
 1510              	u8g2_m_12_8_f:
 1511              	.LFB53:
 589:..\u8g2\csrc/u8g2_d_memory.c **** uint8_t *u8g2_m_12_8_f(uint8_t *page_cnt)
 590:..\u8g2\csrc/u8g2_d_memory.c **** {
 1512              		.loc 1 590 0
 1513              		.cfi_startproc
 1514              		@ args = 0, pretend = 0, frame = 0
 1515              		@ frame_needed = 0, uses_anonymous_args = 0
 1516              		@ link register save eliminated.
 1517              	.LVL106:
 591:..\u8g2\csrc/u8g2_d_memory.c ****   #ifdef U8G2_USE_DYNAMIC_ALLOC
 592:..\u8g2\csrc/u8g2_d_memory.c ****   *page_cnt = 8;
ARM GAS  C:\Users\brian\AppData\Local\Temp\ccmYYpDh.s 			page 38


 593:..\u8g2\csrc/u8g2_d_memory.c ****   return 0;
 594:..\u8g2\csrc/u8g2_d_memory.c ****   #else
 595:..\u8g2\csrc/u8g2_d_memory.c ****   static uint8_t buf[768];
 596:..\u8g2\csrc/u8g2_d_memory.c ****   *page_cnt = 8;
 1518              		.loc 1 596 0
 1519 0000 0823     		movs	r3, #8
 1520 0002 0370     		strb	r3, [r0]
 597:..\u8g2\csrc/u8g2_d_memory.c ****   return buf;
 598:..\u8g2\csrc/u8g2_d_memory.c ****   #endif
 599:..\u8g2\csrc/u8g2_d_memory.c **** }
 1521              		.loc 1 599 0
 1522 0004 0048     		ldr	r0, .L161
 1523              	.LVL107:
 1524 0006 7047     		bx	lr
 1525              	.L162:
 1526              		.align	2
 1527              	.L161:
 1528 0008 50820000 		.word	.LANCHOR7+2952
 1529              		.cfi_endproc
 1530              	.LFE53:
 1531              		.size	u8g2_m_12_8_f, .-u8g2_m_12_8_f
 1532              		.section	.text.u8g2_m_24_4_1,"ax",%progbits
 1533              		.align	2
 1534              		.global	u8g2_m_24_4_1
 1535              		.thumb
 1536              		.thumb_func
 1537              		.type	u8g2_m_24_4_1, %function
 1538              	u8g2_m_24_4_1:
 1539              	.LFB54:
 600:..\u8g2\csrc/u8g2_d_memory.c **** uint8_t *u8g2_m_24_4_1(uint8_t *page_cnt)
 601:..\u8g2\csrc/u8g2_d_memory.c **** {
 1540              		.loc 1 601 0
 1541              		.cfi_startproc
 1542              		@ args = 0, pretend = 0, frame = 0
 1543              		@ frame_needed = 0, uses_anonymous_args = 0
 1544              		@ link register save eliminated.
 1545              	.LVL108:
 602:..\u8g2\csrc/u8g2_d_memory.c ****   #ifdef U8G2_USE_DYNAMIC_ALLOC
 603:..\u8g2\csrc/u8g2_d_memory.c ****   *page_cnt = 1;
 604:..\u8g2\csrc/u8g2_d_memory.c ****   return 0;
 605:..\u8g2\csrc/u8g2_d_memory.c ****   #else
 606:..\u8g2\csrc/u8g2_d_memory.c ****   static uint8_t buf[192];
 607:..\u8g2\csrc/u8g2_d_memory.c ****   *page_cnt = 1;
 1546              		.loc 1 607 0
 1547 0000 0123     		movs	r3, #1
 1548 0002 0370     		strb	r3, [r0]
 608:..\u8g2\csrc/u8g2_d_memory.c ****   return buf;
 609:..\u8g2\csrc/u8g2_d_memory.c ****   #endif
 610:..\u8g2\csrc/u8g2_d_memory.c **** }
 1549              		.loc 1 610 0
 1550 0004 0048     		ldr	r0, .L164
 1551              	.LVL109:
 1552 0006 7047     		bx	lr
 1553              	.L165:
 1554              		.align	2
 1555              	.L164:
 1556 0008 50850000 		.word	.LANCHOR7+3720
ARM GAS  C:\Users\brian\AppData\Local\Temp\ccmYYpDh.s 			page 39


 1557              		.cfi_endproc
 1558              	.LFE54:
 1559              		.size	u8g2_m_24_4_1, .-u8g2_m_24_4_1
 1560              		.section	.text.u8g2_m_24_4_2,"ax",%progbits
 1561              		.align	2
 1562              		.global	u8g2_m_24_4_2
 1563              		.thumb
 1564              		.thumb_func
 1565              		.type	u8g2_m_24_4_2, %function
 1566              	u8g2_m_24_4_2:
 1567              	.LFB55:
 611:..\u8g2\csrc/u8g2_d_memory.c **** uint8_t *u8g2_m_24_4_2(uint8_t *page_cnt)
 612:..\u8g2\csrc/u8g2_d_memory.c **** {
 1568              		.loc 1 612 0
 1569              		.cfi_startproc
 1570              		@ args = 0, pretend = 0, frame = 0
 1571              		@ frame_needed = 0, uses_anonymous_args = 0
 1572              		@ link register save eliminated.
 1573              	.LVL110:
 613:..\u8g2\csrc/u8g2_d_memory.c ****   #ifdef U8G2_USE_DYNAMIC_ALLOC
 614:..\u8g2\csrc/u8g2_d_memory.c ****   *page_cnt = 2;
 615:..\u8g2\csrc/u8g2_d_memory.c ****   return 0;
 616:..\u8g2\csrc/u8g2_d_memory.c ****   #else
 617:..\u8g2\csrc/u8g2_d_memory.c ****   static uint8_t buf[384];
 618:..\u8g2\csrc/u8g2_d_memory.c ****   *page_cnt = 2;
 1574              		.loc 1 618 0
 1575 0000 0223     		movs	r3, #2
 1576 0002 0370     		strb	r3, [r0]
 619:..\u8g2\csrc/u8g2_d_memory.c ****   return buf;
 620:..\u8g2\csrc/u8g2_d_memory.c ****   #endif
 621:..\u8g2\csrc/u8g2_d_memory.c **** }
 1577              		.loc 1 621 0
 1578 0004 0048     		ldr	r0, .L167
 1579              	.LVL111:
 1580 0006 7047     		bx	lr
 1581              	.L168:
 1582              		.align	2
 1583              	.L167:
 1584 0008 10860000 		.word	.LANCHOR7+3912
 1585              		.cfi_endproc
 1586              	.LFE55:
 1587              		.size	u8g2_m_24_4_2, .-u8g2_m_24_4_2
 1588              		.section	.text.u8g2_m_24_4_f,"ax",%progbits
 1589              		.align	2
 1590              		.global	u8g2_m_24_4_f
 1591              		.thumb
 1592              		.thumb_func
 1593              		.type	u8g2_m_24_4_f, %function
 1594              	u8g2_m_24_4_f:
 1595              	.LFB56:
 622:..\u8g2\csrc/u8g2_d_memory.c **** uint8_t *u8g2_m_24_4_f(uint8_t *page_cnt)
 623:..\u8g2\csrc/u8g2_d_memory.c **** {
 1596              		.loc 1 623 0
 1597              		.cfi_startproc
 1598              		@ args = 0, pretend = 0, frame = 0
 1599              		@ frame_needed = 0, uses_anonymous_args = 0
 1600              		@ link register save eliminated.
ARM GAS  C:\Users\brian\AppData\Local\Temp\ccmYYpDh.s 			page 40


 1601              	.LVL112:
 624:..\u8g2\csrc/u8g2_d_memory.c ****   #ifdef U8G2_USE_DYNAMIC_ALLOC
 625:..\u8g2\csrc/u8g2_d_memory.c ****   *page_cnt = 4;
 626:..\u8g2\csrc/u8g2_d_memory.c ****   return 0;
 627:..\u8g2\csrc/u8g2_d_memory.c ****   #else
 628:..\u8g2\csrc/u8g2_d_memory.c ****   static uint8_t buf[768];
 629:..\u8g2\csrc/u8g2_d_memory.c ****   *page_cnt = 4;
 1602              		.loc 1 629 0
 1603 0000 0423     		movs	r3, #4
 1604 0002 0370     		strb	r3, [r0]
 630:..\u8g2\csrc/u8g2_d_memory.c ****   return buf;
 631:..\u8g2\csrc/u8g2_d_memory.c ****   #endif
 632:..\u8g2\csrc/u8g2_d_memory.c **** }
 1605              		.loc 1 632 0
 1606 0004 0048     		ldr	r0, .L170
 1607              	.LVL113:
 1608 0006 7047     		bx	lr
 1609              	.L171:
 1610              		.align	2
 1611              	.L170:
 1612 0008 90870000 		.word	.LANCHOR8-48
 1613              		.cfi_endproc
 1614              	.LFE56:
 1615              		.size	u8g2_m_24_4_f, .-u8g2_m_24_4_f
 1616              		.section	.text.u8g2_m_50_30_1,"ax",%progbits
 1617              		.align	2
 1618              		.global	u8g2_m_50_30_1
 1619              		.thumb
 1620              		.thumb_func
 1621              		.type	u8g2_m_50_30_1, %function
 1622              	u8g2_m_50_30_1:
 1623              	.LFB57:
 633:..\u8g2\csrc/u8g2_d_memory.c **** uint8_t *u8g2_m_50_30_1(uint8_t *page_cnt)
 634:..\u8g2\csrc/u8g2_d_memory.c **** {
 1624              		.loc 1 634 0
 1625              		.cfi_startproc
 1626              		@ args = 0, pretend = 0, frame = 0
 1627              		@ frame_needed = 0, uses_anonymous_args = 0
 1628              		@ link register save eliminated.
 1629              	.LVL114:
 635:..\u8g2\csrc/u8g2_d_memory.c ****   #ifdef U8G2_USE_DYNAMIC_ALLOC
 636:..\u8g2\csrc/u8g2_d_memory.c ****   *page_cnt = 1;
 637:..\u8g2\csrc/u8g2_d_memory.c ****   return 0;
 638:..\u8g2\csrc/u8g2_d_memory.c ****   #else
 639:..\u8g2\csrc/u8g2_d_memory.c ****   static uint8_t buf[400];
 640:..\u8g2\csrc/u8g2_d_memory.c ****   *page_cnt = 1;
 1630              		.loc 1 640 0
 1631 0000 0123     		movs	r3, #1
 1632 0002 0370     		strb	r3, [r0]
 641:..\u8g2\csrc/u8g2_d_memory.c ****   return buf;
 642:..\u8g2\csrc/u8g2_d_memory.c ****   #endif
 643:..\u8g2\csrc/u8g2_d_memory.c **** }
 1633              		.loc 1 643 0
 1634 0004 0048     		ldr	r0, .L173
 1635              	.LVL115:
 1636 0006 7047     		bx	lr
 1637              	.L174:
ARM GAS  C:\Users\brian\AppData\Local\Temp\ccmYYpDh.s 			page 41


 1638              		.align	2
 1639              	.L173:
 1640 0008 908A0000 		.word	.LANCHOR8+720
 1641              		.cfi_endproc
 1642              	.LFE57:
 1643              		.size	u8g2_m_50_30_1, .-u8g2_m_50_30_1
 1644              		.section	.text.u8g2_m_50_30_2,"ax",%progbits
 1645              		.align	2
 1646              		.global	u8g2_m_50_30_2
 1647              		.thumb
 1648              		.thumb_func
 1649              		.type	u8g2_m_50_30_2, %function
 1650              	u8g2_m_50_30_2:
 1651              	.LFB58:
 644:..\u8g2\csrc/u8g2_d_memory.c **** uint8_t *u8g2_m_50_30_2(uint8_t *page_cnt)
 645:..\u8g2\csrc/u8g2_d_memory.c **** {
 1652              		.loc 1 645 0
 1653              		.cfi_startproc
 1654              		@ args = 0, pretend = 0, frame = 0
 1655              		@ frame_needed = 0, uses_anonymous_args = 0
 1656              		@ link register save eliminated.
 1657              	.LVL116:
 646:..\u8g2\csrc/u8g2_d_memory.c ****   #ifdef U8G2_USE_DYNAMIC_ALLOC
 647:..\u8g2\csrc/u8g2_d_memory.c ****   *page_cnt = 2;
 648:..\u8g2\csrc/u8g2_d_memory.c ****   return 0;
 649:..\u8g2\csrc/u8g2_d_memory.c ****   #else
 650:..\u8g2\csrc/u8g2_d_memory.c ****   static uint8_t buf[800];
 651:..\u8g2\csrc/u8g2_d_memory.c ****   *page_cnt = 2;
 1658              		.loc 1 651 0
 1659 0000 0223     		movs	r3, #2
 1660 0002 0370     		strb	r3, [r0]
 652:..\u8g2\csrc/u8g2_d_memory.c ****   return buf;
 653:..\u8g2\csrc/u8g2_d_memory.c ****   #endif
 654:..\u8g2\csrc/u8g2_d_memory.c **** }
 1661              		.loc 1 654 0
 1662 0004 0048     		ldr	r0, .L176
 1663              	.LVL117:
 1664 0006 7047     		bx	lr
 1665              	.L177:
 1666              		.align	2
 1667              	.L176:
 1668 0008 208C0000 		.word	.LANCHOR8+1120
 1669              		.cfi_endproc
 1670              	.LFE58:
 1671              		.size	u8g2_m_50_30_2, .-u8g2_m_50_30_2
 1672              		.section	.text.u8g2_m_50_30_f,"ax",%progbits
 1673              		.align	2
 1674              		.global	u8g2_m_50_30_f
 1675              		.thumb
 1676              		.thumb_func
 1677              		.type	u8g2_m_50_30_f, %function
 1678              	u8g2_m_50_30_f:
 1679              	.LFB59:
 655:..\u8g2\csrc/u8g2_d_memory.c **** uint8_t *u8g2_m_50_30_f(uint8_t *page_cnt)
 656:..\u8g2\csrc/u8g2_d_memory.c **** {
 1680              		.loc 1 656 0
 1681              		.cfi_startproc
ARM GAS  C:\Users\brian\AppData\Local\Temp\ccmYYpDh.s 			page 42


 1682              		@ args = 0, pretend = 0, frame = 0
 1683              		@ frame_needed = 0, uses_anonymous_args = 0
 1684              		@ link register save eliminated.
 1685              	.LVL118:
 657:..\u8g2\csrc/u8g2_d_memory.c ****   #ifdef U8G2_USE_DYNAMIC_ALLOC
 658:..\u8g2\csrc/u8g2_d_memory.c ****   *page_cnt = 30;
 659:..\u8g2\csrc/u8g2_d_memory.c ****   return 0;
 660:..\u8g2\csrc/u8g2_d_memory.c ****   #else
 661:..\u8g2\csrc/u8g2_d_memory.c ****   static uint8_t buf[12000];
 662:..\u8g2\csrc/u8g2_d_memory.c ****   *page_cnt = 30;
 1686              		.loc 1 662 0
 1687 0000 1E23     		movs	r3, #30
 1688 0002 0370     		strb	r3, [r0]
 663:..\u8g2\csrc/u8g2_d_memory.c ****   return buf;
 664:..\u8g2\csrc/u8g2_d_memory.c ****   #endif
 665:..\u8g2\csrc/u8g2_d_memory.c **** }
 1689              		.loc 1 665 0
 1690 0004 0048     		ldr	r0, .L179
 1691              	.LVL119:
 1692 0006 7047     		bx	lr
 1693              	.L180:
 1694              		.align	2
 1695              	.L179:
 1696 0008 408F0000 		.word	.LANCHOR8+1920
 1697              		.cfi_endproc
 1698              	.LFE59:
 1699              		.size	u8g2_m_50_30_f, .-u8g2_m_50_30_f
 1700              		.section	.text.u8g2_m_18_21_1,"ax",%progbits
 1701              		.align	2
 1702              		.global	u8g2_m_18_21_1
 1703              		.thumb
 1704              		.thumb_func
 1705              		.type	u8g2_m_18_21_1, %function
 1706              	u8g2_m_18_21_1:
 1707              	.LFB60:
 666:..\u8g2\csrc/u8g2_d_memory.c **** uint8_t *u8g2_m_18_21_1(uint8_t *page_cnt)
 667:..\u8g2\csrc/u8g2_d_memory.c **** {
 1708              		.loc 1 667 0
 1709              		.cfi_startproc
 1710              		@ args = 0, pretend = 0, frame = 0
 1711              		@ frame_needed = 0, uses_anonymous_args = 0
 1712              		@ link register save eliminated.
 1713              	.LVL120:
 668:..\u8g2\csrc/u8g2_d_memory.c ****   #ifdef U8G2_USE_DYNAMIC_ALLOC
 669:..\u8g2\csrc/u8g2_d_memory.c ****   *page_cnt = 1;
 670:..\u8g2\csrc/u8g2_d_memory.c ****   return 0;
 671:..\u8g2\csrc/u8g2_d_memory.c ****   #else
 672:..\u8g2\csrc/u8g2_d_memory.c ****   static uint8_t buf[144];
 673:..\u8g2\csrc/u8g2_d_memory.c ****   *page_cnt = 1;
 1714              		.loc 1 673 0
 1715 0000 0123     		movs	r3, #1
 1716 0002 0370     		strb	r3, [r0]
 674:..\u8g2\csrc/u8g2_d_memory.c ****   return buf;
 675:..\u8g2\csrc/u8g2_d_memory.c ****   #endif
 676:..\u8g2\csrc/u8g2_d_memory.c **** }
 1717              		.loc 1 676 0
 1718 0004 0048     		ldr	r0, .L182
ARM GAS  C:\Users\brian\AppData\Local\Temp\ccmYYpDh.s 			page 43


 1719              	.LVL121:
 1720 0006 7047     		bx	lr
 1721              	.L183:
 1722              		.align	2
 1723              	.L182:
 1724 0008 20BE0000 		.word	.LANCHOR9+888
 1725              		.cfi_endproc
 1726              	.LFE60:
 1727              		.size	u8g2_m_18_21_1, .-u8g2_m_18_21_1
 1728              		.section	.text.u8g2_m_18_21_2,"ax",%progbits
 1729              		.align	2
 1730              		.global	u8g2_m_18_21_2
 1731              		.thumb
 1732              		.thumb_func
 1733              		.type	u8g2_m_18_21_2, %function
 1734              	u8g2_m_18_21_2:
 1735              	.LFB61:
 677:..\u8g2\csrc/u8g2_d_memory.c **** uint8_t *u8g2_m_18_21_2(uint8_t *page_cnt)
 678:..\u8g2\csrc/u8g2_d_memory.c **** {
 1736              		.loc 1 678 0
 1737              		.cfi_startproc
 1738              		@ args = 0, pretend = 0, frame = 0
 1739              		@ frame_needed = 0, uses_anonymous_args = 0
 1740              		@ link register save eliminated.
 1741              	.LVL122:
 679:..\u8g2\csrc/u8g2_d_memory.c ****   #ifdef U8G2_USE_DYNAMIC_ALLOC
 680:..\u8g2\csrc/u8g2_d_memory.c ****   *page_cnt = 2;
 681:..\u8g2\csrc/u8g2_d_memory.c ****   return 0;
 682:..\u8g2\csrc/u8g2_d_memory.c ****   #else
 683:..\u8g2\csrc/u8g2_d_memory.c ****   static uint8_t buf[288];
 684:..\u8g2\csrc/u8g2_d_memory.c ****   *page_cnt = 2;
 1742              		.loc 1 684 0
 1743 0000 0223     		movs	r3, #2
 1744 0002 0370     		strb	r3, [r0]
 685:..\u8g2\csrc/u8g2_d_memory.c ****   return buf;
 686:..\u8g2\csrc/u8g2_d_memory.c ****   #endif
 687:..\u8g2\csrc/u8g2_d_memory.c **** }
 1745              		.loc 1 687 0
 1746 0004 0048     		ldr	r0, .L185
 1747              	.LVL123:
 1748 0006 7047     		bx	lr
 1749              	.L186:
 1750              		.align	2
 1751              	.L185:
 1752 0008 B0BE0000 		.word	.LANCHOR9+1032
 1753              		.cfi_endproc
 1754              	.LFE61:
 1755              		.size	u8g2_m_18_21_2, .-u8g2_m_18_21_2
 1756              		.section	.text.u8g2_m_18_21_f,"ax",%progbits
 1757              		.align	2
 1758              		.global	u8g2_m_18_21_f
 1759              		.thumb
 1760              		.thumb_func
 1761              		.type	u8g2_m_18_21_f, %function
 1762              	u8g2_m_18_21_f:
 1763              	.LFB62:
 688:..\u8g2\csrc/u8g2_d_memory.c **** uint8_t *u8g2_m_18_21_f(uint8_t *page_cnt)
ARM GAS  C:\Users\brian\AppData\Local\Temp\ccmYYpDh.s 			page 44


 689:..\u8g2\csrc/u8g2_d_memory.c **** {
 1764              		.loc 1 689 0
 1765              		.cfi_startproc
 1766              		@ args = 0, pretend = 0, frame = 0
 1767              		@ frame_needed = 0, uses_anonymous_args = 0
 1768              		@ link register save eliminated.
 1769              	.LVL124:
 690:..\u8g2\csrc/u8g2_d_memory.c ****   #ifdef U8G2_USE_DYNAMIC_ALLOC
 691:..\u8g2\csrc/u8g2_d_memory.c ****   *page_cnt = 21;
 692:..\u8g2\csrc/u8g2_d_memory.c ****   return 0;
 693:..\u8g2\csrc/u8g2_d_memory.c ****   #else
 694:..\u8g2\csrc/u8g2_d_memory.c ****   static uint8_t buf[3024];
 695:..\u8g2\csrc/u8g2_d_memory.c ****   *page_cnt = 21;
 1770              		.loc 1 695 0
 1771 0000 1523     		movs	r3, #21
 1772 0002 0370     		strb	r3, [r0]
 696:..\u8g2\csrc/u8g2_d_memory.c ****   return buf;
 697:..\u8g2\csrc/u8g2_d_memory.c ****   #endif
 698:..\u8g2\csrc/u8g2_d_memory.c **** }
 1773              		.loc 1 698 0
 1774 0004 0048     		ldr	r0, .L188
 1775              	.LVL125:
 1776 0006 7047     		bx	lr
 1777              	.L189:
 1778              		.align	2
 1779              	.L188:
 1780 0008 D0BF0000 		.word	.LANCHOR9+1320
 1781              		.cfi_endproc
 1782              	.LFE62:
 1783              		.size	u8g2_m_18_21_f, .-u8g2_m_18_21_f
 1784              		.section	.text.u8g2_m_11_6_1,"ax",%progbits
 1785              		.align	2
 1786              		.global	u8g2_m_11_6_1
 1787              		.thumb
 1788              		.thumb_func
 1789              		.type	u8g2_m_11_6_1, %function
 1790              	u8g2_m_11_6_1:
 1791              	.LFB63:
 699:..\u8g2\csrc/u8g2_d_memory.c **** uint8_t *u8g2_m_11_6_1(uint8_t *page_cnt)
 700:..\u8g2\csrc/u8g2_d_memory.c **** {
 1792              		.loc 1 700 0
 1793              		.cfi_startproc
 1794              		@ args = 0, pretend = 0, frame = 0
 1795              		@ frame_needed = 0, uses_anonymous_args = 0
 1796              		@ link register save eliminated.
 1797              	.LVL126:
 701:..\u8g2\csrc/u8g2_d_memory.c ****   #ifdef U8G2_USE_DYNAMIC_ALLOC
 702:..\u8g2\csrc/u8g2_d_memory.c ****   *page_cnt = 1;
 703:..\u8g2\csrc/u8g2_d_memory.c ****   return 0;
 704:..\u8g2\csrc/u8g2_d_memory.c ****   #else
 705:..\u8g2\csrc/u8g2_d_memory.c ****   static uint8_t buf[88];
 706:..\u8g2\csrc/u8g2_d_memory.c ****   *page_cnt = 1;
 1798              		.loc 1 706 0
 1799 0000 0123     		movs	r3, #1
 1800 0002 0370     		strb	r3, [r0]
 707:..\u8g2\csrc/u8g2_d_memory.c ****   return buf;
 708:..\u8g2\csrc/u8g2_d_memory.c ****   #endif
ARM GAS  C:\Users\brian\AppData\Local\Temp\ccmYYpDh.s 			page 45


 709:..\u8g2\csrc/u8g2_d_memory.c **** }
 1801              		.loc 1 709 0
 1802 0004 0048     		ldr	r0, .L191
 1803              	.LVL127:
 1804 0006 7047     		bx	lr
 1805              	.L192:
 1806              		.align	2
 1807              	.L191:
 1808 0008 A0CB0000 		.word	.LANCHOR10
 1809              		.cfi_endproc
 1810              	.LFE63:
 1811              		.size	u8g2_m_11_6_1, .-u8g2_m_11_6_1
 1812              		.section	.text.u8g2_m_11_6_2,"ax",%progbits
 1813              		.align	2
 1814              		.global	u8g2_m_11_6_2
 1815              		.thumb
 1816              		.thumb_func
 1817              		.type	u8g2_m_11_6_2, %function
 1818              	u8g2_m_11_6_2:
 1819              	.LFB64:
 710:..\u8g2\csrc/u8g2_d_memory.c **** uint8_t *u8g2_m_11_6_2(uint8_t *page_cnt)
 711:..\u8g2\csrc/u8g2_d_memory.c **** {
 1820              		.loc 1 711 0
 1821              		.cfi_startproc
 1822              		@ args = 0, pretend = 0, frame = 0
 1823              		@ frame_needed = 0, uses_anonymous_args = 0
 1824              		@ link register save eliminated.
 1825              	.LVL128:
 712:..\u8g2\csrc/u8g2_d_memory.c ****   #ifdef U8G2_USE_DYNAMIC_ALLOC
 713:..\u8g2\csrc/u8g2_d_memory.c ****   *page_cnt = 2;
 714:..\u8g2\csrc/u8g2_d_memory.c ****   return 0;
 715:..\u8g2\csrc/u8g2_d_memory.c ****   #else
 716:..\u8g2\csrc/u8g2_d_memory.c ****   static uint8_t buf[176];
 717:..\u8g2\csrc/u8g2_d_memory.c ****   *page_cnt = 2;
 1826              		.loc 1 717 0
 1827 0000 0223     		movs	r3, #2
 1828 0002 0370     		strb	r3, [r0]
 718:..\u8g2\csrc/u8g2_d_memory.c ****   return buf;
 719:..\u8g2\csrc/u8g2_d_memory.c ****   #endif
 720:..\u8g2\csrc/u8g2_d_memory.c **** }
 1829              		.loc 1 720 0
 1830 0004 0048     		ldr	r0, .L194
 1831              	.LVL129:
 1832 0006 7047     		bx	lr
 1833              	.L195:
 1834              		.align	2
 1835              	.L194:
 1836 0008 F8CB0000 		.word	.LANCHOR10+88
 1837              		.cfi_endproc
 1838              	.LFE64:
 1839              		.size	u8g2_m_11_6_2, .-u8g2_m_11_6_2
 1840              		.section	.text.u8g2_m_11_6_f,"ax",%progbits
 1841              		.align	2
 1842              		.global	u8g2_m_11_6_f
 1843              		.thumb
 1844              		.thumb_func
 1845              		.type	u8g2_m_11_6_f, %function
ARM GAS  C:\Users\brian\AppData\Local\Temp\ccmYYpDh.s 			page 46


 1846              	u8g2_m_11_6_f:
 1847              	.LFB65:
 721:..\u8g2\csrc/u8g2_d_memory.c **** uint8_t *u8g2_m_11_6_f(uint8_t *page_cnt)
 722:..\u8g2\csrc/u8g2_d_memory.c **** {
 1848              		.loc 1 722 0
 1849              		.cfi_startproc
 1850              		@ args = 0, pretend = 0, frame = 0
 1851              		@ frame_needed = 0, uses_anonymous_args = 0
 1852              		@ link register save eliminated.
 1853              	.LVL130:
 723:..\u8g2\csrc/u8g2_d_memory.c ****   #ifdef U8G2_USE_DYNAMIC_ALLOC
 724:..\u8g2\csrc/u8g2_d_memory.c ****   *page_cnt = 6;
 725:..\u8g2\csrc/u8g2_d_memory.c ****   return 0;
 726:..\u8g2\csrc/u8g2_d_memory.c ****   #else
 727:..\u8g2\csrc/u8g2_d_memory.c ****   static uint8_t buf[528];
 728:..\u8g2\csrc/u8g2_d_memory.c ****   *page_cnt = 6;
 1854              		.loc 1 728 0
 1855 0000 0623     		movs	r3, #6
 1856 0002 0370     		strb	r3, [r0]
 729:..\u8g2\csrc/u8g2_d_memory.c ****   return buf;
 730:..\u8g2\csrc/u8g2_d_memory.c ****   #endif
 731:..\u8g2\csrc/u8g2_d_memory.c **** }
 1857              		.loc 1 731 0
 1858 0004 0048     		ldr	r0, .L197
 1859              	.LVL131:
 1860 0006 7047     		bx	lr
 1861              	.L198:
 1862              		.align	2
 1863              	.L197:
 1864 0008 A8CC0000 		.word	.LANCHOR10+264
 1865              		.cfi_endproc
 1866              	.LFE65:
 1867              		.size	u8g2_m_11_6_f, .-u8g2_m_11_6_f
 1868              		.section	.text.u8g2_m_12_9_1,"ax",%progbits
 1869              		.align	2
 1870              		.global	u8g2_m_12_9_1
 1871              		.thumb
 1872              		.thumb_func
 1873              		.type	u8g2_m_12_9_1, %function
 1874              	u8g2_m_12_9_1:
 1875              	.LFB66:
 732:..\u8g2\csrc/u8g2_d_memory.c **** uint8_t *u8g2_m_12_9_1(uint8_t *page_cnt)
 733:..\u8g2\csrc/u8g2_d_memory.c **** {
 1876              		.loc 1 733 0
 1877              		.cfi_startproc
 1878              		@ args = 0, pretend = 0, frame = 0
 1879              		@ frame_needed = 0, uses_anonymous_args = 0
 1880              		@ link register save eliminated.
 1881              	.LVL132:
 734:..\u8g2\csrc/u8g2_d_memory.c ****   #ifdef U8G2_USE_DYNAMIC_ALLOC
 735:..\u8g2\csrc/u8g2_d_memory.c ****   *page_cnt = 1;
 736:..\u8g2\csrc/u8g2_d_memory.c ****   return 0;
 737:..\u8g2\csrc/u8g2_d_memory.c ****   #else
 738:..\u8g2\csrc/u8g2_d_memory.c ****   static uint8_t buf[96];
 739:..\u8g2\csrc/u8g2_d_memory.c ****   *page_cnt = 1;
 1882              		.loc 1 739 0
 1883 0000 0123     		movs	r3, #1
ARM GAS  C:\Users\brian\AppData\Local\Temp\ccmYYpDh.s 			page 47


 1884 0002 0370     		strb	r3, [r0]
 740:..\u8g2\csrc/u8g2_d_memory.c ****   return buf;
 741:..\u8g2\csrc/u8g2_d_memory.c ****   #endif
 742:..\u8g2\csrc/u8g2_d_memory.c **** }
 1885              		.loc 1 742 0
 1886 0004 0048     		ldr	r0, .L200
 1887              	.LVL133:
 1888 0006 7047     		bx	lr
 1889              	.L201:
 1890              		.align	2
 1891              	.L200:
 1892 0008 B8CE0000 		.word	.LANCHOR10+792
 1893              		.cfi_endproc
 1894              	.LFE66:
 1895              		.size	u8g2_m_12_9_1, .-u8g2_m_12_9_1
 1896              		.section	.text.u8g2_m_12_9_2,"ax",%progbits
 1897              		.align	2
 1898              		.global	u8g2_m_12_9_2
 1899              		.thumb
 1900              		.thumb_func
 1901              		.type	u8g2_m_12_9_2, %function
 1902              	u8g2_m_12_9_2:
 1903              	.LFB67:
 743:..\u8g2\csrc/u8g2_d_memory.c **** uint8_t *u8g2_m_12_9_2(uint8_t *page_cnt)
 744:..\u8g2\csrc/u8g2_d_memory.c **** {
 1904              		.loc 1 744 0
 1905              		.cfi_startproc
 1906              		@ args = 0, pretend = 0, frame = 0
 1907              		@ frame_needed = 0, uses_anonymous_args = 0
 1908              		@ link register save eliminated.
 1909              	.LVL134:
 745:..\u8g2\csrc/u8g2_d_memory.c ****   #ifdef U8G2_USE_DYNAMIC_ALLOC
 746:..\u8g2\csrc/u8g2_d_memory.c ****   *page_cnt = 2;
 747:..\u8g2\csrc/u8g2_d_memory.c ****   return 0;
 748:..\u8g2\csrc/u8g2_d_memory.c ****   #else
 749:..\u8g2\csrc/u8g2_d_memory.c ****   static uint8_t buf[192];
 750:..\u8g2\csrc/u8g2_d_memory.c ****   *page_cnt = 2;
 1910              		.loc 1 750 0
 1911 0000 0223     		movs	r3, #2
 1912 0002 0370     		strb	r3, [r0]
 751:..\u8g2\csrc/u8g2_d_memory.c ****   return buf;
 752:..\u8g2\csrc/u8g2_d_memory.c ****   #endif
 753:..\u8g2\csrc/u8g2_d_memory.c **** }
 1913              		.loc 1 753 0
 1914 0004 0048     		ldr	r0, .L203
 1915              	.LVL135:
 1916 0006 7047     		bx	lr
 1917              	.L204:
 1918              		.align	2
 1919              	.L203:
 1920 0008 18CF0000 		.word	.LANCHOR10+888
 1921              		.cfi_endproc
 1922              	.LFE67:
 1923              		.size	u8g2_m_12_9_2, .-u8g2_m_12_9_2
 1924              		.section	.text.u8g2_m_12_9_f,"ax",%progbits
 1925              		.align	2
 1926              		.global	u8g2_m_12_9_f
ARM GAS  C:\Users\brian\AppData\Local\Temp\ccmYYpDh.s 			page 48


 1927              		.thumb
 1928              		.thumb_func
 1929              		.type	u8g2_m_12_9_f, %function
 1930              	u8g2_m_12_9_f:
 1931              	.LFB68:
 754:..\u8g2\csrc/u8g2_d_memory.c **** uint8_t *u8g2_m_12_9_f(uint8_t *page_cnt)
 755:..\u8g2\csrc/u8g2_d_memory.c **** {
 1932              		.loc 1 755 0
 1933              		.cfi_startproc
 1934              		@ args = 0, pretend = 0, frame = 0
 1935              		@ frame_needed = 0, uses_anonymous_args = 0
 1936              		@ link register save eliminated.
 1937              	.LVL136:
 756:..\u8g2\csrc/u8g2_d_memory.c ****   #ifdef U8G2_USE_DYNAMIC_ALLOC
 757:..\u8g2\csrc/u8g2_d_memory.c ****   *page_cnt = 9;
 758:..\u8g2\csrc/u8g2_d_memory.c ****   return 0;
 759:..\u8g2\csrc/u8g2_d_memory.c ****   #else
 760:..\u8g2\csrc/u8g2_d_memory.c ****   static uint8_t buf[864];
 761:..\u8g2\csrc/u8g2_d_memory.c ****   *page_cnt = 9;
 1938              		.loc 1 761 0
 1939 0000 0923     		movs	r3, #9
 1940 0002 0370     		strb	r3, [r0]
 762:..\u8g2\csrc/u8g2_d_memory.c ****   return buf;
 763:..\u8g2\csrc/u8g2_d_memory.c ****   #endif
 764:..\u8g2\csrc/u8g2_d_memory.c **** }
 1941              		.loc 1 764 0
 1942 0004 0048     		ldr	r0, .L206
 1943              	.LVL137:
 1944 0006 7047     		bx	lr
 1945              	.L207:
 1946              		.align	2
 1947              	.L206:
 1948 0008 D8CF0000 		.word	.LANCHOR10+1080
 1949              		.cfi_endproc
 1950              	.LFE68:
 1951              		.size	u8g2_m_12_9_f, .-u8g2_m_12_9_f
 1952              		.section	.text.u8g2_m_24_8_1,"ax",%progbits
 1953              		.align	2
 1954              		.global	u8g2_m_24_8_1
 1955              		.thumb
 1956              		.thumb_func
 1957              		.type	u8g2_m_24_8_1, %function
 1958              	u8g2_m_24_8_1:
 1959              	.LFB69:
 765:..\u8g2\csrc/u8g2_d_memory.c **** uint8_t *u8g2_m_24_8_1(uint8_t *page_cnt)
 766:..\u8g2\csrc/u8g2_d_memory.c **** {
 1960              		.loc 1 766 0
 1961              		.cfi_startproc
 1962              		@ args = 0, pretend = 0, frame = 0
 1963              		@ frame_needed = 0, uses_anonymous_args = 0
 1964              		@ link register save eliminated.
 1965              	.LVL138:
 767:..\u8g2\csrc/u8g2_d_memory.c ****   #ifdef U8G2_USE_DYNAMIC_ALLOC
 768:..\u8g2\csrc/u8g2_d_memory.c ****   *page_cnt = 1;
 769:..\u8g2\csrc/u8g2_d_memory.c ****   return 0;
 770:..\u8g2\csrc/u8g2_d_memory.c ****   #else
 771:..\u8g2\csrc/u8g2_d_memory.c ****   static uint8_t buf[192];
ARM GAS  C:\Users\brian\AppData\Local\Temp\ccmYYpDh.s 			page 49


 772:..\u8g2\csrc/u8g2_d_memory.c ****   *page_cnt = 1;
 1966              		.loc 1 772 0
 1967 0000 0123     		movs	r3, #1
 1968 0002 0370     		strb	r3, [r0]
 773:..\u8g2\csrc/u8g2_d_memory.c ****   return buf;
 774:..\u8g2\csrc/u8g2_d_memory.c ****   #endif
 775:..\u8g2\csrc/u8g2_d_memory.c **** }
 1969              		.loc 1 775 0
 1970 0004 0048     		ldr	r0, .L209
 1971              	.LVL139:
 1972 0006 7047     		bx	lr
 1973              	.L210:
 1974              		.align	2
 1975              	.L209:
 1976 0008 38D30000 		.word	.LANCHOR10+1944
 1977              		.cfi_endproc
 1978              	.LFE69:
 1979              		.size	u8g2_m_24_8_1, .-u8g2_m_24_8_1
 1980              		.section	.text.u8g2_m_24_8_2,"ax",%progbits
 1981              		.align	2
 1982              		.global	u8g2_m_24_8_2
 1983              		.thumb
 1984              		.thumb_func
 1985              		.type	u8g2_m_24_8_2, %function
 1986              	u8g2_m_24_8_2:
 1987              	.LFB70:
 776:..\u8g2\csrc/u8g2_d_memory.c **** uint8_t *u8g2_m_24_8_2(uint8_t *page_cnt)
 777:..\u8g2\csrc/u8g2_d_memory.c **** {
 1988              		.loc 1 777 0
 1989              		.cfi_startproc
 1990              		@ args = 0, pretend = 0, frame = 0
 1991              		@ frame_needed = 0, uses_anonymous_args = 0
 1992              		@ link register save eliminated.
 1993              	.LVL140:
 778:..\u8g2\csrc/u8g2_d_memory.c ****   #ifdef U8G2_USE_DYNAMIC_ALLOC
 779:..\u8g2\csrc/u8g2_d_memory.c ****   *page_cnt = 2;
 780:..\u8g2\csrc/u8g2_d_memory.c ****   return 0;
 781:..\u8g2\csrc/u8g2_d_memory.c ****   #else
 782:..\u8g2\csrc/u8g2_d_memory.c ****   static uint8_t buf[384];
 783:..\u8g2\csrc/u8g2_d_memory.c ****   *page_cnt = 2;
 1994              		.loc 1 783 0
 1995 0000 0223     		movs	r3, #2
 1996 0002 0370     		strb	r3, [r0]
 784:..\u8g2\csrc/u8g2_d_memory.c ****   return buf;
 785:..\u8g2\csrc/u8g2_d_memory.c ****   #endif
 786:..\u8g2\csrc/u8g2_d_memory.c **** }
 1997              		.loc 1 786 0
 1998 0004 0048     		ldr	r0, .L212
 1999              	.LVL141:
 2000 0006 7047     		bx	lr
 2001              	.L213:
 2002              		.align	2
 2003              	.L212:
 2004 0008 F8D30000 		.word	.LANCHOR10+2136
 2005              		.cfi_endproc
 2006              	.LFE70:
 2007              		.size	u8g2_m_24_8_2, .-u8g2_m_24_8_2
ARM GAS  C:\Users\brian\AppData\Local\Temp\ccmYYpDh.s 			page 50


 2008              		.section	.text.u8g2_m_24_8_f,"ax",%progbits
 2009              		.align	2
 2010              		.global	u8g2_m_24_8_f
 2011              		.thumb
 2012              		.thumb_func
 2013              		.type	u8g2_m_24_8_f, %function
 2014              	u8g2_m_24_8_f:
 2015              	.LFB71:
 787:..\u8g2\csrc/u8g2_d_memory.c **** uint8_t *u8g2_m_24_8_f(uint8_t *page_cnt)
 788:..\u8g2\csrc/u8g2_d_memory.c **** {
 2016              		.loc 1 788 0
 2017              		.cfi_startproc
 2018              		@ args = 0, pretend = 0, frame = 0
 2019              		@ frame_needed = 0, uses_anonymous_args = 0
 2020              		@ link register save eliminated.
 2021              	.LVL142:
 789:..\u8g2\csrc/u8g2_d_memory.c ****   #ifdef U8G2_USE_DYNAMIC_ALLOC
 790:..\u8g2\csrc/u8g2_d_memory.c ****   *page_cnt = 8;
 791:..\u8g2\csrc/u8g2_d_memory.c ****   return 0;
 792:..\u8g2\csrc/u8g2_d_memory.c ****   #else
 793:..\u8g2\csrc/u8g2_d_memory.c ****   static uint8_t buf[1536];
 794:..\u8g2\csrc/u8g2_d_memory.c ****   *page_cnt = 8;
 2022              		.loc 1 794 0
 2023 0000 0823     		movs	r3, #8
 2024 0002 0370     		strb	r3, [r0]
 795:..\u8g2\csrc/u8g2_d_memory.c ****   return buf;
 796:..\u8g2\csrc/u8g2_d_memory.c ****   #endif
 797:..\u8g2\csrc/u8g2_d_memory.c **** }
 2025              		.loc 1 797 0
 2026 0004 0048     		ldr	r0, .L215
 2027              	.LVL143:
 2028 0006 7047     		bx	lr
 2029              	.L216:
 2030              		.align	2
 2031              	.L215:
 2032 0008 78D50000 		.word	.LANCHOR10+2520
 2033              		.cfi_endproc
 2034              	.LFE71:
 2035              		.size	u8g2_m_24_8_f, .-u8g2_m_24_8_f
 2036              		.section	.text.u8g2_m_30_8_1,"ax",%progbits
 2037              		.align	2
 2038              		.global	u8g2_m_30_8_1
 2039              		.thumb
 2040              		.thumb_func
 2041              		.type	u8g2_m_30_8_1, %function
 2042              	u8g2_m_30_8_1:
 2043              	.LFB72:
 798:..\u8g2\csrc/u8g2_d_memory.c **** uint8_t *u8g2_m_30_8_1(uint8_t *page_cnt)
 799:..\u8g2\csrc/u8g2_d_memory.c **** {
 2044              		.loc 1 799 0
 2045              		.cfi_startproc
 2046              		@ args = 0, pretend = 0, frame = 0
 2047              		@ frame_needed = 0, uses_anonymous_args = 0
 2048              		@ link register save eliminated.
 2049              	.LVL144:
 800:..\u8g2\csrc/u8g2_d_memory.c ****   #ifdef U8G2_USE_DYNAMIC_ALLOC
 801:..\u8g2\csrc/u8g2_d_memory.c ****   *page_cnt = 1;
ARM GAS  C:\Users\brian\AppData\Local\Temp\ccmYYpDh.s 			page 51


 802:..\u8g2\csrc/u8g2_d_memory.c ****   return 0;
 803:..\u8g2\csrc/u8g2_d_memory.c ****   #else
 804:..\u8g2\csrc/u8g2_d_memory.c ****   static uint8_t buf[240];
 805:..\u8g2\csrc/u8g2_d_memory.c ****   *page_cnt = 1;
 2050              		.loc 1 805 0
 2051 0000 0123     		movs	r3, #1
 2052 0002 0370     		strb	r3, [r0]
 806:..\u8g2\csrc/u8g2_d_memory.c ****   return buf;
 807:..\u8g2\csrc/u8g2_d_memory.c ****   #endif
 808:..\u8g2\csrc/u8g2_d_memory.c **** }
 2053              		.loc 1 808 0
 2054 0004 0048     		ldr	r0, .L218
 2055              	.LVL145:
 2056 0006 7047     		bx	lr
 2057              	.L219:
 2058              		.align	2
 2059              	.L218:
 2060 0008 78DB0000 		.word	.LANCHOR10+4056
 2061              		.cfi_endproc
 2062              	.LFE72:
 2063              		.size	u8g2_m_30_8_1, .-u8g2_m_30_8_1
 2064              		.section	.text.u8g2_m_30_8_2,"ax",%progbits
 2065              		.align	2
 2066              		.global	u8g2_m_30_8_2
 2067              		.thumb
 2068              		.thumb_func
 2069              		.type	u8g2_m_30_8_2, %function
 2070              	u8g2_m_30_8_2:
 2071              	.LFB73:
 809:..\u8g2\csrc/u8g2_d_memory.c **** uint8_t *u8g2_m_30_8_2(uint8_t *page_cnt)
 810:..\u8g2\csrc/u8g2_d_memory.c **** {
 2072              		.loc 1 810 0
 2073              		.cfi_startproc
 2074              		@ args = 0, pretend = 0, frame = 0
 2075              		@ frame_needed = 0, uses_anonymous_args = 0
 2076              		@ link register save eliminated.
 2077              	.LVL146:
 811:..\u8g2\csrc/u8g2_d_memory.c ****   #ifdef U8G2_USE_DYNAMIC_ALLOC
 812:..\u8g2\csrc/u8g2_d_memory.c ****   *page_cnt = 2;
 813:..\u8g2\csrc/u8g2_d_memory.c ****   return 0;
 814:..\u8g2\csrc/u8g2_d_memory.c ****   #else
 815:..\u8g2\csrc/u8g2_d_memory.c ****   static uint8_t buf[480];
 816:..\u8g2\csrc/u8g2_d_memory.c ****   *page_cnt = 2;
 2078              		.loc 1 816 0
 2079 0000 0223     		movs	r3, #2
 2080 0002 0370     		strb	r3, [r0]
 817:..\u8g2\csrc/u8g2_d_memory.c ****   return buf;
 818:..\u8g2\csrc/u8g2_d_memory.c ****   #endif
 819:..\u8g2\csrc/u8g2_d_memory.c **** }
 2081              		.loc 1 819 0
 2082 0004 0048     		ldr	r0, .L221
 2083              	.LVL147:
 2084 0006 7047     		bx	lr
 2085              	.L222:
 2086              		.align	2
 2087              	.L221:
 2088 0008 68DC0000 		.word	.LANCHOR11-48
ARM GAS  C:\Users\brian\AppData\Local\Temp\ccmYYpDh.s 			page 52


 2089              		.cfi_endproc
 2090              	.LFE73:
 2091              		.size	u8g2_m_30_8_2, .-u8g2_m_30_8_2
 2092              		.section	.text.u8g2_m_30_8_f,"ax",%progbits
 2093              		.align	2
 2094              		.global	u8g2_m_30_8_f
 2095              		.thumb
 2096              		.thumb_func
 2097              		.type	u8g2_m_30_8_f, %function
 2098              	u8g2_m_30_8_f:
 2099              	.LFB74:
 820:..\u8g2\csrc/u8g2_d_memory.c **** uint8_t *u8g2_m_30_8_f(uint8_t *page_cnt)
 821:..\u8g2\csrc/u8g2_d_memory.c **** {
 2100              		.loc 1 821 0
 2101              		.cfi_startproc
 2102              		@ args = 0, pretend = 0, frame = 0
 2103              		@ frame_needed = 0, uses_anonymous_args = 0
 2104              		@ link register save eliminated.
 2105              	.LVL148:
 822:..\u8g2\csrc/u8g2_d_memory.c ****   #ifdef U8G2_USE_DYNAMIC_ALLOC
 823:..\u8g2\csrc/u8g2_d_memory.c ****   *page_cnt = 8;
 824:..\u8g2\csrc/u8g2_d_memory.c ****   return 0;
 825:..\u8g2\csrc/u8g2_d_memory.c ****   #else
 826:..\u8g2\csrc/u8g2_d_memory.c ****   static uint8_t buf[1920];
 827:..\u8g2\csrc/u8g2_d_memory.c ****   *page_cnt = 8;
 2106              		.loc 1 827 0
 2107 0000 0823     		movs	r3, #8
 2108 0002 0370     		strb	r3, [r0]
 828:..\u8g2\csrc/u8g2_d_memory.c ****   return buf;
 829:..\u8g2\csrc/u8g2_d_memory.c ****   #endif
 830:..\u8g2\csrc/u8g2_d_memory.c **** }
 2109              		.loc 1 830 0
 2110 0004 0048     		ldr	r0, .L224
 2111              	.LVL149:
 2112 0006 7047     		bx	lr
 2113              	.L225:
 2114              		.align	2
 2115              	.L224:
 2116 0008 48DE0000 		.word	.LANCHOR11+432
 2117              		.cfi_endproc
 2118              	.LFE74:
 2119              		.size	u8g2_m_30_8_f, .-u8g2_m_30_8_f
 2120              		.section	.text.u8g2_m_30_15_1,"ax",%progbits
 2121              		.align	2
 2122              		.global	u8g2_m_30_15_1
 2123              		.thumb
 2124              		.thumb_func
 2125              		.type	u8g2_m_30_15_1, %function
 2126              	u8g2_m_30_15_1:
 2127              	.LFB75:
 831:..\u8g2\csrc/u8g2_d_memory.c **** uint8_t *u8g2_m_30_15_1(uint8_t *page_cnt)
 832:..\u8g2\csrc/u8g2_d_memory.c **** {
 2128              		.loc 1 832 0
 2129              		.cfi_startproc
 2130              		@ args = 0, pretend = 0, frame = 0
 2131              		@ frame_needed = 0, uses_anonymous_args = 0
 2132              		@ link register save eliminated.
ARM GAS  C:\Users\brian\AppData\Local\Temp\ccmYYpDh.s 			page 53


 2133              	.LVL150:
 833:..\u8g2\csrc/u8g2_d_memory.c ****   #ifdef U8G2_USE_DYNAMIC_ALLOC
 834:..\u8g2\csrc/u8g2_d_memory.c ****   *page_cnt = 1;
 835:..\u8g2\csrc/u8g2_d_memory.c ****   return 0;
 836:..\u8g2\csrc/u8g2_d_memory.c ****   #else
 837:..\u8g2\csrc/u8g2_d_memory.c ****   static uint8_t buf[240];
 838:..\u8g2\csrc/u8g2_d_memory.c ****   *page_cnt = 1;
 2134              		.loc 1 838 0
 2135 0000 0123     		movs	r3, #1
 2136 0002 0370     		strb	r3, [r0]
 839:..\u8g2\csrc/u8g2_d_memory.c ****   return buf;
 840:..\u8g2\csrc/u8g2_d_memory.c ****   #endif
 841:..\u8g2\csrc/u8g2_d_memory.c **** }
 2137              		.loc 1 841 0
 2138 0004 0048     		ldr	r0, .L227
 2139              	.LVL151:
 2140 0006 7047     		bx	lr
 2141              	.L228:
 2142              		.align	2
 2143              	.L227:
 2144 0008 C8E50000 		.word	.LANCHOR11+2352
 2145              		.cfi_endproc
 2146              	.LFE75:
 2147              		.size	u8g2_m_30_15_1, .-u8g2_m_30_15_1
 2148              		.section	.text.u8g2_m_30_15_2,"ax",%progbits
 2149              		.align	2
 2150              		.global	u8g2_m_30_15_2
 2151              		.thumb
 2152              		.thumb_func
 2153              		.type	u8g2_m_30_15_2, %function
 2154              	u8g2_m_30_15_2:
 2155              	.LFB76:
 842:..\u8g2\csrc/u8g2_d_memory.c **** uint8_t *u8g2_m_30_15_2(uint8_t *page_cnt)
 843:..\u8g2\csrc/u8g2_d_memory.c **** {
 2156              		.loc 1 843 0
 2157              		.cfi_startproc
 2158              		@ args = 0, pretend = 0, frame = 0
 2159              		@ frame_needed = 0, uses_anonymous_args = 0
 2160              		@ link register save eliminated.
 2161              	.LVL152:
 844:..\u8g2\csrc/u8g2_d_memory.c ****   #ifdef U8G2_USE_DYNAMIC_ALLOC
 845:..\u8g2\csrc/u8g2_d_memory.c ****   *page_cnt = 2;
 846:..\u8g2\csrc/u8g2_d_memory.c ****   return 0;
 847:..\u8g2\csrc/u8g2_d_memory.c ****   #else
 848:..\u8g2\csrc/u8g2_d_memory.c ****   static uint8_t buf[480];
 849:..\u8g2\csrc/u8g2_d_memory.c ****   *page_cnt = 2;
 2162              		.loc 1 849 0
 2163 0000 0223     		movs	r3, #2
 2164 0002 0370     		strb	r3, [r0]
 850:..\u8g2\csrc/u8g2_d_memory.c ****   return buf;
 851:..\u8g2\csrc/u8g2_d_memory.c ****   #endif
 852:..\u8g2\csrc/u8g2_d_memory.c **** }
 2165              		.loc 1 852 0
 2166 0004 0048     		ldr	r0, .L230
 2167              	.LVL153:
 2168 0006 7047     		bx	lr
 2169              	.L231:
ARM GAS  C:\Users\brian\AppData\Local\Temp\ccmYYpDh.s 			page 54


 2170              		.align	2
 2171              	.L230:
 2172 0008 B8E60000 		.word	.LANCHOR11+2592
 2173              		.cfi_endproc
 2174              	.LFE76:
 2175              		.size	u8g2_m_30_15_2, .-u8g2_m_30_15_2
 2176              		.section	.text.u8g2_m_30_15_f,"ax",%progbits
 2177              		.align	2
 2178              		.global	u8g2_m_30_15_f
 2179              		.thumb
 2180              		.thumb_func
 2181              		.type	u8g2_m_30_15_f, %function
 2182              	u8g2_m_30_15_f:
 2183              	.LFB77:
 853:..\u8g2\csrc/u8g2_d_memory.c **** uint8_t *u8g2_m_30_15_f(uint8_t *page_cnt)
 854:..\u8g2\csrc/u8g2_d_memory.c **** {
 2184              		.loc 1 854 0
 2185              		.cfi_startproc
 2186              		@ args = 0, pretend = 0, frame = 0
 2187              		@ frame_needed = 0, uses_anonymous_args = 0
 2188              		@ link register save eliminated.
 2189              	.LVL154:
 855:..\u8g2\csrc/u8g2_d_memory.c ****   #ifdef U8G2_USE_DYNAMIC_ALLOC
 856:..\u8g2\csrc/u8g2_d_memory.c ****   *page_cnt = 15;
 857:..\u8g2\csrc/u8g2_d_memory.c ****   return 0;
 858:..\u8g2\csrc/u8g2_d_memory.c ****   #else
 859:..\u8g2\csrc/u8g2_d_memory.c ****   static uint8_t buf[3600];
 860:..\u8g2\csrc/u8g2_d_memory.c ****   *page_cnt = 15;
 2190              		.loc 1 860 0
 2191 0000 0F23     		movs	r3, #15
 2192 0002 0370     		strb	r3, [r0]
 861:..\u8g2\csrc/u8g2_d_memory.c ****   return buf;
 862:..\u8g2\csrc/u8g2_d_memory.c ****   #endif
 863:..\u8g2\csrc/u8g2_d_memory.c **** }
 2193              		.loc 1 863 0
 2194 0004 0048     		ldr	r0, .L233
 2195              	.LVL155:
 2196 0006 7047     		bx	lr
 2197              	.L234:
 2198              		.align	2
 2199              	.L233:
 2200 0008 98E80000 		.word	.LANCHOR11+3072
 2201              		.cfi_endproc
 2202              	.LFE77:
 2203              		.size	u8g2_m_30_15_f, .-u8g2_m_30_15_f
 2204              		.section	.text.u8g2_m_30_16_1,"ax",%progbits
 2205              		.align	2
 2206              		.global	u8g2_m_30_16_1
 2207              		.thumb
 2208              		.thumb_func
 2209              		.type	u8g2_m_30_16_1, %function
 2210              	u8g2_m_30_16_1:
 2211              	.LFB78:
 864:..\u8g2\csrc/u8g2_d_memory.c **** uint8_t *u8g2_m_30_16_1(uint8_t *page_cnt)
 865:..\u8g2\csrc/u8g2_d_memory.c **** {
 2212              		.loc 1 865 0
 2213              		.cfi_startproc
ARM GAS  C:\Users\brian\AppData\Local\Temp\ccmYYpDh.s 			page 55


 2214              		@ args = 0, pretend = 0, frame = 0
 2215              		@ frame_needed = 0, uses_anonymous_args = 0
 2216              		@ link register save eliminated.
 2217              	.LVL156:
 866:..\u8g2\csrc/u8g2_d_memory.c ****   #ifdef U8G2_USE_DYNAMIC_ALLOC
 867:..\u8g2\csrc/u8g2_d_memory.c ****   *page_cnt = 1;
 868:..\u8g2\csrc/u8g2_d_memory.c ****   return 0;
 869:..\u8g2\csrc/u8g2_d_memory.c ****   #else
 870:..\u8g2\csrc/u8g2_d_memory.c ****   static uint8_t buf[240];
 871:..\u8g2\csrc/u8g2_d_memory.c ****   *page_cnt = 1;
 2218              		.loc 1 871 0
 2219 0000 0123     		movs	r3, #1
 2220 0002 0370     		strb	r3, [r0]
 872:..\u8g2\csrc/u8g2_d_memory.c ****   return buf;
 873:..\u8g2\csrc/u8g2_d_memory.c ****   #endif
 874:..\u8g2\csrc/u8g2_d_memory.c **** }
 2221              		.loc 1 874 0
 2222 0004 0048     		ldr	r0, .L236
 2223              	.LVL157:
 2224 0006 7047     		bx	lr
 2225              	.L237:
 2226              		.align	2
 2227              	.L236:
 2228 0008 A8F60000 		.word	.LANCHOR12+2328
 2229              		.cfi_endproc
 2230              	.LFE78:
 2231              		.size	u8g2_m_30_16_1, .-u8g2_m_30_16_1
 2232              		.section	.text.u8g2_m_30_16_2,"ax",%progbits
 2233              		.align	2
 2234              		.global	u8g2_m_30_16_2
 2235              		.thumb
 2236              		.thumb_func
 2237              		.type	u8g2_m_30_16_2, %function
 2238              	u8g2_m_30_16_2:
 2239              	.LFB79:
 875:..\u8g2\csrc/u8g2_d_memory.c **** uint8_t *u8g2_m_30_16_2(uint8_t *page_cnt)
 876:..\u8g2\csrc/u8g2_d_memory.c **** {
 2240              		.loc 1 876 0
 2241              		.cfi_startproc
 2242              		@ args = 0, pretend = 0, frame = 0
 2243              		@ frame_needed = 0, uses_anonymous_args = 0
 2244              		@ link register save eliminated.
 2245              	.LVL158:
 877:..\u8g2\csrc/u8g2_d_memory.c ****   #ifdef U8G2_USE_DYNAMIC_ALLOC
 878:..\u8g2\csrc/u8g2_d_memory.c ****   *page_cnt = 2;
 879:..\u8g2\csrc/u8g2_d_memory.c ****   return 0;
 880:..\u8g2\csrc/u8g2_d_memory.c ****   #else
 881:..\u8g2\csrc/u8g2_d_memory.c ****   static uint8_t buf[480];
 882:..\u8g2\csrc/u8g2_d_memory.c ****   *page_cnt = 2;
 2246              		.loc 1 882 0
 2247 0000 0223     		movs	r3, #2
 2248 0002 0370     		strb	r3, [r0]
 883:..\u8g2\csrc/u8g2_d_memory.c ****   return buf;
 884:..\u8g2\csrc/u8g2_d_memory.c ****   #endif
 885:..\u8g2\csrc/u8g2_d_memory.c **** }
 2249              		.loc 1 885 0
 2250 0004 0048     		ldr	r0, .L239
ARM GAS  C:\Users\brian\AppData\Local\Temp\ccmYYpDh.s 			page 56


 2251              	.LVL159:
 2252 0006 7047     		bx	lr
 2253              	.L240:
 2254              		.align	2
 2255              	.L239:
 2256 0008 98F70000 		.word	.LANCHOR12+2568
 2257              		.cfi_endproc
 2258              	.LFE79:
 2259              		.size	u8g2_m_30_16_2, .-u8g2_m_30_16_2
 2260              		.section	.text.u8g2_m_30_16_f,"ax",%progbits
 2261              		.align	2
 2262              		.global	u8g2_m_30_16_f
 2263              		.thumb
 2264              		.thumb_func
 2265              		.type	u8g2_m_30_16_f, %function
 2266              	u8g2_m_30_16_f:
 2267              	.LFB80:
 886:..\u8g2\csrc/u8g2_d_memory.c **** uint8_t *u8g2_m_30_16_f(uint8_t *page_cnt)
 887:..\u8g2\csrc/u8g2_d_memory.c **** {
 2268              		.loc 1 887 0
 2269              		.cfi_startproc
 2270              		@ args = 0, pretend = 0, frame = 0
 2271              		@ frame_needed = 0, uses_anonymous_args = 0
 2272              		@ link register save eliminated.
 2273              	.LVL160:
 888:..\u8g2\csrc/u8g2_d_memory.c ****   #ifdef U8G2_USE_DYNAMIC_ALLOC
 889:..\u8g2\csrc/u8g2_d_memory.c ****   *page_cnt = 16;
 890:..\u8g2\csrc/u8g2_d_memory.c ****   return 0;
 891:..\u8g2\csrc/u8g2_d_memory.c ****   #else
 892:..\u8g2\csrc/u8g2_d_memory.c ****   static uint8_t buf[3840];
 893:..\u8g2\csrc/u8g2_d_memory.c ****   *page_cnt = 16;
 2274              		.loc 1 893 0
 2275 0000 1023     		movs	r3, #16
 2276 0002 0370     		strb	r3, [r0]
 894:..\u8g2\csrc/u8g2_d_memory.c ****   return buf;
 895:..\u8g2\csrc/u8g2_d_memory.c ****   #endif
 896:..\u8g2\csrc/u8g2_d_memory.c **** }
 2277              		.loc 1 896 0
 2278 0004 0048     		ldr	r0, .L242
 2279              	.LVL161:
 2280 0006 7047     		bx	lr
 2281              	.L243:
 2282              		.align	2
 2283              	.L242:
 2284 0008 78F90000 		.word	.LANCHOR12+3048
 2285              		.cfi_endproc
 2286              	.LFE80:
 2287              		.size	u8g2_m_30_16_f, .-u8g2_m_30_16_f
 2288              		.section	.text.u8g2_m_20_16_1,"ax",%progbits
 2289              		.align	2
 2290              		.global	u8g2_m_20_16_1
 2291              		.thumb
 2292              		.thumb_func
 2293              		.type	u8g2_m_20_16_1, %function
 2294              	u8g2_m_20_16_1:
 2295              	.LFB81:
 897:..\u8g2\csrc/u8g2_d_memory.c **** uint8_t *u8g2_m_20_16_1(uint8_t *page_cnt)
ARM GAS  C:\Users\brian\AppData\Local\Temp\ccmYYpDh.s 			page 57


 898:..\u8g2\csrc/u8g2_d_memory.c **** {
 2296              		.loc 1 898 0
 2297              		.cfi_startproc
 2298              		@ args = 0, pretend = 0, frame = 0
 2299              		@ frame_needed = 0, uses_anonymous_args = 0
 2300              		@ link register save eliminated.
 2301              	.LVL162:
 899:..\u8g2\csrc/u8g2_d_memory.c ****   #ifdef U8G2_USE_DYNAMIC_ALLOC
 900:..\u8g2\csrc/u8g2_d_memory.c ****   *page_cnt = 1;
 901:..\u8g2\csrc/u8g2_d_memory.c ****   return 0;
 902:..\u8g2\csrc/u8g2_d_memory.c ****   #else
 903:..\u8g2\csrc/u8g2_d_memory.c ****   static uint8_t buf[160];
 904:..\u8g2\csrc/u8g2_d_memory.c ****   *page_cnt = 1;
 2302              		.loc 1 904 0
 2303 0000 0123     		movs	r3, #1
 2304 0002 0370     		strb	r3, [r0]
 905:..\u8g2\csrc/u8g2_d_memory.c ****   return buf;
 906:..\u8g2\csrc/u8g2_d_memory.c ****   #endif
 907:..\u8g2\csrc/u8g2_d_memory.c **** }
 2305              		.loc 1 907 0
 2306 0004 0048     		ldr	r0, .L245
 2307              	.LVL163:
 2308 0006 7047     		bx	lr
 2309              	.L246:
 2310              		.align	2
 2311              	.L245:
 2312 0008 78080100 		.word	.LANCHOR13+2544
 2313              		.cfi_endproc
 2314              	.LFE81:
 2315              		.size	u8g2_m_20_16_1, .-u8g2_m_20_16_1
 2316              		.section	.text.u8g2_m_20_16_2,"ax",%progbits
 2317              		.align	2
 2318              		.global	u8g2_m_20_16_2
 2319              		.thumb
 2320              		.thumb_func
 2321              		.type	u8g2_m_20_16_2, %function
 2322              	u8g2_m_20_16_2:
 2323              	.LFB82:
 908:..\u8g2\csrc/u8g2_d_memory.c **** uint8_t *u8g2_m_20_16_2(uint8_t *page_cnt)
 909:..\u8g2\csrc/u8g2_d_memory.c **** {
 2324              		.loc 1 909 0
 2325              		.cfi_startproc
 2326              		@ args = 0, pretend = 0, frame = 0
 2327              		@ frame_needed = 0, uses_anonymous_args = 0
 2328              		@ link register save eliminated.
 2329              	.LVL164:
 910:..\u8g2\csrc/u8g2_d_memory.c ****   #ifdef U8G2_USE_DYNAMIC_ALLOC
 911:..\u8g2\csrc/u8g2_d_memory.c ****   *page_cnt = 2;
 912:..\u8g2\csrc/u8g2_d_memory.c ****   return 0;
 913:..\u8g2\csrc/u8g2_d_memory.c ****   #else
 914:..\u8g2\csrc/u8g2_d_memory.c ****   static uint8_t buf[320];
 915:..\u8g2\csrc/u8g2_d_memory.c ****   *page_cnt = 2;
 2330              		.loc 1 915 0
 2331 0000 0223     		movs	r3, #2
 2332 0002 0370     		strb	r3, [r0]
 916:..\u8g2\csrc/u8g2_d_memory.c ****   return buf;
 917:..\u8g2\csrc/u8g2_d_memory.c ****   #endif
ARM GAS  C:\Users\brian\AppData\Local\Temp\ccmYYpDh.s 			page 58


 918:..\u8g2\csrc/u8g2_d_memory.c **** }
 2333              		.loc 1 918 0
 2334 0004 0048     		ldr	r0, .L248
 2335              	.LVL165:
 2336 0006 7047     		bx	lr
 2337              	.L249:
 2338              		.align	2
 2339              	.L248:
 2340 0008 18090100 		.word	.LANCHOR13+2704
 2341              		.cfi_endproc
 2342              	.LFE82:
 2343              		.size	u8g2_m_20_16_2, .-u8g2_m_20_16_2
 2344              		.section	.text.u8g2_m_20_16_f,"ax",%progbits
 2345              		.align	2
 2346              		.global	u8g2_m_20_16_f
 2347              		.thumb
 2348              		.thumb_func
 2349              		.type	u8g2_m_20_16_f, %function
 2350              	u8g2_m_20_16_f:
 2351              	.LFB83:
 919:..\u8g2\csrc/u8g2_d_memory.c **** uint8_t *u8g2_m_20_16_f(uint8_t *page_cnt)
 920:..\u8g2\csrc/u8g2_d_memory.c **** {
 2352              		.loc 1 920 0
 2353              		.cfi_startproc
 2354              		@ args = 0, pretend = 0, frame = 0
 2355              		@ frame_needed = 0, uses_anonymous_args = 0
 2356              		@ link register save eliminated.
 2357              	.LVL166:
 921:..\u8g2\csrc/u8g2_d_memory.c ****   #ifdef U8G2_USE_DYNAMIC_ALLOC
 922:..\u8g2\csrc/u8g2_d_memory.c ****   *page_cnt = 16;
 923:..\u8g2\csrc/u8g2_d_memory.c ****   return 0;
 924:..\u8g2\csrc/u8g2_d_memory.c ****   #else
 925:..\u8g2\csrc/u8g2_d_memory.c ****   static uint8_t buf[2560];
 926:..\u8g2\csrc/u8g2_d_memory.c ****   *page_cnt = 16;
 2358              		.loc 1 926 0
 2359 0000 1023     		movs	r3, #16
 2360 0002 0370     		strb	r3, [r0]
 927:..\u8g2\csrc/u8g2_d_memory.c ****   return buf;
 928:..\u8g2\csrc/u8g2_d_memory.c ****   #endif
 929:..\u8g2\csrc/u8g2_d_memory.c **** }
 2361              		.loc 1 929 0
 2362 0004 0048     		ldr	r0, .L251
 2363              	.LVL167:
 2364 0006 7047     		bx	lr
 2365              	.L252:
 2366              		.align	2
 2367              	.L251:
 2368 0008 580A0100 		.word	.LANCHOR13+3024
 2369              		.cfi_endproc
 2370              	.LFE83:
 2371              		.size	u8g2_m_20_16_f, .-u8g2_m_20_16_f
 2372              		.section	.text.u8g2_m_24_12_1,"ax",%progbits
 2373              		.align	2
 2374              		.global	u8g2_m_24_12_1
 2375              		.thumb
 2376              		.thumb_func
 2377              		.type	u8g2_m_24_12_1, %function
ARM GAS  C:\Users\brian\AppData\Local\Temp\ccmYYpDh.s 			page 59


 2378              	u8g2_m_24_12_1:
 2379              	.LFB84:
 930:..\u8g2\csrc/u8g2_d_memory.c **** uint8_t *u8g2_m_24_12_1(uint8_t *page_cnt)
 931:..\u8g2\csrc/u8g2_d_memory.c **** {
 2380              		.loc 1 931 0
 2381              		.cfi_startproc
 2382              		@ args = 0, pretend = 0, frame = 0
 2383              		@ frame_needed = 0, uses_anonymous_args = 0
 2384              		@ link register save eliminated.
 2385              	.LVL168:
 932:..\u8g2\csrc/u8g2_d_memory.c ****   #ifdef U8G2_USE_DYNAMIC_ALLOC
 933:..\u8g2\csrc/u8g2_d_memory.c ****   *page_cnt = 1;
 934:..\u8g2\csrc/u8g2_d_memory.c ****   return 0;
 935:..\u8g2\csrc/u8g2_d_memory.c ****   #else
 936:..\u8g2\csrc/u8g2_d_memory.c ****   static uint8_t buf[192];
 937:..\u8g2\csrc/u8g2_d_memory.c ****   *page_cnt = 1;
 2386              		.loc 1 937 0
 2387 0000 0123     		movs	r3, #1
 2388 0002 0370     		strb	r3, [r0]
 938:..\u8g2\csrc/u8g2_d_memory.c ****   return buf;
 939:..\u8g2\csrc/u8g2_d_memory.c ****   #endif
 940:..\u8g2\csrc/u8g2_d_memory.c **** }
 2389              		.loc 1 940 0
 2390 0004 0048     		ldr	r0, .L254
 2391              	.LVL169:
 2392 0006 7047     		bx	lr
 2393              	.L255:
 2394              		.align	2
 2395              	.L254:
 2396 0008 58140100 		.word	.LANCHOR14+1240
 2397              		.cfi_endproc
 2398              	.LFE84:
 2399              		.size	u8g2_m_24_12_1, .-u8g2_m_24_12_1
 2400              		.section	.text.u8g2_m_24_12_2,"ax",%progbits
 2401              		.align	2
 2402              		.global	u8g2_m_24_12_2
 2403              		.thumb
 2404              		.thumb_func
 2405              		.type	u8g2_m_24_12_2, %function
 2406              	u8g2_m_24_12_2:
 2407              	.LFB85:
 941:..\u8g2\csrc/u8g2_d_memory.c **** uint8_t *u8g2_m_24_12_2(uint8_t *page_cnt)
 942:..\u8g2\csrc/u8g2_d_memory.c **** {
 2408              		.loc 1 942 0
 2409              		.cfi_startproc
 2410              		@ args = 0, pretend = 0, frame = 0
 2411              		@ frame_needed = 0, uses_anonymous_args = 0
 2412              		@ link register save eliminated.
 2413              	.LVL170:
 943:..\u8g2\csrc/u8g2_d_memory.c ****   #ifdef U8G2_USE_DYNAMIC_ALLOC
 944:..\u8g2\csrc/u8g2_d_memory.c ****   *page_cnt = 2;
 945:..\u8g2\csrc/u8g2_d_memory.c ****   return 0;
 946:..\u8g2\csrc/u8g2_d_memory.c ****   #else
 947:..\u8g2\csrc/u8g2_d_memory.c ****   static uint8_t buf[384];
 948:..\u8g2\csrc/u8g2_d_memory.c ****   *page_cnt = 2;
 2414              		.loc 1 948 0
 2415 0000 0223     		movs	r3, #2
ARM GAS  C:\Users\brian\AppData\Local\Temp\ccmYYpDh.s 			page 60


 2416 0002 0370     		strb	r3, [r0]
 949:..\u8g2\csrc/u8g2_d_memory.c ****   return buf;
 950:..\u8g2\csrc/u8g2_d_memory.c ****   #endif
 951:..\u8g2\csrc/u8g2_d_memory.c **** }
 2417              		.loc 1 951 0
 2418 0004 0048     		ldr	r0, .L257
 2419              	.LVL171:
 2420 0006 7047     		bx	lr
 2421              	.L258:
 2422              		.align	2
 2423              	.L257:
 2424 0008 18150100 		.word	.LANCHOR14+1432
 2425              		.cfi_endproc
 2426              	.LFE85:
 2427              		.size	u8g2_m_24_12_2, .-u8g2_m_24_12_2
 2428              		.section	.text.u8g2_m_24_12_f,"ax",%progbits
 2429              		.align	2
 2430              		.global	u8g2_m_24_12_f
 2431              		.thumb
 2432              		.thumb_func
 2433              		.type	u8g2_m_24_12_f, %function
 2434              	u8g2_m_24_12_f:
 2435              	.LFB86:
 952:..\u8g2\csrc/u8g2_d_memory.c **** uint8_t *u8g2_m_24_12_f(uint8_t *page_cnt)
 953:..\u8g2\csrc/u8g2_d_memory.c **** {
 2436              		.loc 1 953 0
 2437              		.cfi_startproc
 2438              		@ args = 0, pretend = 0, frame = 0
 2439              		@ frame_needed = 0, uses_anonymous_args = 0
 2440              		@ link register save eliminated.
 2441              	.LVL172:
 954:..\u8g2\csrc/u8g2_d_memory.c ****   #ifdef U8G2_USE_DYNAMIC_ALLOC
 955:..\u8g2\csrc/u8g2_d_memory.c ****   *page_cnt = 12;
 956:..\u8g2\csrc/u8g2_d_memory.c ****   return 0;
 957:..\u8g2\csrc/u8g2_d_memory.c ****   #else
 958:..\u8g2\csrc/u8g2_d_memory.c ****   static uint8_t buf[2304];
 959:..\u8g2\csrc/u8g2_d_memory.c ****   *page_cnt = 12;
 2442              		.loc 1 959 0
 2443 0000 0C23     		movs	r3, #12
 2444 0002 0370     		strb	r3, [r0]
 960:..\u8g2\csrc/u8g2_d_memory.c ****   return buf;
 961:..\u8g2\csrc/u8g2_d_memory.c ****   #endif
 962:..\u8g2\csrc/u8g2_d_memory.c **** }
 2445              		.loc 1 962 0
 2446 0004 0048     		ldr	r0, .L260
 2447              	.LVL173:
 2448 0006 7047     		bx	lr
 2449              	.L261:
 2450              		.align	2
 2451              	.L260:
 2452 0008 98160100 		.word	.LANCHOR14+1816
 2453              		.cfi_endproc
 2454              	.LFE86:
 2455              		.size	u8g2_m_24_12_f, .-u8g2_m_24_12_f
 2456              		.section	.text.u8g2_m_20_13_1,"ax",%progbits
 2457              		.align	2
 2458              		.global	u8g2_m_20_13_1
ARM GAS  C:\Users\brian\AppData\Local\Temp\ccmYYpDh.s 			page 61


 2459              		.thumb
 2460              		.thumb_func
 2461              		.type	u8g2_m_20_13_1, %function
 2462              	u8g2_m_20_13_1:
 2463              	.LFB87:
 963:..\u8g2\csrc/u8g2_d_memory.c **** uint8_t *u8g2_m_20_13_1(uint8_t *page_cnt)
 964:..\u8g2\csrc/u8g2_d_memory.c **** {
 2464              		.loc 1 964 0
 2465              		.cfi_startproc
 2466              		@ args = 0, pretend = 0, frame = 0
 2467              		@ frame_needed = 0, uses_anonymous_args = 0
 2468              		@ link register save eliminated.
 2469              	.LVL174:
 965:..\u8g2\csrc/u8g2_d_memory.c ****   #ifdef U8G2_USE_DYNAMIC_ALLOC
 966:..\u8g2\csrc/u8g2_d_memory.c ****   *page_cnt = 1;
 967:..\u8g2\csrc/u8g2_d_memory.c ****   return 0;
 968:..\u8g2\csrc/u8g2_d_memory.c ****   #else
 969:..\u8g2\csrc/u8g2_d_memory.c ****   static uint8_t buf[160];
 970:..\u8g2\csrc/u8g2_d_memory.c ****   *page_cnt = 1;
 2470              		.loc 1 970 0
 2471 0000 0123     		movs	r3, #1
 2472 0002 0370     		strb	r3, [r0]
 971:..\u8g2\csrc/u8g2_d_memory.c ****   return buf;
 972:..\u8g2\csrc/u8g2_d_memory.c ****   #endif
 973:..\u8g2\csrc/u8g2_d_memory.c **** }
 2473              		.loc 1 973 0
 2474 0004 0048     		ldr	r0, .L263
 2475              	.LVL175:
 2476 0006 7047     		bx	lr
 2477              	.L264:
 2478              		.align	2
 2479              	.L263:
 2480 0008 981F0100 		.word	.LANCHOR15-224
 2481              		.cfi_endproc
 2482              	.LFE87:
 2483              		.size	u8g2_m_20_13_1, .-u8g2_m_20_13_1
 2484              		.section	.text.u8g2_m_20_13_2,"ax",%progbits
 2485              		.align	2
 2486              		.global	u8g2_m_20_13_2
 2487              		.thumb
 2488              		.thumb_func
 2489              		.type	u8g2_m_20_13_2, %function
 2490              	u8g2_m_20_13_2:
 2491              	.LFB88:
 974:..\u8g2\csrc/u8g2_d_memory.c **** uint8_t *u8g2_m_20_13_2(uint8_t *page_cnt)
 975:..\u8g2\csrc/u8g2_d_memory.c **** {
 2492              		.loc 1 975 0
 2493              		.cfi_startproc
 2494              		@ args = 0, pretend = 0, frame = 0
 2495              		@ frame_needed = 0, uses_anonymous_args = 0
 2496              		@ link register save eliminated.
 2497              	.LVL176:
 976:..\u8g2\csrc/u8g2_d_memory.c ****   #ifdef U8G2_USE_DYNAMIC_ALLOC
 977:..\u8g2\csrc/u8g2_d_memory.c ****   *page_cnt = 2;
 978:..\u8g2\csrc/u8g2_d_memory.c ****   return 0;
 979:..\u8g2\csrc/u8g2_d_memory.c ****   #else
 980:..\u8g2\csrc/u8g2_d_memory.c ****   static uint8_t buf[320];
ARM GAS  C:\Users\brian\AppData\Local\Temp\ccmYYpDh.s 			page 62


 981:..\u8g2\csrc/u8g2_d_memory.c ****   *page_cnt = 2;
 2498              		.loc 1 981 0
 2499 0000 0223     		movs	r3, #2
 2500 0002 0370     		strb	r3, [r0]
 982:..\u8g2\csrc/u8g2_d_memory.c ****   return buf;
 983:..\u8g2\csrc/u8g2_d_memory.c ****   #endif
 984:..\u8g2\csrc/u8g2_d_memory.c **** }
 2501              		.loc 1 984 0
 2502 0004 0048     		ldr	r0, .L266
 2503              	.LVL177:
 2504 0006 7047     		bx	lr
 2505              	.L267:
 2506              		.align	2
 2507              	.L266:
 2508 0008 38200100 		.word	.LANCHOR15-64
 2509              		.cfi_endproc
 2510              	.LFE88:
 2511              		.size	u8g2_m_20_13_2, .-u8g2_m_20_13_2
 2512              		.section	.text.u8g2_m_20_13_f,"ax",%progbits
 2513              		.align	2
 2514              		.global	u8g2_m_20_13_f
 2515              		.thumb
 2516              		.thumb_func
 2517              		.type	u8g2_m_20_13_f, %function
 2518              	u8g2_m_20_13_f:
 2519              	.LFB89:
 985:..\u8g2\csrc/u8g2_d_memory.c **** uint8_t *u8g2_m_20_13_f(uint8_t *page_cnt)
 986:..\u8g2\csrc/u8g2_d_memory.c **** {
 2520              		.loc 1 986 0
 2521              		.cfi_startproc
 2522              		@ args = 0, pretend = 0, frame = 0
 2523              		@ frame_needed = 0, uses_anonymous_args = 0
 2524              		@ link register save eliminated.
 2525              	.LVL178:
 987:..\u8g2\csrc/u8g2_d_memory.c ****   #ifdef U8G2_USE_DYNAMIC_ALLOC
 988:..\u8g2\csrc/u8g2_d_memory.c ****   *page_cnt = 13;
 989:..\u8g2\csrc/u8g2_d_memory.c ****   return 0;
 990:..\u8g2\csrc/u8g2_d_memory.c ****   #else
 991:..\u8g2\csrc/u8g2_d_memory.c ****   static uint8_t buf[2080];
 992:..\u8g2\csrc/u8g2_d_memory.c ****   *page_cnt = 13;
 2526              		.loc 1 992 0
 2527 0000 0D23     		movs	r3, #13
 2528 0002 0370     		strb	r3, [r0]
 993:..\u8g2\csrc/u8g2_d_memory.c ****   return buf;
 994:..\u8g2\csrc/u8g2_d_memory.c ****   #endif
 995:..\u8g2\csrc/u8g2_d_memory.c **** }
 2529              		.loc 1 995 0
 2530 0004 0048     		ldr	r0, .L269
 2531              	.LVL179:
 2532 0006 7047     		bx	lr
 2533              	.L270:
 2534              		.align	2
 2535              	.L269:
 2536 0008 78210100 		.word	.LANCHOR15+256
 2537              		.cfi_endproc
 2538              	.LFE89:
 2539              		.size	u8g2_m_20_13_f, .-u8g2_m_20_13_f
ARM GAS  C:\Users\brian\AppData\Local\Temp\ccmYYpDh.s 			page 63


 2540              		.section	.text.u8g2_m_30_20_1,"ax",%progbits
 2541              		.align	2
 2542              		.global	u8g2_m_30_20_1
 2543              		.thumb
 2544              		.thumb_func
 2545              		.type	u8g2_m_30_20_1, %function
 2546              	u8g2_m_30_20_1:
 2547              	.LFB90:
 996:..\u8g2\csrc/u8g2_d_memory.c **** uint8_t *u8g2_m_30_20_1(uint8_t *page_cnt)
 997:..\u8g2\csrc/u8g2_d_memory.c **** {
 2548              		.loc 1 997 0
 2549              		.cfi_startproc
 2550              		@ args = 0, pretend = 0, frame = 0
 2551              		@ frame_needed = 0, uses_anonymous_args = 0
 2552              		@ link register save eliminated.
 2553              	.LVL180:
 998:..\u8g2\csrc/u8g2_d_memory.c ****   #ifdef U8G2_USE_DYNAMIC_ALLOC
 999:..\u8g2\csrc/u8g2_d_memory.c ****   *page_cnt = 1;
1000:..\u8g2\csrc/u8g2_d_memory.c ****   return 0;
1001:..\u8g2\csrc/u8g2_d_memory.c ****   #else
1002:..\u8g2\csrc/u8g2_d_memory.c ****   static uint8_t buf[240];
1003:..\u8g2\csrc/u8g2_d_memory.c ****   *page_cnt = 1;
 2554              		.loc 1 1003 0
 2555 0000 0123     		movs	r3, #1
 2556 0002 0370     		strb	r3, [r0]
1004:..\u8g2\csrc/u8g2_d_memory.c ****   return buf;
1005:..\u8g2\csrc/u8g2_d_memory.c ****   #endif
1006:..\u8g2\csrc/u8g2_d_memory.c **** }
 2557              		.loc 1 1006 0
 2558 0004 0048     		ldr	r0, .L272
 2559              	.LVL181:
 2560 0006 7047     		bx	lr
 2561              	.L273:
 2562              		.align	2
 2563              	.L272:
 2564 0008 98290100 		.word	.LANCHOR15+2336
 2565              		.cfi_endproc
 2566              	.LFE90:
 2567              		.size	u8g2_m_30_20_1, .-u8g2_m_30_20_1
 2568              		.section	.text.u8g2_m_30_20_2,"ax",%progbits
 2569              		.align	2
 2570              		.global	u8g2_m_30_20_2
 2571              		.thumb
 2572              		.thumb_func
 2573              		.type	u8g2_m_30_20_2, %function
 2574              	u8g2_m_30_20_2:
 2575              	.LFB91:
1007:..\u8g2\csrc/u8g2_d_memory.c **** uint8_t *u8g2_m_30_20_2(uint8_t *page_cnt)
1008:..\u8g2\csrc/u8g2_d_memory.c **** {
 2576              		.loc 1 1008 0
 2577              		.cfi_startproc
 2578              		@ args = 0, pretend = 0, frame = 0
 2579              		@ frame_needed = 0, uses_anonymous_args = 0
 2580              		@ link register save eliminated.
 2581              	.LVL182:
1009:..\u8g2\csrc/u8g2_d_memory.c ****   #ifdef U8G2_USE_DYNAMIC_ALLOC
1010:..\u8g2\csrc/u8g2_d_memory.c ****   *page_cnt = 2;
ARM GAS  C:\Users\brian\AppData\Local\Temp\ccmYYpDh.s 			page 64


1011:..\u8g2\csrc/u8g2_d_memory.c ****   return 0;
1012:..\u8g2\csrc/u8g2_d_memory.c ****   #else
1013:..\u8g2\csrc/u8g2_d_memory.c ****   static uint8_t buf[480];
1014:..\u8g2\csrc/u8g2_d_memory.c ****   *page_cnt = 2;
 2582              		.loc 1 1014 0
 2583 0000 0223     		movs	r3, #2
 2584 0002 0370     		strb	r3, [r0]
1015:..\u8g2\csrc/u8g2_d_memory.c ****   return buf;
1016:..\u8g2\csrc/u8g2_d_memory.c ****   #endif
1017:..\u8g2\csrc/u8g2_d_memory.c **** }
 2585              		.loc 1 1017 0
 2586 0004 0048     		ldr	r0, .L275
 2587              	.LVL183:
 2588 0006 7047     		bx	lr
 2589              	.L276:
 2590              		.align	2
 2591              	.L275:
 2592 0008 882A0100 		.word	.LANCHOR15+2576
 2593              		.cfi_endproc
 2594              	.LFE91:
 2595              		.size	u8g2_m_30_20_2, .-u8g2_m_30_20_2
 2596              		.section	.text.u8g2_m_30_20_f,"ax",%progbits
 2597              		.align	2
 2598              		.global	u8g2_m_30_20_f
 2599              		.thumb
 2600              		.thumb_func
 2601              		.type	u8g2_m_30_20_f, %function
 2602              	u8g2_m_30_20_f:
 2603              	.LFB92:
1018:..\u8g2\csrc/u8g2_d_memory.c **** uint8_t *u8g2_m_30_20_f(uint8_t *page_cnt)
1019:..\u8g2\csrc/u8g2_d_memory.c **** {
 2604              		.loc 1 1019 0
 2605              		.cfi_startproc
 2606              		@ args = 0, pretend = 0, frame = 0
 2607              		@ frame_needed = 0, uses_anonymous_args = 0
 2608              		@ link register save eliminated.
 2609              	.LVL184:
1020:..\u8g2\csrc/u8g2_d_memory.c ****   #ifdef U8G2_USE_DYNAMIC_ALLOC
1021:..\u8g2\csrc/u8g2_d_memory.c ****   *page_cnt = 20;
1022:..\u8g2\csrc/u8g2_d_memory.c ****   return 0;
1023:..\u8g2\csrc/u8g2_d_memory.c ****   #else
1024:..\u8g2\csrc/u8g2_d_memory.c ****   static uint8_t buf[4800];
1025:..\u8g2\csrc/u8g2_d_memory.c ****   *page_cnt = 20;
 2610              		.loc 1 1025 0
 2611 0000 1423     		movs	r3, #20
 2612 0002 0370     		strb	r3, [r0]
1026:..\u8g2\csrc/u8g2_d_memory.c ****   return buf;
1027:..\u8g2\csrc/u8g2_d_memory.c ****   #endif
1028:..\u8g2\csrc/u8g2_d_memory.c **** }
 2613              		.loc 1 1028 0
 2614 0004 0048     		ldr	r0, .L278
 2615              	.LVL185:
 2616 0006 7047     		bx	lr
 2617              	.L279:
 2618              		.align	2
 2619              	.L278:
 2620 0008 682C0100 		.word	.LANCHOR15+3056
ARM GAS  C:\Users\brian\AppData\Local\Temp\ccmYYpDh.s 			page 65


 2621              		.cfi_endproc
 2622              	.LFE92:
 2623              		.size	u8g2_m_30_20_f, .-u8g2_m_30_20_f
 2624              		.section	.text.u8g2_m_32_16_1,"ax",%progbits
 2625              		.align	2
 2626              		.global	u8g2_m_32_16_1
 2627              		.thumb
 2628              		.thumb_func
 2629              		.type	u8g2_m_32_16_1, %function
 2630              	u8g2_m_32_16_1:
 2631              	.LFB93:
1029:..\u8g2\csrc/u8g2_d_memory.c **** uint8_t *u8g2_m_32_16_1(uint8_t *page_cnt)
1030:..\u8g2\csrc/u8g2_d_memory.c **** {
 2632              		.loc 1 1030 0
 2633              		.cfi_startproc
 2634              		@ args = 0, pretend = 0, frame = 0
 2635              		@ frame_needed = 0, uses_anonymous_args = 0
 2636              		@ link register save eliminated.
 2637              	.LVL186:
1031:..\u8g2\csrc/u8g2_d_memory.c ****   #ifdef U8G2_USE_DYNAMIC_ALLOC
1032:..\u8g2\csrc/u8g2_d_memory.c ****   *page_cnt = 1;
1033:..\u8g2\csrc/u8g2_d_memory.c ****   return 0;
1034:..\u8g2\csrc/u8g2_d_memory.c ****   #else
1035:..\u8g2\csrc/u8g2_d_memory.c ****   static uint8_t buf[256];
1036:..\u8g2\csrc/u8g2_d_memory.c ****   *page_cnt = 1;
 2638              		.loc 1 1036 0
 2639 0000 0123     		movs	r3, #1
 2640 0002 0370     		strb	r3, [r0]
1037:..\u8g2\csrc/u8g2_d_memory.c ****   return buf;
1038:..\u8g2\csrc/u8g2_d_memory.c ****   #endif
1039:..\u8g2\csrc/u8g2_d_memory.c **** }
 2641              		.loc 1 1039 0
 2642 0004 0048     		ldr	r0, .L281
 2643              	.LVL187:
 2644 0006 7047     		bx	lr
 2645              	.L282:
 2646              		.align	2
 2647              	.L281:
 2648 0008 283F0100 		.word	.LANCHOR16+3512
 2649              		.cfi_endproc
 2650              	.LFE93:
 2651              		.size	u8g2_m_32_16_1, .-u8g2_m_32_16_1
 2652              		.section	.text.u8g2_m_32_16_2,"ax",%progbits
 2653              		.align	2
 2654              		.global	u8g2_m_32_16_2
 2655              		.thumb
 2656              		.thumb_func
 2657              		.type	u8g2_m_32_16_2, %function
 2658              	u8g2_m_32_16_2:
 2659              	.LFB94:
1040:..\u8g2\csrc/u8g2_d_memory.c **** uint8_t *u8g2_m_32_16_2(uint8_t *page_cnt)
1041:..\u8g2\csrc/u8g2_d_memory.c **** {
 2660              		.loc 1 1041 0
 2661              		.cfi_startproc
 2662              		@ args = 0, pretend = 0, frame = 0
 2663              		@ frame_needed = 0, uses_anonymous_args = 0
 2664              		@ link register save eliminated.
ARM GAS  C:\Users\brian\AppData\Local\Temp\ccmYYpDh.s 			page 66


 2665              	.LVL188:
1042:..\u8g2\csrc/u8g2_d_memory.c ****   #ifdef U8G2_USE_DYNAMIC_ALLOC
1043:..\u8g2\csrc/u8g2_d_memory.c ****   *page_cnt = 2;
1044:..\u8g2\csrc/u8g2_d_memory.c ****   return 0;
1045:..\u8g2\csrc/u8g2_d_memory.c ****   #else
1046:..\u8g2\csrc/u8g2_d_memory.c ****   static uint8_t buf[512];
1047:..\u8g2\csrc/u8g2_d_memory.c ****   *page_cnt = 2;
 2666              		.loc 1 1047 0
 2667 0000 0223     		movs	r3, #2
 2668 0002 0370     		strb	r3, [r0]
1048:..\u8g2\csrc/u8g2_d_memory.c ****   return buf;
1049:..\u8g2\csrc/u8g2_d_memory.c ****   #endif
1050:..\u8g2\csrc/u8g2_d_memory.c **** }
 2669              		.loc 1 1050 0
 2670 0004 0048     		ldr	r0, .L284
 2671              	.LVL189:
 2672 0006 7047     		bx	lr
 2673              	.L285:
 2674              		.align	2
 2675              	.L284:
 2676 0008 28400100 		.word	.LANCHOR16+3768
 2677              		.cfi_endproc
 2678              	.LFE94:
 2679              		.size	u8g2_m_32_16_2, .-u8g2_m_32_16_2
 2680              		.section	.text.u8g2_m_32_16_f,"ax",%progbits
 2681              		.align	2
 2682              		.global	u8g2_m_32_16_f
 2683              		.thumb
 2684              		.thumb_func
 2685              		.type	u8g2_m_32_16_f, %function
 2686              	u8g2_m_32_16_f:
 2687              	.LFB95:
1051:..\u8g2\csrc/u8g2_d_memory.c **** uint8_t *u8g2_m_32_16_f(uint8_t *page_cnt)
1052:..\u8g2\csrc/u8g2_d_memory.c **** {
 2688              		.loc 1 1052 0
 2689              		.cfi_startproc
 2690              		@ args = 0, pretend = 0, frame = 0
 2691              		@ frame_needed = 0, uses_anonymous_args = 0
 2692              		@ link register save eliminated.
 2693              	.LVL190:
1053:..\u8g2\csrc/u8g2_d_memory.c ****   #ifdef U8G2_USE_DYNAMIC_ALLOC
1054:..\u8g2\csrc/u8g2_d_memory.c ****   *page_cnt = 16;
1055:..\u8g2\csrc/u8g2_d_memory.c ****   return 0;
1056:..\u8g2\csrc/u8g2_d_memory.c ****   #else
1057:..\u8g2\csrc/u8g2_d_memory.c ****   static uint8_t buf[4096];
1058:..\u8g2\csrc/u8g2_d_memory.c ****   *page_cnt = 16;
 2694              		.loc 1 1058 0
 2695 0000 1023     		movs	r3, #16
 2696 0002 0370     		strb	r3, [r0]
1059:..\u8g2\csrc/u8g2_d_memory.c ****   return buf;
1060:..\u8g2\csrc/u8g2_d_memory.c ****   #endif
1061:..\u8g2\csrc/u8g2_d_memory.c **** }
 2697              		.loc 1 1061 0
 2698 0004 0048     		ldr	r0, .L287
 2699              	.LVL191:
 2700 0006 7047     		bx	lr
 2701              	.L288:
ARM GAS  C:\Users\brian\AppData\Local\Temp\ccmYYpDh.s 			page 67


 2702              		.align	2
 2703              	.L287:
 2704 0008 28420100 		.word	.LANCHOR17-64
 2705              		.cfi_endproc
 2706              	.LFE95:
 2707              		.size	u8g2_m_32_16_f, .-u8g2_m_32_16_f
 2708              		.section	.text.u8g2_m_40_30_1,"ax",%progbits
 2709              		.align	2
 2710              		.global	u8g2_m_40_30_1
 2711              		.thumb
 2712              		.thumb_func
 2713              		.type	u8g2_m_40_30_1, %function
 2714              	u8g2_m_40_30_1:
 2715              	.LFB96:
1062:..\u8g2\csrc/u8g2_d_memory.c **** uint8_t *u8g2_m_40_30_1(uint8_t *page_cnt)
1063:..\u8g2\csrc/u8g2_d_memory.c **** {
 2716              		.loc 1 1063 0
 2717              		.cfi_startproc
 2718              		@ args = 0, pretend = 0, frame = 0
 2719              		@ frame_needed = 0, uses_anonymous_args = 0
 2720              		@ link register save eliminated.
 2721              	.LVL192:
1064:..\u8g2\csrc/u8g2_d_memory.c ****   #ifdef U8G2_USE_DYNAMIC_ALLOC
1065:..\u8g2\csrc/u8g2_d_memory.c ****   *page_cnt = 1;
1066:..\u8g2\csrc/u8g2_d_memory.c ****   return 0;
1067:..\u8g2\csrc/u8g2_d_memory.c ****   #else
1068:..\u8g2\csrc/u8g2_d_memory.c ****   static uint8_t buf[320];
1069:..\u8g2\csrc/u8g2_d_memory.c ****   *page_cnt = 1;
 2722              		.loc 1 1069 0
 2723 0000 0123     		movs	r3, #1
 2724 0002 0370     		strb	r3, [r0]
1070:..\u8g2\csrc/u8g2_d_memory.c ****   return buf;
1071:..\u8g2\csrc/u8g2_d_memory.c ****   #endif
1072:..\u8g2\csrc/u8g2_d_memory.c **** }
 2725              		.loc 1 1072 0
 2726 0004 0048     		ldr	r0, .L290
 2727              	.LVL193:
 2728 0006 7047     		bx	lr
 2729              	.L291:
 2730              		.align	2
 2731              	.L290:
 2732 0008 28520100 		.word	.LANCHOR17+4032
 2733              		.cfi_endproc
 2734              	.LFE96:
 2735              		.size	u8g2_m_40_30_1, .-u8g2_m_40_30_1
 2736              		.section	.text.u8g2_m_40_30_2,"ax",%progbits
 2737              		.align	2
 2738              		.global	u8g2_m_40_30_2
 2739              		.thumb
 2740              		.thumb_func
 2741              		.type	u8g2_m_40_30_2, %function
 2742              	u8g2_m_40_30_2:
 2743              	.LFB97:
1073:..\u8g2\csrc/u8g2_d_memory.c **** uint8_t *u8g2_m_40_30_2(uint8_t *page_cnt)
1074:..\u8g2\csrc/u8g2_d_memory.c **** {
 2744              		.loc 1 1074 0
 2745              		.cfi_startproc
ARM GAS  C:\Users\brian\AppData\Local\Temp\ccmYYpDh.s 			page 68


 2746              		@ args = 0, pretend = 0, frame = 0
 2747              		@ frame_needed = 0, uses_anonymous_args = 0
 2748              		@ link register save eliminated.
 2749              	.LVL194:
1075:..\u8g2\csrc/u8g2_d_memory.c ****   #ifdef U8G2_USE_DYNAMIC_ALLOC
1076:..\u8g2\csrc/u8g2_d_memory.c ****   *page_cnt = 2;
1077:..\u8g2\csrc/u8g2_d_memory.c ****   return 0;
1078:..\u8g2\csrc/u8g2_d_memory.c ****   #else
1079:..\u8g2\csrc/u8g2_d_memory.c ****   static uint8_t buf[640];
1080:..\u8g2\csrc/u8g2_d_memory.c ****   *page_cnt = 2;
 2750              		.loc 1 1080 0
 2751 0000 0223     		movs	r3, #2
 2752 0002 0370     		strb	r3, [r0]
1081:..\u8g2\csrc/u8g2_d_memory.c ****   return buf;
1082:..\u8g2\csrc/u8g2_d_memory.c ****   #endif
1083:..\u8g2\csrc/u8g2_d_memory.c **** }
 2753              		.loc 1 1083 0
 2754 0004 0048     		ldr	r0, .L293
 2755              	.LVL195:
 2756 0006 7047     		bx	lr
 2757              	.L294:
 2758              		.align	2
 2759              	.L293:
 2760 0008 68530100 		.word	.LANCHOR18+8
 2761              		.cfi_endproc
 2762              	.LFE97:
 2763              		.size	u8g2_m_40_30_2, .-u8g2_m_40_30_2
 2764              		.section	.text.u8g2_m_40_30_f,"ax",%progbits
 2765              		.align	2
 2766              		.global	u8g2_m_40_30_f
 2767              		.thumb
 2768              		.thumb_func
 2769              		.type	u8g2_m_40_30_f, %function
 2770              	u8g2_m_40_30_f:
 2771              	.LFB98:
1084:..\u8g2\csrc/u8g2_d_memory.c **** uint8_t *u8g2_m_40_30_f(uint8_t *page_cnt)
1085:..\u8g2\csrc/u8g2_d_memory.c **** {
 2772              		.loc 1 1085 0
 2773              		.cfi_startproc
 2774              		@ args = 0, pretend = 0, frame = 0
 2775              		@ frame_needed = 0, uses_anonymous_args = 0
 2776              		@ link register save eliminated.
 2777              	.LVL196:
1086:..\u8g2\csrc/u8g2_d_memory.c ****   #ifdef U8G2_USE_DYNAMIC_ALLOC
1087:..\u8g2\csrc/u8g2_d_memory.c ****   *page_cnt = 30;
1088:..\u8g2\csrc/u8g2_d_memory.c ****   return 0;
1089:..\u8g2\csrc/u8g2_d_memory.c ****   #else
1090:..\u8g2\csrc/u8g2_d_memory.c ****   static uint8_t buf[9600];
1091:..\u8g2\csrc/u8g2_d_memory.c ****   *page_cnt = 30;
 2778              		.loc 1 1091 0
 2779 0000 1E23     		movs	r3, #30
 2780 0002 0370     		strb	r3, [r0]
1092:..\u8g2\csrc/u8g2_d_memory.c ****   return buf;
1093:..\u8g2\csrc/u8g2_d_memory.c ****   #endif
1094:..\u8g2\csrc/u8g2_d_memory.c **** }
 2781              		.loc 1 1094 0
 2782 0004 0048     		ldr	r0, .L296
ARM GAS  C:\Users\brian\AppData\Local\Temp\ccmYYpDh.s 			page 69


 2783              	.LVL197:
 2784 0006 7047     		bx	lr
 2785              	.L297:
 2786              		.align	2
 2787              	.L296:
 2788 0008 E8550100 		.word	.LANCHOR18+648
 2789              		.cfi_endproc
 2790              	.LFE98:
 2791              		.size	u8g2_m_40_30_f, .-u8g2_m_40_30_f
 2792              		.section	.text.u8g2_m_20_8_1,"ax",%progbits
 2793              		.align	2
 2794              		.global	u8g2_m_20_8_1
 2795              		.thumb
 2796              		.thumb_func
 2797              		.type	u8g2_m_20_8_1, %function
 2798              	u8g2_m_20_8_1:
 2799              	.LFB99:
1095:..\u8g2\csrc/u8g2_d_memory.c **** uint8_t *u8g2_m_20_8_1(uint8_t *page_cnt)
1096:..\u8g2\csrc/u8g2_d_memory.c **** {
 2800              		.loc 1 1096 0
 2801              		.cfi_startproc
 2802              		@ args = 0, pretend = 0, frame = 0
 2803              		@ frame_needed = 0, uses_anonymous_args = 0
 2804              		@ link register save eliminated.
 2805              	.LVL198:
1097:..\u8g2\csrc/u8g2_d_memory.c ****   #ifdef U8G2_USE_DYNAMIC_ALLOC
1098:..\u8g2\csrc/u8g2_d_memory.c ****   *page_cnt = 1;
1099:..\u8g2\csrc/u8g2_d_memory.c ****   return 0;
1100:..\u8g2\csrc/u8g2_d_memory.c ****   #else
1101:..\u8g2\csrc/u8g2_d_memory.c ****   static uint8_t buf[160];
1102:..\u8g2\csrc/u8g2_d_memory.c ****   *page_cnt = 1;
 2806              		.loc 1 1102 0
 2807 0000 0123     		movs	r3, #1
 2808 0002 0370     		strb	r3, [r0]
1103:..\u8g2\csrc/u8g2_d_memory.c ****   return buf;
1104:..\u8g2\csrc/u8g2_d_memory.c ****   #endif
1105:..\u8g2\csrc/u8g2_d_memory.c **** }
 2809              		.loc 1 1105 0
 2810 0004 0048     		ldr	r0, .L299
 2811              	.LVL199:
 2812 0006 7047     		bx	lr
 2813              	.L300:
 2814              		.align	2
 2815              	.L299:
 2816 0008 687B0100 		.word	.LANCHOR19+1560
 2817              		.cfi_endproc
 2818              	.LFE99:
 2819              		.size	u8g2_m_20_8_1, .-u8g2_m_20_8_1
 2820              		.section	.text.u8g2_m_20_8_2,"ax",%progbits
 2821              		.align	2
 2822              		.global	u8g2_m_20_8_2
 2823              		.thumb
 2824              		.thumb_func
 2825              		.type	u8g2_m_20_8_2, %function
 2826              	u8g2_m_20_8_2:
 2827              	.LFB100:
1106:..\u8g2\csrc/u8g2_d_memory.c **** uint8_t *u8g2_m_20_8_2(uint8_t *page_cnt)
ARM GAS  C:\Users\brian\AppData\Local\Temp\ccmYYpDh.s 			page 70


1107:..\u8g2\csrc/u8g2_d_memory.c **** {
 2828              		.loc 1 1107 0
 2829              		.cfi_startproc
 2830              		@ args = 0, pretend = 0, frame = 0
 2831              		@ frame_needed = 0, uses_anonymous_args = 0
 2832              		@ link register save eliminated.
 2833              	.LVL200:
1108:..\u8g2\csrc/u8g2_d_memory.c ****   #ifdef U8G2_USE_DYNAMIC_ALLOC
1109:..\u8g2\csrc/u8g2_d_memory.c ****   *page_cnt = 2;
1110:..\u8g2\csrc/u8g2_d_memory.c ****   return 0;
1111:..\u8g2\csrc/u8g2_d_memory.c ****   #else
1112:..\u8g2\csrc/u8g2_d_memory.c ****   static uint8_t buf[320];
1113:..\u8g2\csrc/u8g2_d_memory.c ****   *page_cnt = 2;
 2834              		.loc 1 1113 0
 2835 0000 0223     		movs	r3, #2
 2836 0002 0370     		strb	r3, [r0]
1114:..\u8g2\csrc/u8g2_d_memory.c ****   return buf;
1115:..\u8g2\csrc/u8g2_d_memory.c ****   #endif
1116:..\u8g2\csrc/u8g2_d_memory.c **** }
 2837              		.loc 1 1116 0
 2838 0004 0048     		ldr	r0, .L302
 2839              	.LVL201:
 2840 0006 7047     		bx	lr
 2841              	.L303:
 2842              		.align	2
 2843              	.L302:
 2844 0008 087C0100 		.word	.LANCHOR19+1720
 2845              		.cfi_endproc
 2846              	.LFE100:
 2847              		.size	u8g2_m_20_8_2, .-u8g2_m_20_8_2
 2848              		.section	.text.u8g2_m_20_8_f,"ax",%progbits
 2849              		.align	2
 2850              		.global	u8g2_m_20_8_f
 2851              		.thumb
 2852              		.thumb_func
 2853              		.type	u8g2_m_20_8_f, %function
 2854              	u8g2_m_20_8_f:
 2855              	.LFB101:
1117:..\u8g2\csrc/u8g2_d_memory.c **** uint8_t *u8g2_m_20_8_f(uint8_t *page_cnt)
1118:..\u8g2\csrc/u8g2_d_memory.c **** {
 2856              		.loc 1 1118 0
 2857              		.cfi_startproc
 2858              		@ args = 0, pretend = 0, frame = 0
 2859              		@ frame_needed = 0, uses_anonymous_args = 0
 2860              		@ link register save eliminated.
 2861              	.LVL202:
1119:..\u8g2\csrc/u8g2_d_memory.c ****   #ifdef U8G2_USE_DYNAMIC_ALLOC
1120:..\u8g2\csrc/u8g2_d_memory.c ****   *page_cnt = 8;
1121:..\u8g2\csrc/u8g2_d_memory.c ****   return 0;
1122:..\u8g2\csrc/u8g2_d_memory.c ****   #else
1123:..\u8g2\csrc/u8g2_d_memory.c ****   static uint8_t buf[1280];
1124:..\u8g2\csrc/u8g2_d_memory.c ****   *page_cnt = 8;
 2862              		.loc 1 1124 0
 2863 0000 0823     		movs	r3, #8
 2864 0002 0370     		strb	r3, [r0]
1125:..\u8g2\csrc/u8g2_d_memory.c ****   return buf;
1126:..\u8g2\csrc/u8g2_d_memory.c ****   #endif
ARM GAS  C:\Users\brian\AppData\Local\Temp\ccmYYpDh.s 			page 71


1127:..\u8g2\csrc/u8g2_d_memory.c **** }
 2865              		.loc 1 1127 0
 2866 0004 0048     		ldr	r0, .L305
 2867              	.LVL203:
 2868 0006 7047     		bx	lr
 2869              	.L306:
 2870              		.align	2
 2871              	.L305:
 2872 0008 487D0100 		.word	.LANCHOR19+2040
 2873              		.cfi_endproc
 2874              	.LFE101:
 2875              		.size	u8g2_m_20_8_f, .-u8g2_m_20_8_f
 2876              		.section	.text.u8g2_m_17_4_1,"ax",%progbits
 2877              		.align	2
 2878              		.global	u8g2_m_17_4_1
 2879              		.thumb
 2880              		.thumb_func
 2881              		.type	u8g2_m_17_4_1, %function
 2882              	u8g2_m_17_4_1:
 2883              	.LFB102:
1128:..\u8g2\csrc/u8g2_d_memory.c **** uint8_t *u8g2_m_17_4_1(uint8_t *page_cnt)
1129:..\u8g2\csrc/u8g2_d_memory.c **** {
 2884              		.loc 1 1129 0
 2885              		.cfi_startproc
 2886              		@ args = 0, pretend = 0, frame = 0
 2887              		@ frame_needed = 0, uses_anonymous_args = 0
 2888              		@ link register save eliminated.
 2889              	.LVL204:
1130:..\u8g2\csrc/u8g2_d_memory.c ****   #ifdef U8G2_USE_DYNAMIC_ALLOC
1131:..\u8g2\csrc/u8g2_d_memory.c ****   *page_cnt = 1;
1132:..\u8g2\csrc/u8g2_d_memory.c ****   return 0;
1133:..\u8g2\csrc/u8g2_d_memory.c ****   #else
1134:..\u8g2\csrc/u8g2_d_memory.c ****   static uint8_t buf[136];
1135:..\u8g2\csrc/u8g2_d_memory.c ****   *page_cnt = 1;
 2890              		.loc 1 1135 0
 2891 0000 0123     		movs	r3, #1
 2892 0002 0370     		strb	r3, [r0]
1136:..\u8g2\csrc/u8g2_d_memory.c ****   return buf;
1137:..\u8g2\csrc/u8g2_d_memory.c ****   #endif
1138:..\u8g2\csrc/u8g2_d_memory.c **** }
 2893              		.loc 1 1138 0
 2894 0004 0048     		ldr	r0, .L308
 2895              	.LVL205:
 2896 0006 7047     		bx	lr
 2897              	.L309:
 2898              		.align	2
 2899              	.L308:
 2900 0008 48820100 		.word	.LANCHOR19+3320
 2901              		.cfi_endproc
 2902              	.LFE102:
 2903              		.size	u8g2_m_17_4_1, .-u8g2_m_17_4_1
 2904              		.section	.text.u8g2_m_17_4_2,"ax",%progbits
 2905              		.align	2
 2906              		.global	u8g2_m_17_4_2
 2907              		.thumb
 2908              		.thumb_func
 2909              		.type	u8g2_m_17_4_2, %function
ARM GAS  C:\Users\brian\AppData\Local\Temp\ccmYYpDh.s 			page 72


 2910              	u8g2_m_17_4_2:
 2911              	.LFB103:
1139:..\u8g2\csrc/u8g2_d_memory.c **** uint8_t *u8g2_m_17_4_2(uint8_t *page_cnt)
1140:..\u8g2\csrc/u8g2_d_memory.c **** {
 2912              		.loc 1 1140 0
 2913              		.cfi_startproc
 2914              		@ args = 0, pretend = 0, frame = 0
 2915              		@ frame_needed = 0, uses_anonymous_args = 0
 2916              		@ link register save eliminated.
 2917              	.LVL206:
1141:..\u8g2\csrc/u8g2_d_memory.c ****   #ifdef U8G2_USE_DYNAMIC_ALLOC
1142:..\u8g2\csrc/u8g2_d_memory.c ****   *page_cnt = 2;
1143:..\u8g2\csrc/u8g2_d_memory.c ****   return 0;
1144:..\u8g2\csrc/u8g2_d_memory.c ****   #else
1145:..\u8g2\csrc/u8g2_d_memory.c ****   static uint8_t buf[272];
1146:..\u8g2\csrc/u8g2_d_memory.c ****   *page_cnt = 2;
 2918              		.loc 1 1146 0
 2919 0000 0223     		movs	r3, #2
 2920 0002 0370     		strb	r3, [r0]
1147:..\u8g2\csrc/u8g2_d_memory.c ****   return buf;
1148:..\u8g2\csrc/u8g2_d_memory.c ****   #endif
1149:..\u8g2\csrc/u8g2_d_memory.c **** }
 2921              		.loc 1 1149 0
 2922 0004 0048     		ldr	r0, .L311
 2923              	.LVL207:
 2924 0006 7047     		bx	lr
 2925              	.L312:
 2926              		.align	2
 2927              	.L311:
 2928 0008 D0820100 		.word	.LANCHOR19+3456
 2929              		.cfi_endproc
 2930              	.LFE103:
 2931              		.size	u8g2_m_17_4_2, .-u8g2_m_17_4_2
 2932              		.section	.text.u8g2_m_17_4_f,"ax",%progbits
 2933              		.align	2
 2934              		.global	u8g2_m_17_4_f
 2935              		.thumb
 2936              		.thumb_func
 2937              		.type	u8g2_m_17_4_f, %function
 2938              	u8g2_m_17_4_f:
 2939              	.LFB104:
1150:..\u8g2\csrc/u8g2_d_memory.c **** uint8_t *u8g2_m_17_4_f(uint8_t *page_cnt)
1151:..\u8g2\csrc/u8g2_d_memory.c **** {
 2940              		.loc 1 1151 0
 2941              		.cfi_startproc
 2942              		@ args = 0, pretend = 0, frame = 0
 2943              		@ frame_needed = 0, uses_anonymous_args = 0
 2944              		@ link register save eliminated.
 2945              	.LVL208:
1152:..\u8g2\csrc/u8g2_d_memory.c ****   #ifdef U8G2_USE_DYNAMIC_ALLOC
1153:..\u8g2\csrc/u8g2_d_memory.c ****   *page_cnt = 4;
1154:..\u8g2\csrc/u8g2_d_memory.c ****   return 0;
1155:..\u8g2\csrc/u8g2_d_memory.c ****   #else
1156:..\u8g2\csrc/u8g2_d_memory.c ****   static uint8_t buf[544];
1157:..\u8g2\csrc/u8g2_d_memory.c ****   *page_cnt = 4;
 2946              		.loc 1 1157 0
 2947 0000 0423     		movs	r3, #4
ARM GAS  C:\Users\brian\AppData\Local\Temp\ccmYYpDh.s 			page 73


 2948 0002 0370     		strb	r3, [r0]
1158:..\u8g2\csrc/u8g2_d_memory.c ****   return buf;
1159:..\u8g2\csrc/u8g2_d_memory.c ****   #endif
1160:..\u8g2\csrc/u8g2_d_memory.c **** }
 2949              		.loc 1 1160 0
 2950 0004 0048     		ldr	r0, .L314
 2951              	.LVL209:
 2952 0006 7047     		bx	lr
 2953              	.L315:
 2954              		.align	2
 2955              	.L314:
 2956 0008 E0830100 		.word	.LANCHOR19+3728
 2957              		.cfi_endproc
 2958              	.LFE104:
 2959              		.size	u8g2_m_17_4_f, .-u8g2_m_17_4_f
 2960              		.section	.text.u8g2_m_17_8_1,"ax",%progbits
 2961              		.align	2
 2962              		.global	u8g2_m_17_8_1
 2963              		.thumb
 2964              		.thumb_func
 2965              		.type	u8g2_m_17_8_1, %function
 2966              	u8g2_m_17_8_1:
 2967              	.LFB105:
1161:..\u8g2\csrc/u8g2_d_memory.c **** uint8_t *u8g2_m_17_8_1(uint8_t *page_cnt)
1162:..\u8g2\csrc/u8g2_d_memory.c **** {
 2968              		.loc 1 1162 0
 2969              		.cfi_startproc
 2970              		@ args = 0, pretend = 0, frame = 0
 2971              		@ frame_needed = 0, uses_anonymous_args = 0
 2972              		@ link register save eliminated.
 2973              	.LVL210:
1163:..\u8g2\csrc/u8g2_d_memory.c ****   #ifdef U8G2_USE_DYNAMIC_ALLOC
1164:..\u8g2\csrc/u8g2_d_memory.c ****   *page_cnt = 1;
1165:..\u8g2\csrc/u8g2_d_memory.c ****   return 0;
1166:..\u8g2\csrc/u8g2_d_memory.c ****   #else
1167:..\u8g2\csrc/u8g2_d_memory.c ****   static uint8_t buf[136];
1168:..\u8g2\csrc/u8g2_d_memory.c ****   *page_cnt = 1;
 2974              		.loc 1 1168 0
 2975 0000 0123     		movs	r3, #1
 2976 0002 0370     		strb	r3, [r0]
1169:..\u8g2\csrc/u8g2_d_memory.c ****   return buf;
1170:..\u8g2\csrc/u8g2_d_memory.c ****   #endif
1171:..\u8g2\csrc/u8g2_d_memory.c **** }
 2977              		.loc 1 1171 0
 2978 0004 0048     		ldr	r0, .L317
 2979              	.LVL211:
 2980 0006 7047     		bx	lr
 2981              	.L318:
 2982              		.align	2
 2983              	.L317:
 2984 0008 00860100 		.word	.LANCHOR20-72
 2985              		.cfi_endproc
 2986              	.LFE105:
 2987              		.size	u8g2_m_17_8_1, .-u8g2_m_17_8_1
 2988              		.section	.text.u8g2_m_17_8_2,"ax",%progbits
 2989              		.align	2
 2990              		.global	u8g2_m_17_8_2
ARM GAS  C:\Users\brian\AppData\Local\Temp\ccmYYpDh.s 			page 74


 2991              		.thumb
 2992              		.thumb_func
 2993              		.type	u8g2_m_17_8_2, %function
 2994              	u8g2_m_17_8_2:
 2995              	.LFB106:
1172:..\u8g2\csrc/u8g2_d_memory.c **** uint8_t *u8g2_m_17_8_2(uint8_t *page_cnt)
1173:..\u8g2\csrc/u8g2_d_memory.c **** {
 2996              		.loc 1 1173 0
 2997              		.cfi_startproc
 2998              		@ args = 0, pretend = 0, frame = 0
 2999              		@ frame_needed = 0, uses_anonymous_args = 0
 3000              		@ link register save eliminated.
 3001              	.LVL212:
1174:..\u8g2\csrc/u8g2_d_memory.c ****   #ifdef U8G2_USE_DYNAMIC_ALLOC
1175:..\u8g2\csrc/u8g2_d_memory.c ****   *page_cnt = 2;
1176:..\u8g2\csrc/u8g2_d_memory.c ****   return 0;
1177:..\u8g2\csrc/u8g2_d_memory.c ****   #else
1178:..\u8g2\csrc/u8g2_d_memory.c ****   static uint8_t buf[272];
1179:..\u8g2\csrc/u8g2_d_memory.c ****   *page_cnt = 2;
 3002              		.loc 1 1179 0
 3003 0000 0223     		movs	r3, #2
 3004 0002 0370     		strb	r3, [r0]
1180:..\u8g2\csrc/u8g2_d_memory.c ****   return buf;
1181:..\u8g2\csrc/u8g2_d_memory.c ****   #endif
1182:..\u8g2\csrc/u8g2_d_memory.c **** }
 3005              		.loc 1 1182 0
 3006 0004 0048     		ldr	r0, .L320
 3007              	.LVL213:
 3008 0006 7047     		bx	lr
 3009              	.L321:
 3010              		.align	2
 3011              	.L320:
 3012 0008 88860100 		.word	.LANCHOR20+64
 3013              		.cfi_endproc
 3014              	.LFE106:
 3015              		.size	u8g2_m_17_8_2, .-u8g2_m_17_8_2
 3016              		.section	.text.u8g2_m_17_8_f,"ax",%progbits
 3017              		.align	2
 3018              		.global	u8g2_m_17_8_f
 3019              		.thumb
 3020              		.thumb_func
 3021              		.type	u8g2_m_17_8_f, %function
 3022              	u8g2_m_17_8_f:
 3023              	.LFB107:
1183:..\u8g2\csrc/u8g2_d_memory.c **** uint8_t *u8g2_m_17_8_f(uint8_t *page_cnt)
1184:..\u8g2\csrc/u8g2_d_memory.c **** {
 3024              		.loc 1 1184 0
 3025              		.cfi_startproc
 3026              		@ args = 0, pretend = 0, frame = 0
 3027              		@ frame_needed = 0, uses_anonymous_args = 0
 3028              		@ link register save eliminated.
 3029              	.LVL214:
1185:..\u8g2\csrc/u8g2_d_memory.c ****   #ifdef U8G2_USE_DYNAMIC_ALLOC
1186:..\u8g2\csrc/u8g2_d_memory.c ****   *page_cnt = 8;
1187:..\u8g2\csrc/u8g2_d_memory.c ****   return 0;
1188:..\u8g2\csrc/u8g2_d_memory.c ****   #else
1189:..\u8g2\csrc/u8g2_d_memory.c ****   static uint8_t buf[1088];
ARM GAS  C:\Users\brian\AppData\Local\Temp\ccmYYpDh.s 			page 75


1190:..\u8g2\csrc/u8g2_d_memory.c ****   *page_cnt = 8;
 3030              		.loc 1 1190 0
 3031 0000 0823     		movs	r3, #8
 3032 0002 0370     		strb	r3, [r0]
1191:..\u8g2\csrc/u8g2_d_memory.c ****   return buf;
1192:..\u8g2\csrc/u8g2_d_memory.c ****   #endif
1193:..\u8g2\csrc/u8g2_d_memory.c **** }
 3033              		.loc 1 1193 0
 3034 0004 0048     		ldr	r0, .L323
 3035              	.LVL215:
 3036 0006 7047     		bx	lr
 3037              	.L324:
 3038              		.align	2
 3039              	.L323:
 3040 0008 98870100 		.word	.LANCHOR20+336
 3041              		.cfi_endproc
 3042              	.LFE107:
 3043              		.size	u8g2_m_17_8_f, .-u8g2_m_17_8_f
 3044              		.section	.text.u8g2_m_48_17_1,"ax",%progbits
 3045              		.align	2
 3046              		.global	u8g2_m_48_17_1
 3047              		.thumb
 3048              		.thumb_func
 3049              		.type	u8g2_m_48_17_1, %function
 3050              	u8g2_m_48_17_1:
 3051              	.LFB108:
1194:..\u8g2\csrc/u8g2_d_memory.c **** uint8_t *u8g2_m_48_17_1(uint8_t *page_cnt)
1195:..\u8g2\csrc/u8g2_d_memory.c **** {
 3052              		.loc 1 1195 0
 3053              		.cfi_startproc
 3054              		@ args = 0, pretend = 0, frame = 0
 3055              		@ frame_needed = 0, uses_anonymous_args = 0
 3056              		@ link register save eliminated.
 3057              	.LVL216:
1196:..\u8g2\csrc/u8g2_d_memory.c ****   #ifdef U8G2_USE_DYNAMIC_ALLOC
1197:..\u8g2\csrc/u8g2_d_memory.c ****   *page_cnt = 1;
1198:..\u8g2\csrc/u8g2_d_memory.c ****   return 0;
1199:..\u8g2\csrc/u8g2_d_memory.c ****   #else
1200:..\u8g2\csrc/u8g2_d_memory.c ****   static uint8_t buf[384];
1201:..\u8g2\csrc/u8g2_d_memory.c ****   *page_cnt = 1;
 3058              		.loc 1 1201 0
 3059 0000 0123     		movs	r3, #1
 3060 0002 0370     		strb	r3, [r0]
1202:..\u8g2\csrc/u8g2_d_memory.c ****   return buf;
1203:..\u8g2\csrc/u8g2_d_memory.c ****   #endif
1204:..\u8g2\csrc/u8g2_d_memory.c **** }
 3061              		.loc 1 1204 0
 3062 0004 0048     		ldr	r0, .L326
 3063              	.LVL217:
 3064 0006 7047     		bx	lr
 3065              	.L327:
 3066              		.align	2
 3067              	.L326:
 3068 0008 D88B0100 		.word	.LANCHOR20+1424
 3069              		.cfi_endproc
 3070              	.LFE108:
 3071              		.size	u8g2_m_48_17_1, .-u8g2_m_48_17_1
ARM GAS  C:\Users\brian\AppData\Local\Temp\ccmYYpDh.s 			page 76


 3072              		.section	.text.u8g2_m_48_17_2,"ax",%progbits
 3073              		.align	2
 3074              		.global	u8g2_m_48_17_2
 3075              		.thumb
 3076              		.thumb_func
 3077              		.type	u8g2_m_48_17_2, %function
 3078              	u8g2_m_48_17_2:
 3079              	.LFB109:
1205:..\u8g2\csrc/u8g2_d_memory.c **** uint8_t *u8g2_m_48_17_2(uint8_t *page_cnt)
1206:..\u8g2\csrc/u8g2_d_memory.c **** {
 3080              		.loc 1 1206 0
 3081              		.cfi_startproc
 3082              		@ args = 0, pretend = 0, frame = 0
 3083              		@ frame_needed = 0, uses_anonymous_args = 0
 3084              		@ link register save eliminated.
 3085              	.LVL218:
1207:..\u8g2\csrc/u8g2_d_memory.c ****   #ifdef U8G2_USE_DYNAMIC_ALLOC
1208:..\u8g2\csrc/u8g2_d_memory.c ****   *page_cnt = 2;
1209:..\u8g2\csrc/u8g2_d_memory.c ****   return 0;
1210:..\u8g2\csrc/u8g2_d_memory.c ****   #else
1211:..\u8g2\csrc/u8g2_d_memory.c ****   static uint8_t buf[768];
1212:..\u8g2\csrc/u8g2_d_memory.c ****   *page_cnt = 2;
 3086              		.loc 1 1212 0
 3087 0000 0223     		movs	r3, #2
 3088 0002 0370     		strb	r3, [r0]
1213:..\u8g2\csrc/u8g2_d_memory.c ****   return buf;
1214:..\u8g2\csrc/u8g2_d_memory.c ****   #endif
1215:..\u8g2\csrc/u8g2_d_memory.c **** }
 3089              		.loc 1 1215 0
 3090 0004 0048     		ldr	r0, .L329
 3091              	.LVL219:
 3092 0006 7047     		bx	lr
 3093              	.L330:
 3094              		.align	2
 3095              	.L329:
 3096 0008 588D0100 		.word	.LANCHOR20+1808
 3097              		.cfi_endproc
 3098              	.LFE109:
 3099              		.size	u8g2_m_48_17_2, .-u8g2_m_48_17_2
 3100              		.section	.text.u8g2_m_48_17_f,"ax",%progbits
 3101              		.align	2
 3102              		.global	u8g2_m_48_17_f
 3103              		.thumb
 3104              		.thumb_func
 3105              		.type	u8g2_m_48_17_f, %function
 3106              	u8g2_m_48_17_f:
 3107              	.LFB110:
1216:..\u8g2\csrc/u8g2_d_memory.c **** uint8_t *u8g2_m_48_17_f(uint8_t *page_cnt)
1217:..\u8g2\csrc/u8g2_d_memory.c **** {
 3108              		.loc 1 1217 0
 3109              		.cfi_startproc
 3110              		@ args = 0, pretend = 0, frame = 0
 3111              		@ frame_needed = 0, uses_anonymous_args = 0
 3112              		@ link register save eliminated.
 3113              	.LVL220:
1218:..\u8g2\csrc/u8g2_d_memory.c ****   #ifdef U8G2_USE_DYNAMIC_ALLOC
1219:..\u8g2\csrc/u8g2_d_memory.c ****   *page_cnt = 17;
ARM GAS  C:\Users\brian\AppData\Local\Temp\ccmYYpDh.s 			page 77


1220:..\u8g2\csrc/u8g2_d_memory.c ****   return 0;
1221:..\u8g2\csrc/u8g2_d_memory.c ****   #else
1222:..\u8g2\csrc/u8g2_d_memory.c ****   static uint8_t buf[6528];
1223:..\u8g2\csrc/u8g2_d_memory.c ****   *page_cnt = 17;
 3114              		.loc 1 1223 0
 3115 0000 1123     		movs	r3, #17
 3116 0002 0370     		strb	r3, [r0]
1224:..\u8g2\csrc/u8g2_d_memory.c ****   return buf;
1225:..\u8g2\csrc/u8g2_d_memory.c ****   #endif
1226:..\u8g2\csrc/u8g2_d_memory.c **** }
 3117              		.loc 1 1226 0
 3118 0004 0048     		ldr	r0, .L332
 3119              	.LVL221:
 3120 0006 7047     		bx	lr
 3121              	.L333:
 3122              		.align	2
 3123              	.L332:
 3124 0008 58900100 		.word	.LANCHOR20+2576
 3125              		.cfi_endproc
 3126              	.LFE110:
 3127              		.size	u8g2_m_48_17_f, .-u8g2_m_48_17_f
 3128              		.section	.text.u8g2_m_32_20_1,"ax",%progbits
 3129              		.align	2
 3130              		.global	u8g2_m_32_20_1
 3131              		.thumb
 3132              		.thumb_func
 3133              		.type	u8g2_m_32_20_1, %function
 3134              	u8g2_m_32_20_1:
 3135              	.LFB111:
1227:..\u8g2\csrc/u8g2_d_memory.c **** uint8_t *u8g2_m_32_20_1(uint8_t *page_cnt)
1228:..\u8g2\csrc/u8g2_d_memory.c **** {
 3136              		.loc 1 1228 0
 3137              		.cfi_startproc
 3138              		@ args = 0, pretend = 0, frame = 0
 3139              		@ frame_needed = 0, uses_anonymous_args = 0
 3140              		@ link register save eliminated.
 3141              	.LVL222:
1229:..\u8g2\csrc/u8g2_d_memory.c ****   #ifdef U8G2_USE_DYNAMIC_ALLOC
1230:..\u8g2\csrc/u8g2_d_memory.c ****   *page_cnt = 1;
1231:..\u8g2\csrc/u8g2_d_memory.c ****   return 0;
1232:..\u8g2\csrc/u8g2_d_memory.c ****   #else
1233:..\u8g2\csrc/u8g2_d_memory.c ****   static uint8_t buf[256];
1234:..\u8g2\csrc/u8g2_d_memory.c ****   *page_cnt = 1;
 3142              		.loc 1 1234 0
 3143 0000 0123     		movs	r3, #1
 3144 0002 0370     		strb	r3, [r0]
1235:..\u8g2\csrc/u8g2_d_memory.c ****   return buf;
1236:..\u8g2\csrc/u8g2_d_memory.c ****   #endif
1237:..\u8g2\csrc/u8g2_d_memory.c **** }
 3145              		.loc 1 1237 0
 3146 0004 0048     		ldr	r0, .L335
 3147              	.LVL223:
 3148 0006 7047     		bx	lr
 3149              	.L336:
 3150              		.align	2
 3151              	.L335:
 3152 0008 D8A90100 		.word	.LANCHOR21+416
ARM GAS  C:\Users\brian\AppData\Local\Temp\ccmYYpDh.s 			page 78


 3153              		.cfi_endproc
 3154              	.LFE111:
 3155              		.size	u8g2_m_32_20_1, .-u8g2_m_32_20_1
 3156              		.section	.text.u8g2_m_32_20_2,"ax",%progbits
 3157              		.align	2
 3158              		.global	u8g2_m_32_20_2
 3159              		.thumb
 3160              		.thumb_func
 3161              		.type	u8g2_m_32_20_2, %function
 3162              	u8g2_m_32_20_2:
 3163              	.LFB112:
1238:..\u8g2\csrc/u8g2_d_memory.c **** uint8_t *u8g2_m_32_20_2(uint8_t *page_cnt)
1239:..\u8g2\csrc/u8g2_d_memory.c **** {
 3164              		.loc 1 1239 0
 3165              		.cfi_startproc
 3166              		@ args = 0, pretend = 0, frame = 0
 3167              		@ frame_needed = 0, uses_anonymous_args = 0
 3168              		@ link register save eliminated.
 3169              	.LVL224:
1240:..\u8g2\csrc/u8g2_d_memory.c ****   #ifdef U8G2_USE_DYNAMIC_ALLOC
1241:..\u8g2\csrc/u8g2_d_memory.c ****   *page_cnt = 2;
1242:..\u8g2\csrc/u8g2_d_memory.c ****   return 0;
1243:..\u8g2\csrc/u8g2_d_memory.c ****   #else
1244:..\u8g2\csrc/u8g2_d_memory.c ****   static uint8_t buf[512];
1245:..\u8g2\csrc/u8g2_d_memory.c ****   *page_cnt = 2;
 3170              		.loc 1 1245 0
 3171 0000 0223     		movs	r3, #2
 3172 0002 0370     		strb	r3, [r0]
1246:..\u8g2\csrc/u8g2_d_memory.c ****   return buf;
1247:..\u8g2\csrc/u8g2_d_memory.c ****   #endif
1248:..\u8g2\csrc/u8g2_d_memory.c **** }
 3173              		.loc 1 1248 0
 3174 0004 0048     		ldr	r0, .L338
 3175              	.LVL225:
 3176 0006 7047     		bx	lr
 3177              	.L339:
 3178              		.align	2
 3179              	.L338:
 3180 0008 D8AA0100 		.word	.LANCHOR21+672
 3181              		.cfi_endproc
 3182              	.LFE112:
 3183              		.size	u8g2_m_32_20_2, .-u8g2_m_32_20_2
 3184              		.section	.text.u8g2_m_32_20_f,"ax",%progbits
 3185              		.align	2
 3186              		.global	u8g2_m_32_20_f
 3187              		.thumb
 3188              		.thumb_func
 3189              		.type	u8g2_m_32_20_f, %function
 3190              	u8g2_m_32_20_f:
 3191              	.LFB113:
1249:..\u8g2\csrc/u8g2_d_memory.c **** uint8_t *u8g2_m_32_20_f(uint8_t *page_cnt)
1250:..\u8g2\csrc/u8g2_d_memory.c **** {
 3192              		.loc 1 1250 0
 3193              		.cfi_startproc
 3194              		@ args = 0, pretend = 0, frame = 0
 3195              		@ frame_needed = 0, uses_anonymous_args = 0
 3196              		@ link register save eliminated.
ARM GAS  C:\Users\brian\AppData\Local\Temp\ccmYYpDh.s 			page 79


 3197              	.LVL226:
1251:..\u8g2\csrc/u8g2_d_memory.c ****   #ifdef U8G2_USE_DYNAMIC_ALLOC
1252:..\u8g2\csrc/u8g2_d_memory.c ****   *page_cnt = 20;
1253:..\u8g2\csrc/u8g2_d_memory.c ****   return 0;
1254:..\u8g2\csrc/u8g2_d_memory.c ****   #else
1255:..\u8g2\csrc/u8g2_d_memory.c ****   static uint8_t buf[5120];
1256:..\u8g2\csrc/u8g2_d_memory.c ****   *page_cnt = 20;
 3198              		.loc 1 1256 0
 3199 0000 1423     		movs	r3, #20
 3200 0002 0370     		strb	r3, [r0]
1257:..\u8g2\csrc/u8g2_d_memory.c ****   return buf;
1258:..\u8g2\csrc/u8g2_d_memory.c ****   #endif
1259:..\u8g2\csrc/u8g2_d_memory.c **** }
 3201              		.loc 1 1259 0
 3202 0004 0048     		ldr	r0, .L341
 3203              	.LVL227:
 3204 0006 7047     		bx	lr
 3205              	.L342:
 3206              		.align	2
 3207              	.L341:
 3208 0008 D8AC0100 		.word	.LANCHOR21+1184
 3209              		.cfi_endproc
 3210              	.LFE113:
 3211              		.size	u8g2_m_32_20_f, .-u8g2_m_32_20_f
 3212              		.section	.text.u8g2_m_22_13_1,"ax",%progbits
 3213              		.align	2
 3214              		.global	u8g2_m_22_13_1
 3215              		.thumb
 3216              		.thumb_func
 3217              		.type	u8g2_m_22_13_1, %function
 3218              	u8g2_m_22_13_1:
 3219              	.LFB114:
1260:..\u8g2\csrc/u8g2_d_memory.c **** uint8_t *u8g2_m_22_13_1(uint8_t *page_cnt)
1261:..\u8g2\csrc/u8g2_d_memory.c **** {
 3220              		.loc 1 1261 0
 3221              		.cfi_startproc
 3222              		@ args = 0, pretend = 0, frame = 0
 3223              		@ frame_needed = 0, uses_anonymous_args = 0
 3224              		@ link register save eliminated.
 3225              	.LVL228:
1262:..\u8g2\csrc/u8g2_d_memory.c ****   #ifdef U8G2_USE_DYNAMIC_ALLOC
1263:..\u8g2\csrc/u8g2_d_memory.c ****   *page_cnt = 1;
1264:..\u8g2\csrc/u8g2_d_memory.c ****   return 0;
1265:..\u8g2\csrc/u8g2_d_memory.c ****   #else
1266:..\u8g2\csrc/u8g2_d_memory.c ****   static uint8_t buf[176];
1267:..\u8g2\csrc/u8g2_d_memory.c ****   *page_cnt = 1;
 3226              		.loc 1 1267 0
 3227 0000 0123     		movs	r3, #1
 3228 0002 0370     		strb	r3, [r0]
1268:..\u8g2\csrc/u8g2_d_memory.c ****   return buf;
1269:..\u8g2\csrc/u8g2_d_memory.c ****   #endif
1270:..\u8g2\csrc/u8g2_d_memory.c **** }
 3229              		.loc 1 1270 0
 3230 0004 0048     		ldr	r0, .L344
 3231              	.LVL229:
 3232 0006 7047     		bx	lr
 3233              	.L345:
ARM GAS  C:\Users\brian\AppData\Local\Temp\ccmYYpDh.s 			page 80


 3234              		.align	2
 3235              	.L344:
 3236 0008 D8C00100 		.word	.LANCHOR22+1960
 3237              		.cfi_endproc
 3238              	.LFE114:
 3239              		.size	u8g2_m_22_13_1, .-u8g2_m_22_13_1
 3240              		.section	.text.u8g2_m_22_13_2,"ax",%progbits
 3241              		.align	2
 3242              		.global	u8g2_m_22_13_2
 3243              		.thumb
 3244              		.thumb_func
 3245              		.type	u8g2_m_22_13_2, %function
 3246              	u8g2_m_22_13_2:
 3247              	.LFB115:
1271:..\u8g2\csrc/u8g2_d_memory.c **** uint8_t *u8g2_m_22_13_2(uint8_t *page_cnt)
1272:..\u8g2\csrc/u8g2_d_memory.c **** {
 3248              		.loc 1 1272 0
 3249              		.cfi_startproc
 3250              		@ args = 0, pretend = 0, frame = 0
 3251              		@ frame_needed = 0, uses_anonymous_args = 0
 3252              		@ link register save eliminated.
 3253              	.LVL230:
1273:..\u8g2\csrc/u8g2_d_memory.c ****   #ifdef U8G2_USE_DYNAMIC_ALLOC
1274:..\u8g2\csrc/u8g2_d_memory.c ****   *page_cnt = 2;
1275:..\u8g2\csrc/u8g2_d_memory.c ****   return 0;
1276:..\u8g2\csrc/u8g2_d_memory.c ****   #else
1277:..\u8g2\csrc/u8g2_d_memory.c ****   static uint8_t buf[352];
1278:..\u8g2\csrc/u8g2_d_memory.c ****   *page_cnt = 2;
 3254              		.loc 1 1278 0
 3255 0000 0223     		movs	r3, #2
 3256 0002 0370     		strb	r3, [r0]
1279:..\u8g2\csrc/u8g2_d_memory.c ****   return buf;
1280:..\u8g2\csrc/u8g2_d_memory.c ****   #endif
1281:..\u8g2\csrc/u8g2_d_memory.c **** }
 3257              		.loc 1 1281 0
 3258 0004 0048     		ldr	r0, .L347
 3259              	.LVL231:
 3260 0006 7047     		bx	lr
 3261              	.L348:
 3262              		.align	2
 3263              	.L347:
 3264 0008 88C10100 		.word	.LANCHOR22+2136
 3265              		.cfi_endproc
 3266              	.LFE115:
 3267              		.size	u8g2_m_22_13_2, .-u8g2_m_22_13_2
 3268              		.section	.text.u8g2_m_22_13_f,"ax",%progbits
 3269              		.align	2
 3270              		.global	u8g2_m_22_13_f
 3271              		.thumb
 3272              		.thumb_func
 3273              		.type	u8g2_m_22_13_f, %function
 3274              	u8g2_m_22_13_f:
 3275              	.LFB116:
1282:..\u8g2\csrc/u8g2_d_memory.c **** uint8_t *u8g2_m_22_13_f(uint8_t *page_cnt)
1283:..\u8g2\csrc/u8g2_d_memory.c **** {
 3276              		.loc 1 1283 0
 3277              		.cfi_startproc
ARM GAS  C:\Users\brian\AppData\Local\Temp\ccmYYpDh.s 			page 81


 3278              		@ args = 0, pretend = 0, frame = 0
 3279              		@ frame_needed = 0, uses_anonymous_args = 0
 3280              		@ link register save eliminated.
 3281              	.LVL232:
1284:..\u8g2\csrc/u8g2_d_memory.c ****   #ifdef U8G2_USE_DYNAMIC_ALLOC
1285:..\u8g2\csrc/u8g2_d_memory.c ****   *page_cnt = 13;
1286:..\u8g2\csrc/u8g2_d_memory.c ****   return 0;
1287:..\u8g2\csrc/u8g2_d_memory.c ****   #else
1288:..\u8g2\csrc/u8g2_d_memory.c ****   static uint8_t buf[2288];
1289:..\u8g2\csrc/u8g2_d_memory.c ****   *page_cnt = 13;
 3282              		.loc 1 1289 0
 3283 0000 0D23     		movs	r3, #13
 3284 0002 0370     		strb	r3, [r0]
1290:..\u8g2\csrc/u8g2_d_memory.c ****   return buf;
1291:..\u8g2\csrc/u8g2_d_memory.c ****   #endif
1292:..\u8g2\csrc/u8g2_d_memory.c **** }
 3285              		.loc 1 1292 0
 3286 0004 0048     		ldr	r0, .L350
 3287              	.LVL233:
 3288 0006 7047     		bx	lr
 3289              	.L351:
 3290              		.align	2
 3291              	.L350:
 3292 0008 E8C20100 		.word	.LANCHOR22+2488
 3293              		.cfi_endproc
 3294              	.LFE116:
 3295              		.size	u8g2_m_22_13_f, .-u8g2_m_22_13_f
 3296              		.section	.text.u8g2_m_19_4_1,"ax",%progbits
 3297              		.align	2
 3298              		.global	u8g2_m_19_4_1
 3299              		.thumb
 3300              		.thumb_func
 3301              		.type	u8g2_m_19_4_1, %function
 3302              	u8g2_m_19_4_1:
 3303              	.LFB117:
1293:..\u8g2\csrc/u8g2_d_memory.c **** uint8_t *u8g2_m_19_4_1(uint8_t *page_cnt)
1294:..\u8g2\csrc/u8g2_d_memory.c **** {
 3304              		.loc 1 1294 0
 3305              		.cfi_startproc
 3306              		@ args = 0, pretend = 0, frame = 0
 3307              		@ frame_needed = 0, uses_anonymous_args = 0
 3308              		@ link register save eliminated.
 3309              	.LVL234:
1295:..\u8g2\csrc/u8g2_d_memory.c ****   #ifdef U8G2_USE_DYNAMIC_ALLOC
1296:..\u8g2\csrc/u8g2_d_memory.c ****   *page_cnt = 1;
1297:..\u8g2\csrc/u8g2_d_memory.c ****   return 0;
1298:..\u8g2\csrc/u8g2_d_memory.c ****   #else
1299:..\u8g2\csrc/u8g2_d_memory.c ****   static uint8_t buf[152];
1300:..\u8g2\csrc/u8g2_d_memory.c ****   *page_cnt = 1;
 3310              		.loc 1 1300 0
 3311 0000 0123     		movs	r3, #1
 3312 0002 0370     		strb	r3, [r0]
1301:..\u8g2\csrc/u8g2_d_memory.c ****   return buf;
1302:..\u8g2\csrc/u8g2_d_memory.c ****   #endif
1303:..\u8g2\csrc/u8g2_d_memory.c **** }
 3313              		.loc 1 1303 0
 3314 0004 0048     		ldr	r0, .L353
ARM GAS  C:\Users\brian\AppData\Local\Temp\ccmYYpDh.s 			page 82


 3315              	.LVL235:
 3316 0006 7047     		bx	lr
 3317              	.L354:
 3318              		.align	2
 3319              	.L353:
 3320 0008 D8CB0100 		.word	.LANCHOR23+432
 3321              		.cfi_endproc
 3322              	.LFE117:
 3323              		.size	u8g2_m_19_4_1, .-u8g2_m_19_4_1
 3324              		.section	.text.u8g2_m_19_4_2,"ax",%progbits
 3325              		.align	2
 3326              		.global	u8g2_m_19_4_2
 3327              		.thumb
 3328              		.thumb_func
 3329              		.type	u8g2_m_19_4_2, %function
 3330              	u8g2_m_19_4_2:
 3331              	.LFB118:
1304:..\u8g2\csrc/u8g2_d_memory.c **** uint8_t *u8g2_m_19_4_2(uint8_t *page_cnt)
1305:..\u8g2\csrc/u8g2_d_memory.c **** {
 3332              		.loc 1 1305 0
 3333              		.cfi_startproc
 3334              		@ args = 0, pretend = 0, frame = 0
 3335              		@ frame_needed = 0, uses_anonymous_args = 0
 3336              		@ link register save eliminated.
 3337              	.LVL236:
1306:..\u8g2\csrc/u8g2_d_memory.c ****   #ifdef U8G2_USE_DYNAMIC_ALLOC
1307:..\u8g2\csrc/u8g2_d_memory.c ****   *page_cnt = 2;
1308:..\u8g2\csrc/u8g2_d_memory.c ****   return 0;
1309:..\u8g2\csrc/u8g2_d_memory.c ****   #else
1310:..\u8g2\csrc/u8g2_d_memory.c ****   static uint8_t buf[304];
1311:..\u8g2\csrc/u8g2_d_memory.c ****   *page_cnt = 2;
 3338              		.loc 1 1311 0
 3339 0000 0223     		movs	r3, #2
 3340 0002 0370     		strb	r3, [r0]
1312:..\u8g2\csrc/u8g2_d_memory.c ****   return buf;
1313:..\u8g2\csrc/u8g2_d_memory.c ****   #endif
1314:..\u8g2\csrc/u8g2_d_memory.c **** }
 3341              		.loc 1 1314 0
 3342 0004 0048     		ldr	r0, .L356
 3343              	.LVL237:
 3344 0006 7047     		bx	lr
 3345              	.L357:
 3346              		.align	2
 3347              	.L356:
 3348 0008 70CC0100 		.word	.LANCHOR23+584
 3349              		.cfi_endproc
 3350              	.LFE118:
 3351              		.size	u8g2_m_19_4_2, .-u8g2_m_19_4_2
 3352              		.section	.text.u8g2_m_19_4_f,"ax",%progbits
 3353              		.align	2
 3354              		.global	u8g2_m_19_4_f
 3355              		.thumb
 3356              		.thumb_func
 3357              		.type	u8g2_m_19_4_f, %function
 3358              	u8g2_m_19_4_f:
 3359              	.LFB119:
1315:..\u8g2\csrc/u8g2_d_memory.c **** uint8_t *u8g2_m_19_4_f(uint8_t *page_cnt)
ARM GAS  C:\Users\brian\AppData\Local\Temp\ccmYYpDh.s 			page 83


1316:..\u8g2\csrc/u8g2_d_memory.c **** {
 3360              		.loc 1 1316 0
 3361              		.cfi_startproc
 3362              		@ args = 0, pretend = 0, frame = 0
 3363              		@ frame_needed = 0, uses_anonymous_args = 0
 3364              		@ link register save eliminated.
 3365              	.LVL238:
1317:..\u8g2\csrc/u8g2_d_memory.c ****   #ifdef U8G2_USE_DYNAMIC_ALLOC
1318:..\u8g2\csrc/u8g2_d_memory.c ****   *page_cnt = 4;
1319:..\u8g2\csrc/u8g2_d_memory.c ****   return 0;
1320:..\u8g2\csrc/u8g2_d_memory.c ****   #else
1321:..\u8g2\csrc/u8g2_d_memory.c ****   static uint8_t buf[608];
1322:..\u8g2\csrc/u8g2_d_memory.c ****   *page_cnt = 4;
 3366              		.loc 1 1322 0
 3367 0000 0423     		movs	r3, #4
 3368 0002 0370     		strb	r3, [r0]
1323:..\u8g2\csrc/u8g2_d_memory.c ****   return buf;
1324:..\u8g2\csrc/u8g2_d_memory.c ****   #endif
1325:..\u8g2\csrc/u8g2_d_memory.c **** }
 3369              		.loc 1 1325 0
 3370 0004 0048     		ldr	r0, .L359
 3371              	.LVL239:
 3372 0006 7047     		bx	lr
 3373              	.L360:
 3374              		.align	2
 3375              	.L359:
 3376 0008 A0CD0100 		.word	.LANCHOR23+888
 3377              		.cfi_endproc
 3378              	.LFE119:
 3379              		.size	u8g2_m_19_4_f, .-u8g2_m_19_4_f
 3380              		.section	.text.u8g2_m_20_10_1,"ax",%progbits
 3381              		.align	2
 3382              		.global	u8g2_m_20_10_1
 3383              		.thumb
 3384              		.thumb_func
 3385              		.type	u8g2_m_20_10_1, %function
 3386              	u8g2_m_20_10_1:
 3387              	.LFB120:
1326:..\u8g2\csrc/u8g2_d_memory.c **** uint8_t *u8g2_m_20_10_1(uint8_t *page_cnt)
1327:..\u8g2\csrc/u8g2_d_memory.c **** {
 3388              		.loc 1 1327 0
 3389              		.cfi_startproc
 3390              		@ args = 0, pretend = 0, frame = 0
 3391              		@ frame_needed = 0, uses_anonymous_args = 0
 3392              		@ link register save eliminated.
 3393              	.LVL240:
1328:..\u8g2\csrc/u8g2_d_memory.c ****   #ifdef U8G2_USE_DYNAMIC_ALLOC
1329:..\u8g2\csrc/u8g2_d_memory.c ****   *page_cnt = 1;
1330:..\u8g2\csrc/u8g2_d_memory.c ****   return 0;
1331:..\u8g2\csrc/u8g2_d_memory.c ****   #else
1332:..\u8g2\csrc/u8g2_d_memory.c ****   static uint8_t buf[160];
1333:..\u8g2\csrc/u8g2_d_memory.c ****   *page_cnt = 1;
 3394              		.loc 1 1333 0
 3395 0000 0123     		movs	r3, #1
 3396 0002 0370     		strb	r3, [r0]
1334:..\u8g2\csrc/u8g2_d_memory.c ****   return buf;
1335:..\u8g2\csrc/u8g2_d_memory.c ****   #endif
ARM GAS  C:\Users\brian\AppData\Local\Temp\ccmYYpDh.s 			page 84


1336:..\u8g2\csrc/u8g2_d_memory.c **** }
 3397              		.loc 1 1336 0
 3398 0004 0048     		ldr	r0, .L362
 3399              	.LVL241:
 3400 0006 7047     		bx	lr
 3401              	.L363:
 3402              		.align	2
 3403              	.L362:
 3404 0008 00D00100 		.word	.LANCHOR23+1496
 3405              		.cfi_endproc
 3406              	.LFE120:
 3407              		.size	u8g2_m_20_10_1, .-u8g2_m_20_10_1
 3408              		.section	.text.u8g2_m_20_10_2,"ax",%progbits
 3409              		.align	2
 3410              		.global	u8g2_m_20_10_2
 3411              		.thumb
 3412              		.thumb_func
 3413              		.type	u8g2_m_20_10_2, %function
 3414              	u8g2_m_20_10_2:
 3415              	.LFB121:
1337:..\u8g2\csrc/u8g2_d_memory.c **** uint8_t *u8g2_m_20_10_2(uint8_t *page_cnt)
1338:..\u8g2\csrc/u8g2_d_memory.c **** {
 3416              		.loc 1 1338 0
 3417              		.cfi_startproc
 3418              		@ args = 0, pretend = 0, frame = 0
 3419              		@ frame_needed = 0, uses_anonymous_args = 0
 3420              		@ link register save eliminated.
 3421              	.LVL242:
1339:..\u8g2\csrc/u8g2_d_memory.c ****   #ifdef U8G2_USE_DYNAMIC_ALLOC
1340:..\u8g2\csrc/u8g2_d_memory.c ****   *page_cnt = 2;
1341:..\u8g2\csrc/u8g2_d_memory.c ****   return 0;
1342:..\u8g2\csrc/u8g2_d_memory.c ****   #else
1343:..\u8g2\csrc/u8g2_d_memory.c ****   static uint8_t buf[320];
1344:..\u8g2\csrc/u8g2_d_memory.c ****   *page_cnt = 2;
 3422              		.loc 1 1344 0
 3423 0000 0223     		movs	r3, #2
 3424 0002 0370     		strb	r3, [r0]
1345:..\u8g2\csrc/u8g2_d_memory.c ****   return buf;
1346:..\u8g2\csrc/u8g2_d_memory.c ****   #endif
1347:..\u8g2\csrc/u8g2_d_memory.c **** }
 3425              		.loc 1 1347 0
 3426 0004 0048     		ldr	r0, .L365
 3427              	.LVL243:
 3428 0006 7047     		bx	lr
 3429              	.L366:
 3430              		.align	2
 3431              	.L365:
 3432 0008 A0D00100 		.word	.LANCHOR23+1656
 3433              		.cfi_endproc
 3434              	.LFE121:
 3435              		.size	u8g2_m_20_10_2, .-u8g2_m_20_10_2
 3436              		.section	.text.u8g2_m_20_10_f,"ax",%progbits
 3437              		.align	2
 3438              		.global	u8g2_m_20_10_f
 3439              		.thumb
 3440              		.thumb_func
 3441              		.type	u8g2_m_20_10_f, %function
ARM GAS  C:\Users\brian\AppData\Local\Temp\ccmYYpDh.s 			page 85


 3442              	u8g2_m_20_10_f:
 3443              	.LFB122:
1348:..\u8g2\csrc/u8g2_d_memory.c **** uint8_t *u8g2_m_20_10_f(uint8_t *page_cnt)
1349:..\u8g2\csrc/u8g2_d_memory.c **** {
 3444              		.loc 1 1349 0
 3445              		.cfi_startproc
 3446              		@ args = 0, pretend = 0, frame = 0
 3447              		@ frame_needed = 0, uses_anonymous_args = 0
 3448              		@ link register save eliminated.
 3449              	.LVL244:
1350:..\u8g2\csrc/u8g2_d_memory.c ****   #ifdef U8G2_USE_DYNAMIC_ALLOC
1351:..\u8g2\csrc/u8g2_d_memory.c ****   *page_cnt = 10;
1352:..\u8g2\csrc/u8g2_d_memory.c ****   return 0;
1353:..\u8g2\csrc/u8g2_d_memory.c ****   #else
1354:..\u8g2\csrc/u8g2_d_memory.c ****   static uint8_t buf[1600];
1355:..\u8g2\csrc/u8g2_d_memory.c ****   *page_cnt = 10;
 3450              		.loc 1 1355 0
 3451 0000 0A23     		movs	r3, #10
 3452 0002 0370     		strb	r3, [r0]
1356:..\u8g2\csrc/u8g2_d_memory.c ****   return buf;
1357:..\u8g2\csrc/u8g2_d_memory.c ****   #endif
1358:..\u8g2\csrc/u8g2_d_memory.c **** }
 3453              		.loc 1 1358 0
 3454 0004 0048     		ldr	r0, .L368
 3455              	.LVL245:
 3456 0006 7047     		bx	lr
 3457              	.L369:
 3458              		.align	2
 3459              	.L368:
 3460 0008 E0D10100 		.word	.LANCHOR23+1976
 3461              		.cfi_endproc
 3462              	.LFE122:
 3463              		.size	u8g2_m_20_10_f, .-u8g2_m_20_10_f
 3464              		.section	.text.u8g2_m_20_4_1,"ax",%progbits
 3465              		.align	2
 3466              		.global	u8g2_m_20_4_1
 3467              		.thumb
 3468              		.thumb_func
 3469              		.type	u8g2_m_20_4_1, %function
 3470              	u8g2_m_20_4_1:
 3471              	.LFB123:
1359:..\u8g2\csrc/u8g2_d_memory.c **** uint8_t *u8g2_m_20_4_1(uint8_t *page_cnt)
1360:..\u8g2\csrc/u8g2_d_memory.c **** {
 3472              		.loc 1 1360 0
 3473              		.cfi_startproc
 3474              		@ args = 0, pretend = 0, frame = 0
 3475              		@ frame_needed = 0, uses_anonymous_args = 0
 3476              		@ link register save eliminated.
 3477              	.LVL246:
1361:..\u8g2\csrc/u8g2_d_memory.c ****   #ifdef U8G2_USE_DYNAMIC_ALLOC
1362:..\u8g2\csrc/u8g2_d_memory.c ****   *page_cnt = 1;
1363:..\u8g2\csrc/u8g2_d_memory.c ****   return 0;
1364:..\u8g2\csrc/u8g2_d_memory.c ****   #else
1365:..\u8g2\csrc/u8g2_d_memory.c ****   static uint8_t buf[160];
1366:..\u8g2\csrc/u8g2_d_memory.c ****   *page_cnt = 1;
 3478              		.loc 1 1366 0
 3479 0000 0123     		movs	r3, #1
ARM GAS  C:\Users\brian\AppData\Local\Temp\ccmYYpDh.s 			page 86


 3480 0002 0370     		strb	r3, [r0]
1367:..\u8g2\csrc/u8g2_d_memory.c ****   return buf;
1368:..\u8g2\csrc/u8g2_d_memory.c ****   #endif
1369:..\u8g2\csrc/u8g2_d_memory.c **** }
 3481              		.loc 1 1369 0
 3482 0004 0048     		ldr	r0, .L371
 3483              	.LVL247:
 3484 0006 7047     		bx	lr
 3485              	.L372:
 3486              		.align	2
 3487              	.L371:
 3488 0008 20D80100 		.word	.LANCHOR23+3576
 3489              		.cfi_endproc
 3490              	.LFE123:
 3491              		.size	u8g2_m_20_4_1, .-u8g2_m_20_4_1
 3492              		.section	.text.u8g2_m_20_4_2,"ax",%progbits
 3493              		.align	2
 3494              		.global	u8g2_m_20_4_2
 3495              		.thumb
 3496              		.thumb_func
 3497              		.type	u8g2_m_20_4_2, %function
 3498              	u8g2_m_20_4_2:
 3499              	.LFB124:
1370:..\u8g2\csrc/u8g2_d_memory.c **** uint8_t *u8g2_m_20_4_2(uint8_t *page_cnt)
1371:..\u8g2\csrc/u8g2_d_memory.c **** {
 3500              		.loc 1 1371 0
 3501              		.cfi_startproc
 3502              		@ args = 0, pretend = 0, frame = 0
 3503              		@ frame_needed = 0, uses_anonymous_args = 0
 3504              		@ link register save eliminated.
 3505              	.LVL248:
1372:..\u8g2\csrc/u8g2_d_memory.c ****   #ifdef U8G2_USE_DYNAMIC_ALLOC
1373:..\u8g2\csrc/u8g2_d_memory.c ****   *page_cnt = 2;
1374:..\u8g2\csrc/u8g2_d_memory.c ****   return 0;
1375:..\u8g2\csrc/u8g2_d_memory.c ****   #else
1376:..\u8g2\csrc/u8g2_d_memory.c ****   static uint8_t buf[320];
1377:..\u8g2\csrc/u8g2_d_memory.c ****   *page_cnt = 2;
 3506              		.loc 1 1377 0
 3507 0000 0223     		movs	r3, #2
 3508 0002 0370     		strb	r3, [r0]
1378:..\u8g2\csrc/u8g2_d_memory.c ****   return buf;
1379:..\u8g2\csrc/u8g2_d_memory.c ****   #endif
1380:..\u8g2\csrc/u8g2_d_memory.c **** }
 3509              		.loc 1 1380 0
 3510 0004 0048     		ldr	r0, .L374
 3511              	.LVL249:
 3512 0006 7047     		bx	lr
 3513              	.L375:
 3514              		.align	2
 3515              	.L374:
 3516 0008 C0D80100 		.word	.LANCHOR23+3736
 3517              		.cfi_endproc
 3518              	.LFE124:
 3519              		.size	u8g2_m_20_4_2, .-u8g2_m_20_4_2
 3520              		.section	.text.u8g2_m_20_4_f,"ax",%progbits
 3521              		.align	2
 3522              		.global	u8g2_m_20_4_f
ARM GAS  C:\Users\brian\AppData\Local\Temp\ccmYYpDh.s 			page 87


 3523              		.thumb
 3524              		.thumb_func
 3525              		.type	u8g2_m_20_4_f, %function
 3526              	u8g2_m_20_4_f:
 3527              	.LFB125:
1381:..\u8g2\csrc/u8g2_d_memory.c **** uint8_t *u8g2_m_20_4_f(uint8_t *page_cnt)
1382:..\u8g2\csrc/u8g2_d_memory.c **** {
 3528              		.loc 1 1382 0
 3529              		.cfi_startproc
 3530              		@ args = 0, pretend = 0, frame = 0
 3531              		@ frame_needed = 0, uses_anonymous_args = 0
 3532              		@ link register save eliminated.
 3533              	.LVL250:
1383:..\u8g2\csrc/u8g2_d_memory.c ****   #ifdef U8G2_USE_DYNAMIC_ALLOC
1384:..\u8g2\csrc/u8g2_d_memory.c ****   *page_cnt = 4;
1385:..\u8g2\csrc/u8g2_d_memory.c ****   return 0;
1386:..\u8g2\csrc/u8g2_d_memory.c ****   #else
1387:..\u8g2\csrc/u8g2_d_memory.c ****   static uint8_t buf[640];
1388:..\u8g2\csrc/u8g2_d_memory.c ****   *page_cnt = 4;
 3534              		.loc 1 1388 0
 3535 0000 0423     		movs	r3, #4
 3536 0002 0370     		strb	r3, [r0]
1389:..\u8g2\csrc/u8g2_d_memory.c ****   return buf;
1390:..\u8g2\csrc/u8g2_d_memory.c ****   #endif
1391:..\u8g2\csrc/u8g2_d_memory.c **** }
 3537              		.loc 1 1391 0
 3538 0004 0048     		ldr	r0, .L377
 3539              	.LVL251:
 3540 0006 7047     		bx	lr
 3541              	.L378:
 3542              		.align	2
 3543              	.L377:
 3544 0008 00DA0100 		.word	.LANCHOR23+4056
 3545              		.cfi_endproc
 3546              	.LFE125:
 3547              		.size	u8g2_m_20_4_f, .-u8g2_m_20_4_f
 3548              		.section	.text.u8g2_m_20_17_1,"ax",%progbits
 3549              		.align	2
 3550              		.global	u8g2_m_20_17_1
 3551              		.thumb
 3552              		.thumb_func
 3553              		.type	u8g2_m_20_17_1, %function
 3554              	u8g2_m_20_17_1:
 3555              	.LFB126:
1392:..\u8g2\csrc/u8g2_d_memory.c **** uint8_t *u8g2_m_20_17_1(uint8_t *page_cnt)
1393:..\u8g2\csrc/u8g2_d_memory.c **** {
 3556              		.loc 1 1393 0
 3557              		.cfi_startproc
 3558              		@ args = 0, pretend = 0, frame = 0
 3559              		@ frame_needed = 0, uses_anonymous_args = 0
 3560              		@ link register save eliminated.
 3561              	.LVL252:
1394:..\u8g2\csrc/u8g2_d_memory.c ****   #ifdef U8G2_USE_DYNAMIC_ALLOC
1395:..\u8g2\csrc/u8g2_d_memory.c ****   *page_cnt = 1;
1396:..\u8g2\csrc/u8g2_d_memory.c ****   return 0;
1397:..\u8g2\csrc/u8g2_d_memory.c ****   #else
1398:..\u8g2\csrc/u8g2_d_memory.c ****   static uint8_t buf[160];
ARM GAS  C:\Users\brian\AppData\Local\Temp\ccmYYpDh.s 			page 88


1399:..\u8g2\csrc/u8g2_d_memory.c ****   *page_cnt = 1;
 3562              		.loc 1 1399 0
 3563 0000 0123     		movs	r3, #1
 3564 0002 0370     		strb	r3, [r0]
1400:..\u8g2\csrc/u8g2_d_memory.c ****   return buf;
1401:..\u8g2\csrc/u8g2_d_memory.c ****   #endif
1402:..\u8g2\csrc/u8g2_d_memory.c **** }
 3565              		.loc 1 1402 0
 3566 0004 0048     		ldr	r0, .L380
 3567              	.LVL253:
 3568 0006 7047     		bx	lr
 3569              	.L381:
 3570              		.align	2
 3571              	.L380:
 3572 0008 80DC0100 		.word	.LANCHOR24+352
 3573              		.cfi_endproc
 3574              	.LFE126:
 3575              		.size	u8g2_m_20_17_1, .-u8g2_m_20_17_1
 3576              		.section	.text.u8g2_m_20_17_2,"ax",%progbits
 3577              		.align	2
 3578              		.global	u8g2_m_20_17_2
 3579              		.thumb
 3580              		.thumb_func
 3581              		.type	u8g2_m_20_17_2, %function
 3582              	u8g2_m_20_17_2:
 3583              	.LFB127:
1403:..\u8g2\csrc/u8g2_d_memory.c **** uint8_t *u8g2_m_20_17_2(uint8_t *page_cnt)
1404:..\u8g2\csrc/u8g2_d_memory.c **** {
 3584              		.loc 1 1404 0
 3585              		.cfi_startproc
 3586              		@ args = 0, pretend = 0, frame = 0
 3587              		@ frame_needed = 0, uses_anonymous_args = 0
 3588              		@ link register save eliminated.
 3589              	.LVL254:
1405:..\u8g2\csrc/u8g2_d_memory.c ****   #ifdef U8G2_USE_DYNAMIC_ALLOC
1406:..\u8g2\csrc/u8g2_d_memory.c ****   *page_cnt = 2;
1407:..\u8g2\csrc/u8g2_d_memory.c ****   return 0;
1408:..\u8g2\csrc/u8g2_d_memory.c ****   #else
1409:..\u8g2\csrc/u8g2_d_memory.c ****   static uint8_t buf[320];
1410:..\u8g2\csrc/u8g2_d_memory.c ****   *page_cnt = 2;
 3590              		.loc 1 1410 0
 3591 0000 0223     		movs	r3, #2
 3592 0002 0370     		strb	r3, [r0]
1411:..\u8g2\csrc/u8g2_d_memory.c ****   return buf;
1412:..\u8g2\csrc/u8g2_d_memory.c ****   #endif
1413:..\u8g2\csrc/u8g2_d_memory.c **** }
 3593              		.loc 1 1413 0
 3594 0004 0048     		ldr	r0, .L383
 3595              	.LVL255:
 3596 0006 7047     		bx	lr
 3597              	.L384:
 3598              		.align	2
 3599              	.L383:
 3600 0008 20DD0100 		.word	.LANCHOR24+512
 3601              		.cfi_endproc
 3602              	.LFE127:
 3603              		.size	u8g2_m_20_17_2, .-u8g2_m_20_17_2
ARM GAS  C:\Users\brian\AppData\Local\Temp\ccmYYpDh.s 			page 89


 3604              		.section	.text.u8g2_m_20_17_f,"ax",%progbits
 3605              		.align	2
 3606              		.global	u8g2_m_20_17_f
 3607              		.thumb
 3608              		.thumb_func
 3609              		.type	u8g2_m_20_17_f, %function
 3610              	u8g2_m_20_17_f:
 3611              	.LFB128:
1414:..\u8g2\csrc/u8g2_d_memory.c **** uint8_t *u8g2_m_20_17_f(uint8_t *page_cnt)
1415:..\u8g2\csrc/u8g2_d_memory.c **** {
 3612              		.loc 1 1415 0
 3613              		.cfi_startproc
 3614              		@ args = 0, pretend = 0, frame = 0
 3615              		@ frame_needed = 0, uses_anonymous_args = 0
 3616              		@ link register save eliminated.
 3617              	.LVL256:
1416:..\u8g2\csrc/u8g2_d_memory.c ****   #ifdef U8G2_USE_DYNAMIC_ALLOC
1417:..\u8g2\csrc/u8g2_d_memory.c ****   *page_cnt = 17;
1418:..\u8g2\csrc/u8g2_d_memory.c ****   return 0;
1419:..\u8g2\csrc/u8g2_d_memory.c ****   #else
1420:..\u8g2\csrc/u8g2_d_memory.c ****   static uint8_t buf[2720];
1421:..\u8g2\csrc/u8g2_d_memory.c ****   *page_cnt = 17;
 3618              		.loc 1 1421 0
 3619 0000 1123     		movs	r3, #17
 3620 0002 0370     		strb	r3, [r0]
1422:..\u8g2\csrc/u8g2_d_memory.c ****   return buf;
1423:..\u8g2\csrc/u8g2_d_memory.c ****   #endif
1424:..\u8g2\csrc/u8g2_d_memory.c **** }
 3621              		.loc 1 1424 0
 3622 0004 0048     		ldr	r0, .L386
 3623              	.LVL257:
 3624 0006 7047     		bx	lr
 3625              	.L387:
 3626              		.align	2
 3627              	.L386:
 3628 0008 60DE0100 		.word	.LANCHOR24+832
 3629              		.cfi_endproc
 3630              	.LFE128:
 3631              		.size	u8g2_m_20_17_f, .-u8g2_m_20_17_f
 3632              		.section	.text.u8g2_m_22_9_1,"ax",%progbits
 3633              		.align	2
 3634              		.global	u8g2_m_22_9_1
 3635              		.thumb
 3636              		.thumb_func
 3637              		.type	u8g2_m_22_9_1, %function
 3638              	u8g2_m_22_9_1:
 3639              	.LFB129:
1425:..\u8g2\csrc/u8g2_d_memory.c **** uint8_t *u8g2_m_22_9_1(uint8_t *page_cnt)
1426:..\u8g2\csrc/u8g2_d_memory.c **** {
 3640              		.loc 1 1426 0
 3641              		.cfi_startproc
 3642              		@ args = 0, pretend = 0, frame = 0
 3643              		@ frame_needed = 0, uses_anonymous_args = 0
 3644              		@ link register save eliminated.
 3645              	.LVL258:
1427:..\u8g2\csrc/u8g2_d_memory.c ****   #ifdef U8G2_USE_DYNAMIC_ALLOC
1428:..\u8g2\csrc/u8g2_d_memory.c ****   *page_cnt = 1;
ARM GAS  C:\Users\brian\AppData\Local\Temp\ccmYYpDh.s 			page 90


1429:..\u8g2\csrc/u8g2_d_memory.c ****   return 0;
1430:..\u8g2\csrc/u8g2_d_memory.c ****   #else
1431:..\u8g2\csrc/u8g2_d_memory.c ****   static uint8_t buf[176];
1432:..\u8g2\csrc/u8g2_d_memory.c ****   *page_cnt = 1;
 3646              		.loc 1 1432 0
 3647 0000 0123     		movs	r3, #1
 3648 0002 0370     		strb	r3, [r0]
1433:..\u8g2\csrc/u8g2_d_memory.c ****   return buf;
1434:..\u8g2\csrc/u8g2_d_memory.c ****   #endif
1435:..\u8g2\csrc/u8g2_d_memory.c **** }
 3649              		.loc 1 1435 0
 3650 0004 0048     		ldr	r0, .L389
 3651              	.LVL259:
 3652 0006 7047     		bx	lr
 3653              	.L390:
 3654              		.align	2
 3655              	.L389:
 3656 0008 00E90100 		.word	.LANCHOR24+3552
 3657              		.cfi_endproc
 3658              	.LFE129:
 3659              		.size	u8g2_m_22_9_1, .-u8g2_m_22_9_1
 3660              		.section	.text.u8g2_m_22_9_2,"ax",%progbits
 3661              		.align	2
 3662              		.global	u8g2_m_22_9_2
 3663              		.thumb
 3664              		.thumb_func
 3665              		.type	u8g2_m_22_9_2, %function
 3666              	u8g2_m_22_9_2:
 3667              	.LFB130:
1436:..\u8g2\csrc/u8g2_d_memory.c **** uint8_t *u8g2_m_22_9_2(uint8_t *page_cnt)
1437:..\u8g2\csrc/u8g2_d_memory.c **** {
 3668              		.loc 1 1437 0
 3669              		.cfi_startproc
 3670              		@ args = 0, pretend = 0, frame = 0
 3671              		@ frame_needed = 0, uses_anonymous_args = 0
 3672              		@ link register save eliminated.
 3673              	.LVL260:
1438:..\u8g2\csrc/u8g2_d_memory.c ****   #ifdef U8G2_USE_DYNAMIC_ALLOC
1439:..\u8g2\csrc/u8g2_d_memory.c ****   *page_cnt = 2;
1440:..\u8g2\csrc/u8g2_d_memory.c ****   return 0;
1441:..\u8g2\csrc/u8g2_d_memory.c ****   #else
1442:..\u8g2\csrc/u8g2_d_memory.c ****   static uint8_t buf[352];
1443:..\u8g2\csrc/u8g2_d_memory.c ****   *page_cnt = 2;
 3674              		.loc 1 1443 0
 3675 0000 0223     		movs	r3, #2
 3676 0002 0370     		strb	r3, [r0]
1444:..\u8g2\csrc/u8g2_d_memory.c ****   return buf;
1445:..\u8g2\csrc/u8g2_d_memory.c ****   #endif
1446:..\u8g2\csrc/u8g2_d_memory.c **** }
 3677              		.loc 1 1446 0
 3678 0004 0048     		ldr	r0, .L392
 3679              	.LVL261:
 3680 0006 7047     		bx	lr
 3681              	.L393:
 3682              		.align	2
 3683              	.L392:
 3684 0008 B0E90100 		.word	.LANCHOR24+3728
ARM GAS  C:\Users\brian\AppData\Local\Temp\ccmYYpDh.s 			page 91


 3685              		.cfi_endproc
 3686              	.LFE130:
 3687              		.size	u8g2_m_22_9_2, .-u8g2_m_22_9_2
 3688              		.section	.text.u8g2_m_22_9_f,"ax",%progbits
 3689              		.align	2
 3690              		.global	u8g2_m_22_9_f
 3691              		.thumb
 3692              		.thumb_func
 3693              		.type	u8g2_m_22_9_f, %function
 3694              	u8g2_m_22_9_f:
 3695              	.LFB131:
1447:..\u8g2\csrc/u8g2_d_memory.c **** uint8_t *u8g2_m_22_9_f(uint8_t *page_cnt)
1448:..\u8g2\csrc/u8g2_d_memory.c **** {
 3696              		.loc 1 1448 0
 3697              		.cfi_startproc
 3698              		@ args = 0, pretend = 0, frame = 0
 3699              		@ frame_needed = 0, uses_anonymous_args = 0
 3700              		@ link register save eliminated.
 3701              	.LVL262:
1449:..\u8g2\csrc/u8g2_d_memory.c ****   #ifdef U8G2_USE_DYNAMIC_ALLOC
1450:..\u8g2\csrc/u8g2_d_memory.c ****   *page_cnt = 9;
1451:..\u8g2\csrc/u8g2_d_memory.c ****   return 0;
1452:..\u8g2\csrc/u8g2_d_memory.c ****   #else
1453:..\u8g2\csrc/u8g2_d_memory.c ****   static uint8_t buf[1584];
1454:..\u8g2\csrc/u8g2_d_memory.c ****   *page_cnt = 9;
 3702              		.loc 1 1454 0
 3703 0000 0923     		movs	r3, #9
 3704 0002 0370     		strb	r3, [r0]
1455:..\u8g2\csrc/u8g2_d_memory.c ****   return buf;
1456:..\u8g2\csrc/u8g2_d_memory.c ****   #endif
1457:..\u8g2\csrc/u8g2_d_memory.c **** }
 3705              		.loc 1 1457 0
 3706 0004 0048     		ldr	r0, .L395
 3707              	.LVL263:
 3708 0006 7047     		bx	lr
 3709              	.L396:
 3710              		.align	2
 3711              	.L395:
 3712 0008 10EB0100 		.word	.LANCHOR24+4080
 3713              		.cfi_endproc
 3714              	.LFE131:
 3715              		.size	u8g2_m_22_9_f, .-u8g2_m_22_9_f
 3716              		.section	.text.u8g2_m_25_25_1,"ax",%progbits
 3717              		.align	2
 3718              		.global	u8g2_m_25_25_1
 3719              		.thumb
 3720              		.thumb_func
 3721              		.type	u8g2_m_25_25_1, %function
 3722              	u8g2_m_25_25_1:
 3723              	.LFB132:
1458:..\u8g2\csrc/u8g2_d_memory.c **** uint8_t *u8g2_m_25_25_1(uint8_t *page_cnt)
1459:..\u8g2\csrc/u8g2_d_memory.c **** {
 3724              		.loc 1 1459 0
 3725              		.cfi_startproc
 3726              		@ args = 0, pretend = 0, frame = 0
 3727              		@ frame_needed = 0, uses_anonymous_args = 0
 3728              		@ link register save eliminated.
ARM GAS  C:\Users\brian\AppData\Local\Temp\ccmYYpDh.s 			page 92


 3729              	.LVL264:
1460:..\u8g2\csrc/u8g2_d_memory.c ****   #ifdef U8G2_USE_DYNAMIC_ALLOC
1461:..\u8g2\csrc/u8g2_d_memory.c ****   *page_cnt = 1;
1462:..\u8g2\csrc/u8g2_d_memory.c ****   return 0;
1463:..\u8g2\csrc/u8g2_d_memory.c ****   #else
1464:..\u8g2\csrc/u8g2_d_memory.c ****   static uint8_t buf[200];
1465:..\u8g2\csrc/u8g2_d_memory.c ****   *page_cnt = 1;
 3730              		.loc 1 1465 0
 3731 0000 0123     		movs	r3, #1
 3732 0002 0370     		strb	r3, [r0]
1466:..\u8g2\csrc/u8g2_d_memory.c ****   return buf;
1467:..\u8g2\csrc/u8g2_d_memory.c ****   #endif
1468:..\u8g2\csrc/u8g2_d_memory.c **** }
 3733              		.loc 1 1468 0
 3734 0004 0048     		ldr	r0, .L398
 3735              	.LVL265:
 3736 0006 7047     		bx	lr
 3737              	.L399:
 3738              		.align	2
 3739              	.L398:
 3740 0008 40F10100 		.word	.LANCHOR25+1320
 3741              		.cfi_endproc
 3742              	.LFE132:
 3743              		.size	u8g2_m_25_25_1, .-u8g2_m_25_25_1
 3744              		.section	.text.u8g2_m_25_25_2,"ax",%progbits
 3745              		.align	2
 3746              		.global	u8g2_m_25_25_2
 3747              		.thumb
 3748              		.thumb_func
 3749              		.type	u8g2_m_25_25_2, %function
 3750              	u8g2_m_25_25_2:
 3751              	.LFB133:
1469:..\u8g2\csrc/u8g2_d_memory.c **** uint8_t *u8g2_m_25_25_2(uint8_t *page_cnt)
1470:..\u8g2\csrc/u8g2_d_memory.c **** {
 3752              		.loc 1 1470 0
 3753              		.cfi_startproc
 3754              		@ args = 0, pretend = 0, frame = 0
 3755              		@ frame_needed = 0, uses_anonymous_args = 0
 3756              		@ link register save eliminated.
 3757              	.LVL266:
1471:..\u8g2\csrc/u8g2_d_memory.c ****   #ifdef U8G2_USE_DYNAMIC_ALLOC
1472:..\u8g2\csrc/u8g2_d_memory.c ****   *page_cnt = 2;
1473:..\u8g2\csrc/u8g2_d_memory.c ****   return 0;
1474:..\u8g2\csrc/u8g2_d_memory.c ****   #else
1475:..\u8g2\csrc/u8g2_d_memory.c ****   static uint8_t buf[400];
1476:..\u8g2\csrc/u8g2_d_memory.c ****   *page_cnt = 2;
 3758              		.loc 1 1476 0
 3759 0000 0223     		movs	r3, #2
 3760 0002 0370     		strb	r3, [r0]
1477:..\u8g2\csrc/u8g2_d_memory.c ****   return buf;
1478:..\u8g2\csrc/u8g2_d_memory.c ****   #endif
1479:..\u8g2\csrc/u8g2_d_memory.c **** }
 3761              		.loc 1 1479 0
 3762 0004 0048     		ldr	r0, .L401
 3763              	.LVL267:
 3764 0006 7047     		bx	lr
 3765              	.L402:
ARM GAS  C:\Users\brian\AppData\Local\Temp\ccmYYpDh.s 			page 93


 3766              		.align	2
 3767              	.L401:
 3768 0008 08F20100 		.word	.LANCHOR25+1520
 3769              		.cfi_endproc
 3770              	.LFE133:
 3771              		.size	u8g2_m_25_25_2, .-u8g2_m_25_25_2
 3772              		.section	.text.u8g2_m_25_25_f,"ax",%progbits
 3773              		.align	2
 3774              		.global	u8g2_m_25_25_f
 3775              		.thumb
 3776              		.thumb_func
 3777              		.type	u8g2_m_25_25_f, %function
 3778              	u8g2_m_25_25_f:
 3779              	.LFB134:
1480:..\u8g2\csrc/u8g2_d_memory.c **** uint8_t *u8g2_m_25_25_f(uint8_t *page_cnt)
1481:..\u8g2\csrc/u8g2_d_memory.c **** {
 3780              		.loc 1 1481 0
 3781              		.cfi_startproc
 3782              		@ args = 0, pretend = 0, frame = 0
 3783              		@ frame_needed = 0, uses_anonymous_args = 0
 3784              		@ link register save eliminated.
 3785              	.LVL268:
1482:..\u8g2\csrc/u8g2_d_memory.c ****   #ifdef U8G2_USE_DYNAMIC_ALLOC
1483:..\u8g2\csrc/u8g2_d_memory.c ****   *page_cnt = 25;
1484:..\u8g2\csrc/u8g2_d_memory.c ****   return 0;
1485:..\u8g2\csrc/u8g2_d_memory.c ****   #else
1486:..\u8g2\csrc/u8g2_d_memory.c ****   static uint8_t buf[5000];
1487:..\u8g2\csrc/u8g2_d_memory.c ****   *page_cnt = 25;
 3786              		.loc 1 1487 0
 3787 0000 1923     		movs	r3, #25
 3788 0002 0370     		strb	r3, [r0]
1488:..\u8g2\csrc/u8g2_d_memory.c ****   return buf;
1489:..\u8g2\csrc/u8g2_d_memory.c ****   #endif
1490:..\u8g2\csrc/u8g2_d_memory.c **** }
 3789              		.loc 1 1490 0
 3790 0004 0048     		ldr	r0, .L404
 3791              	.LVL269:
 3792 0006 7047     		bx	lr
 3793              	.L405:
 3794              		.align	2
 3795              	.L404:
 3796 0008 98F30100 		.word	.LANCHOR25+1920
 3797              		.cfi_endproc
 3798              	.LFE134:
 3799              		.size	u8g2_m_25_25_f, .-u8g2_m_25_25_f
 3800              		.section	.text.u8g2_m_37_16_1,"ax",%progbits
 3801              		.align	2
 3802              		.global	u8g2_m_37_16_1
 3803              		.thumb
 3804              		.thumb_func
 3805              		.type	u8g2_m_37_16_1, %function
 3806              	u8g2_m_37_16_1:
 3807              	.LFB135:
1491:..\u8g2\csrc/u8g2_d_memory.c **** uint8_t *u8g2_m_37_16_1(uint8_t *page_cnt)
1492:..\u8g2\csrc/u8g2_d_memory.c **** {
 3808              		.loc 1 1492 0
 3809              		.cfi_startproc
ARM GAS  C:\Users\brian\AppData\Local\Temp\ccmYYpDh.s 			page 94


 3810              		@ args = 0, pretend = 0, frame = 0
 3811              		@ frame_needed = 0, uses_anonymous_args = 0
 3812              		@ link register save eliminated.
 3813              	.LVL270:
1493:..\u8g2\csrc/u8g2_d_memory.c ****   #ifdef U8G2_USE_DYNAMIC_ALLOC
1494:..\u8g2\csrc/u8g2_d_memory.c ****   *page_cnt = 1;
1495:..\u8g2\csrc/u8g2_d_memory.c ****   return 0;
1496:..\u8g2\csrc/u8g2_d_memory.c ****   #else
1497:..\u8g2\csrc/u8g2_d_memory.c ****   static uint8_t buf[296];
1498:..\u8g2\csrc/u8g2_d_memory.c ****   *page_cnt = 1;
 3814              		.loc 1 1498 0
 3815 0000 0123     		movs	r3, #1
 3816 0002 0370     		strb	r3, [r0]
1499:..\u8g2\csrc/u8g2_d_memory.c ****   return buf;
1500:..\u8g2\csrc/u8g2_d_memory.c ****   #endif
1501:..\u8g2\csrc/u8g2_d_memory.c **** }
 3817              		.loc 1 1501 0
 3818 0004 0048     		ldr	r0, .L407
 3819              	.LVL271:
 3820 0006 7047     		bx	lr
 3821              	.L408:
 3822              		.align	2
 3823              	.L407:
 3824 0008 20070200 		.word	.LANCHOR26+2576
 3825              		.cfi_endproc
 3826              	.LFE135:
 3827              		.size	u8g2_m_37_16_1, .-u8g2_m_37_16_1
 3828              		.section	.text.u8g2_m_37_16_2,"ax",%progbits
 3829              		.align	2
 3830              		.global	u8g2_m_37_16_2
 3831              		.thumb
 3832              		.thumb_func
 3833              		.type	u8g2_m_37_16_2, %function
 3834              	u8g2_m_37_16_2:
 3835              	.LFB136:
1502:..\u8g2\csrc/u8g2_d_memory.c **** uint8_t *u8g2_m_37_16_2(uint8_t *page_cnt)
1503:..\u8g2\csrc/u8g2_d_memory.c **** {
 3836              		.loc 1 1503 0
 3837              		.cfi_startproc
 3838              		@ args = 0, pretend = 0, frame = 0
 3839              		@ frame_needed = 0, uses_anonymous_args = 0
 3840              		@ link register save eliminated.
 3841              	.LVL272:
1504:..\u8g2\csrc/u8g2_d_memory.c ****   #ifdef U8G2_USE_DYNAMIC_ALLOC
1505:..\u8g2\csrc/u8g2_d_memory.c ****   *page_cnt = 2;
1506:..\u8g2\csrc/u8g2_d_memory.c ****   return 0;
1507:..\u8g2\csrc/u8g2_d_memory.c ****   #else
1508:..\u8g2\csrc/u8g2_d_memory.c ****   static uint8_t buf[592];
1509:..\u8g2\csrc/u8g2_d_memory.c ****   *page_cnt = 2;
 3842              		.loc 1 1509 0
 3843 0000 0223     		movs	r3, #2
 3844 0002 0370     		strb	r3, [r0]
1510:..\u8g2\csrc/u8g2_d_memory.c ****   return buf;
1511:..\u8g2\csrc/u8g2_d_memory.c ****   #endif
1512:..\u8g2\csrc/u8g2_d_memory.c **** }
 3845              		.loc 1 1512 0
 3846 0004 0048     		ldr	r0, .L410
ARM GAS  C:\Users\brian\AppData\Local\Temp\ccmYYpDh.s 			page 95


 3847              	.LVL273:
 3848 0006 7047     		bx	lr
 3849              	.L411:
 3850              		.align	2
 3851              	.L410:
 3852 0008 48080200 		.word	.LANCHOR26+2872
 3853              		.cfi_endproc
 3854              	.LFE136:
 3855              		.size	u8g2_m_37_16_2, .-u8g2_m_37_16_2
 3856              		.section	.text.u8g2_m_37_16_f,"ax",%progbits
 3857              		.align	2
 3858              		.global	u8g2_m_37_16_f
 3859              		.thumb
 3860              		.thumb_func
 3861              		.type	u8g2_m_37_16_f, %function
 3862              	u8g2_m_37_16_f:
 3863              	.LFB137:
1513:..\u8g2\csrc/u8g2_d_memory.c **** uint8_t *u8g2_m_37_16_f(uint8_t *page_cnt)
1514:..\u8g2\csrc/u8g2_d_memory.c **** {
 3864              		.loc 1 1514 0
 3865              		.cfi_startproc
 3866              		@ args = 0, pretend = 0, frame = 0
 3867              		@ frame_needed = 0, uses_anonymous_args = 0
 3868              		@ link register save eliminated.
 3869              	.LVL274:
1515:..\u8g2\csrc/u8g2_d_memory.c ****   #ifdef U8G2_USE_DYNAMIC_ALLOC
1516:..\u8g2\csrc/u8g2_d_memory.c ****   *page_cnt = 16;
1517:..\u8g2\csrc/u8g2_d_memory.c ****   return 0;
1518:..\u8g2\csrc/u8g2_d_memory.c ****   #else
1519:..\u8g2\csrc/u8g2_d_memory.c ****   static uint8_t buf[4736];
1520:..\u8g2\csrc/u8g2_d_memory.c ****   *page_cnt = 16;
 3870              		.loc 1 1520 0
 3871 0000 1023     		movs	r3, #16
 3872 0002 0370     		strb	r3, [r0]
1521:..\u8g2\csrc/u8g2_d_memory.c ****   return buf;
1522:..\u8g2\csrc/u8g2_d_memory.c ****   #endif
1523:..\u8g2\csrc/u8g2_d_memory.c **** }
 3873              		.loc 1 1523 0
 3874 0004 0048     		ldr	r0, .L413
 3875              	.LVL275:
 3876 0006 7047     		bx	lr
 3877              	.L414:
 3878              		.align	2
 3879              	.L413:
 3880 0008 980A0200 		.word	.LANCHOR26+3464
 3881              		.cfi_endproc
 3882              	.LFE137:
 3883              		.size	u8g2_m_37_16_f, .-u8g2_m_37_16_f
 3884              		.section	.text.u8g2_m_8_1_1,"ax",%progbits
 3885              		.align	2
 3886              		.global	u8g2_m_8_1_1
 3887              		.thumb
 3888              		.thumb_func
 3889              		.type	u8g2_m_8_1_1, %function
 3890              	u8g2_m_8_1_1:
 3891              	.LFB138:
1524:..\u8g2\csrc/u8g2_d_memory.c **** uint8_t *u8g2_m_8_1_1(uint8_t *page_cnt)
ARM GAS  C:\Users\brian\AppData\Local\Temp\ccmYYpDh.s 			page 96


1525:..\u8g2\csrc/u8g2_d_memory.c **** {
 3892              		.loc 1 1525 0
 3893              		.cfi_startproc
 3894              		@ args = 0, pretend = 0, frame = 0
 3895              		@ frame_needed = 0, uses_anonymous_args = 0
 3896              		@ link register save eliminated.
 3897              	.LVL276:
1526:..\u8g2\csrc/u8g2_d_memory.c ****   #ifdef U8G2_USE_DYNAMIC_ALLOC
1527:..\u8g2\csrc/u8g2_d_memory.c ****   *page_cnt = 1;
1528:..\u8g2\csrc/u8g2_d_memory.c ****   return 0;
1529:..\u8g2\csrc/u8g2_d_memory.c ****   #else
1530:..\u8g2\csrc/u8g2_d_memory.c ****   static uint8_t buf[64];
1531:..\u8g2\csrc/u8g2_d_memory.c ****   *page_cnt = 1;
 3898              		.loc 1 1531 0
 3899 0000 0123     		movs	r3, #1
 3900 0002 0370     		strb	r3, [r0]
1532:..\u8g2\csrc/u8g2_d_memory.c ****   return buf;
1533:..\u8g2\csrc/u8g2_d_memory.c ****   #endif
1534:..\u8g2\csrc/u8g2_d_memory.c **** }
 3901              		.loc 1 1534 0
 3902 0004 0048     		ldr	r0, .L416
 3903              	.LVL277:
 3904 0006 7047     		bx	lr
 3905              	.L417:
 3906              		.align	2
 3907              	.L416:
 3908 0008 181D0200 		.word	.LANCHOR27+3856
 3909              		.cfi_endproc
 3910              	.LFE138:
 3911              		.size	u8g2_m_8_1_1, .-u8g2_m_8_1_1
 3912              		.section	.text.u8g2_m_8_1_2,"ax",%progbits
 3913              		.align	2
 3914              		.global	u8g2_m_8_1_2
 3915              		.thumb
 3916              		.thumb_func
 3917              		.type	u8g2_m_8_1_2, %function
 3918              	u8g2_m_8_1_2:
 3919              	.LFB139:
1535:..\u8g2\csrc/u8g2_d_memory.c **** uint8_t *u8g2_m_8_1_2(uint8_t *page_cnt)
1536:..\u8g2\csrc/u8g2_d_memory.c **** {
 3920              		.loc 1 1536 0
 3921              		.cfi_startproc
 3922              		@ args = 0, pretend = 0, frame = 0
 3923              		@ frame_needed = 0, uses_anonymous_args = 0
 3924              		@ link register save eliminated.
 3925              	.LVL278:
1537:..\u8g2\csrc/u8g2_d_memory.c ****   #ifdef U8G2_USE_DYNAMIC_ALLOC
1538:..\u8g2\csrc/u8g2_d_memory.c ****   *page_cnt = 2;
1539:..\u8g2\csrc/u8g2_d_memory.c ****   return 0;
1540:..\u8g2\csrc/u8g2_d_memory.c ****   #else
1541:..\u8g2\csrc/u8g2_d_memory.c ****   static uint8_t buf[128];
1542:..\u8g2\csrc/u8g2_d_memory.c ****   *page_cnt = 2;
 3926              		.loc 1 1542 0
 3927 0000 0223     		movs	r3, #2
 3928 0002 0370     		strb	r3, [r0]
1543:..\u8g2\csrc/u8g2_d_memory.c ****   return buf;
1544:..\u8g2\csrc/u8g2_d_memory.c ****   #endif
ARM GAS  C:\Users\brian\AppData\Local\Temp\ccmYYpDh.s 			page 97


1545:..\u8g2\csrc/u8g2_d_memory.c **** }
 3929              		.loc 1 1545 0
 3930 0004 0048     		ldr	r0, .L419
 3931              	.LVL279:
 3932 0006 7047     		bx	lr
 3933              	.L420:
 3934              		.align	2
 3935              	.L419:
 3936 0008 581D0200 		.word	.LANCHOR27+3920
 3937              		.cfi_endproc
 3938              	.LFE139:
 3939              		.size	u8g2_m_8_1_2, .-u8g2_m_8_1_2
 3940              		.section	.text.u8g2_m_8_1_f,"ax",%progbits
 3941              		.align	2
 3942              		.global	u8g2_m_8_1_f
 3943              		.thumb
 3944              		.thumb_func
 3945              		.type	u8g2_m_8_1_f, %function
 3946              	u8g2_m_8_1_f:
 3947              	.LFB140:
1546:..\u8g2\csrc/u8g2_d_memory.c **** uint8_t *u8g2_m_8_1_f(uint8_t *page_cnt)
1547:..\u8g2\csrc/u8g2_d_memory.c **** {
 3948              		.loc 1 1547 0
 3949              		.cfi_startproc
 3950              		@ args = 0, pretend = 0, frame = 0
 3951              		@ frame_needed = 0, uses_anonymous_args = 0
 3952              		@ link register save eliminated.
 3953              	.LVL280:
1548:..\u8g2\csrc/u8g2_d_memory.c ****   #ifdef U8G2_USE_DYNAMIC_ALLOC
1549:..\u8g2\csrc/u8g2_d_memory.c ****   *page_cnt = 1;
1550:..\u8g2\csrc/u8g2_d_memory.c ****   return 0;
1551:..\u8g2\csrc/u8g2_d_memory.c ****   #else
1552:..\u8g2\csrc/u8g2_d_memory.c ****   static uint8_t buf[64];
1553:..\u8g2\csrc/u8g2_d_memory.c ****   *page_cnt = 1;
 3954              		.loc 1 1553 0
 3955 0000 0123     		movs	r3, #1
 3956 0002 0370     		strb	r3, [r0]
1554:..\u8g2\csrc/u8g2_d_memory.c ****   return buf;
1555:..\u8g2\csrc/u8g2_d_memory.c ****   #endif
1556:..\u8g2\csrc/u8g2_d_memory.c **** }
 3957              		.loc 1 1556 0
 3958 0004 0048     		ldr	r0, .L422
 3959              	.LVL281:
 3960 0006 7047     		bx	lr
 3961              	.L423:
 3962              		.align	2
 3963              	.L422:
 3964 0008 D81D0200 		.word	.LANCHOR27+4048
 3965              		.cfi_endproc
 3966              	.LFE140:
 3967              		.size	u8g2_m_8_1_f, .-u8g2_m_8_1_f
 3968              		.section	.text.u8g2_m_4_1_1,"ax",%progbits
 3969              		.align	2
 3970              		.global	u8g2_m_4_1_1
 3971              		.thumb
 3972              		.thumb_func
 3973              		.type	u8g2_m_4_1_1, %function
ARM GAS  C:\Users\brian\AppData\Local\Temp\ccmYYpDh.s 			page 98


 3974              	u8g2_m_4_1_1:
 3975              	.LFB141:
1557:..\u8g2\csrc/u8g2_d_memory.c **** uint8_t *u8g2_m_4_1_1(uint8_t *page_cnt)
1558:..\u8g2\csrc/u8g2_d_memory.c **** {
 3976              		.loc 1 1558 0
 3977              		.cfi_startproc
 3978              		@ args = 0, pretend = 0, frame = 0
 3979              		@ frame_needed = 0, uses_anonymous_args = 0
 3980              		@ link register save eliminated.
 3981              	.LVL282:
1559:..\u8g2\csrc/u8g2_d_memory.c ****   #ifdef U8G2_USE_DYNAMIC_ALLOC
1560:..\u8g2\csrc/u8g2_d_memory.c ****   *page_cnt = 1;
1561:..\u8g2\csrc/u8g2_d_memory.c ****   return 0;
1562:..\u8g2\csrc/u8g2_d_memory.c ****   #else
1563:..\u8g2\csrc/u8g2_d_memory.c ****   static uint8_t buf[32];
1564:..\u8g2\csrc/u8g2_d_memory.c ****   *page_cnt = 1;
 3982              		.loc 1 1564 0
 3983 0000 0123     		movs	r3, #1
 3984 0002 0370     		strb	r3, [r0]
1565:..\u8g2\csrc/u8g2_d_memory.c ****   return buf;
1566:..\u8g2\csrc/u8g2_d_memory.c ****   #endif
1567:..\u8g2\csrc/u8g2_d_memory.c **** }
 3985              		.loc 1 1567 0
 3986 0004 0048     		ldr	r0, .L425
 3987              	.LVL283:
 3988 0006 7047     		bx	lr
 3989              	.L426:
 3990              		.align	2
 3991              	.L425:
 3992 0008 181E0200 		.word	.LANCHOR28-232
 3993              		.cfi_endproc
 3994              	.LFE141:
 3995              		.size	u8g2_m_4_1_1, .-u8g2_m_4_1_1
 3996              		.section	.text.u8g2_m_4_1_2,"ax",%progbits
 3997              		.align	2
 3998              		.global	u8g2_m_4_1_2
 3999              		.thumb
 4000              		.thumb_func
 4001              		.type	u8g2_m_4_1_2, %function
 4002              	u8g2_m_4_1_2:
 4003              	.LFB142:
1568:..\u8g2\csrc/u8g2_d_memory.c **** uint8_t *u8g2_m_4_1_2(uint8_t *page_cnt)
1569:..\u8g2\csrc/u8g2_d_memory.c **** {
 4004              		.loc 1 1569 0
 4005              		.cfi_startproc
 4006              		@ args = 0, pretend = 0, frame = 0
 4007              		@ frame_needed = 0, uses_anonymous_args = 0
 4008              		@ link register save eliminated.
 4009              	.LVL284:
1570:..\u8g2\csrc/u8g2_d_memory.c ****   #ifdef U8G2_USE_DYNAMIC_ALLOC
1571:..\u8g2\csrc/u8g2_d_memory.c ****   *page_cnt = 2;
1572:..\u8g2\csrc/u8g2_d_memory.c ****   return 0;
1573:..\u8g2\csrc/u8g2_d_memory.c ****   #else
1574:..\u8g2\csrc/u8g2_d_memory.c ****   static uint8_t buf[64];
1575:..\u8g2\csrc/u8g2_d_memory.c ****   *page_cnt = 2;
 4010              		.loc 1 1575 0
 4011 0000 0223     		movs	r3, #2
ARM GAS  C:\Users\brian\AppData\Local\Temp\ccmYYpDh.s 			page 99


 4012 0002 0370     		strb	r3, [r0]
1576:..\u8g2\csrc/u8g2_d_memory.c ****   return buf;
1577:..\u8g2\csrc/u8g2_d_memory.c ****   #endif
1578:..\u8g2\csrc/u8g2_d_memory.c **** }
 4013              		.loc 1 1578 0
 4014 0004 0048     		ldr	r0, .L428
 4015              	.LVL285:
 4016 0006 7047     		bx	lr
 4017              	.L429:
 4018              		.align	2
 4019              	.L428:
 4020 0008 381E0200 		.word	.LANCHOR28-200
 4021              		.cfi_endproc
 4022              	.LFE142:
 4023              		.size	u8g2_m_4_1_2, .-u8g2_m_4_1_2
 4024              		.section	.text.u8g2_m_4_1_f,"ax",%progbits
 4025              		.align	2
 4026              		.global	u8g2_m_4_1_f
 4027              		.thumb
 4028              		.thumb_func
 4029              		.type	u8g2_m_4_1_f, %function
 4030              	u8g2_m_4_1_f:
 4031              	.LFB143:
1579:..\u8g2\csrc/u8g2_d_memory.c **** uint8_t *u8g2_m_4_1_f(uint8_t *page_cnt)
1580:..\u8g2\csrc/u8g2_d_memory.c **** {
 4032              		.loc 1 1580 0
 4033              		.cfi_startproc
 4034              		@ args = 0, pretend = 0, frame = 0
 4035              		@ frame_needed = 0, uses_anonymous_args = 0
 4036              		@ link register save eliminated.
 4037              	.LVL286:
1581:..\u8g2\csrc/u8g2_d_memory.c ****   #ifdef U8G2_USE_DYNAMIC_ALLOC
1582:..\u8g2\csrc/u8g2_d_memory.c ****   *page_cnt = 1;
1583:..\u8g2\csrc/u8g2_d_memory.c ****   return 0;
1584:..\u8g2\csrc/u8g2_d_memory.c ****   #else
1585:..\u8g2\csrc/u8g2_d_memory.c ****   static uint8_t buf[32];
1586:..\u8g2\csrc/u8g2_d_memory.c ****   *page_cnt = 1;
 4038              		.loc 1 1586 0
 4039 0000 0123     		movs	r3, #1
 4040 0002 0370     		strb	r3, [r0]
1587:..\u8g2\csrc/u8g2_d_memory.c ****   return buf;
1588:..\u8g2\csrc/u8g2_d_memory.c ****   #endif
1589:..\u8g2\csrc/u8g2_d_memory.c **** }
 4041              		.loc 1 1589 0
 4042 0004 0048     		ldr	r0, .L431
 4043              	.LVL287:
 4044 0006 7047     		bx	lr
 4045              	.L432:
 4046              		.align	2
 4047              	.L431:
 4048 0008 781E0200 		.word	.LANCHOR28-136
 4049              		.cfi_endproc
 4050              	.LFE143:
 4051              		.size	u8g2_m_4_1_f, .-u8g2_m_4_1_f
 4052              		.section	.text.u8g2_m_1_1_1,"ax",%progbits
 4053              		.align	2
 4054              		.global	u8g2_m_1_1_1
ARM GAS  C:\Users\brian\AppData\Local\Temp\ccmYYpDh.s 			page 100


 4055              		.thumb
 4056              		.thumb_func
 4057              		.type	u8g2_m_1_1_1, %function
 4058              	u8g2_m_1_1_1:
 4059              	.LFB144:
1590:..\u8g2\csrc/u8g2_d_memory.c **** uint8_t *u8g2_m_1_1_1(uint8_t *page_cnt)
1591:..\u8g2\csrc/u8g2_d_memory.c **** {
 4060              		.loc 1 1591 0
 4061              		.cfi_startproc
 4062              		@ args = 0, pretend = 0, frame = 0
 4063              		@ frame_needed = 0, uses_anonymous_args = 0
 4064              		@ link register save eliminated.
 4065              	.LVL288:
1592:..\u8g2\csrc/u8g2_d_memory.c ****   #ifdef U8G2_USE_DYNAMIC_ALLOC
1593:..\u8g2\csrc/u8g2_d_memory.c ****   *page_cnt = 1;
1594:..\u8g2\csrc/u8g2_d_memory.c ****   return 0;
1595:..\u8g2\csrc/u8g2_d_memory.c ****   #else
1596:..\u8g2\csrc/u8g2_d_memory.c ****   static uint8_t buf[8];
1597:..\u8g2\csrc/u8g2_d_memory.c ****   *page_cnt = 1;
 4066              		.loc 1 1597 0
 4067 0000 0123     		movs	r3, #1
 4068 0002 0370     		strb	r3, [r0]
1598:..\u8g2\csrc/u8g2_d_memory.c ****   return buf;
1599:..\u8g2\csrc/u8g2_d_memory.c ****   #endif
1600:..\u8g2\csrc/u8g2_d_memory.c **** }
 4069              		.loc 1 1600 0
 4070 0004 0048     		ldr	r0, .L434
 4071              	.LVL289:
 4072 0006 7047     		bx	lr
 4073              	.L435:
 4074              		.align	2
 4075              	.L434:
 4076 0008 981E0200 		.word	.LANCHOR28-104
 4077              		.cfi_endproc
 4078              	.LFE144:
 4079              		.size	u8g2_m_1_1_1, .-u8g2_m_1_1_1
 4080              		.section	.text.u8g2_m_1_1_2,"ax",%progbits
 4081              		.align	2
 4082              		.global	u8g2_m_1_1_2
 4083              		.thumb
 4084              		.thumb_func
 4085              		.type	u8g2_m_1_1_2, %function
 4086              	u8g2_m_1_1_2:
 4087              	.LFB145:
1601:..\u8g2\csrc/u8g2_d_memory.c **** uint8_t *u8g2_m_1_1_2(uint8_t *page_cnt)
1602:..\u8g2\csrc/u8g2_d_memory.c **** {
 4088              		.loc 1 1602 0
 4089              		.cfi_startproc
 4090              		@ args = 0, pretend = 0, frame = 0
 4091              		@ frame_needed = 0, uses_anonymous_args = 0
 4092              		@ link register save eliminated.
 4093              	.LVL290:
1603:..\u8g2\csrc/u8g2_d_memory.c ****   #ifdef U8G2_USE_DYNAMIC_ALLOC
1604:..\u8g2\csrc/u8g2_d_memory.c ****   *page_cnt = 2;
1605:..\u8g2\csrc/u8g2_d_memory.c ****   return 0;
1606:..\u8g2\csrc/u8g2_d_memory.c ****   #else
1607:..\u8g2\csrc/u8g2_d_memory.c ****   static uint8_t buf[16];
ARM GAS  C:\Users\brian\AppData\Local\Temp\ccmYYpDh.s 			page 101


1608:..\u8g2\csrc/u8g2_d_memory.c ****   *page_cnt = 2;
 4094              		.loc 1 1608 0
 4095 0000 0223     		movs	r3, #2
 4096 0002 0370     		strb	r3, [r0]
1609:..\u8g2\csrc/u8g2_d_memory.c ****   return buf;
1610:..\u8g2\csrc/u8g2_d_memory.c ****   #endif
1611:..\u8g2\csrc/u8g2_d_memory.c **** }
 4097              		.loc 1 1611 0
 4098 0004 0048     		ldr	r0, .L437
 4099              	.LVL291:
 4100 0006 7047     		bx	lr
 4101              	.L438:
 4102              		.align	2
 4103              	.L437:
 4104 0008 A01E0200 		.word	.LANCHOR28-96
 4105              		.cfi_endproc
 4106              	.LFE145:
 4107              		.size	u8g2_m_1_1_2, .-u8g2_m_1_1_2
 4108              		.section	.text.u8g2_m_1_1_f,"ax",%progbits
 4109              		.align	2
 4110              		.global	u8g2_m_1_1_f
 4111              		.thumb
 4112              		.thumb_func
 4113              		.type	u8g2_m_1_1_f, %function
 4114              	u8g2_m_1_1_f:
 4115              	.LFB146:
1612:..\u8g2\csrc/u8g2_d_memory.c **** uint8_t *u8g2_m_1_1_f(uint8_t *page_cnt)
1613:..\u8g2\csrc/u8g2_d_memory.c **** {
 4116              		.loc 1 1613 0
 4117              		.cfi_startproc
 4118              		@ args = 0, pretend = 0, frame = 0
 4119              		@ frame_needed = 0, uses_anonymous_args = 0
 4120              		@ link register save eliminated.
 4121              	.LVL292:
1614:..\u8g2\csrc/u8g2_d_memory.c ****   #ifdef U8G2_USE_DYNAMIC_ALLOC
1615:..\u8g2\csrc/u8g2_d_memory.c ****   *page_cnt = 1;
1616:..\u8g2\csrc/u8g2_d_memory.c ****   return 0;
1617:..\u8g2\csrc/u8g2_d_memory.c ****   #else
1618:..\u8g2\csrc/u8g2_d_memory.c ****   static uint8_t buf[8];
1619:..\u8g2\csrc/u8g2_d_memory.c ****   *page_cnt = 1;
 4122              		.loc 1 1619 0
 4123 0000 0123     		movs	r3, #1
 4124 0002 0370     		strb	r3, [r0]
1620:..\u8g2\csrc/u8g2_d_memory.c ****   return buf;
1621:..\u8g2\csrc/u8g2_d_memory.c ****   #endif
1622:..\u8g2\csrc/u8g2_d_memory.c **** }
 4125              		.loc 1 1622 0
 4126 0004 0048     		ldr	r0, .L440
 4127              	.LVL293:
 4128 0006 7047     		bx	lr
 4129              	.L441:
 4130              		.align	2
 4131              	.L440:
 4132 0008 B01E0200 		.word	.LANCHOR28-80
 4133              		.cfi_endproc
 4134              	.LFE146:
 4135              		.size	u8g2_m_1_1_f, .-u8g2_m_1_1_f
ARM GAS  C:\Users\brian\AppData\Local\Temp\ccmYYpDh.s 			page 102


 4136              		.section	.text.u8g2_m_48_30_1,"ax",%progbits
 4137              		.align	2
 4138              		.global	u8g2_m_48_30_1
 4139              		.thumb
 4140              		.thumb_func
 4141              		.type	u8g2_m_48_30_1, %function
 4142              	u8g2_m_48_30_1:
 4143              	.LFB147:
1623:..\u8g2\csrc/u8g2_d_memory.c **** uint8_t *u8g2_m_48_30_1(uint8_t *page_cnt)
1624:..\u8g2\csrc/u8g2_d_memory.c **** {
 4144              		.loc 1 1624 0
 4145              		.cfi_startproc
 4146              		@ args = 0, pretend = 0, frame = 0
 4147              		@ frame_needed = 0, uses_anonymous_args = 0
 4148              		@ link register save eliminated.
 4149              	.LVL294:
1625:..\u8g2\csrc/u8g2_d_memory.c ****   #ifdef U8G2_USE_DYNAMIC_ALLOC
1626:..\u8g2\csrc/u8g2_d_memory.c ****   *page_cnt = 1;
1627:..\u8g2\csrc/u8g2_d_memory.c ****   return 0;
1628:..\u8g2\csrc/u8g2_d_memory.c ****   #else
1629:..\u8g2\csrc/u8g2_d_memory.c ****   static uint8_t buf[384];
1630:..\u8g2\csrc/u8g2_d_memory.c ****   *page_cnt = 1;
 4150              		.loc 1 1630 0
 4151 0000 0123     		movs	r3, #1
 4152 0002 0370     		strb	r3, [r0]
1631:..\u8g2\csrc/u8g2_d_memory.c ****   return buf;
1632:..\u8g2\csrc/u8g2_d_memory.c ****   #endif
1633:..\u8g2\csrc/u8g2_d_memory.c **** }
 4153              		.loc 1 1633 0
 4154 0004 0048     		ldr	r0, .L443
 4155              	.LVL295:
 4156 0006 7047     		bx	lr
 4157              	.L444:
 4158              		.align	2
 4159              	.L443:
 4160 0008 B81E0200 		.word	.LANCHOR28-72
 4161              		.cfi_endproc
 4162              	.LFE147:
 4163              		.size	u8g2_m_48_30_1, .-u8g2_m_48_30_1
 4164              		.section	.text.u8g2_m_48_30_2,"ax",%progbits
 4165              		.align	2
 4166              		.global	u8g2_m_48_30_2
 4167              		.thumb
 4168              		.thumb_func
 4169              		.type	u8g2_m_48_30_2, %function
 4170              	u8g2_m_48_30_2:
 4171              	.LFB148:
1634:..\u8g2\csrc/u8g2_d_memory.c **** uint8_t *u8g2_m_48_30_2(uint8_t *page_cnt)
1635:..\u8g2\csrc/u8g2_d_memory.c **** {
 4172              		.loc 1 1635 0
 4173              		.cfi_startproc
 4174              		@ args = 0, pretend = 0, frame = 0
 4175              		@ frame_needed = 0, uses_anonymous_args = 0
 4176              		@ link register save eliminated.
 4177              	.LVL296:
1636:..\u8g2\csrc/u8g2_d_memory.c ****   #ifdef U8G2_USE_DYNAMIC_ALLOC
1637:..\u8g2\csrc/u8g2_d_memory.c ****   *page_cnt = 2;
ARM GAS  C:\Users\brian\AppData\Local\Temp\ccmYYpDh.s 			page 103


1638:..\u8g2\csrc/u8g2_d_memory.c ****   return 0;
1639:..\u8g2\csrc/u8g2_d_memory.c ****   #else
1640:..\u8g2\csrc/u8g2_d_memory.c ****   static uint8_t buf[768];
1641:..\u8g2\csrc/u8g2_d_memory.c ****   *page_cnt = 2;
 4178              		.loc 1 1641 0
 4179 0000 0223     		movs	r3, #2
 4180 0002 0370     		strb	r3, [r0]
1642:..\u8g2\csrc/u8g2_d_memory.c ****   return buf;
1643:..\u8g2\csrc/u8g2_d_memory.c ****   #endif
1644:..\u8g2\csrc/u8g2_d_memory.c **** }
 4181              		.loc 1 1644 0
 4182 0004 0048     		ldr	r0, .L446
 4183              	.LVL297:
 4184 0006 7047     		bx	lr
 4185              	.L447:
 4186              		.align	2
 4187              	.L446:
 4188 0008 38200200 		.word	.LANCHOR28+312
 4189              		.cfi_endproc
 4190              	.LFE148:
 4191              		.size	u8g2_m_48_30_2, .-u8g2_m_48_30_2
 4192              		.section	.text.u8g2_m_48_30_f,"ax",%progbits
 4193              		.align	2
 4194              		.global	u8g2_m_48_30_f
 4195              		.thumb
 4196              		.thumb_func
 4197              		.type	u8g2_m_48_30_f, %function
 4198              	u8g2_m_48_30_f:
 4199              	.LFB149:
1645:..\u8g2\csrc/u8g2_d_memory.c **** uint8_t *u8g2_m_48_30_f(uint8_t *page_cnt)
1646:..\u8g2\csrc/u8g2_d_memory.c **** {
 4200              		.loc 1 1646 0
 4201              		.cfi_startproc
 4202              		@ args = 0, pretend = 0, frame = 0
 4203              		@ frame_needed = 0, uses_anonymous_args = 0
 4204              		@ link register save eliminated.
 4205              	.LVL298:
1647:..\u8g2\csrc/u8g2_d_memory.c ****   #ifdef U8G2_USE_DYNAMIC_ALLOC
1648:..\u8g2\csrc/u8g2_d_memory.c ****   *page_cnt = 30;
1649:..\u8g2\csrc/u8g2_d_memory.c ****   return 0;
1650:..\u8g2\csrc/u8g2_d_memory.c ****   #else
1651:..\u8g2\csrc/u8g2_d_memory.c ****   static uint8_t buf[11520];
1652:..\u8g2\csrc/u8g2_d_memory.c ****   *page_cnt = 30;
 4206              		.loc 1 1652 0
 4207 0000 1E23     		movs	r3, #30
 4208 0002 0370     		strb	r3, [r0]
1653:..\u8g2\csrc/u8g2_d_memory.c ****   return buf;
1654:..\u8g2\csrc/u8g2_d_memory.c ****   #endif
1655:..\u8g2\csrc/u8g2_d_memory.c **** }
 4209              		.loc 1 1655 0
 4210 0004 0048     		ldr	r0, .L449
 4211              	.LVL299:
 4212 0006 7047     		bx	lr
 4213              	.L450:
 4214              		.align	2
 4215              	.L449:
 4216 0008 38230200 		.word	.LANCHOR28+1080
ARM GAS  C:\Users\brian\AppData\Local\Temp\ccmYYpDh.s 			page 104


 4217              		.cfi_endproc
 4218              	.LFE149:
 4219              		.size	u8g2_m_48_30_f, .-u8g2_m_48_30_f
 4220              		.bss
 4221              		.align	2
 4222              		.set	.LANCHOR0,. + 0
 4223              		.set	.LANCHOR1,. + 4344
 4224              		.set	.LANCHOR2,. + 8688
 4225              		.set	.LANCHOR3,. + 13032
 4226              		.set	.LANCHOR4,. + 17376
 4227              		.set	.LANCHOR5,. + 21720
 4228              		.set	.LANCHOR6,. + 26064
 4229              		.set	.LANCHOR7,. + 30408
 4230              		.set	.LANCHOR8,. + 34752
 4231              		.set	.LANCHOR9,. + 47784
 4232              		.set	.LANCHOR10,. + 52128
 4233              		.set	.LANCHOR11,. + 56472
 4234              		.set	.LANCHOR12,. + 60816
 4235              		.set	.LANCHOR13,. + 65160
 4236              		.set	.LANCHOR14,. + 69504
 4237              		.set	.LANCHOR15,. + 73848
 4238              		.set	.LANCHOR16,. + 78192
 4239              		.set	.LANCHOR17,. + 82536
 4240              		.set	.LANCHOR18,. + 86880
 4241              		.set	.LANCHOR19,. + 95568
 4242              		.set	.LANCHOR20,. + 99912
 4243              		.set	.LANCHOR21,. + 108600
 4244              		.set	.LANCHOR22,. + 112944
 4245              		.set	.LANCHOR23,. + 117288
 4246              		.set	.LANCHOR24,. + 121632
 4247              		.set	.LANCHOR25,. + 125976
 4248              		.set	.LANCHOR26,. + 130320
 4249              		.set	.LANCHOR27,. + 134664
 4250              		.set	.LANCHOR28,. + 139008
 4251              		.type	buf.11891, %object
 4252              		.size	buf.11891, 128
 4253              	buf.11891:
 4254 0000 00000000 		.space	128
 4254      00000000 
 4254      00000000 
 4254      00000000 
 4254      00000000 
 4255              		.type	buf.11895, %object
 4256              		.size	buf.11895, 256
 4257              	buf.11895:
 4258 0080 00000000 		.space	256
 4258      00000000 
 4258      00000000 
 4258      00000000 
 4258      00000000 
 4259              		.type	buf.11899, %object
 4260              		.size	buf.11899, 512
 4261              	buf.11899:
 4262 0180 00000000 		.space	512
 4262      00000000 
 4262      00000000 
 4262      00000000 
ARM GAS  C:\Users\brian\AppData\Local\Temp\ccmYYpDh.s 			page 105


 4262      00000000 
 4263              		.type	buf.11903, %object
 4264              		.size	buf.11903, 128
 4265              	buf.11903:
 4266 0380 00000000 		.space	128
 4266      00000000 
 4266      00000000 
 4266      00000000 
 4266      00000000 
 4267              		.type	buf.11907, %object
 4268              		.size	buf.11907, 256
 4269              	buf.11907:
 4270 0400 00000000 		.space	256
 4270      00000000 
 4270      00000000 
 4270      00000000 
 4270      00000000 
 4271              		.type	buf.11911, %object
 4272              		.size	buf.11911, 1024
 4273              	buf.11911:
 4274 0500 00000000 		.space	1024
 4274      00000000 
 4274      00000000 
 4274      00000000 
 4274      00000000 
 4275              		.type	buf.11915, %object
 4276              		.size	buf.11915, 2040
 4277              	buf.11915:
 4278 0900 00000000 		.space	2040
 4278      00000000 
 4278      00000000 
 4278      00000000 
 4278      00000000 
 4279              		.type	buf.11919, %object
 4280              		.size	buf.11919, 4080
 4281              	buf.11919:
 4282 10f8 00000000 		.space	4080
 4282      00000000 
 4282      00000000 
 4282      00000000 
 4282      00000000 
 4283              		.type	buf.11923, %object
 4284              		.size	buf.11923, 4080
 4285              	buf.11923:
 4286 20e8 00000000 		.space	4080
 4286      00000000 
 4286      00000000 
 4286      00000000 
 4286      00000000 
 4287              		.type	buf.11927, %object
 4288              		.size	buf.11927, 72
 4289              	buf.11927:
 4290 30d8 00000000 		.space	72
 4290      00000000 
 4290      00000000 
 4290      00000000 
 4290      00000000 
ARM GAS  C:\Users\brian\AppData\Local\Temp\ccmYYpDh.s 			page 106


 4291              		.type	buf.11931, %object
 4292              		.size	buf.11931, 144
 4293              	buf.11931:
 4294 3120 00000000 		.space	144
 4294      00000000 
 4294      00000000 
 4294      00000000 
 4294      00000000 
 4295              		.type	buf.11935, %object
 4296              		.size	buf.11935, 360
 4297              	buf.11935:
 4298 31b0 00000000 		.space	360
 4298      00000000 
 4298      00000000 
 4298      00000000 
 4298      00000000 
 4299              		.type	buf.11939, %object
 4300              		.size	buf.11939, 64
 4301              	buf.11939:
 4302 3318 00000000 		.space	64
 4302      00000000 
 4302      00000000 
 4302      00000000 
 4302      00000000 
 4303              		.type	buf.11943, %object
 4304              		.size	buf.11943, 128
 4305              	buf.11943:
 4306 3358 00000000 		.space	128
 4306      00000000 
 4306      00000000 
 4306      00000000 
 4306      00000000 
 4307              		.type	buf.11947, %object
 4308              		.size	buf.11947, 256
 4309              	buf.11947:
 4310 33d8 00000000 		.space	256
 4310      00000000 
 4310      00000000 
 4310      00000000 
 4310      00000000 
 4311              		.type	buf.11951, %object
 4312              		.size	buf.11951, 64
 4313              	buf.11951:
 4314 34d8 00000000 		.space	64
 4314      00000000 
 4314      00000000 
 4314      00000000 
 4314      00000000 
 4315              		.type	buf.11955, %object
 4316              		.size	buf.11955, 128
 4317              	buf.11955:
 4318 3518 00000000 		.space	128
 4318      00000000 
 4318      00000000 
 4318      00000000 
 4318      00000000 
 4319              		.type	buf.11959, %object
ARM GAS  C:\Users\brian\AppData\Local\Temp\ccmYYpDh.s 			page 107


 4320              		.size	buf.11959, 1024
 4321              	buf.11959:
 4322 3598 00000000 		.space	1024
 4322      00000000 
 4322      00000000 
 4322      00000000 
 4322      00000000 
 4323              		.type	buf.11963, %object
 4324              		.size	buf.11963, 96
 4325              	buf.11963:
 4326 3998 00000000 		.space	96
 4326      00000000 
 4326      00000000 
 4326      00000000 
 4326      00000000 
 4327              		.type	buf.11967, %object
 4328              		.size	buf.11967, 192
 4329              	buf.11967:
 4330 39f8 00000000 		.space	192
 4330      00000000 
 4330      00000000 
 4330      00000000 
 4330      00000000 
 4331              		.type	buf.11971, %object
 4332              		.size	buf.11971, 1152
 4333              	buf.11971:
 4334 3ab8 00000000 		.space	1152
 4334      00000000 
 4334      00000000 
 4334      00000000 
 4334      00000000 
 4335              		.type	buf.11975, %object
 4336              		.size	buf.11975, 80
 4337              	buf.11975:
 4338 3f38 00000000 		.space	80
 4338      00000000 
 4338      00000000 
 4338      00000000 
 4338      00000000 
 4339              		.type	buf.11979, %object
 4340              		.size	buf.11979, 160
 4341              	buf.11979:
 4342 3f88 00000000 		.space	160
 4342      00000000 
 4342      00000000 
 4342      00000000 
 4342      00000000 
 4343              		.type	buf.11983, %object
 4344              		.size	buf.11983, 1280
 4345              	buf.11983:
 4346 4028 00000000 		.space	1280
 4346      00000000 
 4346      00000000 
 4346      00000000 
 4346      00000000 
 4347              		.type	buf.11987, %object
 4348              		.size	buf.11987, 128
ARM GAS  C:\Users\brian\AppData\Local\Temp\ccmYYpDh.s 			page 108


 4349              	buf.11987:
 4350 4528 00000000 		.space	128
 4350      00000000 
 4350      00000000 
 4350      00000000 
 4350      00000000 
 4351              		.type	buf.11991, %object
 4352              		.size	buf.11991, 256
 4353              	buf.11991:
 4354 45a8 00000000 		.space	256
 4354      00000000 
 4354      00000000 
 4354      00000000 
 4354      00000000 
 4355              		.type	buf.11995, %object
 4356              		.size	buf.11995, 2048
 4357              	buf.11995:
 4358 46a8 00000000 		.space	2048
 4358      00000000 
 4358      00000000 
 4358      00000000 
 4358      00000000 
 4359              		.type	buf.11999, %object
 4360              		.size	buf.11999, 160
 4361              	buf.11999:
 4362 4ea8 00000000 		.space	160
 4362      00000000 
 4362      00000000 
 4362      00000000 
 4362      00000000 
 4363              		.type	buf.12003, %object
 4364              		.size	buf.12003, 320
 4365              	buf.12003:
 4366 4f48 00000000 		.space	320
 4366      00000000 
 4366      00000000 
 4366      00000000 
 4366      00000000 
 4367              		.type	buf.12007, %object
 4368              		.size	buf.12007, 3200
 4369              	buf.12007:
 4370 5088 00000000 		.space	3200
 4370      00000000 
 4370      00000000 
 4370      00000000 
 4370      00000000 
 4371              		.type	buf.12011, %object
 4372              		.size	buf.12011, 256
 4373              	buf.12011:
 4374 5d08 00000000 		.space	256
 4374      00000000 
 4374      00000000 
 4374      00000000 
 4374      00000000 
 4375              		.type	buf.12015, %object
 4376              		.size	buf.12015, 512
 4377              	buf.12015:
ARM GAS  C:\Users\brian\AppData\Local\Temp\ccmYYpDh.s 			page 109


 4378 5e08 00000000 		.space	512
 4378      00000000 
 4378      00000000 
 4378      00000000 
 4378      00000000 
 4379              		.type	buf.12019, %object
 4380              		.size	buf.12019, 2048
 4381              	buf.12019:
 4382 6008 00000000 		.space	2048
 4382      00000000 
 4382      00000000 
 4382      00000000 
 4382      00000000 
 4383              		.type	buf.12023, %object
 4384              		.size	buf.12023, 104
 4385              	buf.12023:
 4386 6808 00000000 		.space	104
 4386      00000000 
 4386      00000000 
 4386      00000000 
 4386      00000000 
 4387              		.type	buf.12027, %object
 4388              		.size	buf.12027, 208
 4389              	buf.12027:
 4390 6870 00000000 		.space	208
 4390      00000000 
 4390      00000000 
 4390      00000000 
 4390      00000000 
 4391              		.type	buf.12031, %object
 4392              		.size	buf.12031, 832
 4393              	buf.12031:
 4394 6940 00000000 		.space	832
 4394      00000000 
 4394      00000000 
 4394      00000000 
 4394      00000000 
 4395              		.type	buf.12035, %object
 4396              		.size	buf.12035, 64
 4397              	buf.12035:
 4398 6c80 00000000 		.space	64
 4398      00000000 
 4398      00000000 
 4398      00000000 
 4398      00000000 
 4399              		.type	buf.12039, %object
 4400              		.size	buf.12039, 128
 4401              	buf.12039:
 4402 6cc0 00000000 		.space	128
 4402      00000000 
 4402      00000000 
 4402      00000000 
 4402      00000000 
 4403              		.type	buf.12043, %object
 4404              		.size	buf.12043, 384
 4405              	buf.12043:
 4406 6d40 00000000 		.space	384
ARM GAS  C:\Users\brian\AppData\Local\Temp\ccmYYpDh.s 			page 110


 4406      00000000 
 4406      00000000 
 4406      00000000 
 4406      00000000 
 4407              		.type	buf.12047, %object
 4408              		.size	buf.12047, 48
 4409              	buf.12047:
 4410 6ec0 00000000 		.space	48
 4410      00000000 
 4410      00000000 
 4410      00000000 
 4410      00000000 
 4411              		.type	buf.12051, %object
 4412              		.size	buf.12051, 96
 4413              	buf.12051:
 4414 6ef0 00000000 		.space	96
 4414      00000000 
 4414      00000000 
 4414      00000000 
 4414      00000000 
 4415              		.type	buf.12055, %object
 4416              		.size	buf.12055, 384
 4417              	buf.12055:
 4418 6f50 00000000 		.space	384
 4418      00000000 
 4418      00000000 
 4418      00000000 
 4418      00000000 
 4419              		.type	buf.12059, %object
 4420              		.size	buf.12059, 96
 4421              	buf.12059:
 4422 70d0 00000000 		.space	96
 4422      00000000 
 4422      00000000 
 4422      00000000 
 4422      00000000 
 4423              		.type	buf.12063, %object
 4424              		.size	buf.12063, 192
 4425              	buf.12063:
 4426 7130 00000000 		.space	192
 4426      00000000 
 4426      00000000 
 4426      00000000 
 4426      00000000 
 4427              		.type	buf.12067, %object
 4428              		.size	buf.12067, 192
 4429              	buf.12067:
 4430 71f0 00000000 		.space	192
 4430      00000000 
 4430      00000000 
 4430      00000000 
 4430      00000000 
 4431              		.type	buf.12071, %object
 4432              		.size	buf.12071, 128
 4433              	buf.12071:
 4434 72b0 00000000 		.space	128
 4434      00000000 
ARM GAS  C:\Users\brian\AppData\Local\Temp\ccmYYpDh.s 			page 111


 4434      00000000 
 4434      00000000 
 4434      00000000 
 4435              		.type	buf.12075, %object
 4436              		.size	buf.12075, 256
 4437              	buf.12075:
 4438 7330 00000000 		.space	256
 4438      00000000 
 4438      00000000 
 4438      00000000 
 4438      00000000 
 4439              		.type	buf.12079, %object
 4440              		.size	buf.12079, 1536
 4441              	buf.12079:
 4442 7430 00000000 		.space	1536
 4442      00000000 
 4442      00000000 
 4442      00000000 
 4442      00000000 
 4443              		.type	buf.12083, %object
 4444              		.size	buf.12083, 256
 4445              	buf.12083:
 4446 7a30 00000000 		.space	256
 4446      00000000 
 4446      00000000 
 4446      00000000 
 4446      00000000 
 4447              		.type	buf.12087, %object
 4448              		.size	buf.12087, 512
 4449              	buf.12087:
 4450 7b30 00000000 		.space	512
 4450      00000000 
 4450      00000000 
 4450      00000000 
 4450      00000000 
 4451              		.type	buf.12091, %object
 4452              		.size	buf.12091, 1024
 4453              	buf.12091:
 4454 7d30 00000000 		.space	1024
 4454      00000000 
 4454      00000000 
 4454      00000000 
 4454      00000000 
 4455              		.type	buf.12095, %object
 4456              		.size	buf.12095, 96
 4457              	buf.12095:
 4458 8130 00000000 		.space	96
 4458      00000000 
 4458      00000000 
 4458      00000000 
 4458      00000000 
 4459              		.type	buf.12099, %object
 4460              		.size	buf.12099, 192
 4461              	buf.12099:
 4462 8190 00000000 		.space	192
 4462      00000000 
 4462      00000000 
ARM GAS  C:\Users\brian\AppData\Local\Temp\ccmYYpDh.s 			page 112


 4462      00000000 
 4462      00000000 
 4463              		.type	buf.12103, %object
 4464              		.size	buf.12103, 768
 4465              	buf.12103:
 4466 8250 00000000 		.space	768
 4466      00000000 
 4466      00000000 
 4466      00000000 
 4466      00000000 
 4467              		.type	buf.12107, %object
 4468              		.size	buf.12107, 192
 4469              	buf.12107:
 4470 8550 00000000 		.space	192
 4470      00000000 
 4470      00000000 
 4470      00000000 
 4470      00000000 
 4471              		.type	buf.12111, %object
 4472              		.size	buf.12111, 384
 4473              	buf.12111:
 4474 8610 00000000 		.space	384
 4474      00000000 
 4474      00000000 
 4474      00000000 
 4474      00000000 
 4475              		.type	buf.12115, %object
 4476              		.size	buf.12115, 768
 4477              	buf.12115:
 4478 8790 00000000 		.space	768
 4478      00000000 
 4478      00000000 
 4478      00000000 
 4478      00000000 
 4479              		.type	buf.12119, %object
 4480              		.size	buf.12119, 400
 4481              	buf.12119:
 4482 8a90 00000000 		.space	400
 4482      00000000 
 4482      00000000 
 4482      00000000 
 4482      00000000 
 4483              		.type	buf.12123, %object
 4484              		.size	buf.12123, 800
 4485              	buf.12123:
 4486 8c20 00000000 		.space	800
 4486      00000000 
 4486      00000000 
 4486      00000000 
 4486      00000000 
 4487              		.type	buf.12127, %object
 4488              		.size	buf.12127, 12000
 4489              	buf.12127:
 4490 8f40 00000000 		.space	12000
 4490      00000000 
 4490      00000000 
 4490      00000000 
ARM GAS  C:\Users\brian\AppData\Local\Temp\ccmYYpDh.s 			page 113


 4490      00000000 
 4491              		.type	buf.12131, %object
 4492              		.size	buf.12131, 144
 4493              	buf.12131:
 4494 be20 00000000 		.space	144
 4494      00000000 
 4494      00000000 
 4494      00000000 
 4494      00000000 
 4495              		.type	buf.12135, %object
 4496              		.size	buf.12135, 288
 4497              	buf.12135:
 4498 beb0 00000000 		.space	288
 4498      00000000 
 4498      00000000 
 4498      00000000 
 4498      00000000 
 4499              		.type	buf.12139, %object
 4500              		.size	buf.12139, 3024
 4501              	buf.12139:
 4502 bfd0 00000000 		.space	3024
 4502      00000000 
 4502      00000000 
 4502      00000000 
 4502      00000000 
 4503              		.type	buf.12143, %object
 4504              		.size	buf.12143, 88
 4505              	buf.12143:
 4506 cba0 00000000 		.space	88
 4506      00000000 
 4506      00000000 
 4506      00000000 
 4506      00000000 
 4507              		.type	buf.12147, %object
 4508              		.size	buf.12147, 176
 4509              	buf.12147:
 4510 cbf8 00000000 		.space	176
 4510      00000000 
 4510      00000000 
 4510      00000000 
 4510      00000000 
 4511              		.type	buf.12151, %object
 4512              		.size	buf.12151, 528
 4513              	buf.12151:
 4514 cca8 00000000 		.space	528
 4514      00000000 
 4514      00000000 
 4514      00000000 
 4514      00000000 
 4515              		.type	buf.12155, %object
 4516              		.size	buf.12155, 96
 4517              	buf.12155:
 4518 ceb8 00000000 		.space	96
 4518      00000000 
 4518      00000000 
 4518      00000000 
 4518      00000000 
ARM GAS  C:\Users\brian\AppData\Local\Temp\ccmYYpDh.s 			page 114


 4519              		.type	buf.12159, %object
 4520              		.size	buf.12159, 192
 4521              	buf.12159:
 4522 cf18 00000000 		.space	192
 4522      00000000 
 4522      00000000 
 4522      00000000 
 4522      00000000 
 4523              		.type	buf.12163, %object
 4524              		.size	buf.12163, 864
 4525              	buf.12163:
 4526 cfd8 00000000 		.space	864
 4526      00000000 
 4526      00000000 
 4526      00000000 
 4526      00000000 
 4527              		.type	buf.12167, %object
 4528              		.size	buf.12167, 192
 4529              	buf.12167:
 4530 d338 00000000 		.space	192
 4530      00000000 
 4530      00000000 
 4530      00000000 
 4530      00000000 
 4531              		.type	buf.12171, %object
 4532              		.size	buf.12171, 384
 4533              	buf.12171:
 4534 d3f8 00000000 		.space	384
 4534      00000000 
 4534      00000000 
 4534      00000000 
 4534      00000000 
 4535              		.type	buf.12175, %object
 4536              		.size	buf.12175, 1536
 4537              	buf.12175:
 4538 d578 00000000 		.space	1536
 4538      00000000 
 4538      00000000 
 4538      00000000 
 4538      00000000 
 4539              		.type	buf.12179, %object
 4540              		.size	buf.12179, 240
 4541              	buf.12179:
 4542 db78 00000000 		.space	240
 4542      00000000 
 4542      00000000 
 4542      00000000 
 4542      00000000 
 4543              		.type	buf.12183, %object
 4544              		.size	buf.12183, 480
 4545              	buf.12183:
 4546 dc68 00000000 		.space	480
 4546      00000000 
 4546      00000000 
 4546      00000000 
 4546      00000000 
 4547              		.type	buf.12187, %object
ARM GAS  C:\Users\brian\AppData\Local\Temp\ccmYYpDh.s 			page 115


 4548              		.size	buf.12187, 1920
 4549              	buf.12187:
 4550 de48 00000000 		.space	1920
 4550      00000000 
 4550      00000000 
 4550      00000000 
 4550      00000000 
 4551              		.type	buf.12191, %object
 4552              		.size	buf.12191, 240
 4553              	buf.12191:
 4554 e5c8 00000000 		.space	240
 4554      00000000 
 4554      00000000 
 4554      00000000 
 4554      00000000 
 4555              		.type	buf.12195, %object
 4556              		.size	buf.12195, 480
 4557              	buf.12195:
 4558 e6b8 00000000 		.space	480
 4558      00000000 
 4558      00000000 
 4558      00000000 
 4558      00000000 
 4559              		.type	buf.12199, %object
 4560              		.size	buf.12199, 3600
 4561              	buf.12199:
 4562 e898 00000000 		.space	3600
 4562      00000000 
 4562      00000000 
 4562      00000000 
 4562      00000000 
 4563              		.type	buf.12203, %object
 4564              		.size	buf.12203, 240
 4565              	buf.12203:
 4566 f6a8 00000000 		.space	240
 4566      00000000 
 4566      00000000 
 4566      00000000 
 4566      00000000 
 4567              		.type	buf.12207, %object
 4568              		.size	buf.12207, 480
 4569              	buf.12207:
 4570 f798 00000000 		.space	480
 4570      00000000 
 4570      00000000 
 4570      00000000 
 4570      00000000 
 4571              		.type	buf.12211, %object
 4572              		.size	buf.12211, 3840
 4573              	buf.12211:
 4574 f978 00000000 		.space	3840
 4574      00000000 
 4574      00000000 
 4574      00000000 
 4574      00000000 
 4575              		.type	buf.12215, %object
 4576              		.size	buf.12215, 160
ARM GAS  C:\Users\brian\AppData\Local\Temp\ccmYYpDh.s 			page 116


 4577              	buf.12215:
 4578 10878 00000000 		.space	160
 4578      00000000 
 4578      00000000 
 4578      00000000 
 4578      00000000 
 4579              		.type	buf.12219, %object
 4580              		.size	buf.12219, 320
 4581              	buf.12219:
 4582 10918 00000000 		.space	320
 4582      00000000 
 4582      00000000 
 4582      00000000 
 4582      00000000 
 4583              		.type	buf.12223, %object
 4584              		.size	buf.12223, 2560
 4585              	buf.12223:
 4586 10a58 00000000 		.space	2560
 4586      00000000 
 4586      00000000 
 4586      00000000 
 4586      00000000 
 4587              		.type	buf.12227, %object
 4588              		.size	buf.12227, 192
 4589              	buf.12227:
 4590 11458 00000000 		.space	192
 4590      00000000 
 4590      00000000 
 4590      00000000 
 4590      00000000 
 4591              		.type	buf.12231, %object
 4592              		.size	buf.12231, 384
 4593              	buf.12231:
 4594 11518 00000000 		.space	384
 4594      00000000 
 4594      00000000 
 4594      00000000 
 4594      00000000 
 4595              		.type	buf.12235, %object
 4596              		.size	buf.12235, 2304
 4597              	buf.12235:
 4598 11698 00000000 		.space	2304
 4598      00000000 
 4598      00000000 
 4598      00000000 
 4598      00000000 
 4599              		.type	buf.12239, %object
 4600              		.size	buf.12239, 160
 4601              	buf.12239:
 4602 11f98 00000000 		.space	160
 4602      00000000 
 4602      00000000 
 4602      00000000 
 4602      00000000 
 4603              		.type	buf.12243, %object
 4604              		.size	buf.12243, 320
 4605              	buf.12243:
ARM GAS  C:\Users\brian\AppData\Local\Temp\ccmYYpDh.s 			page 117


 4606 12038 00000000 		.space	320
 4606      00000000 
 4606      00000000 
 4606      00000000 
 4606      00000000 
 4607              		.type	buf.12247, %object
 4608              		.size	buf.12247, 2080
 4609              	buf.12247:
 4610 12178 00000000 		.space	2080
 4610      00000000 
 4610      00000000 
 4610      00000000 
 4610      00000000 
 4611              		.type	buf.12251, %object
 4612              		.size	buf.12251, 240
 4613              	buf.12251:
 4614 12998 00000000 		.space	240
 4614      00000000 
 4614      00000000 
 4614      00000000 
 4614      00000000 
 4615              		.type	buf.12255, %object
 4616              		.size	buf.12255, 480
 4617              	buf.12255:
 4618 12a88 00000000 		.space	480
 4618      00000000 
 4618      00000000 
 4618      00000000 
 4618      00000000 
 4619              		.type	buf.12259, %object
 4620              		.size	buf.12259, 4800
 4621              	buf.12259:
 4622 12c68 00000000 		.space	4800
 4622      00000000 
 4622      00000000 
 4622      00000000 
 4622      00000000 
 4623              		.type	buf.12263, %object
 4624              		.size	buf.12263, 256
 4625              	buf.12263:
 4626 13f28 00000000 		.space	256
 4626      00000000 
 4626      00000000 
 4626      00000000 
 4626      00000000 
 4627              		.type	buf.12267, %object
 4628              		.size	buf.12267, 512
 4629              	buf.12267:
 4630 14028 00000000 		.space	512
 4630      00000000 
 4630      00000000 
 4630      00000000 
 4630      00000000 
 4631              		.type	buf.12271, %object
 4632              		.size	buf.12271, 4096
 4633              	buf.12271:
 4634 14228 00000000 		.space	4096
ARM GAS  C:\Users\brian\AppData\Local\Temp\ccmYYpDh.s 			page 118


 4634      00000000 
 4634      00000000 
 4634      00000000 
 4634      00000000 
 4635              		.type	buf.12275, %object
 4636              		.size	buf.12275, 320
 4637              	buf.12275:
 4638 15228 00000000 		.space	320
 4638      00000000 
 4638      00000000 
 4638      00000000 
 4638      00000000 
 4639              		.type	buf.12279, %object
 4640              		.size	buf.12279, 640
 4641              	buf.12279:
 4642 15368 00000000 		.space	640
 4642      00000000 
 4642      00000000 
 4642      00000000 
 4642      00000000 
 4643              		.type	buf.12283, %object
 4644              		.size	buf.12283, 9600
 4645              	buf.12283:
 4646 155e8 00000000 		.space	9600
 4646      00000000 
 4646      00000000 
 4646      00000000 
 4646      00000000 
 4647              		.type	buf.12287, %object
 4648              		.size	buf.12287, 160
 4649              	buf.12287:
 4650 17b68 00000000 		.space	160
 4650      00000000 
 4650      00000000 
 4650      00000000 
 4650      00000000 
 4651              		.type	buf.12291, %object
 4652              		.size	buf.12291, 320
 4653              	buf.12291:
 4654 17c08 00000000 		.space	320
 4654      00000000 
 4654      00000000 
 4654      00000000 
 4654      00000000 
 4655              		.type	buf.12295, %object
 4656              		.size	buf.12295, 1280
 4657              	buf.12295:
 4658 17d48 00000000 		.space	1280
 4658      00000000 
 4658      00000000 
 4658      00000000 
 4658      00000000 
 4659              		.type	buf.12299, %object
 4660              		.size	buf.12299, 136
 4661              	buf.12299:
 4662 18248 00000000 		.space	136
 4662      00000000 
ARM GAS  C:\Users\brian\AppData\Local\Temp\ccmYYpDh.s 			page 119


 4662      00000000 
 4662      00000000 
 4662      00000000 
 4663              		.type	buf.12303, %object
 4664              		.size	buf.12303, 272
 4665              	buf.12303:
 4666 182d0 00000000 		.space	272
 4666      00000000 
 4666      00000000 
 4666      00000000 
 4666      00000000 
 4667              		.type	buf.12307, %object
 4668              		.size	buf.12307, 544
 4669              	buf.12307:
 4670 183e0 00000000 		.space	544
 4670      00000000 
 4670      00000000 
 4670      00000000 
 4670      00000000 
 4671              		.type	buf.12311, %object
 4672              		.size	buf.12311, 136
 4673              	buf.12311:
 4674 18600 00000000 		.space	136
 4674      00000000 
 4674      00000000 
 4674      00000000 
 4674      00000000 
 4675              		.type	buf.12315, %object
 4676              		.size	buf.12315, 272
 4677              	buf.12315:
 4678 18688 00000000 		.space	272
 4678      00000000 
 4678      00000000 
 4678      00000000 
 4678      00000000 
 4679              		.type	buf.12319, %object
 4680              		.size	buf.12319, 1088
 4681              	buf.12319:
 4682 18798 00000000 		.space	1088
 4682      00000000 
 4682      00000000 
 4682      00000000 
 4682      00000000 
 4683              		.type	buf.12323, %object
 4684              		.size	buf.12323, 384
 4685              	buf.12323:
 4686 18bd8 00000000 		.space	384
 4686      00000000 
 4686      00000000 
 4686      00000000 
 4686      00000000 
 4687              		.type	buf.12327, %object
 4688              		.size	buf.12327, 768
 4689              	buf.12327:
 4690 18d58 00000000 		.space	768
 4690      00000000 
 4690      00000000 
ARM GAS  C:\Users\brian\AppData\Local\Temp\ccmYYpDh.s 			page 120


 4690      00000000 
 4690      00000000 
 4691              		.type	buf.12331, %object
 4692              		.size	buf.12331, 6528
 4693              	buf.12331:
 4694 19058 00000000 		.space	6528
 4694      00000000 
 4694      00000000 
 4694      00000000 
 4694      00000000 
 4695              		.type	buf.12335, %object
 4696              		.size	buf.12335, 256
 4697              	buf.12335:
 4698 1a9d8 00000000 		.space	256
 4698      00000000 
 4698      00000000 
 4698      00000000 
 4698      00000000 
 4699              		.type	buf.12339, %object
 4700              		.size	buf.12339, 512
 4701              	buf.12339:
 4702 1aad8 00000000 		.space	512
 4702      00000000 
 4702      00000000 
 4702      00000000 
 4702      00000000 
 4703              		.type	buf.12343, %object
 4704              		.size	buf.12343, 5120
 4705              	buf.12343:
 4706 1acd8 00000000 		.space	5120
 4706      00000000 
 4706      00000000 
 4706      00000000 
 4706      00000000 
 4707              		.type	buf.12347, %object
 4708              		.size	buf.12347, 176
 4709              	buf.12347:
 4710 1c0d8 00000000 		.space	176
 4710      00000000 
 4710      00000000 
 4710      00000000 
 4710      00000000 
 4711              		.type	buf.12351, %object
 4712              		.size	buf.12351, 352
 4713              	buf.12351:
 4714 1c188 00000000 		.space	352
 4714      00000000 
 4714      00000000 
 4714      00000000 
 4714      00000000 
 4715              		.type	buf.12355, %object
 4716              		.size	buf.12355, 2288
 4717              	buf.12355:
 4718 1c2e8 00000000 		.space	2288
 4718      00000000 
 4718      00000000 
 4718      00000000 
ARM GAS  C:\Users\brian\AppData\Local\Temp\ccmYYpDh.s 			page 121


 4718      00000000 
 4719              		.type	buf.12359, %object
 4720              		.size	buf.12359, 152
 4721              	buf.12359:
 4722 1cbd8 00000000 		.space	152
 4722      00000000 
 4722      00000000 
 4722      00000000 
 4722      00000000 
 4723              		.type	buf.12363, %object
 4724              		.size	buf.12363, 304
 4725              	buf.12363:
 4726 1cc70 00000000 		.space	304
 4726      00000000 
 4726      00000000 
 4726      00000000 
 4726      00000000 
 4727              		.type	buf.12367, %object
 4728              		.size	buf.12367, 608
 4729              	buf.12367:
 4730 1cda0 00000000 		.space	608
 4730      00000000 
 4730      00000000 
 4730      00000000 
 4730      00000000 
 4731              		.type	buf.12371, %object
 4732              		.size	buf.12371, 160
 4733              	buf.12371:
 4734 1d000 00000000 		.space	160
 4734      00000000 
 4734      00000000 
 4734      00000000 
 4734      00000000 
 4735              		.type	buf.12375, %object
 4736              		.size	buf.12375, 320
 4737              	buf.12375:
 4738 1d0a0 00000000 		.space	320
 4738      00000000 
 4738      00000000 
 4738      00000000 
 4738      00000000 
 4739              		.type	buf.12379, %object
 4740              		.size	buf.12379, 1600
 4741              	buf.12379:
 4742 1d1e0 00000000 		.space	1600
 4742      00000000 
 4742      00000000 
 4742      00000000 
 4742      00000000 
 4743              		.type	buf.12383, %object
 4744              		.size	buf.12383, 160
 4745              	buf.12383:
 4746 1d820 00000000 		.space	160
 4746      00000000 
 4746      00000000 
 4746      00000000 
 4746      00000000 
ARM GAS  C:\Users\brian\AppData\Local\Temp\ccmYYpDh.s 			page 122


 4747              		.type	buf.12387, %object
 4748              		.size	buf.12387, 320
 4749              	buf.12387:
 4750 1d8c0 00000000 		.space	320
 4750      00000000 
 4750      00000000 
 4750      00000000 
 4750      00000000 
 4751              		.type	buf.12391, %object
 4752              		.size	buf.12391, 640
 4753              	buf.12391:
 4754 1da00 00000000 		.space	640
 4754      00000000 
 4754      00000000 
 4754      00000000 
 4754      00000000 
 4755              		.type	buf.12395, %object
 4756              		.size	buf.12395, 160
 4757              	buf.12395:
 4758 1dc80 00000000 		.space	160
 4758      00000000 
 4758      00000000 
 4758      00000000 
 4758      00000000 
 4759              		.type	buf.12399, %object
 4760              		.size	buf.12399, 320
 4761              	buf.12399:
 4762 1dd20 00000000 		.space	320
 4762      00000000 
 4762      00000000 
 4762      00000000 
 4762      00000000 
 4763              		.type	buf.12403, %object
 4764              		.size	buf.12403, 2720
 4765              	buf.12403:
 4766 1de60 00000000 		.space	2720
 4766      00000000 
 4766      00000000 
 4766      00000000 
 4766      00000000 
 4767              		.type	buf.12407, %object
 4768              		.size	buf.12407, 176
 4769              	buf.12407:
 4770 1e900 00000000 		.space	176
 4770      00000000 
 4770      00000000 
 4770      00000000 
 4770      00000000 
 4771              		.type	buf.12411, %object
 4772              		.size	buf.12411, 352
 4773              	buf.12411:
 4774 1e9b0 00000000 		.space	352
 4774      00000000 
 4774      00000000 
 4774      00000000 
 4774      00000000 
 4775              		.type	buf.12415, %object
ARM GAS  C:\Users\brian\AppData\Local\Temp\ccmYYpDh.s 			page 123


 4776              		.size	buf.12415, 1584
 4777              	buf.12415:
 4778 1eb10 00000000 		.space	1584
 4778      00000000 
 4778      00000000 
 4778      00000000 
 4778      00000000 
 4779              		.type	buf.12419, %object
 4780              		.size	buf.12419, 200
 4781              	buf.12419:
 4782 1f140 00000000 		.space	200
 4782      00000000 
 4782      00000000 
 4782      00000000 
 4782      00000000 
 4783              		.type	buf.12423, %object
 4784              		.size	buf.12423, 400
 4785              	buf.12423:
 4786 1f208 00000000 		.space	400
 4786      00000000 
 4786      00000000 
 4786      00000000 
 4786      00000000 
 4787              		.type	buf.12427, %object
 4788              		.size	buf.12427, 5000
 4789              	buf.12427:
 4790 1f398 00000000 		.space	5000
 4790      00000000 
 4790      00000000 
 4790      00000000 
 4790      00000000 
 4791              		.type	buf.12431, %object
 4792              		.size	buf.12431, 296
 4793              	buf.12431:
 4794 20720 00000000 		.space	296
 4794      00000000 
 4794      00000000 
 4794      00000000 
 4794      00000000 
 4795              		.type	buf.12435, %object
 4796              		.size	buf.12435, 592
 4797              	buf.12435:
 4798 20848 00000000 		.space	592
 4798      00000000 
 4798      00000000 
 4798      00000000 
 4798      00000000 
 4799              		.type	buf.12439, %object
 4800              		.size	buf.12439, 4736
 4801              	buf.12439:
 4802 20a98 00000000 		.space	4736
 4802      00000000 
 4802      00000000 
 4802      00000000 
 4802      00000000 
 4803              		.type	buf.12443, %object
 4804              		.size	buf.12443, 64
ARM GAS  C:\Users\brian\AppData\Local\Temp\ccmYYpDh.s 			page 124


 4805              	buf.12443:
 4806 21d18 00000000 		.space	64
 4806      00000000 
 4806      00000000 
 4806      00000000 
 4806      00000000 
 4807              		.type	buf.12447, %object
 4808              		.size	buf.12447, 128
 4809              	buf.12447:
 4810 21d58 00000000 		.space	128
 4810      00000000 
 4810      00000000 
 4810      00000000 
 4810      00000000 
 4811              		.type	buf.12451, %object
 4812              		.size	buf.12451, 64
 4813              	buf.12451:
 4814 21dd8 00000000 		.space	64
 4814      00000000 
 4814      00000000 
 4814      00000000 
 4814      00000000 
 4815              		.type	buf.12455, %object
 4816              		.size	buf.12455, 32
 4817              	buf.12455:
 4818 21e18 00000000 		.space	32
 4818      00000000 
 4818      00000000 
 4818      00000000 
 4818      00000000 
 4819              		.type	buf.12459, %object
 4820              		.size	buf.12459, 64
 4821              	buf.12459:
 4822 21e38 00000000 		.space	64
 4822      00000000 
 4822      00000000 
 4822      00000000 
 4822      00000000 
 4823              		.type	buf.12463, %object
 4824              		.size	buf.12463, 32
 4825              	buf.12463:
 4826 21e78 00000000 		.space	32
 4826      00000000 
 4826      00000000 
 4826      00000000 
 4826      00000000 
 4827              		.type	buf.12467, %object
 4828              		.size	buf.12467, 8
 4829              	buf.12467:
 4830 21e98 00000000 		.space	8
 4830      00000000 
 4831              		.type	buf.12471, %object
 4832              		.size	buf.12471, 16
 4833              	buf.12471:
 4834 21ea0 00000000 		.space	16
 4834      00000000 
 4834      00000000 
ARM GAS  C:\Users\brian\AppData\Local\Temp\ccmYYpDh.s 			page 125


 4834      00000000 
 4835              		.type	buf.12475, %object
 4836              		.size	buf.12475, 8
 4837              	buf.12475:
 4838 21eb0 00000000 		.space	8
 4838      00000000 
 4839              		.type	buf.12479, %object
 4840              		.size	buf.12479, 384
 4841              	buf.12479:
 4842 21eb8 00000000 		.space	384
 4842      00000000 
 4842      00000000 
 4842      00000000 
 4842      00000000 
 4843              		.type	buf.12483, %object
 4844              		.size	buf.12483, 768
 4845              	buf.12483:
 4846 22038 00000000 		.space	768
 4846      00000000 
 4846      00000000 
 4846      00000000 
 4846      00000000 
 4847              		.type	buf.12487, %object
 4848              		.size	buf.12487, 11520
 4849              	buf.12487:
 4850 22338 00000000 		.space	11520
 4850      00000000 
 4850      00000000 
 4850      00000000 
 4850      00000000 
 4851              		.text
 4852              	.Letext0:
 4853              		.file 2 "c:\\program files (x86)\\cypress\\psoc creator\\4.4\\psoc creator\\import\\gnu\\arm\\5.4.
 4854              		.file 3 "c:\\program files (x86)\\cypress\\psoc creator\\4.4\\psoc creator\\import\\gnu\\arm\\5.4.
 4855              		.section	.debug_info,"",%progbits
 4856              	.Ldebug_info0:
 4857 0000 98280000 		.4byte	0x2898
 4858 0004 0400     		.2byte	0x4
 4859 0006 00000000 		.4byte	.Ldebug_abbrev0
 4860 000a 04       		.byte	0x4
 4861 000b 01       		.uleb128 0x1
 4862 000c EE020000 		.4byte	.LASF164
 4863 0010 0C       		.byte	0xc
 4864 0011 D5000000 		.4byte	.LASF165
 4865 0015 FB030000 		.4byte	.LASF166
 4866 0019 00000000 		.4byte	.Ldebug_ranges0+0
 4867 001d 00000000 		.4byte	0
 4868 0021 00000000 		.4byte	.Ldebug_line0
 4869 0025 02       		.uleb128 0x2
 4870 0026 01       		.byte	0x1
 4871 0027 06       		.byte	0x6
 4872 0028 30090000 		.4byte	.LASF0
 4873 002c 03       		.uleb128 0x3
 4874 002d A9070000 		.4byte	.LASF9
 4875 0031 02       		.byte	0x2
 4876 0032 1D       		.byte	0x1d
 4877 0033 37000000 		.4byte	0x37
ARM GAS  C:\Users\brian\AppData\Local\Temp\ccmYYpDh.s 			page 126


 4878 0037 02       		.uleb128 0x2
 4879 0038 01       		.byte	0x1
 4880 0039 08       		.byte	0x8
 4881 003a 20080000 		.4byte	.LASF1
 4882 003e 02       		.uleb128 0x2
 4883 003f 02       		.byte	0x2
 4884 0040 05       		.byte	0x5
 4885 0041 2D070000 		.4byte	.LASF2
 4886 0045 02       		.uleb128 0x2
 4887 0046 02       		.byte	0x2
 4888 0047 07       		.byte	0x7
 4889 0048 3C090000 		.4byte	.LASF3
 4890 004c 02       		.uleb128 0x2
 4891 004d 04       		.byte	0x4
 4892 004e 05       		.byte	0x5
 4893 004f 55070000 		.4byte	.LASF4
 4894 0053 02       		.uleb128 0x2
 4895 0054 04       		.byte	0x4
 4896 0055 07       		.byte	0x7
 4897 0056 BC070000 		.4byte	.LASF5
 4898 005a 02       		.uleb128 0x2
 4899 005b 08       		.byte	0x8
 4900 005c 05       		.byte	0x5
 4901 005d F7040000 		.4byte	.LASF6
 4902 0061 02       		.uleb128 0x2
 4903 0062 08       		.byte	0x8
 4904 0063 07       		.byte	0x7
 4905 0064 1F020000 		.4byte	.LASF7
 4906 0068 04       		.uleb128 0x4
 4907 0069 04       		.byte	0x4
 4908 006a 05       		.byte	0x5
 4909 006b 696E7400 		.ascii	"int\000"
 4910 006f 02       		.uleb128 0x2
 4911 0070 04       		.byte	0x4
 4912 0071 07       		.byte	0x7
 4913 0072 3B000000 		.4byte	.LASF8
 4914 0076 03       		.uleb128 0x3
 4915 0077 98040000 		.4byte	.LASF10
 4916 007b 03       		.byte	0x3
 4917 007c 18       		.byte	0x18
 4918 007d 2C000000 		.4byte	0x2c
 4919 0081 02       		.uleb128 0x2
 4920 0082 08       		.byte	0x8
 4921 0083 04       		.byte	0x4
 4922 0084 9F060000 		.4byte	.LASF11
 4923 0088 05       		.uleb128 0x5
 4924 0089 04       		.byte	0x4
 4925 008a 76000000 		.4byte	0x76
 4926 008e 06       		.uleb128 0x6
 4927 008f 54020000 		.4byte	.LASF13
 4928 0093 01       		.byte	0x1
 4929 0094 06       		.byte	0x6
 4930 0095 88000000 		.4byte	0x88
 4931 0099 00000000 		.4byte	.LFB0
 4932 009d 0C000000 		.4byte	.LFE0-.LFB0
 4933 00a1 01       		.uleb128 0x1
 4934 00a2 9C       		.byte	0x9c
ARM GAS  C:\Users\brian\AppData\Local\Temp\ccmYYpDh.s 			page 127


 4935 00a3 C8000000 		.4byte	0xc8
 4936 00a7 07       		.uleb128 0x7
 4937 00a8 F9070000 		.4byte	.LASF15
 4938 00ac 01       		.byte	0x1
 4939 00ad 06       		.byte	0x6
 4940 00ae 88000000 		.4byte	0x88
 4941 00b2 00000000 		.4byte	.LLST0
 4942 00b6 08       		.uleb128 0x8
 4943 00b7 62756600 		.ascii	"buf\000"
 4944 00bb 01       		.byte	0x1
 4945 00bc 0C       		.byte	0xc
 4946 00bd C8000000 		.4byte	0xc8
 4947 00c1 05       		.uleb128 0x5
 4948 00c2 03       		.byte	0x3
 4949 00c3 00000000 		.4byte	buf.11891
 4950 00c7 00       		.byte	0
 4951 00c8 09       		.uleb128 0x9
 4952 00c9 76000000 		.4byte	0x76
 4953 00cd D8000000 		.4byte	0xd8
 4954 00d1 0A       		.uleb128 0xa
 4955 00d2 D8000000 		.4byte	0xd8
 4956 00d6 7F       		.byte	0x7f
 4957 00d7 00       		.byte	0
 4958 00d8 02       		.uleb128 0x2
 4959 00d9 04       		.byte	0x4
 4960 00da 07       		.byte	0x7
 4961 00db B3070000 		.4byte	.LASF12
 4962 00df 06       		.uleb128 0x6
 4963 00e0 62020000 		.4byte	.LASF14
 4964 00e4 01       		.byte	0x1
 4965 00e5 11       		.byte	0x11
 4966 00e6 88000000 		.4byte	0x88
 4967 00ea 00000000 		.4byte	.LFB1
 4968 00ee 0C000000 		.4byte	.LFE1-.LFB1
 4969 00f2 01       		.uleb128 0x1
 4970 00f3 9C       		.byte	0x9c
 4971 00f4 19010000 		.4byte	0x119
 4972 00f8 07       		.uleb128 0x7
 4973 00f9 F9070000 		.4byte	.LASF15
 4974 00fd 01       		.byte	0x1
 4975 00fe 11       		.byte	0x11
 4976 00ff 88000000 		.4byte	0x88
 4977 0103 21000000 		.4byte	.LLST1
 4978 0107 08       		.uleb128 0x8
 4979 0108 62756600 		.ascii	"buf\000"
 4980 010c 01       		.byte	0x1
 4981 010d 17       		.byte	0x17
 4982 010e 19010000 		.4byte	0x119
 4983 0112 05       		.uleb128 0x5
 4984 0113 03       		.byte	0x3
 4985 0114 80000000 		.4byte	buf.11895
 4986 0118 00       		.byte	0
 4987 0119 09       		.uleb128 0x9
 4988 011a 76000000 		.4byte	0x76
 4989 011e 29010000 		.4byte	0x129
 4990 0122 0A       		.uleb128 0xa
 4991 0123 D8000000 		.4byte	0xd8
ARM GAS  C:\Users\brian\AppData\Local\Temp\ccmYYpDh.s 			page 128


 4992 0127 FF       		.byte	0xff
 4993 0128 00       		.byte	0
 4994 0129 06       		.uleb128 0x6
 4995 012a 7C030000 		.4byte	.LASF16
 4996 012e 01       		.byte	0x1
 4997 012f 1C       		.byte	0x1c
 4998 0130 88000000 		.4byte	0x88
 4999 0134 00000000 		.4byte	.LFB2
 5000 0138 0C000000 		.4byte	.LFE2-.LFB2
 5001 013c 01       		.uleb128 0x1
 5002 013d 9C       		.byte	0x9c
 5003 013e 63010000 		.4byte	0x163
 5004 0142 07       		.uleb128 0x7
 5005 0143 F9070000 		.4byte	.LASF15
 5006 0147 01       		.byte	0x1
 5007 0148 1C       		.byte	0x1c
 5008 0149 88000000 		.4byte	0x88
 5009 014d 42000000 		.4byte	.LLST2
 5010 0151 08       		.uleb128 0x8
 5011 0152 62756600 		.ascii	"buf\000"
 5012 0156 01       		.byte	0x1
 5013 0157 22       		.byte	0x22
 5014 0158 63010000 		.4byte	0x163
 5015 015c 05       		.uleb128 0x5
 5016 015d 03       		.byte	0x3
 5017 015e 80010000 		.4byte	buf.11899
 5018 0162 00       		.byte	0
 5019 0163 09       		.uleb128 0x9
 5020 0164 76000000 		.4byte	0x76
 5021 0168 74010000 		.4byte	0x174
 5022 016c 0B       		.uleb128 0xb
 5023 016d D8000000 		.4byte	0xd8
 5024 0171 FF01     		.2byte	0x1ff
 5025 0173 00       		.byte	0
 5026 0174 06       		.uleb128 0x6
 5027 0175 2E080000 		.4byte	.LASF17
 5028 0179 01       		.byte	0x1
 5029 017a 27       		.byte	0x27
 5030 017b 88000000 		.4byte	0x88
 5031 017f 00000000 		.4byte	.LFB3
 5032 0183 0C000000 		.4byte	.LFE3-.LFB3
 5033 0187 01       		.uleb128 0x1
 5034 0188 9C       		.byte	0x9c
 5035 0189 AE010000 		.4byte	0x1ae
 5036 018d 07       		.uleb128 0x7
 5037 018e F9070000 		.4byte	.LASF15
 5038 0192 01       		.byte	0x1
 5039 0193 27       		.byte	0x27
 5040 0194 88000000 		.4byte	0x88
 5041 0198 63000000 		.4byte	.LLST3
 5042 019c 08       		.uleb128 0x8
 5043 019d 62756600 		.ascii	"buf\000"
 5044 01a1 01       		.byte	0x1
 5045 01a2 2D       		.byte	0x2d
 5046 01a3 C8000000 		.4byte	0xc8
 5047 01a7 05       		.uleb128 0x5
 5048 01a8 03       		.byte	0x3
ARM GAS  C:\Users\brian\AppData\Local\Temp\ccmYYpDh.s 			page 129


 5049 01a9 80030000 		.4byte	buf.11903
 5050 01ad 00       		.byte	0
 5051 01ae 06       		.uleb128 0x6
 5052 01af 3C080000 		.4byte	.LASF18
 5053 01b3 01       		.byte	0x1
 5054 01b4 32       		.byte	0x32
 5055 01b5 88000000 		.4byte	0x88
 5056 01b9 00000000 		.4byte	.LFB4
 5057 01bd 0C000000 		.4byte	.LFE4-.LFB4
 5058 01c1 01       		.uleb128 0x1
 5059 01c2 9C       		.byte	0x9c
 5060 01c3 E8010000 		.4byte	0x1e8
 5061 01c7 07       		.uleb128 0x7
 5062 01c8 F9070000 		.4byte	.LASF15
 5063 01cc 01       		.byte	0x1
 5064 01cd 32       		.byte	0x32
 5065 01ce 88000000 		.4byte	0x88
 5066 01d2 84000000 		.4byte	.LLST4
 5067 01d6 08       		.uleb128 0x8
 5068 01d7 62756600 		.ascii	"buf\000"
 5069 01db 01       		.byte	0x1
 5070 01dc 38       		.byte	0x38
 5071 01dd 19010000 		.4byte	0x119
 5072 01e1 05       		.uleb128 0x5
 5073 01e2 03       		.byte	0x3
 5074 01e3 00040000 		.4byte	buf.11907
 5075 01e7 00       		.byte	0
 5076 01e8 06       		.uleb128 0x6
 5077 01e9 E9080000 		.4byte	.LASF19
 5078 01ed 01       		.byte	0x1
 5079 01ee 3D       		.byte	0x3d
 5080 01ef 88000000 		.4byte	0x88
 5081 01f3 00000000 		.4byte	.LFB5
 5082 01f7 0C000000 		.4byte	.LFE5-.LFB5
 5083 01fb 01       		.uleb128 0x1
 5084 01fc 9C       		.byte	0x9c
 5085 01fd 22020000 		.4byte	0x222
 5086 0201 07       		.uleb128 0x7
 5087 0202 F9070000 		.4byte	.LASF15
 5088 0206 01       		.byte	0x1
 5089 0207 3D       		.byte	0x3d
 5090 0208 88000000 		.4byte	0x88
 5091 020c A5000000 		.4byte	.LLST5
 5092 0210 08       		.uleb128 0x8
 5093 0211 62756600 		.ascii	"buf\000"
 5094 0215 01       		.byte	0x1
 5095 0216 43       		.byte	0x43
 5096 0217 22020000 		.4byte	0x222
 5097 021b 05       		.uleb128 0x5
 5098 021c 03       		.byte	0x3
 5099 021d 00050000 		.4byte	buf.11911
 5100 0221 00       		.byte	0
 5101 0222 09       		.uleb128 0x9
 5102 0223 76000000 		.4byte	0x76
 5103 0227 33020000 		.4byte	0x233
 5104 022b 0B       		.uleb128 0xb
 5105 022c D8000000 		.4byte	0xd8
ARM GAS  C:\Users\brian\AppData\Local\Temp\ccmYYpDh.s 			page 130


 5106 0230 FF03     		.2byte	0x3ff
 5107 0232 00       		.byte	0
 5108 0233 06       		.uleb128 0x6
 5109 0234 BF030000 		.4byte	.LASF20
 5110 0238 01       		.byte	0x1
 5111 0239 48       		.byte	0x48
 5112 023a 88000000 		.4byte	0x88
 5113 023e 00000000 		.4byte	.LFB6
 5114 0242 0C000000 		.4byte	.LFE6-.LFB6
 5115 0246 01       		.uleb128 0x1
 5116 0247 9C       		.byte	0x9c
 5117 0248 6D020000 		.4byte	0x26d
 5118 024c 07       		.uleb128 0x7
 5119 024d F9070000 		.4byte	.LASF15
 5120 0251 01       		.byte	0x1
 5121 0252 48       		.byte	0x48
 5122 0253 88000000 		.4byte	0x88
 5123 0257 C6000000 		.4byte	.LLST6
 5124 025b 08       		.uleb128 0x8
 5125 025c 62756600 		.ascii	"buf\000"
 5126 0260 01       		.byte	0x1
 5127 0261 4E       		.byte	0x4e
 5128 0262 6D020000 		.4byte	0x26d
 5129 0266 05       		.uleb128 0x5
 5130 0267 03       		.byte	0x3
 5131 0268 00090000 		.4byte	buf.11915
 5132 026c 00       		.byte	0
 5133 026d 09       		.uleb128 0x9
 5134 026e 76000000 		.4byte	0x76
 5135 0272 7E020000 		.4byte	0x27e
 5136 0276 0B       		.uleb128 0xb
 5137 0277 D8000000 		.4byte	0xd8
 5138 027b F707     		.2byte	0x7f7
 5139 027d 00       		.byte	0
 5140 027e 06       		.uleb128 0x6
 5141 027f CE030000 		.4byte	.LASF21
 5142 0283 01       		.byte	0x1
 5143 0284 53       		.byte	0x53
 5144 0285 88000000 		.4byte	0x88
 5145 0289 00000000 		.4byte	.LFB7
 5146 028d 0C000000 		.4byte	.LFE7-.LFB7
 5147 0291 01       		.uleb128 0x1
 5148 0292 9C       		.byte	0x9c
 5149 0293 B8020000 		.4byte	0x2b8
 5150 0297 07       		.uleb128 0x7
 5151 0298 F9070000 		.4byte	.LASF15
 5152 029c 01       		.byte	0x1
 5153 029d 53       		.byte	0x53
 5154 029e 88000000 		.4byte	0x88
 5155 02a2 E7000000 		.4byte	.LLST7
 5156 02a6 08       		.uleb128 0x8
 5157 02a7 62756600 		.ascii	"buf\000"
 5158 02ab 01       		.byte	0x1
 5159 02ac 59       		.byte	0x59
 5160 02ad B8020000 		.4byte	0x2b8
 5161 02b1 05       		.uleb128 0x5
 5162 02b2 03       		.byte	0x3
ARM GAS  C:\Users\brian\AppData\Local\Temp\ccmYYpDh.s 			page 131


 5163 02b3 F8100000 		.4byte	buf.11919
 5164 02b7 00       		.byte	0
 5165 02b8 09       		.uleb128 0x9
 5166 02b9 76000000 		.4byte	0x76
 5167 02bd C9020000 		.4byte	0x2c9
 5168 02c1 0B       		.uleb128 0xb
 5169 02c2 D8000000 		.4byte	0xd8
 5170 02c6 EF0F     		.2byte	0xfef
 5171 02c8 00       		.byte	0
 5172 02c9 06       		.uleb128 0x6
 5173 02ca 3E040000 		.4byte	.LASF22
 5174 02ce 01       		.byte	0x1
 5175 02cf 5E       		.byte	0x5e
 5176 02d0 88000000 		.4byte	0x88
 5177 02d4 00000000 		.4byte	.LFB8
 5178 02d8 0C000000 		.4byte	.LFE8-.LFB8
 5179 02dc 01       		.uleb128 0x1
 5180 02dd 9C       		.byte	0x9c
 5181 02de 03030000 		.4byte	0x303
 5182 02e2 07       		.uleb128 0x7
 5183 02e3 F9070000 		.4byte	.LASF15
 5184 02e7 01       		.byte	0x1
 5185 02e8 5E       		.byte	0x5e
 5186 02e9 88000000 		.4byte	0x88
 5187 02ed 08010000 		.4byte	.LLST8
 5188 02f1 08       		.uleb128 0x8
 5189 02f2 62756600 		.ascii	"buf\000"
 5190 02f6 01       		.byte	0x1
 5191 02f7 64       		.byte	0x64
 5192 02f8 B8020000 		.4byte	0x2b8
 5193 02fc 05       		.uleb128 0x5
 5194 02fd 03       		.byte	0x3
 5195 02fe E8200000 		.4byte	buf.11923
 5196 0302 00       		.byte	0
 5197 0303 06       		.uleb128 0x6
 5198 0304 98030000 		.4byte	.LASF23
 5199 0308 01       		.byte	0x1
 5200 0309 69       		.byte	0x69
 5201 030a 88000000 		.4byte	0x88
 5202 030e 00000000 		.4byte	.LFB9
 5203 0312 0C000000 		.4byte	.LFE9-.LFB9
 5204 0316 01       		.uleb128 0x1
 5205 0317 9C       		.byte	0x9c
 5206 0318 3D030000 		.4byte	0x33d
 5207 031c 07       		.uleb128 0x7
 5208 031d F9070000 		.4byte	.LASF15
 5209 0321 01       		.byte	0x1
 5210 0322 69       		.byte	0x69
 5211 0323 88000000 		.4byte	0x88
 5212 0327 29010000 		.4byte	.LLST9
 5213 032b 08       		.uleb128 0x8
 5214 032c 62756600 		.ascii	"buf\000"
 5215 0330 01       		.byte	0x1
 5216 0331 6F       		.byte	0x6f
 5217 0332 3D030000 		.4byte	0x33d
 5218 0336 05       		.uleb128 0x5
 5219 0337 03       		.byte	0x3
ARM GAS  C:\Users\brian\AppData\Local\Temp\ccmYYpDh.s 			page 132


 5220 0338 D8300000 		.4byte	buf.11927
 5221 033c 00       		.byte	0
 5222 033d 09       		.uleb128 0x9
 5223 033e 76000000 		.4byte	0x76
 5224 0342 4D030000 		.4byte	0x34d
 5225 0346 0A       		.uleb128 0xa
 5226 0347 D8000000 		.4byte	0xd8
 5227 034b 47       		.byte	0x47
 5228 034c 00       		.byte	0
 5229 034d 06       		.uleb128 0x6
 5230 034e A5030000 		.4byte	.LASF24
 5231 0352 01       		.byte	0x1
 5232 0353 74       		.byte	0x74
 5233 0354 88000000 		.4byte	0x88
 5234 0358 00000000 		.4byte	.LFB10
 5235 035c 0C000000 		.4byte	.LFE10-.LFB10
 5236 0360 01       		.uleb128 0x1
 5237 0361 9C       		.byte	0x9c
 5238 0362 87030000 		.4byte	0x387
 5239 0366 07       		.uleb128 0x7
 5240 0367 F9070000 		.4byte	.LASF15
 5241 036b 01       		.byte	0x1
 5242 036c 74       		.byte	0x74
 5243 036d 88000000 		.4byte	0x88
 5244 0371 4A010000 		.4byte	.LLST10
 5245 0375 08       		.uleb128 0x8
 5246 0376 62756600 		.ascii	"buf\000"
 5247 037a 01       		.byte	0x1
 5248 037b 7A       		.byte	0x7a
 5249 037c 87030000 		.4byte	0x387
 5250 0380 05       		.uleb128 0x5
 5251 0381 03       		.byte	0x3
 5252 0382 20310000 		.4byte	buf.11931
 5253 0386 00       		.byte	0
 5254 0387 09       		.uleb128 0x9
 5255 0388 76000000 		.4byte	0x76
 5256 038c 97030000 		.4byte	0x397
 5257 0390 0A       		.uleb128 0xa
 5258 0391 D8000000 		.4byte	0xd8
 5259 0395 8F       		.byte	0x8f
 5260 0396 00       		.byte	0
 5261 0397 06       		.uleb128 0x6
 5262 0398 31040000 		.4byte	.LASF25
 5263 039c 01       		.byte	0x1
 5264 039d 7F       		.byte	0x7f
 5265 039e 88000000 		.4byte	0x88
 5266 03a2 00000000 		.4byte	.LFB11
 5267 03a6 0C000000 		.4byte	.LFE11-.LFB11
 5268 03aa 01       		.uleb128 0x1
 5269 03ab 9C       		.byte	0x9c
 5270 03ac D1030000 		.4byte	0x3d1
 5271 03b0 07       		.uleb128 0x7
 5272 03b1 F9070000 		.4byte	.LASF15
 5273 03b5 01       		.byte	0x1
 5274 03b6 7F       		.byte	0x7f
 5275 03b7 88000000 		.4byte	0x88
 5276 03bb 6B010000 		.4byte	.LLST11
ARM GAS  C:\Users\brian\AppData\Local\Temp\ccmYYpDh.s 			page 133


 5277 03bf 08       		.uleb128 0x8
 5278 03c0 62756600 		.ascii	"buf\000"
 5279 03c4 01       		.byte	0x1
 5280 03c5 85       		.byte	0x85
 5281 03c6 D1030000 		.4byte	0x3d1
 5282 03ca 05       		.uleb128 0x5
 5283 03cb 03       		.byte	0x3
 5284 03cc B0310000 		.4byte	buf.11935
 5285 03d0 00       		.byte	0
 5286 03d1 09       		.uleb128 0x9
 5287 03d2 76000000 		.4byte	0x76
 5288 03d6 E2030000 		.4byte	0x3e2
 5289 03da 0B       		.uleb128 0xb
 5290 03db D8000000 		.4byte	0xd8
 5291 03df 6701     		.2byte	0x167
 5292 03e1 00       		.byte	0
 5293 03e2 06       		.uleb128 0x6
 5294 03e3 D4020000 		.4byte	.LASF26
 5295 03e7 01       		.byte	0x1
 5296 03e8 8A       		.byte	0x8a
 5297 03e9 88000000 		.4byte	0x88
 5298 03ed 00000000 		.4byte	.LFB12
 5299 03f1 0C000000 		.4byte	.LFE12-.LFB12
 5300 03f5 01       		.uleb128 0x1
 5301 03f6 9C       		.byte	0x9c
 5302 03f7 1C040000 		.4byte	0x41c
 5303 03fb 07       		.uleb128 0x7
 5304 03fc F9070000 		.4byte	.LASF15
 5305 0400 01       		.byte	0x1
 5306 0401 8A       		.byte	0x8a
 5307 0402 88000000 		.4byte	0x88
 5308 0406 8C010000 		.4byte	.LLST12
 5309 040a 08       		.uleb128 0x8
 5310 040b 62756600 		.ascii	"buf\000"
 5311 040f 01       		.byte	0x1
 5312 0410 90       		.byte	0x90
 5313 0411 1C040000 		.4byte	0x41c
 5314 0415 05       		.uleb128 0x5
 5315 0416 03       		.byte	0x3
 5316 0417 18330000 		.4byte	buf.11939
 5317 041b 00       		.byte	0
 5318 041c 09       		.uleb128 0x9
 5319 041d 76000000 		.4byte	0x76
 5320 0421 2C040000 		.4byte	0x42c
 5321 0425 0A       		.uleb128 0xa
 5322 0426 D8000000 		.4byte	0xd8
 5323 042a 3F       		.byte	0x3f
 5324 042b 00       		.byte	0
 5325 042c 06       		.uleb128 0x6
 5326 042d E1020000 		.4byte	.LASF27
 5327 0431 01       		.byte	0x1
 5328 0432 95       		.byte	0x95
 5329 0433 88000000 		.4byte	0x88
 5330 0437 00000000 		.4byte	.LFB13
 5331 043b 0C000000 		.4byte	.LFE13-.LFB13
 5332 043f 01       		.uleb128 0x1
 5333 0440 9C       		.byte	0x9c
ARM GAS  C:\Users\brian\AppData\Local\Temp\ccmYYpDh.s 			page 134


 5334 0441 66040000 		.4byte	0x466
 5335 0445 07       		.uleb128 0x7
 5336 0446 F9070000 		.4byte	.LASF15
 5337 044a 01       		.byte	0x1
 5338 044b 95       		.byte	0x95
 5339 044c 88000000 		.4byte	0x88
 5340 0450 AD010000 		.4byte	.LLST13
 5341 0454 08       		.uleb128 0x8
 5342 0455 62756600 		.ascii	"buf\000"
 5343 0459 01       		.byte	0x1
 5344 045a 9B       		.byte	0x9b
 5345 045b C8000000 		.4byte	0xc8
 5346 045f 05       		.uleb128 0x5
 5347 0460 03       		.byte	0x3
 5348 0461 58330000 		.4byte	buf.11943
 5349 0465 00       		.byte	0
 5350 0466 06       		.uleb128 0x6
 5351 0467 B2030000 		.4byte	.LASF28
 5352 046b 01       		.byte	0x1
 5353 046c A0       		.byte	0xa0
 5354 046d 88000000 		.4byte	0x88
 5355 0471 00000000 		.4byte	.LFB14
 5356 0475 0C000000 		.4byte	.LFE14-.LFB14
 5357 0479 01       		.uleb128 0x1
 5358 047a 9C       		.byte	0x9c
 5359 047b A0040000 		.4byte	0x4a0
 5360 047f 07       		.uleb128 0x7
 5361 0480 F9070000 		.4byte	.LASF15
 5362 0484 01       		.byte	0x1
 5363 0485 A0       		.byte	0xa0
 5364 0486 88000000 		.4byte	0x88
 5365 048a CE010000 		.4byte	.LLST14
 5366 048e 08       		.uleb128 0x8
 5367 048f 62756600 		.ascii	"buf\000"
 5368 0493 01       		.byte	0x1
 5369 0494 A6       		.byte	0xa6
 5370 0495 19010000 		.4byte	0x119
 5371 0499 05       		.uleb128 0x5
 5372 049a 03       		.byte	0x3
 5373 049b D8330000 		.4byte	buf.11947
 5374 049f 00       		.byte	0
 5375 04a0 06       		.uleb128 0x6
 5376 04a1 AF040000 		.4byte	.LASF29
 5377 04a5 01       		.byte	0x1
 5378 04a6 AB       		.byte	0xab
 5379 04a7 88000000 		.4byte	0x88
 5380 04ab 00000000 		.4byte	.LFB15
 5381 04af 0C000000 		.4byte	.LFE15-.LFB15
 5382 04b3 01       		.uleb128 0x1
 5383 04b4 9C       		.byte	0x9c
 5384 04b5 DA040000 		.4byte	0x4da
 5385 04b9 07       		.uleb128 0x7
 5386 04ba F9070000 		.4byte	.LASF15
 5387 04be 01       		.byte	0x1
 5388 04bf AB       		.byte	0xab
 5389 04c0 88000000 		.4byte	0x88
 5390 04c4 EF010000 		.4byte	.LLST15
ARM GAS  C:\Users\brian\AppData\Local\Temp\ccmYYpDh.s 			page 135


 5391 04c8 08       		.uleb128 0x8
 5392 04c9 62756600 		.ascii	"buf\000"
 5393 04cd 01       		.byte	0x1
 5394 04ce B1       		.byte	0xb1
 5395 04cf 1C040000 		.4byte	0x41c
 5396 04d3 05       		.uleb128 0x5
 5397 04d4 03       		.byte	0x3
 5398 04d5 D8340000 		.4byte	buf.11951
 5399 04d9 00       		.byte	0
 5400 04da 06       		.uleb128 0x6
 5401 04db BD040000 		.4byte	.LASF30
 5402 04df 01       		.byte	0x1
 5403 04e0 B6       		.byte	0xb6
 5404 04e1 88000000 		.4byte	0x88
 5405 04e5 00000000 		.4byte	.LFB16
 5406 04e9 0C000000 		.4byte	.LFE16-.LFB16
 5407 04ed 01       		.uleb128 0x1
 5408 04ee 9C       		.byte	0x9c
 5409 04ef 14050000 		.4byte	0x514
 5410 04f3 07       		.uleb128 0x7
 5411 04f4 F9070000 		.4byte	.LASF15
 5412 04f8 01       		.byte	0x1
 5413 04f9 B6       		.byte	0xb6
 5414 04fa 88000000 		.4byte	0x88
 5415 04fe 10020000 		.4byte	.LLST16
 5416 0502 08       		.uleb128 0x8
 5417 0503 62756600 		.ascii	"buf\000"
 5418 0507 01       		.byte	0x1
 5419 0508 BC       		.byte	0xbc
 5420 0509 C8000000 		.4byte	0xc8
 5421 050d 05       		.uleb128 0x5
 5422 050e 03       		.byte	0x3
 5423 050f 18350000 		.4byte	buf.11955
 5424 0513 00       		.byte	0
 5425 0514 06       		.uleb128 0x6
 5426 0515 59050000 		.4byte	.LASF31
 5427 0519 01       		.byte	0x1
 5428 051a C1       		.byte	0xc1
 5429 051b 88000000 		.4byte	0x88
 5430 051f 00000000 		.4byte	.LFB17
 5431 0523 0C000000 		.4byte	.LFE17-.LFB17
 5432 0527 01       		.uleb128 0x1
 5433 0528 9C       		.byte	0x9c
 5434 0529 4E050000 		.4byte	0x54e
 5435 052d 07       		.uleb128 0x7
 5436 052e F9070000 		.4byte	.LASF15
 5437 0532 01       		.byte	0x1
 5438 0533 C1       		.byte	0xc1
 5439 0534 88000000 		.4byte	0x88
 5440 0538 31020000 		.4byte	.LLST17
 5441 053c 08       		.uleb128 0x8
 5442 053d 62756600 		.ascii	"buf\000"
 5443 0541 01       		.byte	0x1
 5444 0542 C7       		.byte	0xc7
 5445 0543 22020000 		.4byte	0x222
 5446 0547 05       		.uleb128 0x5
 5447 0548 03       		.byte	0x3
ARM GAS  C:\Users\brian\AppData\Local\Temp\ccmYYpDh.s 			page 136


 5448 0549 98350000 		.4byte	buf.11959
 5449 054d 00       		.byte	0
 5450 054e 06       		.uleb128 0x6
 5451 054f 02080000 		.4byte	.LASF32
 5452 0553 01       		.byte	0x1
 5453 0554 CC       		.byte	0xcc
 5454 0555 88000000 		.4byte	0x88
 5455 0559 00000000 		.4byte	.LFB18
 5456 055d 0C000000 		.4byte	.LFE18-.LFB18
 5457 0561 01       		.uleb128 0x1
 5458 0562 9C       		.byte	0x9c
 5459 0563 88050000 		.4byte	0x588
 5460 0567 07       		.uleb128 0x7
 5461 0568 F9070000 		.4byte	.LASF15
 5462 056c 01       		.byte	0x1
 5463 056d CC       		.byte	0xcc
 5464 056e 88000000 		.4byte	0x88
 5465 0572 52020000 		.4byte	.LLST18
 5466 0576 08       		.uleb128 0x8
 5467 0577 62756600 		.ascii	"buf\000"
 5468 057b 01       		.byte	0x1
 5469 057c D2       		.byte	0xd2
 5470 057d 88050000 		.4byte	0x588
 5471 0581 05       		.uleb128 0x5
 5472 0582 03       		.byte	0x3
 5473 0583 98390000 		.4byte	buf.11963
 5474 0587 00       		.byte	0
 5475 0588 09       		.uleb128 0x9
 5476 0589 76000000 		.4byte	0x76
 5477 058d 98050000 		.4byte	0x598
 5478 0591 0A       		.uleb128 0xa
 5479 0592 D8000000 		.4byte	0xd8
 5480 0596 5F       		.byte	0x5f
 5481 0597 00       		.byte	0
 5482 0598 06       		.uleb128 0x6
 5483 0599 11080000 		.4byte	.LASF33
 5484 059d 01       		.byte	0x1
 5485 059e D7       		.byte	0xd7
 5486 059f 88000000 		.4byte	0x88
 5487 05a3 00000000 		.4byte	.LFB19
 5488 05a7 0C000000 		.4byte	.LFE19-.LFB19
 5489 05ab 01       		.uleb128 0x1
 5490 05ac 9C       		.byte	0x9c
 5491 05ad D2050000 		.4byte	0x5d2
 5492 05b1 07       		.uleb128 0x7
 5493 05b2 F9070000 		.4byte	.LASF15
 5494 05b6 01       		.byte	0x1
 5495 05b7 D7       		.byte	0xd7
 5496 05b8 88000000 		.4byte	0x88
 5497 05bc 73020000 		.4byte	.LLST19
 5498 05c0 08       		.uleb128 0x8
 5499 05c1 62756600 		.ascii	"buf\000"
 5500 05c5 01       		.byte	0x1
 5501 05c6 DD       		.byte	0xdd
 5502 05c7 D2050000 		.4byte	0x5d2
 5503 05cb 05       		.uleb128 0x5
 5504 05cc 03       		.byte	0x3
ARM GAS  C:\Users\brian\AppData\Local\Temp\ccmYYpDh.s 			page 137


 5505 05cd F8390000 		.4byte	buf.11967
 5506 05d1 00       		.byte	0
 5507 05d2 09       		.uleb128 0x9
 5508 05d3 76000000 		.4byte	0x76
 5509 05d7 E2050000 		.4byte	0x5e2
 5510 05db 0A       		.uleb128 0xa
 5511 05dc D8000000 		.4byte	0xd8
 5512 05e0 BF       		.byte	0xbf
 5513 05e1 00       		.byte	0
 5514 05e2 06       		.uleb128 0x6
 5515 05e3 92080000 		.4byte	.LASF34
 5516 05e7 01       		.byte	0x1
 5517 05e8 E2       		.byte	0xe2
 5518 05e9 88000000 		.4byte	0x88
 5519 05ed 00000000 		.4byte	.LFB20
 5520 05f1 0C000000 		.4byte	.LFE20-.LFB20
 5521 05f5 01       		.uleb128 0x1
 5522 05f6 9C       		.byte	0x9c
 5523 05f7 1C060000 		.4byte	0x61c
 5524 05fb 07       		.uleb128 0x7
 5525 05fc F9070000 		.4byte	.LASF15
 5526 0600 01       		.byte	0x1
 5527 0601 E2       		.byte	0xe2
 5528 0602 88000000 		.4byte	0x88
 5529 0606 94020000 		.4byte	.LLST20
 5530 060a 08       		.uleb128 0x8
 5531 060b 62756600 		.ascii	"buf\000"
 5532 060f 01       		.byte	0x1
 5533 0610 E8       		.byte	0xe8
 5534 0611 1C060000 		.4byte	0x61c
 5535 0615 05       		.uleb128 0x5
 5536 0616 03       		.byte	0x3
 5537 0617 B83A0000 		.4byte	buf.11971
 5538 061b 00       		.byte	0
 5539 061c 09       		.uleb128 0x9
 5540 061d 76000000 		.4byte	0x76
 5541 0621 2D060000 		.4byte	0x62d
 5542 0625 0B       		.uleb128 0xb
 5543 0626 D8000000 		.4byte	0xd8
 5544 062a 7F04     		.2byte	0x47f
 5545 062c 00       		.byte	0
 5546 062d 06       		.uleb128 0x6
 5547 062e A8000000 		.4byte	.LASF35
 5548 0632 01       		.byte	0x1
 5549 0633 ED       		.byte	0xed
 5550 0634 88000000 		.4byte	0x88
 5551 0638 00000000 		.4byte	.LFB21
 5552 063c 0C000000 		.4byte	.LFE21-.LFB21
 5553 0640 01       		.uleb128 0x1
 5554 0641 9C       		.byte	0x9c
 5555 0642 67060000 		.4byte	0x667
 5556 0646 07       		.uleb128 0x7
 5557 0647 F9070000 		.4byte	.LASF15
 5558 064b 01       		.byte	0x1
 5559 064c ED       		.byte	0xed
 5560 064d 88000000 		.4byte	0x88
 5561 0651 B5020000 		.4byte	.LLST21
ARM GAS  C:\Users\brian\AppData\Local\Temp\ccmYYpDh.s 			page 138


 5562 0655 08       		.uleb128 0x8
 5563 0656 62756600 		.ascii	"buf\000"
 5564 065a 01       		.byte	0x1
 5565 065b F3       		.byte	0xf3
 5566 065c 67060000 		.4byte	0x667
 5567 0660 05       		.uleb128 0x5
 5568 0661 03       		.byte	0x3
 5569 0662 383F0000 		.4byte	buf.11975
 5570 0666 00       		.byte	0
 5571 0667 09       		.uleb128 0x9
 5572 0668 76000000 		.4byte	0x76
 5573 066c 77060000 		.4byte	0x677
 5574 0670 0A       		.uleb128 0xa
 5575 0671 D8000000 		.4byte	0xd8
 5576 0675 4F       		.byte	0x4f
 5577 0676 00       		.byte	0
 5578 0677 06       		.uleb128 0x6
 5579 0678 B7000000 		.4byte	.LASF36
 5580 067c 01       		.byte	0x1
 5581 067d F8       		.byte	0xf8
 5582 067e 88000000 		.4byte	0x88
 5583 0682 00000000 		.4byte	.LFB22
 5584 0686 0C000000 		.4byte	.LFE22-.LFB22
 5585 068a 01       		.uleb128 0x1
 5586 068b 9C       		.byte	0x9c
 5587 068c B1060000 		.4byte	0x6b1
 5588 0690 07       		.uleb128 0x7
 5589 0691 F9070000 		.4byte	.LASF15
 5590 0695 01       		.byte	0x1
 5591 0696 F8       		.byte	0xf8
 5592 0697 88000000 		.4byte	0x88
 5593 069b D6020000 		.4byte	.LLST22
 5594 069f 08       		.uleb128 0x8
 5595 06a0 62756600 		.ascii	"buf\000"
 5596 06a4 01       		.byte	0x1
 5597 06a5 FE       		.byte	0xfe
 5598 06a6 B1060000 		.4byte	0x6b1
 5599 06aa 05       		.uleb128 0x5
 5600 06ab 03       		.byte	0x3
 5601 06ac 883F0000 		.4byte	buf.11979
 5602 06b0 00       		.byte	0
 5603 06b1 09       		.uleb128 0x9
 5604 06b2 76000000 		.4byte	0x76
 5605 06b6 C1060000 		.4byte	0x6c1
 5606 06ba 0A       		.uleb128 0xa
 5607 06bb D8000000 		.4byte	0xd8
 5608 06bf 9F       		.byte	0x9f
 5609 06c0 00       		.byte	0
 5610 06c1 0C       		.uleb128 0xc
 5611 06c2 48010000 		.4byte	.LASF37
 5612 06c6 01       		.byte	0x1
 5613 06c7 0301     		.2byte	0x103
 5614 06c9 88000000 		.4byte	0x88
 5615 06cd 00000000 		.4byte	.LFB23
 5616 06d1 0C000000 		.4byte	.LFE23-.LFB23
 5617 06d5 01       		.uleb128 0x1
 5618 06d6 9C       		.byte	0x9c
ARM GAS  C:\Users\brian\AppData\Local\Temp\ccmYYpDh.s 			page 139


 5619 06d7 FE060000 		.4byte	0x6fe
 5620 06db 0D       		.uleb128 0xd
 5621 06dc F9070000 		.4byte	.LASF15
 5622 06e0 01       		.byte	0x1
 5623 06e1 0301     		.2byte	0x103
 5624 06e3 88000000 		.4byte	0x88
 5625 06e7 F7020000 		.4byte	.LLST23
 5626 06eb 0E       		.uleb128 0xe
 5627 06ec 62756600 		.ascii	"buf\000"
 5628 06f0 01       		.byte	0x1
 5629 06f1 0901     		.2byte	0x109
 5630 06f3 FE060000 		.4byte	0x6fe
 5631 06f7 05       		.uleb128 0x5
 5632 06f8 03       		.byte	0x3
 5633 06f9 28400000 		.4byte	buf.11983
 5634 06fd 00       		.byte	0
 5635 06fe 09       		.uleb128 0x9
 5636 06ff 76000000 		.4byte	0x76
 5637 0703 0F070000 		.4byte	0x70f
 5638 0707 0B       		.uleb128 0xb
 5639 0708 D8000000 		.4byte	0xd8
 5640 070c FF04     		.2byte	0x4ff
 5641 070e 00       		.byte	0
 5642 070f 0C       		.uleb128 0xc
 5643 0710 8B070000 		.4byte	.LASF38
 5644 0714 01       		.byte	0x1
 5645 0715 0E01     		.2byte	0x10e
 5646 0717 88000000 		.4byte	0x88
 5647 071b 00000000 		.4byte	.LFB24
 5648 071f 0C000000 		.4byte	.LFE24-.LFB24
 5649 0723 01       		.uleb128 0x1
 5650 0724 9C       		.byte	0x9c
 5651 0725 4C070000 		.4byte	0x74c
 5652 0729 0D       		.uleb128 0xd
 5653 072a F9070000 		.4byte	.LASF15
 5654 072e 01       		.byte	0x1
 5655 072f 0E01     		.2byte	0x10e
 5656 0731 88000000 		.4byte	0x88
 5657 0735 18030000 		.4byte	.LLST24
 5658 0739 0E       		.uleb128 0xe
 5659 073a 62756600 		.ascii	"buf\000"
 5660 073e 01       		.byte	0x1
 5661 073f 1401     		.2byte	0x114
 5662 0741 C8000000 		.4byte	0xc8
 5663 0745 05       		.uleb128 0x5
 5664 0746 03       		.byte	0x3
 5665 0747 28450000 		.4byte	buf.11987
 5666 074b 00       		.byte	0
 5667 074c 0C       		.uleb128 0xc
 5668 074d 9A070000 		.4byte	.LASF39
 5669 0751 01       		.byte	0x1
 5670 0752 1901     		.2byte	0x119
 5671 0754 88000000 		.4byte	0x88
 5672 0758 00000000 		.4byte	.LFB25
 5673 075c 0C000000 		.4byte	.LFE25-.LFB25
 5674 0760 01       		.uleb128 0x1
 5675 0761 9C       		.byte	0x9c
ARM GAS  C:\Users\brian\AppData\Local\Temp\ccmYYpDh.s 			page 140


 5676 0762 89070000 		.4byte	0x789
 5677 0766 0D       		.uleb128 0xd
 5678 0767 F9070000 		.4byte	.LASF15
 5679 076b 01       		.byte	0x1
 5680 076c 1901     		.2byte	0x119
 5681 076e 88000000 		.4byte	0x88
 5682 0772 39030000 		.4byte	.LLST25
 5683 0776 0E       		.uleb128 0xe
 5684 0777 62756600 		.ascii	"buf\000"
 5685 077b 01       		.byte	0x1
 5686 077c 1F01     		.2byte	0x11f
 5687 077e 19010000 		.4byte	0x119
 5688 0782 05       		.uleb128 0x5
 5689 0783 03       		.byte	0x3
 5690 0784 A8450000 		.4byte	buf.11991
 5691 0788 00       		.byte	0
 5692 0789 0C       		.uleb128 0xc
 5693 078a CE070000 		.4byte	.LASF40
 5694 078e 01       		.byte	0x1
 5695 078f 2401     		.2byte	0x124
 5696 0791 88000000 		.4byte	0x88
 5697 0795 00000000 		.4byte	.LFB26
 5698 0799 0C000000 		.4byte	.LFE26-.LFB26
 5699 079d 01       		.uleb128 0x1
 5700 079e 9C       		.byte	0x9c
 5701 079f C6070000 		.4byte	0x7c6
 5702 07a3 0D       		.uleb128 0xd
 5703 07a4 F9070000 		.4byte	.LASF15
 5704 07a8 01       		.byte	0x1
 5705 07a9 2401     		.2byte	0x124
 5706 07ab 88000000 		.4byte	0x88
 5707 07af 5A030000 		.4byte	.LLST26
 5708 07b3 0E       		.uleb128 0xe
 5709 07b4 62756600 		.ascii	"buf\000"
 5710 07b8 01       		.byte	0x1
 5711 07b9 2A01     		.2byte	0x12a
 5712 07bb C6070000 		.4byte	0x7c6
 5713 07bf 05       		.uleb128 0x5
 5714 07c0 03       		.byte	0x3
 5715 07c1 A8460000 		.4byte	buf.11995
 5716 07c5 00       		.byte	0
 5717 07c6 09       		.uleb128 0x9
 5718 07c7 76000000 		.4byte	0x76
 5719 07cb D7070000 		.4byte	0x7d7
 5720 07cf 0B       		.uleb128 0xb
 5721 07d0 D8000000 		.4byte	0xd8
 5722 07d4 FF07     		.2byte	0x7ff
 5723 07d6 00       		.byte	0
 5724 07d7 0C       		.uleb128 0xc
 5725 07d8 A1080000 		.4byte	.LASF41
 5726 07dc 01       		.byte	0x1
 5727 07dd 2F01     		.2byte	0x12f
 5728 07df 88000000 		.4byte	0x88
 5729 07e3 00000000 		.4byte	.LFB27
 5730 07e7 0C000000 		.4byte	.LFE27-.LFB27
 5731 07eb 01       		.uleb128 0x1
 5732 07ec 9C       		.byte	0x9c
ARM GAS  C:\Users\brian\AppData\Local\Temp\ccmYYpDh.s 			page 141


 5733 07ed 14080000 		.4byte	0x814
 5734 07f1 0D       		.uleb128 0xd
 5735 07f2 F9070000 		.4byte	.LASF15
 5736 07f6 01       		.byte	0x1
 5737 07f7 2F01     		.2byte	0x12f
 5738 07f9 88000000 		.4byte	0x88
 5739 07fd 7B030000 		.4byte	.LLST27
 5740 0801 0E       		.uleb128 0xe
 5741 0802 62756600 		.ascii	"buf\000"
 5742 0806 01       		.byte	0x1
 5743 0807 3501     		.2byte	0x135
 5744 0809 B1060000 		.4byte	0x6b1
 5745 080d 05       		.uleb128 0x5
 5746 080e 03       		.byte	0x3
 5747 080f A84E0000 		.4byte	buf.11999
 5748 0813 00       		.byte	0
 5749 0814 0C       		.uleb128 0xc
 5750 0815 B0080000 		.4byte	.LASF42
 5751 0819 01       		.byte	0x1
 5752 081a 3A01     		.2byte	0x13a
 5753 081c 88000000 		.4byte	0x88
 5754 0820 00000000 		.4byte	.LFB28
 5755 0824 0C000000 		.4byte	.LFE28-.LFB28
 5756 0828 01       		.uleb128 0x1
 5757 0829 9C       		.byte	0x9c
 5758 082a 51080000 		.4byte	0x851
 5759 082e 0D       		.uleb128 0xd
 5760 082f F9070000 		.4byte	.LASF15
 5761 0833 01       		.byte	0x1
 5762 0834 3A01     		.2byte	0x13a
 5763 0836 88000000 		.4byte	0x88
 5764 083a 9C030000 		.4byte	.LLST28
 5765 083e 0E       		.uleb128 0xe
 5766 083f 62756600 		.ascii	"buf\000"
 5767 0843 01       		.byte	0x1
 5768 0844 4001     		.2byte	0x140
 5769 0846 51080000 		.4byte	0x851
 5770 084a 05       		.uleb128 0x5
 5771 084b 03       		.byte	0x3
 5772 084c 484F0000 		.4byte	buf.12003
 5773 0850 00       		.byte	0
 5774 0851 09       		.uleb128 0x9
 5775 0852 76000000 		.4byte	0x76
 5776 0856 62080000 		.4byte	0x862
 5777 085a 0B       		.uleb128 0xb
 5778 085b D8000000 		.4byte	0xd8
 5779 085f 3F01     		.2byte	0x13f
 5780 0861 00       		.byte	0
 5781 0862 0C       		.uleb128 0xc
 5782 0863 6B090000 		.4byte	.LASF43
 5783 0867 01       		.byte	0x1
 5784 0868 4501     		.2byte	0x145
 5785 086a 88000000 		.4byte	0x88
 5786 086e 00000000 		.4byte	.LFB29
 5787 0872 0C000000 		.4byte	.LFE29-.LFB29
 5788 0876 01       		.uleb128 0x1
 5789 0877 9C       		.byte	0x9c
ARM GAS  C:\Users\brian\AppData\Local\Temp\ccmYYpDh.s 			page 142


 5790 0878 9F080000 		.4byte	0x89f
 5791 087c 0D       		.uleb128 0xd
 5792 087d F9070000 		.4byte	.LASF15
 5793 0881 01       		.byte	0x1
 5794 0882 4501     		.2byte	0x145
 5795 0884 88000000 		.4byte	0x88
 5796 0888 BD030000 		.4byte	.LLST29
 5797 088c 0E       		.uleb128 0xe
 5798 088d 62756600 		.ascii	"buf\000"
 5799 0891 01       		.byte	0x1
 5800 0892 4B01     		.2byte	0x14b
 5801 0894 9F080000 		.4byte	0x89f
 5802 0898 05       		.uleb128 0x5
 5803 0899 03       		.byte	0x3
 5804 089a 88500000 		.4byte	buf.12007
 5805 089e 00       		.byte	0
 5806 089f 09       		.uleb128 0x9
 5807 08a0 76000000 		.4byte	0x76
 5808 08a4 B0080000 		.4byte	0x8b0
 5809 08a8 0B       		.uleb128 0xb
 5810 08a9 D8000000 		.4byte	0xd8
 5811 08ad 7F0C     		.2byte	0xc7f
 5812 08af 00       		.byte	0
 5813 08b0 0C       		.uleb128 0xc
 5814 08b1 3D050000 		.4byte	.LASF44
 5815 08b5 01       		.byte	0x1
 5816 08b6 5001     		.2byte	0x150
 5817 08b8 88000000 		.4byte	0x88
 5818 08bc 00000000 		.4byte	.LFB30
 5819 08c0 0C000000 		.4byte	.LFE30-.LFB30
 5820 08c4 01       		.uleb128 0x1
 5821 08c5 9C       		.byte	0x9c
 5822 08c6 ED080000 		.4byte	0x8ed
 5823 08ca 0D       		.uleb128 0xd
 5824 08cb F9070000 		.4byte	.LASF15
 5825 08cf 01       		.byte	0x1
 5826 08d0 5001     		.2byte	0x150
 5827 08d2 88000000 		.4byte	0x88
 5828 08d6 DE030000 		.4byte	.LLST30
 5829 08da 0E       		.uleb128 0xe
 5830 08db 62756600 		.ascii	"buf\000"
 5831 08df 01       		.byte	0x1
 5832 08e0 5601     		.2byte	0x156
 5833 08e2 19010000 		.4byte	0x119
 5834 08e6 05       		.uleb128 0x5
 5835 08e7 03       		.byte	0x3
 5836 08e8 085D0000 		.4byte	buf.12011
 5837 08ec 00       		.byte	0
 5838 08ed 0C       		.uleb128 0xc
 5839 08ee 4B050000 		.4byte	.LASF45
 5840 08f2 01       		.byte	0x1
 5841 08f3 5B01     		.2byte	0x15b
 5842 08f5 88000000 		.4byte	0x88
 5843 08f9 00000000 		.4byte	.LFB31
 5844 08fd 0C000000 		.4byte	.LFE31-.LFB31
 5845 0901 01       		.uleb128 0x1
 5846 0902 9C       		.byte	0x9c
ARM GAS  C:\Users\brian\AppData\Local\Temp\ccmYYpDh.s 			page 143


 5847 0903 2A090000 		.4byte	0x92a
 5848 0907 0D       		.uleb128 0xd
 5849 0908 F9070000 		.4byte	.LASF15
 5850 090c 01       		.byte	0x1
 5851 090d 5B01     		.2byte	0x15b
 5852 090f 88000000 		.4byte	0x88
 5853 0913 FF030000 		.4byte	.LLST31
 5854 0917 0E       		.uleb128 0xe
 5855 0918 62756600 		.ascii	"buf\000"
 5856 091c 01       		.byte	0x1
 5857 091d 6101     		.2byte	0x161
 5858 091f 63010000 		.4byte	0x163
 5859 0923 05       		.uleb128 0x5
 5860 0924 03       		.byte	0x3
 5861 0925 085E0000 		.4byte	buf.12015
 5862 0929 00       		.byte	0
 5863 092a 0C       		.uleb128 0xc
 5864 092b BB050000 		.4byte	.LASF46
 5865 092f 01       		.byte	0x1
 5866 0930 6601     		.2byte	0x166
 5867 0932 88000000 		.4byte	0x88
 5868 0936 00000000 		.4byte	.LFB32
 5869 093a 0C000000 		.4byte	.LFE32-.LFB32
 5870 093e 01       		.uleb128 0x1
 5871 093f 9C       		.byte	0x9c
 5872 0940 67090000 		.4byte	0x967
 5873 0944 0D       		.uleb128 0xd
 5874 0945 F9070000 		.4byte	.LASF15
 5875 0949 01       		.byte	0x1
 5876 094a 6601     		.2byte	0x166
 5877 094c 88000000 		.4byte	0x88
 5878 0950 20040000 		.4byte	.LLST32
 5879 0954 0E       		.uleb128 0xe
 5880 0955 62756600 		.ascii	"buf\000"
 5881 0959 01       		.byte	0x1
 5882 095a 6C01     		.2byte	0x16c
 5883 095c C6070000 		.4byte	0x7c6
 5884 0960 05       		.uleb128 0x5
 5885 0961 03       		.byte	0x3
 5886 0962 08600000 		.4byte	buf.12019
 5887 0966 00       		.byte	0
 5888 0967 0C       		.uleb128 0xc
 5889 0968 BF080000 		.4byte	.LASF47
 5890 096c 01       		.byte	0x1
 5891 096d 7101     		.2byte	0x171
 5892 096f 88000000 		.4byte	0x88
 5893 0973 00000000 		.4byte	.LFB33
 5894 0977 0C000000 		.4byte	.LFE33-.LFB33
 5895 097b 01       		.uleb128 0x1
 5896 097c 9C       		.byte	0x9c
 5897 097d A4090000 		.4byte	0x9a4
 5898 0981 0D       		.uleb128 0xd
 5899 0982 F9070000 		.4byte	.LASF15
 5900 0986 01       		.byte	0x1
 5901 0987 7101     		.2byte	0x171
 5902 0989 88000000 		.4byte	0x88
 5903 098d 41040000 		.4byte	.LLST33
ARM GAS  C:\Users\brian\AppData\Local\Temp\ccmYYpDh.s 			page 144


 5904 0991 0E       		.uleb128 0xe
 5905 0992 62756600 		.ascii	"buf\000"
 5906 0996 01       		.byte	0x1
 5907 0997 7701     		.2byte	0x177
 5908 0999 A4090000 		.4byte	0x9a4
 5909 099d 05       		.uleb128 0x5
 5910 099e 03       		.byte	0x3
 5911 099f 08680000 		.4byte	buf.12023
 5912 09a3 00       		.byte	0
 5913 09a4 09       		.uleb128 0x9
 5914 09a5 76000000 		.4byte	0x76
 5915 09a9 B4090000 		.4byte	0x9b4
 5916 09ad 0A       		.uleb128 0xa
 5917 09ae D8000000 		.4byte	0xd8
 5918 09b2 67       		.byte	0x67
 5919 09b3 00       		.byte	0
 5920 09b4 0C       		.uleb128 0xc
 5921 09b5 CD080000 		.4byte	.LASF48
 5922 09b9 01       		.byte	0x1
 5923 09ba 7C01     		.2byte	0x17c
 5924 09bc 88000000 		.4byte	0x88
 5925 09c0 00000000 		.4byte	.LFB34
 5926 09c4 0C000000 		.4byte	.LFE34-.LFB34
 5927 09c8 01       		.uleb128 0x1
 5928 09c9 9C       		.byte	0x9c
 5929 09ca F1090000 		.4byte	0x9f1
 5930 09ce 0D       		.uleb128 0xd
 5931 09cf F9070000 		.4byte	.LASF15
 5932 09d3 01       		.byte	0x1
 5933 09d4 7C01     		.2byte	0x17c
 5934 09d6 88000000 		.4byte	0x88
 5935 09da 62040000 		.4byte	.LLST34
 5936 09de 0E       		.uleb128 0xe
 5937 09df 62756600 		.ascii	"buf\000"
 5938 09e3 01       		.byte	0x1
 5939 09e4 8201     		.2byte	0x182
 5940 09e6 F1090000 		.4byte	0x9f1
 5941 09ea 05       		.uleb128 0x5
 5942 09eb 03       		.byte	0x3
 5943 09ec 70680000 		.4byte	buf.12027
 5944 09f0 00       		.byte	0
 5945 09f1 09       		.uleb128 0x9
 5946 09f2 76000000 		.4byte	0x76
 5947 09f6 010A0000 		.4byte	0xa01
 5948 09fa 0A       		.uleb128 0xa
 5949 09fb D8000000 		.4byte	0xd8
 5950 09ff CF       		.byte	0xcf
 5951 0a00 00       		.byte	0
 5952 0a01 0C       		.uleb128 0xc
 5953 0a02 7A090000 		.4byte	.LASF49
 5954 0a06 01       		.byte	0x1
 5955 0a07 8701     		.2byte	0x187
 5956 0a09 88000000 		.4byte	0x88
 5957 0a0d 00000000 		.4byte	.LFB35
 5958 0a11 0C000000 		.4byte	.LFE35-.LFB35
 5959 0a15 01       		.uleb128 0x1
 5960 0a16 9C       		.byte	0x9c
ARM GAS  C:\Users\brian\AppData\Local\Temp\ccmYYpDh.s 			page 145


 5961 0a17 3E0A0000 		.4byte	0xa3e
 5962 0a1b 0D       		.uleb128 0xd
 5963 0a1c F9070000 		.4byte	.LASF15
 5964 0a20 01       		.byte	0x1
 5965 0a21 8701     		.2byte	0x187
 5966 0a23 88000000 		.4byte	0x88
 5967 0a27 83040000 		.4byte	.LLST35
 5968 0a2b 0E       		.uleb128 0xe
 5969 0a2c 62756600 		.ascii	"buf\000"
 5970 0a30 01       		.byte	0x1
 5971 0a31 8D01     		.2byte	0x18d
 5972 0a33 3E0A0000 		.4byte	0xa3e
 5973 0a37 05       		.uleb128 0x5
 5974 0a38 03       		.byte	0x3
 5975 0a39 40690000 		.4byte	buf.12031
 5976 0a3d 00       		.byte	0
 5977 0a3e 09       		.uleb128 0x9
 5978 0a3f 76000000 		.4byte	0x76
 5979 0a43 4F0A0000 		.4byte	0xa4f
 5980 0a47 0B       		.uleb128 0xb
 5981 0a48 D8000000 		.4byte	0xd8
 5982 0a4c 3F03     		.2byte	0x33f
 5983 0a4e 00       		.byte	0
 5984 0a4f 0C       		.uleb128 0xc
 5985 0a50 74000000 		.4byte	.LASF50
 5986 0a54 01       		.byte	0x1
 5987 0a55 9201     		.2byte	0x192
 5988 0a57 88000000 		.4byte	0x88
 5989 0a5b 00000000 		.4byte	.LFB36
 5990 0a5f 0C000000 		.4byte	.LFE36-.LFB36
 5991 0a63 01       		.uleb128 0x1
 5992 0a64 9C       		.byte	0x9c
 5993 0a65 8C0A0000 		.4byte	0xa8c
 5994 0a69 0D       		.uleb128 0xd
 5995 0a6a F9070000 		.4byte	.LASF15
 5996 0a6e 01       		.byte	0x1
 5997 0a6f 9201     		.2byte	0x192
 5998 0a71 88000000 		.4byte	0x88
 5999 0a75 A4040000 		.4byte	.LLST36
 6000 0a79 0E       		.uleb128 0xe
 6001 0a7a 62756600 		.ascii	"buf\000"
 6002 0a7e 01       		.byte	0x1
 6003 0a7f 9801     		.2byte	0x198
 6004 0a81 1C040000 		.4byte	0x41c
 6005 0a85 05       		.uleb128 0x5
 6006 0a86 03       		.byte	0x3
 6007 0a87 806C0000 		.4byte	buf.12035
 6008 0a8b 00       		.byte	0
 6009 0a8c 0C       		.uleb128 0xc
 6010 0a8d 81000000 		.4byte	.LASF51
 6011 0a91 01       		.byte	0x1
 6012 0a92 9D01     		.2byte	0x19d
 6013 0a94 88000000 		.4byte	0x88
 6014 0a98 00000000 		.4byte	.LFB37
 6015 0a9c 0C000000 		.4byte	.LFE37-.LFB37
 6016 0aa0 01       		.uleb128 0x1
 6017 0aa1 9C       		.byte	0x9c
ARM GAS  C:\Users\brian\AppData\Local\Temp\ccmYYpDh.s 			page 146


 6018 0aa2 C90A0000 		.4byte	0xac9
 6019 0aa6 0D       		.uleb128 0xd
 6020 0aa7 F9070000 		.4byte	.LASF15
 6021 0aab 01       		.byte	0x1
 6022 0aac 9D01     		.2byte	0x19d
 6023 0aae 88000000 		.4byte	0x88
 6024 0ab2 C5040000 		.4byte	.LLST37
 6025 0ab6 0E       		.uleb128 0xe
 6026 0ab7 62756600 		.ascii	"buf\000"
 6027 0abb 01       		.byte	0x1
 6028 0abc A301     		.2byte	0x1a3
 6029 0abe C8000000 		.4byte	0xc8
 6030 0ac2 05       		.uleb128 0x5
 6031 0ac3 03       		.byte	0x3
 6032 0ac4 C06C0000 		.4byte	buf.12039
 6033 0ac8 00       		.byte	0
 6034 0ac9 0C       		.uleb128 0xc
 6035 0aca F2000000 		.4byte	.LASF52
 6036 0ace 01       		.byte	0x1
 6037 0acf A801     		.2byte	0x1a8
 6038 0ad1 88000000 		.4byte	0x88
 6039 0ad5 00000000 		.4byte	.LFB38
 6040 0ad9 0C000000 		.4byte	.LFE38-.LFB38
 6041 0add 01       		.uleb128 0x1
 6042 0ade 9C       		.byte	0x9c
 6043 0adf 060B0000 		.4byte	0xb06
 6044 0ae3 0D       		.uleb128 0xd
 6045 0ae4 F9070000 		.4byte	.LASF15
 6046 0ae8 01       		.byte	0x1
 6047 0ae9 A801     		.2byte	0x1a8
 6048 0aeb 88000000 		.4byte	0x88
 6049 0aef E6040000 		.4byte	.LLST38
 6050 0af3 0E       		.uleb128 0xe
 6051 0af4 62756600 		.ascii	"buf\000"
 6052 0af8 01       		.byte	0x1
 6053 0af9 AE01     		.2byte	0x1ae
 6054 0afb 060B0000 		.4byte	0xb06
 6055 0aff 05       		.uleb128 0x5
 6056 0b00 03       		.byte	0x3
 6057 0b01 406D0000 		.4byte	buf.12043
 6058 0b05 00       		.byte	0
 6059 0b06 09       		.uleb128 0x9
 6060 0b07 76000000 		.4byte	0x76
 6061 0b0b 170B0000 		.4byte	0xb17
 6062 0b0f 0B       		.uleb128 0xb
 6063 0b10 D8000000 		.4byte	0xd8
 6064 0b14 7F01     		.2byte	0x17f
 6065 0b16 00       		.byte	0
 6066 0b17 0C       		.uleb128 0xc
 6067 0b18 03060000 		.4byte	.LASF53
 6068 0b1c 01       		.byte	0x1
 6069 0b1d B301     		.2byte	0x1b3
 6070 0b1f 88000000 		.4byte	0x88
 6071 0b23 00000000 		.4byte	.LFB39
 6072 0b27 0C000000 		.4byte	.LFE39-.LFB39
 6073 0b2b 01       		.uleb128 0x1
 6074 0b2c 9C       		.byte	0x9c
ARM GAS  C:\Users\brian\AppData\Local\Temp\ccmYYpDh.s 			page 147


 6075 0b2d 540B0000 		.4byte	0xb54
 6076 0b31 0D       		.uleb128 0xd
 6077 0b32 F9070000 		.4byte	.LASF15
 6078 0b36 01       		.byte	0x1
 6079 0b37 B301     		.2byte	0x1b3
 6080 0b39 88000000 		.4byte	0x88
 6081 0b3d 07050000 		.4byte	.LLST39
 6082 0b41 0E       		.uleb128 0xe
 6083 0b42 62756600 		.ascii	"buf\000"
 6084 0b46 01       		.byte	0x1
 6085 0b47 B901     		.2byte	0x1b9
 6086 0b49 540B0000 		.4byte	0xb54
 6087 0b4d 05       		.uleb128 0x5
 6088 0b4e 03       		.byte	0x3
 6089 0b4f C06E0000 		.4byte	buf.12047
 6090 0b53 00       		.byte	0
 6091 0b54 09       		.uleb128 0x9
 6092 0b55 76000000 		.4byte	0x76
 6093 0b59 640B0000 		.4byte	0xb64
 6094 0b5d 0A       		.uleb128 0xa
 6095 0b5e D8000000 		.4byte	0xd8
 6096 0b62 2F       		.byte	0x2f
 6097 0b63 00       		.byte	0
 6098 0b64 0C       		.uleb128 0xc
 6099 0b65 10060000 		.4byte	.LASF54
 6100 0b69 01       		.byte	0x1
 6101 0b6a BE01     		.2byte	0x1be
 6102 0b6c 88000000 		.4byte	0x88
 6103 0b70 00000000 		.4byte	.LFB40
 6104 0b74 0C000000 		.4byte	.LFE40-.LFB40
 6105 0b78 01       		.uleb128 0x1
 6106 0b79 9C       		.byte	0x9c
 6107 0b7a A10B0000 		.4byte	0xba1
 6108 0b7e 0D       		.uleb128 0xd
 6109 0b7f F9070000 		.4byte	.LASF15
 6110 0b83 01       		.byte	0x1
 6111 0b84 BE01     		.2byte	0x1be
 6112 0b86 88000000 		.4byte	0x88
 6113 0b8a 28050000 		.4byte	.LLST40
 6114 0b8e 0E       		.uleb128 0xe
 6115 0b8f 62756600 		.ascii	"buf\000"
 6116 0b93 01       		.byte	0x1
 6117 0b94 C401     		.2byte	0x1c4
 6118 0b96 88050000 		.4byte	0x588
 6119 0b9a 05       		.uleb128 0x5
 6120 0b9b 03       		.byte	0x3
 6121 0b9c F06E0000 		.4byte	buf.12051
 6122 0ba0 00       		.byte	0
 6123 0ba1 0C       		.uleb128 0xc
 6124 0ba2 D6060000 		.4byte	.LASF55
 6125 0ba6 01       		.byte	0x1
 6126 0ba7 C901     		.2byte	0x1c9
 6127 0ba9 88000000 		.4byte	0x88
 6128 0bad 00000000 		.4byte	.LFB41
 6129 0bb1 0C000000 		.4byte	.LFE41-.LFB41
 6130 0bb5 01       		.uleb128 0x1
 6131 0bb6 9C       		.byte	0x9c
ARM GAS  C:\Users\brian\AppData\Local\Temp\ccmYYpDh.s 			page 148


 6132 0bb7 DE0B0000 		.4byte	0xbde
 6133 0bbb 0D       		.uleb128 0xd
 6134 0bbc F9070000 		.4byte	.LASF15
 6135 0bc0 01       		.byte	0x1
 6136 0bc1 C901     		.2byte	0x1c9
 6137 0bc3 88000000 		.4byte	0x88
 6138 0bc7 49050000 		.4byte	.LLST41
 6139 0bcb 0E       		.uleb128 0xe
 6140 0bcc 62756600 		.ascii	"buf\000"
 6141 0bd0 01       		.byte	0x1
 6142 0bd1 CF01     		.2byte	0x1cf
 6143 0bd3 060B0000 		.4byte	0xb06
 6144 0bd7 05       		.uleb128 0x5
 6145 0bd8 03       		.byte	0x3
 6146 0bd9 506F0000 		.4byte	buf.12055
 6147 0bdd 00       		.byte	0
 6148 0bde 0C       		.uleb128 0xc
 6149 0bdf 76080000 		.4byte	.LASF56
 6150 0be3 01       		.byte	0x1
 6151 0be4 D401     		.2byte	0x1d4
 6152 0be6 88000000 		.4byte	0x88
 6153 0bea 00000000 		.4byte	.LFB42
 6154 0bee 0C000000 		.4byte	.LFE42-.LFB42
 6155 0bf2 01       		.uleb128 0x1
 6156 0bf3 9C       		.byte	0x9c
 6157 0bf4 1B0C0000 		.4byte	0xc1b
 6158 0bf8 0D       		.uleb128 0xd
 6159 0bf9 F9070000 		.4byte	.LASF15
 6160 0bfd 01       		.byte	0x1
 6161 0bfe D401     		.2byte	0x1d4
 6162 0c00 88000000 		.4byte	0x88
 6163 0c04 6A050000 		.4byte	.LLST42
 6164 0c08 0E       		.uleb128 0xe
 6165 0c09 62756600 		.ascii	"buf\000"
 6166 0c0d 01       		.byte	0x1
 6167 0c0e DA01     		.2byte	0x1da
 6168 0c10 88050000 		.4byte	0x588
 6169 0c14 05       		.uleb128 0x5
 6170 0c15 03       		.byte	0x3
 6171 0c16 D0700000 		.4byte	buf.12059
 6172 0c1a 00       		.byte	0
 6173 0c1b 0C       		.uleb128 0xc
 6174 0c1c 84080000 		.4byte	.LASF57
 6175 0c20 01       		.byte	0x1
 6176 0c21 DF01     		.2byte	0x1df
 6177 0c23 88000000 		.4byte	0x88
 6178 0c27 00000000 		.4byte	.LFB43
 6179 0c2b 0C000000 		.4byte	.LFE43-.LFB43
 6180 0c2f 01       		.uleb128 0x1
 6181 0c30 9C       		.byte	0x9c
 6182 0c31 580C0000 		.4byte	0xc58
 6183 0c35 0D       		.uleb128 0xd
 6184 0c36 F9070000 		.4byte	.LASF15
 6185 0c3a 01       		.byte	0x1
 6186 0c3b DF01     		.2byte	0x1df
 6187 0c3d 88000000 		.4byte	0x88
 6188 0c41 8B050000 		.4byte	.LLST43
ARM GAS  C:\Users\brian\AppData\Local\Temp\ccmYYpDh.s 			page 149


 6189 0c45 0E       		.uleb128 0xe
 6190 0c46 62756600 		.ascii	"buf\000"
 6191 0c4a 01       		.byte	0x1
 6192 0c4b E501     		.2byte	0x1e5
 6193 0c4d D2050000 		.4byte	0x5d2
 6194 0c51 05       		.uleb128 0x5
 6195 0c52 03       		.byte	0x3
 6196 0c53 30710000 		.4byte	buf.12063
 6197 0c57 00       		.byte	0
 6198 0c58 0C       		.uleb128 0xc
 6199 0c59 22090000 		.4byte	.LASF58
 6200 0c5d 01       		.byte	0x1
 6201 0c5e EA01     		.2byte	0x1ea
 6202 0c60 88000000 		.4byte	0x88
 6203 0c64 00000000 		.4byte	.LFB44
 6204 0c68 0C000000 		.4byte	.LFE44-.LFB44
 6205 0c6c 01       		.uleb128 0x1
 6206 0c6d 9C       		.byte	0x9c
 6207 0c6e 950C0000 		.4byte	0xc95
 6208 0c72 0D       		.uleb128 0xd
 6209 0c73 F9070000 		.4byte	.LASF15
 6210 0c77 01       		.byte	0x1
 6211 0c78 EA01     		.2byte	0x1ea
 6212 0c7a 88000000 		.4byte	0x88
 6213 0c7e AC050000 		.4byte	.LLST44
 6214 0c82 0E       		.uleb128 0xe
 6215 0c83 62756600 		.ascii	"buf\000"
 6216 0c87 01       		.byte	0x1
 6217 0c88 F001     		.2byte	0x1f0
 6218 0c8a D2050000 		.4byte	0x5d2
 6219 0c8e 05       		.uleb128 0x5
 6220 0c8f 03       		.byte	0x3
 6221 0c90 F0710000 		.4byte	buf.12067
 6222 0c94 00       		.byte	0
 6223 0c95 0C       		.uleb128 0xc
 6224 0c96 1D010000 		.4byte	.LASF59
 6225 0c9a 01       		.byte	0x1
 6226 0c9b F501     		.2byte	0x1f5
 6227 0c9d 88000000 		.4byte	0x88
 6228 0ca1 00000000 		.4byte	.LFB45
 6229 0ca5 0C000000 		.4byte	.LFE45-.LFB45
 6230 0ca9 01       		.uleb128 0x1
 6231 0caa 9C       		.byte	0x9c
 6232 0cab D20C0000 		.4byte	0xcd2
 6233 0caf 0D       		.uleb128 0xd
 6234 0cb0 F9070000 		.4byte	.LASF15
 6235 0cb4 01       		.byte	0x1
 6236 0cb5 F501     		.2byte	0x1f5
 6237 0cb7 88000000 		.4byte	0x88
 6238 0cbb CD050000 		.4byte	.LLST45
 6239 0cbf 0E       		.uleb128 0xe
 6240 0cc0 62756600 		.ascii	"buf\000"
 6241 0cc4 01       		.byte	0x1
 6242 0cc5 FB01     		.2byte	0x1fb
 6243 0cc7 C8000000 		.4byte	0xc8
 6244 0ccb 05       		.uleb128 0x5
 6245 0ccc 03       		.byte	0x3
ARM GAS  C:\Users\brian\AppData\Local\Temp\ccmYYpDh.s 			page 150


 6246 0ccd B0720000 		.4byte	buf.12071
 6247 0cd1 00       		.byte	0
 6248 0cd2 0C       		.uleb128 0xc
 6249 0cd3 2C010000 		.4byte	.LASF60
 6250 0cd7 01       		.byte	0x1
 6251 0cd8 0002     		.2byte	0x200
 6252 0cda 88000000 		.4byte	0x88
 6253 0cde 00000000 		.4byte	.LFB46
 6254 0ce2 0C000000 		.4byte	.LFE46-.LFB46
 6255 0ce6 01       		.uleb128 0x1
 6256 0ce7 9C       		.byte	0x9c
 6257 0ce8 0F0D0000 		.4byte	0xd0f
 6258 0cec 0D       		.uleb128 0xd
 6259 0ced F9070000 		.4byte	.LASF15
 6260 0cf1 01       		.byte	0x1
 6261 0cf2 0002     		.2byte	0x200
 6262 0cf4 88000000 		.4byte	0x88
 6263 0cf8 EE050000 		.4byte	.LLST46
 6264 0cfc 0E       		.uleb128 0xe
 6265 0cfd 62756600 		.ascii	"buf\000"
 6266 0d01 01       		.byte	0x1
 6267 0d02 0602     		.2byte	0x206
 6268 0d04 19010000 		.4byte	0x119
 6269 0d08 05       		.uleb128 0x5
 6270 0d09 03       		.byte	0x3
 6271 0d0a 30730000 		.4byte	buf.12075
 6272 0d0e 00       		.byte	0
 6273 0d0f 0C       		.uleb128 0xc
 6274 0d10 AE010000 		.4byte	.LASF61
 6275 0d14 01       		.byte	0x1
 6276 0d15 0B02     		.2byte	0x20b
 6277 0d17 88000000 		.4byte	0x88
 6278 0d1b 00000000 		.4byte	.LFB47
 6279 0d1f 0C000000 		.4byte	.LFE47-.LFB47
 6280 0d23 01       		.uleb128 0x1
 6281 0d24 9C       		.byte	0x9c
 6282 0d25 4C0D0000 		.4byte	0xd4c
 6283 0d29 0D       		.uleb128 0xd
 6284 0d2a F9070000 		.4byte	.LASF15
 6285 0d2e 01       		.byte	0x1
 6286 0d2f 0B02     		.2byte	0x20b
 6287 0d31 88000000 		.4byte	0x88
 6288 0d35 0F060000 		.4byte	.LLST47
 6289 0d39 0E       		.uleb128 0xe
 6290 0d3a 62756600 		.ascii	"buf\000"
 6291 0d3e 01       		.byte	0x1
 6292 0d3f 1102     		.2byte	0x211
 6293 0d41 4C0D0000 		.4byte	0xd4c
 6294 0d45 05       		.uleb128 0x5
 6295 0d46 03       		.byte	0x3
 6296 0d47 30740000 		.4byte	buf.12079
 6297 0d4b 00       		.byte	0
 6298 0d4c 09       		.uleb128 0x9
 6299 0d4d 76000000 		.4byte	0x76
 6300 0d51 5D0D0000 		.4byte	0xd5d
 6301 0d55 0B       		.uleb128 0xb
 6302 0d56 D8000000 		.4byte	0xd8
ARM GAS  C:\Users\brian\AppData\Local\Temp\ccmYYpDh.s 			page 151


 6303 0d5a FF05     		.2byte	0x5ff
 6304 0d5c 00       		.byte	0
 6305 0d5d 0C       		.uleb128 0xc
 6306 0d5e 4F090000 		.4byte	.LASF62
 6307 0d62 01       		.byte	0x1
 6308 0d63 1602     		.2byte	0x216
 6309 0d65 88000000 		.4byte	0x88
 6310 0d69 00000000 		.4byte	.LFB48
 6311 0d6d 0C000000 		.4byte	.LFE48-.LFB48
 6312 0d71 01       		.uleb128 0x1
 6313 0d72 9C       		.byte	0x9c
 6314 0d73 9A0D0000 		.4byte	0xd9a
 6315 0d77 0D       		.uleb128 0xd
 6316 0d78 F9070000 		.4byte	.LASF15
 6317 0d7c 01       		.byte	0x1
 6318 0d7d 1602     		.2byte	0x216
 6319 0d7f 88000000 		.4byte	0x88
 6320 0d83 30060000 		.4byte	.LLST48
 6321 0d87 0E       		.uleb128 0xe
 6322 0d88 62756600 		.ascii	"buf\000"
 6323 0d8c 01       		.byte	0x1
 6324 0d8d 1C02     		.2byte	0x21c
 6325 0d8f 19010000 		.4byte	0x119
 6326 0d93 05       		.uleb128 0x5
 6327 0d94 03       		.byte	0x3
 6328 0d95 307A0000 		.4byte	buf.12083
 6329 0d99 00       		.byte	0
 6330 0d9a 0C       		.uleb128 0xc
 6331 0d9b 5D090000 		.4byte	.LASF63
 6332 0d9f 01       		.byte	0x1
 6333 0da0 2102     		.2byte	0x221
 6334 0da2 88000000 		.4byte	0x88
 6335 0da6 00000000 		.4byte	.LFB49
 6336 0daa 0C000000 		.4byte	.LFE49-.LFB49
 6337 0dae 01       		.uleb128 0x1
 6338 0daf 9C       		.byte	0x9c
 6339 0db0 D70D0000 		.4byte	0xdd7
 6340 0db4 0D       		.uleb128 0xd
 6341 0db5 F9070000 		.4byte	.LASF15
 6342 0db9 01       		.byte	0x1
 6343 0dba 2102     		.2byte	0x221
 6344 0dbc 88000000 		.4byte	0x88
 6345 0dc0 51060000 		.4byte	.LLST49
 6346 0dc4 0E       		.uleb128 0xe
 6347 0dc5 62756600 		.ascii	"buf\000"
 6348 0dc9 01       		.byte	0x1
 6349 0dca 2702     		.2byte	0x227
 6350 0dcc 63010000 		.4byte	0x163
 6351 0dd0 05       		.uleb128 0x5
 6352 0dd1 03       		.byte	0x3
 6353 0dd2 307B0000 		.4byte	buf.12087
 6354 0dd6 00       		.byte	0
 6355 0dd7 0C       		.uleb128 0xc
 6356 0dd8 B4090000 		.4byte	.LASF64
 6357 0ddc 01       		.byte	0x1
 6358 0ddd 2C02     		.2byte	0x22c
 6359 0ddf 88000000 		.4byte	0x88
ARM GAS  C:\Users\brian\AppData\Local\Temp\ccmYYpDh.s 			page 152


 6360 0de3 00000000 		.4byte	.LFB50
 6361 0de7 0C000000 		.4byte	.LFE50-.LFB50
 6362 0deb 01       		.uleb128 0x1
 6363 0dec 9C       		.byte	0x9c
 6364 0ded 140E0000 		.4byte	0xe14
 6365 0df1 0D       		.uleb128 0xd
 6366 0df2 F9070000 		.4byte	.LASF15
 6367 0df6 01       		.byte	0x1
 6368 0df7 2C02     		.2byte	0x22c
 6369 0df9 88000000 		.4byte	0x88
 6370 0dfd 72060000 		.4byte	.LLST50
 6371 0e01 0E       		.uleb128 0xe
 6372 0e02 62756600 		.ascii	"buf\000"
 6373 0e06 01       		.byte	0x1
 6374 0e07 3202     		.2byte	0x232
 6375 0e09 22020000 		.4byte	0x222
 6376 0e0d 05       		.uleb128 0x5
 6377 0e0e 03       		.byte	0x3
 6378 0e0f 307D0000 		.4byte	buf.12091
 6379 0e13 00       		.byte	0
 6380 0e14 0C       		.uleb128 0xc
 6381 0e15 03020000 		.4byte	.LASF65
 6382 0e19 01       		.byte	0x1
 6383 0e1a 3702     		.2byte	0x237
 6384 0e1c 88000000 		.4byte	0x88
 6385 0e20 00000000 		.4byte	.LFB51
 6386 0e24 0C000000 		.4byte	.LFE51-.LFB51
 6387 0e28 01       		.uleb128 0x1
 6388 0e29 9C       		.byte	0x9c
 6389 0e2a 510E0000 		.4byte	0xe51
 6390 0e2e 0D       		.uleb128 0xd
 6391 0e2f F9070000 		.4byte	.LASF15
 6392 0e33 01       		.byte	0x1
 6393 0e34 3702     		.2byte	0x237
 6394 0e36 88000000 		.4byte	0x88
 6395 0e3a 93060000 		.4byte	.LLST51
 6396 0e3e 0E       		.uleb128 0xe
 6397 0e3f 62756600 		.ascii	"buf\000"
 6398 0e43 01       		.byte	0x1
 6399 0e44 3D02     		.2byte	0x23d
 6400 0e46 88050000 		.4byte	0x588
 6401 0e4a 05       		.uleb128 0x5
 6402 0e4b 03       		.byte	0x3
 6403 0e4c 30810000 		.4byte	buf.12095
 6404 0e50 00       		.byte	0
 6405 0e51 0C       		.uleb128 0xc
 6406 0e52 11020000 		.4byte	.LASF66
 6407 0e56 01       		.byte	0x1
 6408 0e57 4202     		.2byte	0x242
 6409 0e59 88000000 		.4byte	0x88
 6410 0e5d 00000000 		.4byte	.LFB52
 6411 0e61 0C000000 		.4byte	.LFE52-.LFB52
 6412 0e65 01       		.uleb128 0x1
 6413 0e66 9C       		.byte	0x9c
 6414 0e67 8E0E0000 		.4byte	0xe8e
 6415 0e6b 0D       		.uleb128 0xd
 6416 0e6c F9070000 		.4byte	.LASF15
ARM GAS  C:\Users\brian\AppData\Local\Temp\ccmYYpDh.s 			page 153


 6417 0e70 01       		.byte	0x1
 6418 0e71 4202     		.2byte	0x242
 6419 0e73 88000000 		.4byte	0x88
 6420 0e77 B4060000 		.4byte	.LLST52
 6421 0e7b 0E       		.uleb128 0xe
 6422 0e7c 62756600 		.ascii	"buf\000"
 6423 0e80 01       		.byte	0x1
 6424 0e81 4802     		.2byte	0x248
 6425 0e83 D2050000 		.4byte	0x5d2
 6426 0e87 05       		.uleb128 0x5
 6427 0e88 03       		.byte	0x3
 6428 0e89 90810000 		.4byte	buf.12099
 6429 0e8d 00       		.byte	0
 6430 0e8e 0C       		.uleb128 0xc
 6431 0e8f A8020000 		.4byte	.LASF67
 6432 0e93 01       		.byte	0x1
 6433 0e94 4D02     		.2byte	0x24d
 6434 0e96 88000000 		.4byte	0x88
 6435 0e9a 00000000 		.4byte	.LFB53
 6436 0e9e 0C000000 		.4byte	.LFE53-.LFB53
 6437 0ea2 01       		.uleb128 0x1
 6438 0ea3 9C       		.byte	0x9c
 6439 0ea4 CB0E0000 		.4byte	0xecb
 6440 0ea8 0D       		.uleb128 0xd
 6441 0ea9 F9070000 		.4byte	.LASF15
 6442 0ead 01       		.byte	0x1
 6443 0eae 4D02     		.2byte	0x24d
 6444 0eb0 88000000 		.4byte	0x88
 6445 0eb4 D5060000 		.4byte	.LLST53
 6446 0eb8 0E       		.uleb128 0xe
 6447 0eb9 62756600 		.ascii	"buf\000"
 6448 0ebd 01       		.byte	0x1
 6449 0ebe 5302     		.2byte	0x253
 6450 0ec0 CB0E0000 		.4byte	0xecb
 6451 0ec4 05       		.uleb128 0x5
 6452 0ec5 03       		.byte	0x3
 6453 0ec6 50820000 		.4byte	buf.12103
 6454 0eca 00       		.byte	0
 6455 0ecb 09       		.uleb128 0x9
 6456 0ecc 76000000 		.4byte	0x76
 6457 0ed0 DC0E0000 		.4byte	0xedc
 6458 0ed4 0B       		.uleb128 0xb
 6459 0ed5 D8000000 		.4byte	0xd8
 6460 0ed9 FF02     		.2byte	0x2ff
 6461 0edb 00       		.byte	0
 6462 0edc 0C       		.uleb128 0xc
 6463 0edd 1D060000 		.4byte	.LASF68
 6464 0ee1 01       		.byte	0x1
 6465 0ee2 5802     		.2byte	0x258
 6466 0ee4 88000000 		.4byte	0x88
 6467 0ee8 00000000 		.4byte	.LFB54
 6468 0eec 0C000000 		.4byte	.LFE54-.LFB54
 6469 0ef0 01       		.uleb128 0x1
 6470 0ef1 9C       		.byte	0x9c
 6471 0ef2 190F0000 		.4byte	0xf19
 6472 0ef6 0D       		.uleb128 0xd
 6473 0ef7 F9070000 		.4byte	.LASF15
ARM GAS  C:\Users\brian\AppData\Local\Temp\ccmYYpDh.s 			page 154


 6474 0efb 01       		.byte	0x1
 6475 0efc 5802     		.2byte	0x258
 6476 0efe 88000000 		.4byte	0x88
 6477 0f02 F6060000 		.4byte	.LLST54
 6478 0f06 0E       		.uleb128 0xe
 6479 0f07 62756600 		.ascii	"buf\000"
 6480 0f0b 01       		.byte	0x1
 6481 0f0c 5E02     		.2byte	0x25e
 6482 0f0e D2050000 		.4byte	0x5d2
 6483 0f12 05       		.uleb128 0x5
 6484 0f13 03       		.byte	0x3
 6485 0f14 50850000 		.4byte	buf.12107
 6486 0f18 00       		.byte	0
 6487 0f19 0C       		.uleb128 0xc
 6488 0f1a 2B060000 		.4byte	.LASF69
 6489 0f1e 01       		.byte	0x1
 6490 0f1f 6302     		.2byte	0x263
 6491 0f21 88000000 		.4byte	0x88
 6492 0f25 00000000 		.4byte	.LFB55
 6493 0f29 0C000000 		.4byte	.LFE55-.LFB55
 6494 0f2d 01       		.uleb128 0x1
 6495 0f2e 9C       		.byte	0x9c
 6496 0f2f 560F0000 		.4byte	0xf56
 6497 0f33 0D       		.uleb128 0xd
 6498 0f34 F9070000 		.4byte	.LASF15
 6499 0f38 01       		.byte	0x1
 6500 0f39 6302     		.2byte	0x263
 6501 0f3b 88000000 		.4byte	0x88
 6502 0f3f 17070000 		.4byte	.LLST55
 6503 0f43 0E       		.uleb128 0xe
 6504 0f44 62756600 		.ascii	"buf\000"
 6505 0f48 01       		.byte	0x1
 6506 0f49 6902     		.2byte	0x269
 6507 0f4b 060B0000 		.4byte	0xb06
 6508 0f4f 05       		.uleb128 0x5
 6509 0f50 03       		.byte	0x3
 6510 0f51 10860000 		.4byte	buf.12111
 6511 0f55 00       		.byte	0
 6512 0f56 0C       		.uleb128 0xc
 6513 0f57 E3060000 		.4byte	.LASF70
 6514 0f5b 01       		.byte	0x1
 6515 0f5c 6E02     		.2byte	0x26e
 6516 0f5e 88000000 		.4byte	0x88
 6517 0f62 00000000 		.4byte	.LFB56
 6518 0f66 0C000000 		.4byte	.LFE56-.LFB56
 6519 0f6a 01       		.uleb128 0x1
 6520 0f6b 9C       		.byte	0x9c
 6521 0f6c 930F0000 		.4byte	0xf93
 6522 0f70 0D       		.uleb128 0xd
 6523 0f71 F9070000 		.4byte	.LASF15
 6524 0f75 01       		.byte	0x1
 6525 0f76 6E02     		.2byte	0x26e
 6526 0f78 88000000 		.4byte	0x88
 6527 0f7c 38070000 		.4byte	.LLST56
 6528 0f80 0E       		.uleb128 0xe
 6529 0f81 62756600 		.ascii	"buf\000"
 6530 0f85 01       		.byte	0x1
ARM GAS  C:\Users\brian\AppData\Local\Temp\ccmYYpDh.s 			page 155


 6531 0f86 7402     		.2byte	0x274
 6532 0f88 CB0E0000 		.4byte	0xecb
 6533 0f8c 05       		.uleb128 0x5
 6534 0f8d 03       		.byte	0x3
 6535 0f8e 90870000 		.4byte	buf.12115
 6536 0f92 00       		.byte	0
 6537 0f93 0C       		.uleb128 0xc
 6538 0f94 FF000000 		.4byte	.LASF71
 6539 0f98 01       		.byte	0x1
 6540 0f99 7902     		.2byte	0x279
 6541 0f9b 88000000 		.4byte	0x88
 6542 0f9f 00000000 		.4byte	.LFB57
 6543 0fa3 0C000000 		.4byte	.LFE57-.LFB57
 6544 0fa7 01       		.uleb128 0x1
 6545 0fa8 9C       		.byte	0x9c
 6546 0fa9 D00F0000 		.4byte	0xfd0
 6547 0fad 0D       		.uleb128 0xd
 6548 0fae F9070000 		.4byte	.LASF15
 6549 0fb2 01       		.byte	0x1
 6550 0fb3 7902     		.2byte	0x279
 6551 0fb5 88000000 		.4byte	0x88
 6552 0fb9 59070000 		.4byte	.LLST57
 6553 0fbd 0E       		.uleb128 0xe
 6554 0fbe 62756600 		.ascii	"buf\000"
 6555 0fc2 01       		.byte	0x1
 6556 0fc3 7F02     		.2byte	0x27f
 6557 0fc5 D00F0000 		.4byte	0xfd0
 6558 0fc9 05       		.uleb128 0x5
 6559 0fca 03       		.byte	0x3
 6560 0fcb 908A0000 		.4byte	buf.12119
 6561 0fcf 00       		.byte	0
 6562 0fd0 09       		.uleb128 0x9
 6563 0fd1 76000000 		.4byte	0x76
 6564 0fd5 E10F0000 		.4byte	0xfe1
 6565 0fd9 0B       		.uleb128 0xb
 6566 0fda D8000000 		.4byte	0xd8
 6567 0fde 8F01     		.2byte	0x18f
 6568 0fe0 00       		.byte	0
 6569 0fe1 0C       		.uleb128 0xc
 6570 0fe2 0E010000 		.4byte	.LASF72
 6571 0fe6 01       		.byte	0x1
 6572 0fe7 8402     		.2byte	0x284
 6573 0fe9 88000000 		.4byte	0x88
 6574 0fed 00000000 		.4byte	.LFB58
 6575 0ff1 0C000000 		.4byte	.LFE58-.LFB58
 6576 0ff5 01       		.uleb128 0x1
 6577 0ff6 9C       		.byte	0x9c
 6578 0ff7 1E100000 		.4byte	0x101e
 6579 0ffb 0D       		.uleb128 0xd
 6580 0ffc F9070000 		.4byte	.LASF15
 6581 1000 01       		.byte	0x1
 6582 1001 8402     		.2byte	0x284
 6583 1003 88000000 		.4byte	0x88
 6584 1007 7A070000 		.4byte	.LLST58
 6585 100b 0E       		.uleb128 0xe
 6586 100c 62756600 		.ascii	"buf\000"
 6587 1010 01       		.byte	0x1
ARM GAS  C:\Users\brian\AppData\Local\Temp\ccmYYpDh.s 			page 156


 6588 1011 8A02     		.2byte	0x28a
 6589 1013 1E100000 		.4byte	0x101e
 6590 1017 05       		.uleb128 0x5
 6591 1018 03       		.byte	0x3
 6592 1019 208C0000 		.4byte	buf.12123
 6593 101d 00       		.byte	0
 6594 101e 09       		.uleb128 0x9
 6595 101f 76000000 		.4byte	0x76
 6596 1023 2F100000 		.4byte	0x102f
 6597 1027 0B       		.uleb128 0xb
 6598 1028 D8000000 		.4byte	0xd8
 6599 102c 1F03     		.2byte	0x31f
 6600 102e 00       		.byte	0
 6601 102f 0C       		.uleb128 0xc
 6602 1030 9F010000 		.4byte	.LASF73
 6603 1034 01       		.byte	0x1
 6604 1035 8F02     		.2byte	0x28f
 6605 1037 88000000 		.4byte	0x88
 6606 103b 00000000 		.4byte	.LFB59
 6607 103f 0C000000 		.4byte	.LFE59-.LFB59
 6608 1043 01       		.uleb128 0x1
 6609 1044 9C       		.byte	0x9c
 6610 1045 6C100000 		.4byte	0x106c
 6611 1049 0D       		.uleb128 0xd
 6612 104a F9070000 		.4byte	.LASF15
 6613 104e 01       		.byte	0x1
 6614 104f 8F02     		.2byte	0x28f
 6615 1051 88000000 		.4byte	0x88
 6616 1055 9B070000 		.4byte	.LLST59
 6617 1059 0E       		.uleb128 0xe
 6618 105a 62756600 		.ascii	"buf\000"
 6619 105e 01       		.byte	0x1
 6620 105f 9502     		.2byte	0x295
 6621 1061 6C100000 		.4byte	0x106c
 6622 1065 05       		.uleb128 0x5
 6623 1066 03       		.byte	0x3
 6624 1067 408F0000 		.4byte	buf.12127
 6625 106b 00       		.byte	0
 6626 106c 09       		.uleb128 0x9
 6627 106d 76000000 		.4byte	0x76
 6628 1071 7D100000 		.4byte	0x107d
 6629 1075 0B       		.uleb128 0xb
 6630 1076 D8000000 		.4byte	0xd8
 6631 107a DF2E     		.2byte	0x2edf
 6632 107c 00       		.byte	0
 6633 107d 0C       		.uleb128 0xc
 6634 107e 55060000 		.4byte	.LASF74
 6635 1082 01       		.byte	0x1
 6636 1083 9A02     		.2byte	0x29a
 6637 1085 88000000 		.4byte	0x88
 6638 1089 00000000 		.4byte	.LFB60
 6639 108d 0C000000 		.4byte	.LFE60-.LFB60
 6640 1091 01       		.uleb128 0x1
 6641 1092 9C       		.byte	0x9c
 6642 1093 BA100000 		.4byte	0x10ba
 6643 1097 0D       		.uleb128 0xd
 6644 1098 F9070000 		.4byte	.LASF15
ARM GAS  C:\Users\brian\AppData\Local\Temp\ccmYYpDh.s 			page 157


 6645 109c 01       		.byte	0x1
 6646 109d 9A02     		.2byte	0x29a
 6647 109f 88000000 		.4byte	0x88
 6648 10a3 BC070000 		.4byte	.LLST60
 6649 10a7 0E       		.uleb128 0xe
 6650 10a8 62756600 		.ascii	"buf\000"
 6651 10ac 01       		.byte	0x1
 6652 10ad A002     		.2byte	0x2a0
 6653 10af 87030000 		.4byte	0x387
 6654 10b3 05       		.uleb128 0x5
 6655 10b4 03       		.byte	0x3
 6656 10b5 20BE0000 		.4byte	buf.12131
 6657 10b9 00       		.byte	0
 6658 10ba 0C       		.uleb128 0xc
 6659 10bb 64060000 		.4byte	.LASF75
 6660 10bf 01       		.byte	0x1
 6661 10c0 A502     		.2byte	0x2a5
 6662 10c2 88000000 		.4byte	0x88
 6663 10c6 00000000 		.4byte	.LFB61
 6664 10ca 0C000000 		.4byte	.LFE61-.LFB61
 6665 10ce 01       		.uleb128 0x1
 6666 10cf 9C       		.byte	0x9c
 6667 10d0 F7100000 		.4byte	0x10f7
 6668 10d4 0D       		.uleb128 0xd
 6669 10d5 F9070000 		.4byte	.LASF15
 6670 10d9 01       		.byte	0x1
 6671 10da A502     		.2byte	0x2a5
 6672 10dc 88000000 		.4byte	0x88
 6673 10e0 DD070000 		.4byte	.LLST61
 6674 10e4 0E       		.uleb128 0xe
 6675 10e5 62756600 		.ascii	"buf\000"
 6676 10e9 01       		.byte	0x1
 6677 10ea AB02     		.2byte	0x2ab
 6678 10ec F7100000 		.4byte	0x10f7
 6679 10f0 05       		.uleb128 0x5
 6680 10f1 03       		.byte	0x3
 6681 10f2 B0BE0000 		.4byte	buf.12135
 6682 10f6 00       		.byte	0
 6683 10f7 09       		.uleb128 0x9
 6684 10f8 76000000 		.4byte	0x76
 6685 10fc 08110000 		.4byte	0x1108
 6686 1100 0B       		.uleb128 0xb
 6687 1101 D8000000 		.4byte	0xd8
 6688 1105 1F01     		.2byte	0x11f
 6689 1107 00       		.byte	0
 6690 1108 0C       		.uleb128 0xc
 6691 1109 F1060000 		.4byte	.LASF76
 6692 110d 01       		.byte	0x1
 6693 110e B002     		.2byte	0x2b0
 6694 1110 88000000 		.4byte	0x88
 6695 1114 00000000 		.4byte	.LFB62
 6696 1118 0C000000 		.4byte	.LFE62-.LFB62
 6697 111c 01       		.uleb128 0x1
 6698 111d 9C       		.byte	0x9c
 6699 111e 45110000 		.4byte	0x1145
 6700 1122 0D       		.uleb128 0xd
 6701 1123 F9070000 		.4byte	.LASF15
ARM GAS  C:\Users\brian\AppData\Local\Temp\ccmYYpDh.s 			page 158


 6702 1127 01       		.byte	0x1
 6703 1128 B002     		.2byte	0x2b0
 6704 112a 88000000 		.4byte	0x88
 6705 112e FE070000 		.4byte	.LLST62
 6706 1132 0E       		.uleb128 0xe
 6707 1133 62756600 		.ascii	"buf\000"
 6708 1137 01       		.byte	0x1
 6709 1138 B602     		.2byte	0x2b6
 6710 113a 45110000 		.4byte	0x1145
 6711 113e 05       		.uleb128 0x5
 6712 113f 03       		.byte	0x3
 6713 1140 D0BF0000 		.4byte	buf.12139
 6714 1144 00       		.byte	0
 6715 1145 09       		.uleb128 0x9
 6716 1146 76000000 		.4byte	0x76
 6717 114a 56110000 		.4byte	0x1156
 6718 114e 0B       		.uleb128 0xb
 6719 114f D8000000 		.4byte	0xd8
 6720 1153 CF0B     		.2byte	0xbcf
 6721 1155 00       		.byte	0
 6722 1156 0C       		.uleb128 0xc
 6723 1157 DD070000 		.4byte	.LASF77
 6724 115b 01       		.byte	0x1
 6725 115c BB02     		.2byte	0x2bb
 6726 115e 88000000 		.4byte	0x88
 6727 1162 00000000 		.4byte	.LFB63
 6728 1166 0C000000 		.4byte	.LFE63-.LFB63
 6729 116a 01       		.uleb128 0x1
 6730 116b 9C       		.byte	0x9c
 6731 116c 93110000 		.4byte	0x1193
 6732 1170 0D       		.uleb128 0xd
 6733 1171 F9070000 		.4byte	.LASF15
 6734 1175 01       		.byte	0x1
 6735 1176 BB02     		.2byte	0x2bb
 6736 1178 88000000 		.4byte	0x88
 6737 117c 1F080000 		.4byte	.LLST63
 6738 1180 0E       		.uleb128 0xe
 6739 1181 62756600 		.ascii	"buf\000"
 6740 1185 01       		.byte	0x1
 6741 1186 C102     		.2byte	0x2c1
 6742 1188 93110000 		.4byte	0x1193
 6743 118c 05       		.uleb128 0x5
 6744 118d 03       		.byte	0x3
 6745 118e A0CB0000 		.4byte	buf.12143
 6746 1192 00       		.byte	0
 6747 1193 09       		.uleb128 0x9
 6748 1194 76000000 		.4byte	0x76
 6749 1198 A3110000 		.4byte	0x11a3
 6750 119c 0A       		.uleb128 0xa
 6751 119d D8000000 		.4byte	0xd8
 6752 11a1 57       		.byte	0x57
 6753 11a2 00       		.byte	0
 6754 11a3 0C       		.uleb128 0xc
 6755 11a4 EB070000 		.4byte	.LASF78
 6756 11a8 01       		.byte	0x1
 6757 11a9 C602     		.2byte	0x2c6
 6758 11ab 88000000 		.4byte	0x88
ARM GAS  C:\Users\brian\AppData\Local\Temp\ccmYYpDh.s 			page 159


 6759 11af 00000000 		.4byte	.LFB64
 6760 11b3 0C000000 		.4byte	.LFE64-.LFB64
 6761 11b7 01       		.uleb128 0x1
 6762 11b8 9C       		.byte	0x9c
 6763 11b9 E0110000 		.4byte	0x11e0
 6764 11bd 0D       		.uleb128 0xd
 6765 11be F9070000 		.4byte	.LASF15
 6766 11c2 01       		.byte	0x1
 6767 11c3 C602     		.2byte	0x2c6
 6768 11c5 88000000 		.4byte	0x88
 6769 11c9 40080000 		.4byte	.LLST64
 6770 11cd 0E       		.uleb128 0xe
 6771 11ce 62756600 		.ascii	"buf\000"
 6772 11d2 01       		.byte	0x1
 6773 11d3 CC02     		.2byte	0x2cc
 6774 11d5 E0110000 		.4byte	0x11e0
 6775 11d9 05       		.uleb128 0x5
 6776 11da 03       		.byte	0x3
 6777 11db F8CB0000 		.4byte	buf.12147
 6778 11df 00       		.byte	0
 6779 11e0 09       		.uleb128 0x9
 6780 11e1 76000000 		.4byte	0x76
 6781 11e5 F0110000 		.4byte	0x11f0
 6782 11e9 0A       		.uleb128 0xa
 6783 11ea D8000000 		.4byte	0xd8
 6784 11ee AF       		.byte	0xaf
 6785 11ef 00       		.byte	0
 6786 11f0 0C       		.uleb128 0xc
 6787 11f1 4A080000 		.4byte	.LASF79
 6788 11f5 01       		.byte	0x1
 6789 11f6 D102     		.2byte	0x2d1
 6790 11f8 88000000 		.4byte	0x88
 6791 11fc 00000000 		.4byte	.LFB65
 6792 1200 0C000000 		.4byte	.LFE65-.LFB65
 6793 1204 01       		.uleb128 0x1
 6794 1205 9C       		.byte	0x9c
 6795 1206 2D120000 		.4byte	0x122d
 6796 120a 0D       		.uleb128 0xd
 6797 120b F9070000 		.4byte	.LASF15
 6798 120f 01       		.byte	0x1
 6799 1210 D102     		.2byte	0x2d1
 6800 1212 88000000 		.4byte	0x88
 6801 1216 61080000 		.4byte	.LLST65
 6802 121a 0E       		.uleb128 0xe
 6803 121b 62756600 		.ascii	"buf\000"
 6804 121f 01       		.byte	0x1
 6805 1220 D702     		.2byte	0x2d7
 6806 1222 2D120000 		.4byte	0x122d
 6807 1226 05       		.uleb128 0x5
 6808 1227 03       		.byte	0x3
 6809 1228 A8CC0000 		.4byte	buf.12151
 6810 122c 00       		.byte	0
 6811 122d 09       		.uleb128 0x9
 6812 122e 76000000 		.4byte	0x76
 6813 1232 3E120000 		.4byte	0x123e
 6814 1236 0B       		.uleb128 0xb
 6815 1237 D8000000 		.4byte	0xd8
ARM GAS  C:\Users\brian\AppData\Local\Temp\ccmYYpDh.s 			page 160


 6816 123b 0F02     		.2byte	0x20f
 6817 123d 00       		.byte	0
 6818 123e 0C       		.uleb128 0xc
 6819 123f AB060000 		.4byte	.LASF80
 6820 1243 01       		.byte	0x1
 6821 1244 DC02     		.2byte	0x2dc
 6822 1246 88000000 		.4byte	0x88
 6823 124a 00000000 		.4byte	.LFB66
 6824 124e 0C000000 		.4byte	.LFE66-.LFB66
 6825 1252 01       		.uleb128 0x1
 6826 1253 9C       		.byte	0x9c
 6827 1254 7B120000 		.4byte	0x127b
 6828 1258 0D       		.uleb128 0xd
 6829 1259 F9070000 		.4byte	.LASF15
 6830 125d 01       		.byte	0x1
 6831 125e DC02     		.2byte	0x2dc
 6832 1260 88000000 		.4byte	0x88
 6833 1264 82080000 		.4byte	.LLST66
 6834 1268 0E       		.uleb128 0xe
 6835 1269 62756600 		.ascii	"buf\000"
 6836 126d 01       		.byte	0x1
 6837 126e E202     		.2byte	0x2e2
 6838 1270 88050000 		.4byte	0x588
 6839 1274 05       		.uleb128 0x5
 6840 1275 03       		.byte	0x3
 6841 1276 B8CE0000 		.4byte	buf.12155
 6842 127a 00       		.byte	0
 6843 127b 0C       		.uleb128 0xc
 6844 127c B9060000 		.4byte	.LASF81
 6845 1280 01       		.byte	0x1
 6846 1281 E702     		.2byte	0x2e7
 6847 1283 88000000 		.4byte	0x88
 6848 1287 00000000 		.4byte	.LFB67
 6849 128b 0C000000 		.4byte	.LFE67-.LFB67
 6850 128f 01       		.uleb128 0x1
 6851 1290 9C       		.byte	0x9c
 6852 1291 B8120000 		.4byte	0x12b8
 6853 1295 0D       		.uleb128 0xd
 6854 1296 F9070000 		.4byte	.LASF15
 6855 129a 01       		.byte	0x1
 6856 129b E702     		.2byte	0x2e7
 6857 129d 88000000 		.4byte	0x88
 6858 12a1 A3080000 		.4byte	.LLST67
 6859 12a5 0E       		.uleb128 0xe
 6860 12a6 62756600 		.ascii	"buf\000"
 6861 12aa 01       		.byte	0x1
 6862 12ab ED02     		.2byte	0x2ed
 6863 12ad D2050000 		.4byte	0x5d2
 6864 12b1 05       		.uleb128 0x5
 6865 12b2 03       		.byte	0x3
 6866 12b3 18CF0000 		.4byte	buf.12159
 6867 12b7 00       		.byte	0
 6868 12b8 0C       		.uleb128 0xc
 6869 12b9 DB080000 		.4byte	.LASF82
 6870 12bd 01       		.byte	0x1
 6871 12be F202     		.2byte	0x2f2
 6872 12c0 88000000 		.4byte	0x88
ARM GAS  C:\Users\brian\AppData\Local\Temp\ccmYYpDh.s 			page 161


 6873 12c4 00000000 		.4byte	.LFB68
 6874 12c8 0C000000 		.4byte	.LFE68-.LFB68
 6875 12cc 01       		.uleb128 0x1
 6876 12cd 9C       		.byte	0x9c
 6877 12ce F5120000 		.4byte	0x12f5
 6878 12d2 0D       		.uleb128 0xd
 6879 12d3 F9070000 		.4byte	.LASF15
 6880 12d7 01       		.byte	0x1
 6881 12d8 F202     		.2byte	0x2f2
 6882 12da 88000000 		.4byte	0x88
 6883 12de C4080000 		.4byte	.LLST68
 6884 12e2 0E       		.uleb128 0xe
 6885 12e3 62756600 		.ascii	"buf\000"
 6886 12e7 01       		.byte	0x1
 6887 12e8 F802     		.2byte	0x2f8
 6888 12ea F5120000 		.4byte	0x12f5
 6889 12ee 05       		.uleb128 0x5
 6890 12ef 03       		.byte	0x3
 6891 12f0 D8CF0000 		.4byte	buf.12163
 6892 12f4 00       		.byte	0
 6893 12f5 09       		.uleb128 0x9
 6894 12f6 76000000 		.4byte	0x76
 6895 12fa 06130000 		.4byte	0x1306
 6896 12fe 0B       		.uleb128 0xb
 6897 12ff D8000000 		.4byte	0xd8
 6898 1303 5F03     		.2byte	0x35f
 6899 1305 00       		.byte	0
 6900 1306 0C       		.uleb128 0xc
 6901 1307 57010000 		.4byte	.LASF83
 6902 130b 01       		.byte	0x1
 6903 130c FD02     		.2byte	0x2fd
 6904 130e 88000000 		.4byte	0x88
 6905 1312 00000000 		.4byte	.LFB69
 6906 1316 0C000000 		.4byte	.LFE69-.LFB69
 6907 131a 01       		.uleb128 0x1
 6908 131b 9C       		.byte	0x9c
 6909 131c 43130000 		.4byte	0x1343
 6910 1320 0D       		.uleb128 0xd
 6911 1321 F9070000 		.4byte	.LASF15
 6912 1325 01       		.byte	0x1
 6913 1326 FD02     		.2byte	0x2fd
 6914 1328 88000000 		.4byte	0x88
 6915 132c E5080000 		.4byte	.LLST69
 6916 1330 0E       		.uleb128 0xe
 6917 1331 62756600 		.ascii	"buf\000"
 6918 1335 01       		.byte	0x1
 6919 1336 0303     		.2byte	0x303
 6920 1338 D2050000 		.4byte	0x5d2
 6921 133c 05       		.uleb128 0x5
 6922 133d 03       		.byte	0x3
 6923 133e 38D30000 		.4byte	buf.12167
 6924 1342 00       		.byte	0
 6925 1343 0C       		.uleb128 0xc
 6926 1344 65010000 		.4byte	.LASF84
 6927 1348 01       		.byte	0x1
 6928 1349 0803     		.2byte	0x308
 6929 134b 88000000 		.4byte	0x88
ARM GAS  C:\Users\brian\AppData\Local\Temp\ccmYYpDh.s 			page 162


 6930 134f 00000000 		.4byte	.LFB70
 6931 1353 0C000000 		.4byte	.LFE70-.LFB70
 6932 1357 01       		.uleb128 0x1
 6933 1358 9C       		.byte	0x9c
 6934 1359 80130000 		.4byte	0x1380
 6935 135d 0D       		.uleb128 0xd
 6936 135e F9070000 		.4byte	.LASF15
 6937 1362 01       		.byte	0x1
 6938 1363 0803     		.2byte	0x308
 6939 1365 88000000 		.4byte	0x88
 6940 1369 06090000 		.4byte	.LLST70
 6941 136d 0E       		.uleb128 0xe
 6942 136e 62756600 		.ascii	"buf\000"
 6943 1372 01       		.byte	0x1
 6944 1373 0E03     		.2byte	0x30e
 6945 1375 060B0000 		.4byte	0xb06
 6946 1379 05       		.uleb128 0x5
 6947 137a 03       		.byte	0x3
 6948 137b F8D30000 		.4byte	buf.12171
 6949 137f 00       		.byte	0
 6950 1380 0C       		.uleb128 0xc
 6951 1381 F5010000 		.4byte	.LASF85
 6952 1385 01       		.byte	0x1
 6953 1386 1303     		.2byte	0x313
 6954 1388 88000000 		.4byte	0x88
 6955 138c 00000000 		.4byte	.LFB71
 6956 1390 0C000000 		.4byte	.LFE71-.LFB71
 6957 1394 01       		.uleb128 0x1
 6958 1395 9C       		.byte	0x9c
 6959 1396 BD130000 		.4byte	0x13bd
 6960 139a 0D       		.uleb128 0xd
 6961 139b F9070000 		.4byte	.LASF15
 6962 139f 01       		.byte	0x1
 6963 13a0 1303     		.2byte	0x313
 6964 13a2 88000000 		.4byte	0x88
 6965 13a6 27090000 		.4byte	.LLST71
 6966 13aa 0E       		.uleb128 0xe
 6967 13ab 62756600 		.ascii	"buf\000"
 6968 13af 01       		.byte	0x1
 6969 13b0 1903     		.2byte	0x319
 6970 13b2 4C0D0000 		.4byte	0xd4c
 6971 13b6 05       		.uleb128 0x5
 6972 13b7 03       		.byte	0x3
 6973 13b8 78D50000 		.4byte	buf.12175
 6974 13bc 00       		.byte	0
 6975 13bd 0C       		.uleb128 0xc
 6976 13be D9010000 		.4byte	.LASF86
 6977 13c2 01       		.byte	0x1
 6978 13c3 1E03     		.2byte	0x31e
 6979 13c5 88000000 		.4byte	0x88
 6980 13c9 00000000 		.4byte	.LFB72
 6981 13cd 0C000000 		.4byte	.LFE72-.LFB72
 6982 13d1 01       		.uleb128 0x1
 6983 13d2 9C       		.byte	0x9c
 6984 13d3 FA130000 		.4byte	0x13fa
 6985 13d7 0D       		.uleb128 0xd
 6986 13d8 F9070000 		.4byte	.LASF15
ARM GAS  C:\Users\brian\AppData\Local\Temp\ccmYYpDh.s 			page 163


 6987 13dc 01       		.byte	0x1
 6988 13dd 1E03     		.2byte	0x31e
 6989 13df 88000000 		.4byte	0x88
 6990 13e3 48090000 		.4byte	.LLST72
 6991 13e7 0E       		.uleb128 0xe
 6992 13e8 62756600 		.ascii	"buf\000"
 6993 13ec 01       		.byte	0x1
 6994 13ed 2403     		.2byte	0x324
 6995 13ef FA130000 		.4byte	0x13fa
 6996 13f3 05       		.uleb128 0x5
 6997 13f4 03       		.byte	0x3
 6998 13f5 78DB0000 		.4byte	buf.12179
 6999 13f9 00       		.byte	0
 7000 13fa 09       		.uleb128 0x9
 7001 13fb 76000000 		.4byte	0x76
 7002 13ff 0A140000 		.4byte	0x140a
 7003 1403 0A       		.uleb128 0xa
 7004 1404 D8000000 		.4byte	0xd8
 7005 1408 EF       		.byte	0xef
 7006 1409 00       		.byte	0
 7007 140a 0C       		.uleb128 0xc
 7008 140b E7010000 		.4byte	.LASF87
 7009 140f 01       		.byte	0x1
 7010 1410 2903     		.2byte	0x329
 7011 1412 88000000 		.4byte	0x88
 7012 1416 00000000 		.4byte	.LFB73
 7013 141a 0C000000 		.4byte	.LFE73-.LFB73
 7014 141e 01       		.uleb128 0x1
 7015 141f 9C       		.byte	0x9c
 7016 1420 47140000 		.4byte	0x1447
 7017 1424 0D       		.uleb128 0xd
 7018 1425 F9070000 		.4byte	.LASF15
 7019 1429 01       		.byte	0x1
 7020 142a 2903     		.2byte	0x329
 7021 142c 88000000 		.4byte	0x88
 7022 1430 69090000 		.4byte	.LLST73
 7023 1434 0E       		.uleb128 0xe
 7024 1435 62756600 		.ascii	"buf\000"
 7025 1439 01       		.byte	0x1
 7026 143a 2F03     		.2byte	0x32f
 7027 143c 47140000 		.4byte	0x1447
 7028 1440 05       		.uleb128 0x5
 7029 1441 03       		.byte	0x3
 7030 1442 68DC0000 		.4byte	buf.12183
 7031 1446 00       		.byte	0
 7032 1447 09       		.uleb128 0x9
 7033 1448 76000000 		.4byte	0x76
 7034 144c 58140000 		.4byte	0x1458
 7035 1450 0B       		.uleb128 0xb
 7036 1451 D8000000 		.4byte	0xd8
 7037 1455 DF01     		.2byte	0x1df
 7038 1457 00       		.byte	0
 7039 1458 0C       		.uleb128 0xc
 7040 1459 7E020000 		.4byte	.LASF88
 7041 145d 01       		.byte	0x1
 7042 145e 3403     		.2byte	0x334
 7043 1460 88000000 		.4byte	0x88
ARM GAS  C:\Users\brian\AppData\Local\Temp\ccmYYpDh.s 			page 164


 7044 1464 00000000 		.4byte	.LFB74
 7045 1468 0C000000 		.4byte	.LFE74-.LFB74
 7046 146c 01       		.uleb128 0x1
 7047 146d 9C       		.byte	0x9c
 7048 146e 95140000 		.4byte	0x1495
 7049 1472 0D       		.uleb128 0xd
 7050 1473 F9070000 		.4byte	.LASF15
 7051 1477 01       		.byte	0x1
 7052 1478 3403     		.2byte	0x334
 7053 147a 88000000 		.4byte	0x88
 7054 147e 8A090000 		.4byte	.LLST74
 7055 1482 0E       		.uleb128 0xe
 7056 1483 62756600 		.ascii	"buf\000"
 7057 1487 01       		.byte	0x1
 7058 1488 3A03     		.2byte	0x33a
 7059 148a 95140000 		.4byte	0x1495
 7060 148e 05       		.uleb128 0x5
 7061 148f 03       		.byte	0x3
 7062 1490 48DE0000 		.4byte	buf.12187
 7063 1494 00       		.byte	0
 7064 1495 09       		.uleb128 0x9
 7065 1496 76000000 		.4byte	0x76
 7066 149a A6140000 		.4byte	0x14a6
 7067 149e 0B       		.uleb128 0xb
 7068 149f D8000000 		.4byte	0xd8
 7069 14a3 7F07     		.2byte	0x77f
 7070 14a5 00       		.byte	0
 7071 14a6 0C       		.uleb128 0xc
 7072 14a7 58080000 		.4byte	.LASF89
 7073 14ab 01       		.byte	0x1
 7074 14ac 3F03     		.2byte	0x33f
 7075 14ae 88000000 		.4byte	0x88
 7076 14b2 00000000 		.4byte	.LFB75
 7077 14b6 0C000000 		.4byte	.LFE75-.LFB75
 7078 14ba 01       		.uleb128 0x1
 7079 14bb 9C       		.byte	0x9c
 7080 14bc E3140000 		.4byte	0x14e3
 7081 14c0 0D       		.uleb128 0xd
 7082 14c1 F9070000 		.4byte	.LASF15
 7083 14c5 01       		.byte	0x1
 7084 14c6 3F03     		.2byte	0x33f
 7085 14c8 88000000 		.4byte	0x88
 7086 14cc AB090000 		.4byte	.LLST75
 7087 14d0 0E       		.uleb128 0xe
 7088 14d1 62756600 		.ascii	"buf\000"
 7089 14d5 01       		.byte	0x1
 7090 14d6 4503     		.2byte	0x345
 7091 14d8 FA130000 		.4byte	0x13fa
 7092 14dc 05       		.uleb128 0x5
 7093 14dd 03       		.byte	0x3
 7094 14de C8E50000 		.4byte	buf.12191
 7095 14e2 00       		.byte	0
 7096 14e3 0C       		.uleb128 0xc
 7097 14e4 67080000 		.4byte	.LASF90
 7098 14e8 01       		.byte	0x1
 7099 14e9 4A03     		.2byte	0x34a
 7100 14eb 88000000 		.4byte	0x88
ARM GAS  C:\Users\brian\AppData\Local\Temp\ccmYYpDh.s 			page 165


 7101 14ef 00000000 		.4byte	.LFB76
 7102 14f3 0C000000 		.4byte	.LFE76-.LFB76
 7103 14f7 01       		.uleb128 0x1
 7104 14f8 9C       		.byte	0x9c
 7105 14f9 20150000 		.4byte	0x1520
 7106 14fd 0D       		.uleb128 0xd
 7107 14fe F9070000 		.4byte	.LASF15
 7108 1502 01       		.byte	0x1
 7109 1503 4A03     		.2byte	0x34a
 7110 1505 88000000 		.4byte	0x88
 7111 1509 CC090000 		.4byte	.LLST76
 7112 150d 0E       		.uleb128 0xe
 7113 150e 62756600 		.ascii	"buf\000"
 7114 1512 01       		.byte	0x1
 7115 1513 5003     		.2byte	0x350
 7116 1515 47140000 		.4byte	0x1447
 7117 1519 05       		.uleb128 0x5
 7118 151a 03       		.byte	0x3
 7119 151b B8E60000 		.4byte	buf.12195
 7120 151f 00       		.byte	0
 7121 1520 0C       		.uleb128 0xc
 7122 1521 F7080000 		.4byte	.LASF91
 7123 1525 01       		.byte	0x1
 7124 1526 5503     		.2byte	0x355
 7125 1528 88000000 		.4byte	0x88
 7126 152c 00000000 		.4byte	.LFB77
 7127 1530 0C000000 		.4byte	.LFE77-.LFB77
 7128 1534 01       		.uleb128 0x1
 7129 1535 9C       		.byte	0x9c
 7130 1536 5D150000 		.4byte	0x155d
 7131 153a 0D       		.uleb128 0xd
 7132 153b F9070000 		.4byte	.LASF15
 7133 153f 01       		.byte	0x1
 7134 1540 5503     		.2byte	0x355
 7135 1542 88000000 		.4byte	0x88
 7136 1546 ED090000 		.4byte	.LLST77
 7137 154a 0E       		.uleb128 0xe
 7138 154b 62756600 		.ascii	"buf\000"
 7139 154f 01       		.byte	0x1
 7140 1550 5B03     		.2byte	0x35b
 7141 1552 5D150000 		.4byte	0x155d
 7142 1556 05       		.uleb128 0x5
 7143 1557 03       		.byte	0x3
 7144 1558 98E80000 		.4byte	buf.12199
 7145 155c 00       		.byte	0
 7146 155d 09       		.uleb128 0x9
 7147 155e 76000000 		.4byte	0x76
 7148 1562 6E150000 		.4byte	0x156e
 7149 1566 0B       		.uleb128 0xb
 7150 1567 D8000000 		.4byte	0xd8
 7151 156b 0F0E     		.2byte	0xe0f
 7152 156d 00       		.byte	0
 7153 156e 0C       		.uleb128 0xc
 7154 156f 36020000 		.4byte	.LASF92
 7155 1573 01       		.byte	0x1
 7156 1574 6003     		.2byte	0x360
 7157 1576 88000000 		.4byte	0x88
ARM GAS  C:\Users\brian\AppData\Local\Temp\ccmYYpDh.s 			page 166


 7158 157a 00000000 		.4byte	.LFB78
 7159 157e 0C000000 		.4byte	.LFE78-.LFB78
 7160 1582 01       		.uleb128 0x1
 7161 1583 9C       		.byte	0x9c
 7162 1584 AB150000 		.4byte	0x15ab
 7163 1588 0D       		.uleb128 0xd
 7164 1589 F9070000 		.4byte	.LASF15
 7165 158d 01       		.byte	0x1
 7166 158e 6003     		.2byte	0x360
 7167 1590 88000000 		.4byte	0x88
 7168 1594 0E0A0000 		.4byte	.LLST78
 7169 1598 0E       		.uleb128 0xe
 7170 1599 62756600 		.ascii	"buf\000"
 7171 159d 01       		.byte	0x1
 7172 159e 6603     		.2byte	0x366
 7173 15a0 FA130000 		.4byte	0x13fa
 7174 15a4 05       		.uleb128 0x5
 7175 15a5 03       		.byte	0x3
 7176 15a6 A8F60000 		.4byte	buf.12203
 7177 15aa 00       		.byte	0
 7178 15ab 0C       		.uleb128 0xc
 7179 15ac 45020000 		.4byte	.LASF93
 7180 15b0 01       		.byte	0x1
 7181 15b1 6B03     		.2byte	0x36b
 7182 15b3 88000000 		.4byte	0x88
 7183 15b7 00000000 		.4byte	.LFB79
 7184 15bb 0C000000 		.4byte	.LFE79-.LFB79
 7185 15bf 01       		.uleb128 0x1
 7186 15c0 9C       		.byte	0x9c
 7187 15c1 E8150000 		.4byte	0x15e8
 7188 15c5 0D       		.uleb128 0xd
 7189 15c6 F9070000 		.4byte	.LASF15
 7190 15ca 01       		.byte	0x1
 7191 15cb 6B03     		.2byte	0x36b
 7192 15cd 88000000 		.4byte	0x88
 7193 15d1 2F0A0000 		.4byte	.LLST79
 7194 15d5 0E       		.uleb128 0xe
 7195 15d6 62756600 		.ascii	"buf\000"
 7196 15da 01       		.byte	0x1
 7197 15db 7103     		.2byte	0x371
 7198 15dd 47140000 		.4byte	0x1447
 7199 15e1 05       		.uleb128 0x5
 7200 15e2 03       		.byte	0x3
 7201 15e3 98F70000 		.4byte	buf.12207
 7202 15e7 00       		.byte	0
 7203 15e8 0C       		.uleb128 0xc
 7204 15e9 C5020000 		.4byte	.LASF94
 7205 15ed 01       		.byte	0x1
 7206 15ee 7603     		.2byte	0x376
 7207 15f0 88000000 		.4byte	0x88
 7208 15f4 00000000 		.4byte	.LFB80
 7209 15f8 0C000000 		.4byte	.LFE80-.LFB80
 7210 15fc 01       		.uleb128 0x1
 7211 15fd 9C       		.byte	0x9c
 7212 15fe 25160000 		.4byte	0x1625
 7213 1602 0D       		.uleb128 0xd
 7214 1603 F9070000 		.4byte	.LASF15
ARM GAS  C:\Users\brian\AppData\Local\Temp\ccmYYpDh.s 			page 167


 7215 1607 01       		.byte	0x1
 7216 1608 7603     		.2byte	0x376
 7217 160a 88000000 		.4byte	0x88
 7218 160e 500A0000 		.4byte	.LLST80
 7219 1612 0E       		.uleb128 0xe
 7220 1613 62756600 		.ascii	"buf\000"
 7221 1617 01       		.byte	0x1
 7222 1618 7C03     		.2byte	0x37c
 7223 161a 25160000 		.4byte	0x1625
 7224 161e 05       		.uleb128 0x5
 7225 161f 03       		.byte	0x3
 7226 1620 78F90000 		.4byte	buf.12211
 7227 1624 00       		.byte	0
 7228 1625 09       		.uleb128 0x9
 7229 1626 76000000 		.4byte	0x76
 7230 162a 36160000 		.4byte	0x1636
 7231 162e 0B       		.uleb128 0xb
 7232 162f D8000000 		.4byte	0xd8
 7233 1633 FF0E     		.2byte	0xeff
 7234 1635 00       		.byte	0
 7235 1636 0C       		.uleb128 0xc
 7236 1637 37070000 		.4byte	.LASF95
 7237 163b 01       		.byte	0x1
 7238 163c 8103     		.2byte	0x381
 7239 163e 88000000 		.4byte	0x88
 7240 1642 00000000 		.4byte	.LFB81
 7241 1646 0C000000 		.4byte	.LFE81-.LFB81
 7242 164a 01       		.uleb128 0x1
 7243 164b 9C       		.byte	0x9c
 7244 164c 73160000 		.4byte	0x1673
 7245 1650 0D       		.uleb128 0xd
 7246 1651 F9070000 		.4byte	.LASF15
 7247 1655 01       		.byte	0x1
 7248 1656 8103     		.2byte	0x381
 7249 1658 88000000 		.4byte	0x88
 7250 165c 710A0000 		.4byte	.LLST81
 7251 1660 0E       		.uleb128 0xe
 7252 1661 62756600 		.ascii	"buf\000"
 7253 1665 01       		.byte	0x1
 7254 1666 8703     		.2byte	0x387
 7255 1668 B1060000 		.4byte	0x6b1
 7256 166c 05       		.uleb128 0x5
 7257 166d 03       		.byte	0x3
 7258 166e 78080100 		.4byte	buf.12215
 7259 1672 00       		.byte	0
 7260 1673 0C       		.uleb128 0xc
 7261 1674 46070000 		.4byte	.LASF96
 7262 1678 01       		.byte	0x1
 7263 1679 8C03     		.2byte	0x38c
 7264 167b 88000000 		.4byte	0x88
 7265 167f 00000000 		.4byte	.LFB82
 7266 1683 0C000000 		.4byte	.LFE82-.LFB82
 7267 1687 01       		.uleb128 0x1
 7268 1688 9C       		.byte	0x9c
 7269 1689 B0160000 		.4byte	0x16b0
 7270 168d 0D       		.uleb128 0xd
 7271 168e F9070000 		.4byte	.LASF15
ARM GAS  C:\Users\brian\AppData\Local\Temp\ccmYYpDh.s 			page 168


 7272 1692 01       		.byte	0x1
 7273 1693 8C03     		.2byte	0x38c
 7274 1695 88000000 		.4byte	0x88
 7275 1699 920A0000 		.4byte	.LLST82
 7276 169d 0E       		.uleb128 0xe
 7277 169e 62756600 		.ascii	"buf\000"
 7278 16a2 01       		.byte	0x1
 7279 16a3 9203     		.2byte	0x392
 7280 16a5 51080000 		.4byte	0x851
 7281 16a9 05       		.uleb128 0x5
 7282 16aa 03       		.byte	0x3
 7283 16ab 18090100 		.4byte	buf.12219
 7284 16af 00       		.byte	0
 7285 16b0 0C       		.uleb128 0xc
 7286 16b1 7C070000 		.4byte	.LASF97
 7287 16b5 01       		.byte	0x1
 7288 16b6 9703     		.2byte	0x397
 7289 16b8 88000000 		.4byte	0x88
 7290 16bc 00000000 		.4byte	.LFB83
 7291 16c0 0C000000 		.4byte	.LFE83-.LFB83
 7292 16c4 01       		.uleb128 0x1
 7293 16c5 9C       		.byte	0x9c
 7294 16c6 ED160000 		.4byte	0x16ed
 7295 16ca 0D       		.uleb128 0xd
 7296 16cb F9070000 		.4byte	.LASF15
 7297 16cf 01       		.byte	0x1
 7298 16d0 9703     		.2byte	0x397
 7299 16d2 88000000 		.4byte	0x88
 7300 16d6 B30A0000 		.4byte	.LLST83
 7301 16da 0E       		.uleb128 0xe
 7302 16db 62756600 		.ascii	"buf\000"
 7303 16df 01       		.byte	0x1
 7304 16e0 9D03     		.2byte	0x39d
 7305 16e2 ED160000 		.4byte	0x16ed
 7306 16e6 05       		.uleb128 0x5
 7307 16e7 03       		.byte	0x3
 7308 16e8 580A0100 		.4byte	buf.12223
 7309 16ec 00       		.byte	0
 7310 16ed 09       		.uleb128 0x9
 7311 16ee 76000000 		.4byte	0x76
 7312 16f2 FE160000 		.4byte	0x16fe
 7313 16f6 0B       		.uleb128 0xb
 7314 16f7 D8000000 		.4byte	0xd8
 7315 16fb FF09     		.2byte	0x9ff
 7316 16fd 00       		.byte	0
 7317 16fe 0C       		.uleb128 0xc
 7318 16ff 67050000 		.4byte	.LASF98
 7319 1703 01       		.byte	0x1
 7320 1704 A203     		.2byte	0x3a2
 7321 1706 88000000 		.4byte	0x88
 7322 170a 00000000 		.4byte	.LFB84
 7323 170e 0C000000 		.4byte	.LFE84-.LFB84
 7324 1712 01       		.uleb128 0x1
 7325 1713 9C       		.byte	0x9c
 7326 1714 3B170000 		.4byte	0x173b
 7327 1718 0D       		.uleb128 0xd
 7328 1719 F9070000 		.4byte	.LASF15
ARM GAS  C:\Users\brian\AppData\Local\Temp\ccmYYpDh.s 			page 169


 7329 171d 01       		.byte	0x1
 7330 171e A203     		.2byte	0x3a2
 7331 1720 88000000 		.4byte	0x88
 7332 1724 D40A0000 		.4byte	.LLST84
 7333 1728 0E       		.uleb128 0xe
 7334 1729 62756600 		.ascii	"buf\000"
 7335 172d 01       		.byte	0x1
 7336 172e A803     		.2byte	0x3a8
 7337 1730 D2050000 		.4byte	0x5d2
 7338 1734 05       		.uleb128 0x5
 7339 1735 03       		.byte	0x3
 7340 1736 58140100 		.4byte	buf.12227
 7341 173a 00       		.byte	0
 7342 173b 0C       		.uleb128 0xc
 7343 173c 76050000 		.4byte	.LASF99
 7344 1740 01       		.byte	0x1
 7345 1741 AD03     		.2byte	0x3ad
 7346 1743 88000000 		.4byte	0x88
 7347 1747 00000000 		.4byte	.LFB85
 7348 174b 0C000000 		.4byte	.LFE85-.LFB85
 7349 174f 01       		.uleb128 0x1
 7350 1750 9C       		.byte	0x9c
 7351 1751 78170000 		.4byte	0x1778
 7352 1755 0D       		.uleb128 0xd
 7353 1756 F9070000 		.4byte	.LASF15
 7354 175a 01       		.byte	0x1
 7355 175b AD03     		.2byte	0x3ad
 7356 175d 88000000 		.4byte	0x88
 7357 1761 F50A0000 		.4byte	.LLST85
 7358 1765 0E       		.uleb128 0xe
 7359 1766 62756600 		.ascii	"buf\000"
 7360 176a 01       		.byte	0x1
 7361 176b B303     		.2byte	0x3b3
 7362 176d 060B0000 		.4byte	0xb06
 7363 1771 05       		.uleb128 0x5
 7364 1772 03       		.byte	0x3
 7365 1773 18150100 		.4byte	buf.12231
 7366 1777 00       		.byte	0
 7367 1778 0C       		.uleb128 0xc
 7368 1779 39060000 		.4byte	.LASF100
 7369 177d 01       		.byte	0x1
 7370 177e B803     		.2byte	0x3b8
 7371 1780 88000000 		.4byte	0x88
 7372 1784 00000000 		.4byte	.LFB86
 7373 1788 0C000000 		.4byte	.LFE86-.LFB86
 7374 178c 01       		.uleb128 0x1
 7375 178d 9C       		.byte	0x9c
 7376 178e B5170000 		.4byte	0x17b5
 7377 1792 0D       		.uleb128 0xd
 7378 1793 F9070000 		.4byte	.LASF15
 7379 1797 01       		.byte	0x1
 7380 1798 B803     		.2byte	0x3b8
 7381 179a 88000000 		.4byte	0x88
 7382 179e 160B0000 		.4byte	.LLST86
 7383 17a2 0E       		.uleb128 0xe
 7384 17a3 62756600 		.ascii	"buf\000"
 7385 17a7 01       		.byte	0x1
ARM GAS  C:\Users\brian\AppData\Local\Temp\ccmYYpDh.s 			page 170


 7386 17a8 BE03     		.2byte	0x3be
 7387 17aa B5170000 		.4byte	0x17b5
 7388 17ae 05       		.uleb128 0x5
 7389 17af 03       		.byte	0x3
 7390 17b0 98160100 		.4byte	buf.12235
 7391 17b4 00       		.byte	0
 7392 17b5 09       		.uleb128 0x9
 7393 17b6 76000000 		.4byte	0x76
 7394 17ba C6170000 		.4byte	0x17c6
 7395 17be 0B       		.uleb128 0xb
 7396 17bf D8000000 		.4byte	0xd8
 7397 17c3 FF08     		.2byte	0x8ff
 7398 17c5 00       		.byte	0
 7399 17c6 0C       		.uleb128 0xc
 7400 17c7 CB040000 		.4byte	.LASF101
 7401 17cb 01       		.byte	0x1
 7402 17cc C303     		.2byte	0x3c3
 7403 17ce 88000000 		.4byte	0x88
 7404 17d2 00000000 		.4byte	.LFB87
 7405 17d6 0C000000 		.4byte	.LFE87-.LFB87
 7406 17da 01       		.uleb128 0x1
 7407 17db 9C       		.byte	0x9c
 7408 17dc 03180000 		.4byte	0x1803
 7409 17e0 0D       		.uleb128 0xd
 7410 17e1 F9070000 		.4byte	.LASF15
 7411 17e5 01       		.byte	0x1
 7412 17e6 C303     		.2byte	0x3c3
 7413 17e8 88000000 		.4byte	0x88
 7414 17ec 370B0000 		.4byte	.LLST87
 7415 17f0 0E       		.uleb128 0xe
 7416 17f1 62756600 		.ascii	"buf\000"
 7417 17f5 01       		.byte	0x1
 7418 17f6 C903     		.2byte	0x3c9
 7419 17f8 B1060000 		.4byte	0x6b1
 7420 17fc 05       		.uleb128 0x5
 7421 17fd 03       		.byte	0x3
 7422 17fe 981F0100 		.4byte	buf.12239
 7423 1802 00       		.byte	0
 7424 1803 0C       		.uleb128 0xc
 7425 1804 DA040000 		.4byte	.LASF102
 7426 1808 01       		.byte	0x1
 7427 1809 CE03     		.2byte	0x3ce
 7428 180b 88000000 		.4byte	0x88
 7429 180f 00000000 		.4byte	.LFB88
 7430 1813 0C000000 		.4byte	.LFE88-.LFB88
 7431 1817 01       		.uleb128 0x1
 7432 1818 9C       		.byte	0x9c
 7433 1819 40180000 		.4byte	0x1840
 7434 181d 0D       		.uleb128 0xd
 7435 181e F9070000 		.4byte	.LASF15
 7436 1822 01       		.byte	0x1
 7437 1823 CE03     		.2byte	0x3ce
 7438 1825 88000000 		.4byte	0x88
 7439 1829 580B0000 		.4byte	.LLST88
 7440 182d 0E       		.uleb128 0xe
 7441 182e 62756600 		.ascii	"buf\000"
 7442 1832 01       		.byte	0x1
ARM GAS  C:\Users\brian\AppData\Local\Temp\ccmYYpDh.s 			page 171


 7443 1833 D403     		.2byte	0x3d4
 7444 1835 51080000 		.4byte	0x851
 7445 1839 05       		.uleb128 0x5
 7446 183a 03       		.byte	0x3
 7447 183b 38200100 		.4byte	buf.12243
 7448 183f 00       		.byte	0
 7449 1840 0C       		.uleb128 0xc
 7450 1841 5E070000 		.4byte	.LASF103
 7451 1845 01       		.byte	0x1
 7452 1846 D903     		.2byte	0x3d9
 7453 1848 88000000 		.4byte	0x88
 7454 184c 00000000 		.4byte	.LFB89
 7455 1850 0C000000 		.4byte	.LFE89-.LFB89
 7456 1854 01       		.uleb128 0x1
 7457 1855 9C       		.byte	0x9c
 7458 1856 7D180000 		.4byte	0x187d
 7459 185a 0D       		.uleb128 0xd
 7460 185b F9070000 		.4byte	.LASF15
 7461 185f 01       		.byte	0x1
 7462 1860 D903     		.2byte	0x3d9
 7463 1862 88000000 		.4byte	0x88
 7464 1866 790B0000 		.4byte	.LLST89
 7465 186a 0E       		.uleb128 0xe
 7466 186b 62756600 		.ascii	"buf\000"
 7467 186f 01       		.byte	0x1
 7468 1870 DF03     		.2byte	0x3df
 7469 1872 7D180000 		.4byte	0x187d
 7470 1876 05       		.uleb128 0x5
 7471 1877 03       		.byte	0x3
 7472 1878 78210100 		.4byte	buf.12247
 7473 187c 00       		.byte	0
 7474 187d 09       		.uleb128 0x9
 7475 187e 76000000 		.4byte	0x76
 7476 1882 8E180000 		.4byte	0x188e
 7477 1886 0B       		.uleb128 0xb
 7478 1887 D8000000 		.4byte	0xd8
 7479 188b 1F08     		.2byte	0x81f
 7480 188d 00       		.byte	0
 7481 188e 0C       		.uleb128 0xc
 7482 188f 7A040000 		.4byte	.LASF104
 7483 1893 01       		.byte	0x1
 7484 1894 E403     		.2byte	0x3e4
 7485 1896 88000000 		.4byte	0x88
 7486 189a 00000000 		.4byte	.LFB90
 7487 189e 0C000000 		.4byte	.LFE90-.LFB90
 7488 18a2 01       		.uleb128 0x1
 7489 18a3 9C       		.byte	0x9c
 7490 18a4 CB180000 		.4byte	0x18cb
 7491 18a8 0D       		.uleb128 0xd
 7492 18a9 F9070000 		.4byte	.LASF15
 7493 18ad 01       		.byte	0x1
 7494 18ae E403     		.2byte	0x3e4
 7495 18b0 88000000 		.4byte	0x88
 7496 18b4 9A0B0000 		.4byte	.LLST90
 7497 18b8 0E       		.uleb128 0xe
 7498 18b9 62756600 		.ascii	"buf\000"
 7499 18bd 01       		.byte	0x1
ARM GAS  C:\Users\brian\AppData\Local\Temp\ccmYYpDh.s 			page 172


 7500 18be EA03     		.2byte	0x3ea
 7501 18c0 FA130000 		.4byte	0x13fa
 7502 18c4 05       		.uleb128 0x5
 7503 18c5 03       		.byte	0x3
 7504 18c6 98290100 		.4byte	buf.12251
 7505 18ca 00       		.byte	0
 7506 18cb 0C       		.uleb128 0xc
 7507 18cc 89040000 		.4byte	.LASF105
 7508 18d0 01       		.byte	0x1
 7509 18d1 EF03     		.2byte	0x3ef
 7510 18d3 88000000 		.4byte	0x88
 7511 18d7 00000000 		.4byte	.LFB91
 7512 18db 0C000000 		.4byte	.LFE91-.LFB91
 7513 18df 01       		.uleb128 0x1
 7514 18e0 9C       		.byte	0x9c
 7515 18e1 08190000 		.4byte	0x1908
 7516 18e5 0D       		.uleb128 0xd
 7517 18e6 F9070000 		.4byte	.LASF15
 7518 18ea 01       		.byte	0x1
 7519 18eb EF03     		.2byte	0x3ef
 7520 18ed 88000000 		.4byte	0x88
 7521 18f1 BB0B0000 		.4byte	.LLST91
 7522 18f5 0E       		.uleb128 0xe
 7523 18f6 62756600 		.ascii	"buf\000"
 7524 18fa 01       		.byte	0x1
 7525 18fb F503     		.2byte	0x3f5
 7526 18fd 47140000 		.4byte	0x1447
 7527 1901 05       		.uleb128 0x5
 7528 1902 03       		.byte	0x3
 7529 1903 882A0100 		.4byte	buf.12255
 7530 1907 00       		.byte	0
 7531 1908 0C       		.uleb128 0xc
 7532 1909 2C000000 		.4byte	.LASF106
 7533 190d 01       		.byte	0x1
 7534 190e FA03     		.2byte	0x3fa
 7535 1910 88000000 		.4byte	0x88
 7536 1914 00000000 		.4byte	.LFB92
 7537 1918 0C000000 		.4byte	.LFE92-.LFB92
 7538 191c 01       		.uleb128 0x1
 7539 191d 9C       		.byte	0x9c
 7540 191e 45190000 		.4byte	0x1945
 7541 1922 0D       		.uleb128 0xd
 7542 1923 F9070000 		.4byte	.LASF15
 7543 1927 01       		.byte	0x1
 7544 1928 FA03     		.2byte	0x3fa
 7545 192a 88000000 		.4byte	0x88
 7546 192e DC0B0000 		.4byte	.LLST92
 7547 1932 0E       		.uleb128 0xe
 7548 1933 62756600 		.ascii	"buf\000"
 7549 1937 01       		.byte	0x1
 7550 1938 0004     		.2byte	0x400
 7551 193a 45190000 		.4byte	0x1945
 7552 193e 05       		.uleb128 0x5
 7553 193f 03       		.byte	0x3
 7554 1940 682C0100 		.4byte	buf.12259
 7555 1944 00       		.byte	0
 7556 1945 09       		.uleb128 0x9
ARM GAS  C:\Users\brian\AppData\Local\Temp\ccmYYpDh.s 			page 173


 7557 1946 76000000 		.4byte	0x76
 7558 194a 56190000 		.4byte	0x1956
 7559 194e 0B       		.uleb128 0xb
 7560 194f D8000000 		.4byte	0xd8
 7561 1953 BF12     		.2byte	0x12bf
 7562 1955 00       		.byte	0
 7563 1956 0C       		.uleb128 0xc
 7564 1957 4D040000 		.4byte	.LASF107
 7565 195b 01       		.byte	0x1
 7566 195c 0504     		.2byte	0x405
 7567 195e 88000000 		.4byte	0x88
 7568 1962 00000000 		.4byte	.LFB93
 7569 1966 0C000000 		.4byte	.LFE93-.LFB93
 7570 196a 01       		.uleb128 0x1
 7571 196b 9C       		.byte	0x9c
 7572 196c 93190000 		.4byte	0x1993
 7573 1970 0D       		.uleb128 0xd
 7574 1971 F9070000 		.4byte	.LASF15
 7575 1975 01       		.byte	0x1
 7576 1976 0504     		.2byte	0x405
 7577 1978 88000000 		.4byte	0x88
 7578 197c FD0B0000 		.4byte	.LLST93
 7579 1980 0E       		.uleb128 0xe
 7580 1981 62756600 		.ascii	"buf\000"
 7581 1985 01       		.byte	0x1
 7582 1986 0B04     		.2byte	0x40b
 7583 1988 19010000 		.4byte	0x119
 7584 198c 05       		.uleb128 0x5
 7585 198d 03       		.byte	0x3
 7586 198e 283F0100 		.4byte	buf.12263
 7587 1992 00       		.byte	0
 7588 1993 0C       		.uleb128 0xc
 7589 1994 5C040000 		.4byte	.LASF108
 7590 1998 01       		.byte	0x1
 7591 1999 1004     		.2byte	0x410
 7592 199b 88000000 		.4byte	0x88
 7593 199f 00000000 		.4byte	.LFB94
 7594 19a3 0C000000 		.4byte	.LFE94-.LFB94
 7595 19a7 01       		.uleb128 0x1
 7596 19a8 9C       		.byte	0x9c
 7597 19a9 D0190000 		.4byte	0x19d0
 7598 19ad 0D       		.uleb128 0xd
 7599 19ae F9070000 		.4byte	.LASF15
 7600 19b2 01       		.byte	0x1
 7601 19b3 1004     		.2byte	0x410
 7602 19b5 88000000 		.4byte	0x88
 7603 19b9 1E0C0000 		.4byte	.LLST94
 7604 19bd 0E       		.uleb128 0xe
 7605 19be 62756600 		.ascii	"buf\000"
 7606 19c2 01       		.byte	0x1
 7607 19c3 1604     		.2byte	0x416
 7608 19c5 63010000 		.4byte	0x163
 7609 19c9 05       		.uleb128 0x5
 7610 19ca 03       		.byte	0x3
 7611 19cb 28400100 		.4byte	buf.12267
 7612 19cf 00       		.byte	0
 7613 19d0 0C       		.uleb128 0xc
ARM GAS  C:\Users\brian\AppData\Local\Temp\ccmYYpDh.s 			page 174


 7614 19d1 A0040000 		.4byte	.LASF109
 7615 19d5 01       		.byte	0x1
 7616 19d6 1B04     		.2byte	0x41b
 7617 19d8 88000000 		.4byte	0x88
 7618 19dc 00000000 		.4byte	.LFB95
 7619 19e0 0C000000 		.4byte	.LFE95-.LFB95
 7620 19e4 01       		.uleb128 0x1
 7621 19e5 9C       		.byte	0x9c
 7622 19e6 0D1A0000 		.4byte	0x1a0d
 7623 19ea 0D       		.uleb128 0xd
 7624 19eb F9070000 		.4byte	.LASF15
 7625 19ef 01       		.byte	0x1
 7626 19f0 1B04     		.2byte	0x41b
 7627 19f2 88000000 		.4byte	0x88
 7628 19f6 3F0C0000 		.4byte	.LLST95
 7629 19fa 0E       		.uleb128 0xe
 7630 19fb 62756600 		.ascii	"buf\000"
 7631 19ff 01       		.byte	0x1
 7632 1a00 2104     		.2byte	0x421
 7633 1a02 0D1A0000 		.4byte	0x1a0d
 7634 1a06 05       		.uleb128 0x5
 7635 1a07 03       		.byte	0x3
 7636 1a08 28420100 		.4byte	buf.12271
 7637 1a0c 00       		.byte	0
 7638 1a0d 09       		.uleb128 0x9
 7639 1a0e 76000000 		.4byte	0x76
 7640 1a12 1E1A0000 		.4byte	0x1a1e
 7641 1a16 0B       		.uleb128 0xb
 7642 1a17 D8000000 		.4byte	0xd8
 7643 1a1b FF0F     		.2byte	0xfff
 7644 1a1d 00       		.byte	0
 7645 1a1e 0C       		.uleb128 0xc
 7646 1a1f E5050000 		.4byte	.LASF110
 7647 1a23 01       		.byte	0x1
 7648 1a24 2604     		.2byte	0x426
 7649 1a26 88000000 		.4byte	0x88
 7650 1a2a 00000000 		.4byte	.LFB96
 7651 1a2e 0C000000 		.4byte	.LFE96-.LFB96
 7652 1a32 01       		.uleb128 0x1
 7653 1a33 9C       		.byte	0x9c
 7654 1a34 5B1A0000 		.4byte	0x1a5b
 7655 1a38 0D       		.uleb128 0xd
 7656 1a39 F9070000 		.4byte	.LASF15
 7657 1a3d 01       		.byte	0x1
 7658 1a3e 2604     		.2byte	0x426
 7659 1a40 88000000 		.4byte	0x88
 7660 1a44 600C0000 		.4byte	.LLST96
 7661 1a48 0E       		.uleb128 0xe
 7662 1a49 62756600 		.ascii	"buf\000"
 7663 1a4d 01       		.byte	0x1
 7664 1a4e 2C04     		.2byte	0x42c
 7665 1a50 51080000 		.4byte	0x851
 7666 1a54 05       		.uleb128 0x5
 7667 1a55 03       		.byte	0x3
 7668 1a56 28520100 		.4byte	buf.12275
 7669 1a5a 00       		.byte	0
 7670 1a5b 0C       		.uleb128 0xc
ARM GAS  C:\Users\brian\AppData\Local\Temp\ccmYYpDh.s 			page 175


 7671 1a5c F4050000 		.4byte	.LASF111
 7672 1a60 01       		.byte	0x1
 7673 1a61 3104     		.2byte	0x431
 7674 1a63 88000000 		.4byte	0x88
 7675 1a67 00000000 		.4byte	.LFB97
 7676 1a6b 0C000000 		.4byte	.LFE97-.LFB97
 7677 1a6f 01       		.uleb128 0x1
 7678 1a70 9C       		.byte	0x9c
 7679 1a71 981A0000 		.4byte	0x1a98
 7680 1a75 0D       		.uleb128 0xd
 7681 1a76 F9070000 		.4byte	.LASF15
 7682 1a7a 01       		.byte	0x1
 7683 1a7b 3104     		.2byte	0x431
 7684 1a7d 88000000 		.4byte	0x88
 7685 1a81 810C0000 		.4byte	.LLST97
 7686 1a85 0E       		.uleb128 0xe
 7687 1a86 62756600 		.ascii	"buf\000"
 7688 1a8a 01       		.byte	0x1
 7689 1a8b 3704     		.2byte	0x437
 7690 1a8d 981A0000 		.4byte	0x1a98
 7691 1a91 05       		.uleb128 0x5
 7692 1a92 03       		.byte	0x3
 7693 1a93 68530100 		.4byte	buf.12279
 7694 1a97 00       		.byte	0
 7695 1a98 09       		.uleb128 0x9
 7696 1a99 76000000 		.4byte	0x76
 7697 1a9d A91A0000 		.4byte	0x1aa9
 7698 1aa1 0B       		.uleb128 0xb
 7699 1aa2 D8000000 		.4byte	0xd8
 7700 1aa6 7F02     		.2byte	0x27f
 7701 1aa8 00       		.byte	0
 7702 1aa9 0C       		.uleb128 0xc
 7703 1aaa C7060000 		.4byte	.LASF112
 7704 1aae 01       		.byte	0x1
 7705 1aaf 3C04     		.2byte	0x43c
 7706 1ab1 88000000 		.4byte	0x88
 7707 1ab5 00000000 		.4byte	.LFB98
 7708 1ab9 0C000000 		.4byte	.LFE98-.LFB98
 7709 1abd 01       		.uleb128 0x1
 7710 1abe 9C       		.byte	0x9c
 7711 1abf E61A0000 		.4byte	0x1ae6
 7712 1ac3 0D       		.uleb128 0xd
 7713 1ac4 F9070000 		.4byte	.LASF15
 7714 1ac8 01       		.byte	0x1
 7715 1ac9 3C04     		.2byte	0x43c
 7716 1acb 88000000 		.4byte	0x88
 7717 1acf A20C0000 		.4byte	.LLST98
 7718 1ad3 0E       		.uleb128 0xe
 7719 1ad4 62756600 		.ascii	"buf\000"
 7720 1ad8 01       		.byte	0x1
 7721 1ad9 4204     		.2byte	0x442
 7722 1adb E61A0000 		.4byte	0x1ae6
 7723 1adf 05       		.uleb128 0x5
 7724 1ae0 03       		.byte	0x3
 7725 1ae1 E8550100 		.4byte	buf.12283
 7726 1ae5 00       		.byte	0
 7727 1ae6 09       		.uleb128 0x9
ARM GAS  C:\Users\brian\AppData\Local\Temp\ccmYYpDh.s 			page 176


 7728 1ae7 76000000 		.4byte	0x76
 7729 1aeb F71A0000 		.4byte	0x1af7
 7730 1aef 0B       		.uleb128 0xb
 7731 1af0 D8000000 		.4byte	0xd8
 7732 1af4 7F25     		.2byte	0x257f
 7733 1af6 00       		.byte	0
 7734 1af7 0C       		.uleb128 0xc
 7735 1af8 C9050000 		.4byte	.LASF113
 7736 1afc 01       		.byte	0x1
 7737 1afd 4704     		.2byte	0x447
 7738 1aff 88000000 		.4byte	0x88
 7739 1b03 00000000 		.4byte	.LFB99
 7740 1b07 0C000000 		.4byte	.LFE99-.LFB99
 7741 1b0b 01       		.uleb128 0x1
 7742 1b0c 9C       		.byte	0x9c
 7743 1b0d 341B0000 		.4byte	0x1b34
 7744 1b11 0D       		.uleb128 0xd
 7745 1b12 F9070000 		.4byte	.LASF15
 7746 1b16 01       		.byte	0x1
 7747 1b17 4704     		.2byte	0x447
 7748 1b19 88000000 		.4byte	0x88
 7749 1b1d C30C0000 		.4byte	.LLST99
 7750 1b21 0E       		.uleb128 0xe
 7751 1b22 62756600 		.ascii	"buf\000"
 7752 1b26 01       		.byte	0x1
 7753 1b27 4D04     		.2byte	0x44d
 7754 1b29 B1060000 		.4byte	0x6b1
 7755 1b2d 05       		.uleb128 0x5
 7756 1b2e 03       		.byte	0x3
 7757 1b2f 687B0100 		.4byte	buf.12287
 7758 1b33 00       		.byte	0
 7759 1b34 0C       		.uleb128 0xc
 7760 1b35 D7050000 		.4byte	.LASF114
 7761 1b39 01       		.byte	0x1
 7762 1b3a 5204     		.2byte	0x452
 7763 1b3c 88000000 		.4byte	0x88
 7764 1b40 00000000 		.4byte	.LFB100
 7765 1b44 0C000000 		.4byte	.LFE100-.LFB100
 7766 1b48 01       		.uleb128 0x1
 7767 1b49 9C       		.byte	0x9c
 7768 1b4a 711B0000 		.4byte	0x1b71
 7769 1b4e 0D       		.uleb128 0xd
 7770 1b4f F9070000 		.4byte	.LASF15
 7771 1b53 01       		.byte	0x1
 7772 1b54 5204     		.2byte	0x452
 7773 1b56 88000000 		.4byte	0x88
 7774 1b5a E40C0000 		.4byte	.LLST100
 7775 1b5e 0E       		.uleb128 0xe
 7776 1b5f 62756600 		.ascii	"buf\000"
 7777 1b63 01       		.byte	0x1
 7778 1b64 5804     		.2byte	0x458
 7779 1b66 51080000 		.4byte	0x851
 7780 1b6a 05       		.uleb128 0x5
 7781 1b6b 03       		.byte	0x3
 7782 1b6c 087C0100 		.4byte	buf.12291
 7783 1b70 00       		.byte	0
 7784 1b71 0C       		.uleb128 0xc
ARM GAS  C:\Users\brian\AppData\Local\Temp\ccmYYpDh.s 			page 177


 7785 1b72 91060000 		.4byte	.LASF115
 7786 1b76 01       		.byte	0x1
 7787 1b77 5D04     		.2byte	0x45d
 7788 1b79 88000000 		.4byte	0x88
 7789 1b7d 00000000 		.4byte	.LFB101
 7790 1b81 0C000000 		.4byte	.LFE101-.LFB101
 7791 1b85 01       		.uleb128 0x1
 7792 1b86 9C       		.byte	0x9c
 7793 1b87 AE1B0000 		.4byte	0x1bae
 7794 1b8b 0D       		.uleb128 0xd
 7795 1b8c F9070000 		.4byte	.LASF15
 7796 1b90 01       		.byte	0x1
 7797 1b91 5D04     		.2byte	0x45d
 7798 1b93 88000000 		.4byte	0x88
 7799 1b97 050D0000 		.4byte	.LLST101
 7800 1b9b 0E       		.uleb128 0xe
 7801 1b9c 62756600 		.ascii	"buf\000"
 7802 1ba0 01       		.byte	0x1
 7803 1ba1 6304     		.2byte	0x463
 7804 1ba3 FE060000 		.4byte	0x6fe
 7805 1ba7 05       		.uleb128 0x5
 7806 1ba8 03       		.byte	0x3
 7807 1ba9 487D0100 		.4byte	buf.12295
 7808 1bad 00       		.byte	0
 7809 1bae 0C       		.uleb128 0xc
 7810 1baf 06090000 		.4byte	.LASF116
 7811 1bb3 01       		.byte	0x1
 7812 1bb4 6804     		.2byte	0x468
 7813 1bb6 88000000 		.4byte	0x88
 7814 1bba 00000000 		.4byte	.LFB102
 7815 1bbe 0C000000 		.4byte	.LFE102-.LFB102
 7816 1bc2 01       		.uleb128 0x1
 7817 1bc3 9C       		.byte	0x9c
 7818 1bc4 EB1B0000 		.4byte	0x1beb
 7819 1bc8 0D       		.uleb128 0xd
 7820 1bc9 F9070000 		.4byte	.LASF15
 7821 1bcd 01       		.byte	0x1
 7822 1bce 6804     		.2byte	0x468
 7823 1bd0 88000000 		.4byte	0x88
 7824 1bd4 260D0000 		.4byte	.LLST102
 7825 1bd8 0E       		.uleb128 0xe
 7826 1bd9 62756600 		.ascii	"buf\000"
 7827 1bdd 01       		.byte	0x1
 7828 1bde 6E04     		.2byte	0x46e
 7829 1be0 EB1B0000 		.4byte	0x1beb
 7830 1be4 05       		.uleb128 0x5
 7831 1be5 03       		.byte	0x3
 7832 1be6 48820100 		.4byte	buf.12299
 7833 1bea 00       		.byte	0
 7834 1beb 09       		.uleb128 0x9
 7835 1bec 76000000 		.4byte	0x76
 7836 1bf0 FB1B0000 		.4byte	0x1bfb
 7837 1bf4 0A       		.uleb128 0xa
 7838 1bf5 D8000000 		.4byte	0xd8
 7839 1bf9 87       		.byte	0x87
 7840 1bfa 00       		.byte	0
 7841 1bfb 0C       		.uleb128 0xc
ARM GAS  C:\Users\brian\AppData\Local\Temp\ccmYYpDh.s 			page 178


 7842 1bfc 14090000 		.4byte	.LASF117
 7843 1c00 01       		.byte	0x1
 7844 1c01 7304     		.2byte	0x473
 7845 1c03 88000000 		.4byte	0x88
 7846 1c07 00000000 		.4byte	.LFB103
 7847 1c0b 0C000000 		.4byte	.LFE103-.LFB103
 7848 1c0f 01       		.uleb128 0x1
 7849 1c10 9C       		.byte	0x9c
 7850 1c11 381C0000 		.4byte	0x1c38
 7851 1c15 0D       		.uleb128 0xd
 7852 1c16 F9070000 		.4byte	.LASF15
 7853 1c1a 01       		.byte	0x1
 7854 1c1b 7304     		.2byte	0x473
 7855 1c1d 88000000 		.4byte	0x88
 7856 1c21 470D0000 		.4byte	.LLST103
 7857 1c25 0E       		.uleb128 0xe
 7858 1c26 62756600 		.ascii	"buf\000"
 7859 1c2a 01       		.byte	0x1
 7860 1c2b 7904     		.2byte	0x479
 7861 1c2d 381C0000 		.4byte	0x1c38
 7862 1c31 05       		.uleb128 0x5
 7863 1c32 03       		.byte	0x3
 7864 1c33 D0820100 		.4byte	buf.12303
 7865 1c37 00       		.byte	0
 7866 1c38 09       		.uleb128 0x9
 7867 1c39 76000000 		.4byte	0x76
 7868 1c3d 491C0000 		.4byte	0x1c49
 7869 1c41 0B       		.uleb128 0xb
 7870 1c42 D8000000 		.4byte	0xd8
 7871 1c46 0F01     		.2byte	0x10f
 7872 1c48 00       		.byte	0
 7873 1c49 0C       		.uleb128 0xc
 7874 1c4a A6090000 		.4byte	.LASF118
 7875 1c4e 01       		.byte	0x1
 7876 1c4f 7E04     		.2byte	0x47e
 7877 1c51 88000000 		.4byte	0x88
 7878 1c55 00000000 		.4byte	.LFB104
 7879 1c59 0C000000 		.4byte	.LFE104-.LFB104
 7880 1c5d 01       		.uleb128 0x1
 7881 1c5e 9C       		.byte	0x9c
 7882 1c5f 861C0000 		.4byte	0x1c86
 7883 1c63 0D       		.uleb128 0xd
 7884 1c64 F9070000 		.4byte	.LASF15
 7885 1c68 01       		.byte	0x1
 7886 1c69 7E04     		.2byte	0x47e
 7887 1c6b 88000000 		.4byte	0x88
 7888 1c6f 680D0000 		.4byte	.LLST104
 7889 1c73 0E       		.uleb128 0xe
 7890 1c74 62756600 		.ascii	"buf\000"
 7891 1c78 01       		.byte	0x1
 7892 1c79 8404     		.2byte	0x484
 7893 1c7b 861C0000 		.4byte	0x1c86
 7894 1c7f 05       		.uleb128 0x5
 7895 1c80 03       		.byte	0x3
 7896 1c81 E0830100 		.4byte	buf.12307
 7897 1c85 00       		.byte	0
 7898 1c86 09       		.uleb128 0x9
ARM GAS  C:\Users\brian\AppData\Local\Temp\ccmYYpDh.s 			page 179


 7899 1c87 76000000 		.4byte	0x76
 7900 1c8b 971C0000 		.4byte	0x1c97
 7901 1c8f 0B       		.uleb128 0xb
 7902 1c90 D8000000 		.4byte	0xd8
 7903 1c94 1F02     		.2byte	0x21f
 7904 1c96 00       		.byte	0
 7905 1c97 0C       		.uleb128 0xc
 7906 1c98 66000000 		.4byte	.LASF119
 7907 1c9c 01       		.byte	0x1
 7908 1c9d 8904     		.2byte	0x489
 7909 1c9f 88000000 		.4byte	0x88
 7910 1ca3 00000000 		.4byte	.LFB105
 7911 1ca7 0C000000 		.4byte	.LFE105-.LFB105
 7912 1cab 01       		.uleb128 0x1
 7913 1cac 9C       		.byte	0x9c
 7914 1cad D41C0000 		.4byte	0x1cd4
 7915 1cb1 0D       		.uleb128 0xd
 7916 1cb2 F9070000 		.4byte	.LASF15
 7917 1cb6 01       		.byte	0x1
 7918 1cb7 8904     		.2byte	0x489
 7919 1cb9 88000000 		.4byte	0x88
 7920 1cbd 890D0000 		.4byte	.LLST105
 7921 1cc1 0E       		.uleb128 0xe
 7922 1cc2 62756600 		.ascii	"buf\000"
 7923 1cc6 01       		.byte	0x1
 7924 1cc7 8F04     		.2byte	0x48f
 7925 1cc9 EB1B0000 		.4byte	0x1beb
 7926 1ccd 05       		.uleb128 0x5
 7927 1cce 03       		.byte	0x3
 7928 1ccf 00860100 		.4byte	buf.12311
 7929 1cd3 00       		.byte	0
 7930 1cd4 0C       		.uleb128 0xc
 7931 1cd5 E9040000 		.4byte	.LASF120
 7932 1cd9 01       		.byte	0x1
 7933 1cda 9404     		.2byte	0x494
 7934 1cdc 88000000 		.4byte	0x88
 7935 1ce0 00000000 		.4byte	.LFB106
 7936 1ce4 0C000000 		.4byte	.LFE106-.LFB106
 7937 1ce8 01       		.uleb128 0x1
 7938 1ce9 9C       		.byte	0x9c
 7939 1cea 111D0000 		.4byte	0x1d11
 7940 1cee 0D       		.uleb128 0xd
 7941 1cef F9070000 		.4byte	.LASF15
 7942 1cf3 01       		.byte	0x1
 7943 1cf4 9404     		.2byte	0x494
 7944 1cf6 88000000 		.4byte	0x88
 7945 1cfa AA0D0000 		.4byte	.LLST106
 7946 1cfe 0E       		.uleb128 0xe
 7947 1cff 62756600 		.ascii	"buf\000"
 7948 1d03 01       		.byte	0x1
 7949 1d04 9A04     		.2byte	0x49a
 7950 1d06 381C0000 		.4byte	0x1c38
 7951 1d0a 05       		.uleb128 0x5
 7952 1d0b 03       		.byte	0x3
 7953 1d0c 88860100 		.4byte	buf.12315
 7954 1d10 00       		.byte	0
 7955 1d11 0C       		.uleb128 0xc
ARM GAS  C:\Users\brian\AppData\Local\Temp\ccmYYpDh.s 			page 180


 7956 1d12 73010000 		.4byte	.LASF121
 7957 1d16 01       		.byte	0x1
 7958 1d17 9F04     		.2byte	0x49f
 7959 1d19 88000000 		.4byte	0x88
 7960 1d1d 00000000 		.4byte	.LFB107
 7961 1d21 0C000000 		.4byte	.LFE107-.LFB107
 7962 1d25 01       		.uleb128 0x1
 7963 1d26 9C       		.byte	0x9c
 7964 1d27 4E1D0000 		.4byte	0x1d4e
 7965 1d2b 0D       		.uleb128 0xd
 7966 1d2c F9070000 		.4byte	.LASF15
 7967 1d30 01       		.byte	0x1
 7968 1d31 9F04     		.2byte	0x49f
 7969 1d33 88000000 		.4byte	0x88
 7970 1d37 CB0D0000 		.4byte	.LLST107
 7971 1d3b 0E       		.uleb128 0xe
 7972 1d3c 62756600 		.ascii	"buf\000"
 7973 1d40 01       		.byte	0x1
 7974 1d41 A504     		.2byte	0x4a5
 7975 1d43 4E1D0000 		.4byte	0x1d4e
 7976 1d47 05       		.uleb128 0x5
 7977 1d48 03       		.byte	0x3
 7978 1d49 98870100 		.4byte	buf.12319
 7979 1d4d 00       		.byte	0
 7980 1d4e 09       		.uleb128 0x9
 7981 1d4f 76000000 		.4byte	0x76
 7982 1d53 5F1D0000 		.4byte	0x1d5f
 7983 1d57 0B       		.uleb128 0xb
 7984 1d58 D8000000 		.4byte	0xd8
 7985 1d5c 3F04     		.2byte	0x43f
 7986 1d5e 00       		.byte	0
 7987 1d5f 0C       		.uleb128 0xc
 7988 1d60 DE090000 		.4byte	.LASF122
 7989 1d64 01       		.byte	0x1
 7990 1d65 AA04     		.2byte	0x4aa
 7991 1d67 88000000 		.4byte	0x88
 7992 1d6b 00000000 		.4byte	.LFB108
 7993 1d6f 0C000000 		.4byte	.LFE108-.LFB108
 7994 1d73 01       		.uleb128 0x1
 7995 1d74 9C       		.byte	0x9c
 7996 1d75 9C1D0000 		.4byte	0x1d9c
 7997 1d79 0D       		.uleb128 0xd
 7998 1d7a F9070000 		.4byte	.LASF15
 7999 1d7e 01       		.byte	0x1
 8000 1d7f AA04     		.2byte	0x4aa
 8001 1d81 88000000 		.4byte	0x88
 8002 1d85 EC0D0000 		.4byte	.LLST108
 8003 1d89 0E       		.uleb128 0xe
 8004 1d8a 62756600 		.ascii	"buf\000"
 8005 1d8e 01       		.byte	0x1
 8006 1d8f B004     		.2byte	0x4b0
 8007 1d91 060B0000 		.4byte	0xb06
 8008 1d95 05       		.uleb128 0x5
 8009 1d96 03       		.byte	0x3
 8010 1d97 D88B0100 		.4byte	buf.12323
 8011 1d9b 00       		.byte	0
 8012 1d9c 0C       		.uleb128 0xc
ARM GAS  C:\Users\brian\AppData\Local\Temp\ccmYYpDh.s 			page 181


 8013 1d9d ED090000 		.4byte	.LASF123
 8014 1da1 01       		.byte	0x1
 8015 1da2 B504     		.2byte	0x4b5
 8016 1da4 88000000 		.4byte	0x88
 8017 1da8 00000000 		.4byte	.LFB109
 8018 1dac 0C000000 		.4byte	.LFE109-.LFB109
 8019 1db0 01       		.uleb128 0x1
 8020 1db1 9C       		.byte	0x9c
 8021 1db2 D91D0000 		.4byte	0x1dd9
 8022 1db6 0D       		.uleb128 0xd
 8023 1db7 F9070000 		.4byte	.LASF15
 8024 1dbb 01       		.byte	0x1
 8025 1dbc B504     		.2byte	0x4b5
 8026 1dbe 88000000 		.4byte	0x88
 8027 1dc2 0D0E0000 		.4byte	.LLST109
 8028 1dc6 0E       		.uleb128 0xe
 8029 1dc7 62756600 		.ascii	"buf\000"
 8030 1dcb 01       		.byte	0x1
 8031 1dcc BB04     		.2byte	0x4bb
 8032 1dce CB0E0000 		.4byte	0xecb
 8033 1dd2 05       		.uleb128 0x5
 8034 1dd3 03       		.byte	0x3
 8035 1dd4 588D0100 		.4byte	buf.12327
 8036 1dd8 00       		.byte	0
 8037 1dd9 0C       		.uleb128 0xc
 8038 1dda 1D000000 		.4byte	.LASF124
 8039 1dde 01       		.byte	0x1
 8040 1ddf C004     		.2byte	0x4c0
 8041 1de1 88000000 		.4byte	0x88
 8042 1de5 00000000 		.4byte	.LFB110
 8043 1de9 0C000000 		.4byte	.LFE110-.LFB110
 8044 1ded 01       		.uleb128 0x1
 8045 1dee 9C       		.byte	0x9c
 8046 1def 161E0000 		.4byte	0x1e16
 8047 1df3 0D       		.uleb128 0xd
 8048 1df4 F9070000 		.4byte	.LASF15
 8049 1df8 01       		.byte	0x1
 8050 1df9 C004     		.2byte	0x4c0
 8051 1dfb 88000000 		.4byte	0x88
 8052 1dff 2E0E0000 		.4byte	.LLST110
 8053 1e03 0E       		.uleb128 0xe
 8054 1e04 62756600 		.ascii	"buf\000"
 8055 1e08 01       		.byte	0x1
 8056 1e09 C604     		.2byte	0x4c6
 8057 1e0b 161E0000 		.4byte	0x1e16
 8058 1e0f 05       		.uleb128 0x5
 8059 1e10 03       		.byte	0x3
 8060 1e11 58900100 		.4byte	buf.12331
 8061 1e15 00       		.byte	0
 8062 1e16 09       		.uleb128 0x9
 8063 1e17 76000000 		.4byte	0x76
 8064 1e1b 271E0000 		.4byte	0x1e27
 8065 1e1f 0B       		.uleb128 0xb
 8066 1e20 D8000000 		.4byte	0xd8
 8067 1e24 7F19     		.2byte	0x197f
 8068 1e26 00       		.byte	0
 8069 1e27 0C       		.uleb128 0xc
ARM GAS  C:\Users\brian\AppData\Local\Temp\ccmYYpDh.s 			page 182


 8070 1e28 73060000 		.4byte	.LASF125
 8071 1e2c 01       		.byte	0x1
 8072 1e2d CB04     		.2byte	0x4cb
 8073 1e2f 88000000 		.4byte	0x88
 8074 1e33 00000000 		.4byte	.LFB111
 8075 1e37 0C000000 		.4byte	.LFE111-.LFB111
 8076 1e3b 01       		.uleb128 0x1
 8077 1e3c 9C       		.byte	0x9c
 8078 1e3d 641E0000 		.4byte	0x1e64
 8079 1e41 0D       		.uleb128 0xd
 8080 1e42 F9070000 		.4byte	.LASF15
 8081 1e46 01       		.byte	0x1
 8082 1e47 CB04     		.2byte	0x4cb
 8083 1e49 88000000 		.4byte	0x88
 8084 1e4d 4F0E0000 		.4byte	.LLST111
 8085 1e51 0E       		.uleb128 0xe
 8086 1e52 62756600 		.ascii	"buf\000"
 8087 1e56 01       		.byte	0x1
 8088 1e57 D104     		.2byte	0x4d1
 8089 1e59 19010000 		.4byte	0x119
 8090 1e5d 05       		.uleb128 0x5
 8091 1e5e 03       		.byte	0x3
 8092 1e5f D8A90100 		.4byte	buf.12335
 8093 1e63 00       		.byte	0
 8094 1e64 0C       		.uleb128 0xc
 8095 1e65 82060000 		.4byte	.LASF126
 8096 1e69 01       		.byte	0x1
 8097 1e6a D604     		.2byte	0x4d6
 8098 1e6c 88000000 		.4byte	0x88
 8099 1e70 00000000 		.4byte	.LFB112
 8100 1e74 0C000000 		.4byte	.LFE112-.LFB112
 8101 1e78 01       		.uleb128 0x1
 8102 1e79 9C       		.byte	0x9c
 8103 1e7a A11E0000 		.4byte	0x1ea1
 8104 1e7e 0D       		.uleb128 0xd
 8105 1e7f F9070000 		.4byte	.LASF15
 8106 1e83 01       		.byte	0x1
 8107 1e84 D604     		.2byte	0x4d6
 8108 1e86 88000000 		.4byte	0x88
 8109 1e8a 700E0000 		.4byte	.LLST112
 8110 1e8e 0E       		.uleb128 0xe
 8111 1e8f 62756600 		.ascii	"buf\000"
 8112 1e93 01       		.byte	0x1
 8113 1e94 DC04     		.2byte	0x4dc
 8114 1e96 63010000 		.4byte	0x163
 8115 1e9a 05       		.uleb128 0x5
 8116 1e9b 03       		.byte	0x3
 8117 1e9c D8AA0100 		.4byte	buf.12339
 8118 1ea0 00       		.byte	0
 8119 1ea1 0C       		.uleb128 0xc
 8120 1ea2 1E070000 		.4byte	.LASF127
 8121 1ea6 01       		.byte	0x1
 8122 1ea7 E104     		.2byte	0x4e1
 8123 1ea9 88000000 		.4byte	0x88
 8124 1ead 00000000 		.4byte	.LFB113
 8125 1eb1 0C000000 		.4byte	.LFE113-.LFB113
 8126 1eb5 01       		.uleb128 0x1
ARM GAS  C:\Users\brian\AppData\Local\Temp\ccmYYpDh.s 			page 183


 8127 1eb6 9C       		.byte	0x9c
 8128 1eb7 DE1E0000 		.4byte	0x1ede
 8129 1ebb 0D       		.uleb128 0xd
 8130 1ebc F9070000 		.4byte	.LASF15
 8131 1ec0 01       		.byte	0x1
 8132 1ec1 E104     		.2byte	0x4e1
 8133 1ec3 88000000 		.4byte	0x88
 8134 1ec7 910E0000 		.4byte	.LLST113
 8135 1ecb 0E       		.uleb128 0xe
 8136 1ecc 62756600 		.ascii	"buf\000"
 8137 1ed0 01       		.byte	0x1
 8138 1ed1 E704     		.2byte	0x4e7
 8139 1ed3 DE1E0000 		.4byte	0x1ede
 8140 1ed7 05       		.uleb128 0x5
 8141 1ed8 03       		.byte	0x3
 8142 1ed9 D8AC0100 		.4byte	buf.12343
 8143 1edd 00       		.byte	0
 8144 1ede 09       		.uleb128 0x9
 8145 1edf 76000000 		.4byte	0x76
 8146 1ee3 EF1E0000 		.4byte	0x1eef
 8147 1ee7 0B       		.uleb128 0xb
 8148 1ee8 D8000000 		.4byte	0xd8
 8149 1eec FF13     		.2byte	0x13ff
 8150 1eee 00       		.byte	0
 8151 1eef 0C       		.uleb128 0xc
 8152 1ef0 00070000 		.4byte	.LASF128
 8153 1ef4 01       		.byte	0x1
 8154 1ef5 EC04     		.2byte	0x4ec
 8155 1ef7 88000000 		.4byte	0x88
 8156 1efb 00000000 		.4byte	.LFB114
 8157 1eff 0C000000 		.4byte	.LFE114-.LFB114
 8158 1f03 01       		.uleb128 0x1
 8159 1f04 9C       		.byte	0x9c
 8160 1f05 2C1F0000 		.4byte	0x1f2c
 8161 1f09 0D       		.uleb128 0xd
 8162 1f0a F9070000 		.4byte	.LASF15
 8163 1f0e 01       		.byte	0x1
 8164 1f0f EC04     		.2byte	0x4ec
 8165 1f11 88000000 		.4byte	0x88
 8166 1f15 B20E0000 		.4byte	.LLST114
 8167 1f19 0E       		.uleb128 0xe
 8168 1f1a 62756600 		.ascii	"buf\000"
 8169 1f1e 01       		.byte	0x1
 8170 1f1f F204     		.2byte	0x4f2
 8171 1f21 E0110000 		.4byte	0x11e0
 8172 1f25 05       		.uleb128 0x5
 8173 1f26 03       		.byte	0x3
 8174 1f27 D8C00100 		.4byte	buf.12347
 8175 1f2b 00       		.byte	0
 8176 1f2c 0C       		.uleb128 0xc
 8177 1f2d 0F070000 		.4byte	.LASF129
 8178 1f31 01       		.byte	0x1
 8179 1f32 F704     		.2byte	0x4f7
 8180 1f34 88000000 		.4byte	0x88
 8181 1f38 00000000 		.4byte	.LFB115
 8182 1f3c 0C000000 		.4byte	.LFE115-.LFB115
 8183 1f40 01       		.uleb128 0x1
ARM GAS  C:\Users\brian\AppData\Local\Temp\ccmYYpDh.s 			page 184


 8184 1f41 9C       		.byte	0x9c
 8185 1f42 691F0000 		.4byte	0x1f69
 8186 1f46 0D       		.uleb128 0xd
 8187 1f47 F9070000 		.4byte	.LASF15
 8188 1f4b 01       		.byte	0x1
 8189 1f4c F704     		.2byte	0x4f7
 8190 1f4e 88000000 		.4byte	0x88
 8191 1f52 D30E0000 		.4byte	.LLST115
 8192 1f56 0E       		.uleb128 0xe
 8193 1f57 62756600 		.ascii	"buf\000"
 8194 1f5b 01       		.byte	0x1
 8195 1f5c FD04     		.2byte	0x4fd
 8196 1f5e 691F0000 		.4byte	0x1f69
 8197 1f62 05       		.uleb128 0x5
 8198 1f63 03       		.byte	0x3
 8199 1f64 88C10100 		.4byte	buf.12351
 8200 1f68 00       		.byte	0
 8201 1f69 09       		.uleb128 0x9
 8202 1f6a 76000000 		.4byte	0x76
 8203 1f6e 7A1F0000 		.4byte	0x1f7a
 8204 1f72 0B       		.uleb128 0xb
 8205 1f73 D8000000 		.4byte	0xd8
 8206 1f77 5F01     		.2byte	0x15f
 8207 1f79 00       		.byte	0
 8208 1f7a 0C       		.uleb128 0xc
 8209 1f7b 6D070000 		.4byte	.LASF130
 8210 1f7f 01       		.byte	0x1
 8211 1f80 0205     		.2byte	0x502
 8212 1f82 88000000 		.4byte	0x88
 8213 1f86 00000000 		.4byte	.LFB116
 8214 1f8a 0C000000 		.4byte	.LFE116-.LFB116
 8215 1f8e 01       		.uleb128 0x1
 8216 1f8f 9C       		.byte	0x9c
 8217 1f90 B71F0000 		.4byte	0x1fb7
 8218 1f94 0D       		.uleb128 0xd
 8219 1f95 F9070000 		.4byte	.LASF15
 8220 1f99 01       		.byte	0x1
 8221 1f9a 0205     		.2byte	0x502
 8222 1f9c 88000000 		.4byte	0x88
 8223 1fa0 F40E0000 		.4byte	.LLST116
 8224 1fa4 0E       		.uleb128 0xe
 8225 1fa5 62756600 		.ascii	"buf\000"
 8226 1fa9 01       		.byte	0x1
 8227 1faa 0805     		.2byte	0x508
 8228 1fac B71F0000 		.4byte	0x1fb7
 8229 1fb0 05       		.uleb128 0x5
 8230 1fb1 03       		.byte	0x3
 8231 1fb2 E8C20100 		.4byte	buf.12355
 8232 1fb6 00       		.byte	0
 8233 1fb7 09       		.uleb128 0x9
 8234 1fb8 76000000 		.4byte	0x76
 8235 1fbc C81F0000 		.4byte	0x1fc8
 8236 1fc0 0B       		.uleb128 0xb
 8237 1fc1 D8000000 		.4byte	0xd8
 8238 1fc5 EF08     		.2byte	0x8ef
 8239 1fc7 00       		.byte	0
 8240 1fc8 0C       		.uleb128 0xc
ARM GAS  C:\Users\brian\AppData\Local\Temp\ccmYYpDh.s 			page 185


 8241 1fc9 BD010000 		.4byte	.LASF131
 8242 1fcd 01       		.byte	0x1
 8243 1fce 0D05     		.2byte	0x50d
 8244 1fd0 88000000 		.4byte	0x88
 8245 1fd4 00000000 		.4byte	.LFB117
 8246 1fd8 0C000000 		.4byte	.LFE117-.LFB117
 8247 1fdc 01       		.uleb128 0x1
 8248 1fdd 9C       		.byte	0x9c
 8249 1fde 05200000 		.4byte	0x2005
 8250 1fe2 0D       		.uleb128 0xd
 8251 1fe3 F9070000 		.4byte	.LASF15
 8252 1fe7 01       		.byte	0x1
 8253 1fe8 0D05     		.2byte	0x50d
 8254 1fea 88000000 		.4byte	0x88
 8255 1fee 150F0000 		.4byte	.LLST117
 8256 1ff2 0E       		.uleb128 0xe
 8257 1ff3 62756600 		.ascii	"buf\000"
 8258 1ff7 01       		.byte	0x1
 8259 1ff8 1305     		.2byte	0x513
 8260 1ffa 05200000 		.4byte	0x2005
 8261 1ffe 05       		.uleb128 0x5
 8262 1fff 03       		.byte	0x3
 8263 2000 D8CB0100 		.4byte	buf.12359
 8264 2004 00       		.byte	0
 8265 2005 09       		.uleb128 0x9
 8266 2006 76000000 		.4byte	0x76
 8267 200a 15200000 		.4byte	0x2015
 8268 200e 0A       		.uleb128 0xa
 8269 200f D8000000 		.4byte	0xd8
 8270 2013 97       		.byte	0x97
 8271 2014 00       		.byte	0
 8272 2015 0C       		.uleb128 0xc
 8273 2016 CB010000 		.4byte	.LASF132
 8274 201a 01       		.byte	0x1
 8275 201b 1805     		.2byte	0x518
 8276 201d 88000000 		.4byte	0x88
 8277 2021 00000000 		.4byte	.LFB118
 8278 2025 0C000000 		.4byte	.LFE118-.LFB118
 8279 2029 01       		.uleb128 0x1
 8280 202a 9C       		.byte	0x9c
 8281 202b 52200000 		.4byte	0x2052
 8282 202f 0D       		.uleb128 0xd
 8283 2030 F9070000 		.4byte	.LASF15
 8284 2034 01       		.byte	0x1
 8285 2035 1805     		.2byte	0x518
 8286 2037 88000000 		.4byte	0x88
 8287 203b 360F0000 		.4byte	.LLST118
 8288 203f 0E       		.uleb128 0xe
 8289 2040 62756600 		.ascii	"buf\000"
 8290 2044 01       		.byte	0x1
 8291 2045 1E05     		.2byte	0x51e
 8292 2047 52200000 		.4byte	0x2052
 8293 204b 05       		.uleb128 0x5
 8294 204c 03       		.byte	0x3
 8295 204d 70CC0100 		.4byte	buf.12363
 8296 2051 00       		.byte	0
 8297 2052 09       		.uleb128 0x9
ARM GAS  C:\Users\brian\AppData\Local\Temp\ccmYYpDh.s 			page 186


 8298 2053 76000000 		.4byte	0x76
 8299 2057 63200000 		.4byte	0x2063
 8300 205b 0B       		.uleb128 0xb
 8301 205c D8000000 		.4byte	0xd8
 8302 2060 2F01     		.2byte	0x12f
 8303 2062 00       		.byte	0
 8304 2063 0C       		.uleb128 0xc
 8305 2064 70020000 		.4byte	.LASF133
 8306 2068 01       		.byte	0x1
 8307 2069 2305     		.2byte	0x523
 8308 206b 88000000 		.4byte	0x88
 8309 206f 00000000 		.4byte	.LFB119
 8310 2073 0C000000 		.4byte	.LFE119-.LFB119
 8311 2077 01       		.uleb128 0x1
 8312 2078 9C       		.byte	0x9c
 8313 2079 A0200000 		.4byte	0x20a0
 8314 207d 0D       		.uleb128 0xd
 8315 207e F9070000 		.4byte	.LASF15
 8316 2082 01       		.byte	0x1
 8317 2083 2305     		.2byte	0x523
 8318 2085 88000000 		.4byte	0x88
 8319 2089 570F0000 		.4byte	.LLST119
 8320 208d 0E       		.uleb128 0xe
 8321 208e 62756600 		.ascii	"buf\000"
 8322 2092 01       		.byte	0x1
 8323 2093 2905     		.2byte	0x529
 8324 2095 A0200000 		.4byte	0x20a0
 8325 2099 05       		.uleb128 0x5
 8326 209a 03       		.byte	0x3
 8327 209b A0CD0100 		.4byte	buf.12367
 8328 209f 00       		.byte	0
 8329 20a0 09       		.uleb128 0x9
 8330 20a1 76000000 		.4byte	0x76
 8331 20a5 B1200000 		.4byte	0x20b1
 8332 20a9 0B       		.uleb128 0xb
 8333 20aa D8000000 		.4byte	0xd8
 8334 20ae 5F02     		.2byte	0x25f
 8335 20b0 00       		.byte	0
 8336 20b1 0C       		.uleb128 0xc
 8337 20b2 81010000 		.4byte	.LASF134
 8338 20b6 01       		.byte	0x1
 8339 20b7 2E05     		.2byte	0x52e
 8340 20b9 88000000 		.4byte	0x88
 8341 20bd 00000000 		.4byte	.LFB120
 8342 20c1 0C000000 		.4byte	.LFE120-.LFB120
 8343 20c5 01       		.uleb128 0x1
 8344 20c6 9C       		.byte	0x9c
 8345 20c7 EE200000 		.4byte	0x20ee
 8346 20cb 0D       		.uleb128 0xd
 8347 20cc F9070000 		.4byte	.LASF15
 8348 20d0 01       		.byte	0x1
 8349 20d1 2E05     		.2byte	0x52e
 8350 20d3 88000000 		.4byte	0x88
 8351 20d7 780F0000 		.4byte	.LLST120
 8352 20db 0E       		.uleb128 0xe
 8353 20dc 62756600 		.ascii	"buf\000"
 8354 20e0 01       		.byte	0x1
ARM GAS  C:\Users\brian\AppData\Local\Temp\ccmYYpDh.s 			page 187


 8355 20e1 3405     		.2byte	0x534
 8356 20e3 B1060000 		.4byte	0x6b1
 8357 20e7 05       		.uleb128 0x5
 8358 20e8 03       		.byte	0x3
 8359 20e9 00D00100 		.4byte	buf.12371
 8360 20ed 00       		.byte	0
 8361 20ee 0C       		.uleb128 0xc
 8362 20ef 90010000 		.4byte	.LASF135
 8363 20f3 01       		.byte	0x1
 8364 20f4 3905     		.2byte	0x539
 8365 20f6 88000000 		.4byte	0x88
 8366 20fa 00000000 		.4byte	.LFB121
 8367 20fe 0C000000 		.4byte	.LFE121-.LFB121
 8368 2102 01       		.uleb128 0x1
 8369 2103 9C       		.byte	0x9c
 8370 2104 2B210000 		.4byte	0x212b
 8371 2108 0D       		.uleb128 0xd
 8372 2109 F9070000 		.4byte	.LASF15
 8373 210d 01       		.byte	0x1
 8374 210e 3905     		.2byte	0x539
 8375 2110 88000000 		.4byte	0x88
 8376 2114 990F0000 		.4byte	.LLST121
 8377 2118 0E       		.uleb128 0xe
 8378 2119 62756600 		.ascii	"buf\000"
 8379 211d 01       		.byte	0x1
 8380 211e 3F05     		.2byte	0x53f
 8381 2120 51080000 		.4byte	0x851
 8382 2124 05       		.uleb128 0x5
 8383 2125 03       		.byte	0x3
 8384 2126 A0D00100 		.4byte	buf.12375
 8385 212a 00       		.byte	0
 8386 212b 0C       		.uleb128 0xc
 8387 212c B6020000 		.4byte	.LASF136
 8388 2130 01       		.byte	0x1
 8389 2131 4405     		.2byte	0x544
 8390 2133 88000000 		.4byte	0x88
 8391 2137 00000000 		.4byte	.LFB122
 8392 213b 0C000000 		.4byte	.LFE122-.LFB122
 8393 213f 01       		.uleb128 0x1
 8394 2140 9C       		.byte	0x9c
 8395 2141 68210000 		.4byte	0x2168
 8396 2145 0D       		.uleb128 0xd
 8397 2146 F9070000 		.4byte	.LASF15
 8398 214a 01       		.byte	0x1
 8399 214b 4405     		.2byte	0x544
 8400 214d 88000000 		.4byte	0x88
 8401 2151 BA0F0000 		.4byte	.LLST122
 8402 2155 0E       		.uleb128 0xe
 8403 2156 62756600 		.ascii	"buf\000"
 8404 215a 01       		.byte	0x1
 8405 215b 4A05     		.2byte	0x54a
 8406 215d 68210000 		.4byte	0x2168
 8407 2161 05       		.uleb128 0x5
 8408 2162 03       		.byte	0x3
 8409 2163 E0D10100 		.4byte	buf.12379
 8410 2167 00       		.byte	0
 8411 2168 09       		.uleb128 0x9
ARM GAS  C:\Users\brian\AppData\Local\Temp\ccmYYpDh.s 			page 188


 8412 2169 76000000 		.4byte	0x76
 8413 216d 79210000 		.4byte	0x2179
 8414 2171 0B       		.uleb128 0xb
 8415 2172 D8000000 		.4byte	0xd8
 8416 2176 3F06     		.2byte	0x63f
 8417 2178 00       		.byte	0
 8418 2179 0C       		.uleb128 0xc
 8419 217a C2090000 		.4byte	.LASF137
 8420 217e 01       		.byte	0x1
 8421 217f 4F05     		.2byte	0x54f
 8422 2181 88000000 		.4byte	0x88
 8423 2185 00000000 		.4byte	.LFB123
 8424 2189 0C000000 		.4byte	.LFE123-.LFB123
 8425 218d 01       		.uleb128 0x1
 8426 218e 9C       		.byte	0x9c
 8427 218f B6210000 		.4byte	0x21b6
 8428 2193 0D       		.uleb128 0xd
 8429 2194 F9070000 		.4byte	.LASF15
 8430 2198 01       		.byte	0x1
 8431 2199 4F05     		.2byte	0x54f
 8432 219b 88000000 		.4byte	0x88
 8433 219f DB0F0000 		.4byte	.LLST123
 8434 21a3 0E       		.uleb128 0xe
 8435 21a4 62756600 		.ascii	"buf\000"
 8436 21a8 01       		.byte	0x1
 8437 21a9 5505     		.2byte	0x555
 8438 21ab B1060000 		.4byte	0x6b1
 8439 21af 05       		.uleb128 0x5
 8440 21b0 03       		.byte	0x3
 8441 21b1 20D80100 		.4byte	buf.12383
 8442 21b5 00       		.byte	0
 8443 21b6 0C       		.uleb128 0xc
 8444 21b7 D0090000 		.4byte	.LASF138
 8445 21bb 01       		.byte	0x1
 8446 21bc 5A05     		.2byte	0x55a
 8447 21be 88000000 		.4byte	0x88
 8448 21c2 00000000 		.4byte	.LFB124
 8449 21c6 0C000000 		.4byte	.LFE124-.LFB124
 8450 21ca 01       		.uleb128 0x1
 8451 21cb 9C       		.byte	0x9c
 8452 21cc F3210000 		.4byte	0x21f3
 8453 21d0 0D       		.uleb128 0xd
 8454 21d1 F9070000 		.4byte	.LASF15
 8455 21d5 01       		.byte	0x1
 8456 21d6 5A05     		.2byte	0x55a
 8457 21d8 88000000 		.4byte	0x88
 8458 21dc FC0F0000 		.4byte	.LLST124
 8459 21e0 0E       		.uleb128 0xe
 8460 21e1 62756600 		.ascii	"buf\000"
 8461 21e5 01       		.byte	0x1
 8462 21e6 6005     		.2byte	0x560
 8463 21e8 51080000 		.4byte	0x851
 8464 21ec 05       		.uleb128 0x5
 8465 21ed 03       		.byte	0x3
 8466 21ee C0D80100 		.4byte	buf.12387
 8467 21f2 00       		.byte	0
 8468 21f3 0C       		.uleb128 0xc
ARM GAS  C:\Users\brian\AppData\Local\Temp\ccmYYpDh.s 			page 189


 8469 21f4 0F000000 		.4byte	.LASF139
 8470 21f8 01       		.byte	0x1
 8471 21f9 6505     		.2byte	0x565
 8472 21fb 88000000 		.4byte	0x88
 8473 21ff 00000000 		.4byte	.LFB125
 8474 2203 0C000000 		.4byte	.LFE125-.LFB125
 8475 2207 01       		.uleb128 0x1
 8476 2208 9C       		.byte	0x9c
 8477 2209 30220000 		.4byte	0x2230
 8478 220d 0D       		.uleb128 0xd
 8479 220e F9070000 		.4byte	.LASF15
 8480 2212 01       		.byte	0x1
 8481 2213 6505     		.2byte	0x565
 8482 2215 88000000 		.4byte	0x88
 8483 2219 1D100000 		.4byte	.LLST125
 8484 221d 0E       		.uleb128 0xe
 8485 221e 62756600 		.ascii	"buf\000"
 8486 2222 01       		.byte	0x1
 8487 2223 6B05     		.2byte	0x56b
 8488 2225 981A0000 		.4byte	0x1a98
 8489 2229 05       		.uleb128 0x5
 8490 222a 03       		.byte	0x3
 8491 222b 00DA0100 		.4byte	buf.12391
 8492 222f 00       		.byte	0
 8493 2230 0C       		.uleb128 0xc
 8494 2231 48000000 		.4byte	.LASF140
 8495 2235 01       		.byte	0x1
 8496 2236 7005     		.2byte	0x570
 8497 2238 88000000 		.4byte	0x88
 8498 223c 00000000 		.4byte	.LFB126
 8499 2240 0C000000 		.4byte	.LFE126-.LFB126
 8500 2244 01       		.uleb128 0x1
 8501 2245 9C       		.byte	0x9c
 8502 2246 6D220000 		.4byte	0x226d
 8503 224a 0D       		.uleb128 0xd
 8504 224b F9070000 		.4byte	.LASF15
 8505 224f 01       		.byte	0x1
 8506 2250 7005     		.2byte	0x570
 8507 2252 88000000 		.4byte	0x88
 8508 2256 3E100000 		.4byte	.LLST126
 8509 225a 0E       		.uleb128 0xe
 8510 225b 62756600 		.ascii	"buf\000"
 8511 225f 01       		.byte	0x1
 8512 2260 7605     		.2byte	0x576
 8513 2262 B1060000 		.4byte	0x6b1
 8514 2266 05       		.uleb128 0x5
 8515 2267 03       		.byte	0x3
 8516 2268 80DC0100 		.4byte	buf.12395
 8517 226c 00       		.byte	0
 8518 226d 0C       		.uleb128 0xc
 8519 226e 57000000 		.4byte	.LASF141
 8520 2272 01       		.byte	0x1
 8521 2273 7B05     		.2byte	0x57b
 8522 2275 88000000 		.4byte	0x88
 8523 2279 00000000 		.4byte	.LFB127
 8524 227d 0C000000 		.4byte	.LFE127-.LFB127
 8525 2281 01       		.uleb128 0x1
ARM GAS  C:\Users\brian\AppData\Local\Temp\ccmYYpDh.s 			page 190


 8526 2282 9C       		.byte	0x9c
 8527 2283 AA220000 		.4byte	0x22aa
 8528 2287 0D       		.uleb128 0xd
 8529 2288 F9070000 		.4byte	.LASF15
 8530 228c 01       		.byte	0x1
 8531 228d 7B05     		.2byte	0x57b
 8532 228f 88000000 		.4byte	0x88
 8533 2293 5F100000 		.4byte	.LLST127
 8534 2297 0E       		.uleb128 0xe
 8535 2298 62756600 		.ascii	"buf\000"
 8536 229c 01       		.byte	0x1
 8537 229d 8105     		.2byte	0x581
 8538 229f 51080000 		.4byte	0x851
 8539 22a3 05       		.uleb128 0x5
 8540 22a4 03       		.byte	0x3
 8541 22a5 20DD0100 		.4byte	buf.12399
 8542 22a9 00       		.byte	0
 8543 22aa 0C       		.uleb128 0xc
 8544 22ab C6000000 		.4byte	.LASF142
 8545 22af 01       		.byte	0x1
 8546 22b0 8605     		.2byte	0x586
 8547 22b2 88000000 		.4byte	0x88
 8548 22b6 00000000 		.4byte	.LFB128
 8549 22ba 0C000000 		.4byte	.LFE128-.LFB128
 8550 22be 01       		.uleb128 0x1
 8551 22bf 9C       		.byte	0x9c
 8552 22c0 E7220000 		.4byte	0x22e7
 8553 22c4 0D       		.uleb128 0xd
 8554 22c5 F9070000 		.4byte	.LASF15
 8555 22c9 01       		.byte	0x1
 8556 22ca 8605     		.2byte	0x586
 8557 22cc 88000000 		.4byte	0x88
 8558 22d0 80100000 		.4byte	.LLST128
 8559 22d4 0E       		.uleb128 0xe
 8560 22d5 62756600 		.ascii	"buf\000"
 8561 22d9 01       		.byte	0x1
 8562 22da 8C05     		.2byte	0x58c
 8563 22dc E7220000 		.4byte	0x22e7
 8564 22e0 05       		.uleb128 0x5
 8565 22e1 03       		.byte	0x3
 8566 22e2 60DE0100 		.4byte	buf.12403
 8567 22e6 00       		.byte	0
 8568 22e7 09       		.uleb128 0x9
 8569 22e8 76000000 		.4byte	0x76
 8570 22ec F8220000 		.4byte	0x22f8
 8571 22f0 0B       		.uleb128 0xb
 8572 22f1 D8000000 		.4byte	0xd8
 8573 22f5 9F0A     		.2byte	0xa9f
 8574 22f7 00       		.byte	0
 8575 22f8 0C       		.uleb128 0xc
 8576 22f9 8C020000 		.4byte	.LASF143
 8577 22fd 01       		.byte	0x1
 8578 22fe 9105     		.2byte	0x591
 8579 2300 88000000 		.4byte	0x88
 8580 2304 00000000 		.4byte	.LFB129
 8581 2308 0C000000 		.4byte	.LFE129-.LFB129
 8582 230c 01       		.uleb128 0x1
ARM GAS  C:\Users\brian\AppData\Local\Temp\ccmYYpDh.s 			page 191


 8583 230d 9C       		.byte	0x9c
 8584 230e 35230000 		.4byte	0x2335
 8585 2312 0D       		.uleb128 0xd
 8586 2313 F9070000 		.4byte	.LASF15
 8587 2317 01       		.byte	0x1
 8588 2318 9105     		.2byte	0x591
 8589 231a 88000000 		.4byte	0x88
 8590 231e A1100000 		.4byte	.LLST129
 8591 2322 0E       		.uleb128 0xe
 8592 2323 62756600 		.ascii	"buf\000"
 8593 2327 01       		.byte	0x1
 8594 2328 9705     		.2byte	0x597
 8595 232a E0110000 		.4byte	0x11e0
 8596 232e 05       		.uleb128 0x5
 8597 232f 03       		.byte	0x3
 8598 2330 00E90100 		.4byte	buf.12407
 8599 2334 00       		.byte	0
 8600 2335 0C       		.uleb128 0xc
 8601 2336 9A020000 		.4byte	.LASF144
 8602 233a 01       		.byte	0x1
 8603 233b 9C05     		.2byte	0x59c
 8604 233d 88000000 		.4byte	0x88
 8605 2341 00000000 		.4byte	.LFB130
 8606 2345 0C000000 		.4byte	.LFE130-.LFB130
 8607 2349 01       		.uleb128 0x1
 8608 234a 9C       		.byte	0x9c
 8609 234b 72230000 		.4byte	0x2372
 8610 234f 0D       		.uleb128 0xd
 8611 2350 F9070000 		.4byte	.LASF15
 8612 2354 01       		.byte	0x1
 8613 2355 9C05     		.2byte	0x59c
 8614 2357 88000000 		.4byte	0x88
 8615 235b C2100000 		.4byte	.LLST130
 8616 235f 0E       		.uleb128 0xe
 8617 2360 62756600 		.ascii	"buf\000"
 8618 2364 01       		.byte	0x1
 8619 2365 A205     		.2byte	0x5a2
 8620 2367 691F0000 		.4byte	0x1f69
 8621 236b 05       		.uleb128 0x5
 8622 236c 03       		.byte	0x3
 8623 236d B0E90100 		.4byte	buf.12411
 8624 2371 00       		.byte	0
 8625 2372 0C       		.uleb128 0xc
 8626 2373 8A030000 		.4byte	.LASF145
 8627 2377 01       		.byte	0x1
 8628 2378 A705     		.2byte	0x5a7
 8629 237a 88000000 		.4byte	0x88
 8630 237e 00000000 		.4byte	.LFB131
 8631 2382 0C000000 		.4byte	.LFE131-.LFB131
 8632 2386 01       		.uleb128 0x1
 8633 2387 9C       		.byte	0x9c
 8634 2388 AF230000 		.4byte	0x23af
 8635 238c 0D       		.uleb128 0xd
 8636 238d F9070000 		.4byte	.LASF15
 8637 2391 01       		.byte	0x1
 8638 2392 A705     		.2byte	0x5a7
 8639 2394 88000000 		.4byte	0x88
ARM GAS  C:\Users\brian\AppData\Local\Temp\ccmYYpDh.s 			page 192


 8640 2398 E3100000 		.4byte	.LLST131
 8641 239c 0E       		.uleb128 0xe
 8642 239d 62756600 		.ascii	"buf\000"
 8643 23a1 01       		.byte	0x1
 8644 23a2 AD05     		.2byte	0x5ad
 8645 23a4 AF230000 		.4byte	0x23af
 8646 23a8 05       		.uleb128 0x5
 8647 23a9 03       		.byte	0x3
 8648 23aa 10EB0100 		.4byte	buf.12415
 8649 23ae 00       		.byte	0
 8650 23af 09       		.uleb128 0x9
 8651 23b0 76000000 		.4byte	0x76
 8652 23b4 C0230000 		.4byte	0x23c0
 8653 23b8 0B       		.uleb128 0xb
 8654 23b9 D8000000 		.4byte	0xd8
 8655 23bd 2F06     		.2byte	0x62f
 8656 23bf 00       		.byte	0
 8657 23c0 0C       		.uleb128 0xc
 8658 23c1 88090000 		.4byte	.LASF146
 8659 23c5 01       		.byte	0x1
 8660 23c6 B205     		.2byte	0x5b2
 8661 23c8 88000000 		.4byte	0x88
 8662 23cc 00000000 		.4byte	.LFB132
 8663 23d0 0C000000 		.4byte	.LFE132-.LFB132
 8664 23d4 01       		.uleb128 0x1
 8665 23d5 9C       		.byte	0x9c
 8666 23d6 FD230000 		.4byte	0x23fd
 8667 23da 0D       		.uleb128 0xd
 8668 23db F9070000 		.4byte	.LASF15
 8669 23df 01       		.byte	0x1
 8670 23e0 B205     		.2byte	0x5b2
 8671 23e2 88000000 		.4byte	0x88
 8672 23e6 04110000 		.4byte	.LLST132
 8673 23ea 0E       		.uleb128 0xe
 8674 23eb 62756600 		.ascii	"buf\000"
 8675 23ef 01       		.byte	0x1
 8676 23f0 B805     		.2byte	0x5b8
 8677 23f2 FD230000 		.4byte	0x23fd
 8678 23f6 05       		.uleb128 0x5
 8679 23f7 03       		.byte	0x3
 8680 23f8 40F10100 		.4byte	buf.12419
 8681 23fc 00       		.byte	0
 8682 23fd 09       		.uleb128 0x9
 8683 23fe 76000000 		.4byte	0x76
 8684 2402 0D240000 		.4byte	0x240d
 8685 2406 0A       		.uleb128 0xa
 8686 2407 D8000000 		.4byte	0xd8
 8687 240b C7       		.byte	0xc7
 8688 240c 00       		.byte	0
 8689 240d 0C       		.uleb128 0xc
 8690 240e 97090000 		.4byte	.LASF147
 8691 2412 01       		.byte	0x1
 8692 2413 BD05     		.2byte	0x5bd
 8693 2415 88000000 		.4byte	0x88
 8694 2419 00000000 		.4byte	.LFB133
 8695 241d 0C000000 		.4byte	.LFE133-.LFB133
 8696 2421 01       		.uleb128 0x1
ARM GAS  C:\Users\brian\AppData\Local\Temp\ccmYYpDh.s 			page 193


 8697 2422 9C       		.byte	0x9c
 8698 2423 4A240000 		.4byte	0x244a
 8699 2427 0D       		.uleb128 0xd
 8700 2428 F9070000 		.4byte	.LASF15
 8701 242c 01       		.byte	0x1
 8702 242d BD05     		.2byte	0x5bd
 8703 242f 88000000 		.4byte	0x88
 8704 2433 25110000 		.4byte	.LLST133
 8705 2437 0E       		.uleb128 0xe
 8706 2438 62756600 		.ascii	"buf\000"
 8707 243c 01       		.byte	0x1
 8708 243d C305     		.2byte	0x5c3
 8709 243f D00F0000 		.4byte	0xfd0
 8710 2443 05       		.uleb128 0x5
 8711 2444 03       		.byte	0x3
 8712 2445 08F20100 		.4byte	buf.12423
 8713 2449 00       		.byte	0
 8714 244a 0C       		.uleb128 0xc
 8715 244b 00000000 		.4byte	.LASF148
 8716 244f 01       		.byte	0x1
 8717 2450 C805     		.2byte	0x5c8
 8718 2452 88000000 		.4byte	0x88
 8719 2456 00000000 		.4byte	.LFB134
 8720 245a 0C000000 		.4byte	.LFE134-.LFB134
 8721 245e 01       		.uleb128 0x1
 8722 245f 9C       		.byte	0x9c
 8723 2460 87240000 		.4byte	0x2487
 8724 2464 0D       		.uleb128 0xd
 8725 2465 F9070000 		.4byte	.LASF15
 8726 2469 01       		.byte	0x1
 8727 246a C805     		.2byte	0x5c8
 8728 246c 88000000 		.4byte	0x88
 8729 2470 46110000 		.4byte	.LLST134
 8730 2474 0E       		.uleb128 0xe
 8731 2475 62756600 		.ascii	"buf\000"
 8732 2479 01       		.byte	0x1
 8733 247a CE05     		.2byte	0x5ce
 8734 247c 87240000 		.4byte	0x2487
 8735 2480 05       		.uleb128 0x5
 8736 2481 03       		.byte	0x3
 8737 2482 98F30100 		.4byte	buf.12427
 8738 2486 00       		.byte	0
 8739 2487 09       		.uleb128 0x9
 8740 2488 76000000 		.4byte	0x76
 8741 248c 98240000 		.4byte	0x2498
 8742 2490 0B       		.uleb128 0xb
 8743 2491 D8000000 		.4byte	0xd8
 8744 2495 8713     		.2byte	0x1387
 8745 2497 00       		.byte	0
 8746 2498 0C       		.uleb128 0xc
 8747 2499 05050000 		.4byte	.LASF149
 8748 249d 01       		.byte	0x1
 8749 249e D305     		.2byte	0x5d3
 8750 24a0 88000000 		.4byte	0x88
 8751 24a4 00000000 		.4byte	.LFB135
 8752 24a8 0C000000 		.4byte	.LFE135-.LFB135
 8753 24ac 01       		.uleb128 0x1
ARM GAS  C:\Users\brian\AppData\Local\Temp\ccmYYpDh.s 			page 194


 8754 24ad 9C       		.byte	0x9c
 8755 24ae D5240000 		.4byte	0x24d5
 8756 24b2 0D       		.uleb128 0xd
 8757 24b3 F9070000 		.4byte	.LASF15
 8758 24b7 01       		.byte	0x1
 8759 24b8 D305     		.2byte	0x5d3
 8760 24ba 88000000 		.4byte	0x88
 8761 24be 67110000 		.4byte	.LLST135
 8762 24c2 0E       		.uleb128 0xe
 8763 24c3 62756600 		.ascii	"buf\000"
 8764 24c7 01       		.byte	0x1
 8765 24c8 D905     		.2byte	0x5d9
 8766 24ca D5240000 		.4byte	0x24d5
 8767 24ce 05       		.uleb128 0x5
 8768 24cf 03       		.byte	0x3
 8769 24d0 20070200 		.4byte	buf.12431
 8770 24d4 00       		.byte	0
 8771 24d5 09       		.uleb128 0x9
 8772 24d6 76000000 		.4byte	0x76
 8773 24da E6240000 		.4byte	0x24e6
 8774 24de 0B       		.uleb128 0xb
 8775 24df D8000000 		.4byte	0xd8
 8776 24e3 2701     		.2byte	0x127
 8777 24e5 00       		.byte	0
 8778 24e6 0C       		.uleb128 0xc
 8779 24e7 14050000 		.4byte	.LASF150
 8780 24eb 01       		.byte	0x1
 8781 24ec DE05     		.2byte	0x5de
 8782 24ee 88000000 		.4byte	0x88
 8783 24f2 00000000 		.4byte	.LFB136
 8784 24f6 0C000000 		.4byte	.LFE136-.LFB136
 8785 24fa 01       		.uleb128 0x1
 8786 24fb 9C       		.byte	0x9c
 8787 24fc 23250000 		.4byte	0x2523
 8788 2500 0D       		.uleb128 0xd
 8789 2501 F9070000 		.4byte	.LASF15
 8790 2505 01       		.byte	0x1
 8791 2506 DE05     		.2byte	0x5de
 8792 2508 88000000 		.4byte	0x88
 8793 250c 88110000 		.4byte	.LLST136
 8794 2510 0E       		.uleb128 0xe
 8795 2511 62756600 		.ascii	"buf\000"
 8796 2515 01       		.byte	0x1
 8797 2516 E405     		.2byte	0x5e4
 8798 2518 23250000 		.4byte	0x2523
 8799 251c 05       		.uleb128 0x5
 8800 251d 03       		.byte	0x3
 8801 251e 48080200 		.4byte	buf.12435
 8802 2522 00       		.byte	0
 8803 2523 09       		.uleb128 0x9
 8804 2524 76000000 		.4byte	0x76
 8805 2528 34250000 		.4byte	0x2534
 8806 252c 0B       		.uleb128 0xb
 8807 252d D8000000 		.4byte	0xd8
 8808 2531 4F02     		.2byte	0x24f
 8809 2533 00       		.byte	0
 8810 2534 0C       		.uleb128 0xc
ARM GAS  C:\Users\brian\AppData\Local\Temp\ccmYYpDh.s 			page 195


 8811 2535 9F050000 		.4byte	.LASF151
 8812 2539 01       		.byte	0x1
 8813 253a E905     		.2byte	0x5e9
 8814 253c 88000000 		.4byte	0x88
 8815 2540 00000000 		.4byte	.LFB137
 8816 2544 0C000000 		.4byte	.LFE137-.LFB137
 8817 2548 01       		.uleb128 0x1
 8818 2549 9C       		.byte	0x9c
 8819 254a 71250000 		.4byte	0x2571
 8820 254e 0D       		.uleb128 0xd
 8821 254f F9070000 		.4byte	.LASF15
 8822 2553 01       		.byte	0x1
 8823 2554 E905     		.2byte	0x5e9
 8824 2556 88000000 		.4byte	0x88
 8825 255a A9110000 		.4byte	.LLST137
 8826 255e 0E       		.uleb128 0xe
 8827 255f 62756600 		.ascii	"buf\000"
 8828 2563 01       		.byte	0x1
 8829 2564 EF05     		.2byte	0x5ef
 8830 2566 71250000 		.4byte	0x2571
 8831 256a 05       		.uleb128 0x5
 8832 256b 03       		.byte	0x3
 8833 256c 980A0200 		.4byte	buf.12439
 8834 2570 00       		.byte	0
 8835 2571 09       		.uleb128 0x9
 8836 2572 76000000 		.4byte	0x76
 8837 2576 82250000 		.4byte	0x2582
 8838 257a 0B       		.uleb128 0xb
 8839 257b D8000000 		.4byte	0xd8
 8840 257f 7F12     		.2byte	0x127f
 8841 2581 00       		.byte	0
 8842 2582 0C       		.uleb128 0xc
 8843 2583 8E000000 		.4byte	.LASF152
 8844 2587 01       		.byte	0x1
 8845 2588 F405     		.2byte	0x5f4
 8846 258a 88000000 		.4byte	0x88
 8847 258e 00000000 		.4byte	.LFB138
 8848 2592 0C000000 		.4byte	.LFE138-.LFB138
 8849 2596 01       		.uleb128 0x1
 8850 2597 9C       		.byte	0x9c
 8851 2598 BF250000 		.4byte	0x25bf
 8852 259c 0D       		.uleb128 0xd
 8853 259d F9070000 		.4byte	.LASF15
 8854 25a1 01       		.byte	0x1
 8855 25a2 F405     		.2byte	0x5f4
 8856 25a4 88000000 		.4byte	0x88
 8857 25a8 CA110000 		.4byte	.LLST138
 8858 25ac 0E       		.uleb128 0xe
 8859 25ad 62756600 		.ascii	"buf\000"
 8860 25b1 01       		.byte	0x1
 8861 25b2 FA05     		.2byte	0x5fa
 8862 25b4 1C040000 		.4byte	0x41c
 8863 25b8 05       		.uleb128 0x5
 8864 25b9 03       		.byte	0x3
 8865 25ba 181D0200 		.4byte	buf.12443
 8866 25be 00       		.byte	0
 8867 25bf 0C       		.uleb128 0xc
ARM GAS  C:\Users\brian\AppData\Local\Temp\ccmYYpDh.s 			page 196


 8868 25c0 9B000000 		.4byte	.LASF153
 8869 25c4 01       		.byte	0x1
 8870 25c5 FF05     		.2byte	0x5ff
 8871 25c7 88000000 		.4byte	0x88
 8872 25cb 00000000 		.4byte	.LFB139
 8873 25cf 0C000000 		.4byte	.LFE139-.LFB139
 8874 25d3 01       		.uleb128 0x1
 8875 25d4 9C       		.byte	0x9c
 8876 25d5 FC250000 		.4byte	0x25fc
 8877 25d9 0D       		.uleb128 0xd
 8878 25da F9070000 		.4byte	.LASF15
 8879 25de 01       		.byte	0x1
 8880 25df FF05     		.2byte	0x5ff
 8881 25e1 88000000 		.4byte	0x88
 8882 25e5 EB110000 		.4byte	.LLST139
 8883 25e9 0E       		.uleb128 0xe
 8884 25ea 62756600 		.ascii	"buf\000"
 8885 25ee 01       		.byte	0x1
 8886 25ef 0506     		.2byte	0x605
 8887 25f1 C8000000 		.4byte	0xc8
 8888 25f5 05       		.uleb128 0x5
 8889 25f6 03       		.byte	0x3
 8890 25f7 581D0200 		.4byte	buf.12447
 8891 25fb 00       		.byte	0
 8892 25fc 0C       		.uleb128 0xc
 8893 25fd 3B010000 		.4byte	.LASF154
 8894 2601 01       		.byte	0x1
 8895 2602 0A06     		.2byte	0x60a
 8896 2604 88000000 		.4byte	0x88
 8897 2608 00000000 		.4byte	.LFB140
 8898 260c 0C000000 		.4byte	.LFE140-.LFB140
 8899 2610 01       		.uleb128 0x1
 8900 2611 9C       		.byte	0x9c
 8901 2612 39260000 		.4byte	0x2639
 8902 2616 0D       		.uleb128 0xd
 8903 2617 F9070000 		.4byte	.LASF15
 8904 261b 01       		.byte	0x1
 8905 261c 0A06     		.2byte	0x60a
 8906 261e 88000000 		.4byte	0x88
 8907 2622 0C120000 		.4byte	.LLST140
 8908 2626 0E       		.uleb128 0xe
 8909 2627 62756600 		.ascii	"buf\000"
 8910 262b 01       		.byte	0x1
 8911 262c 1006     		.2byte	0x610
 8912 262e 1C040000 		.4byte	0x41c
 8913 2632 05       		.uleb128 0x5
 8914 2633 03       		.byte	0x3
 8915 2634 D81D0200 		.4byte	buf.12451
 8916 2638 00       		.byte	0
 8917 2639 0C       		.uleb128 0xc
 8918 263a 23050000 		.4byte	.LASF155
 8919 263e 01       		.byte	0x1
 8920 263f 1506     		.2byte	0x615
 8921 2641 88000000 		.4byte	0x88
 8922 2645 00000000 		.4byte	.LFB141
 8923 2649 0C000000 		.4byte	.LFE141-.LFB141
 8924 264d 01       		.uleb128 0x1
ARM GAS  C:\Users\brian\AppData\Local\Temp\ccmYYpDh.s 			page 197


 8925 264e 9C       		.byte	0x9c
 8926 264f 76260000 		.4byte	0x2676
 8927 2653 0D       		.uleb128 0xd
 8928 2654 F9070000 		.4byte	.LASF15
 8929 2658 01       		.byte	0x1
 8930 2659 1506     		.2byte	0x615
 8931 265b 88000000 		.4byte	0x88
 8932 265f 2D120000 		.4byte	.LLST141
 8933 2663 0E       		.uleb128 0xe
 8934 2664 62756600 		.ascii	"buf\000"
 8935 2668 01       		.byte	0x1
 8936 2669 1B06     		.2byte	0x61b
 8937 266b 76260000 		.4byte	0x2676
 8938 266f 05       		.uleb128 0x5
 8939 2670 03       		.byte	0x3
 8940 2671 181E0200 		.4byte	buf.12455
 8941 2675 00       		.byte	0
 8942 2676 09       		.uleb128 0x9
 8943 2677 76000000 		.4byte	0x76
 8944 267b 86260000 		.4byte	0x2686
 8945 267f 0A       		.uleb128 0xa
 8946 2680 D8000000 		.4byte	0xd8
 8947 2684 1F       		.byte	0x1f
 8948 2685 00       		.byte	0
 8949 2686 0C       		.uleb128 0xc
 8950 2687 30050000 		.4byte	.LASF156
 8951 268b 01       		.byte	0x1
 8952 268c 2006     		.2byte	0x620
 8953 268e 88000000 		.4byte	0x88
 8954 2692 00000000 		.4byte	.LFB142
 8955 2696 0C000000 		.4byte	.LFE142-.LFB142
 8956 269a 01       		.uleb128 0x1
 8957 269b 9C       		.byte	0x9c
 8958 269c C3260000 		.4byte	0x26c3
 8959 26a0 0D       		.uleb128 0xd
 8960 26a1 F9070000 		.4byte	.LASF15
 8961 26a5 01       		.byte	0x1
 8962 26a6 2006     		.2byte	0x620
 8963 26a8 88000000 		.4byte	0x88
 8964 26ac 4E120000 		.4byte	.LLST142
 8965 26b0 0E       		.uleb128 0xe
 8966 26b1 62756600 		.ascii	"buf\000"
 8967 26b5 01       		.byte	0x1
 8968 26b6 2606     		.2byte	0x626
 8969 26b8 1C040000 		.4byte	0x41c
 8970 26bc 05       		.uleb128 0x5
 8971 26bd 03       		.byte	0x3
 8972 26be 381E0200 		.4byte	buf.12459
 8973 26c2 00       		.byte	0
 8974 26c3 0C       		.uleb128 0xc
 8975 26c4 AE050000 		.4byte	.LASF157
 8976 26c8 01       		.byte	0x1
 8977 26c9 2B06     		.2byte	0x62b
 8978 26cb 88000000 		.4byte	0x88
 8979 26cf 00000000 		.4byte	.LFB143
 8980 26d3 0C000000 		.4byte	.LFE143-.LFB143
 8981 26d7 01       		.uleb128 0x1
ARM GAS  C:\Users\brian\AppData\Local\Temp\ccmYYpDh.s 			page 198


 8982 26d8 9C       		.byte	0x9c
 8983 26d9 00270000 		.4byte	0x2700
 8984 26dd 0D       		.uleb128 0xd
 8985 26de F9070000 		.4byte	.LASF15
 8986 26e2 01       		.byte	0x1
 8987 26e3 2B06     		.2byte	0x62b
 8988 26e5 88000000 		.4byte	0x88
 8989 26e9 6F120000 		.4byte	.LLST143
 8990 26ed 0E       		.uleb128 0xe
 8991 26ee 62756600 		.ascii	"buf\000"
 8992 26f2 01       		.byte	0x1
 8993 26f3 3106     		.2byte	0x631
 8994 26f5 76260000 		.4byte	0x2676
 8995 26f9 05       		.uleb128 0x5
 8996 26fa 03       		.byte	0x3
 8997 26fb 781E0200 		.4byte	buf.12463
 8998 26ff 00       		.byte	0
 8999 2700 0C       		.uleb128 0xc
 9000 2701 85050000 		.4byte	.LASF158
 9001 2705 01       		.byte	0x1
 9002 2706 3606     		.2byte	0x636
 9003 2708 88000000 		.4byte	0x88
 9004 270c 00000000 		.4byte	.LFB144
 9005 2710 0C000000 		.4byte	.LFE144-.LFB144
 9006 2714 01       		.uleb128 0x1
 9007 2715 9C       		.byte	0x9c
 9008 2716 3D270000 		.4byte	0x273d
 9009 271a 0D       		.uleb128 0xd
 9010 271b F9070000 		.4byte	.LASF15
 9011 271f 01       		.byte	0x1
 9012 2720 3606     		.2byte	0x636
 9013 2722 88000000 		.4byte	0x88
 9014 2726 90120000 		.4byte	.LLST144
 9015 272a 0E       		.uleb128 0xe
 9016 272b 62756600 		.ascii	"buf\000"
 9017 272f 01       		.byte	0x1
 9018 2730 3C06     		.2byte	0x63c
 9019 2732 3D270000 		.4byte	0x273d
 9020 2736 05       		.uleb128 0x5
 9021 2737 03       		.byte	0x3
 9022 2738 981E0200 		.4byte	buf.12467
 9023 273c 00       		.byte	0
 9024 273d 09       		.uleb128 0x9
 9025 273e 76000000 		.4byte	0x76
 9026 2742 4D270000 		.4byte	0x274d
 9027 2746 0A       		.uleb128 0xa
 9028 2747 D8000000 		.4byte	0xd8
 9029 274b 07       		.byte	0x7
 9030 274c 00       		.byte	0
 9031 274d 0C       		.uleb128 0xc
 9032 274e 92050000 		.4byte	.LASF159
 9033 2752 01       		.byte	0x1
 9034 2753 4106     		.2byte	0x641
 9035 2755 88000000 		.4byte	0x88
 9036 2759 00000000 		.4byte	.LFB145
 9037 275d 0C000000 		.4byte	.LFE145-.LFB145
 9038 2761 01       		.uleb128 0x1
ARM GAS  C:\Users\brian\AppData\Local\Temp\ccmYYpDh.s 			page 199


 9039 2762 9C       		.byte	0x9c
 9040 2763 8A270000 		.4byte	0x278a
 9041 2767 0D       		.uleb128 0xd
 9042 2768 F9070000 		.4byte	.LASF15
 9043 276c 01       		.byte	0x1
 9044 276d 4106     		.2byte	0x641
 9045 276f 88000000 		.4byte	0x88
 9046 2773 B1120000 		.4byte	.LLST145
 9047 2777 0E       		.uleb128 0xe
 9048 2778 62756600 		.ascii	"buf\000"
 9049 277c 01       		.byte	0x1
 9050 277d 4706     		.2byte	0x647
 9051 277f 8A270000 		.4byte	0x278a
 9052 2783 05       		.uleb128 0x5
 9053 2784 03       		.byte	0x3
 9054 2785 A01E0200 		.4byte	buf.12471
 9055 2789 00       		.byte	0
 9056 278a 09       		.uleb128 0x9
 9057 278b 76000000 		.4byte	0x76
 9058 278f 9A270000 		.4byte	0x279a
 9059 2793 0A       		.uleb128 0xa
 9060 2794 D8000000 		.4byte	0xd8
 9061 2798 0F       		.byte	0xf
 9062 2799 00       		.byte	0
 9063 279a 0C       		.uleb128 0xc
 9064 279b 48060000 		.4byte	.LASF160
 9065 279f 01       		.byte	0x1
 9066 27a0 4C06     		.2byte	0x64c
 9067 27a2 88000000 		.4byte	0x88
 9068 27a6 00000000 		.4byte	.LFB146
 9069 27aa 0C000000 		.4byte	.LFE146-.LFB146
 9070 27ae 01       		.uleb128 0x1
 9071 27af 9C       		.byte	0x9c
 9072 27b0 D7270000 		.4byte	0x27d7
 9073 27b4 0D       		.uleb128 0xd
 9074 27b5 F9070000 		.4byte	.LASF15
 9075 27b9 01       		.byte	0x1
 9076 27ba 4C06     		.2byte	0x64c
 9077 27bc 88000000 		.4byte	0x88
 9078 27c0 D2120000 		.4byte	.LLST146
 9079 27c4 0E       		.uleb128 0xe
 9080 27c5 62756600 		.ascii	"buf\000"
 9081 27c9 01       		.byte	0x1
 9082 27ca 5206     		.2byte	0x652
 9083 27cc 3D270000 		.4byte	0x273d
 9084 27d0 05       		.uleb128 0x5
 9085 27d1 03       		.byte	0x3
 9086 27d2 B01E0200 		.4byte	buf.12475
 9087 27d6 00       		.byte	0
 9088 27d7 0C       		.uleb128 0xc
 9089 27d8 DD030000 		.4byte	.LASF161
 9090 27dc 01       		.byte	0x1
 9091 27dd 5706     		.2byte	0x657
 9092 27df 88000000 		.4byte	0x88
 9093 27e3 00000000 		.4byte	.LFB147
 9094 27e7 0C000000 		.4byte	.LFE147-.LFB147
 9095 27eb 01       		.uleb128 0x1
ARM GAS  C:\Users\brian\AppData\Local\Temp\ccmYYpDh.s 			page 200


 9096 27ec 9C       		.byte	0x9c
 9097 27ed 14280000 		.4byte	0x2814
 9098 27f1 0D       		.uleb128 0xd
 9099 27f2 F9070000 		.4byte	.LASF15
 9100 27f6 01       		.byte	0x1
 9101 27f7 5706     		.2byte	0x657
 9102 27f9 88000000 		.4byte	0x88
 9103 27fd F3120000 		.4byte	.LLST147
 9104 2801 0E       		.uleb128 0xe
 9105 2802 62756600 		.ascii	"buf\000"
 9106 2806 01       		.byte	0x1
 9107 2807 5D06     		.2byte	0x65d
 9108 2809 060B0000 		.4byte	0xb06
 9109 280d 05       		.uleb128 0x5
 9110 280e 03       		.byte	0x3
 9111 280f B81E0200 		.4byte	buf.12479
 9112 2813 00       		.byte	0
 9113 2814 0C       		.uleb128 0xc
 9114 2815 EC030000 		.4byte	.LASF162
 9115 2819 01       		.byte	0x1
 9116 281a 6206     		.2byte	0x662
 9117 281c 88000000 		.4byte	0x88
 9118 2820 00000000 		.4byte	.LFB148
 9119 2824 0C000000 		.4byte	.LFE148-.LFB148
 9120 2828 01       		.uleb128 0x1
 9121 2829 9C       		.byte	0x9c
 9122 282a 51280000 		.4byte	0x2851
 9123 282e 0D       		.uleb128 0xd
 9124 282f F9070000 		.4byte	.LASF15
 9125 2833 01       		.byte	0x1
 9126 2834 6206     		.2byte	0x662
 9127 2836 88000000 		.4byte	0x88
 9128 283a 14130000 		.4byte	.LLST148
 9129 283e 0E       		.uleb128 0xe
 9130 283f 62756600 		.ascii	"buf\000"
 9131 2843 01       		.byte	0x1
 9132 2844 6806     		.2byte	0x668
 9133 2846 CB0E0000 		.4byte	0xecb
 9134 284a 05       		.uleb128 0x5
 9135 284b 03       		.byte	0x3
 9136 284c 38200200 		.4byte	buf.12483
 9137 2850 00       		.byte	0
 9138 2851 0C       		.uleb128 0xc
 9139 2852 6B040000 		.4byte	.LASF163
 9140 2856 01       		.byte	0x1
 9141 2857 6D06     		.2byte	0x66d
 9142 2859 88000000 		.4byte	0x88
 9143 285d 00000000 		.4byte	.LFB149
 9144 2861 0C000000 		.4byte	.LFE149-.LFB149
 9145 2865 01       		.uleb128 0x1
 9146 2866 9C       		.byte	0x9c
 9147 2867 8E280000 		.4byte	0x288e
 9148 286b 0D       		.uleb128 0xd
 9149 286c F9070000 		.4byte	.LASF15
 9150 2870 01       		.byte	0x1
 9151 2871 6D06     		.2byte	0x66d
 9152 2873 88000000 		.4byte	0x88
ARM GAS  C:\Users\brian\AppData\Local\Temp\ccmYYpDh.s 			page 201


 9153 2877 35130000 		.4byte	.LLST149
 9154 287b 0E       		.uleb128 0xe
 9155 287c 62756600 		.ascii	"buf\000"
 9156 2880 01       		.byte	0x1
 9157 2881 7306     		.2byte	0x673
 9158 2883 8E280000 		.4byte	0x288e
 9159 2887 05       		.uleb128 0x5
 9160 2888 03       		.byte	0x3
 9161 2889 38230200 		.4byte	buf.12487
 9162 288d 00       		.byte	0
 9163 288e 0F       		.uleb128 0xf
 9164 288f 76000000 		.4byte	0x76
 9165 2893 0B       		.uleb128 0xb
 9166 2894 D8000000 		.4byte	0xd8
 9167 2898 FF2C     		.2byte	0x2cff
 9168 289a 00       		.byte	0
 9169 289b 00       		.byte	0
 9170              		.section	.debug_abbrev,"",%progbits
 9171              	.Ldebug_abbrev0:
 9172 0000 01       		.uleb128 0x1
 9173 0001 11       		.uleb128 0x11
 9174 0002 01       		.byte	0x1
 9175 0003 25       		.uleb128 0x25
 9176 0004 0E       		.uleb128 0xe
 9177 0005 13       		.uleb128 0x13
 9178 0006 0B       		.uleb128 0xb
 9179 0007 03       		.uleb128 0x3
 9180 0008 0E       		.uleb128 0xe
 9181 0009 1B       		.uleb128 0x1b
 9182 000a 0E       		.uleb128 0xe
 9183 000b 55       		.uleb128 0x55
 9184 000c 17       		.uleb128 0x17
 9185 000d 11       		.uleb128 0x11
 9186 000e 01       		.uleb128 0x1
 9187 000f 10       		.uleb128 0x10
 9188 0010 17       		.uleb128 0x17
 9189 0011 00       		.byte	0
 9190 0012 00       		.byte	0
 9191 0013 02       		.uleb128 0x2
 9192 0014 24       		.uleb128 0x24
 9193 0015 00       		.byte	0
 9194 0016 0B       		.uleb128 0xb
 9195 0017 0B       		.uleb128 0xb
 9196 0018 3E       		.uleb128 0x3e
 9197 0019 0B       		.uleb128 0xb
 9198 001a 03       		.uleb128 0x3
 9199 001b 0E       		.uleb128 0xe
 9200 001c 00       		.byte	0
 9201 001d 00       		.byte	0
 9202 001e 03       		.uleb128 0x3
 9203 001f 16       		.uleb128 0x16
 9204 0020 00       		.byte	0
 9205 0021 03       		.uleb128 0x3
 9206 0022 0E       		.uleb128 0xe
 9207 0023 3A       		.uleb128 0x3a
 9208 0024 0B       		.uleb128 0xb
 9209 0025 3B       		.uleb128 0x3b
ARM GAS  C:\Users\brian\AppData\Local\Temp\ccmYYpDh.s 			page 202


 9210 0026 0B       		.uleb128 0xb
 9211 0027 49       		.uleb128 0x49
 9212 0028 13       		.uleb128 0x13
 9213 0029 00       		.byte	0
 9214 002a 00       		.byte	0
 9215 002b 04       		.uleb128 0x4
 9216 002c 24       		.uleb128 0x24
 9217 002d 00       		.byte	0
 9218 002e 0B       		.uleb128 0xb
 9219 002f 0B       		.uleb128 0xb
 9220 0030 3E       		.uleb128 0x3e
 9221 0031 0B       		.uleb128 0xb
 9222 0032 03       		.uleb128 0x3
 9223 0033 08       		.uleb128 0x8
 9224 0034 00       		.byte	0
 9225 0035 00       		.byte	0
 9226 0036 05       		.uleb128 0x5
 9227 0037 0F       		.uleb128 0xf
 9228 0038 00       		.byte	0
 9229 0039 0B       		.uleb128 0xb
 9230 003a 0B       		.uleb128 0xb
 9231 003b 49       		.uleb128 0x49
 9232 003c 13       		.uleb128 0x13
 9233 003d 00       		.byte	0
 9234 003e 00       		.byte	0
 9235 003f 06       		.uleb128 0x6
 9236 0040 2E       		.uleb128 0x2e
 9237 0041 01       		.byte	0x1
 9238 0042 3F       		.uleb128 0x3f
 9239 0043 19       		.uleb128 0x19
 9240 0044 03       		.uleb128 0x3
 9241 0045 0E       		.uleb128 0xe
 9242 0046 3A       		.uleb128 0x3a
 9243 0047 0B       		.uleb128 0xb
 9244 0048 3B       		.uleb128 0x3b
 9245 0049 0B       		.uleb128 0xb
 9246 004a 27       		.uleb128 0x27
 9247 004b 19       		.uleb128 0x19
 9248 004c 49       		.uleb128 0x49
 9249 004d 13       		.uleb128 0x13
 9250 004e 11       		.uleb128 0x11
 9251 004f 01       		.uleb128 0x1
 9252 0050 12       		.uleb128 0x12
 9253 0051 06       		.uleb128 0x6
 9254 0052 40       		.uleb128 0x40
 9255 0053 18       		.uleb128 0x18
 9256 0054 9742     		.uleb128 0x2117
 9257 0056 19       		.uleb128 0x19
 9258 0057 01       		.uleb128 0x1
 9259 0058 13       		.uleb128 0x13
 9260 0059 00       		.byte	0
 9261 005a 00       		.byte	0
 9262 005b 07       		.uleb128 0x7
 9263 005c 05       		.uleb128 0x5
 9264 005d 00       		.byte	0
 9265 005e 03       		.uleb128 0x3
 9266 005f 0E       		.uleb128 0xe
ARM GAS  C:\Users\brian\AppData\Local\Temp\ccmYYpDh.s 			page 203


 9267 0060 3A       		.uleb128 0x3a
 9268 0061 0B       		.uleb128 0xb
 9269 0062 3B       		.uleb128 0x3b
 9270 0063 0B       		.uleb128 0xb
 9271 0064 49       		.uleb128 0x49
 9272 0065 13       		.uleb128 0x13
 9273 0066 02       		.uleb128 0x2
 9274 0067 17       		.uleb128 0x17
 9275 0068 00       		.byte	0
 9276 0069 00       		.byte	0
 9277 006a 08       		.uleb128 0x8
 9278 006b 34       		.uleb128 0x34
 9279 006c 00       		.byte	0
 9280 006d 03       		.uleb128 0x3
 9281 006e 08       		.uleb128 0x8
 9282 006f 3A       		.uleb128 0x3a
 9283 0070 0B       		.uleb128 0xb
 9284 0071 3B       		.uleb128 0x3b
 9285 0072 0B       		.uleb128 0xb
 9286 0073 49       		.uleb128 0x49
 9287 0074 13       		.uleb128 0x13
 9288 0075 02       		.uleb128 0x2
 9289 0076 18       		.uleb128 0x18
 9290 0077 00       		.byte	0
 9291 0078 00       		.byte	0
 9292 0079 09       		.uleb128 0x9
 9293 007a 01       		.uleb128 0x1
 9294 007b 01       		.byte	0x1
 9295 007c 49       		.uleb128 0x49
 9296 007d 13       		.uleb128 0x13
 9297 007e 01       		.uleb128 0x1
 9298 007f 13       		.uleb128 0x13
 9299 0080 00       		.byte	0
 9300 0081 00       		.byte	0
 9301 0082 0A       		.uleb128 0xa
 9302 0083 21       		.uleb128 0x21
 9303 0084 00       		.byte	0
 9304 0085 49       		.uleb128 0x49
 9305 0086 13       		.uleb128 0x13
 9306 0087 2F       		.uleb128 0x2f
 9307 0088 0B       		.uleb128 0xb
 9308 0089 00       		.byte	0
 9309 008a 00       		.byte	0
 9310 008b 0B       		.uleb128 0xb
 9311 008c 21       		.uleb128 0x21
 9312 008d 00       		.byte	0
 9313 008e 49       		.uleb128 0x49
 9314 008f 13       		.uleb128 0x13
 9315 0090 2F       		.uleb128 0x2f
 9316 0091 05       		.uleb128 0x5
 9317 0092 00       		.byte	0
 9318 0093 00       		.byte	0
 9319 0094 0C       		.uleb128 0xc
 9320 0095 2E       		.uleb128 0x2e
 9321 0096 01       		.byte	0x1
 9322 0097 3F       		.uleb128 0x3f
 9323 0098 19       		.uleb128 0x19
ARM GAS  C:\Users\brian\AppData\Local\Temp\ccmYYpDh.s 			page 204


 9324 0099 03       		.uleb128 0x3
 9325 009a 0E       		.uleb128 0xe
 9326 009b 3A       		.uleb128 0x3a
 9327 009c 0B       		.uleb128 0xb
 9328 009d 3B       		.uleb128 0x3b
 9329 009e 05       		.uleb128 0x5
 9330 009f 27       		.uleb128 0x27
 9331 00a0 19       		.uleb128 0x19
 9332 00a1 49       		.uleb128 0x49
 9333 00a2 13       		.uleb128 0x13
 9334 00a3 11       		.uleb128 0x11
 9335 00a4 01       		.uleb128 0x1
 9336 00a5 12       		.uleb128 0x12
 9337 00a6 06       		.uleb128 0x6
 9338 00a7 40       		.uleb128 0x40
 9339 00a8 18       		.uleb128 0x18
 9340 00a9 9742     		.uleb128 0x2117
 9341 00ab 19       		.uleb128 0x19
 9342 00ac 01       		.uleb128 0x1
 9343 00ad 13       		.uleb128 0x13
 9344 00ae 00       		.byte	0
 9345 00af 00       		.byte	0
 9346 00b0 0D       		.uleb128 0xd
 9347 00b1 05       		.uleb128 0x5
 9348 00b2 00       		.byte	0
 9349 00b3 03       		.uleb128 0x3
 9350 00b4 0E       		.uleb128 0xe
 9351 00b5 3A       		.uleb128 0x3a
 9352 00b6 0B       		.uleb128 0xb
 9353 00b7 3B       		.uleb128 0x3b
 9354 00b8 05       		.uleb128 0x5
 9355 00b9 49       		.uleb128 0x49
 9356 00ba 13       		.uleb128 0x13
 9357 00bb 02       		.uleb128 0x2
 9358 00bc 17       		.uleb128 0x17
 9359 00bd 00       		.byte	0
 9360 00be 00       		.byte	0
 9361 00bf 0E       		.uleb128 0xe
 9362 00c0 34       		.uleb128 0x34
 9363 00c1 00       		.byte	0
 9364 00c2 03       		.uleb128 0x3
 9365 00c3 08       		.uleb128 0x8
 9366 00c4 3A       		.uleb128 0x3a
 9367 00c5 0B       		.uleb128 0xb
 9368 00c6 3B       		.uleb128 0x3b
 9369 00c7 05       		.uleb128 0x5
 9370 00c8 49       		.uleb128 0x49
 9371 00c9 13       		.uleb128 0x13
 9372 00ca 02       		.uleb128 0x2
 9373 00cb 18       		.uleb128 0x18
 9374 00cc 00       		.byte	0
 9375 00cd 00       		.byte	0
 9376 00ce 0F       		.uleb128 0xf
 9377 00cf 01       		.uleb128 0x1
 9378 00d0 01       		.byte	0x1
 9379 00d1 49       		.uleb128 0x49
 9380 00d2 13       		.uleb128 0x13
ARM GAS  C:\Users\brian\AppData\Local\Temp\ccmYYpDh.s 			page 205


 9381 00d3 00       		.byte	0
 9382 00d4 00       		.byte	0
 9383 00d5 00       		.byte	0
 9384              		.section	.debug_loc,"",%progbits
 9385              	.Ldebug_loc0:
 9386              	.LLST0:
 9387 0000 00000000 		.4byte	.LVL0
 9388 0004 06000000 		.4byte	.LVL1
 9389 0008 0100     		.2byte	0x1
 9390 000a 50       		.byte	0x50
 9391 000b 06000000 		.4byte	.LVL1
 9392 000f 0C000000 		.4byte	.LFE0
 9393 0013 0400     		.2byte	0x4
 9394 0015 F3       		.byte	0xf3
 9395 0016 01       		.uleb128 0x1
 9396 0017 50       		.byte	0x50
 9397 0018 9F       		.byte	0x9f
 9398 0019 00000000 		.4byte	0
 9399 001d 00000000 		.4byte	0
 9400              	.LLST1:
 9401 0021 00000000 		.4byte	.LVL2
 9402 0025 06000000 		.4byte	.LVL3
 9403 0029 0100     		.2byte	0x1
 9404 002b 50       		.byte	0x50
 9405 002c 06000000 		.4byte	.LVL3
 9406 0030 0C000000 		.4byte	.LFE1
 9407 0034 0400     		.2byte	0x4
 9408 0036 F3       		.byte	0xf3
 9409 0037 01       		.uleb128 0x1
 9410 0038 50       		.byte	0x50
 9411 0039 9F       		.byte	0x9f
 9412 003a 00000000 		.4byte	0
 9413 003e 00000000 		.4byte	0
 9414              	.LLST2:
 9415 0042 00000000 		.4byte	.LVL4
 9416 0046 06000000 		.4byte	.LVL5
 9417 004a 0100     		.2byte	0x1
 9418 004c 50       		.byte	0x50
 9419 004d 06000000 		.4byte	.LVL5
 9420 0051 0C000000 		.4byte	.LFE2
 9421 0055 0400     		.2byte	0x4
 9422 0057 F3       		.byte	0xf3
 9423 0058 01       		.uleb128 0x1
 9424 0059 50       		.byte	0x50
 9425 005a 9F       		.byte	0x9f
 9426 005b 00000000 		.4byte	0
 9427 005f 00000000 		.4byte	0
 9428              	.LLST3:
 9429 0063 00000000 		.4byte	.LVL6
 9430 0067 06000000 		.4byte	.LVL7
 9431 006b 0100     		.2byte	0x1
 9432 006d 50       		.byte	0x50
 9433 006e 06000000 		.4byte	.LVL7
 9434 0072 0C000000 		.4byte	.LFE3
 9435 0076 0400     		.2byte	0x4
 9436 0078 F3       		.byte	0xf3
 9437 0079 01       		.uleb128 0x1
ARM GAS  C:\Users\brian\AppData\Local\Temp\ccmYYpDh.s 			page 206


 9438 007a 50       		.byte	0x50
 9439 007b 9F       		.byte	0x9f
 9440 007c 00000000 		.4byte	0
 9441 0080 00000000 		.4byte	0
 9442              	.LLST4:
 9443 0084 00000000 		.4byte	.LVL8
 9444 0088 06000000 		.4byte	.LVL9
 9445 008c 0100     		.2byte	0x1
 9446 008e 50       		.byte	0x50
 9447 008f 06000000 		.4byte	.LVL9
 9448 0093 0C000000 		.4byte	.LFE4
 9449 0097 0400     		.2byte	0x4
 9450 0099 F3       		.byte	0xf3
 9451 009a 01       		.uleb128 0x1
 9452 009b 50       		.byte	0x50
 9453 009c 9F       		.byte	0x9f
 9454 009d 00000000 		.4byte	0
 9455 00a1 00000000 		.4byte	0
 9456              	.LLST5:
 9457 00a5 00000000 		.4byte	.LVL10
 9458 00a9 06000000 		.4byte	.LVL11
 9459 00ad 0100     		.2byte	0x1
 9460 00af 50       		.byte	0x50
 9461 00b0 06000000 		.4byte	.LVL11
 9462 00b4 0C000000 		.4byte	.LFE5
 9463 00b8 0400     		.2byte	0x4
 9464 00ba F3       		.byte	0xf3
 9465 00bb 01       		.uleb128 0x1
 9466 00bc 50       		.byte	0x50
 9467 00bd 9F       		.byte	0x9f
 9468 00be 00000000 		.4byte	0
 9469 00c2 00000000 		.4byte	0
 9470              	.LLST6:
 9471 00c6 00000000 		.4byte	.LVL12
 9472 00ca 06000000 		.4byte	.LVL13
 9473 00ce 0100     		.2byte	0x1
 9474 00d0 50       		.byte	0x50
 9475 00d1 06000000 		.4byte	.LVL13
 9476 00d5 0C000000 		.4byte	.LFE6
 9477 00d9 0400     		.2byte	0x4
 9478 00db F3       		.byte	0xf3
 9479 00dc 01       		.uleb128 0x1
 9480 00dd 50       		.byte	0x50
 9481 00de 9F       		.byte	0x9f
 9482 00df 00000000 		.4byte	0
 9483 00e3 00000000 		.4byte	0
 9484              	.LLST7:
 9485 00e7 00000000 		.4byte	.LVL14
 9486 00eb 06000000 		.4byte	.LVL15
 9487 00ef 0100     		.2byte	0x1
 9488 00f1 50       		.byte	0x50
 9489 00f2 06000000 		.4byte	.LVL15
 9490 00f6 0C000000 		.4byte	.LFE7
 9491 00fa 0400     		.2byte	0x4
 9492 00fc F3       		.byte	0xf3
 9493 00fd 01       		.uleb128 0x1
 9494 00fe 50       		.byte	0x50
ARM GAS  C:\Users\brian\AppData\Local\Temp\ccmYYpDh.s 			page 207


 9495 00ff 9F       		.byte	0x9f
 9496 0100 00000000 		.4byte	0
 9497 0104 00000000 		.4byte	0
 9498              	.LLST8:
 9499 0108 00000000 		.4byte	.LVL16
 9500 010c 06000000 		.4byte	.LVL17
 9501 0110 0100     		.2byte	0x1
 9502 0112 50       		.byte	0x50
 9503 0113 06000000 		.4byte	.LVL17
 9504 0117 0C000000 		.4byte	.LFE8
 9505 011b 0400     		.2byte	0x4
 9506 011d F3       		.byte	0xf3
 9507 011e 01       		.uleb128 0x1
 9508 011f 50       		.byte	0x50
 9509 0120 9F       		.byte	0x9f
 9510 0121 00000000 		.4byte	0
 9511 0125 00000000 		.4byte	0
 9512              	.LLST9:
 9513 0129 00000000 		.4byte	.LVL18
 9514 012d 06000000 		.4byte	.LVL19
 9515 0131 0100     		.2byte	0x1
 9516 0133 50       		.byte	0x50
 9517 0134 06000000 		.4byte	.LVL19
 9518 0138 0C000000 		.4byte	.LFE9
 9519 013c 0400     		.2byte	0x4
 9520 013e F3       		.byte	0xf3
 9521 013f 01       		.uleb128 0x1
 9522 0140 50       		.byte	0x50
 9523 0141 9F       		.byte	0x9f
 9524 0142 00000000 		.4byte	0
 9525 0146 00000000 		.4byte	0
 9526              	.LLST10:
 9527 014a 00000000 		.4byte	.LVL20
 9528 014e 06000000 		.4byte	.LVL21
 9529 0152 0100     		.2byte	0x1
 9530 0154 50       		.byte	0x50
 9531 0155 06000000 		.4byte	.LVL21
 9532 0159 0C000000 		.4byte	.LFE10
 9533 015d 0400     		.2byte	0x4
 9534 015f F3       		.byte	0xf3
 9535 0160 01       		.uleb128 0x1
 9536 0161 50       		.byte	0x50
 9537 0162 9F       		.byte	0x9f
 9538 0163 00000000 		.4byte	0
 9539 0167 00000000 		.4byte	0
 9540              	.LLST11:
 9541 016b 00000000 		.4byte	.LVL22
 9542 016f 06000000 		.4byte	.LVL23
 9543 0173 0100     		.2byte	0x1
 9544 0175 50       		.byte	0x50
 9545 0176 06000000 		.4byte	.LVL23
 9546 017a 0C000000 		.4byte	.LFE11
 9547 017e 0400     		.2byte	0x4
 9548 0180 F3       		.byte	0xf3
 9549 0181 01       		.uleb128 0x1
 9550 0182 50       		.byte	0x50
 9551 0183 9F       		.byte	0x9f
ARM GAS  C:\Users\brian\AppData\Local\Temp\ccmYYpDh.s 			page 208


 9552 0184 00000000 		.4byte	0
 9553 0188 00000000 		.4byte	0
 9554              	.LLST12:
 9555 018c 00000000 		.4byte	.LVL24
 9556 0190 06000000 		.4byte	.LVL25
 9557 0194 0100     		.2byte	0x1
 9558 0196 50       		.byte	0x50
 9559 0197 06000000 		.4byte	.LVL25
 9560 019b 0C000000 		.4byte	.LFE12
 9561 019f 0400     		.2byte	0x4
 9562 01a1 F3       		.byte	0xf3
 9563 01a2 01       		.uleb128 0x1
 9564 01a3 50       		.byte	0x50
 9565 01a4 9F       		.byte	0x9f
 9566 01a5 00000000 		.4byte	0
 9567 01a9 00000000 		.4byte	0
 9568              	.LLST13:
 9569 01ad 00000000 		.4byte	.LVL26
 9570 01b1 06000000 		.4byte	.LVL27
 9571 01b5 0100     		.2byte	0x1
 9572 01b7 50       		.byte	0x50
 9573 01b8 06000000 		.4byte	.LVL27
 9574 01bc 0C000000 		.4byte	.LFE13
 9575 01c0 0400     		.2byte	0x4
 9576 01c2 F3       		.byte	0xf3
 9577 01c3 01       		.uleb128 0x1
 9578 01c4 50       		.byte	0x50
 9579 01c5 9F       		.byte	0x9f
 9580 01c6 00000000 		.4byte	0
 9581 01ca 00000000 		.4byte	0
 9582              	.LLST14:
 9583 01ce 00000000 		.4byte	.LVL28
 9584 01d2 06000000 		.4byte	.LVL29
 9585 01d6 0100     		.2byte	0x1
 9586 01d8 50       		.byte	0x50
 9587 01d9 06000000 		.4byte	.LVL29
 9588 01dd 0C000000 		.4byte	.LFE14
 9589 01e1 0400     		.2byte	0x4
 9590 01e3 F3       		.byte	0xf3
 9591 01e4 01       		.uleb128 0x1
 9592 01e5 50       		.byte	0x50
 9593 01e6 9F       		.byte	0x9f
 9594 01e7 00000000 		.4byte	0
 9595 01eb 00000000 		.4byte	0
 9596              	.LLST15:
 9597 01ef 00000000 		.4byte	.LVL30
 9598 01f3 06000000 		.4byte	.LVL31
 9599 01f7 0100     		.2byte	0x1
 9600 01f9 50       		.byte	0x50
 9601 01fa 06000000 		.4byte	.LVL31
 9602 01fe 0C000000 		.4byte	.LFE15
 9603 0202 0400     		.2byte	0x4
 9604 0204 F3       		.byte	0xf3
 9605 0205 01       		.uleb128 0x1
 9606 0206 50       		.byte	0x50
 9607 0207 9F       		.byte	0x9f
 9608 0208 00000000 		.4byte	0
ARM GAS  C:\Users\brian\AppData\Local\Temp\ccmYYpDh.s 			page 209


 9609 020c 00000000 		.4byte	0
 9610              	.LLST16:
 9611 0210 00000000 		.4byte	.LVL32
 9612 0214 06000000 		.4byte	.LVL33
 9613 0218 0100     		.2byte	0x1
 9614 021a 50       		.byte	0x50
 9615 021b 06000000 		.4byte	.LVL33
 9616 021f 0C000000 		.4byte	.LFE16
 9617 0223 0400     		.2byte	0x4
 9618 0225 F3       		.byte	0xf3
 9619 0226 01       		.uleb128 0x1
 9620 0227 50       		.byte	0x50
 9621 0228 9F       		.byte	0x9f
 9622 0229 00000000 		.4byte	0
 9623 022d 00000000 		.4byte	0
 9624              	.LLST17:
 9625 0231 00000000 		.4byte	.LVL34
 9626 0235 06000000 		.4byte	.LVL35
 9627 0239 0100     		.2byte	0x1
 9628 023b 50       		.byte	0x50
 9629 023c 06000000 		.4byte	.LVL35
 9630 0240 0C000000 		.4byte	.LFE17
 9631 0244 0400     		.2byte	0x4
 9632 0246 F3       		.byte	0xf3
 9633 0247 01       		.uleb128 0x1
 9634 0248 50       		.byte	0x50
 9635 0249 9F       		.byte	0x9f
 9636 024a 00000000 		.4byte	0
 9637 024e 00000000 		.4byte	0
 9638              	.LLST18:
 9639 0252 00000000 		.4byte	.LVL36
 9640 0256 06000000 		.4byte	.LVL37
 9641 025a 0100     		.2byte	0x1
 9642 025c 50       		.byte	0x50
 9643 025d 06000000 		.4byte	.LVL37
 9644 0261 0C000000 		.4byte	.LFE18
 9645 0265 0400     		.2byte	0x4
 9646 0267 F3       		.byte	0xf3
 9647 0268 01       		.uleb128 0x1
 9648 0269 50       		.byte	0x50
 9649 026a 9F       		.byte	0x9f
 9650 026b 00000000 		.4byte	0
 9651 026f 00000000 		.4byte	0
 9652              	.LLST19:
 9653 0273 00000000 		.4byte	.LVL38
 9654 0277 06000000 		.4byte	.LVL39
 9655 027b 0100     		.2byte	0x1
 9656 027d 50       		.byte	0x50
 9657 027e 06000000 		.4byte	.LVL39
 9658 0282 0C000000 		.4byte	.LFE19
 9659 0286 0400     		.2byte	0x4
 9660 0288 F3       		.byte	0xf3
 9661 0289 01       		.uleb128 0x1
 9662 028a 50       		.byte	0x50
 9663 028b 9F       		.byte	0x9f
 9664 028c 00000000 		.4byte	0
 9665 0290 00000000 		.4byte	0
ARM GAS  C:\Users\brian\AppData\Local\Temp\ccmYYpDh.s 			page 210


 9666              	.LLST20:
 9667 0294 00000000 		.4byte	.LVL40
 9668 0298 06000000 		.4byte	.LVL41
 9669 029c 0100     		.2byte	0x1
 9670 029e 50       		.byte	0x50
 9671 029f 06000000 		.4byte	.LVL41
 9672 02a3 0C000000 		.4byte	.LFE20
 9673 02a7 0400     		.2byte	0x4
 9674 02a9 F3       		.byte	0xf3
 9675 02aa 01       		.uleb128 0x1
 9676 02ab 50       		.byte	0x50
 9677 02ac 9F       		.byte	0x9f
 9678 02ad 00000000 		.4byte	0
 9679 02b1 00000000 		.4byte	0
 9680              	.LLST21:
 9681 02b5 00000000 		.4byte	.LVL42
 9682 02b9 06000000 		.4byte	.LVL43
 9683 02bd 0100     		.2byte	0x1
 9684 02bf 50       		.byte	0x50
 9685 02c0 06000000 		.4byte	.LVL43
 9686 02c4 0C000000 		.4byte	.LFE21
 9687 02c8 0400     		.2byte	0x4
 9688 02ca F3       		.byte	0xf3
 9689 02cb 01       		.uleb128 0x1
 9690 02cc 50       		.byte	0x50
 9691 02cd 9F       		.byte	0x9f
 9692 02ce 00000000 		.4byte	0
 9693 02d2 00000000 		.4byte	0
 9694              	.LLST22:
 9695 02d6 00000000 		.4byte	.LVL44
 9696 02da 06000000 		.4byte	.LVL45
 9697 02de 0100     		.2byte	0x1
 9698 02e0 50       		.byte	0x50
 9699 02e1 06000000 		.4byte	.LVL45
 9700 02e5 0C000000 		.4byte	.LFE22
 9701 02e9 0400     		.2byte	0x4
 9702 02eb F3       		.byte	0xf3
 9703 02ec 01       		.uleb128 0x1
 9704 02ed 50       		.byte	0x50
 9705 02ee 9F       		.byte	0x9f
 9706 02ef 00000000 		.4byte	0
 9707 02f3 00000000 		.4byte	0
 9708              	.LLST23:
 9709 02f7 00000000 		.4byte	.LVL46
 9710 02fb 06000000 		.4byte	.LVL47
 9711 02ff 0100     		.2byte	0x1
 9712 0301 50       		.byte	0x50
 9713 0302 06000000 		.4byte	.LVL47
 9714 0306 0C000000 		.4byte	.LFE23
 9715 030a 0400     		.2byte	0x4
 9716 030c F3       		.byte	0xf3
 9717 030d 01       		.uleb128 0x1
 9718 030e 50       		.byte	0x50
 9719 030f 9F       		.byte	0x9f
 9720 0310 00000000 		.4byte	0
 9721 0314 00000000 		.4byte	0
 9722              	.LLST24:
ARM GAS  C:\Users\brian\AppData\Local\Temp\ccmYYpDh.s 			page 211


 9723 0318 00000000 		.4byte	.LVL48
 9724 031c 06000000 		.4byte	.LVL49
 9725 0320 0100     		.2byte	0x1
 9726 0322 50       		.byte	0x50
 9727 0323 06000000 		.4byte	.LVL49
 9728 0327 0C000000 		.4byte	.LFE24
 9729 032b 0400     		.2byte	0x4
 9730 032d F3       		.byte	0xf3
 9731 032e 01       		.uleb128 0x1
 9732 032f 50       		.byte	0x50
 9733 0330 9F       		.byte	0x9f
 9734 0331 00000000 		.4byte	0
 9735 0335 00000000 		.4byte	0
 9736              	.LLST25:
 9737 0339 00000000 		.4byte	.LVL50
 9738 033d 06000000 		.4byte	.LVL51
 9739 0341 0100     		.2byte	0x1
 9740 0343 50       		.byte	0x50
 9741 0344 06000000 		.4byte	.LVL51
 9742 0348 0C000000 		.4byte	.LFE25
 9743 034c 0400     		.2byte	0x4
 9744 034e F3       		.byte	0xf3
 9745 034f 01       		.uleb128 0x1
 9746 0350 50       		.byte	0x50
 9747 0351 9F       		.byte	0x9f
 9748 0352 00000000 		.4byte	0
 9749 0356 00000000 		.4byte	0
 9750              	.LLST26:
 9751 035a 00000000 		.4byte	.LVL52
 9752 035e 06000000 		.4byte	.LVL53
 9753 0362 0100     		.2byte	0x1
 9754 0364 50       		.byte	0x50
 9755 0365 06000000 		.4byte	.LVL53
 9756 0369 0C000000 		.4byte	.LFE26
 9757 036d 0400     		.2byte	0x4
 9758 036f F3       		.byte	0xf3
 9759 0370 01       		.uleb128 0x1
 9760 0371 50       		.byte	0x50
 9761 0372 9F       		.byte	0x9f
 9762 0373 00000000 		.4byte	0
 9763 0377 00000000 		.4byte	0
 9764              	.LLST27:
 9765 037b 00000000 		.4byte	.LVL54
 9766 037f 06000000 		.4byte	.LVL55
 9767 0383 0100     		.2byte	0x1
 9768 0385 50       		.byte	0x50
 9769 0386 06000000 		.4byte	.LVL55
 9770 038a 0C000000 		.4byte	.LFE27
 9771 038e 0400     		.2byte	0x4
 9772 0390 F3       		.byte	0xf3
 9773 0391 01       		.uleb128 0x1
 9774 0392 50       		.byte	0x50
 9775 0393 9F       		.byte	0x9f
 9776 0394 00000000 		.4byte	0
 9777 0398 00000000 		.4byte	0
 9778              	.LLST28:
 9779 039c 00000000 		.4byte	.LVL56
ARM GAS  C:\Users\brian\AppData\Local\Temp\ccmYYpDh.s 			page 212


 9780 03a0 06000000 		.4byte	.LVL57
 9781 03a4 0100     		.2byte	0x1
 9782 03a6 50       		.byte	0x50
 9783 03a7 06000000 		.4byte	.LVL57
 9784 03ab 0C000000 		.4byte	.LFE28
 9785 03af 0400     		.2byte	0x4
 9786 03b1 F3       		.byte	0xf3
 9787 03b2 01       		.uleb128 0x1
 9788 03b3 50       		.byte	0x50
 9789 03b4 9F       		.byte	0x9f
 9790 03b5 00000000 		.4byte	0
 9791 03b9 00000000 		.4byte	0
 9792              	.LLST29:
 9793 03bd 00000000 		.4byte	.LVL58
 9794 03c1 06000000 		.4byte	.LVL59
 9795 03c5 0100     		.2byte	0x1
 9796 03c7 50       		.byte	0x50
 9797 03c8 06000000 		.4byte	.LVL59
 9798 03cc 0C000000 		.4byte	.LFE29
 9799 03d0 0400     		.2byte	0x4
 9800 03d2 F3       		.byte	0xf3
 9801 03d3 01       		.uleb128 0x1
 9802 03d4 50       		.byte	0x50
 9803 03d5 9F       		.byte	0x9f
 9804 03d6 00000000 		.4byte	0
 9805 03da 00000000 		.4byte	0
 9806              	.LLST30:
 9807 03de 00000000 		.4byte	.LVL60
 9808 03e2 06000000 		.4byte	.LVL61
 9809 03e6 0100     		.2byte	0x1
 9810 03e8 50       		.byte	0x50
 9811 03e9 06000000 		.4byte	.LVL61
 9812 03ed 0C000000 		.4byte	.LFE30
 9813 03f1 0400     		.2byte	0x4
 9814 03f3 F3       		.byte	0xf3
 9815 03f4 01       		.uleb128 0x1
 9816 03f5 50       		.byte	0x50
 9817 03f6 9F       		.byte	0x9f
 9818 03f7 00000000 		.4byte	0
 9819 03fb 00000000 		.4byte	0
 9820              	.LLST31:
 9821 03ff 00000000 		.4byte	.LVL62
 9822 0403 06000000 		.4byte	.LVL63
 9823 0407 0100     		.2byte	0x1
 9824 0409 50       		.byte	0x50
 9825 040a 06000000 		.4byte	.LVL63
 9826 040e 0C000000 		.4byte	.LFE31
 9827 0412 0400     		.2byte	0x4
 9828 0414 F3       		.byte	0xf3
 9829 0415 01       		.uleb128 0x1
 9830 0416 50       		.byte	0x50
 9831 0417 9F       		.byte	0x9f
 9832 0418 00000000 		.4byte	0
 9833 041c 00000000 		.4byte	0
 9834              	.LLST32:
 9835 0420 00000000 		.4byte	.LVL64
 9836 0424 06000000 		.4byte	.LVL65
ARM GAS  C:\Users\brian\AppData\Local\Temp\ccmYYpDh.s 			page 213


 9837 0428 0100     		.2byte	0x1
 9838 042a 50       		.byte	0x50
 9839 042b 06000000 		.4byte	.LVL65
 9840 042f 0C000000 		.4byte	.LFE32
 9841 0433 0400     		.2byte	0x4
 9842 0435 F3       		.byte	0xf3
 9843 0436 01       		.uleb128 0x1
 9844 0437 50       		.byte	0x50
 9845 0438 9F       		.byte	0x9f
 9846 0439 00000000 		.4byte	0
 9847 043d 00000000 		.4byte	0
 9848              	.LLST33:
 9849 0441 00000000 		.4byte	.LVL66
 9850 0445 06000000 		.4byte	.LVL67
 9851 0449 0100     		.2byte	0x1
 9852 044b 50       		.byte	0x50
 9853 044c 06000000 		.4byte	.LVL67
 9854 0450 0C000000 		.4byte	.LFE33
 9855 0454 0400     		.2byte	0x4
 9856 0456 F3       		.byte	0xf3
 9857 0457 01       		.uleb128 0x1
 9858 0458 50       		.byte	0x50
 9859 0459 9F       		.byte	0x9f
 9860 045a 00000000 		.4byte	0
 9861 045e 00000000 		.4byte	0
 9862              	.LLST34:
 9863 0462 00000000 		.4byte	.LVL68
 9864 0466 06000000 		.4byte	.LVL69
 9865 046a 0100     		.2byte	0x1
 9866 046c 50       		.byte	0x50
 9867 046d 06000000 		.4byte	.LVL69
 9868 0471 0C000000 		.4byte	.LFE34
 9869 0475 0400     		.2byte	0x4
 9870 0477 F3       		.byte	0xf3
 9871 0478 01       		.uleb128 0x1
 9872 0479 50       		.byte	0x50
 9873 047a 9F       		.byte	0x9f
 9874 047b 00000000 		.4byte	0
 9875 047f 00000000 		.4byte	0
 9876              	.LLST35:
 9877 0483 00000000 		.4byte	.LVL70
 9878 0487 06000000 		.4byte	.LVL71
 9879 048b 0100     		.2byte	0x1
 9880 048d 50       		.byte	0x50
 9881 048e 06000000 		.4byte	.LVL71
 9882 0492 0C000000 		.4byte	.LFE35
 9883 0496 0400     		.2byte	0x4
 9884 0498 F3       		.byte	0xf3
 9885 0499 01       		.uleb128 0x1
 9886 049a 50       		.byte	0x50
 9887 049b 9F       		.byte	0x9f
 9888 049c 00000000 		.4byte	0
 9889 04a0 00000000 		.4byte	0
 9890              	.LLST36:
 9891 04a4 00000000 		.4byte	.LVL72
 9892 04a8 06000000 		.4byte	.LVL73
 9893 04ac 0100     		.2byte	0x1
ARM GAS  C:\Users\brian\AppData\Local\Temp\ccmYYpDh.s 			page 214


 9894 04ae 50       		.byte	0x50
 9895 04af 06000000 		.4byte	.LVL73
 9896 04b3 0C000000 		.4byte	.LFE36
 9897 04b7 0400     		.2byte	0x4
 9898 04b9 F3       		.byte	0xf3
 9899 04ba 01       		.uleb128 0x1
 9900 04bb 50       		.byte	0x50
 9901 04bc 9F       		.byte	0x9f
 9902 04bd 00000000 		.4byte	0
 9903 04c1 00000000 		.4byte	0
 9904              	.LLST37:
 9905 04c5 00000000 		.4byte	.LVL74
 9906 04c9 06000000 		.4byte	.LVL75
 9907 04cd 0100     		.2byte	0x1
 9908 04cf 50       		.byte	0x50
 9909 04d0 06000000 		.4byte	.LVL75
 9910 04d4 0C000000 		.4byte	.LFE37
 9911 04d8 0400     		.2byte	0x4
 9912 04da F3       		.byte	0xf3
 9913 04db 01       		.uleb128 0x1
 9914 04dc 50       		.byte	0x50
 9915 04dd 9F       		.byte	0x9f
 9916 04de 00000000 		.4byte	0
 9917 04e2 00000000 		.4byte	0
 9918              	.LLST38:
 9919 04e6 00000000 		.4byte	.LVL76
 9920 04ea 06000000 		.4byte	.LVL77
 9921 04ee 0100     		.2byte	0x1
 9922 04f0 50       		.byte	0x50
 9923 04f1 06000000 		.4byte	.LVL77
 9924 04f5 0C000000 		.4byte	.LFE38
 9925 04f9 0400     		.2byte	0x4
 9926 04fb F3       		.byte	0xf3
 9927 04fc 01       		.uleb128 0x1
 9928 04fd 50       		.byte	0x50
 9929 04fe 9F       		.byte	0x9f
 9930 04ff 00000000 		.4byte	0
 9931 0503 00000000 		.4byte	0
 9932              	.LLST39:
 9933 0507 00000000 		.4byte	.LVL78
 9934 050b 06000000 		.4byte	.LVL79
 9935 050f 0100     		.2byte	0x1
 9936 0511 50       		.byte	0x50
 9937 0512 06000000 		.4byte	.LVL79
 9938 0516 0C000000 		.4byte	.LFE39
 9939 051a 0400     		.2byte	0x4
 9940 051c F3       		.byte	0xf3
 9941 051d 01       		.uleb128 0x1
 9942 051e 50       		.byte	0x50
 9943 051f 9F       		.byte	0x9f
 9944 0520 00000000 		.4byte	0
 9945 0524 00000000 		.4byte	0
 9946              	.LLST40:
 9947 0528 00000000 		.4byte	.LVL80
 9948 052c 06000000 		.4byte	.LVL81
 9949 0530 0100     		.2byte	0x1
 9950 0532 50       		.byte	0x50
ARM GAS  C:\Users\brian\AppData\Local\Temp\ccmYYpDh.s 			page 215


 9951 0533 06000000 		.4byte	.LVL81
 9952 0537 0C000000 		.4byte	.LFE40
 9953 053b 0400     		.2byte	0x4
 9954 053d F3       		.byte	0xf3
 9955 053e 01       		.uleb128 0x1
 9956 053f 50       		.byte	0x50
 9957 0540 9F       		.byte	0x9f
 9958 0541 00000000 		.4byte	0
 9959 0545 00000000 		.4byte	0
 9960              	.LLST41:
 9961 0549 00000000 		.4byte	.LVL82
 9962 054d 06000000 		.4byte	.LVL83
 9963 0551 0100     		.2byte	0x1
 9964 0553 50       		.byte	0x50
 9965 0554 06000000 		.4byte	.LVL83
 9966 0558 0C000000 		.4byte	.LFE41
 9967 055c 0400     		.2byte	0x4
 9968 055e F3       		.byte	0xf3
 9969 055f 01       		.uleb128 0x1
 9970 0560 50       		.byte	0x50
 9971 0561 9F       		.byte	0x9f
 9972 0562 00000000 		.4byte	0
 9973 0566 00000000 		.4byte	0
 9974              	.LLST42:
 9975 056a 00000000 		.4byte	.LVL84
 9976 056e 06000000 		.4byte	.LVL85
 9977 0572 0100     		.2byte	0x1
 9978 0574 50       		.byte	0x50
 9979 0575 06000000 		.4byte	.LVL85
 9980 0579 0C000000 		.4byte	.LFE42
 9981 057d 0400     		.2byte	0x4
 9982 057f F3       		.byte	0xf3
 9983 0580 01       		.uleb128 0x1
 9984 0581 50       		.byte	0x50
 9985 0582 9F       		.byte	0x9f
 9986 0583 00000000 		.4byte	0
 9987 0587 00000000 		.4byte	0
 9988              	.LLST43:
 9989 058b 00000000 		.4byte	.LVL86
 9990 058f 06000000 		.4byte	.LVL87
 9991 0593 0100     		.2byte	0x1
 9992 0595 50       		.byte	0x50
 9993 0596 06000000 		.4byte	.LVL87
 9994 059a 0C000000 		.4byte	.LFE43
 9995 059e 0400     		.2byte	0x4
 9996 05a0 F3       		.byte	0xf3
 9997 05a1 01       		.uleb128 0x1
 9998 05a2 50       		.byte	0x50
 9999 05a3 9F       		.byte	0x9f
 10000 05a4 00000000 		.4byte	0
 10001 05a8 00000000 		.4byte	0
 10002              	.LLST44:
 10003 05ac 00000000 		.4byte	.LVL88
 10004 05b0 06000000 		.4byte	.LVL89
 10005 05b4 0100     		.2byte	0x1
 10006 05b6 50       		.byte	0x50
 10007 05b7 06000000 		.4byte	.LVL89
ARM GAS  C:\Users\brian\AppData\Local\Temp\ccmYYpDh.s 			page 216


 10008 05bb 0C000000 		.4byte	.LFE44
 10009 05bf 0400     		.2byte	0x4
 10010 05c1 F3       		.byte	0xf3
 10011 05c2 01       		.uleb128 0x1
 10012 05c3 50       		.byte	0x50
 10013 05c4 9F       		.byte	0x9f
 10014 05c5 00000000 		.4byte	0
 10015 05c9 00000000 		.4byte	0
 10016              	.LLST45:
 10017 05cd 00000000 		.4byte	.LVL90
 10018 05d1 06000000 		.4byte	.LVL91
 10019 05d5 0100     		.2byte	0x1
 10020 05d7 50       		.byte	0x50
 10021 05d8 06000000 		.4byte	.LVL91
 10022 05dc 0C000000 		.4byte	.LFE45
 10023 05e0 0400     		.2byte	0x4
 10024 05e2 F3       		.byte	0xf3
 10025 05e3 01       		.uleb128 0x1
 10026 05e4 50       		.byte	0x50
 10027 05e5 9F       		.byte	0x9f
 10028 05e6 00000000 		.4byte	0
 10029 05ea 00000000 		.4byte	0
 10030              	.LLST46:
 10031 05ee 00000000 		.4byte	.LVL92
 10032 05f2 06000000 		.4byte	.LVL93
 10033 05f6 0100     		.2byte	0x1
 10034 05f8 50       		.byte	0x50
 10035 05f9 06000000 		.4byte	.LVL93
 10036 05fd 0C000000 		.4byte	.LFE46
 10037 0601 0400     		.2byte	0x4
 10038 0603 F3       		.byte	0xf3
 10039 0604 01       		.uleb128 0x1
 10040 0605 50       		.byte	0x50
 10041 0606 9F       		.byte	0x9f
 10042 0607 00000000 		.4byte	0
 10043 060b 00000000 		.4byte	0
 10044              	.LLST47:
 10045 060f 00000000 		.4byte	.LVL94
 10046 0613 06000000 		.4byte	.LVL95
 10047 0617 0100     		.2byte	0x1
 10048 0619 50       		.byte	0x50
 10049 061a 06000000 		.4byte	.LVL95
 10050 061e 0C000000 		.4byte	.LFE47
 10051 0622 0400     		.2byte	0x4
 10052 0624 F3       		.byte	0xf3
 10053 0625 01       		.uleb128 0x1
 10054 0626 50       		.byte	0x50
 10055 0627 9F       		.byte	0x9f
 10056 0628 00000000 		.4byte	0
 10057 062c 00000000 		.4byte	0
 10058              	.LLST48:
 10059 0630 00000000 		.4byte	.LVL96
 10060 0634 06000000 		.4byte	.LVL97
 10061 0638 0100     		.2byte	0x1
 10062 063a 50       		.byte	0x50
 10063 063b 06000000 		.4byte	.LVL97
 10064 063f 0C000000 		.4byte	.LFE48
ARM GAS  C:\Users\brian\AppData\Local\Temp\ccmYYpDh.s 			page 217


 10065 0643 0400     		.2byte	0x4
 10066 0645 F3       		.byte	0xf3
 10067 0646 01       		.uleb128 0x1
 10068 0647 50       		.byte	0x50
 10069 0648 9F       		.byte	0x9f
 10070 0649 00000000 		.4byte	0
 10071 064d 00000000 		.4byte	0
 10072              	.LLST49:
 10073 0651 00000000 		.4byte	.LVL98
 10074 0655 06000000 		.4byte	.LVL99
 10075 0659 0100     		.2byte	0x1
 10076 065b 50       		.byte	0x50
 10077 065c 06000000 		.4byte	.LVL99
 10078 0660 0C000000 		.4byte	.LFE49
 10079 0664 0400     		.2byte	0x4
 10080 0666 F3       		.byte	0xf3
 10081 0667 01       		.uleb128 0x1
 10082 0668 50       		.byte	0x50
 10083 0669 9F       		.byte	0x9f
 10084 066a 00000000 		.4byte	0
 10085 066e 00000000 		.4byte	0
 10086              	.LLST50:
 10087 0672 00000000 		.4byte	.LVL100
 10088 0676 06000000 		.4byte	.LVL101
 10089 067a 0100     		.2byte	0x1
 10090 067c 50       		.byte	0x50
 10091 067d 06000000 		.4byte	.LVL101
 10092 0681 0C000000 		.4byte	.LFE50
 10093 0685 0400     		.2byte	0x4
 10094 0687 F3       		.byte	0xf3
 10095 0688 01       		.uleb128 0x1
 10096 0689 50       		.byte	0x50
 10097 068a 9F       		.byte	0x9f
 10098 068b 00000000 		.4byte	0
 10099 068f 00000000 		.4byte	0
 10100              	.LLST51:
 10101 0693 00000000 		.4byte	.LVL102
 10102 0697 06000000 		.4byte	.LVL103
 10103 069b 0100     		.2byte	0x1
 10104 069d 50       		.byte	0x50
 10105 069e 06000000 		.4byte	.LVL103
 10106 06a2 0C000000 		.4byte	.LFE51
 10107 06a6 0400     		.2byte	0x4
 10108 06a8 F3       		.byte	0xf3
 10109 06a9 01       		.uleb128 0x1
 10110 06aa 50       		.byte	0x50
 10111 06ab 9F       		.byte	0x9f
 10112 06ac 00000000 		.4byte	0
 10113 06b0 00000000 		.4byte	0
 10114              	.LLST52:
 10115 06b4 00000000 		.4byte	.LVL104
 10116 06b8 06000000 		.4byte	.LVL105
 10117 06bc 0100     		.2byte	0x1
 10118 06be 50       		.byte	0x50
 10119 06bf 06000000 		.4byte	.LVL105
 10120 06c3 0C000000 		.4byte	.LFE52
 10121 06c7 0400     		.2byte	0x4
ARM GAS  C:\Users\brian\AppData\Local\Temp\ccmYYpDh.s 			page 218


 10122 06c9 F3       		.byte	0xf3
 10123 06ca 01       		.uleb128 0x1
 10124 06cb 50       		.byte	0x50
 10125 06cc 9F       		.byte	0x9f
 10126 06cd 00000000 		.4byte	0
 10127 06d1 00000000 		.4byte	0
 10128              	.LLST53:
 10129 06d5 00000000 		.4byte	.LVL106
 10130 06d9 06000000 		.4byte	.LVL107
 10131 06dd 0100     		.2byte	0x1
 10132 06df 50       		.byte	0x50
 10133 06e0 06000000 		.4byte	.LVL107
 10134 06e4 0C000000 		.4byte	.LFE53
 10135 06e8 0400     		.2byte	0x4
 10136 06ea F3       		.byte	0xf3
 10137 06eb 01       		.uleb128 0x1
 10138 06ec 50       		.byte	0x50
 10139 06ed 9F       		.byte	0x9f
 10140 06ee 00000000 		.4byte	0
 10141 06f2 00000000 		.4byte	0
 10142              	.LLST54:
 10143 06f6 00000000 		.4byte	.LVL108
 10144 06fa 06000000 		.4byte	.LVL109
 10145 06fe 0100     		.2byte	0x1
 10146 0700 50       		.byte	0x50
 10147 0701 06000000 		.4byte	.LVL109
 10148 0705 0C000000 		.4byte	.LFE54
 10149 0709 0400     		.2byte	0x4
 10150 070b F3       		.byte	0xf3
 10151 070c 01       		.uleb128 0x1
 10152 070d 50       		.byte	0x50
 10153 070e 9F       		.byte	0x9f
 10154 070f 00000000 		.4byte	0
 10155 0713 00000000 		.4byte	0
 10156              	.LLST55:
 10157 0717 00000000 		.4byte	.LVL110
 10158 071b 06000000 		.4byte	.LVL111
 10159 071f 0100     		.2byte	0x1
 10160 0721 50       		.byte	0x50
 10161 0722 06000000 		.4byte	.LVL111
 10162 0726 0C000000 		.4byte	.LFE55
 10163 072a 0400     		.2byte	0x4
 10164 072c F3       		.byte	0xf3
 10165 072d 01       		.uleb128 0x1
 10166 072e 50       		.byte	0x50
 10167 072f 9F       		.byte	0x9f
 10168 0730 00000000 		.4byte	0
 10169 0734 00000000 		.4byte	0
 10170              	.LLST56:
 10171 0738 00000000 		.4byte	.LVL112
 10172 073c 06000000 		.4byte	.LVL113
 10173 0740 0100     		.2byte	0x1
 10174 0742 50       		.byte	0x50
 10175 0743 06000000 		.4byte	.LVL113
 10176 0747 0C000000 		.4byte	.LFE56
 10177 074b 0400     		.2byte	0x4
 10178 074d F3       		.byte	0xf3
ARM GAS  C:\Users\brian\AppData\Local\Temp\ccmYYpDh.s 			page 219


 10179 074e 01       		.uleb128 0x1
 10180 074f 50       		.byte	0x50
 10181 0750 9F       		.byte	0x9f
 10182 0751 00000000 		.4byte	0
 10183 0755 00000000 		.4byte	0
 10184              	.LLST57:
 10185 0759 00000000 		.4byte	.LVL114
 10186 075d 06000000 		.4byte	.LVL115
 10187 0761 0100     		.2byte	0x1
 10188 0763 50       		.byte	0x50
 10189 0764 06000000 		.4byte	.LVL115
 10190 0768 0C000000 		.4byte	.LFE57
 10191 076c 0400     		.2byte	0x4
 10192 076e F3       		.byte	0xf3
 10193 076f 01       		.uleb128 0x1
 10194 0770 50       		.byte	0x50
 10195 0771 9F       		.byte	0x9f
 10196 0772 00000000 		.4byte	0
 10197 0776 00000000 		.4byte	0
 10198              	.LLST58:
 10199 077a 00000000 		.4byte	.LVL116
 10200 077e 06000000 		.4byte	.LVL117
 10201 0782 0100     		.2byte	0x1
 10202 0784 50       		.byte	0x50
 10203 0785 06000000 		.4byte	.LVL117
 10204 0789 0C000000 		.4byte	.LFE58
 10205 078d 0400     		.2byte	0x4
 10206 078f F3       		.byte	0xf3
 10207 0790 01       		.uleb128 0x1
 10208 0791 50       		.byte	0x50
 10209 0792 9F       		.byte	0x9f
 10210 0793 00000000 		.4byte	0
 10211 0797 00000000 		.4byte	0
 10212              	.LLST59:
 10213 079b 00000000 		.4byte	.LVL118
 10214 079f 06000000 		.4byte	.LVL119
 10215 07a3 0100     		.2byte	0x1
 10216 07a5 50       		.byte	0x50
 10217 07a6 06000000 		.4byte	.LVL119
 10218 07aa 0C000000 		.4byte	.LFE59
 10219 07ae 0400     		.2byte	0x4
 10220 07b0 F3       		.byte	0xf3
 10221 07b1 01       		.uleb128 0x1
 10222 07b2 50       		.byte	0x50
 10223 07b3 9F       		.byte	0x9f
 10224 07b4 00000000 		.4byte	0
 10225 07b8 00000000 		.4byte	0
 10226              	.LLST60:
 10227 07bc 00000000 		.4byte	.LVL120
 10228 07c0 06000000 		.4byte	.LVL121
 10229 07c4 0100     		.2byte	0x1
 10230 07c6 50       		.byte	0x50
 10231 07c7 06000000 		.4byte	.LVL121
 10232 07cb 0C000000 		.4byte	.LFE60
 10233 07cf 0400     		.2byte	0x4
 10234 07d1 F3       		.byte	0xf3
 10235 07d2 01       		.uleb128 0x1
ARM GAS  C:\Users\brian\AppData\Local\Temp\ccmYYpDh.s 			page 220


 10236 07d3 50       		.byte	0x50
 10237 07d4 9F       		.byte	0x9f
 10238 07d5 00000000 		.4byte	0
 10239 07d9 00000000 		.4byte	0
 10240              	.LLST61:
 10241 07dd 00000000 		.4byte	.LVL122
 10242 07e1 06000000 		.4byte	.LVL123
 10243 07e5 0100     		.2byte	0x1
 10244 07e7 50       		.byte	0x50
 10245 07e8 06000000 		.4byte	.LVL123
 10246 07ec 0C000000 		.4byte	.LFE61
 10247 07f0 0400     		.2byte	0x4
 10248 07f2 F3       		.byte	0xf3
 10249 07f3 01       		.uleb128 0x1
 10250 07f4 50       		.byte	0x50
 10251 07f5 9F       		.byte	0x9f
 10252 07f6 00000000 		.4byte	0
 10253 07fa 00000000 		.4byte	0
 10254              	.LLST62:
 10255 07fe 00000000 		.4byte	.LVL124
 10256 0802 06000000 		.4byte	.LVL125
 10257 0806 0100     		.2byte	0x1
 10258 0808 50       		.byte	0x50
 10259 0809 06000000 		.4byte	.LVL125
 10260 080d 0C000000 		.4byte	.LFE62
 10261 0811 0400     		.2byte	0x4
 10262 0813 F3       		.byte	0xf3
 10263 0814 01       		.uleb128 0x1
 10264 0815 50       		.byte	0x50
 10265 0816 9F       		.byte	0x9f
 10266 0817 00000000 		.4byte	0
 10267 081b 00000000 		.4byte	0
 10268              	.LLST63:
 10269 081f 00000000 		.4byte	.LVL126
 10270 0823 06000000 		.4byte	.LVL127
 10271 0827 0100     		.2byte	0x1
 10272 0829 50       		.byte	0x50
 10273 082a 06000000 		.4byte	.LVL127
 10274 082e 0C000000 		.4byte	.LFE63
 10275 0832 0400     		.2byte	0x4
 10276 0834 F3       		.byte	0xf3
 10277 0835 01       		.uleb128 0x1
 10278 0836 50       		.byte	0x50
 10279 0837 9F       		.byte	0x9f
 10280 0838 00000000 		.4byte	0
 10281 083c 00000000 		.4byte	0
 10282              	.LLST64:
 10283 0840 00000000 		.4byte	.LVL128
 10284 0844 06000000 		.4byte	.LVL129
 10285 0848 0100     		.2byte	0x1
 10286 084a 50       		.byte	0x50
 10287 084b 06000000 		.4byte	.LVL129
 10288 084f 0C000000 		.4byte	.LFE64
 10289 0853 0400     		.2byte	0x4
 10290 0855 F3       		.byte	0xf3
 10291 0856 01       		.uleb128 0x1
 10292 0857 50       		.byte	0x50
ARM GAS  C:\Users\brian\AppData\Local\Temp\ccmYYpDh.s 			page 221


 10293 0858 9F       		.byte	0x9f
 10294 0859 00000000 		.4byte	0
 10295 085d 00000000 		.4byte	0
 10296              	.LLST65:
 10297 0861 00000000 		.4byte	.LVL130
 10298 0865 06000000 		.4byte	.LVL131
 10299 0869 0100     		.2byte	0x1
 10300 086b 50       		.byte	0x50
 10301 086c 06000000 		.4byte	.LVL131
 10302 0870 0C000000 		.4byte	.LFE65
 10303 0874 0400     		.2byte	0x4
 10304 0876 F3       		.byte	0xf3
 10305 0877 01       		.uleb128 0x1
 10306 0878 50       		.byte	0x50
 10307 0879 9F       		.byte	0x9f
 10308 087a 00000000 		.4byte	0
 10309 087e 00000000 		.4byte	0
 10310              	.LLST66:
 10311 0882 00000000 		.4byte	.LVL132
 10312 0886 06000000 		.4byte	.LVL133
 10313 088a 0100     		.2byte	0x1
 10314 088c 50       		.byte	0x50
 10315 088d 06000000 		.4byte	.LVL133
 10316 0891 0C000000 		.4byte	.LFE66
 10317 0895 0400     		.2byte	0x4
 10318 0897 F3       		.byte	0xf3
 10319 0898 01       		.uleb128 0x1
 10320 0899 50       		.byte	0x50
 10321 089a 9F       		.byte	0x9f
 10322 089b 00000000 		.4byte	0
 10323 089f 00000000 		.4byte	0
 10324              	.LLST67:
 10325 08a3 00000000 		.4byte	.LVL134
 10326 08a7 06000000 		.4byte	.LVL135
 10327 08ab 0100     		.2byte	0x1
 10328 08ad 50       		.byte	0x50
 10329 08ae 06000000 		.4byte	.LVL135
 10330 08b2 0C000000 		.4byte	.LFE67
 10331 08b6 0400     		.2byte	0x4
 10332 08b8 F3       		.byte	0xf3
 10333 08b9 01       		.uleb128 0x1
 10334 08ba 50       		.byte	0x50
 10335 08bb 9F       		.byte	0x9f
 10336 08bc 00000000 		.4byte	0
 10337 08c0 00000000 		.4byte	0
 10338              	.LLST68:
 10339 08c4 00000000 		.4byte	.LVL136
 10340 08c8 06000000 		.4byte	.LVL137
 10341 08cc 0100     		.2byte	0x1
 10342 08ce 50       		.byte	0x50
 10343 08cf 06000000 		.4byte	.LVL137
 10344 08d3 0C000000 		.4byte	.LFE68
 10345 08d7 0400     		.2byte	0x4
 10346 08d9 F3       		.byte	0xf3
 10347 08da 01       		.uleb128 0x1
 10348 08db 50       		.byte	0x50
 10349 08dc 9F       		.byte	0x9f
ARM GAS  C:\Users\brian\AppData\Local\Temp\ccmYYpDh.s 			page 222


 10350 08dd 00000000 		.4byte	0
 10351 08e1 00000000 		.4byte	0
 10352              	.LLST69:
 10353 08e5 00000000 		.4byte	.LVL138
 10354 08e9 06000000 		.4byte	.LVL139
 10355 08ed 0100     		.2byte	0x1
 10356 08ef 50       		.byte	0x50
 10357 08f0 06000000 		.4byte	.LVL139
 10358 08f4 0C000000 		.4byte	.LFE69
 10359 08f8 0400     		.2byte	0x4
 10360 08fa F3       		.byte	0xf3
 10361 08fb 01       		.uleb128 0x1
 10362 08fc 50       		.byte	0x50
 10363 08fd 9F       		.byte	0x9f
 10364 08fe 00000000 		.4byte	0
 10365 0902 00000000 		.4byte	0
 10366              	.LLST70:
 10367 0906 00000000 		.4byte	.LVL140
 10368 090a 06000000 		.4byte	.LVL141
 10369 090e 0100     		.2byte	0x1
 10370 0910 50       		.byte	0x50
 10371 0911 06000000 		.4byte	.LVL141
 10372 0915 0C000000 		.4byte	.LFE70
 10373 0919 0400     		.2byte	0x4
 10374 091b F3       		.byte	0xf3
 10375 091c 01       		.uleb128 0x1
 10376 091d 50       		.byte	0x50
 10377 091e 9F       		.byte	0x9f
 10378 091f 00000000 		.4byte	0
 10379 0923 00000000 		.4byte	0
 10380              	.LLST71:
 10381 0927 00000000 		.4byte	.LVL142
 10382 092b 06000000 		.4byte	.LVL143
 10383 092f 0100     		.2byte	0x1
 10384 0931 50       		.byte	0x50
 10385 0932 06000000 		.4byte	.LVL143
 10386 0936 0C000000 		.4byte	.LFE71
 10387 093a 0400     		.2byte	0x4
 10388 093c F3       		.byte	0xf3
 10389 093d 01       		.uleb128 0x1
 10390 093e 50       		.byte	0x50
 10391 093f 9F       		.byte	0x9f
 10392 0940 00000000 		.4byte	0
 10393 0944 00000000 		.4byte	0
 10394              	.LLST72:
 10395 0948 00000000 		.4byte	.LVL144
 10396 094c 06000000 		.4byte	.LVL145
 10397 0950 0100     		.2byte	0x1
 10398 0952 50       		.byte	0x50
 10399 0953 06000000 		.4byte	.LVL145
 10400 0957 0C000000 		.4byte	.LFE72
 10401 095b 0400     		.2byte	0x4
 10402 095d F3       		.byte	0xf3
 10403 095e 01       		.uleb128 0x1
 10404 095f 50       		.byte	0x50
 10405 0960 9F       		.byte	0x9f
 10406 0961 00000000 		.4byte	0
ARM GAS  C:\Users\brian\AppData\Local\Temp\ccmYYpDh.s 			page 223


 10407 0965 00000000 		.4byte	0
 10408              	.LLST73:
 10409 0969 00000000 		.4byte	.LVL146
 10410 096d 06000000 		.4byte	.LVL147
 10411 0971 0100     		.2byte	0x1
 10412 0973 50       		.byte	0x50
 10413 0974 06000000 		.4byte	.LVL147
 10414 0978 0C000000 		.4byte	.LFE73
 10415 097c 0400     		.2byte	0x4
 10416 097e F3       		.byte	0xf3
 10417 097f 01       		.uleb128 0x1
 10418 0980 50       		.byte	0x50
 10419 0981 9F       		.byte	0x9f
 10420 0982 00000000 		.4byte	0
 10421 0986 00000000 		.4byte	0
 10422              	.LLST74:
 10423 098a 00000000 		.4byte	.LVL148
 10424 098e 06000000 		.4byte	.LVL149
 10425 0992 0100     		.2byte	0x1
 10426 0994 50       		.byte	0x50
 10427 0995 06000000 		.4byte	.LVL149
 10428 0999 0C000000 		.4byte	.LFE74
 10429 099d 0400     		.2byte	0x4
 10430 099f F3       		.byte	0xf3
 10431 09a0 01       		.uleb128 0x1
 10432 09a1 50       		.byte	0x50
 10433 09a2 9F       		.byte	0x9f
 10434 09a3 00000000 		.4byte	0
 10435 09a7 00000000 		.4byte	0
 10436              	.LLST75:
 10437 09ab 00000000 		.4byte	.LVL150
 10438 09af 06000000 		.4byte	.LVL151
 10439 09b3 0100     		.2byte	0x1
 10440 09b5 50       		.byte	0x50
 10441 09b6 06000000 		.4byte	.LVL151
 10442 09ba 0C000000 		.4byte	.LFE75
 10443 09be 0400     		.2byte	0x4
 10444 09c0 F3       		.byte	0xf3
 10445 09c1 01       		.uleb128 0x1
 10446 09c2 50       		.byte	0x50
 10447 09c3 9F       		.byte	0x9f
 10448 09c4 00000000 		.4byte	0
 10449 09c8 00000000 		.4byte	0
 10450              	.LLST76:
 10451 09cc 00000000 		.4byte	.LVL152
 10452 09d0 06000000 		.4byte	.LVL153
 10453 09d4 0100     		.2byte	0x1
 10454 09d6 50       		.byte	0x50
 10455 09d7 06000000 		.4byte	.LVL153
 10456 09db 0C000000 		.4byte	.LFE76
 10457 09df 0400     		.2byte	0x4
 10458 09e1 F3       		.byte	0xf3
 10459 09e2 01       		.uleb128 0x1
 10460 09e3 50       		.byte	0x50
 10461 09e4 9F       		.byte	0x9f
 10462 09e5 00000000 		.4byte	0
 10463 09e9 00000000 		.4byte	0
ARM GAS  C:\Users\brian\AppData\Local\Temp\ccmYYpDh.s 			page 224


 10464              	.LLST77:
 10465 09ed 00000000 		.4byte	.LVL154
 10466 09f1 06000000 		.4byte	.LVL155
 10467 09f5 0100     		.2byte	0x1
 10468 09f7 50       		.byte	0x50
 10469 09f8 06000000 		.4byte	.LVL155
 10470 09fc 0C000000 		.4byte	.LFE77
 10471 0a00 0400     		.2byte	0x4
 10472 0a02 F3       		.byte	0xf3
 10473 0a03 01       		.uleb128 0x1
 10474 0a04 50       		.byte	0x50
 10475 0a05 9F       		.byte	0x9f
 10476 0a06 00000000 		.4byte	0
 10477 0a0a 00000000 		.4byte	0
 10478              	.LLST78:
 10479 0a0e 00000000 		.4byte	.LVL156
 10480 0a12 06000000 		.4byte	.LVL157
 10481 0a16 0100     		.2byte	0x1
 10482 0a18 50       		.byte	0x50
 10483 0a19 06000000 		.4byte	.LVL157
 10484 0a1d 0C000000 		.4byte	.LFE78
 10485 0a21 0400     		.2byte	0x4
 10486 0a23 F3       		.byte	0xf3
 10487 0a24 01       		.uleb128 0x1
 10488 0a25 50       		.byte	0x50
 10489 0a26 9F       		.byte	0x9f
 10490 0a27 00000000 		.4byte	0
 10491 0a2b 00000000 		.4byte	0
 10492              	.LLST79:
 10493 0a2f 00000000 		.4byte	.LVL158
 10494 0a33 06000000 		.4byte	.LVL159
 10495 0a37 0100     		.2byte	0x1
 10496 0a39 50       		.byte	0x50
 10497 0a3a 06000000 		.4byte	.LVL159
 10498 0a3e 0C000000 		.4byte	.LFE79
 10499 0a42 0400     		.2byte	0x4
 10500 0a44 F3       		.byte	0xf3
 10501 0a45 01       		.uleb128 0x1
 10502 0a46 50       		.byte	0x50
 10503 0a47 9F       		.byte	0x9f
 10504 0a48 00000000 		.4byte	0
 10505 0a4c 00000000 		.4byte	0
 10506              	.LLST80:
 10507 0a50 00000000 		.4byte	.LVL160
 10508 0a54 06000000 		.4byte	.LVL161
 10509 0a58 0100     		.2byte	0x1
 10510 0a5a 50       		.byte	0x50
 10511 0a5b 06000000 		.4byte	.LVL161
 10512 0a5f 0C000000 		.4byte	.LFE80
 10513 0a63 0400     		.2byte	0x4
 10514 0a65 F3       		.byte	0xf3
 10515 0a66 01       		.uleb128 0x1
 10516 0a67 50       		.byte	0x50
 10517 0a68 9F       		.byte	0x9f
 10518 0a69 00000000 		.4byte	0
 10519 0a6d 00000000 		.4byte	0
 10520              	.LLST81:
ARM GAS  C:\Users\brian\AppData\Local\Temp\ccmYYpDh.s 			page 225


 10521 0a71 00000000 		.4byte	.LVL162
 10522 0a75 06000000 		.4byte	.LVL163
 10523 0a79 0100     		.2byte	0x1
 10524 0a7b 50       		.byte	0x50
 10525 0a7c 06000000 		.4byte	.LVL163
 10526 0a80 0C000000 		.4byte	.LFE81
 10527 0a84 0400     		.2byte	0x4
 10528 0a86 F3       		.byte	0xf3
 10529 0a87 01       		.uleb128 0x1
 10530 0a88 50       		.byte	0x50
 10531 0a89 9F       		.byte	0x9f
 10532 0a8a 00000000 		.4byte	0
 10533 0a8e 00000000 		.4byte	0
 10534              	.LLST82:
 10535 0a92 00000000 		.4byte	.LVL164
 10536 0a96 06000000 		.4byte	.LVL165
 10537 0a9a 0100     		.2byte	0x1
 10538 0a9c 50       		.byte	0x50
 10539 0a9d 06000000 		.4byte	.LVL165
 10540 0aa1 0C000000 		.4byte	.LFE82
 10541 0aa5 0400     		.2byte	0x4
 10542 0aa7 F3       		.byte	0xf3
 10543 0aa8 01       		.uleb128 0x1
 10544 0aa9 50       		.byte	0x50
 10545 0aaa 9F       		.byte	0x9f
 10546 0aab 00000000 		.4byte	0
 10547 0aaf 00000000 		.4byte	0
 10548              	.LLST83:
 10549 0ab3 00000000 		.4byte	.LVL166
 10550 0ab7 06000000 		.4byte	.LVL167
 10551 0abb 0100     		.2byte	0x1
 10552 0abd 50       		.byte	0x50
 10553 0abe 06000000 		.4byte	.LVL167
 10554 0ac2 0C000000 		.4byte	.LFE83
 10555 0ac6 0400     		.2byte	0x4
 10556 0ac8 F3       		.byte	0xf3
 10557 0ac9 01       		.uleb128 0x1
 10558 0aca 50       		.byte	0x50
 10559 0acb 9F       		.byte	0x9f
 10560 0acc 00000000 		.4byte	0
 10561 0ad0 00000000 		.4byte	0
 10562              	.LLST84:
 10563 0ad4 00000000 		.4byte	.LVL168
 10564 0ad8 06000000 		.4byte	.LVL169
 10565 0adc 0100     		.2byte	0x1
 10566 0ade 50       		.byte	0x50
 10567 0adf 06000000 		.4byte	.LVL169
 10568 0ae3 0C000000 		.4byte	.LFE84
 10569 0ae7 0400     		.2byte	0x4
 10570 0ae9 F3       		.byte	0xf3
 10571 0aea 01       		.uleb128 0x1
 10572 0aeb 50       		.byte	0x50
 10573 0aec 9F       		.byte	0x9f
 10574 0aed 00000000 		.4byte	0
 10575 0af1 00000000 		.4byte	0
 10576              	.LLST85:
 10577 0af5 00000000 		.4byte	.LVL170
ARM GAS  C:\Users\brian\AppData\Local\Temp\ccmYYpDh.s 			page 226


 10578 0af9 06000000 		.4byte	.LVL171
 10579 0afd 0100     		.2byte	0x1
 10580 0aff 50       		.byte	0x50
 10581 0b00 06000000 		.4byte	.LVL171
 10582 0b04 0C000000 		.4byte	.LFE85
 10583 0b08 0400     		.2byte	0x4
 10584 0b0a F3       		.byte	0xf3
 10585 0b0b 01       		.uleb128 0x1
 10586 0b0c 50       		.byte	0x50
 10587 0b0d 9F       		.byte	0x9f
 10588 0b0e 00000000 		.4byte	0
 10589 0b12 00000000 		.4byte	0
 10590              	.LLST86:
 10591 0b16 00000000 		.4byte	.LVL172
 10592 0b1a 06000000 		.4byte	.LVL173
 10593 0b1e 0100     		.2byte	0x1
 10594 0b20 50       		.byte	0x50
 10595 0b21 06000000 		.4byte	.LVL173
 10596 0b25 0C000000 		.4byte	.LFE86
 10597 0b29 0400     		.2byte	0x4
 10598 0b2b F3       		.byte	0xf3
 10599 0b2c 01       		.uleb128 0x1
 10600 0b2d 50       		.byte	0x50
 10601 0b2e 9F       		.byte	0x9f
 10602 0b2f 00000000 		.4byte	0
 10603 0b33 00000000 		.4byte	0
 10604              	.LLST87:
 10605 0b37 00000000 		.4byte	.LVL174
 10606 0b3b 06000000 		.4byte	.LVL175
 10607 0b3f 0100     		.2byte	0x1
 10608 0b41 50       		.byte	0x50
 10609 0b42 06000000 		.4byte	.LVL175
 10610 0b46 0C000000 		.4byte	.LFE87
 10611 0b4a 0400     		.2byte	0x4
 10612 0b4c F3       		.byte	0xf3
 10613 0b4d 01       		.uleb128 0x1
 10614 0b4e 50       		.byte	0x50
 10615 0b4f 9F       		.byte	0x9f
 10616 0b50 00000000 		.4byte	0
 10617 0b54 00000000 		.4byte	0
 10618              	.LLST88:
 10619 0b58 00000000 		.4byte	.LVL176
 10620 0b5c 06000000 		.4byte	.LVL177
 10621 0b60 0100     		.2byte	0x1
 10622 0b62 50       		.byte	0x50
 10623 0b63 06000000 		.4byte	.LVL177
 10624 0b67 0C000000 		.4byte	.LFE88
 10625 0b6b 0400     		.2byte	0x4
 10626 0b6d F3       		.byte	0xf3
 10627 0b6e 01       		.uleb128 0x1
 10628 0b6f 50       		.byte	0x50
 10629 0b70 9F       		.byte	0x9f
 10630 0b71 00000000 		.4byte	0
 10631 0b75 00000000 		.4byte	0
 10632              	.LLST89:
 10633 0b79 00000000 		.4byte	.LVL178
 10634 0b7d 06000000 		.4byte	.LVL179
ARM GAS  C:\Users\brian\AppData\Local\Temp\ccmYYpDh.s 			page 227


 10635 0b81 0100     		.2byte	0x1
 10636 0b83 50       		.byte	0x50
 10637 0b84 06000000 		.4byte	.LVL179
 10638 0b88 0C000000 		.4byte	.LFE89
 10639 0b8c 0400     		.2byte	0x4
 10640 0b8e F3       		.byte	0xf3
 10641 0b8f 01       		.uleb128 0x1
 10642 0b90 50       		.byte	0x50
 10643 0b91 9F       		.byte	0x9f
 10644 0b92 00000000 		.4byte	0
 10645 0b96 00000000 		.4byte	0
 10646              	.LLST90:
 10647 0b9a 00000000 		.4byte	.LVL180
 10648 0b9e 06000000 		.4byte	.LVL181
 10649 0ba2 0100     		.2byte	0x1
 10650 0ba4 50       		.byte	0x50
 10651 0ba5 06000000 		.4byte	.LVL181
 10652 0ba9 0C000000 		.4byte	.LFE90
 10653 0bad 0400     		.2byte	0x4
 10654 0baf F3       		.byte	0xf3
 10655 0bb0 01       		.uleb128 0x1
 10656 0bb1 50       		.byte	0x50
 10657 0bb2 9F       		.byte	0x9f
 10658 0bb3 00000000 		.4byte	0
 10659 0bb7 00000000 		.4byte	0
 10660              	.LLST91:
 10661 0bbb 00000000 		.4byte	.LVL182
 10662 0bbf 06000000 		.4byte	.LVL183
 10663 0bc3 0100     		.2byte	0x1
 10664 0bc5 50       		.byte	0x50
 10665 0bc6 06000000 		.4byte	.LVL183
 10666 0bca 0C000000 		.4byte	.LFE91
 10667 0bce 0400     		.2byte	0x4
 10668 0bd0 F3       		.byte	0xf3
 10669 0bd1 01       		.uleb128 0x1
 10670 0bd2 50       		.byte	0x50
 10671 0bd3 9F       		.byte	0x9f
 10672 0bd4 00000000 		.4byte	0
 10673 0bd8 00000000 		.4byte	0
 10674              	.LLST92:
 10675 0bdc 00000000 		.4byte	.LVL184
 10676 0be0 06000000 		.4byte	.LVL185
 10677 0be4 0100     		.2byte	0x1
 10678 0be6 50       		.byte	0x50
 10679 0be7 06000000 		.4byte	.LVL185
 10680 0beb 0C000000 		.4byte	.LFE92
 10681 0bef 0400     		.2byte	0x4
 10682 0bf1 F3       		.byte	0xf3
 10683 0bf2 01       		.uleb128 0x1
 10684 0bf3 50       		.byte	0x50
 10685 0bf4 9F       		.byte	0x9f
 10686 0bf5 00000000 		.4byte	0
 10687 0bf9 00000000 		.4byte	0
 10688              	.LLST93:
 10689 0bfd 00000000 		.4byte	.LVL186
 10690 0c01 06000000 		.4byte	.LVL187
 10691 0c05 0100     		.2byte	0x1
ARM GAS  C:\Users\brian\AppData\Local\Temp\ccmYYpDh.s 			page 228


 10692 0c07 50       		.byte	0x50
 10693 0c08 06000000 		.4byte	.LVL187
 10694 0c0c 0C000000 		.4byte	.LFE93
 10695 0c10 0400     		.2byte	0x4
 10696 0c12 F3       		.byte	0xf3
 10697 0c13 01       		.uleb128 0x1
 10698 0c14 50       		.byte	0x50
 10699 0c15 9F       		.byte	0x9f
 10700 0c16 00000000 		.4byte	0
 10701 0c1a 00000000 		.4byte	0
 10702              	.LLST94:
 10703 0c1e 00000000 		.4byte	.LVL188
 10704 0c22 06000000 		.4byte	.LVL189
 10705 0c26 0100     		.2byte	0x1
 10706 0c28 50       		.byte	0x50
 10707 0c29 06000000 		.4byte	.LVL189
 10708 0c2d 0C000000 		.4byte	.LFE94
 10709 0c31 0400     		.2byte	0x4
 10710 0c33 F3       		.byte	0xf3
 10711 0c34 01       		.uleb128 0x1
 10712 0c35 50       		.byte	0x50
 10713 0c36 9F       		.byte	0x9f
 10714 0c37 00000000 		.4byte	0
 10715 0c3b 00000000 		.4byte	0
 10716              	.LLST95:
 10717 0c3f 00000000 		.4byte	.LVL190
 10718 0c43 06000000 		.4byte	.LVL191
 10719 0c47 0100     		.2byte	0x1
 10720 0c49 50       		.byte	0x50
 10721 0c4a 06000000 		.4byte	.LVL191
 10722 0c4e 0C000000 		.4byte	.LFE95
 10723 0c52 0400     		.2byte	0x4
 10724 0c54 F3       		.byte	0xf3
 10725 0c55 01       		.uleb128 0x1
 10726 0c56 50       		.byte	0x50
 10727 0c57 9F       		.byte	0x9f
 10728 0c58 00000000 		.4byte	0
 10729 0c5c 00000000 		.4byte	0
 10730              	.LLST96:
 10731 0c60 00000000 		.4byte	.LVL192
 10732 0c64 06000000 		.4byte	.LVL193
 10733 0c68 0100     		.2byte	0x1
 10734 0c6a 50       		.byte	0x50
 10735 0c6b 06000000 		.4byte	.LVL193
 10736 0c6f 0C000000 		.4byte	.LFE96
 10737 0c73 0400     		.2byte	0x4
 10738 0c75 F3       		.byte	0xf3
 10739 0c76 01       		.uleb128 0x1
 10740 0c77 50       		.byte	0x50
 10741 0c78 9F       		.byte	0x9f
 10742 0c79 00000000 		.4byte	0
 10743 0c7d 00000000 		.4byte	0
 10744              	.LLST97:
 10745 0c81 00000000 		.4byte	.LVL194
 10746 0c85 06000000 		.4byte	.LVL195
 10747 0c89 0100     		.2byte	0x1
 10748 0c8b 50       		.byte	0x50
ARM GAS  C:\Users\brian\AppData\Local\Temp\ccmYYpDh.s 			page 229


 10749 0c8c 06000000 		.4byte	.LVL195
 10750 0c90 0C000000 		.4byte	.LFE97
 10751 0c94 0400     		.2byte	0x4
 10752 0c96 F3       		.byte	0xf3
 10753 0c97 01       		.uleb128 0x1
 10754 0c98 50       		.byte	0x50
 10755 0c99 9F       		.byte	0x9f
 10756 0c9a 00000000 		.4byte	0
 10757 0c9e 00000000 		.4byte	0
 10758              	.LLST98:
 10759 0ca2 00000000 		.4byte	.LVL196
 10760 0ca6 06000000 		.4byte	.LVL197
 10761 0caa 0100     		.2byte	0x1
 10762 0cac 50       		.byte	0x50
 10763 0cad 06000000 		.4byte	.LVL197
 10764 0cb1 0C000000 		.4byte	.LFE98
 10765 0cb5 0400     		.2byte	0x4
 10766 0cb7 F3       		.byte	0xf3
 10767 0cb8 01       		.uleb128 0x1
 10768 0cb9 50       		.byte	0x50
 10769 0cba 9F       		.byte	0x9f
 10770 0cbb 00000000 		.4byte	0
 10771 0cbf 00000000 		.4byte	0
 10772              	.LLST99:
 10773 0cc3 00000000 		.4byte	.LVL198
 10774 0cc7 06000000 		.4byte	.LVL199
 10775 0ccb 0100     		.2byte	0x1
 10776 0ccd 50       		.byte	0x50
 10777 0cce 06000000 		.4byte	.LVL199
 10778 0cd2 0C000000 		.4byte	.LFE99
 10779 0cd6 0400     		.2byte	0x4
 10780 0cd8 F3       		.byte	0xf3
 10781 0cd9 01       		.uleb128 0x1
 10782 0cda 50       		.byte	0x50
 10783 0cdb 9F       		.byte	0x9f
 10784 0cdc 00000000 		.4byte	0
 10785 0ce0 00000000 		.4byte	0
 10786              	.LLST100:
 10787 0ce4 00000000 		.4byte	.LVL200
 10788 0ce8 06000000 		.4byte	.LVL201
 10789 0cec 0100     		.2byte	0x1
 10790 0cee 50       		.byte	0x50
 10791 0cef 06000000 		.4byte	.LVL201
 10792 0cf3 0C000000 		.4byte	.LFE100
 10793 0cf7 0400     		.2byte	0x4
 10794 0cf9 F3       		.byte	0xf3
 10795 0cfa 01       		.uleb128 0x1
 10796 0cfb 50       		.byte	0x50
 10797 0cfc 9F       		.byte	0x9f
 10798 0cfd 00000000 		.4byte	0
 10799 0d01 00000000 		.4byte	0
 10800              	.LLST101:
 10801 0d05 00000000 		.4byte	.LVL202
 10802 0d09 06000000 		.4byte	.LVL203
 10803 0d0d 0100     		.2byte	0x1
 10804 0d0f 50       		.byte	0x50
 10805 0d10 06000000 		.4byte	.LVL203
ARM GAS  C:\Users\brian\AppData\Local\Temp\ccmYYpDh.s 			page 230


 10806 0d14 0C000000 		.4byte	.LFE101
 10807 0d18 0400     		.2byte	0x4
 10808 0d1a F3       		.byte	0xf3
 10809 0d1b 01       		.uleb128 0x1
 10810 0d1c 50       		.byte	0x50
 10811 0d1d 9F       		.byte	0x9f
 10812 0d1e 00000000 		.4byte	0
 10813 0d22 00000000 		.4byte	0
 10814              	.LLST102:
 10815 0d26 00000000 		.4byte	.LVL204
 10816 0d2a 06000000 		.4byte	.LVL205
 10817 0d2e 0100     		.2byte	0x1
 10818 0d30 50       		.byte	0x50
 10819 0d31 06000000 		.4byte	.LVL205
 10820 0d35 0C000000 		.4byte	.LFE102
 10821 0d39 0400     		.2byte	0x4
 10822 0d3b F3       		.byte	0xf3
 10823 0d3c 01       		.uleb128 0x1
 10824 0d3d 50       		.byte	0x50
 10825 0d3e 9F       		.byte	0x9f
 10826 0d3f 00000000 		.4byte	0
 10827 0d43 00000000 		.4byte	0
 10828              	.LLST103:
 10829 0d47 00000000 		.4byte	.LVL206
 10830 0d4b 06000000 		.4byte	.LVL207
 10831 0d4f 0100     		.2byte	0x1
 10832 0d51 50       		.byte	0x50
 10833 0d52 06000000 		.4byte	.LVL207
 10834 0d56 0C000000 		.4byte	.LFE103
 10835 0d5a 0400     		.2byte	0x4
 10836 0d5c F3       		.byte	0xf3
 10837 0d5d 01       		.uleb128 0x1
 10838 0d5e 50       		.byte	0x50
 10839 0d5f 9F       		.byte	0x9f
 10840 0d60 00000000 		.4byte	0
 10841 0d64 00000000 		.4byte	0
 10842              	.LLST104:
 10843 0d68 00000000 		.4byte	.LVL208
 10844 0d6c 06000000 		.4byte	.LVL209
 10845 0d70 0100     		.2byte	0x1
 10846 0d72 50       		.byte	0x50
 10847 0d73 06000000 		.4byte	.LVL209
 10848 0d77 0C000000 		.4byte	.LFE104
 10849 0d7b 0400     		.2byte	0x4
 10850 0d7d F3       		.byte	0xf3
 10851 0d7e 01       		.uleb128 0x1
 10852 0d7f 50       		.byte	0x50
 10853 0d80 9F       		.byte	0x9f
 10854 0d81 00000000 		.4byte	0
 10855 0d85 00000000 		.4byte	0
 10856              	.LLST105:
 10857 0d89 00000000 		.4byte	.LVL210
 10858 0d8d 06000000 		.4byte	.LVL211
 10859 0d91 0100     		.2byte	0x1
 10860 0d93 50       		.byte	0x50
 10861 0d94 06000000 		.4byte	.LVL211
 10862 0d98 0C000000 		.4byte	.LFE105
ARM GAS  C:\Users\brian\AppData\Local\Temp\ccmYYpDh.s 			page 231


 10863 0d9c 0400     		.2byte	0x4
 10864 0d9e F3       		.byte	0xf3
 10865 0d9f 01       		.uleb128 0x1
 10866 0da0 50       		.byte	0x50
 10867 0da1 9F       		.byte	0x9f
 10868 0da2 00000000 		.4byte	0
 10869 0da6 00000000 		.4byte	0
 10870              	.LLST106:
 10871 0daa 00000000 		.4byte	.LVL212
 10872 0dae 06000000 		.4byte	.LVL213
 10873 0db2 0100     		.2byte	0x1
 10874 0db4 50       		.byte	0x50
 10875 0db5 06000000 		.4byte	.LVL213
 10876 0db9 0C000000 		.4byte	.LFE106
 10877 0dbd 0400     		.2byte	0x4
 10878 0dbf F3       		.byte	0xf3
 10879 0dc0 01       		.uleb128 0x1
 10880 0dc1 50       		.byte	0x50
 10881 0dc2 9F       		.byte	0x9f
 10882 0dc3 00000000 		.4byte	0
 10883 0dc7 00000000 		.4byte	0
 10884              	.LLST107:
 10885 0dcb 00000000 		.4byte	.LVL214
 10886 0dcf 06000000 		.4byte	.LVL215
 10887 0dd3 0100     		.2byte	0x1
 10888 0dd5 50       		.byte	0x50
 10889 0dd6 06000000 		.4byte	.LVL215
 10890 0dda 0C000000 		.4byte	.LFE107
 10891 0dde 0400     		.2byte	0x4
 10892 0de0 F3       		.byte	0xf3
 10893 0de1 01       		.uleb128 0x1
 10894 0de2 50       		.byte	0x50
 10895 0de3 9F       		.byte	0x9f
 10896 0de4 00000000 		.4byte	0
 10897 0de8 00000000 		.4byte	0
 10898              	.LLST108:
 10899 0dec 00000000 		.4byte	.LVL216
 10900 0df0 06000000 		.4byte	.LVL217
 10901 0df4 0100     		.2byte	0x1
 10902 0df6 50       		.byte	0x50
 10903 0df7 06000000 		.4byte	.LVL217
 10904 0dfb 0C000000 		.4byte	.LFE108
 10905 0dff 0400     		.2byte	0x4
 10906 0e01 F3       		.byte	0xf3
 10907 0e02 01       		.uleb128 0x1
 10908 0e03 50       		.byte	0x50
 10909 0e04 9F       		.byte	0x9f
 10910 0e05 00000000 		.4byte	0
 10911 0e09 00000000 		.4byte	0
 10912              	.LLST109:
 10913 0e0d 00000000 		.4byte	.LVL218
 10914 0e11 06000000 		.4byte	.LVL219
 10915 0e15 0100     		.2byte	0x1
 10916 0e17 50       		.byte	0x50
 10917 0e18 06000000 		.4byte	.LVL219
 10918 0e1c 0C000000 		.4byte	.LFE109
 10919 0e20 0400     		.2byte	0x4
ARM GAS  C:\Users\brian\AppData\Local\Temp\ccmYYpDh.s 			page 232


 10920 0e22 F3       		.byte	0xf3
 10921 0e23 01       		.uleb128 0x1
 10922 0e24 50       		.byte	0x50
 10923 0e25 9F       		.byte	0x9f
 10924 0e26 00000000 		.4byte	0
 10925 0e2a 00000000 		.4byte	0
 10926              	.LLST110:
 10927 0e2e 00000000 		.4byte	.LVL220
 10928 0e32 06000000 		.4byte	.LVL221
 10929 0e36 0100     		.2byte	0x1
 10930 0e38 50       		.byte	0x50
 10931 0e39 06000000 		.4byte	.LVL221
 10932 0e3d 0C000000 		.4byte	.LFE110
 10933 0e41 0400     		.2byte	0x4
 10934 0e43 F3       		.byte	0xf3
 10935 0e44 01       		.uleb128 0x1
 10936 0e45 50       		.byte	0x50
 10937 0e46 9F       		.byte	0x9f
 10938 0e47 00000000 		.4byte	0
 10939 0e4b 00000000 		.4byte	0
 10940              	.LLST111:
 10941 0e4f 00000000 		.4byte	.LVL222
 10942 0e53 06000000 		.4byte	.LVL223
 10943 0e57 0100     		.2byte	0x1
 10944 0e59 50       		.byte	0x50
 10945 0e5a 06000000 		.4byte	.LVL223
 10946 0e5e 0C000000 		.4byte	.LFE111
 10947 0e62 0400     		.2byte	0x4
 10948 0e64 F3       		.byte	0xf3
 10949 0e65 01       		.uleb128 0x1
 10950 0e66 50       		.byte	0x50
 10951 0e67 9F       		.byte	0x9f
 10952 0e68 00000000 		.4byte	0
 10953 0e6c 00000000 		.4byte	0
 10954              	.LLST112:
 10955 0e70 00000000 		.4byte	.LVL224
 10956 0e74 06000000 		.4byte	.LVL225
 10957 0e78 0100     		.2byte	0x1
 10958 0e7a 50       		.byte	0x50
 10959 0e7b 06000000 		.4byte	.LVL225
 10960 0e7f 0C000000 		.4byte	.LFE112
 10961 0e83 0400     		.2byte	0x4
 10962 0e85 F3       		.byte	0xf3
 10963 0e86 01       		.uleb128 0x1
 10964 0e87 50       		.byte	0x50
 10965 0e88 9F       		.byte	0x9f
 10966 0e89 00000000 		.4byte	0
 10967 0e8d 00000000 		.4byte	0
 10968              	.LLST113:
 10969 0e91 00000000 		.4byte	.LVL226
 10970 0e95 06000000 		.4byte	.LVL227
 10971 0e99 0100     		.2byte	0x1
 10972 0e9b 50       		.byte	0x50
 10973 0e9c 06000000 		.4byte	.LVL227
 10974 0ea0 0C000000 		.4byte	.LFE113
 10975 0ea4 0400     		.2byte	0x4
 10976 0ea6 F3       		.byte	0xf3
ARM GAS  C:\Users\brian\AppData\Local\Temp\ccmYYpDh.s 			page 233


 10977 0ea7 01       		.uleb128 0x1
 10978 0ea8 50       		.byte	0x50
 10979 0ea9 9F       		.byte	0x9f
 10980 0eaa 00000000 		.4byte	0
 10981 0eae 00000000 		.4byte	0
 10982              	.LLST114:
 10983 0eb2 00000000 		.4byte	.LVL228
 10984 0eb6 06000000 		.4byte	.LVL229
 10985 0eba 0100     		.2byte	0x1
 10986 0ebc 50       		.byte	0x50
 10987 0ebd 06000000 		.4byte	.LVL229
 10988 0ec1 0C000000 		.4byte	.LFE114
 10989 0ec5 0400     		.2byte	0x4
 10990 0ec7 F3       		.byte	0xf3
 10991 0ec8 01       		.uleb128 0x1
 10992 0ec9 50       		.byte	0x50
 10993 0eca 9F       		.byte	0x9f
 10994 0ecb 00000000 		.4byte	0
 10995 0ecf 00000000 		.4byte	0
 10996              	.LLST115:
 10997 0ed3 00000000 		.4byte	.LVL230
 10998 0ed7 06000000 		.4byte	.LVL231
 10999 0edb 0100     		.2byte	0x1
 11000 0edd 50       		.byte	0x50
 11001 0ede 06000000 		.4byte	.LVL231
 11002 0ee2 0C000000 		.4byte	.LFE115
 11003 0ee6 0400     		.2byte	0x4
 11004 0ee8 F3       		.byte	0xf3
 11005 0ee9 01       		.uleb128 0x1
 11006 0eea 50       		.byte	0x50
 11007 0eeb 9F       		.byte	0x9f
 11008 0eec 00000000 		.4byte	0
 11009 0ef0 00000000 		.4byte	0
 11010              	.LLST116:
 11011 0ef4 00000000 		.4byte	.LVL232
 11012 0ef8 06000000 		.4byte	.LVL233
 11013 0efc 0100     		.2byte	0x1
 11014 0efe 50       		.byte	0x50
 11015 0eff 06000000 		.4byte	.LVL233
 11016 0f03 0C000000 		.4byte	.LFE116
 11017 0f07 0400     		.2byte	0x4
 11018 0f09 F3       		.byte	0xf3
 11019 0f0a 01       		.uleb128 0x1
 11020 0f0b 50       		.byte	0x50
 11021 0f0c 9F       		.byte	0x9f
 11022 0f0d 00000000 		.4byte	0
 11023 0f11 00000000 		.4byte	0
 11024              	.LLST117:
 11025 0f15 00000000 		.4byte	.LVL234
 11026 0f19 06000000 		.4byte	.LVL235
 11027 0f1d 0100     		.2byte	0x1
 11028 0f1f 50       		.byte	0x50
 11029 0f20 06000000 		.4byte	.LVL235
 11030 0f24 0C000000 		.4byte	.LFE117
 11031 0f28 0400     		.2byte	0x4
 11032 0f2a F3       		.byte	0xf3
 11033 0f2b 01       		.uleb128 0x1
ARM GAS  C:\Users\brian\AppData\Local\Temp\ccmYYpDh.s 			page 234


 11034 0f2c 50       		.byte	0x50
 11035 0f2d 9F       		.byte	0x9f
 11036 0f2e 00000000 		.4byte	0
 11037 0f32 00000000 		.4byte	0
 11038              	.LLST118:
 11039 0f36 00000000 		.4byte	.LVL236
 11040 0f3a 06000000 		.4byte	.LVL237
 11041 0f3e 0100     		.2byte	0x1
 11042 0f40 50       		.byte	0x50
 11043 0f41 06000000 		.4byte	.LVL237
 11044 0f45 0C000000 		.4byte	.LFE118
 11045 0f49 0400     		.2byte	0x4
 11046 0f4b F3       		.byte	0xf3
 11047 0f4c 01       		.uleb128 0x1
 11048 0f4d 50       		.byte	0x50
 11049 0f4e 9F       		.byte	0x9f
 11050 0f4f 00000000 		.4byte	0
 11051 0f53 00000000 		.4byte	0
 11052              	.LLST119:
 11053 0f57 00000000 		.4byte	.LVL238
 11054 0f5b 06000000 		.4byte	.LVL239
 11055 0f5f 0100     		.2byte	0x1
 11056 0f61 50       		.byte	0x50
 11057 0f62 06000000 		.4byte	.LVL239
 11058 0f66 0C000000 		.4byte	.LFE119
 11059 0f6a 0400     		.2byte	0x4
 11060 0f6c F3       		.byte	0xf3
 11061 0f6d 01       		.uleb128 0x1
 11062 0f6e 50       		.byte	0x50
 11063 0f6f 9F       		.byte	0x9f
 11064 0f70 00000000 		.4byte	0
 11065 0f74 00000000 		.4byte	0
 11066              	.LLST120:
 11067 0f78 00000000 		.4byte	.LVL240
 11068 0f7c 06000000 		.4byte	.LVL241
 11069 0f80 0100     		.2byte	0x1
 11070 0f82 50       		.byte	0x50
 11071 0f83 06000000 		.4byte	.LVL241
 11072 0f87 0C000000 		.4byte	.LFE120
 11073 0f8b 0400     		.2byte	0x4
 11074 0f8d F3       		.byte	0xf3
 11075 0f8e 01       		.uleb128 0x1
 11076 0f8f 50       		.byte	0x50
 11077 0f90 9F       		.byte	0x9f
 11078 0f91 00000000 		.4byte	0
 11079 0f95 00000000 		.4byte	0
 11080              	.LLST121:
 11081 0f99 00000000 		.4byte	.LVL242
 11082 0f9d 06000000 		.4byte	.LVL243
 11083 0fa1 0100     		.2byte	0x1
 11084 0fa3 50       		.byte	0x50
 11085 0fa4 06000000 		.4byte	.LVL243
 11086 0fa8 0C000000 		.4byte	.LFE121
 11087 0fac 0400     		.2byte	0x4
 11088 0fae F3       		.byte	0xf3
 11089 0faf 01       		.uleb128 0x1
 11090 0fb0 50       		.byte	0x50
ARM GAS  C:\Users\brian\AppData\Local\Temp\ccmYYpDh.s 			page 235


 11091 0fb1 9F       		.byte	0x9f
 11092 0fb2 00000000 		.4byte	0
 11093 0fb6 00000000 		.4byte	0
 11094              	.LLST122:
 11095 0fba 00000000 		.4byte	.LVL244
 11096 0fbe 06000000 		.4byte	.LVL245
 11097 0fc2 0100     		.2byte	0x1
 11098 0fc4 50       		.byte	0x50
 11099 0fc5 06000000 		.4byte	.LVL245
 11100 0fc9 0C000000 		.4byte	.LFE122
 11101 0fcd 0400     		.2byte	0x4
 11102 0fcf F3       		.byte	0xf3
 11103 0fd0 01       		.uleb128 0x1
 11104 0fd1 50       		.byte	0x50
 11105 0fd2 9F       		.byte	0x9f
 11106 0fd3 00000000 		.4byte	0
 11107 0fd7 00000000 		.4byte	0
 11108              	.LLST123:
 11109 0fdb 00000000 		.4byte	.LVL246
 11110 0fdf 06000000 		.4byte	.LVL247
 11111 0fe3 0100     		.2byte	0x1
 11112 0fe5 50       		.byte	0x50
 11113 0fe6 06000000 		.4byte	.LVL247
 11114 0fea 0C000000 		.4byte	.LFE123
 11115 0fee 0400     		.2byte	0x4
 11116 0ff0 F3       		.byte	0xf3
 11117 0ff1 01       		.uleb128 0x1
 11118 0ff2 50       		.byte	0x50
 11119 0ff3 9F       		.byte	0x9f
 11120 0ff4 00000000 		.4byte	0
 11121 0ff8 00000000 		.4byte	0
 11122              	.LLST124:
 11123 0ffc 00000000 		.4byte	.LVL248
 11124 1000 06000000 		.4byte	.LVL249
 11125 1004 0100     		.2byte	0x1
 11126 1006 50       		.byte	0x50
 11127 1007 06000000 		.4byte	.LVL249
 11128 100b 0C000000 		.4byte	.LFE124
 11129 100f 0400     		.2byte	0x4
 11130 1011 F3       		.byte	0xf3
 11131 1012 01       		.uleb128 0x1
 11132 1013 50       		.byte	0x50
 11133 1014 9F       		.byte	0x9f
 11134 1015 00000000 		.4byte	0
 11135 1019 00000000 		.4byte	0
 11136              	.LLST125:
 11137 101d 00000000 		.4byte	.LVL250
 11138 1021 06000000 		.4byte	.LVL251
 11139 1025 0100     		.2byte	0x1
 11140 1027 50       		.byte	0x50
 11141 1028 06000000 		.4byte	.LVL251
 11142 102c 0C000000 		.4byte	.LFE125
 11143 1030 0400     		.2byte	0x4
 11144 1032 F3       		.byte	0xf3
 11145 1033 01       		.uleb128 0x1
 11146 1034 50       		.byte	0x50
 11147 1035 9F       		.byte	0x9f
ARM GAS  C:\Users\brian\AppData\Local\Temp\ccmYYpDh.s 			page 236


 11148 1036 00000000 		.4byte	0
 11149 103a 00000000 		.4byte	0
 11150              	.LLST126:
 11151 103e 00000000 		.4byte	.LVL252
 11152 1042 06000000 		.4byte	.LVL253
 11153 1046 0100     		.2byte	0x1
 11154 1048 50       		.byte	0x50
 11155 1049 06000000 		.4byte	.LVL253
 11156 104d 0C000000 		.4byte	.LFE126
 11157 1051 0400     		.2byte	0x4
 11158 1053 F3       		.byte	0xf3
 11159 1054 01       		.uleb128 0x1
 11160 1055 50       		.byte	0x50
 11161 1056 9F       		.byte	0x9f
 11162 1057 00000000 		.4byte	0
 11163 105b 00000000 		.4byte	0
 11164              	.LLST127:
 11165 105f 00000000 		.4byte	.LVL254
 11166 1063 06000000 		.4byte	.LVL255
 11167 1067 0100     		.2byte	0x1
 11168 1069 50       		.byte	0x50
 11169 106a 06000000 		.4byte	.LVL255
 11170 106e 0C000000 		.4byte	.LFE127
 11171 1072 0400     		.2byte	0x4
 11172 1074 F3       		.byte	0xf3
 11173 1075 01       		.uleb128 0x1
 11174 1076 50       		.byte	0x50
 11175 1077 9F       		.byte	0x9f
 11176 1078 00000000 		.4byte	0
 11177 107c 00000000 		.4byte	0
 11178              	.LLST128:
 11179 1080 00000000 		.4byte	.LVL256
 11180 1084 06000000 		.4byte	.LVL257
 11181 1088 0100     		.2byte	0x1
 11182 108a 50       		.byte	0x50
 11183 108b 06000000 		.4byte	.LVL257
 11184 108f 0C000000 		.4byte	.LFE128
 11185 1093 0400     		.2byte	0x4
 11186 1095 F3       		.byte	0xf3
 11187 1096 01       		.uleb128 0x1
 11188 1097 50       		.byte	0x50
 11189 1098 9F       		.byte	0x9f
 11190 1099 00000000 		.4byte	0
 11191 109d 00000000 		.4byte	0
 11192              	.LLST129:
 11193 10a1 00000000 		.4byte	.LVL258
 11194 10a5 06000000 		.4byte	.LVL259
 11195 10a9 0100     		.2byte	0x1
 11196 10ab 50       		.byte	0x50
 11197 10ac 06000000 		.4byte	.LVL259
 11198 10b0 0C000000 		.4byte	.LFE129
 11199 10b4 0400     		.2byte	0x4
 11200 10b6 F3       		.byte	0xf3
 11201 10b7 01       		.uleb128 0x1
 11202 10b8 50       		.byte	0x50
 11203 10b9 9F       		.byte	0x9f
 11204 10ba 00000000 		.4byte	0
ARM GAS  C:\Users\brian\AppData\Local\Temp\ccmYYpDh.s 			page 237


 11205 10be 00000000 		.4byte	0
 11206              	.LLST130:
 11207 10c2 00000000 		.4byte	.LVL260
 11208 10c6 06000000 		.4byte	.LVL261
 11209 10ca 0100     		.2byte	0x1
 11210 10cc 50       		.byte	0x50
 11211 10cd 06000000 		.4byte	.LVL261
 11212 10d1 0C000000 		.4byte	.LFE130
 11213 10d5 0400     		.2byte	0x4
 11214 10d7 F3       		.byte	0xf3
 11215 10d8 01       		.uleb128 0x1
 11216 10d9 50       		.byte	0x50
 11217 10da 9F       		.byte	0x9f
 11218 10db 00000000 		.4byte	0
 11219 10df 00000000 		.4byte	0
 11220              	.LLST131:
 11221 10e3 00000000 		.4byte	.LVL262
 11222 10e7 06000000 		.4byte	.LVL263
 11223 10eb 0100     		.2byte	0x1
 11224 10ed 50       		.byte	0x50
 11225 10ee 06000000 		.4byte	.LVL263
 11226 10f2 0C000000 		.4byte	.LFE131
 11227 10f6 0400     		.2byte	0x4
 11228 10f8 F3       		.byte	0xf3
 11229 10f9 01       		.uleb128 0x1
 11230 10fa 50       		.byte	0x50
 11231 10fb 9F       		.byte	0x9f
 11232 10fc 00000000 		.4byte	0
 11233 1100 00000000 		.4byte	0
 11234              	.LLST132:
 11235 1104 00000000 		.4byte	.LVL264
 11236 1108 06000000 		.4byte	.LVL265
 11237 110c 0100     		.2byte	0x1
 11238 110e 50       		.byte	0x50
 11239 110f 06000000 		.4byte	.LVL265
 11240 1113 0C000000 		.4byte	.LFE132
 11241 1117 0400     		.2byte	0x4
 11242 1119 F3       		.byte	0xf3
 11243 111a 01       		.uleb128 0x1
 11244 111b 50       		.byte	0x50
 11245 111c 9F       		.byte	0x9f
 11246 111d 00000000 		.4byte	0
 11247 1121 00000000 		.4byte	0
 11248              	.LLST133:
 11249 1125 00000000 		.4byte	.LVL266
 11250 1129 06000000 		.4byte	.LVL267
 11251 112d 0100     		.2byte	0x1
 11252 112f 50       		.byte	0x50
 11253 1130 06000000 		.4byte	.LVL267
 11254 1134 0C000000 		.4byte	.LFE133
 11255 1138 0400     		.2byte	0x4
 11256 113a F3       		.byte	0xf3
 11257 113b 01       		.uleb128 0x1
 11258 113c 50       		.byte	0x50
 11259 113d 9F       		.byte	0x9f
 11260 113e 00000000 		.4byte	0
 11261 1142 00000000 		.4byte	0
ARM GAS  C:\Users\brian\AppData\Local\Temp\ccmYYpDh.s 			page 238


 11262              	.LLST134:
 11263 1146 00000000 		.4byte	.LVL268
 11264 114a 06000000 		.4byte	.LVL269
 11265 114e 0100     		.2byte	0x1
 11266 1150 50       		.byte	0x50
 11267 1151 06000000 		.4byte	.LVL269
 11268 1155 0C000000 		.4byte	.LFE134
 11269 1159 0400     		.2byte	0x4
 11270 115b F3       		.byte	0xf3
 11271 115c 01       		.uleb128 0x1
 11272 115d 50       		.byte	0x50
 11273 115e 9F       		.byte	0x9f
 11274 115f 00000000 		.4byte	0
 11275 1163 00000000 		.4byte	0
 11276              	.LLST135:
 11277 1167 00000000 		.4byte	.LVL270
 11278 116b 06000000 		.4byte	.LVL271
 11279 116f 0100     		.2byte	0x1
 11280 1171 50       		.byte	0x50
 11281 1172 06000000 		.4byte	.LVL271
 11282 1176 0C000000 		.4byte	.LFE135
 11283 117a 0400     		.2byte	0x4
 11284 117c F3       		.byte	0xf3
 11285 117d 01       		.uleb128 0x1
 11286 117e 50       		.byte	0x50
 11287 117f 9F       		.byte	0x9f
 11288 1180 00000000 		.4byte	0
 11289 1184 00000000 		.4byte	0
 11290              	.LLST136:
 11291 1188 00000000 		.4byte	.LVL272
 11292 118c 06000000 		.4byte	.LVL273
 11293 1190 0100     		.2byte	0x1
 11294 1192 50       		.byte	0x50
 11295 1193 06000000 		.4byte	.LVL273
 11296 1197 0C000000 		.4byte	.LFE136
 11297 119b 0400     		.2byte	0x4
 11298 119d F3       		.byte	0xf3
 11299 119e 01       		.uleb128 0x1
 11300 119f 50       		.byte	0x50
 11301 11a0 9F       		.byte	0x9f
 11302 11a1 00000000 		.4byte	0
 11303 11a5 00000000 		.4byte	0
 11304              	.LLST137:
 11305 11a9 00000000 		.4byte	.LVL274
 11306 11ad 06000000 		.4byte	.LVL275
 11307 11b1 0100     		.2byte	0x1
 11308 11b3 50       		.byte	0x50
 11309 11b4 06000000 		.4byte	.LVL275
 11310 11b8 0C000000 		.4byte	.LFE137
 11311 11bc 0400     		.2byte	0x4
 11312 11be F3       		.byte	0xf3
 11313 11bf 01       		.uleb128 0x1
 11314 11c0 50       		.byte	0x50
 11315 11c1 9F       		.byte	0x9f
 11316 11c2 00000000 		.4byte	0
 11317 11c6 00000000 		.4byte	0
 11318              	.LLST138:
ARM GAS  C:\Users\brian\AppData\Local\Temp\ccmYYpDh.s 			page 239


 11319 11ca 00000000 		.4byte	.LVL276
 11320 11ce 06000000 		.4byte	.LVL277
 11321 11d2 0100     		.2byte	0x1
 11322 11d4 50       		.byte	0x50
 11323 11d5 06000000 		.4byte	.LVL277
 11324 11d9 0C000000 		.4byte	.LFE138
 11325 11dd 0400     		.2byte	0x4
 11326 11df F3       		.byte	0xf3
 11327 11e0 01       		.uleb128 0x1
 11328 11e1 50       		.byte	0x50
 11329 11e2 9F       		.byte	0x9f
 11330 11e3 00000000 		.4byte	0
 11331 11e7 00000000 		.4byte	0
 11332              	.LLST139:
 11333 11eb 00000000 		.4byte	.LVL278
 11334 11ef 06000000 		.4byte	.LVL279
 11335 11f3 0100     		.2byte	0x1
 11336 11f5 50       		.byte	0x50
 11337 11f6 06000000 		.4byte	.LVL279
 11338 11fa 0C000000 		.4byte	.LFE139
 11339 11fe 0400     		.2byte	0x4
 11340 1200 F3       		.byte	0xf3
 11341 1201 01       		.uleb128 0x1
 11342 1202 50       		.byte	0x50
 11343 1203 9F       		.byte	0x9f
 11344 1204 00000000 		.4byte	0
 11345 1208 00000000 		.4byte	0
 11346              	.LLST140:
 11347 120c 00000000 		.4byte	.LVL280
 11348 1210 06000000 		.4byte	.LVL281
 11349 1214 0100     		.2byte	0x1
 11350 1216 50       		.byte	0x50
 11351 1217 06000000 		.4byte	.LVL281
 11352 121b 0C000000 		.4byte	.LFE140
 11353 121f 0400     		.2byte	0x4
 11354 1221 F3       		.byte	0xf3
 11355 1222 01       		.uleb128 0x1
 11356 1223 50       		.byte	0x50
 11357 1224 9F       		.byte	0x9f
 11358 1225 00000000 		.4byte	0
 11359 1229 00000000 		.4byte	0
 11360              	.LLST141:
 11361 122d 00000000 		.4byte	.LVL282
 11362 1231 06000000 		.4byte	.LVL283
 11363 1235 0100     		.2byte	0x1
 11364 1237 50       		.byte	0x50
 11365 1238 06000000 		.4byte	.LVL283
 11366 123c 0C000000 		.4byte	.LFE141
 11367 1240 0400     		.2byte	0x4
 11368 1242 F3       		.byte	0xf3
 11369 1243 01       		.uleb128 0x1
 11370 1244 50       		.byte	0x50
 11371 1245 9F       		.byte	0x9f
 11372 1246 00000000 		.4byte	0
 11373 124a 00000000 		.4byte	0
 11374              	.LLST142:
 11375 124e 00000000 		.4byte	.LVL284
ARM GAS  C:\Users\brian\AppData\Local\Temp\ccmYYpDh.s 			page 240


 11376 1252 06000000 		.4byte	.LVL285
 11377 1256 0100     		.2byte	0x1
 11378 1258 50       		.byte	0x50
 11379 1259 06000000 		.4byte	.LVL285
 11380 125d 0C000000 		.4byte	.LFE142
 11381 1261 0400     		.2byte	0x4
 11382 1263 F3       		.byte	0xf3
 11383 1264 01       		.uleb128 0x1
 11384 1265 50       		.byte	0x50
 11385 1266 9F       		.byte	0x9f
 11386 1267 00000000 		.4byte	0
 11387 126b 00000000 		.4byte	0
 11388              	.LLST143:
 11389 126f 00000000 		.4byte	.LVL286
 11390 1273 06000000 		.4byte	.LVL287
 11391 1277 0100     		.2byte	0x1
 11392 1279 50       		.byte	0x50
 11393 127a 06000000 		.4byte	.LVL287
 11394 127e 0C000000 		.4byte	.LFE143
 11395 1282 0400     		.2byte	0x4
 11396 1284 F3       		.byte	0xf3
 11397 1285 01       		.uleb128 0x1
 11398 1286 50       		.byte	0x50
 11399 1287 9F       		.byte	0x9f
 11400 1288 00000000 		.4byte	0
 11401 128c 00000000 		.4byte	0
 11402              	.LLST144:
 11403 1290 00000000 		.4byte	.LVL288
 11404 1294 06000000 		.4byte	.LVL289
 11405 1298 0100     		.2byte	0x1
 11406 129a 50       		.byte	0x50
 11407 129b 06000000 		.4byte	.LVL289
 11408 129f 0C000000 		.4byte	.LFE144
 11409 12a3 0400     		.2byte	0x4
 11410 12a5 F3       		.byte	0xf3
 11411 12a6 01       		.uleb128 0x1
 11412 12a7 50       		.byte	0x50
 11413 12a8 9F       		.byte	0x9f
 11414 12a9 00000000 		.4byte	0
 11415 12ad 00000000 		.4byte	0
 11416              	.LLST145:
 11417 12b1 00000000 		.4byte	.LVL290
 11418 12b5 06000000 		.4byte	.LVL291
 11419 12b9 0100     		.2byte	0x1
 11420 12bb 50       		.byte	0x50
 11421 12bc 06000000 		.4byte	.LVL291
 11422 12c0 0C000000 		.4byte	.LFE145
 11423 12c4 0400     		.2byte	0x4
 11424 12c6 F3       		.byte	0xf3
 11425 12c7 01       		.uleb128 0x1
 11426 12c8 50       		.byte	0x50
 11427 12c9 9F       		.byte	0x9f
 11428 12ca 00000000 		.4byte	0
 11429 12ce 00000000 		.4byte	0
 11430              	.LLST146:
 11431 12d2 00000000 		.4byte	.LVL292
 11432 12d6 06000000 		.4byte	.LVL293
ARM GAS  C:\Users\brian\AppData\Local\Temp\ccmYYpDh.s 			page 241


 11433 12da 0100     		.2byte	0x1
 11434 12dc 50       		.byte	0x50
 11435 12dd 06000000 		.4byte	.LVL293
 11436 12e1 0C000000 		.4byte	.LFE146
 11437 12e5 0400     		.2byte	0x4
 11438 12e7 F3       		.byte	0xf3
 11439 12e8 01       		.uleb128 0x1
 11440 12e9 50       		.byte	0x50
 11441 12ea 9F       		.byte	0x9f
 11442 12eb 00000000 		.4byte	0
 11443 12ef 00000000 		.4byte	0
 11444              	.LLST147:
 11445 12f3 00000000 		.4byte	.LVL294
 11446 12f7 06000000 		.4byte	.LVL295
 11447 12fb 0100     		.2byte	0x1
 11448 12fd 50       		.byte	0x50
 11449 12fe 06000000 		.4byte	.LVL295
 11450 1302 0C000000 		.4byte	.LFE147
 11451 1306 0400     		.2byte	0x4
 11452 1308 F3       		.byte	0xf3
 11453 1309 01       		.uleb128 0x1
 11454 130a 50       		.byte	0x50
 11455 130b 9F       		.byte	0x9f
 11456 130c 00000000 		.4byte	0
 11457 1310 00000000 		.4byte	0
 11458              	.LLST148:
 11459 1314 00000000 		.4byte	.LVL296
 11460 1318 06000000 		.4byte	.LVL297
 11461 131c 0100     		.2byte	0x1
 11462 131e 50       		.byte	0x50
 11463 131f 06000000 		.4byte	.LVL297
 11464 1323 0C000000 		.4byte	.LFE148
 11465 1327 0400     		.2byte	0x4
 11466 1329 F3       		.byte	0xf3
 11467 132a 01       		.uleb128 0x1
 11468 132b 50       		.byte	0x50
 11469 132c 9F       		.byte	0x9f
 11470 132d 00000000 		.4byte	0
 11471 1331 00000000 		.4byte	0
 11472              	.LLST149:
 11473 1335 00000000 		.4byte	.LVL298
 11474 1339 06000000 		.4byte	.LVL299
 11475 133d 0100     		.2byte	0x1
 11476 133f 50       		.byte	0x50
 11477 1340 06000000 		.4byte	.LVL299
 11478 1344 0C000000 		.4byte	.LFE149
 11479 1348 0400     		.2byte	0x4
 11480 134a F3       		.byte	0xf3
 11481 134b 01       		.uleb128 0x1
 11482 134c 50       		.byte	0x50
 11483 134d 9F       		.byte	0x9f
 11484 134e 00000000 		.4byte	0
 11485 1352 00000000 		.4byte	0
 11486              		.section	.debug_aranges,"",%progbits
 11487 0000 C4040000 		.4byte	0x4c4
 11488 0004 0200     		.2byte	0x2
 11489 0006 00000000 		.4byte	.Ldebug_info0
ARM GAS  C:\Users\brian\AppData\Local\Temp\ccmYYpDh.s 			page 242


 11490 000a 04       		.byte	0x4
 11491 000b 00       		.byte	0
 11492 000c 0000     		.2byte	0
 11493 000e 0000     		.2byte	0
 11494 0010 00000000 		.4byte	.LFB0
 11495 0014 0C000000 		.4byte	.LFE0-.LFB0
 11496 0018 00000000 		.4byte	.LFB1
 11497 001c 0C000000 		.4byte	.LFE1-.LFB1
 11498 0020 00000000 		.4byte	.LFB2
 11499 0024 0C000000 		.4byte	.LFE2-.LFB2
 11500 0028 00000000 		.4byte	.LFB3
 11501 002c 0C000000 		.4byte	.LFE3-.LFB3
 11502 0030 00000000 		.4byte	.LFB4
 11503 0034 0C000000 		.4byte	.LFE4-.LFB4
 11504 0038 00000000 		.4byte	.LFB5
 11505 003c 0C000000 		.4byte	.LFE5-.LFB5
 11506 0040 00000000 		.4byte	.LFB6
 11507 0044 0C000000 		.4byte	.LFE6-.LFB6
 11508 0048 00000000 		.4byte	.LFB7
 11509 004c 0C000000 		.4byte	.LFE7-.LFB7
 11510 0050 00000000 		.4byte	.LFB8
 11511 0054 0C000000 		.4byte	.LFE8-.LFB8
 11512 0058 00000000 		.4byte	.LFB9
 11513 005c 0C000000 		.4byte	.LFE9-.LFB9
 11514 0060 00000000 		.4byte	.LFB10
 11515 0064 0C000000 		.4byte	.LFE10-.LFB10
 11516 0068 00000000 		.4byte	.LFB11
 11517 006c 0C000000 		.4byte	.LFE11-.LFB11
 11518 0070 00000000 		.4byte	.LFB12
 11519 0074 0C000000 		.4byte	.LFE12-.LFB12
 11520 0078 00000000 		.4byte	.LFB13
 11521 007c 0C000000 		.4byte	.LFE13-.LFB13
 11522 0080 00000000 		.4byte	.LFB14
 11523 0084 0C000000 		.4byte	.LFE14-.LFB14
 11524 0088 00000000 		.4byte	.LFB15
 11525 008c 0C000000 		.4byte	.LFE15-.LFB15
 11526 0090 00000000 		.4byte	.LFB16
 11527 0094 0C000000 		.4byte	.LFE16-.LFB16
 11528 0098 00000000 		.4byte	.LFB17
 11529 009c 0C000000 		.4byte	.LFE17-.LFB17
 11530 00a0 00000000 		.4byte	.LFB18
 11531 00a4 0C000000 		.4byte	.LFE18-.LFB18
 11532 00a8 00000000 		.4byte	.LFB19
 11533 00ac 0C000000 		.4byte	.LFE19-.LFB19
 11534 00b0 00000000 		.4byte	.LFB20
 11535 00b4 0C000000 		.4byte	.LFE20-.LFB20
 11536 00b8 00000000 		.4byte	.LFB21
 11537 00bc 0C000000 		.4byte	.LFE21-.LFB21
 11538 00c0 00000000 		.4byte	.LFB22
 11539 00c4 0C000000 		.4byte	.LFE22-.LFB22
 11540 00c8 00000000 		.4byte	.LFB23
 11541 00cc 0C000000 		.4byte	.LFE23-.LFB23
 11542 00d0 00000000 		.4byte	.LFB24
 11543 00d4 0C000000 		.4byte	.LFE24-.LFB24
 11544 00d8 00000000 		.4byte	.LFB25
 11545 00dc 0C000000 		.4byte	.LFE25-.LFB25
 11546 00e0 00000000 		.4byte	.LFB26
ARM GAS  C:\Users\brian\AppData\Local\Temp\ccmYYpDh.s 			page 243


 11547 00e4 0C000000 		.4byte	.LFE26-.LFB26
 11548 00e8 00000000 		.4byte	.LFB27
 11549 00ec 0C000000 		.4byte	.LFE27-.LFB27
 11550 00f0 00000000 		.4byte	.LFB28
 11551 00f4 0C000000 		.4byte	.LFE28-.LFB28
 11552 00f8 00000000 		.4byte	.LFB29
 11553 00fc 0C000000 		.4byte	.LFE29-.LFB29
 11554 0100 00000000 		.4byte	.LFB30
 11555 0104 0C000000 		.4byte	.LFE30-.LFB30
 11556 0108 00000000 		.4byte	.LFB31
 11557 010c 0C000000 		.4byte	.LFE31-.LFB31
 11558 0110 00000000 		.4byte	.LFB32
 11559 0114 0C000000 		.4byte	.LFE32-.LFB32
 11560 0118 00000000 		.4byte	.LFB33
 11561 011c 0C000000 		.4byte	.LFE33-.LFB33
 11562 0120 00000000 		.4byte	.LFB34
 11563 0124 0C000000 		.4byte	.LFE34-.LFB34
 11564 0128 00000000 		.4byte	.LFB35
 11565 012c 0C000000 		.4byte	.LFE35-.LFB35
 11566 0130 00000000 		.4byte	.LFB36
 11567 0134 0C000000 		.4byte	.LFE36-.LFB36
 11568 0138 00000000 		.4byte	.LFB37
 11569 013c 0C000000 		.4byte	.LFE37-.LFB37
 11570 0140 00000000 		.4byte	.LFB38
 11571 0144 0C000000 		.4byte	.LFE38-.LFB38
 11572 0148 00000000 		.4byte	.LFB39
 11573 014c 0C000000 		.4byte	.LFE39-.LFB39
 11574 0150 00000000 		.4byte	.LFB40
 11575 0154 0C000000 		.4byte	.LFE40-.LFB40
 11576 0158 00000000 		.4byte	.LFB41
 11577 015c 0C000000 		.4byte	.LFE41-.LFB41
 11578 0160 00000000 		.4byte	.LFB42
 11579 0164 0C000000 		.4byte	.LFE42-.LFB42
 11580 0168 00000000 		.4byte	.LFB43
 11581 016c 0C000000 		.4byte	.LFE43-.LFB43
 11582 0170 00000000 		.4byte	.LFB44
 11583 0174 0C000000 		.4byte	.LFE44-.LFB44
 11584 0178 00000000 		.4byte	.LFB45
 11585 017c 0C000000 		.4byte	.LFE45-.LFB45
 11586 0180 00000000 		.4byte	.LFB46
 11587 0184 0C000000 		.4byte	.LFE46-.LFB46
 11588 0188 00000000 		.4byte	.LFB47
 11589 018c 0C000000 		.4byte	.LFE47-.LFB47
 11590 0190 00000000 		.4byte	.LFB48
 11591 0194 0C000000 		.4byte	.LFE48-.LFB48
 11592 0198 00000000 		.4byte	.LFB49
 11593 019c 0C000000 		.4byte	.LFE49-.LFB49
 11594 01a0 00000000 		.4byte	.LFB50
 11595 01a4 0C000000 		.4byte	.LFE50-.LFB50
 11596 01a8 00000000 		.4byte	.LFB51
 11597 01ac 0C000000 		.4byte	.LFE51-.LFB51
 11598 01b0 00000000 		.4byte	.LFB52
 11599 01b4 0C000000 		.4byte	.LFE52-.LFB52
 11600 01b8 00000000 		.4byte	.LFB53
 11601 01bc 0C000000 		.4byte	.LFE53-.LFB53
 11602 01c0 00000000 		.4byte	.LFB54
 11603 01c4 0C000000 		.4byte	.LFE54-.LFB54
ARM GAS  C:\Users\brian\AppData\Local\Temp\ccmYYpDh.s 			page 244


 11604 01c8 00000000 		.4byte	.LFB55
 11605 01cc 0C000000 		.4byte	.LFE55-.LFB55
 11606 01d0 00000000 		.4byte	.LFB56
 11607 01d4 0C000000 		.4byte	.LFE56-.LFB56
 11608 01d8 00000000 		.4byte	.LFB57
 11609 01dc 0C000000 		.4byte	.LFE57-.LFB57
 11610 01e0 00000000 		.4byte	.LFB58
 11611 01e4 0C000000 		.4byte	.LFE58-.LFB58
 11612 01e8 00000000 		.4byte	.LFB59
 11613 01ec 0C000000 		.4byte	.LFE59-.LFB59
 11614 01f0 00000000 		.4byte	.LFB60
 11615 01f4 0C000000 		.4byte	.LFE60-.LFB60
 11616 01f8 00000000 		.4byte	.LFB61
 11617 01fc 0C000000 		.4byte	.LFE61-.LFB61
 11618 0200 00000000 		.4byte	.LFB62
 11619 0204 0C000000 		.4byte	.LFE62-.LFB62
 11620 0208 00000000 		.4byte	.LFB63
 11621 020c 0C000000 		.4byte	.LFE63-.LFB63
 11622 0210 00000000 		.4byte	.LFB64
 11623 0214 0C000000 		.4byte	.LFE64-.LFB64
 11624 0218 00000000 		.4byte	.LFB65
 11625 021c 0C000000 		.4byte	.LFE65-.LFB65
 11626 0220 00000000 		.4byte	.LFB66
 11627 0224 0C000000 		.4byte	.LFE66-.LFB66
 11628 0228 00000000 		.4byte	.LFB67
 11629 022c 0C000000 		.4byte	.LFE67-.LFB67
 11630 0230 00000000 		.4byte	.LFB68
 11631 0234 0C000000 		.4byte	.LFE68-.LFB68
 11632 0238 00000000 		.4byte	.LFB69
 11633 023c 0C000000 		.4byte	.LFE69-.LFB69
 11634 0240 00000000 		.4byte	.LFB70
 11635 0244 0C000000 		.4byte	.LFE70-.LFB70
 11636 0248 00000000 		.4byte	.LFB71
 11637 024c 0C000000 		.4byte	.LFE71-.LFB71
 11638 0250 00000000 		.4byte	.LFB72
 11639 0254 0C000000 		.4byte	.LFE72-.LFB72
 11640 0258 00000000 		.4byte	.LFB73
 11641 025c 0C000000 		.4byte	.LFE73-.LFB73
 11642 0260 00000000 		.4byte	.LFB74
 11643 0264 0C000000 		.4byte	.LFE74-.LFB74
 11644 0268 00000000 		.4byte	.LFB75
 11645 026c 0C000000 		.4byte	.LFE75-.LFB75
 11646 0270 00000000 		.4byte	.LFB76
 11647 0274 0C000000 		.4byte	.LFE76-.LFB76
 11648 0278 00000000 		.4byte	.LFB77
 11649 027c 0C000000 		.4byte	.LFE77-.LFB77
 11650 0280 00000000 		.4byte	.LFB78
 11651 0284 0C000000 		.4byte	.LFE78-.LFB78
 11652 0288 00000000 		.4byte	.LFB79
 11653 028c 0C000000 		.4byte	.LFE79-.LFB79
 11654 0290 00000000 		.4byte	.LFB80
 11655 0294 0C000000 		.4byte	.LFE80-.LFB80
 11656 0298 00000000 		.4byte	.LFB81
 11657 029c 0C000000 		.4byte	.LFE81-.LFB81
 11658 02a0 00000000 		.4byte	.LFB82
 11659 02a4 0C000000 		.4byte	.LFE82-.LFB82
 11660 02a8 00000000 		.4byte	.LFB83
ARM GAS  C:\Users\brian\AppData\Local\Temp\ccmYYpDh.s 			page 245


 11661 02ac 0C000000 		.4byte	.LFE83-.LFB83
 11662 02b0 00000000 		.4byte	.LFB84
 11663 02b4 0C000000 		.4byte	.LFE84-.LFB84
 11664 02b8 00000000 		.4byte	.LFB85
 11665 02bc 0C000000 		.4byte	.LFE85-.LFB85
 11666 02c0 00000000 		.4byte	.LFB86
 11667 02c4 0C000000 		.4byte	.LFE86-.LFB86
 11668 02c8 00000000 		.4byte	.LFB87
 11669 02cc 0C000000 		.4byte	.LFE87-.LFB87
 11670 02d0 00000000 		.4byte	.LFB88
 11671 02d4 0C000000 		.4byte	.LFE88-.LFB88
 11672 02d8 00000000 		.4byte	.LFB89
 11673 02dc 0C000000 		.4byte	.LFE89-.LFB89
 11674 02e0 00000000 		.4byte	.LFB90
 11675 02e4 0C000000 		.4byte	.LFE90-.LFB90
 11676 02e8 00000000 		.4byte	.LFB91
 11677 02ec 0C000000 		.4byte	.LFE91-.LFB91
 11678 02f0 00000000 		.4byte	.LFB92
 11679 02f4 0C000000 		.4byte	.LFE92-.LFB92
 11680 02f8 00000000 		.4byte	.LFB93
 11681 02fc 0C000000 		.4byte	.LFE93-.LFB93
 11682 0300 00000000 		.4byte	.LFB94
 11683 0304 0C000000 		.4byte	.LFE94-.LFB94
 11684 0308 00000000 		.4byte	.LFB95
 11685 030c 0C000000 		.4byte	.LFE95-.LFB95
 11686 0310 00000000 		.4byte	.LFB96
 11687 0314 0C000000 		.4byte	.LFE96-.LFB96
 11688 0318 00000000 		.4byte	.LFB97
 11689 031c 0C000000 		.4byte	.LFE97-.LFB97
 11690 0320 00000000 		.4byte	.LFB98
 11691 0324 0C000000 		.4byte	.LFE98-.LFB98
 11692 0328 00000000 		.4byte	.LFB99
 11693 032c 0C000000 		.4byte	.LFE99-.LFB99
 11694 0330 00000000 		.4byte	.LFB100
 11695 0334 0C000000 		.4byte	.LFE100-.LFB100
 11696 0338 00000000 		.4byte	.LFB101
 11697 033c 0C000000 		.4byte	.LFE101-.LFB101
 11698 0340 00000000 		.4byte	.LFB102
 11699 0344 0C000000 		.4byte	.LFE102-.LFB102
 11700 0348 00000000 		.4byte	.LFB103
 11701 034c 0C000000 		.4byte	.LFE103-.LFB103
 11702 0350 00000000 		.4byte	.LFB104
 11703 0354 0C000000 		.4byte	.LFE104-.LFB104
 11704 0358 00000000 		.4byte	.LFB105
 11705 035c 0C000000 		.4byte	.LFE105-.LFB105
 11706 0360 00000000 		.4byte	.LFB106
 11707 0364 0C000000 		.4byte	.LFE106-.LFB106
 11708 0368 00000000 		.4byte	.LFB107
 11709 036c 0C000000 		.4byte	.LFE107-.LFB107
 11710 0370 00000000 		.4byte	.LFB108
 11711 0374 0C000000 		.4byte	.LFE108-.LFB108
 11712 0378 00000000 		.4byte	.LFB109
 11713 037c 0C000000 		.4byte	.LFE109-.LFB109
 11714 0380 00000000 		.4byte	.LFB110
 11715 0384 0C000000 		.4byte	.LFE110-.LFB110
 11716 0388 00000000 		.4byte	.LFB111
 11717 038c 0C000000 		.4byte	.LFE111-.LFB111
ARM GAS  C:\Users\brian\AppData\Local\Temp\ccmYYpDh.s 			page 246


 11718 0390 00000000 		.4byte	.LFB112
 11719 0394 0C000000 		.4byte	.LFE112-.LFB112
 11720 0398 00000000 		.4byte	.LFB113
 11721 039c 0C000000 		.4byte	.LFE113-.LFB113
 11722 03a0 00000000 		.4byte	.LFB114
 11723 03a4 0C000000 		.4byte	.LFE114-.LFB114
 11724 03a8 00000000 		.4byte	.LFB115
 11725 03ac 0C000000 		.4byte	.LFE115-.LFB115
 11726 03b0 00000000 		.4byte	.LFB116
 11727 03b4 0C000000 		.4byte	.LFE116-.LFB116
 11728 03b8 00000000 		.4byte	.LFB117
 11729 03bc 0C000000 		.4byte	.LFE117-.LFB117
 11730 03c0 00000000 		.4byte	.LFB118
 11731 03c4 0C000000 		.4byte	.LFE118-.LFB118
 11732 03c8 00000000 		.4byte	.LFB119
 11733 03cc 0C000000 		.4byte	.LFE119-.LFB119
 11734 03d0 00000000 		.4byte	.LFB120
 11735 03d4 0C000000 		.4byte	.LFE120-.LFB120
 11736 03d8 00000000 		.4byte	.LFB121
 11737 03dc 0C000000 		.4byte	.LFE121-.LFB121
 11738 03e0 00000000 		.4byte	.LFB122
 11739 03e4 0C000000 		.4byte	.LFE122-.LFB122
 11740 03e8 00000000 		.4byte	.LFB123
 11741 03ec 0C000000 		.4byte	.LFE123-.LFB123
 11742 03f0 00000000 		.4byte	.LFB124
 11743 03f4 0C000000 		.4byte	.LFE124-.LFB124
 11744 03f8 00000000 		.4byte	.LFB125
 11745 03fc 0C000000 		.4byte	.LFE125-.LFB125
 11746 0400 00000000 		.4byte	.LFB126
 11747 0404 0C000000 		.4byte	.LFE126-.LFB126
 11748 0408 00000000 		.4byte	.LFB127
 11749 040c 0C000000 		.4byte	.LFE127-.LFB127
 11750 0410 00000000 		.4byte	.LFB128
 11751 0414 0C000000 		.4byte	.LFE128-.LFB128
 11752 0418 00000000 		.4byte	.LFB129
 11753 041c 0C000000 		.4byte	.LFE129-.LFB129
 11754 0420 00000000 		.4byte	.LFB130
 11755 0424 0C000000 		.4byte	.LFE130-.LFB130
 11756 0428 00000000 		.4byte	.LFB131
 11757 042c 0C000000 		.4byte	.LFE131-.LFB131
 11758 0430 00000000 		.4byte	.LFB132
 11759 0434 0C000000 		.4byte	.LFE132-.LFB132
 11760 0438 00000000 		.4byte	.LFB133
 11761 043c 0C000000 		.4byte	.LFE133-.LFB133
 11762 0440 00000000 		.4byte	.LFB134
 11763 0444 0C000000 		.4byte	.LFE134-.LFB134
 11764 0448 00000000 		.4byte	.LFB135
 11765 044c 0C000000 		.4byte	.LFE135-.LFB135
 11766 0450 00000000 		.4byte	.LFB136
 11767 0454 0C000000 		.4byte	.LFE136-.LFB136
 11768 0458 00000000 		.4byte	.LFB137
 11769 045c 0C000000 		.4byte	.LFE137-.LFB137
 11770 0460 00000000 		.4byte	.LFB138
 11771 0464 0C000000 		.4byte	.LFE138-.LFB138
 11772 0468 00000000 		.4byte	.LFB139
 11773 046c 0C000000 		.4byte	.LFE139-.LFB139
 11774 0470 00000000 		.4byte	.LFB140
ARM GAS  C:\Users\brian\AppData\Local\Temp\ccmYYpDh.s 			page 247


 11775 0474 0C000000 		.4byte	.LFE140-.LFB140
 11776 0478 00000000 		.4byte	.LFB141
 11777 047c 0C000000 		.4byte	.LFE141-.LFB141
 11778 0480 00000000 		.4byte	.LFB142
 11779 0484 0C000000 		.4byte	.LFE142-.LFB142
 11780 0488 00000000 		.4byte	.LFB143
 11781 048c 0C000000 		.4byte	.LFE143-.LFB143
 11782 0490 00000000 		.4byte	.LFB144
 11783 0494 0C000000 		.4byte	.LFE144-.LFB144
 11784 0498 00000000 		.4byte	.LFB145
 11785 049c 0C000000 		.4byte	.LFE145-.LFB145
 11786 04a0 00000000 		.4byte	.LFB146
 11787 04a4 0C000000 		.4byte	.LFE146-.LFB146
 11788 04a8 00000000 		.4byte	.LFB147
 11789 04ac 0C000000 		.4byte	.LFE147-.LFB147
 11790 04b0 00000000 		.4byte	.LFB148
 11791 04b4 0C000000 		.4byte	.LFE148-.LFB148
 11792 04b8 00000000 		.4byte	.LFB149
 11793 04bc 0C000000 		.4byte	.LFE149-.LFB149
 11794 04c0 00000000 		.4byte	0
 11795 04c4 00000000 		.4byte	0
 11796              		.section	.debug_ranges,"",%progbits
 11797              	.Ldebug_ranges0:
 11798 0000 00000000 		.4byte	.LFB0
 11799 0004 0C000000 		.4byte	.LFE0
 11800 0008 00000000 		.4byte	.LFB1
 11801 000c 0C000000 		.4byte	.LFE1
 11802 0010 00000000 		.4byte	.LFB2
 11803 0014 0C000000 		.4byte	.LFE2
 11804 0018 00000000 		.4byte	.LFB3
 11805 001c 0C000000 		.4byte	.LFE3
 11806 0020 00000000 		.4byte	.LFB4
 11807 0024 0C000000 		.4byte	.LFE4
 11808 0028 00000000 		.4byte	.LFB5
 11809 002c 0C000000 		.4byte	.LFE5
 11810 0030 00000000 		.4byte	.LFB6
 11811 0034 0C000000 		.4byte	.LFE6
 11812 0038 00000000 		.4byte	.LFB7
 11813 003c 0C000000 		.4byte	.LFE7
 11814 0040 00000000 		.4byte	.LFB8
 11815 0044 0C000000 		.4byte	.LFE8
 11816 0048 00000000 		.4byte	.LFB9
 11817 004c 0C000000 		.4byte	.LFE9
 11818 0050 00000000 		.4byte	.LFB10
 11819 0054 0C000000 		.4byte	.LFE10
 11820 0058 00000000 		.4byte	.LFB11
 11821 005c 0C000000 		.4byte	.LFE11
 11822 0060 00000000 		.4byte	.LFB12
 11823 0064 0C000000 		.4byte	.LFE12
 11824 0068 00000000 		.4byte	.LFB13
 11825 006c 0C000000 		.4byte	.LFE13
 11826 0070 00000000 		.4byte	.LFB14
 11827 0074 0C000000 		.4byte	.LFE14
 11828 0078 00000000 		.4byte	.LFB15
 11829 007c 0C000000 		.4byte	.LFE15
 11830 0080 00000000 		.4byte	.LFB16
 11831 0084 0C000000 		.4byte	.LFE16
ARM GAS  C:\Users\brian\AppData\Local\Temp\ccmYYpDh.s 			page 248


 11832 0088 00000000 		.4byte	.LFB17
 11833 008c 0C000000 		.4byte	.LFE17
 11834 0090 00000000 		.4byte	.LFB18
 11835 0094 0C000000 		.4byte	.LFE18
 11836 0098 00000000 		.4byte	.LFB19
 11837 009c 0C000000 		.4byte	.LFE19
 11838 00a0 00000000 		.4byte	.LFB20
 11839 00a4 0C000000 		.4byte	.LFE20
 11840 00a8 00000000 		.4byte	.LFB21
 11841 00ac 0C000000 		.4byte	.LFE21
 11842 00b0 00000000 		.4byte	.LFB22
 11843 00b4 0C000000 		.4byte	.LFE22
 11844 00b8 00000000 		.4byte	.LFB23
 11845 00bc 0C000000 		.4byte	.LFE23
 11846 00c0 00000000 		.4byte	.LFB24
 11847 00c4 0C000000 		.4byte	.LFE24
 11848 00c8 00000000 		.4byte	.LFB25
 11849 00cc 0C000000 		.4byte	.LFE25
 11850 00d0 00000000 		.4byte	.LFB26
 11851 00d4 0C000000 		.4byte	.LFE26
 11852 00d8 00000000 		.4byte	.LFB27
 11853 00dc 0C000000 		.4byte	.LFE27
 11854 00e0 00000000 		.4byte	.LFB28
 11855 00e4 0C000000 		.4byte	.LFE28
 11856 00e8 00000000 		.4byte	.LFB29
 11857 00ec 0C000000 		.4byte	.LFE29
 11858 00f0 00000000 		.4byte	.LFB30
 11859 00f4 0C000000 		.4byte	.LFE30
 11860 00f8 00000000 		.4byte	.LFB31
 11861 00fc 0C000000 		.4byte	.LFE31
 11862 0100 00000000 		.4byte	.LFB32
 11863 0104 0C000000 		.4byte	.LFE32
 11864 0108 00000000 		.4byte	.LFB33
 11865 010c 0C000000 		.4byte	.LFE33
 11866 0110 00000000 		.4byte	.LFB34
 11867 0114 0C000000 		.4byte	.LFE34
 11868 0118 00000000 		.4byte	.LFB35
 11869 011c 0C000000 		.4byte	.LFE35
 11870 0120 00000000 		.4byte	.LFB36
 11871 0124 0C000000 		.4byte	.LFE36
 11872 0128 00000000 		.4byte	.LFB37
 11873 012c 0C000000 		.4byte	.LFE37
 11874 0130 00000000 		.4byte	.LFB38
 11875 0134 0C000000 		.4byte	.LFE38
 11876 0138 00000000 		.4byte	.LFB39
 11877 013c 0C000000 		.4byte	.LFE39
 11878 0140 00000000 		.4byte	.LFB40
 11879 0144 0C000000 		.4byte	.LFE40
 11880 0148 00000000 		.4byte	.LFB41
 11881 014c 0C000000 		.4byte	.LFE41
 11882 0150 00000000 		.4byte	.LFB42
 11883 0154 0C000000 		.4byte	.LFE42
 11884 0158 00000000 		.4byte	.LFB43
 11885 015c 0C000000 		.4byte	.LFE43
 11886 0160 00000000 		.4byte	.LFB44
 11887 0164 0C000000 		.4byte	.LFE44
 11888 0168 00000000 		.4byte	.LFB45
ARM GAS  C:\Users\brian\AppData\Local\Temp\ccmYYpDh.s 			page 249


 11889 016c 0C000000 		.4byte	.LFE45
 11890 0170 00000000 		.4byte	.LFB46
 11891 0174 0C000000 		.4byte	.LFE46
 11892 0178 00000000 		.4byte	.LFB47
 11893 017c 0C000000 		.4byte	.LFE47
 11894 0180 00000000 		.4byte	.LFB48
 11895 0184 0C000000 		.4byte	.LFE48
 11896 0188 00000000 		.4byte	.LFB49
 11897 018c 0C000000 		.4byte	.LFE49
 11898 0190 00000000 		.4byte	.LFB50
 11899 0194 0C000000 		.4byte	.LFE50
 11900 0198 00000000 		.4byte	.LFB51
 11901 019c 0C000000 		.4byte	.LFE51
 11902 01a0 00000000 		.4byte	.LFB52
 11903 01a4 0C000000 		.4byte	.LFE52
 11904 01a8 00000000 		.4byte	.LFB53
 11905 01ac 0C000000 		.4byte	.LFE53
 11906 01b0 00000000 		.4byte	.LFB54
 11907 01b4 0C000000 		.4byte	.LFE54
 11908 01b8 00000000 		.4byte	.LFB55
 11909 01bc 0C000000 		.4byte	.LFE55
 11910 01c0 00000000 		.4byte	.LFB56
 11911 01c4 0C000000 		.4byte	.LFE56
 11912 01c8 00000000 		.4byte	.LFB57
 11913 01cc 0C000000 		.4byte	.LFE57
 11914 01d0 00000000 		.4byte	.LFB58
 11915 01d4 0C000000 		.4byte	.LFE58
 11916 01d8 00000000 		.4byte	.LFB59
 11917 01dc 0C000000 		.4byte	.LFE59
 11918 01e0 00000000 		.4byte	.LFB60
 11919 01e4 0C000000 		.4byte	.LFE60
 11920 01e8 00000000 		.4byte	.LFB61
 11921 01ec 0C000000 		.4byte	.LFE61
 11922 01f0 00000000 		.4byte	.LFB62
 11923 01f4 0C000000 		.4byte	.LFE62
 11924 01f8 00000000 		.4byte	.LFB63
 11925 01fc 0C000000 		.4byte	.LFE63
 11926 0200 00000000 		.4byte	.LFB64
 11927 0204 0C000000 		.4byte	.LFE64
 11928 0208 00000000 		.4byte	.LFB65
 11929 020c 0C000000 		.4byte	.LFE65
 11930 0210 00000000 		.4byte	.LFB66
 11931 0214 0C000000 		.4byte	.LFE66
 11932 0218 00000000 		.4byte	.LFB67
 11933 021c 0C000000 		.4byte	.LFE67
 11934 0220 00000000 		.4byte	.LFB68
 11935 0224 0C000000 		.4byte	.LFE68
 11936 0228 00000000 		.4byte	.LFB69
 11937 022c 0C000000 		.4byte	.LFE69
 11938 0230 00000000 		.4byte	.LFB70
 11939 0234 0C000000 		.4byte	.LFE70
 11940 0238 00000000 		.4byte	.LFB71
 11941 023c 0C000000 		.4byte	.LFE71
 11942 0240 00000000 		.4byte	.LFB72
 11943 0244 0C000000 		.4byte	.LFE72
 11944 0248 00000000 		.4byte	.LFB73
 11945 024c 0C000000 		.4byte	.LFE73
ARM GAS  C:\Users\brian\AppData\Local\Temp\ccmYYpDh.s 			page 250


 11946 0250 00000000 		.4byte	.LFB74
 11947 0254 0C000000 		.4byte	.LFE74
 11948 0258 00000000 		.4byte	.LFB75
 11949 025c 0C000000 		.4byte	.LFE75
 11950 0260 00000000 		.4byte	.LFB76
 11951 0264 0C000000 		.4byte	.LFE76
 11952 0268 00000000 		.4byte	.LFB77
 11953 026c 0C000000 		.4byte	.LFE77
 11954 0270 00000000 		.4byte	.LFB78
 11955 0274 0C000000 		.4byte	.LFE78
 11956 0278 00000000 		.4byte	.LFB79
 11957 027c 0C000000 		.4byte	.LFE79
 11958 0280 00000000 		.4byte	.LFB80
 11959 0284 0C000000 		.4byte	.LFE80
 11960 0288 00000000 		.4byte	.LFB81
 11961 028c 0C000000 		.4byte	.LFE81
 11962 0290 00000000 		.4byte	.LFB82
 11963 0294 0C000000 		.4byte	.LFE82
 11964 0298 00000000 		.4byte	.LFB83
 11965 029c 0C000000 		.4byte	.LFE83
 11966 02a0 00000000 		.4byte	.LFB84
 11967 02a4 0C000000 		.4byte	.LFE84
 11968 02a8 00000000 		.4byte	.LFB85
 11969 02ac 0C000000 		.4byte	.LFE85
 11970 02b0 00000000 		.4byte	.LFB86
 11971 02b4 0C000000 		.4byte	.LFE86
 11972 02b8 00000000 		.4byte	.LFB87
 11973 02bc 0C000000 		.4byte	.LFE87
 11974 02c0 00000000 		.4byte	.LFB88
 11975 02c4 0C000000 		.4byte	.LFE88
 11976 02c8 00000000 		.4byte	.LFB89
 11977 02cc 0C000000 		.4byte	.LFE89
 11978 02d0 00000000 		.4byte	.LFB90
 11979 02d4 0C000000 		.4byte	.LFE90
 11980 02d8 00000000 		.4byte	.LFB91
 11981 02dc 0C000000 		.4byte	.LFE91
 11982 02e0 00000000 		.4byte	.LFB92
 11983 02e4 0C000000 		.4byte	.LFE92
 11984 02e8 00000000 		.4byte	.LFB93
 11985 02ec 0C000000 		.4byte	.LFE93
 11986 02f0 00000000 		.4byte	.LFB94
 11987 02f4 0C000000 		.4byte	.LFE94
 11988 02f8 00000000 		.4byte	.LFB95
 11989 02fc 0C000000 		.4byte	.LFE95
 11990 0300 00000000 		.4byte	.LFB96
 11991 0304 0C000000 		.4byte	.LFE96
 11992 0308 00000000 		.4byte	.LFB97
 11993 030c 0C000000 		.4byte	.LFE97
 11994 0310 00000000 		.4byte	.LFB98
 11995 0314 0C000000 		.4byte	.LFE98
 11996 0318 00000000 		.4byte	.LFB99
 11997 031c 0C000000 		.4byte	.LFE99
 11998 0320 00000000 		.4byte	.LFB100
 11999 0324 0C000000 		.4byte	.LFE100
 12000 0328 00000000 		.4byte	.LFB101
 12001 032c 0C000000 		.4byte	.LFE101
 12002 0330 00000000 		.4byte	.LFB102
ARM GAS  C:\Users\brian\AppData\Local\Temp\ccmYYpDh.s 			page 251


 12003 0334 0C000000 		.4byte	.LFE102
 12004 0338 00000000 		.4byte	.LFB103
 12005 033c 0C000000 		.4byte	.LFE103
 12006 0340 00000000 		.4byte	.LFB104
 12007 0344 0C000000 		.4byte	.LFE104
 12008 0348 00000000 		.4byte	.LFB105
 12009 034c 0C000000 		.4byte	.LFE105
 12010 0350 00000000 		.4byte	.LFB106
 12011 0354 0C000000 		.4byte	.LFE106
 12012 0358 00000000 		.4byte	.LFB107
 12013 035c 0C000000 		.4byte	.LFE107
 12014 0360 00000000 		.4byte	.LFB108
 12015 0364 0C000000 		.4byte	.LFE108
 12016 0368 00000000 		.4byte	.LFB109
 12017 036c 0C000000 		.4byte	.LFE109
 12018 0370 00000000 		.4byte	.LFB110
 12019 0374 0C000000 		.4byte	.LFE110
 12020 0378 00000000 		.4byte	.LFB111
 12021 037c 0C000000 		.4byte	.LFE111
 12022 0380 00000000 		.4byte	.LFB112
 12023 0384 0C000000 		.4byte	.LFE112
 12024 0388 00000000 		.4byte	.LFB113
 12025 038c 0C000000 		.4byte	.LFE113
 12026 0390 00000000 		.4byte	.LFB114
 12027 0394 0C000000 		.4byte	.LFE114
 12028 0398 00000000 		.4byte	.LFB115
 12029 039c 0C000000 		.4byte	.LFE115
 12030 03a0 00000000 		.4byte	.LFB116
 12031 03a4 0C000000 		.4byte	.LFE116
 12032 03a8 00000000 		.4byte	.LFB117
 12033 03ac 0C000000 		.4byte	.LFE117
 12034 03b0 00000000 		.4byte	.LFB118
 12035 03b4 0C000000 		.4byte	.LFE118
 12036 03b8 00000000 		.4byte	.LFB119
 12037 03bc 0C000000 		.4byte	.LFE119
 12038 03c0 00000000 		.4byte	.LFB120
 12039 03c4 0C000000 		.4byte	.LFE120
 12040 03c8 00000000 		.4byte	.LFB121
 12041 03cc 0C000000 		.4byte	.LFE121
 12042 03d0 00000000 		.4byte	.LFB122
 12043 03d4 0C000000 		.4byte	.LFE122
 12044 03d8 00000000 		.4byte	.LFB123
 12045 03dc 0C000000 		.4byte	.LFE123
 12046 03e0 00000000 		.4byte	.LFB124
 12047 03e4 0C000000 		.4byte	.LFE124
 12048 03e8 00000000 		.4byte	.LFB125
 12049 03ec 0C000000 		.4byte	.LFE125
 12050 03f0 00000000 		.4byte	.LFB126
 12051 03f4 0C000000 		.4byte	.LFE126
 12052 03f8 00000000 		.4byte	.LFB127
 12053 03fc 0C000000 		.4byte	.LFE127
 12054 0400 00000000 		.4byte	.LFB128
 12055 0404 0C000000 		.4byte	.LFE128
 12056 0408 00000000 		.4byte	.LFB129
 12057 040c 0C000000 		.4byte	.LFE129
 12058 0410 00000000 		.4byte	.LFB130
 12059 0414 0C000000 		.4byte	.LFE130
ARM GAS  C:\Users\brian\AppData\Local\Temp\ccmYYpDh.s 			page 252


 12060 0418 00000000 		.4byte	.LFB131
 12061 041c 0C000000 		.4byte	.LFE131
 12062 0420 00000000 		.4byte	.LFB132
 12063 0424 0C000000 		.4byte	.LFE132
 12064 0428 00000000 		.4byte	.LFB133
 12065 042c 0C000000 		.4byte	.LFE133
 12066 0430 00000000 		.4byte	.LFB134
 12067 0434 0C000000 		.4byte	.LFE134
 12068 0438 00000000 		.4byte	.LFB135
 12069 043c 0C000000 		.4byte	.LFE135
 12070 0440 00000000 		.4byte	.LFB136
 12071 0444 0C000000 		.4byte	.LFE136
 12072 0448 00000000 		.4byte	.LFB137
 12073 044c 0C000000 		.4byte	.LFE137
 12074 0450 00000000 		.4byte	.LFB138
 12075 0454 0C000000 		.4byte	.LFE138
 12076 0458 00000000 		.4byte	.LFB139
 12077 045c 0C000000 		.4byte	.LFE139
 12078 0460 00000000 		.4byte	.LFB140
 12079 0464 0C000000 		.4byte	.LFE140
 12080 0468 00000000 		.4byte	.LFB141
 12081 046c 0C000000 		.4byte	.LFE141
 12082 0470 00000000 		.4byte	.LFB142
 12083 0474 0C000000 		.4byte	.LFE142
 12084 0478 00000000 		.4byte	.LFB143
 12085 047c 0C000000 		.4byte	.LFE143
 12086 0480 00000000 		.4byte	.LFB144
 12087 0484 0C000000 		.4byte	.LFE144
 12088 0488 00000000 		.4byte	.LFB145
 12089 048c 0C000000 		.4byte	.LFE145
 12090 0490 00000000 		.4byte	.LFB146
 12091 0494 0C000000 		.4byte	.LFE146
 12092 0498 00000000 		.4byte	.LFB147
 12093 049c 0C000000 		.4byte	.LFE147
 12094 04a0 00000000 		.4byte	.LFB148
 12095 04a4 0C000000 		.4byte	.LFE148
 12096 04a8 00000000 		.4byte	.LFB149
 12097 04ac 0C000000 		.4byte	.LFE149
 12098 04b0 00000000 		.4byte	0
 12099 04b4 00000000 		.4byte	0
 12100              		.section	.debug_line,"",%progbits
 12101              	.Ldebug_line0:
 12102 0000 BA0B0000 		.section	.debug_str,"MS",%progbits,1
 12102      02003001 
 12102      00000201 
 12102      FB0E0D00 
 12102      01010101 
 12103              	.LASF148:
 12104 0000 75386732 		.ascii	"u8g2_m_25_25_f\000"
 12104      5F6D5F32 
 12104      355F3235 
 12104      5F6600
 12105              	.LASF139:
 12106 000f 75386732 		.ascii	"u8g2_m_20_4_f\000"
 12106      5F6D5F32 
 12106      305F345F 
 12106      6600
ARM GAS  C:\Users\brian\AppData\Local\Temp\ccmYYpDh.s 			page 253


 12107              	.LASF124:
 12108 001d 75386732 		.ascii	"u8g2_m_48_17_f\000"
 12108      5F6D5F34 
 12108      385F3137 
 12108      5F6600
 12109              	.LASF106:
 12110 002c 75386732 		.ascii	"u8g2_m_30_20_f\000"
 12110      5F6D5F33 
 12110      305F3230 
 12110      5F6600
 12111              	.LASF8:
 12112 003b 756E7369 		.ascii	"unsigned int\000"
 12112      676E6564 
 12112      20696E74 
 12112      00
 12113              	.LASF140:
 12114 0048 75386732 		.ascii	"u8g2_m_20_17_1\000"
 12114      5F6D5F32 
 12114      305F3137 
 12114      5F3100
 12115              	.LASF141:
 12116 0057 75386732 		.ascii	"u8g2_m_20_17_2\000"
 12116      5F6D5F32 
 12116      305F3137 
 12116      5F3200
 12117              	.LASF119:
 12118 0066 75386732 		.ascii	"u8g2_m_17_8_1\000"
 12118      5F6D5F31 
 12118      375F385F 
 12118      3100
 12119              	.LASF50:
 12120 0074 75386732 		.ascii	"u8g2_m_8_6_1\000"
 12120      5F6D5F38 
 12120      5F365F31 
 12120      00
 12121              	.LASF51:
 12122 0081 75386732 		.ascii	"u8g2_m_8_6_2\000"
 12122      5F6D5F38 
 12122      5F365F32 
 12122      00
 12123              	.LASF152:
 12124 008e 75386732 		.ascii	"u8g2_m_8_1_1\000"
 12124      5F6D5F38 
 12124      5F315F31 
 12124      00
 12125              	.LASF153:
 12126 009b 75386732 		.ascii	"u8g2_m_8_1_2\000"
 12126      5F6D5F38 
 12126      5F315F32 
 12126      00
 12127              	.LASF35:
 12128 00a8 75386732 		.ascii	"u8g2_m_10_16_1\000"
 12128      5F6D5F31 
 12128      305F3136 
 12128      5F3100
 12129              	.LASF36:
 12130 00b7 75386732 		.ascii	"u8g2_m_10_16_2\000"
ARM GAS  C:\Users\brian\AppData\Local\Temp\ccmYYpDh.s 			page 254


 12130      5F6D5F31 
 12130      305F3136 
 12130      5F3200
 12131              	.LASF142:
 12132 00c6 75386732 		.ascii	"u8g2_m_20_17_f\000"
 12132      5F6D5F32 
 12132      305F3137 
 12132      5F6600
 12133              	.LASF165:
 12134 00d5 2E2E5C75 		.ascii	"..\\u8g2\\csrc\\u8g2_d_memory.c\000"
 12134      3867325C 
 12134      63737263 
 12134      5C753867 
 12134      325F645F 
 12135              	.LASF52:
 12136 00f2 75386732 		.ascii	"u8g2_m_8_6_f\000"
 12136      5F6D5F38 
 12136      5F365F66 
 12136      00
 12137              	.LASF71:
 12138 00ff 75386732 		.ascii	"u8g2_m_50_30_1\000"
 12138      5F6D5F35 
 12138      305F3330 
 12138      5F3100
 12139              	.LASF72:
 12140 010e 75386732 		.ascii	"u8g2_m_50_30_2\000"
 12140      5F6D5F35 
 12140      305F3330 
 12140      5F3200
 12141              	.LASF59:
 12142 011d 75386732 		.ascii	"u8g2_m_16_12_1\000"
 12142      5F6D5F31 
 12142      365F3132 
 12142      5F3100
 12143              	.LASF60:
 12144 012c 75386732 		.ascii	"u8g2_m_16_12_2\000"
 12144      5F6D5F31 
 12144      365F3132 
 12144      5F3200
 12145              	.LASF154:
 12146 013b 75386732 		.ascii	"u8g2_m_8_1_f\000"
 12146      5F6D5F38 
 12146      5F315F66 
 12146      00
 12147              	.LASF37:
 12148 0148 75386732 		.ascii	"u8g2_m_10_16_f\000"
 12148      5F6D5F31 
 12148      305F3136 
 12148      5F6600
 12149              	.LASF83:
 12150 0157 75386732 		.ascii	"u8g2_m_24_8_1\000"
 12150      5F6D5F32 
 12150      345F385F 
 12150      3100
 12151              	.LASF84:
 12152 0165 75386732 		.ascii	"u8g2_m_24_8_2\000"
 12152      5F6D5F32 
ARM GAS  C:\Users\brian\AppData\Local\Temp\ccmYYpDh.s 			page 255


 12152      345F385F 
 12152      3200
 12153              	.LASF121:
 12154 0173 75386732 		.ascii	"u8g2_m_17_8_f\000"
 12154      5F6D5F31 
 12154      375F385F 
 12154      6600
 12155              	.LASF134:
 12156 0181 75386732 		.ascii	"u8g2_m_20_10_1\000"
 12156      5F6D5F32 
 12156      305F3130 
 12156      5F3100
 12157              	.LASF135:
 12158 0190 75386732 		.ascii	"u8g2_m_20_10_2\000"
 12158      5F6D5F32 
 12158      305F3130 
 12158      5F3200
 12159              	.LASF73:
 12160 019f 75386732 		.ascii	"u8g2_m_50_30_f\000"
 12160      5F6D5F35 
 12160      305F3330 
 12160      5F6600
 12161              	.LASF61:
 12162 01ae 75386732 		.ascii	"u8g2_m_16_12_f\000"
 12162      5F6D5F31 
 12162      365F3132 
 12162      5F6600
 12163              	.LASF131:
 12164 01bd 75386732 		.ascii	"u8g2_m_19_4_1\000"
 12164      5F6D5F31 
 12164      395F345F 
 12164      3100
 12165              	.LASF132:
 12166 01cb 75386732 		.ascii	"u8g2_m_19_4_2\000"
 12166      5F6D5F31 
 12166      395F345F 
 12166      3200
 12167              	.LASF86:
 12168 01d9 75386732 		.ascii	"u8g2_m_30_8_1\000"
 12168      5F6D5F33 
 12168      305F385F 
 12168      3100
 12169              	.LASF87:
 12170 01e7 75386732 		.ascii	"u8g2_m_30_8_2\000"
 12170      5F6D5F33 
 12170      305F385F 
 12170      3200
 12171              	.LASF85:
 12172 01f5 75386732 		.ascii	"u8g2_m_24_8_f\000"
 12172      5F6D5F32 
 12172      345F385F 
 12172      6600
 12173              	.LASF65:
 12174 0203 75386732 		.ascii	"u8g2_m_12_8_1\000"
 12174      5F6D5F31 
 12174      325F385F 
 12174      3100
ARM GAS  C:\Users\brian\AppData\Local\Temp\ccmYYpDh.s 			page 256


 12175              	.LASF66:
 12176 0211 75386732 		.ascii	"u8g2_m_12_8_2\000"
 12176      5F6D5F31 
 12176      325F385F 
 12176      3200
 12177              	.LASF7:
 12178 021f 6C6F6E67 		.ascii	"long long unsigned int\000"
 12178      206C6F6E 
 12178      6720756E 
 12178      7369676E 
 12178      65642069 
 12179              	.LASF92:
 12180 0236 75386732 		.ascii	"u8g2_m_30_16_1\000"
 12180      5F6D5F33 
 12180      305F3136 
 12180      5F3100
 12181              	.LASF93:
 12182 0245 75386732 		.ascii	"u8g2_m_30_16_2\000"
 12182      5F6D5F33 
 12182      305F3136 
 12182      5F3200
 12183              	.LASF13:
 12184 0254 75386732 		.ascii	"u8g2_m_16_4_1\000"
 12184      5F6D5F31 
 12184      365F345F 
 12184      3100
 12185              	.LASF14:
 12186 0262 75386732 		.ascii	"u8g2_m_16_4_2\000"
 12186      5F6D5F31 
 12186      365F345F 
 12186      3200
 12187              	.LASF133:
 12188 0270 75386732 		.ascii	"u8g2_m_19_4_f\000"
 12188      5F6D5F31 
 12188      395F345F 
 12188      6600
 12189              	.LASF88:
 12190 027e 75386732 		.ascii	"u8g2_m_30_8_f\000"
 12190      5F6D5F33 
 12190      305F385F 
 12190      6600
 12191              	.LASF143:
 12192 028c 75386732 		.ascii	"u8g2_m_22_9_1\000"
 12192      5F6D5F32 
 12192      325F395F 
 12192      3100
 12193              	.LASF144:
 12194 029a 75386732 		.ascii	"u8g2_m_22_9_2\000"
 12194      5F6D5F32 
 12194      325F395F 
 12194      3200
 12195              	.LASF67:
 12196 02a8 75386732 		.ascii	"u8g2_m_12_8_f\000"
 12196      5F6D5F31 
 12196      325F385F 
 12196      6600
 12197              	.LASF136:
ARM GAS  C:\Users\brian\AppData\Local\Temp\ccmYYpDh.s 			page 257


 12198 02b6 75386732 		.ascii	"u8g2_m_20_10_f\000"
 12198      5F6D5F32 
 12198      305F3130 
 12198      5F6600
 12199              	.LASF94:
 12200 02c5 75386732 		.ascii	"u8g2_m_30_16_f\000"
 12200      5F6D5F33 
 12200      305F3136 
 12200      5F6600
 12201              	.LASF26:
 12202 02d4 75386732 		.ascii	"u8g2_m_8_4_1\000"
 12202      5F6D5F38 
 12202      5F345F31 
 12202      00
 12203              	.LASF27:
 12204 02e1 75386732 		.ascii	"u8g2_m_8_4_2\000"
 12204      5F6D5F38 
 12204      5F345F32 
 12204      00
 12205              	.LASF164:
 12206 02ee 474E5520 		.ascii	"GNU C11 5.4.1 20160609 (release) [ARM/embedded-5-br"
 12206      43313120 
 12206      352E342E 
 12206      31203230 
 12206      31363036 
 12207 0321 616E6368 		.ascii	"anch revision 237715] -mcpu=cortex-m3 -mthumb -g -O"
 12207      20726576 
 12207      6973696F 
 12207      6E203233 
 12207      37373135 
 12208 0354 67202D66 		.ascii	"g -ffunction-sections -ffat-lto-objects\000"
 12208      66756E63 
 12208      74696F6E 
 12208      2D736563 
 12208      74696F6E 
 12209              	.LASF16:
 12210 037c 75386732 		.ascii	"u8g2_m_16_4_f\000"
 12210      5F6D5F31 
 12210      365F345F 
 12210      6600
 12211              	.LASF145:
 12212 038a 75386732 		.ascii	"u8g2_m_22_9_f\000"
 12212      5F6D5F32 
 12212      325F395F 
 12212      6600
 12213              	.LASF23:
 12214 0398 75386732 		.ascii	"u8g2_m_9_5_1\000"
 12214      5F6D5F39 
 12214      5F355F31 
 12214      00
 12215              	.LASF24:
 12216 03a5 75386732 		.ascii	"u8g2_m_9_5_2\000"
 12216      5F6D5F39 
 12216      5F355F32 
 12216      00
 12217              	.LASF28:
 12218 03b2 75386732 		.ascii	"u8g2_m_8_4_f\000"
ARM GAS  C:\Users\brian\AppData\Local\Temp\ccmYYpDh.s 			page 258


 12218      5F6D5F38 
 12218      5F345F66 
 12218      00
 12219              	.LASF20:
 12220 03bf 75386732 		.ascii	"u8g2_m_255_2_1\000"
 12220      5F6D5F32 
 12220      35355F32 
 12220      5F3100
 12221              	.LASF21:
 12222 03ce 75386732 		.ascii	"u8g2_m_255_2_2\000"
 12222      5F6D5F32 
 12222      35355F32 
 12222      5F3200
 12223              	.LASF161:
 12224 03dd 75386732 		.ascii	"u8g2_m_48_30_1\000"
 12224      5F6D5F34 
 12224      385F3330 
 12224      5F3100
 12225              	.LASF162:
 12226 03ec 75386732 		.ascii	"u8g2_m_48_30_2\000"
 12226      5F6D5F34 
 12226      385F3330 
 12226      5F3200
 12227              	.LASF166:
 12228 03fb 433A5C55 		.ascii	"C:\\Users\\brian\\Documents\\PSoC Creator\\Lab7\\La"
 12228      73657273 
 12228      5C627269 
 12228      616E5C44 
 12228      6F63756D 
 12229 0428 62372E63 		.ascii	"b7.cydsn\000"
 12229      7964736E 
 12229      00
 12230              	.LASF25:
 12231 0431 75386732 		.ascii	"u8g2_m_9_5_f\000"
 12231      5F6D5F39 
 12231      5F355F66 
 12231      00
 12232              	.LASF22:
 12233 043e 75386732 		.ascii	"u8g2_m_255_2_f\000"
 12233      5F6D5F32 
 12233      35355F32 
 12233      5F6600
 12234              	.LASF107:
 12235 044d 75386732 		.ascii	"u8g2_m_32_16_1\000"
 12235      5F6D5F33 
 12235      325F3136 
 12235      5F3100
 12236              	.LASF108:
 12237 045c 75386732 		.ascii	"u8g2_m_32_16_2\000"
 12237      5F6D5F33 
 12237      325F3136 
 12237      5F3200
 12238              	.LASF163:
 12239 046b 75386732 		.ascii	"u8g2_m_48_30_f\000"
 12239      5F6D5F34 
 12239      385F3330 
 12239      5F6600
ARM GAS  C:\Users\brian\AppData\Local\Temp\ccmYYpDh.s 			page 259


 12240              	.LASF104:
 12241 047a 75386732 		.ascii	"u8g2_m_30_20_1\000"
 12241      5F6D5F33 
 12241      305F3230 
 12241      5F3100
 12242              	.LASF105:
 12243 0489 75386732 		.ascii	"u8g2_m_30_20_2\000"
 12243      5F6D5F33 
 12243      305F3230 
 12243      5F3200
 12244              	.LASF10:
 12245 0498 75696E74 		.ascii	"uint8_t\000"
 12245      385F7400 
 12246              	.LASF109:
 12247 04a0 75386732 		.ascii	"u8g2_m_32_16_f\000"
 12247      5F6D5F33 
 12247      325F3136 
 12247      5F6600
 12248              	.LASF29:
 12249 04af 75386732 		.ascii	"u8g2_m_8_16_1\000"
 12249      5F6D5F38 
 12249      5F31365F 
 12249      3100
 12250              	.LASF30:
 12251 04bd 75386732 		.ascii	"u8g2_m_8_16_2\000"
 12251      5F6D5F38 
 12251      5F31365F 
 12251      3200
 12252              	.LASF101:
 12253 04cb 75386732 		.ascii	"u8g2_m_20_13_1\000"
 12253      5F6D5F32 
 12253      305F3133 
 12253      5F3100
 12254              	.LASF102:
 12255 04da 75386732 		.ascii	"u8g2_m_20_13_2\000"
 12255      5F6D5F32 
 12255      305F3133 
 12255      5F3200
 12256              	.LASF120:
 12257 04e9 75386732 		.ascii	"u8g2_m_17_8_2\000"
 12257      5F6D5F31 
 12257      375F385F 
 12257      3200
 12258              	.LASF6:
 12259 04f7 6C6F6E67 		.ascii	"long long int\000"
 12259      206C6F6E 
 12259      6720696E 
 12259      7400
 12260              	.LASF149:
 12261 0505 75386732 		.ascii	"u8g2_m_37_16_1\000"
 12261      5F6D5F33 
 12261      375F3136 
 12261      5F3100
 12262              	.LASF150:
 12263 0514 75386732 		.ascii	"u8g2_m_37_16_2\000"
 12263      5F6D5F33 
 12263      375F3136 
ARM GAS  C:\Users\brian\AppData\Local\Temp\ccmYYpDh.s 			page 260


 12263      5F3200
 12264              	.LASF155:
 12265 0523 75386732 		.ascii	"u8g2_m_4_1_1\000"
 12265      5F6D5F34 
 12265      5F315F31 
 12265      00
 12266              	.LASF156:
 12267 0530 75386732 		.ascii	"u8g2_m_4_1_2\000"
 12267      5F6D5F34 
 12267      5F315F32 
 12267      00
 12268              	.LASF44:
 12269 053d 75386732 		.ascii	"u8g2_m_32_8_1\000"
 12269      5F6D5F33 
 12269      325F385F 
 12269      3100
 12270              	.LASF45:
 12271 054b 75386732 		.ascii	"u8g2_m_32_8_2\000"
 12271      5F6D5F33 
 12271      325F385F 
 12271      3200
 12272              	.LASF31:
 12273 0559 75386732 		.ascii	"u8g2_m_8_16_f\000"
 12273      5F6D5F38 
 12273      5F31365F 
 12273      6600
 12274              	.LASF98:
 12275 0567 75386732 		.ascii	"u8g2_m_24_12_1\000"
 12275      5F6D5F32 
 12275      345F3132 
 12275      5F3100
 12276              	.LASF99:
 12277 0576 75386732 		.ascii	"u8g2_m_24_12_2\000"
 12277      5F6D5F32 
 12277      345F3132 
 12277      5F3200
 12278              	.LASF158:
 12279 0585 75386732 		.ascii	"u8g2_m_1_1_1\000"
 12279      5F6D5F31 
 12279      5F315F31 
 12279      00
 12280              	.LASF159:
 12281 0592 75386732 		.ascii	"u8g2_m_1_1_2\000"
 12281      5F6D5F31 
 12281      5F315F32 
 12281      00
 12282              	.LASF151:
 12283 059f 75386732 		.ascii	"u8g2_m_37_16_f\000"
 12283      5F6D5F33 
 12283      375F3136 
 12283      5F6600
 12284              	.LASF157:
 12285 05ae 75386732 		.ascii	"u8g2_m_4_1_f\000"
 12285      5F6D5F34 
 12285      5F315F66 
 12285      00
 12286              	.LASF46:
ARM GAS  C:\Users\brian\AppData\Local\Temp\ccmYYpDh.s 			page 261


 12287 05bb 75386732 		.ascii	"u8g2_m_32_8_f\000"
 12287      5F6D5F33 
 12287      325F385F 
 12287      6600
 12288              	.LASF113:
 12289 05c9 75386732 		.ascii	"u8g2_m_20_8_1\000"
 12289      5F6D5F32 
 12289      305F385F 
 12289      3100
 12290              	.LASF114:
 12291 05d7 75386732 		.ascii	"u8g2_m_20_8_2\000"
 12291      5F6D5F32 
 12291      305F385F 
 12291      3200
 12292              	.LASF110:
 12293 05e5 75386732 		.ascii	"u8g2_m_40_30_1\000"
 12293      5F6D5F34 
 12293      305F3330 
 12293      5F3100
 12294              	.LASF111:
 12295 05f4 75386732 		.ascii	"u8g2_m_40_30_2\000"
 12295      5F6D5F34 
 12295      305F3330 
 12295      5F3200
 12296              	.LASF53:
 12297 0603 75386732 		.ascii	"u8g2_m_6_8_1\000"
 12297      5F6D5F36 
 12297      5F385F31 
 12297      00
 12298              	.LASF54:
 12299 0610 75386732 		.ascii	"u8g2_m_6_8_2\000"
 12299      5F6D5F36 
 12299      5F385F32 
 12299      00
 12300              	.LASF68:
 12301 061d 75386732 		.ascii	"u8g2_m_24_4_1\000"
 12301      5F6D5F32 
 12301      345F345F 
 12301      3100
 12302              	.LASF69:
 12303 062b 75386732 		.ascii	"u8g2_m_24_4_2\000"
 12303      5F6D5F32 
 12303      345F345F 
 12303      3200
 12304              	.LASF100:
 12305 0639 75386732 		.ascii	"u8g2_m_24_12_f\000"
 12305      5F6D5F32 
 12305      345F3132 
 12305      5F6600
 12306              	.LASF160:
 12307 0648 75386732 		.ascii	"u8g2_m_1_1_f\000"
 12307      5F6D5F31 
 12307      5F315F66 
 12307      00
 12308              	.LASF74:
 12309 0655 75386732 		.ascii	"u8g2_m_18_21_1\000"
 12309      5F6D5F31 
ARM GAS  C:\Users\brian\AppData\Local\Temp\ccmYYpDh.s 			page 262


 12309      385F3231 
 12309      5F3100
 12310              	.LASF75:
 12311 0664 75386732 		.ascii	"u8g2_m_18_21_2\000"
 12311      5F6D5F31 
 12311      385F3231 
 12311      5F3200
 12312              	.LASF125:
 12313 0673 75386732 		.ascii	"u8g2_m_32_20_1\000"
 12313      5F6D5F33 
 12313      325F3230 
 12313      5F3100
 12314              	.LASF126:
 12315 0682 75386732 		.ascii	"u8g2_m_32_20_2\000"
 12315      5F6D5F33 
 12315      325F3230 
 12315      5F3200
 12316              	.LASF115:
 12317 0691 75386732 		.ascii	"u8g2_m_20_8_f\000"
 12317      5F6D5F32 
 12317      305F385F 
 12317      6600
 12318              	.LASF11:
 12319 069f 6C6F6E67 		.ascii	"long double\000"
 12319      20646F75 
 12319      626C6500 
 12320              	.LASF80:
 12321 06ab 75386732 		.ascii	"u8g2_m_12_9_1\000"
 12321      5F6D5F31 
 12321      325F395F 
 12321      3100
 12322              	.LASF81:
 12323 06b9 75386732 		.ascii	"u8g2_m_12_9_2\000"
 12323      5F6D5F31 
 12323      325F395F 
 12323      3200
 12324              	.LASF112:
 12325 06c7 75386732 		.ascii	"u8g2_m_40_30_f\000"
 12325      5F6D5F34 
 12325      305F3330 
 12325      5F6600
 12326              	.LASF55:
 12327 06d6 75386732 		.ascii	"u8g2_m_6_8_f\000"
 12327      5F6D5F36 
 12327      5F385F66 
 12327      00
 12328              	.LASF70:
 12329 06e3 75386732 		.ascii	"u8g2_m_24_4_f\000"
 12329      5F6D5F32 
 12329      345F345F 
 12329      6600
 12330              	.LASF76:
 12331 06f1 75386732 		.ascii	"u8g2_m_18_21_f\000"
 12331      5F6D5F31 
 12331      385F3231 
 12331      5F6600
 12332              	.LASF128:
ARM GAS  C:\Users\brian\AppData\Local\Temp\ccmYYpDh.s 			page 263


 12333 0700 75386732 		.ascii	"u8g2_m_22_13_1\000"
 12333      5F6D5F32 
 12333      325F3133 
 12333      5F3100
 12334              	.LASF129:
 12335 070f 75386732 		.ascii	"u8g2_m_22_13_2\000"
 12335      5F6D5F32 
 12335      325F3133 
 12335      5F3200
 12336              	.LASF127:
 12337 071e 75386732 		.ascii	"u8g2_m_32_20_f\000"
 12337      5F6D5F33 
 12337      325F3230 
 12337      5F6600
 12338              	.LASF2:
 12339 072d 73686F72 		.ascii	"short int\000"
 12339      7420696E 
 12339      7400
 12340              	.LASF95:
 12341 0737 75386732 		.ascii	"u8g2_m_20_16_1\000"
 12341      5F6D5F32 
 12341      305F3136 
 12341      5F3100
 12342              	.LASF96:
 12343 0746 75386732 		.ascii	"u8g2_m_20_16_2\000"
 12343      5F6D5F32 
 12343      305F3136 
 12343      5F3200
 12344              	.LASF4:
 12345 0755 6C6F6E67 		.ascii	"long int\000"
 12345      20696E74 
 12345      00
 12346              	.LASF103:
 12347 075e 75386732 		.ascii	"u8g2_m_20_13_f\000"
 12347      5F6D5F32 
 12347      305F3133 
 12347      5F6600
 12348              	.LASF130:
 12349 076d 75386732 		.ascii	"u8g2_m_22_13_f\000"
 12349      5F6D5F32 
 12349      325F3133 
 12349      5F6600
 12350              	.LASF97:
 12351 077c 75386732 		.ascii	"u8g2_m_20_16_f\000"
 12351      5F6D5F32 
 12351      305F3136 
 12351      5F6600
 12352              	.LASF38:
 12353 078b 75386732 		.ascii	"u8g2_m_16_16_1\000"
 12353      5F6D5F31 
 12353      365F3136 
 12353      5F3100
 12354              	.LASF39:
 12355 079a 75386732 		.ascii	"u8g2_m_16_16_2\000"
 12355      5F6D5F31 
 12355      365F3136 
 12355      5F3200
ARM GAS  C:\Users\brian\AppData\Local\Temp\ccmYYpDh.s 			page 264


 12356              	.LASF9:
 12357 07a9 5F5F7569 		.ascii	"__uint8_t\000"
 12357      6E74385F 
 12357      7400
 12358              	.LASF12:
 12359 07b3 73697A65 		.ascii	"sizetype\000"
 12359      74797065 
 12359      00
 12360              	.LASF5:
 12361 07bc 6C6F6E67 		.ascii	"long unsigned int\000"
 12361      20756E73 
 12361      69676E65 
 12361      6420696E 
 12361      7400
 12362              	.LASF40:
 12363 07ce 75386732 		.ascii	"u8g2_m_16_16_f\000"
 12363      5F6D5F31 
 12363      365F3136 
 12363      5F6600
 12364              	.LASF77:
 12365 07dd 75386732 		.ascii	"u8g2_m_11_6_1\000"
 12365      5F6D5F31 
 12365      315F365F 
 12365      3100
 12366              	.LASF78:
 12367 07eb 75386732 		.ascii	"u8g2_m_11_6_2\000"
 12367      5F6D5F31 
 12367      315F365F 
 12367      3200
 12368              	.LASF15:
 12369 07f9 70616765 		.ascii	"page_cnt\000"
 12369      5F636E74 
 12369      00
 12370              	.LASF32:
 12371 0802 75386732 		.ascii	"u8g2_m_12_12_1\000"
 12371      5F6D5F31 
 12371      325F3132 
 12371      5F3100
 12372              	.LASF33:
 12373 0811 75386732 		.ascii	"u8g2_m_12_12_2\000"
 12373      5F6D5F31 
 12373      325F3132 
 12373      5F3200
 12374              	.LASF1:
 12375 0820 756E7369 		.ascii	"unsigned char\000"
 12375      676E6564 
 12375      20636861 
 12375      7200
 12376              	.LASF17:
 12377 082e 75386732 		.ascii	"u8g2_m_16_8_1\000"
 12377      5F6D5F31 
 12377      365F385F 
 12377      3100
 12378              	.LASF18:
 12379 083c 75386732 		.ascii	"u8g2_m_16_8_2\000"
 12379      5F6D5F31 
 12379      365F385F 
ARM GAS  C:\Users\brian\AppData\Local\Temp\ccmYYpDh.s 			page 265


 12379      3200
 12380              	.LASF79:
 12381 084a 75386732 		.ascii	"u8g2_m_11_6_f\000"
 12381      5F6D5F31 
 12381      315F365F 
 12381      6600
 12382              	.LASF89:
 12383 0858 75386732 		.ascii	"u8g2_m_30_15_1\000"
 12383      5F6D5F33 
 12383      305F3135 
 12383      5F3100
 12384              	.LASF90:
 12385 0867 75386732 		.ascii	"u8g2_m_30_15_2\000"
 12385      5F6D5F33 
 12385      305F3135 
 12385      5F3200
 12386              	.LASF56:
 12387 0876 75386732 		.ascii	"u8g2_m_12_2_1\000"
 12387      5F6D5F31 
 12387      325F325F 
 12387      3100
 12388              	.LASF57:
 12389 0884 75386732 		.ascii	"u8g2_m_12_2_2\000"
 12389      5F6D5F31 
 12389      325F325F 
 12389      3200
 12390              	.LASF34:
 12391 0892 75386732 		.ascii	"u8g2_m_12_12_f\000"
 12391      5F6D5F31 
 12391      325F3132 
 12391      5F6600
 12392              	.LASF41:
 12393 08a1 75386732 		.ascii	"u8g2_m_20_20_1\000"
 12393      5F6D5F32 
 12393      305F3230 
 12393      5F3100
 12394              	.LASF42:
 12395 08b0 75386732 		.ascii	"u8g2_m_20_20_2\000"
 12395      5F6D5F32 
 12395      305F3230 
 12395      5F3200
 12396              	.LASF47:
 12397 08bf 75386732 		.ascii	"u8g2_m_13_8_1\000"
 12397      5F6D5F31 
 12397      335F385F 
 12397      3100
 12398              	.LASF48:
 12399 08cd 75386732 		.ascii	"u8g2_m_13_8_2\000"
 12399      5F6D5F31 
 12399      335F385F 
 12399      3200
 12400              	.LASF82:
 12401 08db 75386732 		.ascii	"u8g2_m_12_9_f\000"
 12401      5F6D5F31 
 12401      325F395F 
 12401      6600
 12402              	.LASF19:
ARM GAS  C:\Users\brian\AppData\Local\Temp\ccmYYpDh.s 			page 266


 12403 08e9 75386732 		.ascii	"u8g2_m_16_8_f\000"
 12403      5F6D5F31 
 12403      365F385F 
 12403      6600
 12404              	.LASF91:
 12405 08f7 75386732 		.ascii	"u8g2_m_30_15_f\000"
 12405      5F6D5F33 
 12405      305F3135 
 12405      5F6600
 12406              	.LASF116:
 12407 0906 75386732 		.ascii	"u8g2_m_17_4_1\000"
 12407      5F6D5F31 
 12407      375F345F 
 12407      3100
 12408              	.LASF117:
 12409 0914 75386732 		.ascii	"u8g2_m_17_4_2\000"
 12409      5F6D5F31 
 12409      375F345F 
 12409      3200
 12410              	.LASF58:
 12411 0922 75386732 		.ascii	"u8g2_m_12_2_f\000"
 12411      5F6D5F31 
 12411      325F325F 
 12411      6600
 12412              	.LASF0:
 12413 0930 7369676E 		.ascii	"signed char\000"
 12413      65642063 
 12413      68617200 
 12414              	.LASF3:
 12415 093c 73686F72 		.ascii	"short unsigned int\000"
 12415      7420756E 
 12415      7369676E 
 12415      65642069 
 12415      6E7400
 12416              	.LASF62:
 12417 094f 75386732 		.ascii	"u8g2_m_32_4_1\000"
 12417      5F6D5F33 
 12417      325F345F 
 12417      3100
 12418              	.LASF63:
 12419 095d 75386732 		.ascii	"u8g2_m_32_4_2\000"
 12419      5F6D5F33 
 12419      325F345F 
 12419      3200
 12420              	.LASF43:
 12421 096b 75386732 		.ascii	"u8g2_m_20_20_f\000"
 12421      5F6D5F32 
 12421      305F3230 
 12421      5F6600
 12422              	.LASF49:
 12423 097a 75386732 		.ascii	"u8g2_m_13_8_f\000"
 12423      5F6D5F31 
 12423      335F385F 
 12423      6600
 12424              	.LASF146:
 12425 0988 75386732 		.ascii	"u8g2_m_25_25_1\000"
 12425      5F6D5F32 
ARM GAS  C:\Users\brian\AppData\Local\Temp\ccmYYpDh.s 			page 267


 12425      355F3235 
 12425      5F3100
 12426              	.LASF147:
 12427 0997 75386732 		.ascii	"u8g2_m_25_25_2\000"
 12427      5F6D5F32 
 12427      355F3235 
 12427      5F3200
 12428              	.LASF118:
 12429 09a6 75386732 		.ascii	"u8g2_m_17_4_f\000"
 12429      5F6D5F31 
 12429      375F345F 
 12429      6600
 12430              	.LASF64:
 12431 09b4 75386732 		.ascii	"u8g2_m_32_4_f\000"
 12431      5F6D5F33 
 12431      325F345F 
 12431      6600
 12432              	.LASF137:
 12433 09c2 75386732 		.ascii	"u8g2_m_20_4_1\000"
 12433      5F6D5F32 
 12433      305F345F 
 12433      3100
 12434              	.LASF138:
 12435 09d0 75386732 		.ascii	"u8g2_m_20_4_2\000"
 12435      5F6D5F32 
 12435      305F345F 
 12435      3200
 12436              	.LASF122:
 12437 09de 75386732 		.ascii	"u8g2_m_48_17_1\000"
 12437      5F6D5F34 
 12437      385F3137 
 12437      5F3100
 12438              	.LASF123:
 12439 09ed 75386732 		.ascii	"u8g2_m_48_17_2\000"
 12439      5F6D5F34 
 12439      385F3137 
 12439      5F3200
 12440              		.ident	"GCC: (GNU Tools for ARM Embedded Processors) 5.4.1 20160609 (release) [ARM/embedded-5-bran
