ARM GAS  C:\Users\brian\AppData\Local\Temp\ccFYu3Z5.s 			page 1


   1              		.syntax unified
   2              		.cpu cortex-m3
   3              		.fpu softvfp
   4              		.eabi_attribute 20, 1
   5              		.eabi_attribute 21, 1
   6              		.eabi_attribute 23, 3
   7              		.eabi_attribute 24, 1
   8              		.eabi_attribute 25, 1
   9              		.eabi_attribute 26, 1
  10              		.eabi_attribute 30, 1
  11              		.eabi_attribute 34, 1
  12              		.eabi_attribute 18, 4
  13              		.thumb
  14              		.syntax unified
  15              		.file	"u8g2_button.c"
  16              		.text
  17              	.Ltext0:
  18              		.cfi_sections	.debug_frame
  19              		.section	.text.u8g2_DrawButtonFrame,"ax",%progbits
  20              		.align	2
  21              		.global	u8g2_DrawButtonFrame
  22              		.thumb
  23              		.thumb_func
  24              		.type	u8g2_DrawButtonFrame, %function
  25              	u8g2_DrawButtonFrame:
  26              	.LFB0:
  27              		.file 1 "..\\u8g2\\csrc\\u8g2_button.c"
   1:..\u8g2\csrc/u8g2_button.c **** /*
   2:..\u8g2\csrc/u8g2_button.c **** 
   3:..\u8g2\csrc/u8g2_button.c ****   u8g2_button.c
   4:..\u8g2\csrc/u8g2_button.c **** 
   5:..\u8g2\csrc/u8g2_button.c ****   Universal 8bit Graphics Library (https://github.com/olikraus/u8g2/)
   6:..\u8g2\csrc/u8g2_button.c **** 
   7:..\u8g2\csrc/u8g2_button.c ****   Copyright (c) 2016, olikraus@gmail.com
   8:..\u8g2\csrc/u8g2_button.c ****   All rights reserved.
   9:..\u8g2\csrc/u8g2_button.c **** 
  10:..\u8g2\csrc/u8g2_button.c ****   Redistribution and use in source and binary forms, with or without modification, 
  11:..\u8g2\csrc/u8g2_button.c ****   are permitted provided that the following conditions are met:
  12:..\u8g2\csrc/u8g2_button.c **** 
  13:..\u8g2\csrc/u8g2_button.c ****   * Redistributions of source code must retain the above copyright notice, this list 
  14:..\u8g2\csrc/u8g2_button.c ****     of conditions and the following disclaimer.
  15:..\u8g2\csrc/u8g2_button.c ****     
  16:..\u8g2\csrc/u8g2_button.c ****   * Redistributions in binary form must reproduce the above copyright notice, this 
  17:..\u8g2\csrc/u8g2_button.c ****     list of conditions and the following disclaimer in the documentation and/or other 
  18:..\u8g2\csrc/u8g2_button.c ****     materials provided with the distribution.
  19:..\u8g2\csrc/u8g2_button.c **** 
  20:..\u8g2\csrc/u8g2_button.c ****   THIS SOFTWARE IS PROVIDED BY THE COPYRIGHT HOLDERS AND 
  21:..\u8g2\csrc/u8g2_button.c ****   CONTRIBUTORS "AS IS" AND ANY EXPRESS OR IMPLIED WARRANTIES, 
  22:..\u8g2\csrc/u8g2_button.c ****   INCLUDING, BUT NOT LIMITED TO, THE IMPLIED WARRANTIES OF 
  23:..\u8g2\csrc/u8g2_button.c ****   MERCHANTABILITY AND FITNESS FOR A PARTICULAR PURPOSE ARE 
  24:..\u8g2\csrc/u8g2_button.c ****   DISCLAIMED. IN NO EVENT SHALL THE COPYRIGHT HOLDER OR 
  25:..\u8g2\csrc/u8g2_button.c ****   CONTRIBUTORS BE LIABLE FOR ANY DIRECT, INDIRECT, INCIDENTAL, 
  26:..\u8g2\csrc/u8g2_button.c ****   SPECIAL, EXEMPLARY, OR CONSEQUENTIAL DAMAGES (INCLUDING, BUT 
  27:..\u8g2\csrc/u8g2_button.c ****   NOT LIMITED TO, PROCUREMENT OF SUBSTITUTE GOODS OR SERVICES; 
  28:..\u8g2\csrc/u8g2_button.c ****   LOSS OF USE, DATA, OR PROFITS; OR BUSINESS INTERRUPTION) HOWEVER 
  29:..\u8g2\csrc/u8g2_button.c ****   CAUSED AND ON ANY THEORY OF LIABILITY, WHETHER IN CONTRACT, 
  30:..\u8g2\csrc/u8g2_button.c ****   STRICT LIABILITY, OR TORT (INCLUDING NEGLIGENCE OR OTHERWISE) 
ARM GAS  C:\Users\brian\AppData\Local\Temp\ccFYu3Z5.s 			page 2


  31:..\u8g2\csrc/u8g2_button.c ****   ARISING IN ANY WAY OUT OF THE USE OF THIS SOFTWARE, EVEN IF 
  32:..\u8g2\csrc/u8g2_button.c ****   ADVISED OF THE POSSIBILITY OF SUCH DAMAGE.  
  33:..\u8g2\csrc/u8g2_button.c **** 
  34:..\u8g2\csrc/u8g2_button.c **** */
  35:..\u8g2\csrc/u8g2_button.c **** 
  36:..\u8g2\csrc/u8g2_button.c **** #include "u8g2.h"
  37:..\u8g2\csrc/u8g2_button.c **** 
  38:..\u8g2\csrc/u8g2_button.c **** 
  39:..\u8g2\csrc/u8g2_button.c **** /*
  40:..\u8g2\csrc/u8g2_button.c **** 
  41:..\u8g2\csrc/u8g2_button.c ****   Description: 
  42:..\u8g2\csrc/u8g2_button.c ****     Draws normal or inverted text with optional frame around text.
  43:..\u8g2\csrc/u8g2_button.c ****     The text (and the frame) can be horizontally centered around the provided reference position.
  44:..\u8g2\csrc/u8g2_button.c ****     This procedure will use the current draw color and current font. The height of the frame
  45:..\u8g2\csrc/u8g2_button.c ****     depends on the setting of setFontRefHeightText(), setFontRefHeightExtendedText() or setFontRefH
  46:..\u8g2\csrc/u8g2_button.c **** 
  47:..\u8g2\csrc/u8g2_button.c **** 
  48:..\u8g2\csrc/u8g2_button.c ****   Note 1: drawColor 2 (XOR) is not supported. Result will be broken with draw color 2.
  49:..\u8g2\csrc/u8g2_button.c ****   Note 2: This procedure will enforce font mode 1 (transparent mode)
  50:..\u8g2\csrc/u8g2_button.c ****   Note 3: Some fonts may add an extra gap on the right side. This is a font problem and can not be 
  51:..\u8g2\csrc/u8g2_button.c ****   
  52:..\u8g2\csrc/u8g2_button.c **** 
  53:..\u8g2\csrc/u8g2_button.c ****   The height of the button is defined by the current font and
  54:..\u8g2\csrc/u8g2_button.c ****     setFontRefHeightText,
  55:..\u8g2\csrc/u8g2_button.c ****     setFontRefHeightExtendedText
  56:..\u8g2\csrc/u8g2_button.c ****     setFontRefHeightAll
  57:..\u8g2\csrc/u8g2_button.c ****   Right padding might be influenced by the font.
  58:..\u8g2\csrc/u8g2_button.c ****   For example u8g2_font_inb16 may add an extra pixel gap (increase padding by one) 
  59:..\u8g2\csrc/u8g2_button.c ****   on the right side.
  60:..\u8g2\csrc/u8g2_button.c ****   The current draw color is considered, but only draw color 0 and 1 are supported
  61:..\u8g2\csrc/u8g2_button.c ****   
  62:..\u8g2\csrc/u8g2_button.c ****   This function requires transparent font mode: setFontMode(1)
  63:..\u8g2\csrc/u8g2_button.c ****   
  64:..\u8g2\csrc/u8g2_button.c ****   Side effect: Font transparent mode is enabled setFontMode(1)
  65:..\u8g2\csrc/u8g2_button.c **** 
  66:..\u8g2\csrc/u8g2_button.c **** */
  67:..\u8g2\csrc/u8g2_button.c **** 
  68:..\u8g2\csrc/u8g2_button.c **** 
  69:..\u8g2\csrc/u8g2_button.c **** 
  70:..\u8g2\csrc/u8g2_button.c **** /*
  71:..\u8g2\csrc/u8g2_button.c **** 
  72:..\u8g2\csrc/u8g2_button.c ****   flags:
  73:..\u8g2\csrc/u8g2_button.c **** 
  74:..\u8g2\csrc/u8g2_button.c ****     U8G2_BTN_BW1 0x01
  75:..\u8g2\csrc/u8g2_button.c ****     U8G2_BTN_BW2 0x02
  76:..\u8g2\csrc/u8g2_button.c ****     U8G2_BTN_BW3 0x03
  77:..\u8g2\csrc/u8g2_button.c **** 
  78:..\u8g2\csrc/u8g2_button.c **** 
  79:..\u8g2\csrc/u8g2_button.c ****     U8G2_BTN_SHADOW0 0x08
  80:..\u8g2\csrc/u8g2_button.c ****     U8G2_BTN_SHADOW1 0x10
  81:..\u8g2\csrc/u8g2_button.c ****     U8G2_BTN_SHADOW2 0x18
  82:..\u8g2\csrc/u8g2_button.c **** 
  83:..\u8g2\csrc/u8g2_button.c ****     U8G2_BTN_INV 0x20
  84:..\u8g2\csrc/u8g2_button.c **** 
  85:..\u8g2\csrc/u8g2_button.c ****     U8G2_BTN_HCENTER 0x40
  86:..\u8g2\csrc/u8g2_button.c **** 
  87:..\u8g2\csrc/u8g2_button.c ****     U8G2_BTN_XFRAME 0x80
ARM GAS  C:\Users\brian\AppData\Local\Temp\ccFYu3Z5.s 			page 3


  88:..\u8g2\csrc/u8g2_button.c **** 
  89:..\u8g2\csrc/u8g2_button.c ****   Total size without shadow: width+2*padding_h+2*border
  90:..\u8g2\csrc/u8g2_button.c ****   Total size with U8G2_BTN_SHADOW0: width+2*padding_h+3*border
  91:..\u8g2\csrc/u8g2_button.c ****   Total size with U8G2_BTN_SHADOW1: width+2*padding_h+3*border+1
  92:..\u8g2\csrc/u8g2_button.c ****   Total size with U8G2_BTN_SHADOW2: width+2*padding_h+3*border+2
  93:..\u8g2\csrc/u8g2_button.c ****   
  94:..\u8g2\csrc/u8g2_button.c ****   U8G2_BTN_XFRAME:
  95:..\u8g2\csrc/u8g2_button.c ****     draw another one pixel frame with one pixel gap, will not look good with shadow
  96:..\u8g2\csrc/u8g2_button.c **** */
  97:..\u8g2\csrc/u8g2_button.c **** 
  98:..\u8g2\csrc/u8g2_button.c **** void u8g2_DrawButtonFrame(u8g2_t *u8g2, u8g2_uint_t x, u8g2_uint_t y, u8g2_uint_t flags, u8g2_uint_
  99:..\u8g2\csrc/u8g2_button.c **** {
  28              		.loc 1 99 0
  29              		.cfi_startproc
  30              		@ args = 12, pretend = 0, frame = 56
  31              		@ frame_needed = 0, uses_anonymous_args = 0
  32              	.LVL0:
  33 0000 2DE9F04F 		push	{r4, r5, r6, r7, r8, r9, r10, fp, lr}
  34              		.cfi_def_cfa_offset 36
  35              		.cfi_offset 4, -36
  36              		.cfi_offset 5, -32
  37              		.cfi_offset 6, -28
  38              		.cfi_offset 7, -24
  39              		.cfi_offset 8, -20
  40              		.cfi_offset 9, -16
  41              		.cfi_offset 10, -12
  42              		.cfi_offset 11, -8
  43              		.cfi_offset 14, -4
  44 0004 91B0     		sub	sp, sp, #68
  45              		.cfi_def_cfa_offset 104
  46 0006 0746     		mov	r7, r0
  47 0008 0891     		str	r1, [sp, #32]
  48 000a 0992     		str	r2, [sp, #36]
  49 000c 1946     		mov	r1, r3
  50              	.LVL1:
  51 000e 0693     		str	r3, [sp, #24]
  52 0010 BDF86820 		ldrh	r2, [sp, #104]
  53              	.LVL2:
  54 0014 0A92     		str	r2, [sp, #40]
  55 0016 BDF86CA0 		ldrh	r10, [sp, #108]
  56 001a BDF870B0 		ldrh	fp, [sp, #112]
  57              	.LVL3:
 100:..\u8g2\csrc/u8g2_button.c ****   u8g2_uint_t w = text_width;
 101:..\u8g2\csrc/u8g2_button.c ****   
 102:..\u8g2\csrc/u8g2_button.c ****   u8g2_uint_t xx, yy, ww, hh;
 103:..\u8g2\csrc/u8g2_button.c ****   
 104:..\u8g2\csrc/u8g2_button.c ****   u8g2_uint_t gap_frame = U8G2_BTN_BW_MASK+1;
 105:..\u8g2\csrc/u8g2_button.c ****     
 106:..\u8g2\csrc/u8g2_button.c ****   u8g2_uint_t border_width = flags & U8G2_BTN_BW_MASK;
  58              		.loc 1 106 0
  59 001e 03F00703 		and	r3, r3, #7
  60              	.LVL4:
  61 0022 1A46     		mov	r2, r3
  62 0024 0D93     		str	r3, [sp, #52]
  63              	.LVL5:
 107:..\u8g2\csrc/u8g2_button.c **** 
 108:..\u8g2\csrc/u8g2_button.c ****   int8_t a = u8g2_GetAscent(u8g2);
ARM GAS  C:\Users\brian\AppData\Local\Temp\ccFYu3Z5.s 			page 4


  64              		.loc 1 108 0
  65 0026 90F98E90 		ldrsb	r9, [r0, #142]
  66              	.LVL6:
 109:..\u8g2\csrc/u8g2_button.c ****   int8_t d = u8g2_GetDescent(u8g2);
  67              		.loc 1 109 0
  68 002a 90F98F30 		ldrsb	r3, [r0, #143]
  69 002e 0793     		str	r3, [sp, #28]
  70              	.LVL7:
 110:..\u8g2\csrc/u8g2_button.c ****   
 111:..\u8g2\csrc/u8g2_button.c ****   uint8_t color_backup = u8g2->draw_color;
  71              		.loc 1 111 0
  72 0030 90F89230 		ldrb	r3, [r0, #146]	@ zero_extendqisi2
  73 0034 0B93     		str	r3, [sp, #44]
  74              	.LVL8:
 112:..\u8g2\csrc/u8g2_button.c ****   
 113:..\u8g2\csrc/u8g2_button.c ****   
 114:..\u8g2\csrc/u8g2_button.c ****   if ( flags & U8G2_BTN_XFRAME )
  75              		.loc 1 114 0
  76 0036 01F08003 		and	r3, r1, #128
  77 003a 9BB2     		uxth	r3, r3
  78 003c 23B1     		cbz	r3, .L10
 115:..\u8g2\csrc/u8g2_button.c ****   {
 116:..\u8g2\csrc/u8g2_button.c ****     border_width++;
  79              		.loc 1 116 0
  80 003e 1346     		mov	r3, r2
  81 0040 0132     		adds	r2, r2, #1
  82              	.LVL9:
  83 0042 0C92     		str	r2, [sp, #48]
  84              	.LVL10:
 117:..\u8g2\csrc/u8g2_button.c ****     gap_frame = border_width;
 118:..\u8g2\csrc/u8g2_button.c ****     border_width++;
  85              		.loc 1 118 0
  86 0044 9D1C     		adds	r5, r3, #2
  87              	.LVL11:
  88 0046 02E0     		b	.L8
  89              	.LVL12:
  90              	.L10:
 106:..\u8g2\csrc/u8g2_button.c **** 
  91              		.loc 1 106 0
  92 0048 0D9D     		ldr	r5, [sp, #52]
 104:..\u8g2\csrc/u8g2_button.c ****     
  93              		.loc 1 104 0
  94 004a 0823     		movs	r3, #8
  95 004c 0C93     		str	r3, [sp, #48]
  96              	.LVL13:
  97              	.L8:
 119:..\u8g2\csrc/u8g2_button.c ****   }
 120:..\u8g2\csrc/u8g2_button.c ****   
 121:..\u8g2\csrc/u8g2_button.c **** 
 122:..\u8g2\csrc/u8g2_button.c ****   
 123:..\u8g2\csrc/u8g2_button.c ****   for(;;)
 124:..\u8g2\csrc/u8g2_button.c ****   {
 125:..\u8g2\csrc/u8g2_button.c **** 
 126:..\u8g2\csrc/u8g2_button.c ****     xx = x;
 127:..\u8g2\csrc/u8g2_button.c ****     xx -= padding_h;
  98              		.loc 1 127 0
  99 004e 089B     		ldr	r3, [sp, #32]
ARM GAS  C:\Users\brian\AppData\Local\Temp\ccFYu3Z5.s 			page 5


 100 0050 CAEB0308 		rsb	r8, r10, r3
 101 0054 1FFA88F8 		uxth	r8, r8
 102              	.LVL14:
 128:..\u8g2\csrc/u8g2_button.c ****     xx -= border_width;
 103              		.loc 1 128 0
 104 0058 C5EB0803 		rsb	r3, r5, r8
 105 005c 9BB2     		uxth	r3, r3
 106 005e 0493     		str	r3, [sp, #16]
 107              	.LVL15:
 129:..\u8g2\csrc/u8g2_button.c ****     ww = w+2*padding_h+2*border_width;
 108              		.loc 1 129 0
 109 0060 05EB0A03 		add	r3, r5, r10
 110 0064 0A9A     		ldr	r2, [sp, #40]
 111 0066 02EB4303 		add	r3, r2, r3, lsl #1
 112 006a 9BB2     		uxth	r3, r3
 113 006c 0393     		str	r3, [sp, #12]
 114              	.LVL16:
 130:..\u8g2\csrc/u8g2_button.c ****     
 131:..\u8g2\csrc/u8g2_button.c ****     yy = y;
 132:..\u8g2\csrc/u8g2_button.c ****     yy += u8g2->font_calc_vref(u8g2);
 115              		.loc 1 132 0
 116 006e FB6D     		ldr	r3, [r7, #92]
 117 0070 3846     		mov	r0, r7
 118 0072 9847     		blx	r3
 119              	.LVL17:
 120 0074 099B     		ldr	r3, [sp, #36]
 121 0076 1844     		add	r0, r0, r3
 122 0078 84B2     		uxth	r4, r0
 123              	.LVL18:
 133:..\u8g2\csrc/u8g2_button.c ****     yy -= a;
 124              		.loc 1 133 0
 125 007a C9EB0404 		rsb	r4, r9, r4
 126              	.LVL19:
 127 007e A4B2     		uxth	r4, r4
 128              	.LVL20:
 134:..\u8g2\csrc/u8g2_button.c ****     yy -= padding_v;
 129              		.loc 1 134 0
 130 0080 CBEB0404 		rsb	r4, fp, r4
 131              	.LVL21:
 132 0084 A4B2     		uxth	r4, r4
 133              	.LVL22:
 135:..\u8g2\csrc/u8g2_button.c ****     yy -= border_width;
 134              		.loc 1 135 0
 135 0086 631B     		subs	r3, r4, r5
 136 0088 9BB2     		uxth	r3, r3
 137 008a 0593     		str	r3, [sp, #20]
 138              	.LVL23:
 136:..\u8g2\csrc/u8g2_button.c ****     hh = a-d+2*padding_v+2*border_width;
 139              		.loc 1 136 0
 140 008c 05EB0B06 		add	r6, r5, fp
 141 0090 079B     		ldr	r3, [sp, #28]
 142 0092 C3EB0903 		rsb	r3, r3, r9
 143 0096 03EB4606 		add	r6, r3, r6, lsl #1
 144 009a B6B2     		uxth	r6, r6
 145              	.LVL24:
 137:..\u8g2\csrc/u8g2_button.c ****     if ( border_width == 0 )
 146              		.loc 1 137 0
ARM GAS  C:\Users\brian\AppData\Local\Temp\ccFYu3Z5.s 			page 6


 147 009c 002D     		cmp	r5, #0
 148 009e 4AD0     		beq	.L3
 138:..\u8g2\csrc/u8g2_button.c ****       break;
 139:..\u8g2\csrc/u8g2_button.c ****     if ( border_width == gap_frame )
 149              		.loc 1 139 0
 150 00a0 0C9B     		ldr	r3, [sp, #48]
 151 00a2 9D42     		cmp	r5, r3
 152 00a4 06D1     		bne	.L4
 140:..\u8g2\csrc/u8g2_button.c ****     {
 141:..\u8g2\csrc/u8g2_button.c ****       u8g2_SetDrawColor(u8g2, color_backup == 0 ? 1 : 0);
 153              		.loc 1 141 0
 154 00a6 0B9B     		ldr	r3, [sp, #44]
 155 00a8 B3FA83F1 		clz	r1, r3
 156 00ac 4909     		lsrs	r1, r1, #5
 157 00ae 3846     		mov	r0, r7
 158 00b0 FFF7FEFF 		bl	u8g2_SetDrawColor
 159              	.LVL25:
 160              	.L4:
 142:..\u8g2\csrc/u8g2_button.c ****     }
 143:..\u8g2\csrc/u8g2_button.c ****     u8g2_DrawFrame(u8g2, xx, yy, ww, hh);
 161              		.loc 1 143 0
 162 00b4 0096     		str	r6, [sp]
 163 00b6 039B     		ldr	r3, [sp, #12]
 164 00b8 059A     		ldr	r2, [sp, #20]
 165 00ba 0499     		ldr	r1, [sp, #16]
 166 00bc 3846     		mov	r0, r7
 167 00be FFF7FEFF 		bl	u8g2_DrawFrame
 168              	.LVL26:
 144:..\u8g2\csrc/u8g2_button.c ****     u8g2_SetDrawColor(u8g2, color_backup);
 169              		.loc 1 144 0
 170 00c2 0B99     		ldr	r1, [sp, #44]
 171 00c4 3846     		mov	r0, r7
 172 00c6 FFF7FEFF 		bl	u8g2_SetDrawColor
 173              	.LVL27:
 145:..\u8g2\csrc/u8g2_button.c ****     
 146:..\u8g2\csrc/u8g2_button.c ****     if ( flags & U8G2_BTN_SHADOW_MASK )
 174              		.loc 1 146 0
 175 00ca 069B     		ldr	r3, [sp, #24]
 176 00cc 13F0180F 		tst	r3, #24
 177 00d0 2ED0     		beq	.L5
 147:..\u8g2\csrc/u8g2_button.c ****     {
 148:..\u8g2\csrc/u8g2_button.c ****       if ( border_width == (flags & U8G2_BTN_BW_MASK) )
 178              		.loc 1 148 0
 179 00d2 0D9B     		ldr	r3, [sp, #52]
 180 00d4 9D42     		cmp	r5, r3
 181 00d6 2BD1     		bne	.L5
 182              	.LBB2:
 149:..\u8g2\csrc/u8g2_button.c ****       {
 150:..\u8g2\csrc/u8g2_button.c ****         u8g2_uint_t i;
 151:..\u8g2\csrc/u8g2_button.c ****         u8g2_uint_t shadow_gap = (flags & U8G2_BTN_SHADOW_MASK) >> U8G2_BTN_SHADOW_POS;
 183              		.loc 1 151 0
 184 00d8 069B     		ldr	r3, [sp, #24]
 185 00da C3F3C103 		ubfx	r3, r3, #3, #2
 186              	.LVL28:
 152:..\u8g2\csrc/u8g2_button.c ****         shadow_gap--;
 187              		.loc 1 152 0
 188 00de 013B     		subs	r3, r3, #1
ARM GAS  C:\Users\brian\AppData\Local\Temp\ccFYu3Z5.s 			page 7


 189              	.LVL29:
 190 00e0 9BB2     		uxth	r3, r3
 191              	.LVL30:
 192 00e2 0E93     		str	r3, [sp, #56]
 193              	.LVL31:
 153:..\u8g2\csrc/u8g2_button.c ****         for( i = 0; i < border_width; i++ )
 194              		.loc 1 153 0
 195 00e4 0023     		movs	r3, #0
 196 00e6 CDF83C90 		str	r9, [sp, #60]
 197 00ea 9946     		mov	r9, r3
 198 00ec 1CE0     		b	.L6
 199              	.LVL32:
 200              	.L7:
 154:..\u8g2\csrc/u8g2_button.c ****         {
 155:..\u8g2\csrc/u8g2_button.c ****           u8g2_DrawHLine(u8g2, xx+border_width+shadow_gap,yy+hh+i+shadow_gap,ww);
 201              		.loc 1 155 0 discriminator 3
 202 00ee 059B     		ldr	r3, [sp, #20]
 203 00f0 9A19     		adds	r2, r3, r6
 204 00f2 4A44     		add	r2, r2, r9
 205 00f4 0E99     		ldr	r1, [sp, #56]
 206 00f6 0A44     		add	r2, r2, r1
 207 00f8 4144     		add	r1, r8, r1
 208 00fa 039B     		ldr	r3, [sp, #12]
 209 00fc 92B2     		uxth	r2, r2
 210 00fe 89B2     		uxth	r1, r1
 211 0100 3846     		mov	r0, r7
 212 0102 FFF7FEFF 		bl	u8g2_DrawHLine
 213              	.LVL33:
 156:..\u8g2\csrc/u8g2_button.c ****           u8g2_DrawVLine(u8g2, xx+ww+i+shadow_gap,yy+border_width+shadow_gap,hh);
 214              		.loc 1 156 0 discriminator 3
 215 0106 0E9B     		ldr	r3, [sp, #56]
 216 0108 E218     		adds	r2, r4, r3
 217 010a 0499     		ldr	r1, [sp, #16]
 218 010c 0398     		ldr	r0, [sp, #12]
 219 010e 0144     		add	r1, r1, r0
 220 0110 4944     		add	r1, r1, r9
 221 0112 1944     		add	r1, r1, r3
 222 0114 3346     		mov	r3, r6
 223 0116 92B2     		uxth	r2, r2
 224 0118 89B2     		uxth	r1, r1
 225 011a 3846     		mov	r0, r7
 226 011c FFF7FEFF 		bl	u8g2_DrawVLine
 227              	.LVL34:
 153:..\u8g2\csrc/u8g2_button.c ****         for( i = 0; i < border_width; i++ )
 228              		.loc 1 153 0 discriminator 3
 229 0120 09F10103 		add	r3, r9, #1
 230 0124 1FFA83F9 		uxth	r9, r3
 231              	.LVL35:
 232              	.L6:
 153:..\u8g2\csrc/u8g2_button.c ****         for( i = 0; i < border_width; i++ )
 233              		.loc 1 153 0 is_stmt 0 discriminator 1
 234 0128 4D45     		cmp	r5, r9
 235 012a E0D8     		bhi	.L7
 236 012c DDF83C90 		ldr	r9, [sp, #60]
 237              	.LVL36:
 238              	.L5:
 239              	.LBE2:
ARM GAS  C:\Users\brian\AppData\Local\Temp\ccFYu3Z5.s 			page 8


 157:..\u8g2\csrc/u8g2_button.c ****         }
 158:..\u8g2\csrc/u8g2_button.c ****       }
 159:..\u8g2\csrc/u8g2_button.c ****     }
 160:..\u8g2\csrc/u8g2_button.c ****     border_width--;
 240              		.loc 1 160 0 is_stmt 1
 241 0130 013D     		subs	r5, r5, #1
 242              	.LVL37:
 243 0132 ADB2     		uxth	r5, r5
 244              	.LVL38:
 161:..\u8g2\csrc/u8g2_button.c ****   } /* for */
 245              		.loc 1 161 0
 246 0134 8BE7     		b	.L8
 247              	.L3:
 162:..\u8g2\csrc/u8g2_button.c ****   
 163:..\u8g2\csrc/u8g2_button.c ****   if ( flags & U8G2_BTN_INV )
 248              		.loc 1 163 0
 249 0136 069B     		ldr	r3, [sp, #24]
 250 0138 03F02003 		and	r3, r3, #32
 251 013c 9BB2     		uxth	r3, r3
 252 013e 73B1     		cbz	r3, .L1
 164:..\u8g2\csrc/u8g2_button.c ****   {
 165:..\u8g2\csrc/u8g2_button.c ****     u8g2_SetDrawColor(u8g2, 2);         /* XOR */
 253              		.loc 1 165 0
 254 0140 0221     		movs	r1, #2
 255 0142 3846     		mov	r0, r7
 256 0144 FFF7FEFF 		bl	u8g2_SetDrawColor
 257              	.LVL39:
 166:..\u8g2\csrc/u8g2_button.c ****     u8g2_DrawBox(u8g2, xx, yy, ww, hh);
 258              		.loc 1 166 0
 259 0148 0096     		str	r6, [sp]
 260 014a 039B     		ldr	r3, [sp, #12]
 261 014c 059A     		ldr	r2, [sp, #20]
 262 014e 0499     		ldr	r1, [sp, #16]
 263 0150 3846     		mov	r0, r7
 264 0152 FFF7FEFF 		bl	u8g2_DrawBox
 265              	.LVL40:
 167:..\u8g2\csrc/u8g2_button.c ****     u8g2_SetDrawColor(u8g2, color_backup);
 266              		.loc 1 167 0
 267 0156 0B99     		ldr	r1, [sp, #44]
 268 0158 3846     		mov	r0, r7
 269 015a FFF7FEFF 		bl	u8g2_SetDrawColor
 270              	.LVL41:
 271              	.L1:
 168:..\u8g2\csrc/u8g2_button.c ****   }
 169:..\u8g2\csrc/u8g2_button.c **** }
 272              		.loc 1 169 0
 273 015e 11B0     		add	sp, sp, #68
 274              		.cfi_def_cfa_offset 36
 275              		@ sp needed
 276 0160 BDE8F08F 		pop	{r4, r5, r6, r7, r8, r9, r10, fp, pc}
 277              		.cfi_endproc
 278              	.LFE0:
 279              		.size	u8g2_DrawButtonFrame, .-u8g2_DrawButtonFrame
 280              		.section	.text.u8g2_DrawButtonUTF8,"ax",%progbits
 281              		.align	2
 282              		.global	u8g2_DrawButtonUTF8
 283              		.thumb
ARM GAS  C:\Users\brian\AppData\Local\Temp\ccFYu3Z5.s 			page 9


 284              		.thumb_func
 285              		.type	u8g2_DrawButtonUTF8, %function
 286              	u8g2_DrawButtonUTF8:
 287              	.LFB1:
 170:..\u8g2\csrc/u8g2_button.c **** 
 171:..\u8g2\csrc/u8g2_button.c **** void u8g2_DrawButtonUTF8(u8g2_t *u8g2, u8g2_uint_t x, u8g2_uint_t y, u8g2_uint_t flags, u8g2_uint_t
 172:..\u8g2\csrc/u8g2_button.c **** {
 288              		.loc 1 172 0
 289              		.cfi_startproc
 290              		@ args = 16, pretend = 0, frame = 0
 291              		@ frame_needed = 0, uses_anonymous_args = 0
 292              	.LVL42:
 293 0000 2DE9F043 		push	{r4, r5, r6, r7, r8, r9, lr}
 294              		.cfi_def_cfa_offset 28
 295              		.cfi_offset 4, -28
 296              		.cfi_offset 5, -24
 297              		.cfi_offset 6, -20
 298              		.cfi_offset 7, -16
 299              		.cfi_offset 8, -12
 300              		.cfi_offset 9, -8
 301              		.cfi_offset 14, -4
 302 0004 85B0     		sub	sp, sp, #20
 303              		.cfi_def_cfa_offset 48
 304 0006 0646     		mov	r6, r0
 305 0008 0D46     		mov	r5, r1
 306 000a 9046     		mov	r8, r2
 307 000c 9946     		mov	r9, r3
 308 000e BDF83070 		ldrh	r7, [sp, #48]
 173:..\u8g2\csrc/u8g2_button.c ****   u8g2_uint_t w = u8g2_GetUTF8Width(u8g2, text);
 309              		.loc 1 173 0
 310 0012 0F99     		ldr	r1, [sp, #60]
 311              	.LVL43:
 312 0014 FFF7FEFF 		bl	u8g2_GetUTF8Width
 313              	.LVL44:
 314 0018 09F04003 		and	r3, r9, #64
 315 001c 9BB2     		uxth	r3, r3
 174:..\u8g2\csrc/u8g2_button.c ****   
 175:..\u8g2\csrc/u8g2_button.c ****   u8g2_uint_t text_x_offset = 0; 
 176:..\u8g2\csrc/u8g2_button.c **** 
 177:..\u8g2\csrc/u8g2_button.c ****   if ( flags & U8G2_BTN_HCENTER )
 316              		.loc 1 177 0
 317 001e 2BB1     		cbz	r3, .L13
 178:..\u8g2\csrc/u8g2_button.c ****     x -= (w+1)/2;
 318              		.loc 1 178 0
 319 0020 441C     		adds	r4, r0, #1
 320 0022 04EBD474 		add	r4, r4, r4, lsr #31
 321 0026 A5EB6405 		sub	r5, r5, r4, asr #1
 322 002a ADB2     		uxth	r5, r5
 323              	.LVL45:
 324              	.L13:
 179:..\u8g2\csrc/u8g2_button.c **** 
 180:..\u8g2\csrc/u8g2_button.c ****   if ( w < width )
 325              		.loc 1 180 0
 326 002c B842     		cmp	r0, r7
 327 002e 06D2     		bcs	.L15
 181:..\u8g2\csrc/u8g2_button.c ****   {
 182:..\u8g2\csrc/u8g2_button.c ****     if ( flags & U8G2_BTN_HCENTER )
ARM GAS  C:\Users\brian\AppData\Local\Temp\ccFYu3Z5.s 			page 10


 328              		.loc 1 182 0
 329 0030 43B1     		cbz	r3, .L16
 183:..\u8g2\csrc/u8g2_button.c ****     {
 184:..\u8g2\csrc/u8g2_button.c ****       text_x_offset = (width-w)/2;
 330              		.loc 1 184 0
 331 0032 381A     		subs	r0, r7, r0
 332              	.LVL46:
 333 0034 00EBD070 		add	r0, r0, r0, lsr #31
 334 0038 C0F34F04 		ubfx	r4, r0, #1, #16
 335              	.LVL47:
 336 003c 03E0     		b	.L14
 337              	.LVL48:
 338              	.L15:
 173:..\u8g2\csrc/u8g2_button.c ****   
 339              		.loc 1 173 0
 340 003e 0746     		mov	r7, r0
 175:..\u8g2\csrc/u8g2_button.c **** 
 341              		.loc 1 175 0
 342 0040 0024     		movs	r4, #0
 343 0042 00E0     		b	.L14
 344              	.L16:
 345 0044 0024     		movs	r4, #0
 346              	.LVL49:
 347              	.L14:
 185:..\u8g2\csrc/u8g2_button.c ****     }
 186:..\u8g2\csrc/u8g2_button.c ****     w = width;
 187:..\u8g2\csrc/u8g2_button.c ****   }
 188:..\u8g2\csrc/u8g2_button.c ****   
 189:..\u8g2\csrc/u8g2_button.c ****   u8g2_SetFontMode(u8g2, 1);    
 348              		.loc 1 189 0
 349 0046 0121     		movs	r1, #1
 350 0048 3046     		mov	r0, r6
 351 004a FFF7FEFF 		bl	u8g2_SetFontMode
 352              	.LVL50:
 190:..\u8g2\csrc/u8g2_button.c ****   u8g2_DrawUTF8(u8g2, x,y, text);
 353              		.loc 1 190 0
 354 004e 0F9B     		ldr	r3, [sp, #60]
 355 0050 4246     		mov	r2, r8
 356 0052 2946     		mov	r1, r5
 357 0054 3046     		mov	r0, r6
 358 0056 FFF7FEFF 		bl	u8g2_DrawUTF8
 359              	.LVL51:
 191:..\u8g2\csrc/u8g2_button.c ****   u8g2_DrawButtonFrame(u8g2, x-text_x_offset, y, flags, w, padding_h, padding_v);
 360              		.loc 1 191 0
 361 005a 291B     		subs	r1, r5, r4
 362 005c BDF83830 		ldrh	r3, [sp, #56]
 363 0060 0293     		str	r3, [sp, #8]
 364 0062 BDF83430 		ldrh	r3, [sp, #52]
 365 0066 0193     		str	r3, [sp, #4]
 366 0068 0097     		str	r7, [sp]
 367 006a 4B46     		mov	r3, r9
 368 006c 4246     		mov	r2, r8
 369 006e 89B2     		uxth	r1, r1
 370 0070 3046     		mov	r0, r6
 371 0072 FFF7FEFF 		bl	u8g2_DrawButtonFrame
 372              	.LVL52:
 192:..\u8g2\csrc/u8g2_button.c ****   
ARM GAS  C:\Users\brian\AppData\Local\Temp\ccFYu3Z5.s 			page 11


 193:..\u8g2\csrc/u8g2_button.c **** }
 373              		.loc 1 193 0
 374 0076 05B0     		add	sp, sp, #20
 375              		.cfi_def_cfa_offset 28
 376              		@ sp needed
 377 0078 BDE8F083 		pop	{r4, r5, r6, r7, r8, r9, pc}
 378              		.cfi_endproc
 379              	.LFE1:
 380              		.size	u8g2_DrawButtonUTF8, .-u8g2_DrawButtonUTF8
 381              		.text
 382              	.Letext0:
 383              		.file 2 "c:\\program files (x86)\\cypress\\psoc creator\\4.4\\psoc creator\\import\\gnu\\arm\\5.4.
 384              		.file 3 "c:\\program files (x86)\\cypress\\psoc creator\\4.4\\psoc creator\\import\\gnu\\arm\\5.4.
 385              		.file 4 "..\\u8g2\\csrc\\u8x8.h"
 386              		.file 5 "..\\u8g2\\csrc\\u8g2.h"