ARM GAS  C:\Users\brian\AppData\Local\Temp\cc3q178b.s 			page 1


   1              		.syntax unified
   2              		.cpu cortex-m3
   3              		.fpu softvfp
   4              		.eabi_attribute 20, 1
   5              		.eabi_attribute 21, 1
   6              		.eabi_attribute 23, 3
   7              		.eabi_attribute 24, 1
   8              		.eabi_attribute 25, 1
   9              		.eabi_attribute 26, 1
  10              		.eabi_attribute 30, 1
  11              		.eabi_attribute 34, 1
  12              		.eabi_attribute 18, 4
  13              		.thumb
  14              		.syntax unified
  15              		.file	"u8g2_circle.c"
  16              		.text
  17              	.Ltext0:
  18              		.cfi_sections	.debug_frame
  19              		.section	.text.u8g2_draw_circle_section,"ax",%progbits
  20              		.align	2
  21              		.thumb
  22              		.thumb_func
  23              		.type	u8g2_draw_circle_section, %function
  24              	u8g2_draw_circle_section:
  25              	.LFB0:
  26              		.file 1 "..\\u8g2\\csrc\\u8g2_circle.c"
   1:..\u8g2\csrc/u8g2_circle.c **** /*
   2:..\u8g2\csrc/u8g2_circle.c **** 
   3:..\u8g2\csrc/u8g2_circle.c ****   u8g2_circle.c
   4:..\u8g2\csrc/u8g2_circle.c **** 
   5:..\u8g2\csrc/u8g2_circle.c ****   Universal 8bit Graphics Library (https://github.com/olikraus/u8g2/)
   6:..\u8g2\csrc/u8g2_circle.c **** 
   7:..\u8g2\csrc/u8g2_circle.c ****   Copyright (c) 2016, olikraus@gmail.com
   8:..\u8g2\csrc/u8g2_circle.c ****   All rights reserved.
   9:..\u8g2\csrc/u8g2_circle.c **** 
  10:..\u8g2\csrc/u8g2_circle.c ****   Redistribution and use in source and binary forms, with or without modification, 
  11:..\u8g2\csrc/u8g2_circle.c ****   are permitted provided that the following conditions are met:
  12:..\u8g2\csrc/u8g2_circle.c **** 
  13:..\u8g2\csrc/u8g2_circle.c ****   * Redistributions of source code must retain the above copyright notice, this list 
  14:..\u8g2\csrc/u8g2_circle.c ****     of conditions and the following disclaimer.
  15:..\u8g2\csrc/u8g2_circle.c ****     
  16:..\u8g2\csrc/u8g2_circle.c ****   * Redistributions in binary form must reproduce the above copyright notice, this 
  17:..\u8g2\csrc/u8g2_circle.c ****     list of conditions and the following disclaimer in the documentation and/or other 
  18:..\u8g2\csrc/u8g2_circle.c ****     materials provided with the distribution.
  19:..\u8g2\csrc/u8g2_circle.c **** 
  20:..\u8g2\csrc/u8g2_circle.c ****   THIS SOFTWARE IS PROVIDED BY THE COPYRIGHT HOLDERS AND 
  21:..\u8g2\csrc/u8g2_circle.c ****   CONTRIBUTORS "AS IS" AND ANY EXPRESS OR IMPLIED WARRANTIES, 
  22:..\u8g2\csrc/u8g2_circle.c ****   INCLUDING, BUT NOT LIMITED TO, THE IMPLIED WARRANTIES OF 
  23:..\u8g2\csrc/u8g2_circle.c ****   MERCHANTABILITY AND FITNESS FOR A PARTICULAR PURPOSE ARE 
  24:..\u8g2\csrc/u8g2_circle.c ****   DISCLAIMED. IN NO EVENT SHALL THE COPYRIGHT HOLDER OR 
  25:..\u8g2\csrc/u8g2_circle.c ****   CONTRIBUTORS BE LIABLE FOR ANY DIRECT, INDIRECT, INCIDENTAL, 
  26:..\u8g2\csrc/u8g2_circle.c ****   SPECIAL, EXEMPLARY, OR CONSEQUENTIAL DAMAGES (INCLUDING, BUT 
  27:..\u8g2\csrc/u8g2_circle.c ****   NOT LIMITED TO, PROCUREMENT OF SUBSTITUTE GOODS OR SERVICES; 
  28:..\u8g2\csrc/u8g2_circle.c ****   LOSS OF USE, DATA, OR PROFITS; OR BUSINESS INTERRUPTION) HOWEVER 
  29:..\u8g2\csrc/u8g2_circle.c ****   CAUSED AND ON ANY THEORY OF LIABILITY, WHETHER IN CONTRACT, 
  30:..\u8g2\csrc/u8g2_circle.c ****   STRICT LIABILITY, OR TORT (INCLUDING NEGLIGENCE OR OTHERWISE) 
  31:..\u8g2\csrc/u8g2_circle.c ****   ARISING IN ANY WAY OUT OF THE USE OF THIS SOFTWARE, EVEN IF 
ARM GAS  C:\Users\brian\AppData\Local\Temp\cc3q178b.s 			page 2


  32:..\u8g2\csrc/u8g2_circle.c ****   ADVISED OF THE POSSIBILITY OF SUCH DAMAGE.  
  33:..\u8g2\csrc/u8g2_circle.c **** 
  34:..\u8g2\csrc/u8g2_circle.c **** */
  35:..\u8g2\csrc/u8g2_circle.c **** 
  36:..\u8g2\csrc/u8g2_circle.c **** #include "u8g2.h"
  37:..\u8g2\csrc/u8g2_circle.c **** 
  38:..\u8g2\csrc/u8g2_circle.c **** /*==============================================*/
  39:..\u8g2\csrc/u8g2_circle.c **** /* Circle */
  40:..\u8g2\csrc/u8g2_circle.c **** 
  41:..\u8g2\csrc/u8g2_circle.c **** static void u8g2_draw_circle_section(u8g2_t *u8g2, u8g2_uint_t x, u8g2_uint_t y, u8g2_uint_t x0, u8
  42:..\u8g2\csrc/u8g2_circle.c **** 
  43:..\u8g2\csrc/u8g2_circle.c **** static void u8g2_draw_circle_section(u8g2_t *u8g2, u8g2_uint_t x, u8g2_uint_t y, u8g2_uint_t x0, u8
  44:..\u8g2\csrc/u8g2_circle.c **** {
  27              		.loc 1 44 0
  28              		.cfi_startproc
  29              		@ args = 8, pretend = 0, frame = 0
  30              		@ frame_needed = 0, uses_anonymous_args = 0
  31              	.LVL0:
  32 0000 2DE9F843 		push	{r3, r4, r5, r6, r7, r8, r9, lr}
  33              		.cfi_def_cfa_offset 32
  34              		.cfi_offset 3, -32
  35              		.cfi_offset 4, -28
  36              		.cfi_offset 5, -24
  37              		.cfi_offset 6, -20
  38              		.cfi_offset 7, -16
  39              		.cfi_offset 8, -12
  40              		.cfi_offset 9, -8
  41              		.cfi_offset 14, -4
  42 0004 0746     		mov	r7, r0
  43 0006 8946     		mov	r9, r1
  44 0008 9046     		mov	r8, r2
  45 000a 1D46     		mov	r5, r3
  46 000c BDF82060 		ldrh	r6, [sp, #32]
  47 0010 9DF82440 		ldrb	r4, [sp, #36]	@ zero_extendqisi2
  45:..\u8g2\csrc/u8g2_circle.c ****     /* upper right */
  46:..\u8g2\csrc/u8g2_circle.c ****     if ( option & U8G2_DRAW_UPPER_RIGHT )
  48              		.loc 1 46 0
  49 0014 14F0010F 		tst	r4, #1
  50 0018 0ED0     		beq	.L2
  47:..\u8g2\csrc/u8g2_circle.c ****     {
  48:..\u8g2\csrc/u8g2_circle.c ****       u8g2_DrawPixel(u8g2, x0 + x, y0 - y);
  51              		.loc 1 48 0
  52 001a B21A     		subs	r2, r6, r2
  53              	.LVL1:
  54 001c 5918     		adds	r1, r3, r1
  55              	.LVL2:
  56 001e 92B2     		uxth	r2, r2
  57 0020 89B2     		uxth	r1, r1
  58 0022 FFF7FEFF 		bl	u8g2_DrawPixel
  59              	.LVL3:
  49:..\u8g2\csrc/u8g2_circle.c ****       u8g2_DrawPixel(u8g2, x0 + y, y0 - x);
  60              		.loc 1 49 0
  61 0026 C9EB0602 		rsb	r2, r9, r6
  62 002a 05EB0801 		add	r1, r5, r8
  63 002e 92B2     		uxth	r2, r2
  64 0030 89B2     		uxth	r1, r1
  65 0032 3846     		mov	r0, r7
ARM GAS  C:\Users\brian\AppData\Local\Temp\cc3q178b.s 			page 3


  66 0034 FFF7FEFF 		bl	u8g2_DrawPixel
  67              	.LVL4:
  68              	.L2:
  50:..\u8g2\csrc/u8g2_circle.c ****     }
  51:..\u8g2\csrc/u8g2_circle.c ****     
  52:..\u8g2\csrc/u8g2_circle.c ****     /* upper left */
  53:..\u8g2\csrc/u8g2_circle.c ****     if ( option & U8G2_DRAW_UPPER_LEFT )
  69              		.loc 1 53 0
  70 0038 14F0020F 		tst	r4, #2
  71 003c 11D0     		beq	.L3
  54:..\u8g2\csrc/u8g2_circle.c ****     {
  55:..\u8g2\csrc/u8g2_circle.c ****       u8g2_DrawPixel(u8g2, x0 - x, y0 - y);
  72              		.loc 1 55 0
  73 003e C8EB0602 		rsb	r2, r8, r6
  74 0042 C9EB0501 		rsb	r1, r9, r5
  75 0046 92B2     		uxth	r2, r2
  76 0048 89B2     		uxth	r1, r1
  77 004a 3846     		mov	r0, r7
  78 004c FFF7FEFF 		bl	u8g2_DrawPixel
  79              	.LVL5:
  56:..\u8g2\csrc/u8g2_circle.c ****       u8g2_DrawPixel(u8g2, x0 - y, y0 - x);
  80              		.loc 1 56 0
  81 0050 C9EB0602 		rsb	r2, r9, r6
  82 0054 C8EB0501 		rsb	r1, r8, r5
  83 0058 92B2     		uxth	r2, r2
  84 005a 89B2     		uxth	r1, r1
  85 005c 3846     		mov	r0, r7
  86 005e FFF7FEFF 		bl	u8g2_DrawPixel
  87              	.LVL6:
  88              	.L3:
  57:..\u8g2\csrc/u8g2_circle.c ****     }
  58:..\u8g2\csrc/u8g2_circle.c ****     
  59:..\u8g2\csrc/u8g2_circle.c ****     /* lower right */
  60:..\u8g2\csrc/u8g2_circle.c ****     if ( option & U8G2_DRAW_LOWER_RIGHT )
  89              		.loc 1 60 0
  90 0062 14F0080F 		tst	r4, #8
  91 0066 11D0     		beq	.L4
  61:..\u8g2\csrc/u8g2_circle.c ****     {
  62:..\u8g2\csrc/u8g2_circle.c ****       u8g2_DrawPixel(u8g2, x0 + x, y0 + y);
  92              		.loc 1 62 0
  93 0068 06EB0802 		add	r2, r6, r8
  94 006c 05EB0901 		add	r1, r5, r9
  95 0070 92B2     		uxth	r2, r2
  96 0072 89B2     		uxth	r1, r1
  97 0074 3846     		mov	r0, r7
  98 0076 FFF7FEFF 		bl	u8g2_DrawPixel
  99              	.LVL7:
  63:..\u8g2\csrc/u8g2_circle.c ****       u8g2_DrawPixel(u8g2, x0 + y, y0 + x);
 100              		.loc 1 63 0
 101 007a 09EB0602 		add	r2, r9, r6
 102 007e 05EB0801 		add	r1, r5, r8
 103 0082 92B2     		uxth	r2, r2
 104 0084 89B2     		uxth	r1, r1
 105 0086 3846     		mov	r0, r7
 106 0088 FFF7FEFF 		bl	u8g2_DrawPixel
 107              	.LVL8:
 108              	.L4:
ARM GAS  C:\Users\brian\AppData\Local\Temp\cc3q178b.s 			page 4


  64:..\u8g2\csrc/u8g2_circle.c ****     }
  65:..\u8g2\csrc/u8g2_circle.c ****     
  66:..\u8g2\csrc/u8g2_circle.c ****     /* lower left */
  67:..\u8g2\csrc/u8g2_circle.c ****     if ( option & U8G2_DRAW_LOWER_LEFT )
 109              		.loc 1 67 0
 110 008c 14F0040F 		tst	r4, #4
 111 0090 11D0     		beq	.L1
  68:..\u8g2\csrc/u8g2_circle.c ****     {
  69:..\u8g2\csrc/u8g2_circle.c ****       u8g2_DrawPixel(u8g2, x0 - x, y0 + y);
 112              		.loc 1 69 0
 113 0092 06EB0802 		add	r2, r6, r8
 114 0096 C9EB0501 		rsb	r1, r9, r5
 115 009a 92B2     		uxth	r2, r2
 116 009c 89B2     		uxth	r1, r1
 117 009e 3846     		mov	r0, r7
 118 00a0 FFF7FEFF 		bl	u8g2_DrawPixel
 119              	.LVL9:
  70:..\u8g2\csrc/u8g2_circle.c ****       u8g2_DrawPixel(u8g2, x0 - y, y0 + x);
 120              		.loc 1 70 0
 121 00a4 09EB0602 		add	r2, r9, r6
 122 00a8 C8EB0501 		rsb	r1, r8, r5
 123 00ac 92B2     		uxth	r2, r2
 124 00ae 89B2     		uxth	r1, r1
 125 00b0 3846     		mov	r0, r7
 126 00b2 FFF7FEFF 		bl	u8g2_DrawPixel
 127              	.LVL10:
 128              	.L1:
 129 00b6 BDE8F883 		pop	{r3, r4, r5, r6, r7, r8, r9, pc}
 130              		.cfi_endproc
 131              	.LFE0:
 132              		.size	u8g2_draw_circle_section, .-u8g2_draw_circle_section
 133 00ba 00BF     		.section	.text.u8g2_draw_circle,"ax",%progbits
 134              		.align	2
 135              		.thumb
 136              		.thumb_func
 137              		.type	u8g2_draw_circle, %function
 138              	u8g2_draw_circle:
 139              	.LFB1:
  71:..\u8g2\csrc/u8g2_circle.c ****     }
  72:..\u8g2\csrc/u8g2_circle.c **** }
  73:..\u8g2\csrc/u8g2_circle.c **** 
  74:..\u8g2\csrc/u8g2_circle.c **** static void u8g2_draw_circle(u8g2_t *u8g2, u8g2_uint_t x0, u8g2_uint_t y0, u8g2_uint_t rad, uint8_t
  75:..\u8g2\csrc/u8g2_circle.c **** {
 140              		.loc 1 75 0
 141              		.cfi_startproc
 142              		@ args = 4, pretend = 0, frame = 8
 143              		@ frame_needed = 0, uses_anonymous_args = 0
 144              	.LVL11:
 145 0000 2DE9F04F 		push	{r4, r5, r6, r7, r8, r9, r10, fp, lr}
 146              		.cfi_def_cfa_offset 36
 147              		.cfi_offset 4, -36
 148              		.cfi_offset 5, -32
 149              		.cfi_offset 6, -28
 150              		.cfi_offset 7, -24
 151              		.cfi_offset 8, -20
 152              		.cfi_offset 9, -16
 153              		.cfi_offset 10, -12
ARM GAS  C:\Users\brian\AppData\Local\Temp\cc3q178b.s 			page 5


 154              		.cfi_offset 11, -8
 155              		.cfi_offset 14, -4
 156 0004 85B0     		sub	sp, sp, #20
 157              		.cfi_def_cfa_offset 56
 158 0006 0390     		str	r0, [sp, #12]
 159 0008 8946     		mov	r9, r1
 160 000a 9246     		mov	r10, r2
 161 000c 1F46     		mov	r7, r3
 162 000e 9DF838B0 		ldrb	fp, [sp, #56]	@ zero_extendqisi2
 163              	.LVL12:
  76:..\u8g2\csrc/u8g2_circle.c ****     u8g2_int_t f;
  77:..\u8g2\csrc/u8g2_circle.c ****     u8g2_int_t ddF_x;
  78:..\u8g2\csrc/u8g2_circle.c ****     u8g2_int_t ddF_y;
  79:..\u8g2\csrc/u8g2_circle.c ****     u8g2_uint_t x;
  80:..\u8g2\csrc/u8g2_circle.c ****     u8g2_uint_t y;
  81:..\u8g2\csrc/u8g2_circle.c **** 
  82:..\u8g2\csrc/u8g2_circle.c ****     f = 1;
  83:..\u8g2\csrc/u8g2_circle.c ****     f -= rad;
 164              		.loc 1 83 0
 165 0012 C3F10108 		rsb	r8, r3, #1
 166 0016 0FFA88F8 		sxth	r8, r8
 167              	.LVL13:
  84:..\u8g2\csrc/u8g2_circle.c ****     ddF_x = 1;
  85:..\u8g2\csrc/u8g2_circle.c ****     ddF_y = 0;
  86:..\u8g2\csrc/u8g2_circle.c ****     ddF_y -= rad;
 168              		.loc 1 86 0
 169 001a 5D42     		negs	r5, r3
 170 001c ADB2     		uxth	r5, r5
 171              	.LVL14:
  87:..\u8g2\csrc/u8g2_circle.c ****     ddF_y *= 2;
 172              		.loc 1 87 0
 173 001e 6D00     		lsls	r5, r5, #1
 174              	.LVL15:
 175 0020 2DB2     		sxth	r5, r5
 176              	.LVL16:
  88:..\u8g2\csrc/u8g2_circle.c ****     x = 0;
  89:..\u8g2\csrc/u8g2_circle.c ****     y = rad;
  90:..\u8g2\csrc/u8g2_circle.c **** 
  91:..\u8g2\csrc/u8g2_circle.c ****     u8g2_draw_circle_section(u8g2, x, y, x0, y0, option);
 177              		.loc 1 91 0
 178 0022 CDF804B0 		str	fp, [sp, #4]
 179 0026 0092     		str	r2, [sp]
 180 0028 0B46     		mov	r3, r1
 181              	.LVL17:
 182 002a 3A46     		mov	r2, r7
 183              	.LVL18:
 184 002c 0021     		movs	r1, #0
 185              	.LVL19:
 186 002e FFF7FEFF 		bl	u8g2_draw_circle_section
 187              	.LVL20:
  88:..\u8g2\csrc/u8g2_circle.c ****     x = 0;
 188              		.loc 1 88 0
 189 0032 0026     		movs	r6, #0
  84:..\u8g2\csrc/u8g2_circle.c ****     ddF_y = 0;
 190              		.loc 1 84 0
 191 0034 0124     		movs	r4, #1
  92:..\u8g2\csrc/u8g2_circle.c ****     
ARM GAS  C:\Users\brian\AppData\Local\Temp\cc3q178b.s 			page 6


  93:..\u8g2\csrc/u8g2_circle.c ****     while ( x < y )
 192              		.loc 1 93 0
 193 0036 1CE0     		b	.L8
 194              	.LVL21:
 195              	.L10:
  94:..\u8g2\csrc/u8g2_circle.c ****     {
  95:..\u8g2\csrc/u8g2_circle.c ****       if (f >= 0) 
 196              		.loc 1 95 0
 197 0038 B8F1000F 		cmp	r8, #0
 198 003c 07DB     		blt	.L9
  96:..\u8g2\csrc/u8g2_circle.c ****       {
  97:..\u8g2\csrc/u8g2_circle.c ****         y--;
 199              		.loc 1 97 0
 200 003e 013F     		subs	r7, r7, #1
 201              	.LVL22:
 202 0040 BFB2     		uxth	r7, r7
 203              	.LVL23:
  98:..\u8g2\csrc/u8g2_circle.c ****         ddF_y += 2;
 204              		.loc 1 98 0
 205 0042 0235     		adds	r5, r5, #2
 206              	.LVL24:
 207 0044 ABB2     		uxth	r3, r5
 208 0046 1DB2     		sxth	r5, r3
 209              	.LVL25:
  99:..\u8g2\csrc/u8g2_circle.c ****         f += ddF_y;
 210              		.loc 1 99 0
 211 0048 9844     		add	r8, r8, r3
 212              	.LVL26:
 213 004a 0FFA88F8 		sxth	r8, r8
 214              	.LVL27:
 215              	.L9:
 100:..\u8g2\csrc/u8g2_circle.c ****       }
 101:..\u8g2\csrc/u8g2_circle.c ****       x++;
 216              		.loc 1 101 0
 217 004e 0136     		adds	r6, r6, #1
 218              	.LVL28:
 219 0050 B6B2     		uxth	r6, r6
 220              	.LVL29:
 102:..\u8g2\csrc/u8g2_circle.c ****       ddF_x += 2;
 221              		.loc 1 102 0
 222 0052 0234     		adds	r4, r4, #2
 223              	.LVL30:
 224 0054 A3B2     		uxth	r3, r4
 225 0056 1CB2     		sxth	r4, r3
 226              	.LVL31:
 103:..\u8g2\csrc/u8g2_circle.c ****       f += ddF_x;
 227              		.loc 1 103 0
 228 0058 9844     		add	r8, r8, r3
 229              	.LVL32:
 230 005a 0FFA88F8 		sxth	r8, r8
 231              	.LVL33:
 104:..\u8g2\csrc/u8g2_circle.c **** 
 105:..\u8g2\csrc/u8g2_circle.c ****       u8g2_draw_circle_section(u8g2, x, y, x0, y0, option);    
 232              		.loc 1 105 0
 233 005e CDF804B0 		str	fp, [sp, #4]
 234 0062 CDF800A0 		str	r10, [sp]
 235 0066 4B46     		mov	r3, r9
ARM GAS  C:\Users\brian\AppData\Local\Temp\cc3q178b.s 			page 7


 236 0068 3A46     		mov	r2, r7
 237 006a 3146     		mov	r1, r6
 238 006c 0398     		ldr	r0, [sp, #12]
 239 006e FFF7FEFF 		bl	u8g2_draw_circle_section
 240              	.LVL34:
 241              	.L8:
  93:..\u8g2\csrc/u8g2_circle.c ****     {
 242              		.loc 1 93 0
 243 0072 BE42     		cmp	r6, r7
 244 0074 E0D3     		bcc	.L10
 106:..\u8g2\csrc/u8g2_circle.c ****     }
 107:..\u8g2\csrc/u8g2_circle.c **** }
 245              		.loc 1 107 0
 246 0076 05B0     		add	sp, sp, #20
 247              		.cfi_def_cfa_offset 36
 248              		@ sp needed
 249 0078 BDE8F08F 		pop	{r4, r5, r6, r7, r8, r9, r10, fp, pc}
 250              		.cfi_endproc
 251              	.LFE1:
 252              		.size	u8g2_draw_circle, .-u8g2_draw_circle
 253              		.section	.text.u8g2_draw_ellipse_section,"ax",%progbits
 254              		.align	2
 255              		.thumb
 256              		.thumb_func
 257              		.type	u8g2_draw_ellipse_section, %function
 258              	u8g2_draw_ellipse_section:
 259              	.LFB6:
 108:..\u8g2\csrc/u8g2_circle.c **** 
 109:..\u8g2\csrc/u8g2_circle.c **** void u8g2_DrawCircle(u8g2_t *u8g2, u8g2_uint_t x0, u8g2_uint_t y0, u8g2_uint_t rad, uint8_t option)
 110:..\u8g2\csrc/u8g2_circle.c **** {
 111:..\u8g2\csrc/u8g2_circle.c ****   /* check for bounding box */
 112:..\u8g2\csrc/u8g2_circle.c **** #ifdef U8G2_WITH_INTERSECTION
 113:..\u8g2\csrc/u8g2_circle.c ****   {
 114:..\u8g2\csrc/u8g2_circle.c ****     if ( u8g2_IsIntersection(u8g2, x0-rad, y0-rad, x0+rad+1, y0+rad+1) == 0 ) 
 115:..\u8g2\csrc/u8g2_circle.c ****       return;
 116:..\u8g2\csrc/u8g2_circle.c ****   }
 117:..\u8g2\csrc/u8g2_circle.c **** #endif /* U8G2_WITH_INTERSECTION */
 118:..\u8g2\csrc/u8g2_circle.c ****   
 119:..\u8g2\csrc/u8g2_circle.c ****   
 120:..\u8g2\csrc/u8g2_circle.c ****   /* draw circle */
 121:..\u8g2\csrc/u8g2_circle.c ****   u8g2_draw_circle(u8g2, x0, y0, rad, option);
 122:..\u8g2\csrc/u8g2_circle.c **** }
 123:..\u8g2\csrc/u8g2_circle.c **** 
 124:..\u8g2\csrc/u8g2_circle.c **** /*==============================================*/
 125:..\u8g2\csrc/u8g2_circle.c **** /* Disk */
 126:..\u8g2\csrc/u8g2_circle.c **** 
 127:..\u8g2\csrc/u8g2_circle.c **** static void u8g2_draw_disc_section(u8g2_t *u8g2, u8g2_uint_t x, u8g2_uint_t y, u8g2_uint_t x0, u8g2
 128:..\u8g2\csrc/u8g2_circle.c **** 
 129:..\u8g2\csrc/u8g2_circle.c **** static void u8g2_draw_disc_section(u8g2_t *u8g2, u8g2_uint_t x, u8g2_uint_t y, u8g2_uint_t x0, u8g2
 130:..\u8g2\csrc/u8g2_circle.c **** {
 131:..\u8g2\csrc/u8g2_circle.c ****     /* upper right */
 132:..\u8g2\csrc/u8g2_circle.c ****     if ( option & U8G2_DRAW_UPPER_RIGHT )
 133:..\u8g2\csrc/u8g2_circle.c ****     {
 134:..\u8g2\csrc/u8g2_circle.c ****       u8g2_DrawVLine(u8g2, x0+x, y0-y, y+1);
 135:..\u8g2\csrc/u8g2_circle.c ****       u8g2_DrawVLine(u8g2, x0+y, y0-x, x+1);
 136:..\u8g2\csrc/u8g2_circle.c ****     }
 137:..\u8g2\csrc/u8g2_circle.c ****     
ARM GAS  C:\Users\brian\AppData\Local\Temp\cc3q178b.s 			page 8


 138:..\u8g2\csrc/u8g2_circle.c ****     /* upper left */
 139:..\u8g2\csrc/u8g2_circle.c ****     if ( option & U8G2_DRAW_UPPER_LEFT )
 140:..\u8g2\csrc/u8g2_circle.c ****     {
 141:..\u8g2\csrc/u8g2_circle.c ****       u8g2_DrawVLine(u8g2, x0-x, y0-y, y+1);
 142:..\u8g2\csrc/u8g2_circle.c ****       u8g2_DrawVLine(u8g2, x0-y, y0-x, x+1);
 143:..\u8g2\csrc/u8g2_circle.c ****     }
 144:..\u8g2\csrc/u8g2_circle.c ****     
 145:..\u8g2\csrc/u8g2_circle.c ****     /* lower right */
 146:..\u8g2\csrc/u8g2_circle.c ****     if ( option & U8G2_DRAW_LOWER_RIGHT )
 147:..\u8g2\csrc/u8g2_circle.c ****     {
 148:..\u8g2\csrc/u8g2_circle.c ****       u8g2_DrawVLine(u8g2, x0+x, y0, y+1);
 149:..\u8g2\csrc/u8g2_circle.c ****       u8g2_DrawVLine(u8g2, x0+y, y0, x+1);
 150:..\u8g2\csrc/u8g2_circle.c ****     }
 151:..\u8g2\csrc/u8g2_circle.c ****     
 152:..\u8g2\csrc/u8g2_circle.c ****     /* lower left */
 153:..\u8g2\csrc/u8g2_circle.c ****     if ( option & U8G2_DRAW_LOWER_LEFT )
 154:..\u8g2\csrc/u8g2_circle.c ****     {
 155:..\u8g2\csrc/u8g2_circle.c ****       u8g2_DrawVLine(u8g2, x0-x, y0, y+1);
 156:..\u8g2\csrc/u8g2_circle.c ****       u8g2_DrawVLine(u8g2, x0-y, y0, x+1);
 157:..\u8g2\csrc/u8g2_circle.c ****     }
 158:..\u8g2\csrc/u8g2_circle.c **** }
 159:..\u8g2\csrc/u8g2_circle.c **** 
 160:..\u8g2\csrc/u8g2_circle.c **** static void u8g2_draw_disc(u8g2_t *u8g2, u8g2_uint_t x0, u8g2_uint_t y0, u8g2_uint_t rad, uint8_t o
 161:..\u8g2\csrc/u8g2_circle.c **** {
 162:..\u8g2\csrc/u8g2_circle.c ****   u8g2_int_t f;
 163:..\u8g2\csrc/u8g2_circle.c ****   u8g2_int_t ddF_x;
 164:..\u8g2\csrc/u8g2_circle.c ****   u8g2_int_t ddF_y;
 165:..\u8g2\csrc/u8g2_circle.c ****   u8g2_uint_t x;
 166:..\u8g2\csrc/u8g2_circle.c ****   u8g2_uint_t y;
 167:..\u8g2\csrc/u8g2_circle.c **** 
 168:..\u8g2\csrc/u8g2_circle.c ****   f = 1;
 169:..\u8g2\csrc/u8g2_circle.c ****   f -= rad;
 170:..\u8g2\csrc/u8g2_circle.c ****   ddF_x = 1;
 171:..\u8g2\csrc/u8g2_circle.c ****   ddF_y = 0;
 172:..\u8g2\csrc/u8g2_circle.c ****   ddF_y -= rad;
 173:..\u8g2\csrc/u8g2_circle.c ****   ddF_y *= 2;
 174:..\u8g2\csrc/u8g2_circle.c ****   x = 0;
 175:..\u8g2\csrc/u8g2_circle.c ****   y = rad;
 176:..\u8g2\csrc/u8g2_circle.c **** 
 177:..\u8g2\csrc/u8g2_circle.c ****   u8g2_draw_disc_section(u8g2, x, y, x0, y0, option);
 178:..\u8g2\csrc/u8g2_circle.c ****   
 179:..\u8g2\csrc/u8g2_circle.c ****   while ( x < y )
 180:..\u8g2\csrc/u8g2_circle.c ****   {
 181:..\u8g2\csrc/u8g2_circle.c ****     if (f >= 0) 
 182:..\u8g2\csrc/u8g2_circle.c ****     {
 183:..\u8g2\csrc/u8g2_circle.c ****       y--;
 184:..\u8g2\csrc/u8g2_circle.c ****       ddF_y += 2;
 185:..\u8g2\csrc/u8g2_circle.c ****       f += ddF_y;
 186:..\u8g2\csrc/u8g2_circle.c ****     }
 187:..\u8g2\csrc/u8g2_circle.c ****     x++;
 188:..\u8g2\csrc/u8g2_circle.c ****     ddF_x += 2;
 189:..\u8g2\csrc/u8g2_circle.c ****     f += ddF_x;
 190:..\u8g2\csrc/u8g2_circle.c **** 
 191:..\u8g2\csrc/u8g2_circle.c ****     u8g2_draw_disc_section(u8g2, x, y, x0, y0, option);    
 192:..\u8g2\csrc/u8g2_circle.c ****   }
 193:..\u8g2\csrc/u8g2_circle.c **** }
 194:..\u8g2\csrc/u8g2_circle.c **** 
ARM GAS  C:\Users\brian\AppData\Local\Temp\cc3q178b.s 			page 9


 195:..\u8g2\csrc/u8g2_circle.c **** void u8g2_DrawDisc(u8g2_t *u8g2, u8g2_uint_t x0, u8g2_uint_t y0, u8g2_uint_t rad, uint8_t option)
 196:..\u8g2\csrc/u8g2_circle.c **** {
 197:..\u8g2\csrc/u8g2_circle.c ****   /* check for bounding box */
 198:..\u8g2\csrc/u8g2_circle.c **** #ifdef U8G2_WITH_INTERSECTION
 199:..\u8g2\csrc/u8g2_circle.c ****   {
 200:..\u8g2\csrc/u8g2_circle.c ****     if ( u8g2_IsIntersection(u8g2, x0-rad, y0-rad, x0+rad+1, y0+rad+1) == 0 ) 
 201:..\u8g2\csrc/u8g2_circle.c ****       return;
 202:..\u8g2\csrc/u8g2_circle.c ****   }
 203:..\u8g2\csrc/u8g2_circle.c **** #endif /* U8G2_WITH_INTERSECTION */
 204:..\u8g2\csrc/u8g2_circle.c ****   
 205:..\u8g2\csrc/u8g2_circle.c ****   /* draw disc */
 206:..\u8g2\csrc/u8g2_circle.c ****   u8g2_draw_disc(u8g2, x0, y0, rad, option);
 207:..\u8g2\csrc/u8g2_circle.c **** }
 208:..\u8g2\csrc/u8g2_circle.c **** 
 209:..\u8g2\csrc/u8g2_circle.c **** /*==============================================*/
 210:..\u8g2\csrc/u8g2_circle.c **** /* Ellipse */
 211:..\u8g2\csrc/u8g2_circle.c **** 
 212:..\u8g2\csrc/u8g2_circle.c **** /*
 213:..\u8g2\csrc/u8g2_circle.c ****   Source: 
 214:..\u8g2\csrc/u8g2_circle.c ****     Foley, Computer Graphics, p 90
 215:..\u8g2\csrc/u8g2_circle.c **** */
 216:..\u8g2\csrc/u8g2_circle.c **** static void u8g2_draw_ellipse_section(u8g2_t *u8g2, u8g2_uint_t x, u8g2_uint_t y, u8g2_uint_t x0, u
 217:..\u8g2\csrc/u8g2_circle.c **** static void u8g2_draw_ellipse_section(u8g2_t *u8g2, u8g2_uint_t x, u8g2_uint_t y, u8g2_uint_t x0, u
 218:..\u8g2\csrc/u8g2_circle.c **** {
 260              		.loc 1 218 0
 261              		.cfi_startproc
 262              		@ args = 8, pretend = 0, frame = 0
 263              		@ frame_needed = 0, uses_anonymous_args = 0
 264              	.LVL35:
 265 0000 2DE9F843 		push	{r3, r4, r5, r6, r7, r8, r9, lr}
 266              		.cfi_def_cfa_offset 32
 267              		.cfi_offset 3, -32
 268              		.cfi_offset 4, -28
 269              		.cfi_offset 5, -24
 270              		.cfi_offset 6, -20
 271              		.cfi_offset 7, -16
 272              		.cfi_offset 8, -12
 273              		.cfi_offset 9, -8
 274              		.cfi_offset 14, -4
 275 0004 0746     		mov	r7, r0
 276 0006 8846     		mov	r8, r1
 277 0008 1646     		mov	r6, r2
 278 000a 1D46     		mov	r5, r3
 279 000c BDF82090 		ldrh	r9, [sp, #32]
 280 0010 9DF82440 		ldrb	r4, [sp, #36]	@ zero_extendqisi2
 219:..\u8g2\csrc/u8g2_circle.c ****     /* upper right */
 220:..\u8g2\csrc/u8g2_circle.c ****     if ( option & U8G2_DRAW_UPPER_RIGHT )
 281              		.loc 1 220 0
 282 0014 14F0010F 		tst	r4, #1
 283 0018 06D0     		beq	.L13
 221:..\u8g2\csrc/u8g2_circle.c ****     {
 222:..\u8g2\csrc/u8g2_circle.c ****       u8g2_DrawPixel(u8g2, x0 + x, y0 - y);
 284              		.loc 1 222 0
 285 001a C2EB0902 		rsb	r2, r2, r9
 286              	.LVL36:
 287 001e 5918     		adds	r1, r3, r1
 288              	.LVL37:
ARM GAS  C:\Users\brian\AppData\Local\Temp\cc3q178b.s 			page 10


 289 0020 92B2     		uxth	r2, r2
 290 0022 89B2     		uxth	r1, r1
 291 0024 FFF7FEFF 		bl	u8g2_DrawPixel
 292              	.LVL38:
 293              	.L13:
 223:..\u8g2\csrc/u8g2_circle.c ****     }
 224:..\u8g2\csrc/u8g2_circle.c ****     
 225:..\u8g2\csrc/u8g2_circle.c ****     /* upper left */
 226:..\u8g2\csrc/u8g2_circle.c ****     if ( option & U8G2_DRAW_UPPER_LEFT )
 294              		.loc 1 226 0
 295 0028 14F0020F 		tst	r4, #2
 296 002c 08D0     		beq	.L14
 227:..\u8g2\csrc/u8g2_circle.c ****     {
 228:..\u8g2\csrc/u8g2_circle.c ****       u8g2_DrawPixel(u8g2, x0 - x, y0 - y);
 297              		.loc 1 228 0
 298 002e C6EB0902 		rsb	r2, r6, r9
 299 0032 C8EB0501 		rsb	r1, r8, r5
 300 0036 92B2     		uxth	r2, r2
 301 0038 89B2     		uxth	r1, r1
 302 003a 3846     		mov	r0, r7
 303 003c FFF7FEFF 		bl	u8g2_DrawPixel
 304              	.LVL39:
 305              	.L14:
 229:..\u8g2\csrc/u8g2_circle.c ****     }
 230:..\u8g2\csrc/u8g2_circle.c ****     
 231:..\u8g2\csrc/u8g2_circle.c ****     /* lower right */
 232:..\u8g2\csrc/u8g2_circle.c ****     if ( option & U8G2_DRAW_LOWER_RIGHT )
 306              		.loc 1 232 0
 307 0040 14F0080F 		tst	r4, #8
 308 0044 08D0     		beq	.L15
 233:..\u8g2\csrc/u8g2_circle.c ****     {
 234:..\u8g2\csrc/u8g2_circle.c ****       u8g2_DrawPixel(u8g2, x0 + x, y0 + y);
 309              		.loc 1 234 0
 310 0046 09EB0602 		add	r2, r9, r6
 311 004a 05EB0801 		add	r1, r5, r8
 312 004e 92B2     		uxth	r2, r2
 313 0050 89B2     		uxth	r1, r1
 314 0052 3846     		mov	r0, r7
 315 0054 FFF7FEFF 		bl	u8g2_DrawPixel
 316              	.LVL40:
 317              	.L15:
 235:..\u8g2\csrc/u8g2_circle.c ****     }
 236:..\u8g2\csrc/u8g2_circle.c ****     
 237:..\u8g2\csrc/u8g2_circle.c ****     /* lower left */
 238:..\u8g2\csrc/u8g2_circle.c ****     if ( option & U8G2_DRAW_LOWER_LEFT )
 318              		.loc 1 238 0
 319 0058 14F0040F 		tst	r4, #4
 320 005c 08D0     		beq	.L12
 239:..\u8g2\csrc/u8g2_circle.c ****     {
 240:..\u8g2\csrc/u8g2_circle.c ****       u8g2_DrawPixel(u8g2, x0 - x, y0 + y);
 321              		.loc 1 240 0
 322 005e 09EB0602 		add	r2, r9, r6
 323 0062 C8EB0501 		rsb	r1, r8, r5
 324 0066 92B2     		uxth	r2, r2
 325 0068 89B2     		uxth	r1, r1
 326 006a 3846     		mov	r0, r7
 327 006c FFF7FEFF 		bl	u8g2_DrawPixel
ARM GAS  C:\Users\brian\AppData\Local\Temp\cc3q178b.s 			page 11


 328              	.LVL41:
 329              	.L12:
 330 0070 BDE8F883 		pop	{r3, r4, r5, r6, r7, r8, r9, pc}
 331              		.cfi_endproc
 332              	.LFE6:
 333              		.size	u8g2_draw_ellipse_section, .-u8g2_draw_ellipse_section
 334              		.section	.text.u8g2_draw_ellipse,"ax",%progbits
 335              		.align	2
 336              		.thumb
 337              		.thumb_func
 338              		.type	u8g2_draw_ellipse, %function
 339              	u8g2_draw_ellipse:
 340              	.LFB7:
 241:..\u8g2\csrc/u8g2_circle.c ****     }
 242:..\u8g2\csrc/u8g2_circle.c **** }
 243:..\u8g2\csrc/u8g2_circle.c **** 
 244:..\u8g2\csrc/u8g2_circle.c **** static void u8g2_draw_ellipse(u8g2_t *u8g2, u8g2_uint_t x0, u8g2_uint_t y0, u8g2_uint_t rx, u8g2_ui
 245:..\u8g2\csrc/u8g2_circle.c **** {
 341              		.loc 1 245 0
 342              		.cfi_startproc
 343              		@ args = 8, pretend = 0, frame = 40
 344              		@ frame_needed = 0, uses_anonymous_args = 0
 345              	.LVL42:
 346 0000 2DE9F04F 		push	{r4, r5, r6, r7, r8, r9, r10, fp, lr}
 347              		.cfi_def_cfa_offset 36
 348              		.cfi_offset 4, -36
 349              		.cfi_offset 5, -32
 350              		.cfi_offset 6, -28
 351              		.cfi_offset 7, -24
 352              		.cfi_offset 8, -20
 353              		.cfi_offset 9, -16
 354              		.cfi_offset 10, -12
 355              		.cfi_offset 11, -8
 356              		.cfi_offset 14, -4
 357 0004 8DB0     		sub	sp, sp, #52
 358              		.cfi_def_cfa_offset 88
 359 0006 0690     		str	r0, [sp, #24]
 360 0008 0791     		str	r1, [sp, #28]
 361 000a 0892     		str	r2, [sp, #32]
 362 000c 1846     		mov	r0, r3
 363              	.LVL43:
 364 000e 0493     		str	r3, [sp, #16]
 365 0010 BDF85820 		ldrh	r2, [sp, #88]
 366              	.LVL44:
 367 0014 0592     		str	r2, [sp, #20]
 368 0016 9DF85C10 		ldrb	r1, [sp, #92]	@ zero_extendqisi2
 369              	.LVL45:
 370 001a 0991     		str	r1, [sp, #36]
 246:..\u8g2\csrc/u8g2_circle.c ****   u8g2_uint_t x, y;
 247:..\u8g2\csrc/u8g2_circle.c ****   u8g2_long_t xchg, ychg;
 248:..\u8g2\csrc/u8g2_circle.c ****   u8g2_long_t err;
 249:..\u8g2\csrc/u8g2_circle.c ****   u8g2_long_t rxrx2;
 250:..\u8g2\csrc/u8g2_circle.c ****   u8g2_long_t ryry2;
 251:..\u8g2\csrc/u8g2_circle.c ****   u8g2_long_t stopx, stopy;
 252:..\u8g2\csrc/u8g2_circle.c ****   
 253:..\u8g2\csrc/u8g2_circle.c ****   rxrx2 = rx;
 371              		.loc 1 253 0
ARM GAS  C:\Users\brian\AppData\Local\Temp\cc3q178b.s 			page 12


 372 001c 0A93     		str	r3, [sp, #40]
 373              	.LVL46:
 254:..\u8g2\csrc/u8g2_circle.c ****   rxrx2 *= rx;
 374              		.loc 1 254 0
 375 001e 03FB03FA 		mul	r10, r3, r3
 376              	.LVL47:
 255:..\u8g2\csrc/u8g2_circle.c ****   rxrx2 *= 2;
 377              		.loc 1 255 0
 378 0022 4FEA4A06 		lsl	r6, r10, #1
 379              	.LVL48:
 256:..\u8g2\csrc/u8g2_circle.c ****   
 257:..\u8g2\csrc/u8g2_circle.c ****   ryry2 = ry;
 380              		.loc 1 257 0
 381 0026 0B92     		str	r2, [sp, #44]
 382              	.LVL49:
 258:..\u8g2\csrc/u8g2_circle.c ****   ryry2 *= ry;
 383              		.loc 1 258 0
 384 0028 02FB02F9 		mul	r9, r2, r2
 385              	.LVL50:
 259:..\u8g2\csrc/u8g2_circle.c ****   ryry2 *= 2;
 386              		.loc 1 259 0
 387 002c 4FEA4907 		lsl	r7, r9, #1
 388              	.LVL51:
 260:..\u8g2\csrc/u8g2_circle.c ****   
 261:..\u8g2\csrc/u8g2_circle.c ****   x = rx;
 262:..\u8g2\csrc/u8g2_circle.c ****   y = 0;
 263:..\u8g2\csrc/u8g2_circle.c ****   
 264:..\u8g2\csrc/u8g2_circle.c ****   xchg = 1;
 265:..\u8g2\csrc/u8g2_circle.c ****   xchg -= rx;
 389              		.loc 1 265 0
 390 0030 C0F10105 		rsb	r5, r0, #1
 391              	.LVL52:
 266:..\u8g2\csrc/u8g2_circle.c ****   xchg -= rx;
 392              		.loc 1 266 0
 393 0034 2D1A     		subs	r5, r5, r0
 394              	.LVL53:
 267:..\u8g2\csrc/u8g2_circle.c ****   xchg *= ry;
 395              		.loc 1 267 0
 396 0036 05FB02F5 		mul	r5, r5, r2
 397              	.LVL54:
 268:..\u8g2\csrc/u8g2_circle.c ****   xchg *= ry;
 398              		.loc 1 268 0
 399 003a 05FB02F5 		mul	r5, r5, r2
 400              	.LVL55:
 269:..\u8g2\csrc/u8g2_circle.c ****   
 270:..\u8g2\csrc/u8g2_circle.c ****   ychg = rx;
 271:..\u8g2\csrc/u8g2_circle.c ****   ychg *= rx;
 272:..\u8g2\csrc/u8g2_circle.c ****   
 273:..\u8g2\csrc/u8g2_circle.c ****   err = 0;
 274:..\u8g2\csrc/u8g2_circle.c ****   
 275:..\u8g2\csrc/u8g2_circle.c ****   stopx = ryry2;
 276:..\u8g2\csrc/u8g2_circle.c ****   stopx *= rx;
 401              		.loc 1 276 0
 402 003e 07FB00FB 		mul	fp, r7, r0
 403              	.LVL56:
 277:..\u8g2\csrc/u8g2_circle.c ****   stopy = 0;
 404              		.loc 1 277 0
ARM GAS  C:\Users\brian\AppData\Local\Temp\cc3q178b.s 			page 13


 405 0042 4FF00008 		mov	r8, #0
 273:..\u8g2\csrc/u8g2_circle.c ****   
 406              		.loc 1 273 0
 407 0046 4446     		mov	r4, r8
 262:..\u8g2\csrc/u8g2_circle.c ****   
 408              		.loc 1 262 0
 409 0048 CDF80C80 		str	r8, [sp, #12]
 278:..\u8g2\csrc/u8g2_circle.c ****   
 279:..\u8g2\csrc/u8g2_circle.c ****   while( stopx >= stopy )
 410              		.loc 1 279 0
 411 004c 1CE0     		b	.L19
 412              	.LVL57:
 413              	.L21:
 280:..\u8g2\csrc/u8g2_circle.c ****   {
 281:..\u8g2\csrc/u8g2_circle.c ****     u8g2_draw_ellipse_section(u8g2, x, y, x0, y0, option);
 414              		.loc 1 281 0
 415 004e 099B     		ldr	r3, [sp, #36]
 416 0050 0193     		str	r3, [sp, #4]
 417 0052 089B     		ldr	r3, [sp, #32]
 418 0054 0093     		str	r3, [sp]
 419 0056 079B     		ldr	r3, [sp, #28]
 420 0058 039A     		ldr	r2, [sp, #12]
 421 005a 0499     		ldr	r1, [sp, #16]
 422 005c 0698     		ldr	r0, [sp, #24]
 423 005e FFF7FEFF 		bl	u8g2_draw_ellipse_section
 424              	.LVL58:
 282:..\u8g2\csrc/u8g2_circle.c ****     y++;
 425              		.loc 1 282 0
 426 0062 039B     		ldr	r3, [sp, #12]
 427 0064 0133     		adds	r3, r3, #1
 428 0066 9BB2     		uxth	r3, r3
 429 0068 0393     		str	r3, [sp, #12]
 430              	.LVL59:
 283:..\u8g2\csrc/u8g2_circle.c ****     stopy += rxrx2;
 431              		.loc 1 283 0
 432 006a B044     		add	r8, r8, r6
 433              	.LVL60:
 284:..\u8g2\csrc/u8g2_circle.c ****     err += ychg;
 434              		.loc 1 284 0
 435 006c 5444     		add	r4, r4, r10
 436              	.LVL61:
 285:..\u8g2\csrc/u8g2_circle.c ****     ychg += rxrx2;
 437              		.loc 1 285 0
 438 006e B244     		add	r10, r10, r6
 439              	.LVL62:
 286:..\u8g2\csrc/u8g2_circle.c ****     if ( 2*err+xchg > 0 )
 440              		.loc 1 286 0
 441 0070 05EB4403 		add	r3, r5, r4, lsl #1
 442 0074 002B     		cmp	r3, #0
 443 0076 07DD     		ble	.L19
 287:..\u8g2\csrc/u8g2_circle.c ****     {
 288:..\u8g2\csrc/u8g2_circle.c ****       x--;
 444              		.loc 1 288 0
 445 0078 049B     		ldr	r3, [sp, #16]
 446 007a 013B     		subs	r3, r3, #1
 447 007c 9BB2     		uxth	r3, r3
 448 007e 0493     		str	r3, [sp, #16]
ARM GAS  C:\Users\brian\AppData\Local\Temp\cc3q178b.s 			page 14


 449              	.LVL63:
 289:..\u8g2\csrc/u8g2_circle.c ****       stopx -= ryry2;
 450              		.loc 1 289 0
 451 0080 C7EB0B0B 		rsb	fp, r7, fp
 452              	.LVL64:
 290:..\u8g2\csrc/u8g2_circle.c ****       err += xchg;
 453              		.loc 1 290 0
 454 0084 2C44     		add	r4, r4, r5
 455              	.LVL65:
 291:..\u8g2\csrc/u8g2_circle.c ****       xchg += ryry2;      
 456              		.loc 1 291 0
 457 0086 3D44     		add	r5, r5, r7
 458              	.LVL66:
 459              	.L19:
 279:..\u8g2\csrc/u8g2_circle.c ****   {
 460              		.loc 1 279 0
 461 0088 C345     		cmp	fp, r8
 462 008a E0DA     		bge	.L21
 463              	.LVL67:
 292:..\u8g2\csrc/u8g2_circle.c ****     }
 293:..\u8g2\csrc/u8g2_circle.c ****   }
 294:..\u8g2\csrc/u8g2_circle.c **** 
 295:..\u8g2\csrc/u8g2_circle.c ****   x = 0;
 296:..\u8g2\csrc/u8g2_circle.c ****   y = ry;
 297:..\u8g2\csrc/u8g2_circle.c ****   
 298:..\u8g2\csrc/u8g2_circle.c ****   xchg = ry;
 299:..\u8g2\csrc/u8g2_circle.c ****   xchg *= ry;
 300:..\u8g2\csrc/u8g2_circle.c ****   
 301:..\u8g2\csrc/u8g2_circle.c ****   ychg = 1;
 302:..\u8g2\csrc/u8g2_circle.c ****   ychg -= ry;
 464              		.loc 1 302 0
 465 008c 0B9A     		ldr	r2, [sp, #44]
 466 008e 1346     		mov	r3, r2
 467 0090 C2F10108 		rsb	r8, r2, #1
 468              	.LVL68:
 303:..\u8g2\csrc/u8g2_circle.c ****   ychg -= ry;
 469              		.loc 1 303 0
 470 0094 C2EB0808 		rsb	r8, r2, r8
 471              	.LVL69:
 304:..\u8g2\csrc/u8g2_circle.c ****   ychg *= rx;
 472              		.loc 1 304 0
 473 0098 0A99     		ldr	r1, [sp, #40]
 474 009a 08FB01F8 		mul	r8, r8, r1
 475              	.LVL70:
 305:..\u8g2\csrc/u8g2_circle.c ****   ychg *= rx;
 476              		.loc 1 305 0
 477 009e 08FB01F8 		mul	r8, r8, r1
 478              	.LVL71:
 306:..\u8g2\csrc/u8g2_circle.c ****   
 307:..\u8g2\csrc/u8g2_circle.c ****   err = 0;
 308:..\u8g2\csrc/u8g2_circle.c ****   
 309:..\u8g2\csrc/u8g2_circle.c ****   stopx = 0;
 310:..\u8g2\csrc/u8g2_circle.c **** 
 311:..\u8g2\csrc/u8g2_circle.c ****   stopy = rxrx2;
 312:..\u8g2\csrc/u8g2_circle.c ****   stopy *= ry;
 479              		.loc 1 312 0
 480 00a2 03FB06FB 		mul	fp, r3, r6
ARM GAS  C:\Users\brian\AppData\Local\Temp\cc3q178b.s 			page 15


 481              	.LVL72:
 309:..\u8g2\csrc/u8g2_circle.c **** 
 482              		.loc 1 309 0
 483 00a6 4FF0000A 		mov	r10, #0
 307:..\u8g2\csrc/u8g2_circle.c ****   
 484              		.loc 1 307 0
 485 00aa 5546     		mov	r5, r10
 295:..\u8g2\csrc/u8g2_circle.c ****   y = ry;
 486              		.loc 1 295 0
 487 00ac 5446     		mov	r4, r10
 313:..\u8g2\csrc/u8g2_circle.c ****   
 314:..\u8g2\csrc/u8g2_circle.c **** 
 315:..\u8g2\csrc/u8g2_circle.c ****   while( stopx <= stopy )
 488              		.loc 1 315 0
 489 00ae 1AE0     		b	.L22
 490              	.LVL73:
 491              	.L24:
 316:..\u8g2\csrc/u8g2_circle.c ****   {
 317:..\u8g2\csrc/u8g2_circle.c ****     u8g2_draw_ellipse_section(u8g2, x, y, x0, y0, option);
 492              		.loc 1 317 0
 493 00b0 099B     		ldr	r3, [sp, #36]
 494 00b2 0193     		str	r3, [sp, #4]
 495 00b4 089B     		ldr	r3, [sp, #32]
 496 00b6 0093     		str	r3, [sp]
 497 00b8 079B     		ldr	r3, [sp, #28]
 498 00ba 059A     		ldr	r2, [sp, #20]
 499 00bc 2146     		mov	r1, r4
 500 00be 0698     		ldr	r0, [sp, #24]
 501 00c0 FFF7FEFF 		bl	u8g2_draw_ellipse_section
 502              	.LVL74:
 318:..\u8g2\csrc/u8g2_circle.c ****     x++;
 503              		.loc 1 318 0
 504 00c4 0134     		adds	r4, r4, #1
 505              	.LVL75:
 506 00c6 A4B2     		uxth	r4, r4
 507              	.LVL76:
 319:..\u8g2\csrc/u8g2_circle.c ****     stopx += ryry2;
 508              		.loc 1 319 0
 509 00c8 BA44     		add	r10, r10, r7
 510              	.LVL77:
 320:..\u8g2\csrc/u8g2_circle.c ****     err += xchg;
 511              		.loc 1 320 0
 512 00ca 4D44     		add	r5, r5, r9
 513              	.LVL78:
 321:..\u8g2\csrc/u8g2_circle.c ****     xchg += ryry2;
 514              		.loc 1 321 0
 515 00cc B944     		add	r9, r9, r7
 516              	.LVL79:
 322:..\u8g2\csrc/u8g2_circle.c ****     if ( 2*err+ychg > 0 )
 517              		.loc 1 322 0
 518 00ce 08EB4503 		add	r3, r8, r5, lsl #1
 519 00d2 002B     		cmp	r3, #0
 520 00d4 07DD     		ble	.L22
 323:..\u8g2\csrc/u8g2_circle.c ****     {
 324:..\u8g2\csrc/u8g2_circle.c ****       y--;
 521              		.loc 1 324 0
 522 00d6 059B     		ldr	r3, [sp, #20]
ARM GAS  C:\Users\brian\AppData\Local\Temp\cc3q178b.s 			page 16


 523 00d8 013B     		subs	r3, r3, #1
 524 00da 9BB2     		uxth	r3, r3
 525 00dc 0593     		str	r3, [sp, #20]
 526              	.LVL80:
 325:..\u8g2\csrc/u8g2_circle.c ****       stopy -= rxrx2;
 527              		.loc 1 325 0
 528 00de C6EB0B0B 		rsb	fp, r6, fp
 529              	.LVL81:
 326:..\u8g2\csrc/u8g2_circle.c ****       err += ychg;
 530              		.loc 1 326 0
 531 00e2 4544     		add	r5, r5, r8
 532              	.LVL82:
 327:..\u8g2\csrc/u8g2_circle.c ****       ychg += rxrx2;
 533              		.loc 1 327 0
 534 00e4 B044     		add	r8, r8, r6
 535              	.LVL83:
 536              	.L22:
 315:..\u8g2\csrc/u8g2_circle.c ****   {
 537              		.loc 1 315 0
 538 00e6 DA45     		cmp	r10, fp
 539 00e8 E2DD     		ble	.L24
 328:..\u8g2\csrc/u8g2_circle.c ****     }
 329:..\u8g2\csrc/u8g2_circle.c ****   }
 330:..\u8g2\csrc/u8g2_circle.c ****   
 331:..\u8g2\csrc/u8g2_circle.c **** }
 540              		.loc 1 331 0
 541 00ea 0DB0     		add	sp, sp, #52
 542              		.cfi_def_cfa_offset 36
 543              		@ sp needed
 544 00ec BDE8F08F 		pop	{r4, r5, r6, r7, r8, r9, r10, fp, pc}
 545              		.cfi_endproc
 546              	.LFE7:
 547              		.size	u8g2_draw_ellipse, .-u8g2_draw_ellipse
 548              		.section	.text.u8g2_draw_disc_section,"ax",%progbits
 549              		.align	2
 550              		.thumb
 551              		.thumb_func
 552              		.type	u8g2_draw_disc_section, %function
 553              	u8g2_draw_disc_section:
 554              	.LFB3:
 130:..\u8g2\csrc/u8g2_circle.c ****     /* upper right */
 555              		.loc 1 130 0
 556              		.cfi_startproc
 557              		@ args = 8, pretend = 0, frame = 0
 558              		@ frame_needed = 0, uses_anonymous_args = 0
 559              	.LVL84:
 560 0000 2DE9F843 		push	{r3, r4, r5, r6, r7, r8, r9, lr}
 561              		.cfi_def_cfa_offset 32
 562              		.cfi_offset 3, -32
 563              		.cfi_offset 4, -28
 564              		.cfi_offset 5, -24
 565              		.cfi_offset 6, -20
 566              		.cfi_offset 7, -16
 567              		.cfi_offset 8, -12
 568              		.cfi_offset 9, -8
 569              		.cfi_offset 14, -4
 570 0004 8046     		mov	r8, r0
ARM GAS  C:\Users\brian\AppData\Local\Temp\cc3q178b.s 			page 17


 571 0006 0D46     		mov	r5, r1
 572 0008 1746     		mov	r7, r2
 573 000a 1E46     		mov	r6, r3
 574 000c BDF82090 		ldrh	r9, [sp, #32]
 575 0010 9DF82440 		ldrb	r4, [sp, #36]	@ zero_extendqisi2
 132:..\u8g2\csrc/u8g2_circle.c ****     {
 576              		.loc 1 132 0
 577 0014 14F0010F 		tst	r4, #1
 578 0018 12D0     		beq	.L27
 134:..\u8g2\csrc/u8g2_circle.c ****       u8g2_DrawVLine(u8g2, x0+y, y0-x, x+1);
 579              		.loc 1 134 0
 580 001a 531C     		adds	r3, r2, #1
 581              	.LVL85:
 582 001c C2EB0902 		rsb	r2, r2, r9
 583              	.LVL86:
 584 0020 7118     		adds	r1, r6, r1
 585              	.LVL87:
 586 0022 9BB2     		uxth	r3, r3
 587 0024 92B2     		uxth	r2, r2
 588 0026 89B2     		uxth	r1, r1
 589 0028 FFF7FEFF 		bl	u8g2_DrawVLine
 590              	.LVL88:
 135:..\u8g2\csrc/u8g2_circle.c ****     }
 591              		.loc 1 135 0
 592 002c 6B1C     		adds	r3, r5, #1
 593 002e C5EB0902 		rsb	r2, r5, r9
 594 0032 F119     		adds	r1, r6, r7
 595 0034 9BB2     		uxth	r3, r3
 596 0036 92B2     		uxth	r2, r2
 597 0038 89B2     		uxth	r1, r1
 598 003a 4046     		mov	r0, r8
 599 003c FFF7FEFF 		bl	u8g2_DrawVLine
 600              	.LVL89:
 601              	.L27:
 139:..\u8g2\csrc/u8g2_circle.c ****     {
 602              		.loc 1 139 0
 603 0040 14F0020F 		tst	r4, #2
 604 0044 13D0     		beq	.L28
 141:..\u8g2\csrc/u8g2_circle.c ****       u8g2_DrawVLine(u8g2, x0-y, y0-x, x+1);
 605              		.loc 1 141 0
 606 0046 7B1C     		adds	r3, r7, #1
 607 0048 C7EB0902 		rsb	r2, r7, r9
 608 004c 711B     		subs	r1, r6, r5
 609 004e 9BB2     		uxth	r3, r3
 610 0050 92B2     		uxth	r2, r2
 611 0052 89B2     		uxth	r1, r1
 612 0054 4046     		mov	r0, r8
 613 0056 FFF7FEFF 		bl	u8g2_DrawVLine
 614              	.LVL90:
 142:..\u8g2\csrc/u8g2_circle.c ****     }
 615              		.loc 1 142 0
 616 005a 6B1C     		adds	r3, r5, #1
 617 005c C5EB0902 		rsb	r2, r5, r9
 618 0060 F11B     		subs	r1, r6, r7
 619 0062 9BB2     		uxth	r3, r3
 620 0064 92B2     		uxth	r2, r2
 621 0066 89B2     		uxth	r1, r1
ARM GAS  C:\Users\brian\AppData\Local\Temp\cc3q178b.s 			page 18


 622 0068 4046     		mov	r0, r8
 623 006a FFF7FEFF 		bl	u8g2_DrawVLine
 624              	.LVL91:
 625              	.L28:
 146:..\u8g2\csrc/u8g2_circle.c ****     {
 626              		.loc 1 146 0
 627 006e 14F0080F 		tst	r4, #8
 628 0072 0FD0     		beq	.L29
 148:..\u8g2\csrc/u8g2_circle.c ****       u8g2_DrawVLine(u8g2, x0+y, y0, x+1);
 629              		.loc 1 148 0
 630 0074 7B1C     		adds	r3, r7, #1
 631 0076 7119     		adds	r1, r6, r5
 632 0078 9BB2     		uxth	r3, r3
 633 007a 4A46     		mov	r2, r9
 634 007c 89B2     		uxth	r1, r1
 635 007e 4046     		mov	r0, r8
 636 0080 FFF7FEFF 		bl	u8g2_DrawVLine
 637              	.LVL92:
 149:..\u8g2\csrc/u8g2_circle.c ****     }
 638              		.loc 1 149 0
 639 0084 6B1C     		adds	r3, r5, #1
 640 0086 F119     		adds	r1, r6, r7
 641 0088 9BB2     		uxth	r3, r3
 642 008a 4A46     		mov	r2, r9
 643 008c 89B2     		uxth	r1, r1
 644 008e 4046     		mov	r0, r8
 645 0090 FFF7FEFF 		bl	u8g2_DrawVLine
 646              	.LVL93:
 647              	.L29:
 153:..\u8g2\csrc/u8g2_circle.c ****     {
 648              		.loc 1 153 0
 649 0094 14F0040F 		tst	r4, #4
 650 0098 0FD0     		beq	.L26
 155:..\u8g2\csrc/u8g2_circle.c ****       u8g2_DrawVLine(u8g2, x0-y, y0, x+1);
 651              		.loc 1 155 0
 652 009a 7B1C     		adds	r3, r7, #1
 653 009c 711B     		subs	r1, r6, r5
 654 009e 9BB2     		uxth	r3, r3
 655 00a0 4A46     		mov	r2, r9
 656 00a2 89B2     		uxth	r1, r1
 657 00a4 4046     		mov	r0, r8
 658 00a6 FFF7FEFF 		bl	u8g2_DrawVLine
 659              	.LVL94:
 156:..\u8g2\csrc/u8g2_circle.c ****     }
 660              		.loc 1 156 0
 661 00aa 6B1C     		adds	r3, r5, #1
 662 00ac F11B     		subs	r1, r6, r7
 663 00ae 9BB2     		uxth	r3, r3
 664 00b0 4A46     		mov	r2, r9
 665 00b2 89B2     		uxth	r1, r1
 666 00b4 4046     		mov	r0, r8
 667 00b6 FFF7FEFF 		bl	u8g2_DrawVLine
 668              	.LVL95:
 669              	.L26:
 670 00ba BDE8F883 		pop	{r3, r4, r5, r6, r7, r8, r9, pc}
 671              		.cfi_endproc
 672              	.LFE3:
ARM GAS  C:\Users\brian\AppData\Local\Temp\cc3q178b.s 			page 19


 673              		.size	u8g2_draw_disc_section, .-u8g2_draw_disc_section
 674 00be 00BF     		.section	.text.u8g2_draw_disc,"ax",%progbits
 675              		.align	2
 676              		.thumb
 677              		.thumb_func
 678              		.type	u8g2_draw_disc, %function
 679              	u8g2_draw_disc:
 680              	.LFB4:
 161:..\u8g2\csrc/u8g2_circle.c ****   u8g2_int_t f;
 681              		.loc 1 161 0
 682              		.cfi_startproc
 683              		@ args = 4, pretend = 0, frame = 8
 684              		@ frame_needed = 0, uses_anonymous_args = 0
 685              	.LVL96:
 686 0000 2DE9F04F 		push	{r4, r5, r6, r7, r8, r9, r10, fp, lr}
 687              		.cfi_def_cfa_offset 36
 688              		.cfi_offset 4, -36
 689              		.cfi_offset 5, -32
 690              		.cfi_offset 6, -28
 691              		.cfi_offset 7, -24
 692              		.cfi_offset 8, -20
 693              		.cfi_offset 9, -16
 694              		.cfi_offset 10, -12
 695              		.cfi_offset 11, -8
 696              		.cfi_offset 14, -4
 697 0004 85B0     		sub	sp, sp, #20
 698              		.cfi_def_cfa_offset 56
 699 0006 0390     		str	r0, [sp, #12]
 700 0008 8946     		mov	r9, r1
 701 000a 9246     		mov	r10, r2
 702 000c 1F46     		mov	r7, r3
 703 000e 9DF838B0 		ldrb	fp, [sp, #56]	@ zero_extendqisi2
 704              	.LVL97:
 169:..\u8g2\csrc/u8g2_circle.c ****   ddF_x = 1;
 705              		.loc 1 169 0
 706 0012 C3F10108 		rsb	r8, r3, #1
 707 0016 0FFA88F8 		sxth	r8, r8
 708              	.LVL98:
 172:..\u8g2\csrc/u8g2_circle.c ****   ddF_y *= 2;
 709              		.loc 1 172 0
 710 001a 5D42     		negs	r5, r3
 711 001c ADB2     		uxth	r5, r5
 712              	.LVL99:
 173:..\u8g2\csrc/u8g2_circle.c ****   x = 0;
 713              		.loc 1 173 0
 714 001e 6D00     		lsls	r5, r5, #1
 715              	.LVL100:
 716 0020 2DB2     		sxth	r5, r5
 717              	.LVL101:
 177:..\u8g2\csrc/u8g2_circle.c ****   
 718              		.loc 1 177 0
 719 0022 CDF804B0 		str	fp, [sp, #4]
 720 0026 0092     		str	r2, [sp]
 721 0028 0B46     		mov	r3, r1
 722              	.LVL102:
 723 002a 3A46     		mov	r2, r7
 724              	.LVL103:
ARM GAS  C:\Users\brian\AppData\Local\Temp\cc3q178b.s 			page 20


 725 002c 0021     		movs	r1, #0
 726              	.LVL104:
 727 002e FFF7FEFF 		bl	u8g2_draw_disc_section
 728              	.LVL105:
 174:..\u8g2\csrc/u8g2_circle.c ****   y = rad;
 729              		.loc 1 174 0
 730 0032 0026     		movs	r6, #0
 170:..\u8g2\csrc/u8g2_circle.c ****   ddF_y = 0;
 731              		.loc 1 170 0
 732 0034 0124     		movs	r4, #1
 179:..\u8g2\csrc/u8g2_circle.c ****   {
 733              		.loc 1 179 0
 734 0036 1CE0     		b	.L33
 735              	.LVL106:
 736              	.L35:
 181:..\u8g2\csrc/u8g2_circle.c ****     {
 737              		.loc 1 181 0
 738 0038 B8F1000F 		cmp	r8, #0
 739 003c 07DB     		blt	.L34
 183:..\u8g2\csrc/u8g2_circle.c ****       ddF_y += 2;
 740              		.loc 1 183 0
 741 003e 013F     		subs	r7, r7, #1
 742              	.LVL107:
 743 0040 BFB2     		uxth	r7, r7
 744              	.LVL108:
 184:..\u8g2\csrc/u8g2_circle.c ****       f += ddF_y;
 745              		.loc 1 184 0
 746 0042 0235     		adds	r5, r5, #2
 747              	.LVL109:
 748 0044 ABB2     		uxth	r3, r5
 749 0046 1DB2     		sxth	r5, r3
 750              	.LVL110:
 185:..\u8g2\csrc/u8g2_circle.c ****     }
 751              		.loc 1 185 0
 752 0048 9844     		add	r8, r8, r3
 753              	.LVL111:
 754 004a 0FFA88F8 		sxth	r8, r8
 755              	.LVL112:
 756              	.L34:
 187:..\u8g2\csrc/u8g2_circle.c ****     ddF_x += 2;
 757              		.loc 1 187 0
 758 004e 0136     		adds	r6, r6, #1
 759              	.LVL113:
 760 0050 B6B2     		uxth	r6, r6
 761              	.LVL114:
 188:..\u8g2\csrc/u8g2_circle.c ****     f += ddF_x;
 762              		.loc 1 188 0
 763 0052 0234     		adds	r4, r4, #2
 764              	.LVL115:
 765 0054 A3B2     		uxth	r3, r4
 766 0056 1CB2     		sxth	r4, r3
 767              	.LVL116:
 189:..\u8g2\csrc/u8g2_circle.c **** 
 768              		.loc 1 189 0
 769 0058 9844     		add	r8, r8, r3
 770              	.LVL117:
 771 005a 0FFA88F8 		sxth	r8, r8
ARM GAS  C:\Users\brian\AppData\Local\Temp\cc3q178b.s 			page 21


 772              	.LVL118:
 191:..\u8g2\csrc/u8g2_circle.c ****   }
 773              		.loc 1 191 0
 774 005e CDF804B0 		str	fp, [sp, #4]
 775 0062 CDF800A0 		str	r10, [sp]
 776 0066 4B46     		mov	r3, r9
 777 0068 3A46     		mov	r2, r7
 778 006a 3146     		mov	r1, r6
 779 006c 0398     		ldr	r0, [sp, #12]
 780 006e FFF7FEFF 		bl	u8g2_draw_disc_section
 781              	.LVL119:
 782              	.L33:
 179:..\u8g2\csrc/u8g2_circle.c ****   {
 783              		.loc 1 179 0
 784 0072 BE42     		cmp	r6, r7
 785 0074 E0D3     		bcc	.L35
 193:..\u8g2\csrc/u8g2_circle.c **** 
 786              		.loc 1 193 0
 787 0076 05B0     		add	sp, sp, #20
 788              		.cfi_def_cfa_offset 36
 789              		@ sp needed
 790 0078 BDE8F08F 		pop	{r4, r5, r6, r7, r8, r9, r10, fp, pc}
 791              		.cfi_endproc
 792              	.LFE4:
 793              		.size	u8g2_draw_disc, .-u8g2_draw_disc
 794              		.section	.text.u8g2_draw_filled_ellipse_section,"ax",%progbits
 795              		.align	2
 796              		.thumb
 797              		.thumb_func
 798              		.type	u8g2_draw_filled_ellipse_section, %function
 799              	u8g2_draw_filled_ellipse_section:
 800              	.LFB9:
 332:..\u8g2\csrc/u8g2_circle.c **** 
 333:..\u8g2\csrc/u8g2_circle.c **** void u8g2_DrawEllipse(u8g2_t *u8g2, u8g2_uint_t x0, u8g2_uint_t y0, u8g2_uint_t rx, u8g2_uint_t ry,
 334:..\u8g2\csrc/u8g2_circle.c **** {
 335:..\u8g2\csrc/u8g2_circle.c ****   /* check for bounding box */
 336:..\u8g2\csrc/u8g2_circle.c **** #ifdef U8G2_WITH_INTERSECTION
 337:..\u8g2\csrc/u8g2_circle.c ****   {
 338:..\u8g2\csrc/u8g2_circle.c ****     if ( u8g2_IsIntersection(u8g2, x0-rx, y0-ry, x0+rx+1, y0+ry+1) == 0 ) 
 339:..\u8g2\csrc/u8g2_circle.c ****       return;
 340:..\u8g2\csrc/u8g2_circle.c ****   }
 341:..\u8g2\csrc/u8g2_circle.c **** #endif /* U8G2_WITH_INTERSECTION */
 342:..\u8g2\csrc/u8g2_circle.c ****   
 343:..\u8g2\csrc/u8g2_circle.c ****   u8g2_draw_ellipse(u8g2, x0, y0, rx, ry, option);
 344:..\u8g2\csrc/u8g2_circle.c **** }
 345:..\u8g2\csrc/u8g2_circle.c **** 
 346:..\u8g2\csrc/u8g2_circle.c **** /*==============================================*/
 347:..\u8g2\csrc/u8g2_circle.c **** /* Filled Ellipse */
 348:..\u8g2\csrc/u8g2_circle.c **** 
 349:..\u8g2\csrc/u8g2_circle.c **** static void u8g2_draw_filled_ellipse_section(u8g2_t *u8g2, u8g2_uint_t x, u8g2_uint_t y, u8g2_uint_
 350:..\u8g2\csrc/u8g2_circle.c **** static void u8g2_draw_filled_ellipse_section(u8g2_t *u8g2, u8g2_uint_t x, u8g2_uint_t y, u8g2_uint_
 351:..\u8g2\csrc/u8g2_circle.c **** {
 801              		.loc 1 351 0
 802              		.cfi_startproc
 803              		@ args = 8, pretend = 0, frame = 0
 804              		@ frame_needed = 0, uses_anonymous_args = 0
 805              	.LVL120:
ARM GAS  C:\Users\brian\AppData\Local\Temp\cc3q178b.s 			page 22


 806 0000 2DE9F843 		push	{r3, r4, r5, r6, r7, r8, r9, lr}
 807              		.cfi_def_cfa_offset 32
 808              		.cfi_offset 3, -32
 809              		.cfi_offset 4, -28
 810              		.cfi_offset 5, -24
 811              		.cfi_offset 6, -20
 812              		.cfi_offset 7, -16
 813              		.cfi_offset 8, -12
 814              		.cfi_offset 9, -8
 815              		.cfi_offset 14, -4
 816 0004 0746     		mov	r7, r0
 817 0006 8946     		mov	r9, r1
 818 0008 1546     		mov	r5, r2
 819 000a 1E46     		mov	r6, r3
 820 000c BDF82080 		ldrh	r8, [sp, #32]
 821 0010 9DF82440 		ldrb	r4, [sp, #36]	@ zero_extendqisi2
 352:..\u8g2\csrc/u8g2_circle.c ****     /* upper right */
 353:..\u8g2\csrc/u8g2_circle.c ****     if ( option & U8G2_DRAW_UPPER_RIGHT )
 822              		.loc 1 353 0
 823 0014 14F0010F 		tst	r4, #1
 824 0018 08D0     		beq	.L38
 354:..\u8g2\csrc/u8g2_circle.c ****     {
 355:..\u8g2\csrc/u8g2_circle.c ****       u8g2_DrawVLine(u8g2, x0+x, y0-y, y+1);
 825              		.loc 1 355 0
 826 001a 531C     		adds	r3, r2, #1
 827              	.LVL121:
 828 001c C2EB0802 		rsb	r2, r2, r8
 829              	.LVL122:
 830 0020 7118     		adds	r1, r6, r1
 831              	.LVL123:
 832 0022 9BB2     		uxth	r3, r3
 833 0024 92B2     		uxth	r2, r2
 834 0026 89B2     		uxth	r1, r1
 835 0028 FFF7FEFF 		bl	u8g2_DrawVLine
 836              	.LVL124:
 837              	.L38:
 356:..\u8g2\csrc/u8g2_circle.c ****     }
 357:..\u8g2\csrc/u8g2_circle.c ****     
 358:..\u8g2\csrc/u8g2_circle.c ****     /* upper left */
 359:..\u8g2\csrc/u8g2_circle.c ****     if ( option & U8G2_DRAW_UPPER_LEFT )
 838              		.loc 1 359 0
 839 002c 14F0020F 		tst	r4, #2
 840 0030 0AD0     		beq	.L39
 360:..\u8g2\csrc/u8g2_circle.c ****     {
 361:..\u8g2\csrc/u8g2_circle.c ****       u8g2_DrawVLine(u8g2, x0-x, y0-y, y+1);
 841              		.loc 1 361 0
 842 0032 6B1C     		adds	r3, r5, #1
 843 0034 C5EB0802 		rsb	r2, r5, r8
 844 0038 C9EB0601 		rsb	r1, r9, r6
 845 003c 9BB2     		uxth	r3, r3
 846 003e 92B2     		uxth	r2, r2
 847 0040 89B2     		uxth	r1, r1
 848 0042 3846     		mov	r0, r7
 849 0044 FFF7FEFF 		bl	u8g2_DrawVLine
 850              	.LVL125:
 851              	.L39:
 362:..\u8g2\csrc/u8g2_circle.c ****     }
ARM GAS  C:\Users\brian\AppData\Local\Temp\cc3q178b.s 			page 23


 363:..\u8g2\csrc/u8g2_circle.c ****     
 364:..\u8g2\csrc/u8g2_circle.c ****     /* lower right */
 365:..\u8g2\csrc/u8g2_circle.c ****     if ( option & U8G2_DRAW_LOWER_RIGHT )
 852              		.loc 1 365 0
 853 0048 14F0080F 		tst	r4, #8
 854 004c 08D0     		beq	.L40
 366:..\u8g2\csrc/u8g2_circle.c ****     {
 367:..\u8g2\csrc/u8g2_circle.c ****       u8g2_DrawVLine(u8g2, x0+x, y0, y+1);
 855              		.loc 1 367 0
 856 004e 6B1C     		adds	r3, r5, #1
 857 0050 06EB0901 		add	r1, r6, r9
 858 0054 9BB2     		uxth	r3, r3
 859 0056 4246     		mov	r2, r8
 860 0058 89B2     		uxth	r1, r1
 861 005a 3846     		mov	r0, r7
 862 005c FFF7FEFF 		bl	u8g2_DrawVLine
 863              	.LVL126:
 864              	.L40:
 368:..\u8g2\csrc/u8g2_circle.c ****     }
 369:..\u8g2\csrc/u8g2_circle.c ****     
 370:..\u8g2\csrc/u8g2_circle.c ****     /* lower left */
 371:..\u8g2\csrc/u8g2_circle.c ****     if ( option & U8G2_DRAW_LOWER_LEFT )
 865              		.loc 1 371 0
 866 0060 14F0040F 		tst	r4, #4
 867 0064 08D0     		beq	.L37
 372:..\u8g2\csrc/u8g2_circle.c ****     {
 373:..\u8g2\csrc/u8g2_circle.c ****       u8g2_DrawVLine(u8g2, x0-x, y0, y+1);
 868              		.loc 1 373 0
 869 0066 6B1C     		adds	r3, r5, #1
 870 0068 C9EB0601 		rsb	r1, r9, r6
 871 006c 9BB2     		uxth	r3, r3
 872 006e 4246     		mov	r2, r8
 873 0070 89B2     		uxth	r1, r1
 874 0072 3846     		mov	r0, r7
 875 0074 FFF7FEFF 		bl	u8g2_DrawVLine
 876              	.LVL127:
 877              	.L37:
 878 0078 BDE8F883 		pop	{r3, r4, r5, r6, r7, r8, r9, pc}
 879              		.cfi_endproc
 880              	.LFE9:
 881              		.size	u8g2_draw_filled_ellipse_section, .-u8g2_draw_filled_ellipse_section
 882              		.section	.text.u8g2_draw_filled_ellipse,"ax",%progbits
 883              		.align	2
 884              		.thumb
 885              		.thumb_func
 886              		.type	u8g2_draw_filled_ellipse, %function
 887              	u8g2_draw_filled_ellipse:
 888              	.LFB10:
 374:..\u8g2\csrc/u8g2_circle.c ****     }
 375:..\u8g2\csrc/u8g2_circle.c **** }
 376:..\u8g2\csrc/u8g2_circle.c **** 
 377:..\u8g2\csrc/u8g2_circle.c **** static void u8g2_draw_filled_ellipse(u8g2_t *u8g2, u8g2_uint_t x0, u8g2_uint_t y0, u8g2_uint_t rx, 
 378:..\u8g2\csrc/u8g2_circle.c **** {
 889              		.loc 1 378 0
 890              		.cfi_startproc
 891              		@ args = 8, pretend = 0, frame = 40
 892              		@ frame_needed = 0, uses_anonymous_args = 0
ARM GAS  C:\Users\brian\AppData\Local\Temp\cc3q178b.s 			page 24


 893              	.LVL128:
 894 0000 2DE9F04F 		push	{r4, r5, r6, r7, r8, r9, r10, fp, lr}
 895              		.cfi_def_cfa_offset 36
 896              		.cfi_offset 4, -36
 897              		.cfi_offset 5, -32
 898              		.cfi_offset 6, -28
 899              		.cfi_offset 7, -24
 900              		.cfi_offset 8, -20
 901              		.cfi_offset 9, -16
 902              		.cfi_offset 10, -12
 903              		.cfi_offset 11, -8
 904              		.cfi_offset 14, -4
 905 0004 8DB0     		sub	sp, sp, #52
 906              		.cfi_def_cfa_offset 88
 907 0006 0690     		str	r0, [sp, #24]
 908 0008 0791     		str	r1, [sp, #28]
 909 000a 0892     		str	r2, [sp, #32]
 910 000c 1846     		mov	r0, r3
 911              	.LVL129:
 912 000e 0493     		str	r3, [sp, #16]
 913 0010 BDF85820 		ldrh	r2, [sp, #88]
 914              	.LVL130:
 915 0014 0592     		str	r2, [sp, #20]
 916 0016 9DF85C10 		ldrb	r1, [sp, #92]	@ zero_extendqisi2
 917              	.LVL131:
 918 001a 0991     		str	r1, [sp, #36]
 379:..\u8g2\csrc/u8g2_circle.c ****   u8g2_uint_t x, y;
 380:..\u8g2\csrc/u8g2_circle.c ****   u8g2_long_t xchg, ychg;
 381:..\u8g2\csrc/u8g2_circle.c ****   u8g2_long_t err;
 382:..\u8g2\csrc/u8g2_circle.c ****   u8g2_long_t rxrx2;
 383:..\u8g2\csrc/u8g2_circle.c ****   u8g2_long_t ryry2;
 384:..\u8g2\csrc/u8g2_circle.c ****   u8g2_long_t stopx, stopy;
 385:..\u8g2\csrc/u8g2_circle.c ****   
 386:..\u8g2\csrc/u8g2_circle.c ****   rxrx2 = rx;
 919              		.loc 1 386 0
 920 001c 0A93     		str	r3, [sp, #40]
 921              	.LVL132:
 387:..\u8g2\csrc/u8g2_circle.c ****   rxrx2 *= rx;
 922              		.loc 1 387 0
 923 001e 03FB03FA 		mul	r10, r3, r3
 924              	.LVL133:
 388:..\u8g2\csrc/u8g2_circle.c ****   rxrx2 *= 2;
 925              		.loc 1 388 0
 926 0022 4FEA4A06 		lsl	r6, r10, #1
 927              	.LVL134:
 389:..\u8g2\csrc/u8g2_circle.c ****   
 390:..\u8g2\csrc/u8g2_circle.c ****   ryry2 = ry;
 928              		.loc 1 390 0
 929 0026 0B92     		str	r2, [sp, #44]
 930              	.LVL135:
 391:..\u8g2\csrc/u8g2_circle.c ****   ryry2 *= ry;
 931              		.loc 1 391 0
 932 0028 02FB02F9 		mul	r9, r2, r2
 933              	.LVL136:
 392:..\u8g2\csrc/u8g2_circle.c ****   ryry2 *= 2;
 934              		.loc 1 392 0
 935 002c 4FEA4907 		lsl	r7, r9, #1
ARM GAS  C:\Users\brian\AppData\Local\Temp\cc3q178b.s 			page 25


 936              	.LVL137:
 393:..\u8g2\csrc/u8g2_circle.c ****   
 394:..\u8g2\csrc/u8g2_circle.c ****   x = rx;
 395:..\u8g2\csrc/u8g2_circle.c ****   y = 0;
 396:..\u8g2\csrc/u8g2_circle.c ****   
 397:..\u8g2\csrc/u8g2_circle.c ****   xchg = 1;
 398:..\u8g2\csrc/u8g2_circle.c ****   xchg -= rx;
 937              		.loc 1 398 0
 938 0030 C0F10105 		rsb	r5, r0, #1
 939              	.LVL138:
 399:..\u8g2\csrc/u8g2_circle.c ****   xchg -= rx;
 940              		.loc 1 399 0
 941 0034 2D1A     		subs	r5, r5, r0
 942              	.LVL139:
 400:..\u8g2\csrc/u8g2_circle.c ****   xchg *= ry;
 943              		.loc 1 400 0
 944 0036 05FB02F5 		mul	r5, r5, r2
 945              	.LVL140:
 401:..\u8g2\csrc/u8g2_circle.c ****   xchg *= ry;
 946              		.loc 1 401 0
 947 003a 05FB02F5 		mul	r5, r5, r2
 948              	.LVL141:
 402:..\u8g2\csrc/u8g2_circle.c ****   
 403:..\u8g2\csrc/u8g2_circle.c ****   ychg = rx;
 404:..\u8g2\csrc/u8g2_circle.c ****   ychg *= rx;
 405:..\u8g2\csrc/u8g2_circle.c ****   
 406:..\u8g2\csrc/u8g2_circle.c ****   err = 0;
 407:..\u8g2\csrc/u8g2_circle.c ****   
 408:..\u8g2\csrc/u8g2_circle.c ****   stopx = ryry2;
 409:..\u8g2\csrc/u8g2_circle.c ****   stopx *= rx;
 949              		.loc 1 409 0
 950 003e 07FB00FB 		mul	fp, r7, r0
 951              	.LVL142:
 410:..\u8g2\csrc/u8g2_circle.c ****   stopy = 0;
 952              		.loc 1 410 0
 953 0042 4FF00008 		mov	r8, #0
 406:..\u8g2\csrc/u8g2_circle.c ****   
 954              		.loc 1 406 0
 955 0046 4446     		mov	r4, r8
 395:..\u8g2\csrc/u8g2_circle.c ****   
 956              		.loc 1 395 0
 957 0048 CDF80C80 		str	r8, [sp, #12]
 411:..\u8g2\csrc/u8g2_circle.c ****   
 412:..\u8g2\csrc/u8g2_circle.c ****   while( stopx >= stopy )
 958              		.loc 1 412 0
 959 004c 1CE0     		b	.L44
 960              	.LVL143:
 961              	.L46:
 413:..\u8g2\csrc/u8g2_circle.c ****   {
 414:..\u8g2\csrc/u8g2_circle.c ****     u8g2_draw_filled_ellipse_section(u8g2, x, y, x0, y0, option);
 962              		.loc 1 414 0
 963 004e 099B     		ldr	r3, [sp, #36]
 964 0050 0193     		str	r3, [sp, #4]
 965 0052 089B     		ldr	r3, [sp, #32]
 966 0054 0093     		str	r3, [sp]
 967 0056 079B     		ldr	r3, [sp, #28]
 968 0058 039A     		ldr	r2, [sp, #12]
ARM GAS  C:\Users\brian\AppData\Local\Temp\cc3q178b.s 			page 26


 969 005a 0499     		ldr	r1, [sp, #16]
 970 005c 0698     		ldr	r0, [sp, #24]
 971 005e FFF7FEFF 		bl	u8g2_draw_filled_ellipse_section
 972              	.LVL144:
 415:..\u8g2\csrc/u8g2_circle.c ****     y++;
 973              		.loc 1 415 0
 974 0062 039B     		ldr	r3, [sp, #12]
 975 0064 0133     		adds	r3, r3, #1
 976 0066 9BB2     		uxth	r3, r3
 977 0068 0393     		str	r3, [sp, #12]
 978              	.LVL145:
 416:..\u8g2\csrc/u8g2_circle.c ****     stopy += rxrx2;
 979              		.loc 1 416 0
 980 006a B044     		add	r8, r8, r6
 981              	.LVL146:
 417:..\u8g2\csrc/u8g2_circle.c ****     err += ychg;
 982              		.loc 1 417 0
 983 006c 5444     		add	r4, r4, r10
 984              	.LVL147:
 418:..\u8g2\csrc/u8g2_circle.c ****     ychg += rxrx2;
 985              		.loc 1 418 0
 986 006e B244     		add	r10, r10, r6
 987              	.LVL148:
 419:..\u8g2\csrc/u8g2_circle.c ****     if ( 2*err+xchg > 0 )
 988              		.loc 1 419 0
 989 0070 05EB4403 		add	r3, r5, r4, lsl #1
 990 0074 002B     		cmp	r3, #0
 991 0076 07DD     		ble	.L44
 420:..\u8g2\csrc/u8g2_circle.c ****     {
 421:..\u8g2\csrc/u8g2_circle.c ****       x--;
 992              		.loc 1 421 0
 993 0078 049B     		ldr	r3, [sp, #16]
 994 007a 013B     		subs	r3, r3, #1
 995 007c 9BB2     		uxth	r3, r3
 996 007e 0493     		str	r3, [sp, #16]
 997              	.LVL149:
 422:..\u8g2\csrc/u8g2_circle.c ****       stopx -= ryry2;
 998              		.loc 1 422 0
 999 0080 C7EB0B0B 		rsb	fp, r7, fp
 1000              	.LVL150:
 423:..\u8g2\csrc/u8g2_circle.c ****       err += xchg;
 1001              		.loc 1 423 0
 1002 0084 2C44     		add	r4, r4, r5
 1003              	.LVL151:
 424:..\u8g2\csrc/u8g2_circle.c ****       xchg += ryry2;      
 1004              		.loc 1 424 0
 1005 0086 3D44     		add	r5, r5, r7
 1006              	.LVL152:
 1007              	.L44:
 412:..\u8g2\csrc/u8g2_circle.c ****   {
 1008              		.loc 1 412 0
 1009 0088 C345     		cmp	fp, r8
 1010 008a E0DA     		bge	.L46
 1011              	.LVL153:
 425:..\u8g2\csrc/u8g2_circle.c ****     }
 426:..\u8g2\csrc/u8g2_circle.c ****   }
 427:..\u8g2\csrc/u8g2_circle.c **** 
ARM GAS  C:\Users\brian\AppData\Local\Temp\cc3q178b.s 			page 27


 428:..\u8g2\csrc/u8g2_circle.c ****   x = 0;
 429:..\u8g2\csrc/u8g2_circle.c ****   y = ry;
 430:..\u8g2\csrc/u8g2_circle.c ****   
 431:..\u8g2\csrc/u8g2_circle.c ****   xchg = ry;
 432:..\u8g2\csrc/u8g2_circle.c ****   xchg *= ry;
 433:..\u8g2\csrc/u8g2_circle.c ****   
 434:..\u8g2\csrc/u8g2_circle.c ****   ychg = 1;
 435:..\u8g2\csrc/u8g2_circle.c ****   ychg -= ry;
 1012              		.loc 1 435 0
 1013 008c 0B9A     		ldr	r2, [sp, #44]
 1014 008e 1346     		mov	r3, r2
 1015 0090 C2F10108 		rsb	r8, r2, #1
 1016              	.LVL154:
 436:..\u8g2\csrc/u8g2_circle.c ****   ychg -= ry;
 1017              		.loc 1 436 0
 1018 0094 C2EB0808 		rsb	r8, r2, r8
 1019              	.LVL155:
 437:..\u8g2\csrc/u8g2_circle.c ****   ychg *= rx;
 1020              		.loc 1 437 0
 1021 0098 0A99     		ldr	r1, [sp, #40]
 1022 009a 08FB01F8 		mul	r8, r8, r1
 1023              	.LVL156:
 438:..\u8g2\csrc/u8g2_circle.c ****   ychg *= rx;
 1024              		.loc 1 438 0
 1025 009e 08FB01F8 		mul	r8, r8, r1
 1026              	.LVL157:
 439:..\u8g2\csrc/u8g2_circle.c ****   
 440:..\u8g2\csrc/u8g2_circle.c ****   err = 0;
 441:..\u8g2\csrc/u8g2_circle.c ****   
 442:..\u8g2\csrc/u8g2_circle.c ****   stopx = 0;
 443:..\u8g2\csrc/u8g2_circle.c **** 
 444:..\u8g2\csrc/u8g2_circle.c ****   stopy = rxrx2;
 445:..\u8g2\csrc/u8g2_circle.c ****   stopy *= ry;
 1027              		.loc 1 445 0
 1028 00a2 03FB06FB 		mul	fp, r3, r6
 1029              	.LVL158:
 442:..\u8g2\csrc/u8g2_circle.c **** 
 1030              		.loc 1 442 0
 1031 00a6 4FF0000A 		mov	r10, #0
 440:..\u8g2\csrc/u8g2_circle.c ****   
 1032              		.loc 1 440 0
 1033 00aa 5546     		mov	r5, r10
 428:..\u8g2\csrc/u8g2_circle.c ****   y = ry;
 1034              		.loc 1 428 0
 1035 00ac 5446     		mov	r4, r10
 446:..\u8g2\csrc/u8g2_circle.c ****   
 447:..\u8g2\csrc/u8g2_circle.c **** 
 448:..\u8g2\csrc/u8g2_circle.c ****   while( stopx <= stopy )
 1036              		.loc 1 448 0
 1037 00ae 1AE0     		b	.L47
 1038              	.LVL159:
 1039              	.L49:
 449:..\u8g2\csrc/u8g2_circle.c ****   {
 450:..\u8g2\csrc/u8g2_circle.c ****     u8g2_draw_filled_ellipse_section(u8g2, x, y, x0, y0, option);
 1040              		.loc 1 450 0
 1041 00b0 099B     		ldr	r3, [sp, #36]
 1042 00b2 0193     		str	r3, [sp, #4]
ARM GAS  C:\Users\brian\AppData\Local\Temp\cc3q178b.s 			page 28


 1043 00b4 089B     		ldr	r3, [sp, #32]
 1044 00b6 0093     		str	r3, [sp]
 1045 00b8 079B     		ldr	r3, [sp, #28]
 1046 00ba 059A     		ldr	r2, [sp, #20]
 1047 00bc 2146     		mov	r1, r4
 1048 00be 0698     		ldr	r0, [sp, #24]
 1049 00c0 FFF7FEFF 		bl	u8g2_draw_filled_ellipse_section
 1050              	.LVL160:
 451:..\u8g2\csrc/u8g2_circle.c ****     x++;
 1051              		.loc 1 451 0
 1052 00c4 0134     		adds	r4, r4, #1
 1053              	.LVL161:
 1054 00c6 A4B2     		uxth	r4, r4
 1055              	.LVL162:
 452:..\u8g2\csrc/u8g2_circle.c ****     stopx += ryry2;
 1056              		.loc 1 452 0
 1057 00c8 BA44     		add	r10, r10, r7
 1058              	.LVL163:
 453:..\u8g2\csrc/u8g2_circle.c ****     err += xchg;
 1059              		.loc 1 453 0
 1060 00ca 4D44     		add	r5, r5, r9
 1061              	.LVL164:
 454:..\u8g2\csrc/u8g2_circle.c ****     xchg += ryry2;
 1062              		.loc 1 454 0
 1063 00cc B944     		add	r9, r9, r7
 1064              	.LVL165:
 455:..\u8g2\csrc/u8g2_circle.c ****     if ( 2*err+ychg > 0 )
 1065              		.loc 1 455 0
 1066 00ce 08EB4503 		add	r3, r8, r5, lsl #1
 1067 00d2 002B     		cmp	r3, #0
 1068 00d4 07DD     		ble	.L47
 456:..\u8g2\csrc/u8g2_circle.c ****     {
 457:..\u8g2\csrc/u8g2_circle.c ****       y--;
 1069              		.loc 1 457 0
 1070 00d6 059B     		ldr	r3, [sp, #20]
 1071 00d8 013B     		subs	r3, r3, #1
 1072 00da 9BB2     		uxth	r3, r3
 1073 00dc 0593     		str	r3, [sp, #20]
 1074              	.LVL166:
 458:..\u8g2\csrc/u8g2_circle.c ****       stopy -= rxrx2;
 1075              		.loc 1 458 0
 1076 00de C6EB0B0B 		rsb	fp, r6, fp
 1077              	.LVL167:
 459:..\u8g2\csrc/u8g2_circle.c ****       err += ychg;
 1078              		.loc 1 459 0
 1079 00e2 4544     		add	r5, r5, r8
 1080              	.LVL168:
 460:..\u8g2\csrc/u8g2_circle.c ****       ychg += rxrx2;
 1081              		.loc 1 460 0
 1082 00e4 B044     		add	r8, r8, r6
 1083              	.LVL169:
 1084              	.L47:
 448:..\u8g2\csrc/u8g2_circle.c ****   {
 1085              		.loc 1 448 0
 1086 00e6 DA45     		cmp	r10, fp
 1087 00e8 E2DD     		ble	.L49
 461:..\u8g2\csrc/u8g2_circle.c ****     }
ARM GAS  C:\Users\brian\AppData\Local\Temp\cc3q178b.s 			page 29


 462:..\u8g2\csrc/u8g2_circle.c ****   }
 463:..\u8g2\csrc/u8g2_circle.c ****   
 464:..\u8g2\csrc/u8g2_circle.c **** }
 1088              		.loc 1 464 0
 1089 00ea 0DB0     		add	sp, sp, #52
 1090              		.cfi_def_cfa_offset 36
 1091              		@ sp needed
 1092 00ec BDE8F08F 		pop	{r4, r5, r6, r7, r8, r9, r10, fp, pc}
 1093              		.cfi_endproc
 1094              	.LFE10:
 1095              		.size	u8g2_draw_filled_ellipse, .-u8g2_draw_filled_ellipse
 1096              		.section	.text.u8g2_DrawCircle,"ax",%progbits
 1097              		.align	2
 1098              		.global	u8g2_DrawCircle
 1099              		.thumb
 1100              		.thumb_func
 1101              		.type	u8g2_DrawCircle, %function
 1102              	u8g2_DrawCircle:
 1103              	.LFB2:
 110:..\u8g2\csrc/u8g2_circle.c ****   /* check for bounding box */
 1104              		.loc 1 110 0
 1105              		.cfi_startproc
 1106              		@ args = 4, pretend = 0, frame = 0
 1107              		@ frame_needed = 0, uses_anonymous_args = 0
 1108              	.LVL170:
 1109 0000 2DE9F041 		push	{r4, r5, r6, r7, r8, lr}
 1110              		.cfi_def_cfa_offset 24
 1111              		.cfi_offset 4, -24
 1112              		.cfi_offset 5, -20
 1113              		.cfi_offset 6, -16
 1114              		.cfi_offset 7, -12
 1115              		.cfi_offset 8, -8
 1116              		.cfi_offset 14, -4
 1117 0004 82B0     		sub	sp, sp, #8
 1118              		.cfi_def_cfa_offset 32
 1119 0006 8046     		mov	r8, r0
 1120 0008 0E46     		mov	r6, r1
 1121 000a 1746     		mov	r7, r2
 1122 000c 1D46     		mov	r5, r3
 114:..\u8g2\csrc/u8g2_circle.c ****       return;
 1123              		.loc 1 114 0
 1124 000e CB18     		adds	r3, r1, r3
 1125              	.LVL171:
 1126 0010 0133     		adds	r3, r3, #1
 1127 0012 521B     		subs	r2, r2, r5
 1128              	.LVL172:
 1129 0014 491B     		subs	r1, r1, r5
 1130              	.LVL173:
 1131 0016 EC19     		adds	r4, r5, r7
 1132 0018 0134     		adds	r4, r4, #1
 1133 001a A4B2     		uxth	r4, r4
 1134 001c 0094     		str	r4, [sp]
 1135 001e 9BB2     		uxth	r3, r3
 1136 0020 92B2     		uxth	r2, r2
 1137 0022 89B2     		uxth	r1, r1
 1138 0024 FFF7FEFF 		bl	u8g2_IsIntersection
 1139              	.LVL174:
ARM GAS  C:\Users\brian\AppData\Local\Temp\cc3q178b.s 			page 30


 1140 0028 40B1     		cbz	r0, .L51
 121:..\u8g2\csrc/u8g2_circle.c **** }
 1141              		.loc 1 121 0
 1142 002a 9DF82030 		ldrb	r3, [sp, #32]	@ zero_extendqisi2
 1143 002e 0093     		str	r3, [sp]
 1144 0030 2B46     		mov	r3, r5
 1145 0032 3A46     		mov	r2, r7
 1146 0034 3146     		mov	r1, r6
 1147 0036 4046     		mov	r0, r8
 1148 0038 FFF7FEFF 		bl	u8g2_draw_circle
 1149              	.LVL175:
 1150              	.L51:
 122:..\u8g2\csrc/u8g2_circle.c **** 
 1151              		.loc 1 122 0
 1152 003c 02B0     		add	sp, sp, #8
 1153              		.cfi_def_cfa_offset 24
 1154              		@ sp needed
 1155 003e BDE8F081 		pop	{r4, r5, r6, r7, r8, pc}
 1156              		.cfi_endproc
 1157              	.LFE2:
 1158              		.size	u8g2_DrawCircle, .-u8g2_DrawCircle
 1159 0042 00BF     		.section	.text.u8g2_DrawDisc,"ax",%progbits
 1160              		.align	2
 1161              		.global	u8g2_DrawDisc
 1162              		.thumb
 1163              		.thumb_func
 1164              		.type	u8g2_DrawDisc, %function
 1165              	u8g2_DrawDisc:
 1166              	.LFB5:
 196:..\u8g2\csrc/u8g2_circle.c ****   /* check for bounding box */
 1167              		.loc 1 196 0
 1168              		.cfi_startproc
 1169              		@ args = 4, pretend = 0, frame = 0
 1170              		@ frame_needed = 0, uses_anonymous_args = 0
 1171              	.LVL176:
 1172 0000 2DE9F041 		push	{r4, r5, r6, r7, r8, lr}
 1173              		.cfi_def_cfa_offset 24
 1174              		.cfi_offset 4, -24
 1175              		.cfi_offset 5, -20
 1176              		.cfi_offset 6, -16
 1177              		.cfi_offset 7, -12
 1178              		.cfi_offset 8, -8
 1179              		.cfi_offset 14, -4
 1180 0004 82B0     		sub	sp, sp, #8
 1181              		.cfi_def_cfa_offset 32
 1182 0006 8046     		mov	r8, r0
 1183 0008 0E46     		mov	r6, r1
 1184 000a 1746     		mov	r7, r2
 1185 000c 1D46     		mov	r5, r3
 200:..\u8g2\csrc/u8g2_circle.c ****       return;
 1186              		.loc 1 200 0
 1187 000e CB18     		adds	r3, r1, r3
 1188              	.LVL177:
 1189 0010 0133     		adds	r3, r3, #1
 1190 0012 521B     		subs	r2, r2, r5
 1191              	.LVL178:
 1192 0014 491B     		subs	r1, r1, r5
ARM GAS  C:\Users\brian\AppData\Local\Temp\cc3q178b.s 			page 31


 1193              	.LVL179:
 1194 0016 EC19     		adds	r4, r5, r7
 1195 0018 0134     		adds	r4, r4, #1
 1196 001a A4B2     		uxth	r4, r4
 1197 001c 0094     		str	r4, [sp]
 1198 001e 9BB2     		uxth	r3, r3
 1199 0020 92B2     		uxth	r2, r2
 1200 0022 89B2     		uxth	r1, r1
 1201 0024 FFF7FEFF 		bl	u8g2_IsIntersection
 1202              	.LVL180:
 1203 0028 40B1     		cbz	r0, .L54
 206:..\u8g2\csrc/u8g2_circle.c **** }
 1204              		.loc 1 206 0
 1205 002a 9DF82030 		ldrb	r3, [sp, #32]	@ zero_extendqisi2
 1206 002e 0093     		str	r3, [sp]
 1207 0030 2B46     		mov	r3, r5
 1208 0032 3A46     		mov	r2, r7
 1209 0034 3146     		mov	r1, r6
 1210 0036 4046     		mov	r0, r8
 1211 0038 FFF7FEFF 		bl	u8g2_draw_disc
 1212              	.LVL181:
 1213              	.L54:
 207:..\u8g2\csrc/u8g2_circle.c **** 
 1214              		.loc 1 207 0
 1215 003c 02B0     		add	sp, sp, #8
 1216              		.cfi_def_cfa_offset 24
 1217              		@ sp needed
 1218 003e BDE8F081 		pop	{r4, r5, r6, r7, r8, pc}
 1219              		.cfi_endproc
 1220              	.LFE5:
 1221              		.size	u8g2_DrawDisc, .-u8g2_DrawDisc
 1222 0042 00BF     		.section	.text.u8g2_DrawEllipse,"ax",%progbits
 1223              		.align	2
 1224              		.global	u8g2_DrawEllipse
 1225              		.thumb
 1226              		.thumb_func
 1227              		.type	u8g2_DrawEllipse, %function
 1228              	u8g2_DrawEllipse:
 1229              	.LFB8:
 334:..\u8g2\csrc/u8g2_circle.c ****   /* check for bounding box */
 1230              		.loc 1 334 0
 1231              		.cfi_startproc
 1232              		@ args = 8, pretend = 0, frame = 0
 1233              		@ frame_needed = 0, uses_anonymous_args = 0
 1234              	.LVL182:
 1235 0000 2DE9F043 		push	{r4, r5, r6, r7, r8, r9, lr}
 1236              		.cfi_def_cfa_offset 28
 1237              		.cfi_offset 4, -28
 1238              		.cfi_offset 5, -24
 1239              		.cfi_offset 6, -20
 1240              		.cfi_offset 7, -16
 1241              		.cfi_offset 8, -12
 1242              		.cfi_offset 9, -8
 1243              		.cfi_offset 14, -4
 1244 0004 83B0     		sub	sp, sp, #12
 1245              		.cfi_def_cfa_offset 40
 1246 0006 8146     		mov	r9, r0
ARM GAS  C:\Users\brian\AppData\Local\Temp\cc3q178b.s 			page 32


 1247 0008 0D46     		mov	r5, r1
 1248 000a 1646     		mov	r6, r2
 1249 000c 1F46     		mov	r7, r3
 1250 000e BDF82880 		ldrh	r8, [sp, #40]
 338:..\u8g2\csrc/u8g2_circle.c ****       return;
 1251              		.loc 1 338 0
 1252 0012 CB18     		adds	r3, r1, r3
 1253              	.LVL183:
 1254 0014 0133     		adds	r3, r3, #1
 1255 0016 C8EB0202 		rsb	r2, r8, r2
 1256              	.LVL184:
 1257 001a C91B     		subs	r1, r1, r7
 1258              	.LVL185:
 1259 001c 06EB0804 		add	r4, r6, r8
 1260 0020 0134     		adds	r4, r4, #1
 1261 0022 A4B2     		uxth	r4, r4
 1262 0024 0094     		str	r4, [sp]
 1263 0026 9BB2     		uxth	r3, r3
 1264 0028 92B2     		uxth	r2, r2
 1265 002a 89B2     		uxth	r1, r1
 1266 002c FFF7FEFF 		bl	u8g2_IsIntersection
 1267              	.LVL186:
 1268 0030 50B1     		cbz	r0, .L57
 343:..\u8g2\csrc/u8g2_circle.c **** }
 1269              		.loc 1 343 0
 1270 0032 9DF82C30 		ldrb	r3, [sp, #44]	@ zero_extendqisi2
 1271 0036 0193     		str	r3, [sp, #4]
 1272 0038 CDF80080 		str	r8, [sp]
 1273 003c 3B46     		mov	r3, r7
 1274 003e 3246     		mov	r2, r6
 1275 0040 2946     		mov	r1, r5
 1276 0042 4846     		mov	r0, r9
 1277 0044 FFF7FEFF 		bl	u8g2_draw_ellipse
 1278              	.LVL187:
 1279              	.L57:
 344:..\u8g2\csrc/u8g2_circle.c **** 
 1280              		.loc 1 344 0
 1281 0048 03B0     		add	sp, sp, #12
 1282              		.cfi_def_cfa_offset 28
 1283              		@ sp needed
 1284 004a BDE8F083 		pop	{r4, r5, r6, r7, r8, r9, pc}
 1285              		.cfi_endproc
 1286              	.LFE8:
 1287              		.size	u8g2_DrawEllipse, .-u8g2_DrawEllipse
 1288 004e 00BF     		.section	.text.u8g2_DrawFilledEllipse,"ax",%progbits
 1289              		.align	2
 1290              		.global	u8g2_DrawFilledEllipse
 1291              		.thumb
 1292              		.thumb_func
 1293              		.type	u8g2_DrawFilledEllipse, %function
 1294              	u8g2_DrawFilledEllipse:
 1295              	.LFB11:
 465:..\u8g2\csrc/u8g2_circle.c **** 
 466:..\u8g2\csrc/u8g2_circle.c **** void u8g2_DrawFilledEllipse(u8g2_t *u8g2, u8g2_uint_t x0, u8g2_uint_t y0, u8g2_uint_t rx, u8g2_uint
 467:..\u8g2\csrc/u8g2_circle.c **** {
 1296              		.loc 1 467 0
 1297              		.cfi_startproc
ARM GAS  C:\Users\brian\AppData\Local\Temp\cc3q178b.s 			page 33


 1298              		@ args = 8, pretend = 0, frame = 0
 1299              		@ frame_needed = 0, uses_anonymous_args = 0
 1300              	.LVL188:
 1301 0000 2DE9F043 		push	{r4, r5, r6, r7, r8, r9, lr}
 1302              		.cfi_def_cfa_offset 28
 1303              		.cfi_offset 4, -28
 1304              		.cfi_offset 5, -24
 1305              		.cfi_offset 6, -20
 1306              		.cfi_offset 7, -16
 1307              		.cfi_offset 8, -12
 1308              		.cfi_offset 9, -8
 1309              		.cfi_offset 14, -4
 1310 0004 83B0     		sub	sp, sp, #12
 1311              		.cfi_def_cfa_offset 40
 1312 0006 8146     		mov	r9, r0
 1313 0008 0D46     		mov	r5, r1
 1314 000a 1646     		mov	r6, r2
 1315 000c 1F46     		mov	r7, r3
 1316 000e BDF82880 		ldrh	r8, [sp, #40]
 468:..\u8g2\csrc/u8g2_circle.c ****   /* check for bounding box */
 469:..\u8g2\csrc/u8g2_circle.c **** #ifdef U8G2_WITH_INTERSECTION
 470:..\u8g2\csrc/u8g2_circle.c ****   {
 471:..\u8g2\csrc/u8g2_circle.c ****     if ( u8g2_IsIntersection(u8g2, x0-rx, y0-ry, x0+rx+1, y0+ry+1) == 0 ) 
 1317              		.loc 1 471 0
 1318 0012 CB18     		adds	r3, r1, r3
 1319              	.LVL189:
 1320 0014 0133     		adds	r3, r3, #1
 1321 0016 C8EB0202 		rsb	r2, r8, r2
 1322              	.LVL190:
 1323 001a C91B     		subs	r1, r1, r7
 1324              	.LVL191:
 1325 001c 06EB0804 		add	r4, r6, r8
 1326 0020 0134     		adds	r4, r4, #1
 1327 0022 A4B2     		uxth	r4, r4
 1328 0024 0094     		str	r4, [sp]
 1329 0026 9BB2     		uxth	r3, r3
 1330 0028 92B2     		uxth	r2, r2
 1331 002a 89B2     		uxth	r1, r1
 1332 002c FFF7FEFF 		bl	u8g2_IsIntersection
 1333              	.LVL192:
 1334 0030 50B1     		cbz	r0, .L60
 472:..\u8g2\csrc/u8g2_circle.c ****       return;
 473:..\u8g2\csrc/u8g2_circle.c ****   }
 474:..\u8g2\csrc/u8g2_circle.c **** #endif /* U8G2_WITH_INTERSECTION */
 475:..\u8g2\csrc/u8g2_circle.c ****   
 476:..\u8g2\csrc/u8g2_circle.c ****   u8g2_draw_filled_ellipse(u8g2, x0, y0, rx, ry, option);
 1335              		.loc 1 476 0
 1336 0032 9DF82C30 		ldrb	r3, [sp, #44]	@ zero_extendqisi2
 1337 0036 0193     		str	r3, [sp, #4]
 1338 0038 CDF80080 		str	r8, [sp]
 1339 003c 3B46     		mov	r3, r7
 1340 003e 3246     		mov	r2, r6
 1341 0040 2946     		mov	r1, r5
 1342 0042 4846     		mov	r0, r9
 1343 0044 FFF7FEFF 		bl	u8g2_draw_filled_ellipse
 1344              	.LVL193:
 1345              	.L60:
ARM GAS  C:\Users\brian\AppData\Local\Temp\cc3q178b.s 			page 34


 477:..\u8g2\csrc/u8g2_circle.c **** }
 1346              		.loc 1 477 0
 1347 0048 03B0     		add	sp, sp, #12
 1348              		.cfi_def_cfa_offset 28
 1349              		@ sp needed
 1350 004a BDE8F083 		pop	{r4, r5, r6, r7, r8, r9, pc}
 1351              		.cfi_endproc
 1352              	.LFE11:
 1353              		.size	u8g2_DrawFilledEllipse, .-u8g2_DrawFilledEllipse
 1354 004e 00BF     		.text
 1355              	.Letext0:
 1356              		.file 2 "c:\\program files (x86)\\cypress\\psoc creator\\4.4\\psoc creator\\import\\gnu\\arm\\5.4.
 1357              		.file 3 "c:\\program files (x86)\\cypress\\psoc creator\\4.4\\psoc creator\\import\\gnu\\arm\\5.4.
 1358              		.file 4 "..\\u8g2\\csrc\\u8x8.h"
 1359              		.file 5 "..\\u8g2\\csrc\\u8g2.h"