ARM GAS  C:\Users\brian\AppData\Local\Temp\ccv1kLiV.s 			page 1


   1              		.syntax unified
   2              		.cpu cortex-m3
   3              		.fpu softvfp
   4              		.eabi_attribute 20, 1
   5              		.eabi_attribute 21, 1
   6              		.eabi_attribute 23, 3
   7              		.eabi_attribute 24, 1
   8              		.eabi_attribute 25, 1
   9              		.eabi_attribute 26, 1
  10              		.eabi_attribute 30, 1
  11              		.eabi_attribute 34, 1
  12              		.eabi_attribute 18, 4
  13              		.thumb
  14              		.syntax unified
  15              		.file	"u8g2_buffer.c"
  16              		.text
  17              	.Ltext0:
  18              		.cfi_sections	.debug_frame
  19              		.section	.text.u8g2_send_tile_row,"ax",%progbits
  20              		.align	2
  21              		.thumb
  22              		.thumb_func
  23              		.type	u8g2_send_tile_row, %function
  24              	u8g2_send_tile_row:
  25              	.LFB1:
  26              		.file 1 "..\\u8g2\\csrc\\u8g2_buffer.c"
   1:..\u8g2\csrc/u8g2_buffer.c **** /* 
   2:..\u8g2\csrc/u8g2_buffer.c **** 
   3:..\u8g2\csrc/u8g2_buffer.c ****   u8g2_buffer.c 
   4:..\u8g2\csrc/u8g2_buffer.c **** 
   5:..\u8g2\csrc/u8g2_buffer.c ****   Universal 8bit Graphics Library (https://github.com/olikraus/u8g2/)
   6:..\u8g2\csrc/u8g2_buffer.c **** 
   7:..\u8g2\csrc/u8g2_buffer.c ****   Copyright (c) 2016, olikraus@gmail.com
   8:..\u8g2\csrc/u8g2_buffer.c ****   All rights reserved.
   9:..\u8g2\csrc/u8g2_buffer.c **** 
  10:..\u8g2\csrc/u8g2_buffer.c ****   Redistribution and use in source and binary forms, with or without modification, 
  11:..\u8g2\csrc/u8g2_buffer.c ****   are permitted provided that the following conditions are met:
  12:..\u8g2\csrc/u8g2_buffer.c **** 
  13:..\u8g2\csrc/u8g2_buffer.c ****   * Redistributions of source code must retain the above copyright notice, this list 
  14:..\u8g2\csrc/u8g2_buffer.c ****     of conditions and the following disclaimer.
  15:..\u8g2\csrc/u8g2_buffer.c ****     
  16:..\u8g2\csrc/u8g2_buffer.c ****   * Redistributions in binary form must reproduce the above copyright notice, this 
  17:..\u8g2\csrc/u8g2_buffer.c ****     list of conditions and the following disclaimer in the documentation and/or other 
  18:..\u8g2\csrc/u8g2_buffer.c ****     materials provided with the distribution.
  19:..\u8g2\csrc/u8g2_buffer.c **** 
  20:..\u8g2\csrc/u8g2_buffer.c ****   THIS SOFTWARE IS PROVIDED BY THE COPYRIGHT HOLDERS AND 
  21:..\u8g2\csrc/u8g2_buffer.c ****   CONTRIBUTORS "AS IS" AND ANY EXPRESS OR IMPLIED WARRANTIES, 
  22:..\u8g2\csrc/u8g2_buffer.c ****   INCLUDING, BUT NOT LIMITED TO, THE IMPLIED WARRANTIES OF 
  23:..\u8g2\csrc/u8g2_buffer.c ****   MERCHANTABILITY AND FITNESS FOR A PARTICULAR PURPOSE ARE 
  24:..\u8g2\csrc/u8g2_buffer.c ****   DISCLAIMED. IN NO EVENT SHALL THE COPYRIGHT HOLDER OR 
  25:..\u8g2\csrc/u8g2_buffer.c ****   CONTRIBUTORS BE LIABLE FOR ANY DIRECT, INDIRECT, INCIDENTAL, 
  26:..\u8g2\csrc/u8g2_buffer.c ****   SPECIAL, EXEMPLARY, OR CONSEQUENTIAL DAMAGES (INCLUDING, BUT 
  27:..\u8g2\csrc/u8g2_buffer.c ****   NOT LIMITED TO, PROCUREMENT OF SUBSTITUTE GOODS OR SERVICES; 
  28:..\u8g2\csrc/u8g2_buffer.c ****   LOSS OF USE, DATA, OR PROFITS; OR BUSINESS INTERRUPTION) HOWEVER 
  29:..\u8g2\csrc/u8g2_buffer.c ****   CAUSED AND ON ANY THEORY OF LIABILITY, WHETHER IN CONTRACT, 
  30:..\u8g2\csrc/u8g2_buffer.c ****   STRICT LIABILITY, OR TORT (INCLUDING NEGLIGENCE OR OTHERWISE) 
  31:..\u8g2\csrc/u8g2_buffer.c ****   ARISING IN ANY WAY OUT OF THE USE OF THIS SOFTWARE, EVEN IF 
ARM GAS  C:\Users\brian\AppData\Local\Temp\ccv1kLiV.s 			page 2


  32:..\u8g2\csrc/u8g2_buffer.c ****   ADVISED OF THE POSSIBILITY OF SUCH DAMAGE.  
  33:..\u8g2\csrc/u8g2_buffer.c **** 
  34:..\u8g2\csrc/u8g2_buffer.c **** */
  35:..\u8g2\csrc/u8g2_buffer.c **** 
  36:..\u8g2\csrc/u8g2_buffer.c **** #include "u8g2.h"
  37:..\u8g2\csrc/u8g2_buffer.c **** #include <string.h>
  38:..\u8g2\csrc/u8g2_buffer.c **** 
  39:..\u8g2\csrc/u8g2_buffer.c **** /*============================================*/
  40:..\u8g2\csrc/u8g2_buffer.c **** void u8g2_ClearBuffer(u8g2_t *u8g2)
  41:..\u8g2\csrc/u8g2_buffer.c **** {
  42:..\u8g2\csrc/u8g2_buffer.c ****   size_t cnt;
  43:..\u8g2\csrc/u8g2_buffer.c ****   cnt = u8g2_GetU8x8(u8g2)->display_info->tile_width;
  44:..\u8g2\csrc/u8g2_buffer.c ****   cnt *= u8g2->tile_buf_height;
  45:..\u8g2\csrc/u8g2_buffer.c ****   cnt *= 8;
  46:..\u8g2\csrc/u8g2_buffer.c ****   memset(u8g2->tile_buf_ptr, 0, cnt);
  47:..\u8g2\csrc/u8g2_buffer.c **** }
  48:..\u8g2\csrc/u8g2_buffer.c **** 
  49:..\u8g2\csrc/u8g2_buffer.c **** /*============================================*/
  50:..\u8g2\csrc/u8g2_buffer.c **** 
  51:..\u8g2\csrc/u8g2_buffer.c **** static void u8g2_send_tile_row(u8g2_t *u8g2, uint8_t src_tile_row, uint8_t dest_tile_row)
  52:..\u8g2\csrc/u8g2_buffer.c **** {
  27              		.loc 1 52 0
  28              		.cfi_startproc
  29              		@ args = 0, pretend = 0, frame = 0
  30              		@ frame_needed = 0, uses_anonymous_args = 0
  31              	.LVL0:
  32 0000 10B5     		push	{r4, lr}
  33              		.cfi_def_cfa_offset 8
  34              		.cfi_offset 4, -8
  35              		.cfi_offset 14, -4
  36 0002 82B0     		sub	sp, sp, #8
  37              		.cfi_def_cfa_offset 16
  53:..\u8g2\csrc/u8g2_buffer.c ****   uint8_t *ptr;
  54:..\u8g2\csrc/u8g2_buffer.c ****   uint16_t offset;
  55:..\u8g2\csrc/u8g2_buffer.c ****   uint8_t w;
  56:..\u8g2\csrc/u8g2_buffer.c ****   
  57:..\u8g2\csrc/u8g2_buffer.c ****   w = u8g2_GetU8x8(u8g2)->display_info->tile_width;
  38              		.loc 1 57 0
  39 0004 0368     		ldr	r3, [r0]
  40 0006 1B7C     		ldrb	r3, [r3, #16]	@ zero_extendqisi2
  41              	.LVL1:
  58:..\u8g2\csrc/u8g2_buffer.c ****   offset = src_tile_row;
  59:..\u8g2\csrc/u8g2_buffer.c ****   ptr = u8g2->tile_buf_ptr;
  42              		.loc 1 59 0
  43 0008 446B     		ldr	r4, [r0, #52]
  44              	.LVL2:
  60:..\u8g2\csrc/u8g2_buffer.c ****   offset *= w;
  45              		.loc 1 60 0
  46 000a 03FB01F1 		mul	r1, r3, r1
  47              	.LVL3:
  61:..\u8g2\csrc/u8g2_buffer.c ****   offset *= 8;
  48              		.loc 1 61 0
  49 000e C900     		lsls	r1, r1, #3
  50              	.LVL4:
  51 0010 89B2     		uxth	r1, r1
  52              	.LVL5:
  62:..\u8g2\csrc/u8g2_buffer.c ****   ptr += offset;
ARM GAS  C:\Users\brian\AppData\Local\Temp\ccv1kLiV.s 			page 3


  53              		.loc 1 62 0
  54 0012 2144     		add	r1, r1, r4
  55              	.LVL6:
  63:..\u8g2\csrc/u8g2_buffer.c ****   u8x8_DrawTile(u8g2_GetU8x8(u8g2), 0, dest_tile_row, w, ptr);
  56              		.loc 1 63 0
  57 0014 0091     		str	r1, [sp]
  58 0016 0021     		movs	r1, #0
  59              	.LVL7:
  60 0018 FFF7FEFF 		bl	u8x8_DrawTile
  61              	.LVL8:
  64:..\u8g2\csrc/u8g2_buffer.c **** }
  62              		.loc 1 64 0
  63 001c 02B0     		add	sp, sp, #8
  64              		.cfi_def_cfa_offset 8
  65              		@ sp needed
  66 001e 10BD     		pop	{r4, pc}
  67              		.cfi_endproc
  68              	.LFE1:
  69              		.size	u8g2_send_tile_row, .-u8g2_send_tile_row
  70              		.section	.text.u8g2_send_buffer,"ax",%progbits
  71              		.align	2
  72              		.thumb
  73              		.thumb_func
  74              		.type	u8g2_send_buffer, %function
  75              	u8g2_send_buffer:
  76              	.LFB2:
  65:..\u8g2\csrc/u8g2_buffer.c **** 
  66:..\u8g2\csrc/u8g2_buffer.c **** /* 
  67:..\u8g2\csrc/u8g2_buffer.c ****   write the buffer to the display RAM. 
  68:..\u8g2\csrc/u8g2_buffer.c ****   For most displays, this will make the content visible to the user.
  69:..\u8g2\csrc/u8g2_buffer.c ****   Some displays (like the SSD1606) require a u8x8_RefreshDisplay()
  70:..\u8g2\csrc/u8g2_buffer.c **** */
  71:..\u8g2\csrc/u8g2_buffer.c **** static void u8g2_send_buffer(u8g2_t *u8g2) U8X8_NOINLINE;
  72:..\u8g2\csrc/u8g2_buffer.c **** static void u8g2_send_buffer(u8g2_t *u8g2)
  73:..\u8g2\csrc/u8g2_buffer.c **** {
  77              		.loc 1 73 0
  78              		.cfi_startproc
  79              		@ args = 0, pretend = 0, frame = 0
  80              		@ frame_needed = 0, uses_anonymous_args = 0
  81              	.LVL9:
  82 0000 2DE9F041 		push	{r4, r5, r6, r7, r8, lr}
  83              		.cfi_def_cfa_offset 24
  84              		.cfi_offset 4, -24
  85              		.cfi_offset 5, -20
  86              		.cfi_offset 6, -16
  87              		.cfi_offset 7, -12
  88              		.cfi_offset 8, -8
  89              		.cfi_offset 14, -4
  90 0004 0646     		mov	r6, r0
  91              	.LVL10:
  74:..\u8g2\csrc/u8g2_buffer.c ****   uint8_t src_row;
  75:..\u8g2\csrc/u8g2_buffer.c ****   uint8_t src_max;
  76:..\u8g2\csrc/u8g2_buffer.c ****   uint8_t dest_row;
  77:..\u8g2\csrc/u8g2_buffer.c ****   uint8_t dest_max;
  78:..\u8g2\csrc/u8g2_buffer.c **** 
  79:..\u8g2\csrc/u8g2_buffer.c ****   src_row = 0;
  80:..\u8g2\csrc/u8g2_buffer.c ****   src_max = u8g2->tile_buf_height;
ARM GAS  C:\Users\brian\AppData\Local\Temp\ccv1kLiV.s 			page 4


  92              		.loc 1 80 0
  93 0006 90F83870 		ldrb	r7, [r0, #56]	@ zero_extendqisi2
  94              	.LVL11:
  81:..\u8g2\csrc/u8g2_buffer.c ****   dest_row = u8g2->tile_curr_row;
  95              		.loc 1 81 0
  96 000a 90F83950 		ldrb	r5, [r0, #57]	@ zero_extendqisi2
  97              	.LVL12:
  82:..\u8g2\csrc/u8g2_buffer.c ****   dest_max = u8g2_GetU8x8(u8g2)->display_info->tile_height;
  98              		.loc 1 82 0
  99 000e 0368     		ldr	r3, [r0]
 100 0010 93F81180 		ldrb	r8, [r3, #17]	@ zero_extendqisi2
 101              	.LVL13:
  79:..\u8g2\csrc/u8g2_buffer.c ****   src_max = u8g2->tile_buf_height;
 102              		.loc 1 79 0
 103 0014 0024     		movs	r4, #0
 104              	.LVL14:
 105              	.L5:
  83:..\u8g2\csrc/u8g2_buffer.c ****   
  84:..\u8g2\csrc/u8g2_buffer.c ****   do
  85:..\u8g2\csrc/u8g2_buffer.c ****   {
  86:..\u8g2\csrc/u8g2_buffer.c ****     u8g2_send_tile_row(u8g2, src_row, dest_row);
 106              		.loc 1 86 0 discriminator 2
 107 0016 2A46     		mov	r2, r5
 108 0018 2146     		mov	r1, r4
 109 001a 3046     		mov	r0, r6
 110 001c FFF7FEFF 		bl	u8g2_send_tile_row
 111              	.LVL15:
  87:..\u8g2\csrc/u8g2_buffer.c ****     src_row++;
 112              		.loc 1 87 0 discriminator 2
 113 0020 0134     		adds	r4, r4, #1
 114              	.LVL16:
 115 0022 E4B2     		uxtb	r4, r4
 116              	.LVL17:
  88:..\u8g2\csrc/u8g2_buffer.c ****     dest_row++;
 117              		.loc 1 88 0 discriminator 2
 118 0024 0135     		adds	r5, r5, #1
 119              	.LVL18:
 120 0026 EDB2     		uxtb	r5, r5
 121              	.LVL19:
  89:..\u8g2\csrc/u8g2_buffer.c ****   } while( src_row < src_max && dest_row < dest_max );
 122              		.loc 1 89 0 discriminator 2
 123 0028 A742     		cmp	r7, r4
 124 002a 01D9     		bls	.L3
 125              		.loc 1 89 0 is_stmt 0 discriminator 1
 126 002c A845     		cmp	r8, r5
 127 002e F2D8     		bhi	.L5
 128              	.L3:
 129 0030 BDE8F081 		pop	{r4, r5, r6, r7, r8, pc}
 130              		.cfi_endproc
 131              	.LFE2:
 132              		.size	u8g2_send_buffer, .-u8g2_send_buffer
 133              		.section	.text.u8g2_ClearBuffer,"ax",%progbits
 134              		.align	2
 135              		.global	u8g2_ClearBuffer
 136              		.thumb
 137              		.thumb_func
 138              		.type	u8g2_ClearBuffer, %function
ARM GAS  C:\Users\brian\AppData\Local\Temp\ccv1kLiV.s 			page 5


 139              	u8g2_ClearBuffer:
 140              	.LFB0:
  41:..\u8g2\csrc/u8g2_buffer.c ****   size_t cnt;
 141              		.loc 1 41 0 is_stmt 1
 142              		.cfi_startproc
 143              		@ args = 0, pretend = 0, frame = 0
 144              		@ frame_needed = 0, uses_anonymous_args = 0
 145              	.LVL20:
 146 0000 08B5     		push	{r3, lr}
 147              		.cfi_def_cfa_offset 8
 148              		.cfi_offset 3, -8
 149              		.cfi_offset 14, -4
  43:..\u8g2\csrc/u8g2_buffer.c ****   cnt *= u8g2->tile_buf_height;
 150              		.loc 1 43 0
 151 0002 0368     		ldr	r3, [r0]
 152 0004 1B7C     		ldrb	r3, [r3, #16]	@ zero_extendqisi2
 153              	.LVL21:
  44:..\u8g2\csrc/u8g2_buffer.c ****   cnt *= 8;
 154              		.loc 1 44 0
 155 0006 90F83820 		ldrb	r2, [r0, #56]	@ zero_extendqisi2
 156 000a 03FB02F2 		mul	r2, r3, r2
 157              	.LVL22:
  46:..\u8g2\csrc/u8g2_buffer.c **** }
 158              		.loc 1 46 0
 159 000e D200     		lsls	r2, r2, #3
 160              	.LVL23:
 161 0010 0021     		movs	r1, #0
 162 0012 406B     		ldr	r0, [r0, #52]
 163              	.LVL24:
 164 0014 FFF7FEFF 		bl	memset
 165              	.LVL25:
 166 0018 08BD     		pop	{r3, pc}
 167              		.cfi_endproc
 168              	.LFE0:
 169              		.size	u8g2_ClearBuffer, .-u8g2_ClearBuffer
 170 001a 00BF     		.section	.text.u8g2_SendBuffer,"ax",%progbits
 171              		.align	2
 172              		.global	u8g2_SendBuffer
 173              		.thumb
 174              		.thumb_func
 175              		.type	u8g2_SendBuffer, %function
 176              	u8g2_SendBuffer:
 177              	.LFB3:
  90:..\u8g2\csrc/u8g2_buffer.c **** }
  91:..\u8g2\csrc/u8g2_buffer.c **** 
  92:..\u8g2\csrc/u8g2_buffer.c **** /* same as u8g2_send_buffer but also send the DISPLAY_REFRESH message (used by SSD1606) */
  93:..\u8g2\csrc/u8g2_buffer.c **** void u8g2_SendBuffer(u8g2_t *u8g2)
  94:..\u8g2\csrc/u8g2_buffer.c **** {
 178              		.loc 1 94 0
 179              		.cfi_startproc
 180              		@ args = 0, pretend = 0, frame = 0
 181              		@ frame_needed = 0, uses_anonymous_args = 0
 182              	.LVL26:
 183 0000 10B5     		push	{r4, lr}
 184              		.cfi_def_cfa_offset 8
 185              		.cfi_offset 4, -8
 186              		.cfi_offset 14, -4
ARM GAS  C:\Users\brian\AppData\Local\Temp\ccv1kLiV.s 			page 6


 187 0002 0446     		mov	r4, r0
  95:..\u8g2\csrc/u8g2_buffer.c ****   u8g2_send_buffer(u8g2);
 188              		.loc 1 95 0
 189 0004 FFF7FEFF 		bl	u8g2_send_buffer
 190              	.LVL27:
  96:..\u8g2\csrc/u8g2_buffer.c ****   u8x8_RefreshDisplay( u8g2_GetU8x8(u8g2) );  
 191              		.loc 1 96 0
 192 0008 2046     		mov	r0, r4
 193 000a FFF7FEFF 		bl	u8x8_RefreshDisplay
 194              	.LVL28:
 195 000e 10BD     		pop	{r4, pc}
 196              		.cfi_endproc
 197              	.LFE3:
 198              		.size	u8g2_SendBuffer, .-u8g2_SendBuffer
 199              		.section	.text.u8g2_SetBufferCurrTileRow,"ax",%progbits
 200              		.align	2
 201              		.global	u8g2_SetBufferCurrTileRow
 202              		.thumb
 203              		.thumb_func
 204              		.type	u8g2_SetBufferCurrTileRow, %function
 205              	u8g2_SetBufferCurrTileRow:
 206              	.LFB4:
  97:..\u8g2\csrc/u8g2_buffer.c **** }
  98:..\u8g2\csrc/u8g2_buffer.c **** 
  99:..\u8g2\csrc/u8g2_buffer.c **** /*============================================*/
 100:..\u8g2\csrc/u8g2_buffer.c **** void u8g2_SetBufferCurrTileRow(u8g2_t *u8g2, uint8_t row)
 101:..\u8g2\csrc/u8g2_buffer.c **** {
 207              		.loc 1 101 0
 208              		.cfi_startproc
 209              		@ args = 0, pretend = 0, frame = 0
 210              		@ frame_needed = 0, uses_anonymous_args = 0
 211              	.LVL29:
 212 0000 10B5     		push	{r4, lr}
 213              		.cfi_def_cfa_offset 8
 214              		.cfi_offset 4, -8
 215              		.cfi_offset 14, -4
 216 0002 0446     		mov	r4, r0
 102:..\u8g2\csrc/u8g2_buffer.c ****   u8g2->tile_curr_row = row;
 217              		.loc 1 102 0
 218 0004 80F83910 		strb	r1, [r0, #57]
 103:..\u8g2\csrc/u8g2_buffer.c ****   u8g2->cb->update_dimension(u8g2);
 219              		.loc 1 103 0
 220 0008 036B     		ldr	r3, [r0, #48]
 221 000a 1B68     		ldr	r3, [r3]
 222 000c 9847     		blx	r3
 223              	.LVL30:
 104:..\u8g2\csrc/u8g2_buffer.c ****   u8g2->cb->update_page_win(u8g2);
 224              		.loc 1 104 0
 225 000e 236B     		ldr	r3, [r4, #48]
 226 0010 5B68     		ldr	r3, [r3, #4]
 227 0012 2046     		mov	r0, r4
 228 0014 9847     		blx	r3
 229              	.LVL31:
 230 0016 10BD     		pop	{r4, pc}
 231              		.cfi_endproc
 232              	.LFE4:
 233              		.size	u8g2_SetBufferCurrTileRow, .-u8g2_SetBufferCurrTileRow
ARM GAS  C:\Users\brian\AppData\Local\Temp\ccv1kLiV.s 			page 7


 234              		.section	.text.u8g2_FirstPage,"ax",%progbits
 235              		.align	2
 236              		.global	u8g2_FirstPage
 237              		.thumb
 238              		.thumb_func
 239              		.type	u8g2_FirstPage, %function
 240              	u8g2_FirstPage:
 241              	.LFB5:
 105:..\u8g2\csrc/u8g2_buffer.c **** }
 106:..\u8g2\csrc/u8g2_buffer.c **** 
 107:..\u8g2\csrc/u8g2_buffer.c **** void u8g2_FirstPage(u8g2_t *u8g2)
 108:..\u8g2\csrc/u8g2_buffer.c **** {
 242              		.loc 1 108 0
 243              		.cfi_startproc
 244              		@ args = 0, pretend = 0, frame = 0
 245              		@ frame_needed = 0, uses_anonymous_args = 0
 246              	.LVL32:
 247 0000 10B5     		push	{r4, lr}
 248              		.cfi_def_cfa_offset 8
 249              		.cfi_offset 4, -8
 250              		.cfi_offset 14, -4
 251 0002 0446     		mov	r4, r0
 109:..\u8g2\csrc/u8g2_buffer.c ****   if ( u8g2->is_auto_page_clear )
 252              		.loc 1 109 0
 253 0004 90F89330 		ldrb	r3, [r0, #147]	@ zero_extendqisi2
 254 0008 0BB1     		cbz	r3, .L14
 110:..\u8g2\csrc/u8g2_buffer.c ****   {
 111:..\u8g2\csrc/u8g2_buffer.c ****     u8g2_ClearBuffer(u8g2);
 255              		.loc 1 111 0
 256 000a FFF7FEFF 		bl	u8g2_ClearBuffer
 257              	.LVL33:
 258              	.L14:
 112:..\u8g2\csrc/u8g2_buffer.c ****   }
 113:..\u8g2\csrc/u8g2_buffer.c ****   u8g2_SetBufferCurrTileRow(u8g2, 0);
 259              		.loc 1 113 0
 260 000e 0021     		movs	r1, #0
 261 0010 2046     		mov	r0, r4
 262 0012 FFF7FEFF 		bl	u8g2_SetBufferCurrTileRow
 263              	.LVL34:
 264 0016 10BD     		pop	{r4, pc}
 265              		.cfi_endproc
 266              	.LFE5:
 267              		.size	u8g2_FirstPage, .-u8g2_FirstPage
 268              		.section	.text.u8g2_NextPage,"ax",%progbits
 269              		.align	2
 270              		.global	u8g2_NextPage
 271              		.thumb
 272              		.thumb_func
 273              		.type	u8g2_NextPage, %function
 274              	u8g2_NextPage:
 275              	.LFB6:
 114:..\u8g2\csrc/u8g2_buffer.c **** }
 115:..\u8g2\csrc/u8g2_buffer.c **** 
 116:..\u8g2\csrc/u8g2_buffer.c **** uint8_t u8g2_NextPage(u8g2_t *u8g2)
 117:..\u8g2\csrc/u8g2_buffer.c **** {
 276              		.loc 1 117 0
 277              		.cfi_startproc
ARM GAS  C:\Users\brian\AppData\Local\Temp\ccv1kLiV.s 			page 8


 278              		@ args = 0, pretend = 0, frame = 0
 279              		@ frame_needed = 0, uses_anonymous_args = 0
 280              	.LVL35:
 281 0000 38B5     		push	{r3, r4, r5, lr}
 282              		.cfi_def_cfa_offset 16
 283              		.cfi_offset 3, -16
 284              		.cfi_offset 4, -12
 285              		.cfi_offset 5, -8
 286              		.cfi_offset 14, -4
 287 0002 0546     		mov	r5, r0
 118:..\u8g2\csrc/u8g2_buffer.c ****   uint8_t row;
 119:..\u8g2\csrc/u8g2_buffer.c ****   u8g2_send_buffer(u8g2);
 288              		.loc 1 119 0
 289 0004 FFF7FEFF 		bl	u8g2_send_buffer
 290              	.LVL36:
 120:..\u8g2\csrc/u8g2_buffer.c ****   row = u8g2->tile_curr_row;
 291              		.loc 1 120 0
 292 0008 95F83940 		ldrb	r4, [r5, #57]	@ zero_extendqisi2
 293              	.LVL37:
 121:..\u8g2\csrc/u8g2_buffer.c ****   row += u8g2->tile_buf_height;
 294              		.loc 1 121 0
 295 000c 95F83830 		ldrb	r3, [r5, #56]	@ zero_extendqisi2
 296 0010 1C44     		add	r4, r4, r3
 297              	.LVL38:
 298 0012 E4B2     		uxtb	r4, r4
 299              	.LVL39:
 122:..\u8g2\csrc/u8g2_buffer.c ****   if ( row >= u8g2_GetU8x8(u8g2)->display_info->tile_height )
 300              		.loc 1 122 0
 301 0014 2B68     		ldr	r3, [r5]
 302 0016 5B7C     		ldrb	r3, [r3, #17]	@ zero_extendqisi2
 303 0018 9C42     		cmp	r4, r3
 304 001a 04D3     		bcc	.L17
 123:..\u8g2\csrc/u8g2_buffer.c ****   {
 124:..\u8g2\csrc/u8g2_buffer.c ****     u8x8_RefreshDisplay( u8g2_GetU8x8(u8g2) );
 305              		.loc 1 124 0
 306 001c 2846     		mov	r0, r5
 307 001e FFF7FEFF 		bl	u8x8_RefreshDisplay
 308              	.LVL40:
 125:..\u8g2\csrc/u8g2_buffer.c ****     return 0;
 309              		.loc 1 125 0
 310 0022 0020     		movs	r0, #0
 311 0024 38BD     		pop	{r3, r4, r5, pc}
 312              	.LVL41:
 313              	.L17:
 126:..\u8g2\csrc/u8g2_buffer.c ****   }
 127:..\u8g2\csrc/u8g2_buffer.c ****   if ( u8g2->is_auto_page_clear )
 314              		.loc 1 127 0
 315 0026 95F89330 		ldrb	r3, [r5, #147]	@ zero_extendqisi2
 316 002a 13B1     		cbz	r3, .L19
 128:..\u8g2\csrc/u8g2_buffer.c ****   {
 129:..\u8g2\csrc/u8g2_buffer.c ****     u8g2_ClearBuffer(u8g2);
 317              		.loc 1 129 0
 318 002c 2846     		mov	r0, r5
 319 002e FFF7FEFF 		bl	u8g2_ClearBuffer
 320              	.LVL42:
 321              	.L19:
 130:..\u8g2\csrc/u8g2_buffer.c ****   }
ARM GAS  C:\Users\brian\AppData\Local\Temp\ccv1kLiV.s 			page 9


 131:..\u8g2\csrc/u8g2_buffer.c ****   u8g2_SetBufferCurrTileRow(u8g2, row);
 322              		.loc 1 131 0
 323 0032 2146     		mov	r1, r4
 324 0034 2846     		mov	r0, r5
 325 0036 FFF7FEFF 		bl	u8g2_SetBufferCurrTileRow
 326              	.LVL43:
 132:..\u8g2\csrc/u8g2_buffer.c ****   return 1;
 327              		.loc 1 132 0
 328 003a 0120     		movs	r0, #1
 133:..\u8g2\csrc/u8g2_buffer.c **** }
 329              		.loc 1 133 0
 330 003c 38BD     		pop	{r3, r4, r5, pc}
 331              		.cfi_endproc
 332              	.LFE6:
 333              		.size	u8g2_NextPage, .-u8g2_NextPage
 334 003e 00BF     		.section	.text.u8g2_UpdateDisplayArea,"ax",%progbits
 335              		.align	2
 336              		.global	u8g2_UpdateDisplayArea
 337              		.thumb
 338              		.thumb_func
 339              		.type	u8g2_UpdateDisplayArea, %function
 340              	u8g2_UpdateDisplayArea:
 341              	.LFB7:
 134:..\u8g2\csrc/u8g2_buffer.c **** 
 135:..\u8g2\csrc/u8g2_buffer.c **** 
 136:..\u8g2\csrc/u8g2_buffer.c **** 
 137:..\u8g2\csrc/u8g2_buffer.c **** /*============================================*/
 138:..\u8g2\csrc/u8g2_buffer.c **** /*
 139:..\u8g2\csrc/u8g2_buffer.c ****   Description:
 140:..\u8g2\csrc/u8g2_buffer.c ****     Update a sub area of the display, given by tile position, width and height.
 141:..\u8g2\csrc/u8g2_buffer.c ****     The arguments are "tile" coordinates. Any u8g2 rotation is ignored.
 142:..\u8g2\csrc/u8g2_buffer.c ****     This procedure only checks whether full buffer mode is active.
 143:..\u8g2\csrc/u8g2_buffer.c ****     There is no error checking for the arguments: It is the responsibility of the
 144:..\u8g2\csrc/u8g2_buffer.c ****     user to ensure, that the provided arguments are correct.
 145:..\u8g2\csrc/u8g2_buffer.c **** 
 146:..\u8g2\csrc/u8g2_buffer.c ****   Limitations:
 147:..\u8g2\csrc/u8g2_buffer.c ****     - Only available in full buffer mode (will not do anything in page mode)
 148:..\u8g2\csrc/u8g2_buffer.c ****     - Tile positions and sizes (pixel position divided by 8)
 149:..\u8g2\csrc/u8g2_buffer.c ****     - Any display rotation/mirror is ignored
 150:..\u8g2\csrc/u8g2_buffer.c ****     - Only works with displays, which support U8x8 API
 151:..\u8g2\csrc/u8g2_buffer.c ****     - Will not send the e-paper refresh message (will probably not work with e-paper devices)
 152:..\u8g2\csrc/u8g2_buffer.c **** */
 153:..\u8g2\csrc/u8g2_buffer.c **** void u8g2_UpdateDisplayArea(u8g2_t *u8g2, uint8_t  tx, uint8_t ty, uint8_t tw, uint8_t th)
 154:..\u8g2\csrc/u8g2_buffer.c **** {
 342              		.loc 1 154 0
 343              		.cfi_startproc
 344              		@ args = 4, pretend = 0, frame = 0
 345              		@ frame_needed = 0, uses_anonymous_args = 0
 346              	.LVL44:
 347 0000 2DE9F047 		push	{r4, r5, r6, r7, r8, r9, r10, lr}
 348              		.cfi_def_cfa_offset 32
 349              		.cfi_offset 4, -32
 350              		.cfi_offset 5, -28
 351              		.cfi_offset 6, -24
 352              		.cfi_offset 7, -20
 353              		.cfi_offset 8, -16
 354              		.cfi_offset 9, -12
ARM GAS  C:\Users\brian\AppData\Local\Temp\ccv1kLiV.s 			page 10


 355              		.cfi_offset 10, -8
 356              		.cfi_offset 14, -4
 357 0004 82B0     		sub	sp, sp, #8
 358              		.cfi_def_cfa_offset 40
 359 0006 1446     		mov	r4, r2
 360 0008 9846     		mov	r8, r3
 361 000a 9DF828A0 		ldrb	r10, [sp, #40]	@ zero_extendqisi2
 155:..\u8g2\csrc/u8g2_buffer.c ****   uint16_t page_size;
 156:..\u8g2\csrc/u8g2_buffer.c ****   uint8_t *ptr;
 157:..\u8g2\csrc/u8g2_buffer.c ****   
 158:..\u8g2\csrc/u8g2_buffer.c ****   /* check, whether we are in full buffer mode */
 159:..\u8g2\csrc/u8g2_buffer.c ****   if ( u8g2->tile_buf_height != u8g2_GetU8x8(u8g2)->display_info->tile_height )
 362              		.loc 1 159 0
 363 000e 90F83820 		ldrb	r2, [r0, #56]	@ zero_extendqisi2
 364              	.LVL45:
 365 0012 0368     		ldr	r3, [r0]
 366              	.LVL46:
 367 0014 5B7C     		ldrb	r3, [r3, #17]	@ zero_extendqisi2
 368 0016 9A42     		cmp	r2, r3
 369 0018 1BD1     		bne	.L21
 370 001a 0646     		mov	r6, r0
 371 001c 0F46     		mov	r7, r1
 160:..\u8g2\csrc/u8g2_buffer.c ****     return; /* not in full buffer mode, do nothing */
 161:..\u8g2\csrc/u8g2_buffer.c **** 
 162:..\u8g2\csrc/u8g2_buffer.c ****   page_size = u8g2->pixel_buf_width;  /* 8*u8g2->u8g2_GetU8x8(u8g2)->display_info->tile_width */
 372              		.loc 1 162 0
 373 001e B0F83A90 		ldrh	r9, [r0, #58]
 374              	.LVL47:
 163:..\u8g2\csrc/u8g2_buffer.c ****     
 164:..\u8g2\csrc/u8g2_buffer.c ****   ptr = u8g2_GetBufferPtr(u8g2);
 375              		.loc 1 164 0
 376 0022 456B     		ldr	r5, [r0, #52]
 377              	.LVL48:
 165:..\u8g2\csrc/u8g2_buffer.c ****   ptr += tx*8;
 166:..\u8g2\csrc/u8g2_buffer.c ****   ptr += page_size*ty;
 378              		.loc 1 166 0
 379 0024 04FB09F3 		mul	r3, r4, r9
 380 0028 03EBC103 		add	r3, r3, r1, lsl #3
 381 002c 1D44     		add	r5, r5, r3
 382              	.LVL49:
 167:..\u8g2\csrc/u8g2_buffer.c ****   
 168:..\u8g2\csrc/u8g2_buffer.c ****   while( th > 0 )
 383              		.loc 1 168 0
 384 002e 0DE0     		b	.L23
 385              	.LVL50:
 386              	.L24:
 169:..\u8g2\csrc/u8g2_buffer.c ****   {
 170:..\u8g2\csrc/u8g2_buffer.c ****     u8x8_DrawTile( u8g2_GetU8x8(u8g2), tx, ty, tw, ptr );
 387              		.loc 1 170 0
 388 0030 0095     		str	r5, [sp]
 389 0032 4346     		mov	r3, r8
 390 0034 2246     		mov	r2, r4
 391 0036 3946     		mov	r1, r7
 392 0038 3046     		mov	r0, r6
 393 003a FFF7FEFF 		bl	u8x8_DrawTile
 394              	.LVL51:
 171:..\u8g2\csrc/u8g2_buffer.c ****     ptr += page_size;
ARM GAS  C:\Users\brian\AppData\Local\Temp\ccv1kLiV.s 			page 11


 395              		.loc 1 171 0
 396 003e 4D44     		add	r5, r5, r9
 397              	.LVL52:
 172:..\u8g2\csrc/u8g2_buffer.c ****     ty++;
 398              		.loc 1 172 0
 399 0040 0134     		adds	r4, r4, #1
 400              	.LVL53:
 401 0042 E4B2     		uxtb	r4, r4
 402              	.LVL54:
 173:..\u8g2\csrc/u8g2_buffer.c ****     th--;
 403              		.loc 1 173 0
 404 0044 0AF1FF33 		add	r3, r10, #-1
 405 0048 5FFA83FA 		uxtb	r10, r3
 406              	.LVL55:
 407              	.L23:
 168:..\u8g2\csrc/u8g2_buffer.c ****   {
 408              		.loc 1 168 0
 409 004c BAF1000F 		cmp	r10, #0
 410 0050 EED1     		bne	.L24
 411              	.LVL56:
 412              	.L21:
 174:..\u8g2\csrc/u8g2_buffer.c ****   }  
 175:..\u8g2\csrc/u8g2_buffer.c **** }
 413              		.loc 1 175 0
 414 0052 02B0     		add	sp, sp, #8
 415              		.cfi_def_cfa_offset 32
 416              		@ sp needed
 417 0054 BDE8F087 		pop	{r4, r5, r6, r7, r8, r9, r10, pc}
 418              		.cfi_endproc
 419              	.LFE7:
 420              		.size	u8g2_UpdateDisplayArea, .-u8g2_UpdateDisplayArea
 421              		.section	.text.u8g2_UpdateDisplay,"ax",%progbits
 422              		.align	2
 423              		.global	u8g2_UpdateDisplay
 424              		.thumb
 425              		.thumb_func
 426              		.type	u8g2_UpdateDisplay, %function
 427              	u8g2_UpdateDisplay:
 428              	.LFB8:
 176:..\u8g2\csrc/u8g2_buffer.c **** 
 177:..\u8g2\csrc/u8g2_buffer.c **** /* same as sendBuffer, but does not send the ePaper refresh message */
 178:..\u8g2\csrc/u8g2_buffer.c **** void u8g2_UpdateDisplay(u8g2_t *u8g2)
 179:..\u8g2\csrc/u8g2_buffer.c **** {
 429              		.loc 1 179 0
 430              		.cfi_startproc
 431              		@ args = 0, pretend = 0, frame = 0
 432              		@ frame_needed = 0, uses_anonymous_args = 0
 433              	.LVL57:
 434 0000 08B5     		push	{r3, lr}
 435              		.cfi_def_cfa_offset 8
 436              		.cfi_offset 3, -8
 437              		.cfi_offset 14, -4
 180:..\u8g2\csrc/u8g2_buffer.c ****   u8g2_send_buffer(u8g2);
 438              		.loc 1 180 0
 439 0002 FFF7FEFF 		bl	u8g2_send_buffer
 440              	.LVL58:
 441 0006 08BD     		pop	{r3, pc}
ARM GAS  C:\Users\brian\AppData\Local\Temp\ccv1kLiV.s 			page 12


 442              		.cfi_endproc
 443              	.LFE8:
 444              		.size	u8g2_UpdateDisplay, .-u8g2_UpdateDisplay
 445              		.section	.text.u8g2_WriteBufferPBM,"ax",%progbits
 446              		.align	2
 447              		.global	u8g2_WriteBufferPBM
 448              		.thumb
 449              		.thumb_func
 450              		.type	u8g2_WriteBufferPBM, %function
 451              	u8g2_WriteBufferPBM:
 452              	.LFB9:
 181:..\u8g2\csrc/u8g2_buffer.c **** }
 182:..\u8g2\csrc/u8g2_buffer.c **** 
 183:..\u8g2\csrc/u8g2_buffer.c **** 
 184:..\u8g2\csrc/u8g2_buffer.c **** /*============================================*/
 185:..\u8g2\csrc/u8g2_buffer.c **** 
 186:..\u8g2\csrc/u8g2_buffer.c **** /* vertical_top memory architecture */
 187:..\u8g2\csrc/u8g2_buffer.c **** void u8g2_WriteBufferPBM(u8g2_t *u8g2, void (*out)(const char *s))
 188:..\u8g2\csrc/u8g2_buffer.c **** {
 453              		.loc 1 188 0
 454              		.cfi_startproc
 455              		@ args = 0, pretend = 0, frame = 0
 456              		@ frame_needed = 0, uses_anonymous_args = 0
 457              	.LVL59:
 458 0000 30B5     		push	{r4, r5, lr}
 459              		.cfi_def_cfa_offset 12
 460              		.cfi_offset 4, -12
 461              		.cfi_offset 5, -8
 462              		.cfi_offset 14, -4
 463 0002 83B0     		sub	sp, sp, #12
 464              		.cfi_def_cfa_offset 24
 465 0004 0446     		mov	r4, r0
 466 0006 0D46     		mov	r5, r1
 189:..\u8g2\csrc/u8g2_buffer.c ****   u8x8_capture_write_pbm_pre(u8g2_GetBufferTileWidth(u8g2), u8g2_GetBufferTileHeight(u8g2), out);
 467              		.loc 1 189 0
 468 0008 0368     		ldr	r3, [r0]
 469 000a 0A46     		mov	r2, r1
 470 000c 90F83810 		ldrb	r1, [r0, #56]	@ zero_extendqisi2
 471              	.LVL60:
 472 0010 187C     		ldrb	r0, [r3, #16]	@ zero_extendqisi2
 473              	.LVL61:
 474 0012 FFF7FEFF 		bl	u8x8_capture_write_pbm_pre
 475              	.LVL62:
 190:..\u8g2\csrc/u8g2_buffer.c ****   u8x8_capture_write_pbm_buffer(u8g2_GetBufferPtr(u8g2), u8g2_GetBufferTileWidth(u8g2), u8g2_GetBuf
 476              		.loc 1 190 0
 477 0016 2368     		ldr	r3, [r4]
 478 0018 94F83820 		ldrb	r2, [r4, #56]	@ zero_extendqisi2
 479 001c 197C     		ldrb	r1, [r3, #16]	@ zero_extendqisi2
 480 001e 606B     		ldr	r0, [r4, #52]
 481 0020 0095     		str	r5, [sp]
 482 0022 024B     		ldr	r3, .L30
 483 0024 FFF7FEFF 		bl	u8x8_capture_write_pbm_buffer
 484              	.LVL63:
 191:..\u8g2\csrc/u8g2_buffer.c **** }
 485              		.loc 1 191 0
 486 0028 03B0     		add	sp, sp, #12
 487              		.cfi_def_cfa_offset 12
ARM GAS  C:\Users\brian\AppData\Local\Temp\ccv1kLiV.s 			page 13


 488              		@ sp needed
 489 002a 30BD     		pop	{r4, r5, pc}
 490              	.LVL64:
 491              	.L31:
 492              		.align	2
 493              	.L30:
 494 002c 00000000 		.word	u8x8_capture_get_pixel_1
 495              		.cfi_endproc
 496              	.LFE9:
 497              		.size	u8g2_WriteBufferPBM, .-u8g2_WriteBufferPBM
 498              		.section	.text.u8g2_WriteBufferXBM,"ax",%progbits
 499              		.align	2
 500              		.global	u8g2_WriteBufferXBM
 501              		.thumb
 502              		.thumb_func
 503              		.type	u8g2_WriteBufferXBM, %function
 504              	u8g2_WriteBufferXBM:
 505              	.LFB10:
 192:..\u8g2\csrc/u8g2_buffer.c **** 
 193:..\u8g2\csrc/u8g2_buffer.c **** void u8g2_WriteBufferXBM(u8g2_t *u8g2, void (*out)(const char *s))
 194:..\u8g2\csrc/u8g2_buffer.c **** {
 506              		.loc 1 194 0
 507              		.cfi_startproc
 508              		@ args = 0, pretend = 0, frame = 0
 509              		@ frame_needed = 0, uses_anonymous_args = 0
 510              	.LVL65:
 511 0000 30B5     		push	{r4, r5, lr}
 512              		.cfi_def_cfa_offset 12
 513              		.cfi_offset 4, -12
 514              		.cfi_offset 5, -8
 515              		.cfi_offset 14, -4
 516 0002 83B0     		sub	sp, sp, #12
 517              		.cfi_def_cfa_offset 24
 518 0004 0446     		mov	r4, r0
 519 0006 0D46     		mov	r5, r1
 195:..\u8g2\csrc/u8g2_buffer.c ****   u8x8_capture_write_xbm_pre(u8g2_GetBufferTileWidth(u8g2), u8g2_GetBufferTileHeight(u8g2), out);
 520              		.loc 1 195 0
 521 0008 0368     		ldr	r3, [r0]
 522 000a 0A46     		mov	r2, r1
 523 000c 90F83810 		ldrb	r1, [r0, #56]	@ zero_extendqisi2
 524              	.LVL66:
 525 0010 187C     		ldrb	r0, [r3, #16]	@ zero_extendqisi2
 526              	.LVL67:
 527 0012 FFF7FEFF 		bl	u8x8_capture_write_xbm_pre
 528              	.LVL68:
 196:..\u8g2\csrc/u8g2_buffer.c ****   u8x8_capture_write_xbm_buffer(u8g2_GetBufferPtr(u8g2), u8g2_GetBufferTileWidth(u8g2), u8g2_GetBuf
 529              		.loc 1 196 0
 530 0016 2368     		ldr	r3, [r4]
 531 0018 94F83820 		ldrb	r2, [r4, #56]	@ zero_extendqisi2
 532 001c 197C     		ldrb	r1, [r3, #16]	@ zero_extendqisi2
 533 001e 606B     		ldr	r0, [r4, #52]
 534 0020 0095     		str	r5, [sp]
 535 0022 024B     		ldr	r3, .L34
 536 0024 FFF7FEFF 		bl	u8x8_capture_write_xbm_buffer
 537              	.LVL69:
 197:..\u8g2\csrc/u8g2_buffer.c **** }
 538              		.loc 1 197 0
ARM GAS  C:\Users\brian\AppData\Local\Temp\ccv1kLiV.s 			page 14


 539 0028 03B0     		add	sp, sp, #12
 540              		.cfi_def_cfa_offset 12
 541              		@ sp needed
 542 002a 30BD     		pop	{r4, r5, pc}
 543              	.LVL70:
 544              	.L35:
 545              		.align	2
 546              	.L34:
 547 002c 00000000 		.word	u8x8_capture_get_pixel_1
 548              		.cfi_endproc
 549              	.LFE10:
 550              		.size	u8g2_WriteBufferXBM, .-u8g2_WriteBufferXBM
 551              		.section	.text.u8g2_WriteBufferPBM2,"ax",%progbits
 552              		.align	2
 553              		.global	u8g2_WriteBufferPBM2
 554              		.thumb
 555              		.thumb_func
 556              		.type	u8g2_WriteBufferPBM2, %function
 557              	u8g2_WriteBufferPBM2:
 558              	.LFB11:
 198:..\u8g2\csrc/u8g2_buffer.c **** 
 199:..\u8g2\csrc/u8g2_buffer.c **** 
 200:..\u8g2\csrc/u8g2_buffer.c **** /* horizontal right memory architecture */
 201:..\u8g2\csrc/u8g2_buffer.c **** /* SH1122, LD7032, ST7920, ST7986, LC7981, T6963, SED1330, RA8835, MAX7219, LS0 */ 
 202:..\u8g2\csrc/u8g2_buffer.c **** void u8g2_WriteBufferPBM2(u8g2_t *u8g2, void (*out)(const char *s))
 203:..\u8g2\csrc/u8g2_buffer.c **** {
 559              		.loc 1 203 0
 560              		.cfi_startproc
 561              		@ args = 0, pretend = 0, frame = 0
 562              		@ frame_needed = 0, uses_anonymous_args = 0
 563              	.LVL71:
 564 0000 30B5     		push	{r4, r5, lr}
 565              		.cfi_def_cfa_offset 12
 566              		.cfi_offset 4, -12
 567              		.cfi_offset 5, -8
 568              		.cfi_offset 14, -4
 569 0002 83B0     		sub	sp, sp, #12
 570              		.cfi_def_cfa_offset 24
 571 0004 0446     		mov	r4, r0
 572 0006 0D46     		mov	r5, r1
 204:..\u8g2\csrc/u8g2_buffer.c ****   u8x8_capture_write_pbm_pre(u8g2_GetBufferTileWidth(u8g2), u8g2_GetBufferTileHeight(u8g2), out);
 573              		.loc 1 204 0
 574 0008 0368     		ldr	r3, [r0]
 575 000a 0A46     		mov	r2, r1
 576 000c 90F83810 		ldrb	r1, [r0, #56]	@ zero_extendqisi2
 577              	.LVL72:
 578 0010 187C     		ldrb	r0, [r3, #16]	@ zero_extendqisi2
 579              	.LVL73:
 580 0012 FFF7FEFF 		bl	u8x8_capture_write_pbm_pre
 581              	.LVL74:
 205:..\u8g2\csrc/u8g2_buffer.c ****   u8x8_capture_write_pbm_buffer(u8g2_GetBufferPtr(u8g2), u8g2_GetBufferTileWidth(u8g2), u8g2_GetBuf
 582              		.loc 1 205 0
 583 0016 2368     		ldr	r3, [r4]
 584 0018 94F83820 		ldrb	r2, [r4, #56]	@ zero_extendqisi2
 585 001c 197C     		ldrb	r1, [r3, #16]	@ zero_extendqisi2
 586 001e 606B     		ldr	r0, [r4, #52]
 587 0020 0095     		str	r5, [sp]
ARM GAS  C:\Users\brian\AppData\Local\Temp\ccv1kLiV.s 			page 15


 588 0022 024B     		ldr	r3, .L38
 589 0024 FFF7FEFF 		bl	u8x8_capture_write_pbm_buffer
 590              	.LVL75:
 206:..\u8g2\csrc/u8g2_buffer.c **** }
 591              		.loc 1 206 0
 592 0028 03B0     		add	sp, sp, #12
 593              		.cfi_def_cfa_offset 12
 594              		@ sp needed
 595 002a 30BD     		pop	{r4, r5, pc}
 596              	.LVL76:
 597              	.L39:
 598              		.align	2
 599              	.L38:
 600 002c 00000000 		.word	u8x8_capture_get_pixel_2
 601              		.cfi_endproc
 602              	.LFE11:
 603              		.size	u8g2_WriteBufferPBM2, .-u8g2_WriteBufferPBM2
 604              		.section	.text.u8g2_WriteBufferXBM2,"ax",%progbits
 605              		.align	2
 606              		.global	u8g2_WriteBufferXBM2
 607              		.thumb
 608              		.thumb_func
 609              		.type	u8g2_WriteBufferXBM2, %function
 610              	u8g2_WriteBufferXBM2:
 611              	.LFB12:
 207:..\u8g2\csrc/u8g2_buffer.c **** 
 208:..\u8g2\csrc/u8g2_buffer.c **** void u8g2_WriteBufferXBM2(u8g2_t *u8g2, void (*out)(const char *s))
 209:..\u8g2\csrc/u8g2_buffer.c **** {
 612              		.loc 1 209 0
 613              		.cfi_startproc
 614              		@ args = 0, pretend = 0, frame = 0
 615              		@ frame_needed = 0, uses_anonymous_args = 0
 616              	.LVL77:
 617 0000 30B5     		push	{r4, r5, lr}
 618              		.cfi_def_cfa_offset 12
 619              		.cfi_offset 4, -12
 620              		.cfi_offset 5, -8
 621              		.cfi_offset 14, -4
 622 0002 83B0     		sub	sp, sp, #12
 623              		.cfi_def_cfa_offset 24
 624 0004 0446     		mov	r4, r0
 625 0006 0D46     		mov	r5, r1
 210:..\u8g2\csrc/u8g2_buffer.c ****   u8x8_capture_write_xbm_pre(u8g2_GetBufferTileWidth(u8g2), u8g2_GetBufferTileHeight(u8g2), out);
 626              		.loc 1 210 0
 627 0008 0368     		ldr	r3, [r0]
 628 000a 0A46     		mov	r2, r1
 629 000c 90F83810 		ldrb	r1, [r0, #56]	@ zero_extendqisi2
 630              	.LVL78:
 631 0010 187C     		ldrb	r0, [r3, #16]	@ zero_extendqisi2
 632              	.LVL79:
 633 0012 FFF7FEFF 		bl	u8x8_capture_write_xbm_pre
 634              	.LVL80:
 211:..\u8g2\csrc/u8g2_buffer.c ****   u8x8_capture_write_xbm_buffer(u8g2_GetBufferPtr(u8g2), u8g2_GetBufferTileWidth(u8g2), u8g2_GetBuf
 635              		.loc 1 211 0
 636 0016 2368     		ldr	r3, [r4]
 637 0018 94F83820 		ldrb	r2, [r4, #56]	@ zero_extendqisi2
 638 001c 197C     		ldrb	r1, [r3, #16]	@ zero_extendqisi2
ARM GAS  C:\Users\brian\AppData\Local\Temp\ccv1kLiV.s 			page 16


 639 001e 606B     		ldr	r0, [r4, #52]
 640 0020 0095     		str	r5, [sp]
 641 0022 024B     		ldr	r3, .L42
 642 0024 FFF7FEFF 		bl	u8x8_capture_write_xbm_buffer
 643              	.LVL81:
 212:..\u8g2\csrc/u8g2_buffer.c **** }
 644              		.loc 1 212 0
 645 0028 03B0     		add	sp, sp, #12
 646              		.cfi_def_cfa_offset 12
 647              		@ sp needed
 648 002a 30BD     		pop	{r4, r5, pc}
 649              	.LVL82:
 650              	.L43:
 651              		.align	2
 652              	.L42:
 653 002c 00000000 		.word	u8x8_capture_get_pixel_2
 654              		.cfi_endproc
 655              	.LFE12:
 656              		.size	u8g2_WriteBufferXBM2, .-u8g2_WriteBufferXBM2
 657              		.text
 658              	.Letext0:
 659              		.file 2 "c:\\program files (x86)\\cypress\\psoc creator\\4.4\\psoc creator\\import\\gnu\\arm\\5.4.
 660              		.file 3 "c:\\program files (x86)\\cypress\\psoc creator\\4.4\\psoc creator\\import\\gnu\\arm\\5.4.
 661              		.file 4 "c:\\program files (x86)\\cypress\\psoc creator\\4.4\\psoc creator\\import\\gnu\\arm\\5.4.
 662              		.file 5 "..\\u8g2\\csrc\\u8x8.h"
 663              		.file 6 "..\\u8g2\\csrc\\u8g2.h"