ARM GAS  C:\Users\brian\AppData\Local\Temp\ccplB635.s 			page 1


   1              		.syntax unified
   2              		.cpu cortex-m3
   3              		.fpu softvfp
   4              		.eabi_attribute 20, 1
   5              		.eabi_attribute 21, 1
   6              		.eabi_attribute 23, 3
   7              		.eabi_attribute 24, 1
   8              		.eabi_attribute 25, 1
   9              		.eabi_attribute 26, 1
  10              		.eabi_attribute 30, 1
  11              		.eabi_attribute 34, 1
  12              		.eabi_attribute 18, 4
  13              		.thumb
  14              		.syntax unified
  15              		.file	"u8g2_kerning.c"
  16              		.text
  17              	.Ltext0:
  18              		.cfi_sections	.debug_frame
  19              		.section	.text.u8g2_GetKerning,"ax",%progbits
  20              		.align	2
  21              		.global	u8g2_GetKerning
  22              		.thumb
  23              		.thumb_func
  24              		.type	u8g2_GetKerning, %function
  25              	u8g2_GetKerning:
  26              	.LFB0:
  27              		.file 1 "..\\u8g2\\csrc\\u8g2_kerning.c"
   1:..\u8g2\csrc/u8g2_kerning.c **** /*
   2:..\u8g2\csrc/u8g2_kerning.c **** 
   3:..\u8g2\csrc/u8g2_kerning.c ****   u8g2_kerning.c
   4:..\u8g2\csrc/u8g2_kerning.c **** 
   5:..\u8g2\csrc/u8g2_kerning.c ****   Universal 8bit Graphics Library (https://github.com/olikraus/u8g2/)
   6:..\u8g2\csrc/u8g2_kerning.c **** 
   7:..\u8g2\csrc/u8g2_kerning.c ****   Copyright (c) 2016, olikraus@gmail.com
   8:..\u8g2\csrc/u8g2_kerning.c ****   All rights reserved.
   9:..\u8g2\csrc/u8g2_kerning.c **** 
  10:..\u8g2\csrc/u8g2_kerning.c ****   Redistribution and use in source and binary forms, with or without modification, 
  11:..\u8g2\csrc/u8g2_kerning.c ****   are permitted provided that the following conditions are met:
  12:..\u8g2\csrc/u8g2_kerning.c **** 
  13:..\u8g2\csrc/u8g2_kerning.c ****   * Redistributions of source code must retain the above copyright notice, this list 
  14:..\u8g2\csrc/u8g2_kerning.c ****     of conditions and the following disclaimer.
  15:..\u8g2\csrc/u8g2_kerning.c ****     
  16:..\u8g2\csrc/u8g2_kerning.c ****   * Redistributions in binary form must reproduce the above copyright notice, this 
  17:..\u8g2\csrc/u8g2_kerning.c ****     list of conditions and the following disclaimer in the documentation and/or other 
  18:..\u8g2\csrc/u8g2_kerning.c ****     materials provided with the distribution.
  19:..\u8g2\csrc/u8g2_kerning.c **** 
  20:..\u8g2\csrc/u8g2_kerning.c ****   THIS SOFTWARE IS PROVIDED BY THE COPYRIGHT HOLDERS AND 
  21:..\u8g2\csrc/u8g2_kerning.c ****   CONTRIBUTORS "AS IS" AND ANY EXPRESS OR IMPLIED WARRANTIES, 
  22:..\u8g2\csrc/u8g2_kerning.c ****   INCLUDING, BUT NOT LIMITED TO, THE IMPLIED WARRANTIES OF 
  23:..\u8g2\csrc/u8g2_kerning.c ****   MERCHANTABILITY AND FITNESS FOR A PARTICULAR PURPOSE ARE 
  24:..\u8g2\csrc/u8g2_kerning.c ****   DISCLAIMED. IN NO EVENT SHALL THE COPYRIGHT HOLDER OR 
  25:..\u8g2\csrc/u8g2_kerning.c ****   CONTRIBUTORS BE LIABLE FOR ANY DIRECT, INDIRECT, INCIDENTAL, 
  26:..\u8g2\csrc/u8g2_kerning.c ****   SPECIAL, EXEMPLARY, OR CONSEQUENTIAL DAMAGES (INCLUDING, BUT 
  27:..\u8g2\csrc/u8g2_kerning.c ****   NOT LIMITED TO, PROCUREMENT OF SUBSTITUTE GOODS OR SERVICES; 
  28:..\u8g2\csrc/u8g2_kerning.c ****   LOSS OF USE, DATA, OR PROFITS; OR BUSINESS INTERRUPTION) HOWEVER 
  29:..\u8g2\csrc/u8g2_kerning.c ****   CAUSED AND ON ANY THEORY OF LIABILITY, WHETHER IN CONTRACT, 
  30:..\u8g2\csrc/u8g2_kerning.c ****   STRICT LIABILITY, OR TORT (INCLUDING NEGLIGENCE OR OTHERWISE) 
ARM GAS  C:\Users\brian\AppData\Local\Temp\ccplB635.s 			page 2


  31:..\u8g2\csrc/u8g2_kerning.c ****   ARISING IN ANY WAY OUT OF THE USE OF THIS SOFTWARE, EVEN IF 
  32:..\u8g2\csrc/u8g2_kerning.c ****   ADVISED OF THE POSSIBILITY OF SUCH DAMAGE.  
  33:..\u8g2\csrc/u8g2_kerning.c **** 
  34:..\u8g2\csrc/u8g2_kerning.c **** */
  35:..\u8g2\csrc/u8g2_kerning.c **** 
  36:..\u8g2\csrc/u8g2_kerning.c **** #include "u8g2.h"
  37:..\u8g2\csrc/u8g2_kerning.c **** 
  38:..\u8g2\csrc/u8g2_kerning.c **** /* this function is used as "u8g2_get_kerning_cb" */
  39:..\u8g2\csrc/u8g2_kerning.c **** /*
  40:..\u8g2\csrc/u8g2_kerning.c **** uint8_t u8g2_GetNullKerning(u8g2_t *u8g2, uint16_t e1, uint16_t e2)
  41:..\u8g2\csrc/u8g2_kerning.c **** {
  42:..\u8g2\csrc/u8g2_kerning.c ****   return 0;
  43:..\u8g2\csrc/u8g2_kerning.c **** }
  44:..\u8g2\csrc/u8g2_kerning.c **** */
  45:..\u8g2\csrc/u8g2_kerning.c **** 
  46:..\u8g2\csrc/u8g2_kerning.c **** /* this function is used as "u8g2_get_kerning_cb" */
  47:..\u8g2\csrc/u8g2_kerning.c **** uint8_t u8g2_GetKerning(U8X8_UNUSED u8g2_t *u8g2, u8g2_kerning_t *kerning, uint16_t e1, uint16_t e2
  48:..\u8g2\csrc/u8g2_kerning.c **** {
  28              		.loc 1 48 0
  29              		.cfi_startproc
  30              		@ args = 0, pretend = 0, frame = 0
  31              		@ frame_needed = 0, uses_anonymous_args = 0
  32              		@ link register save eliminated.
  33              	.LVL0:
  49:..\u8g2\csrc/u8g2_kerning.c ****   uint16_t i1, i2, cnt, end;
  50:..\u8g2\csrc/u8g2_kerning.c ****   if ( kerning == NULL )
  34              		.loc 1 50 0
  35 0000 31B3     		cbz	r1, .L9
  48:..\u8g2\csrc/u8g2_kerning.c ****   uint16_t i1, i2, cnt, end;
  36              		.loc 1 48 0
  37 0002 30B4     		push	{r4, r5}
  38              		.cfi_def_cfa_offset 8
  39              		.cfi_offset 4, -8
  40              		.cfi_offset 5, -4
  41 0004 0C46     		mov	r4, r1
  51:..\u8g2\csrc/u8g2_kerning.c ****     return 0;
  52:..\u8g2\csrc/u8g2_kerning.c ****   
  53:..\u8g2\csrc/u8g2_kerning.c ****   /* search for the encoding in the first table */
  54:..\u8g2\csrc/u8g2_kerning.c ****   cnt = kerning->first_table_cnt;
  42              		.loc 1 54 0
  43 0006 0D88     		ldrh	r5, [r1]
  44              	.LVL1:
  55:..\u8g2\csrc/u8g2_kerning.c ****   cnt--;	/* ignore the last element of the table, which is 0x0ffff */
  45              		.loc 1 55 0
  46 0008 013D     		subs	r5, r5, #1
  47              	.LVL2:
  48 000a ADB2     		uxth	r5, r5
  49              	.LVL3:
  56:..\u8g2\csrc/u8g2_kerning.c ****   for( i1 = 0; i1 < cnt; i1++ )
  50              		.loc 1 56 0
  51 000c 0021     		movs	r1, #0
  52              	.LVL4:
  53 000e 06E0     		b	.L3
  54              	.LVL5:
  55              	.L5:
  57:..\u8g2\csrc/u8g2_kerning.c ****   {
  58:..\u8g2\csrc/u8g2_kerning.c ****     if ( kerning->first_encoding_table[i1] == e1 )
ARM GAS  C:\Users\brian\AppData\Local\Temp\ccplB635.s 			page 3


  56              		.loc 1 58 0
  57 0010 6068     		ldr	r0, [r4, #4]
  58 0012 30F81100 		ldrh	r0, [r0, r1, lsl #1]
  59 0016 9042     		cmp	r0, r2
  60 0018 03D0     		beq	.L4
  56:..\u8g2\csrc/u8g2_kerning.c ****   for( i1 = 0; i1 < cnt; i1++ )
  61              		.loc 1 56 0 discriminator 2
  62 001a 0131     		adds	r1, r1, #1
  63              	.LVL6:
  64 001c 89B2     		uxth	r1, r1
  65              	.LVL7:
  66              	.L3:
  56:..\u8g2\csrc/u8g2_kerning.c ****   for( i1 = 0; i1 < cnt; i1++ )
  67              		.loc 1 56 0 is_stmt 0 discriminator 1
  68 001e A942     		cmp	r1, r5
  69 0020 F6D3     		bcc	.L5
  70              	.L4:
  59:..\u8g2\csrc/u8g2_kerning.c ****       break;
  60:..\u8g2\csrc/u8g2_kerning.c ****   }
  61:..\u8g2\csrc/u8g2_kerning.c ****   if ( i1 >= cnt )
  71              		.loc 1 61 0 is_stmt 1
  72 0022 A942     		cmp	r1, r5
  73 0024 16D2     		bcs	.L10
  62:..\u8g2\csrc/u8g2_kerning.c ****     return 0;	/* e1 not part of the kerning table, return 0 */
  63:..\u8g2\csrc/u8g2_kerning.c **** 
  64:..\u8g2\csrc/u8g2_kerning.c ****   /* get the upper index for i2 */
  65:..\u8g2\csrc/u8g2_kerning.c ****   end = kerning->index_to_second_table[i1+1];
  74              		.loc 1 65 0
  75 0026 A268     		ldr	r2, [r4, #8]
  76              	.LVL8:
  77 0028 481C     		adds	r0, r1, #1
  78 002a 32F81000 		ldrh	r0, [r2, r0, lsl #1]
  79              	.LVL9:
  66:..\u8g2\csrc/u8g2_kerning.c ****   for( i2 = kerning->index_to_second_table[i1]; i2 < end; i2++ )
  80              		.loc 1 66 0
  81 002e 32F81120 		ldrh	r2, [r2, r1, lsl #1]
  82              	.LVL10:
  83 0032 06E0     		b	.L6
  84              	.LVL11:
  85              	.L8:
  67:..\u8g2\csrc/u8g2_kerning.c ****   {
  68:..\u8g2\csrc/u8g2_kerning.c ****     if ( kerning->second_encoding_table[i2] == e2 )
  86              		.loc 1 68 0
  87 0034 E168     		ldr	r1, [r4, #12]
  88 0036 31F81210 		ldrh	r1, [r1, r2, lsl #1]
  89 003a 9942     		cmp	r1, r3
  90 003c 03D0     		beq	.L7
  66:..\u8g2\csrc/u8g2_kerning.c ****   for( i2 = kerning->index_to_second_table[i1]; i2 < end; i2++ )
  91              		.loc 1 66 0 discriminator 2
  92 003e 0132     		adds	r2, r2, #1
  93              	.LVL12:
  94 0040 92B2     		uxth	r2, r2
  95              	.LVL13:
  96              	.L6:
  66:..\u8g2\csrc/u8g2_kerning.c ****   for( i2 = kerning->index_to_second_table[i1]; i2 < end; i2++ )
  97              		.loc 1 66 0 is_stmt 0 discriminator 1
  98 0042 8242     		cmp	r2, r0
ARM GAS  C:\Users\brian\AppData\Local\Temp\ccplB635.s 			page 4


  99 0044 F6D3     		bcc	.L8
 100              	.L7:
  69:..\u8g2\csrc/u8g2_kerning.c ****       break;
  70:..\u8g2\csrc/u8g2_kerning.c ****   }
  71:..\u8g2\csrc/u8g2_kerning.c ****   
  72:..\u8g2\csrc/u8g2_kerning.c ****   if ( i2 >= end )
 101              		.loc 1 72 0 is_stmt 1
 102 0046 8242     		cmp	r2, r0
 103 0048 06D2     		bcs	.L11
  73:..\u8g2\csrc/u8g2_kerning.c ****     return 0;	/* e2 not part of any pair with e1, return 0 */
  74:..\u8g2\csrc/u8g2_kerning.c ****   
  75:..\u8g2\csrc/u8g2_kerning.c ****   return kerning->kerning_values[i2];
 104              		.loc 1 75 0
 105 004a 2369     		ldr	r3, [r4, #16]
 106              	.LVL14:
 107 004c 985C     		ldrb	r0, [r3, r2]	@ zero_extendqisi2
 108              	.LVL15:
 109 004e 04E0     		b	.L2
 110              	.LVL16:
 111              	.L9:
 112              		.cfi_def_cfa_offset 0
 113              		.cfi_restore 4
 114              		.cfi_restore 5
  51:..\u8g2\csrc/u8g2_kerning.c ****   
 115              		.loc 1 51 0
 116 0050 0020     		movs	r0, #0
 117              	.LVL17:
  76:..\u8g2\csrc/u8g2_kerning.c **** }
 118              		.loc 1 76 0
 119 0052 7047     		bx	lr
 120              	.LVL18:
 121              	.L10:
 122              		.cfi_def_cfa_offset 8
 123              		.cfi_offset 4, -8
 124              		.cfi_offset 5, -4
  62:..\u8g2\csrc/u8g2_kerning.c **** 
 125              		.loc 1 62 0
 126 0054 0020     		movs	r0, #0
 127 0056 00E0     		b	.L2
 128              	.LVL19:
 129              	.L11:
  73:..\u8g2\csrc/u8g2_kerning.c ****   
 130              		.loc 1 73 0
 131 0058 0020     		movs	r0, #0
 132              	.LVL20:
 133              	.L2:
 134              		.loc 1 76 0
 135 005a 30BC     		pop	{r4, r5}
 136              		.cfi_restore 5
 137              		.cfi_restore 4
 138              		.cfi_def_cfa_offset 0
 139              	.LVL21:
 140 005c 7047     		bx	lr
 141              		.cfi_endproc
 142              	.LFE0:
 143              		.size	u8g2_GetKerning, .-u8g2_GetKerning
 144 005e 00BF     		.section	.text.u8g2_GetKerningByTable,"ax",%progbits
ARM GAS  C:\Users\brian\AppData\Local\Temp\ccplB635.s 			page 5


 145              		.align	2
 146              		.global	u8g2_GetKerningByTable
 147              		.thumb
 148              		.thumb_func
 149              		.type	u8g2_GetKerningByTable, %function
 150              	u8g2_GetKerningByTable:
 151              	.LFB1:
  77:..\u8g2\csrc/u8g2_kerning.c **** 
  78:..\u8g2\csrc/u8g2_kerning.c **** uint8_t u8g2_GetKerningByTable(U8X8_UNUSED u8g2_t *u8g2, const uint16_t *kt, uint16_t e1, uint16_t 
  79:..\u8g2\csrc/u8g2_kerning.c **** {
 152              		.loc 1 79 0
 153              		.cfi_startproc
 154              		@ args = 0, pretend = 0, frame = 0
 155              		@ frame_needed = 0, uses_anonymous_args = 0
 156              		@ link register save eliminated.
 157              	.LVL22:
  80:..\u8g2\csrc/u8g2_kerning.c ****   uint16_t i;
  81:..\u8g2\csrc/u8g2_kerning.c ****   i = 0;
  82:..\u8g2\csrc/u8g2_kerning.c ****   if ( kt == NULL )
 158              		.loc 1 82 0
 159 0000 B9B1     		cbz	r1, .L17
  79:..\u8g2\csrc/u8g2_kerning.c ****   uint16_t i;
 160              		.loc 1 79 0
 161 0002 70B4     		push	{r4, r5, r6}
 162              		.cfi_def_cfa_offset 12
 163              		.cfi_offset 4, -12
 164              		.cfi_offset 5, -8
 165              		.cfi_offset 6, -4
 166 0004 0D46     		mov	r5, r1
 167 0006 0021     		movs	r1, #0
 168              	.LVL23:
 169              	.L16:
  83:..\u8g2\csrc/u8g2_kerning.c ****     return 0;
  84:..\u8g2\csrc/u8g2_kerning.c ****   for(;;)
  85:..\u8g2\csrc/u8g2_kerning.c ****   {
  86:..\u8g2\csrc/u8g2_kerning.c ****     if ( kt[i] == 0x0ffff )
 170              		.loc 1 86 0
 171 0008 0E46     		mov	r6, r1
 172 000a 35F81100 		ldrh	r0, [r5, r1, lsl #1]
 173 000e 4FF6FF74 		movw	r4, #65535
 174 0012 A042     		cmp	r0, r4
 175 0014 0FD0     		beq	.L18
  87:..\u8g2\csrc/u8g2_kerning.c ****       break;
  88:..\u8g2\csrc/u8g2_kerning.c ****     if ( kt[i] == e1 && kt[i+1] == e2 )
 176              		.loc 1 88 0
 177 0016 9042     		cmp	r0, r2
 178 0018 08D1     		bne	.L15
 179              		.loc 1 88 0 is_stmt 0 discriminator 1
 180 001a 481C     		adds	r0, r1, #1
 181 001c 35F81000 		ldrh	r0, [r5, r0, lsl #1]
 182 0020 9842     		cmp	r0, r3
 183 0022 03D1     		bne	.L15
  89:..\u8g2\csrc/u8g2_kerning.c ****       return kt[i+2];
 184              		.loc 1 89 0 is_stmt 1
 185 0024 0236     		adds	r6, r6, #2
 186 0026 15F81600 		ldrb	r0, [r5, r6, lsl #1]	@ zero_extendqisi2
 187 002a 05E0     		b	.L14
ARM GAS  C:\Users\brian\AppData\Local\Temp\ccplB635.s 			page 6


 188              	.L15:
  90:..\u8g2\csrc/u8g2_kerning.c ****     i+=3;
 189              		.loc 1 90 0
 190 002c 0331     		adds	r1, r1, #3
 191              	.LVL24:
 192 002e 89B2     		uxth	r1, r1
 193              	.LVL25:
  91:..\u8g2\csrc/u8g2_kerning.c ****   }
 194              		.loc 1 91 0
 195 0030 EAE7     		b	.L16
 196              	.LVL26:
 197              	.L17:
 198              		.cfi_def_cfa_offset 0
 199              		.cfi_restore 4
 200              		.cfi_restore 5
 201              		.cfi_restore 6
  83:..\u8g2\csrc/u8g2_kerning.c ****   for(;;)
 202              		.loc 1 83 0
 203 0032 0020     		movs	r0, #0
 204              	.LVL27:
  92:..\u8g2\csrc/u8g2_kerning.c ****   return 0;
  93:..\u8g2\csrc/u8g2_kerning.c **** }
 205              		.loc 1 93 0
 206 0034 7047     		bx	lr
 207              	.LVL28:
 208              	.L18:
 209              		.cfi_def_cfa_offset 12
 210              		.cfi_offset 4, -12
 211              		.cfi_offset 5, -8
 212              		.cfi_offset 6, -4
  92:..\u8g2\csrc/u8g2_kerning.c ****   return 0;
 213              		.loc 1 92 0
 214 0036 0020     		movs	r0, #0
 215              	.L14:
 216              		.loc 1 93 0
 217 0038 70BC     		pop	{r4, r5, r6}
 218              		.cfi_restore 6
 219              		.cfi_restore 5
 220              		.cfi_restore 4
 221              		.cfi_def_cfa_offset 0
 222              	.LVL29:
 223 003a 7047     		bx	lr
 224              		.cfi_endproc
 225              	.LFE1:
 226              		.size	u8g2_GetKerningByTable, .-u8g2_GetKerningByTable
 227              		.text
 228              	.Letext0:
 229              		.file 2 "c:\\program files (x86)\\cypress\\psoc creator\\4.4\\psoc creator\\import\\gnu\\arm\\5.4.
 230              		.file 3 "c:\\program files (x86)\\cypress\\psoc creator\\4.4\\psoc creator\\import\\gnu\\arm\\5.4.
 231              		.file 4 "..\\u8g2\\csrc\\u8x8.h"
 232              		.file 5 "..\\u8g2\\csrc\\u8g2.h"