ARM GAS  C:\Users\brian\AppData\Local\Temp\ccK1AeEG.s 			page 1


   1              		.syntax unified
   2              		.cpu cortex-m3
   3              		.fpu softvfp
   4              		.eabi_attribute 20, 1
   5              		.eabi_attribute 21, 1
   6              		.eabi_attribute 23, 3
   7              		.eabi_attribute 24, 1
   8              		.eabi_attribute 25, 1
   9              		.eabi_attribute 26, 1
  10              		.eabi_attribute 30, 1
  11              		.eabi_attribute 34, 1
  12              		.eabi_attribute 18, 4
  13              		.thumb
  14              		.syntax unified
  15              		.file	"u8g2_setup.c"
  16              		.text
  17              	.Ltext0:
  18              		.cfi_sections	.debug_frame
  19              		.section	.text.u8g2_update_dimension_common,"ax",%progbits
  20              		.align	2
  21              		.thumb
  22              		.thumb_func
  23              		.type	u8g2_update_dimension_common, %function
  24              	u8g2_update_dimension_common:
  25              	.LFB5:
  26              		.file 1 "..\\u8g2\\csrc\\u8g2_setup.c"
   1:..\u8g2\csrc/u8g2_setup.c **** /*
   2:..\u8g2\csrc/u8g2_setup.c **** 
   3:..\u8g2\csrc/u8g2_setup.c ****   u8g2_setup.c
   4:..\u8g2\csrc/u8g2_setup.c **** 
   5:..\u8g2\csrc/u8g2_setup.c ****   Universal 8bit Graphics Library (https://github.com/olikraus/u8g2/)
   6:..\u8g2\csrc/u8g2_setup.c **** 
   7:..\u8g2\csrc/u8g2_setup.c ****   Copyright (c) 2016, olikraus@gmail.com
   8:..\u8g2\csrc/u8g2_setup.c ****   All rights reserved.
   9:..\u8g2\csrc/u8g2_setup.c **** 
  10:..\u8g2\csrc/u8g2_setup.c ****   Redistribution and use in source and binary forms, with or without modification, 
  11:..\u8g2\csrc/u8g2_setup.c ****   are permitted provided that the following conditions are met:
  12:..\u8g2\csrc/u8g2_setup.c **** 
  13:..\u8g2\csrc/u8g2_setup.c ****   * Redistributions of source code must retain the above copyright notice, this list 
  14:..\u8g2\csrc/u8g2_setup.c ****     of conditions and the following disclaimer.
  15:..\u8g2\csrc/u8g2_setup.c ****     
  16:..\u8g2\csrc/u8g2_setup.c ****   * Redistributions in binary form must reproduce the above copyright notice, this 
  17:..\u8g2\csrc/u8g2_setup.c ****     list of conditions and the following disclaimer in the documentation and/or other 
  18:..\u8g2\csrc/u8g2_setup.c ****     materials provided with the distribution.
  19:..\u8g2\csrc/u8g2_setup.c **** 
  20:..\u8g2\csrc/u8g2_setup.c ****   THIS SOFTWARE IS PROVIDED BY THE COPYRIGHT HOLDERS AND 
  21:..\u8g2\csrc/u8g2_setup.c ****   CONTRIBUTORS "AS IS" AND ANY EXPRESS OR IMPLIED WARRANTIES, 
  22:..\u8g2\csrc/u8g2_setup.c ****   INCLUDING, BUT NOT LIMITED TO, THE IMPLIED WARRANTIES OF 
  23:..\u8g2\csrc/u8g2_setup.c ****   MERCHANTABILITY AND FITNESS FOR A PARTICULAR PURPOSE ARE 
  24:..\u8g2\csrc/u8g2_setup.c ****   DISCLAIMED. IN NO EVENT SHALL THE COPYRIGHT HOLDER OR 
  25:..\u8g2\csrc/u8g2_setup.c ****   CONTRIBUTORS BE LIABLE FOR ANY DIRECT, INDIRECT, INCIDENTAL, 
  26:..\u8g2\csrc/u8g2_setup.c ****   SPECIAL, EXEMPLARY, OR CONSEQUENTIAL DAMAGES (INCLUDING, BUT 
  27:..\u8g2\csrc/u8g2_setup.c ****   NOT LIMITED TO, PROCUREMENT OF SUBSTITUTE GOODS OR SERVICES; 
  28:..\u8g2\csrc/u8g2_setup.c ****   LOSS OF USE, DATA, OR PROFITS; OR BUSINESS INTERRUPTION) HOWEVER 
  29:..\u8g2\csrc/u8g2_setup.c ****   CAUSED AND ON ANY THEORY OF LIABILITY, WHETHER IN CONTRACT, 
  30:..\u8g2\csrc/u8g2_setup.c ****   STRICT LIABILITY, OR TORT (INCLUDING NEGLIGENCE OR OTHERWISE) 
  31:..\u8g2\csrc/u8g2_setup.c ****   ARISING IN ANY WAY OUT OF THE USE OF THIS SOFTWARE, EVEN IF 
ARM GAS  C:\Users\brian\AppData\Local\Temp\ccK1AeEG.s 			page 2


  32:..\u8g2\csrc/u8g2_setup.c ****   ADVISED OF THE POSSIBILITY OF SUCH DAMAGE.  
  33:..\u8g2\csrc/u8g2_setup.c **** 
  34:..\u8g2\csrc/u8g2_setup.c **** */
  35:..\u8g2\csrc/u8g2_setup.c **** 
  36:..\u8g2\csrc/u8g2_setup.c **** #include "u8g2.h"
  37:..\u8g2\csrc/u8g2_setup.c **** #include <string.h>
  38:..\u8g2\csrc/u8g2_setup.c **** #include <assert.h>
  39:..\u8g2\csrc/u8g2_setup.c **** 
  40:..\u8g2\csrc/u8g2_setup.c **** 
  41:..\u8g2\csrc/u8g2_setup.c **** /*============================================*/
  42:..\u8g2\csrc/u8g2_setup.c **** 
  43:..\u8g2\csrc/u8g2_setup.c **** 
  44:..\u8g2\csrc/u8g2_setup.c **** #ifdef U8G2_WITH_CLIP_WINDOW_SUPPORT
  45:..\u8g2\csrc/u8g2_setup.c **** 
  46:..\u8g2\csrc/u8g2_setup.c **** void u8g2_SetMaxClipWindow(u8g2_t *u8g2)
  47:..\u8g2\csrc/u8g2_setup.c **** {
  48:..\u8g2\csrc/u8g2_setup.c ****   u8g2->clip_x0 = 0;
  49:..\u8g2\csrc/u8g2_setup.c ****   u8g2->clip_y0 = 0;
  50:..\u8g2\csrc/u8g2_setup.c ****   u8g2->clip_x1 = (u8g2_uint_t)~(u8g2_uint_t)0;
  51:..\u8g2\csrc/u8g2_setup.c ****   u8g2->clip_y1 = (u8g2_uint_t)~(u8g2_uint_t)0;
  52:..\u8g2\csrc/u8g2_setup.c ****   
  53:..\u8g2\csrc/u8g2_setup.c ****   u8g2->cb->update_page_win(u8g2);
  54:..\u8g2\csrc/u8g2_setup.c **** }
  55:..\u8g2\csrc/u8g2_setup.c **** 
  56:..\u8g2\csrc/u8g2_setup.c **** void u8g2_SetClipWindow(u8g2_t *u8g2, u8g2_uint_t clip_x0, u8g2_uint_t clip_y0, u8g2_uint_t clip_x1
  57:..\u8g2\csrc/u8g2_setup.c **** {
  58:..\u8g2\csrc/u8g2_setup.c ****   u8g2->clip_x0 = clip_x0;
  59:..\u8g2\csrc/u8g2_setup.c ****   u8g2->clip_y0 = clip_y0;
  60:..\u8g2\csrc/u8g2_setup.c ****   u8g2->clip_x1 = clip_x1;
  61:..\u8g2\csrc/u8g2_setup.c ****   u8g2->clip_y1 = clip_y1;
  62:..\u8g2\csrc/u8g2_setup.c ****   u8g2->cb->update_page_win(u8g2);
  63:..\u8g2\csrc/u8g2_setup.c **** }
  64:..\u8g2\csrc/u8g2_setup.c **** #endif
  65:..\u8g2\csrc/u8g2_setup.c **** 
  66:..\u8g2\csrc/u8g2_setup.c **** /*============================================*/
  67:..\u8g2\csrc/u8g2_setup.c **** /*
  68:..\u8g2\csrc/u8g2_setup.c ****   This procedure is called after setting up the display (u8x8 structure).
  69:..\u8g2\csrc/u8g2_setup.c ****   --> This is the central init procedure for u8g2 object
  70:..\u8g2\csrc/u8g2_setup.c **** */
  71:..\u8g2\csrc/u8g2_setup.c **** void u8g2_SetupBuffer(u8g2_t *u8g2, uint8_t *buf, uint8_t tile_buf_height, u8g2_draw_ll_hvline_cb l
  72:..\u8g2\csrc/u8g2_setup.c **** {
  73:..\u8g2\csrc/u8g2_setup.c ****   u8g2->font = NULL;
  74:..\u8g2\csrc/u8g2_setup.c ****   //u8g2->kerning = NULL;
  75:..\u8g2\csrc/u8g2_setup.c ****   //u8g2->get_kerning_cb = u8g2_GetNullKerning;
  76:..\u8g2\csrc/u8g2_setup.c ****   
  77:..\u8g2\csrc/u8g2_setup.c ****   //u8g2->ll_hvline = u8g2_ll_hvline_vertical_top_lsb;
  78:..\u8g2\csrc/u8g2_setup.c ****   u8g2->ll_hvline = ll_hvline_cb;
  79:..\u8g2\csrc/u8g2_setup.c ****   
  80:..\u8g2\csrc/u8g2_setup.c ****   u8g2->tile_buf_ptr = buf;
  81:..\u8g2\csrc/u8g2_setup.c ****   u8g2->tile_buf_height = tile_buf_height;
  82:..\u8g2\csrc/u8g2_setup.c ****   
  83:..\u8g2\csrc/u8g2_setup.c ****   u8g2->tile_curr_row = 0;
  84:..\u8g2\csrc/u8g2_setup.c ****   
  85:..\u8g2\csrc/u8g2_setup.c ****   u8g2->font_decode.is_transparent = 0; /* issue 443 */
  86:..\u8g2\csrc/u8g2_setup.c ****   u8g2->bitmap_transparency = 0;
  87:..\u8g2\csrc/u8g2_setup.c ****   
  88:..\u8g2\csrc/u8g2_setup.c ****   u8g2->draw_color = 1;
ARM GAS  C:\Users\brian\AppData\Local\Temp\ccK1AeEG.s 			page 3


  89:..\u8g2\csrc/u8g2_setup.c ****   u8g2->is_auto_page_clear = 1;
  90:..\u8g2\csrc/u8g2_setup.c ****   
  91:..\u8g2\csrc/u8g2_setup.c ****   u8g2->cb = u8g2_cb;
  92:..\u8g2\csrc/u8g2_setup.c ****   u8g2->cb->update_dimension(u8g2);
  93:..\u8g2\csrc/u8g2_setup.c **** #ifdef U8G2_WITH_CLIP_WINDOW_SUPPORT
  94:..\u8g2\csrc/u8g2_setup.c ****   u8g2_SetMaxClipWindow(u8g2);		/* assign a clip window and call the update() procedure */
  95:..\u8g2\csrc/u8g2_setup.c **** #else
  96:..\u8g2\csrc/u8g2_setup.c ****   u8g2->cb->update_page_win(u8g2);
  97:..\u8g2\csrc/u8g2_setup.c **** #endif
  98:..\u8g2\csrc/u8g2_setup.c **** 
  99:..\u8g2\csrc/u8g2_setup.c ****   u8g2_SetFontPosBaseline(u8g2);  /* issue 195 */
 100:..\u8g2\csrc/u8g2_setup.c ****   
 101:..\u8g2\csrc/u8g2_setup.c **** #ifdef U8G2_WITH_FONT_ROTATION  
 102:..\u8g2\csrc/u8g2_setup.c ****   u8g2->font_decode.dir = 0;
 103:..\u8g2\csrc/u8g2_setup.c **** #endif
 104:..\u8g2\csrc/u8g2_setup.c **** }
 105:..\u8g2\csrc/u8g2_setup.c **** 
 106:..\u8g2\csrc/u8g2_setup.c **** /*
 107:..\u8g2\csrc/u8g2_setup.c ****   Usually the display rotation is set initially, but it could be done later also
 108:..\u8g2\csrc/u8g2_setup.c ****   u8g2_cb can be U8G2_R0..U8G2_R3
 109:..\u8g2\csrc/u8g2_setup.c **** */
 110:..\u8g2\csrc/u8g2_setup.c **** void u8g2_SetDisplayRotation(u8g2_t *u8g2, const u8g2_cb_t *u8g2_cb)
 111:..\u8g2\csrc/u8g2_setup.c **** {
 112:..\u8g2\csrc/u8g2_setup.c ****   u8g2->cb = u8g2_cb;
 113:..\u8g2\csrc/u8g2_setup.c ****   u8g2->cb->update_dimension(u8g2);
 114:..\u8g2\csrc/u8g2_setup.c ****   u8g2->cb->update_page_win(u8g2);
 115:..\u8g2\csrc/u8g2_setup.c **** }
 116:..\u8g2\csrc/u8g2_setup.c **** 
 117:..\u8g2\csrc/u8g2_setup.c **** /*============================================*/
 118:..\u8g2\csrc/u8g2_setup.c **** 
 119:..\u8g2\csrc/u8g2_setup.c **** void u8g2_SendF(u8g2_t * u8g2, const char *fmt, ...)
 120:..\u8g2\csrc/u8g2_setup.c **** {
 121:..\u8g2\csrc/u8g2_setup.c ****   va_list va;
 122:..\u8g2\csrc/u8g2_setup.c ****   va_start(va, fmt);
 123:..\u8g2\csrc/u8g2_setup.c ****   u8x8_cad_vsendf(u8g2_GetU8x8(u8g2), fmt, va);
 124:..\u8g2\csrc/u8g2_setup.c ****   va_end(va);
 125:..\u8g2\csrc/u8g2_setup.c **** }
 126:..\u8g2\csrc/u8g2_setup.c **** 
 127:..\u8g2\csrc/u8g2_setup.c **** 
 128:..\u8g2\csrc/u8g2_setup.c **** /*============================================*/
 129:..\u8g2\csrc/u8g2_setup.c **** /* 
 130:..\u8g2\csrc/u8g2_setup.c ****   update dimension: 
 131:..\u8g2\csrc/u8g2_setup.c ****   calculate the following variables:
 132:..\u8g2\csrc/u8g2_setup.c ****     u8g2_uint_t buf_x0;	left corner of the buffer
 133:..\u8g2\csrc/u8g2_setup.c ****     u8g2_uint_t buf_x1;	right corner of the buffer (excluded)
 134:..\u8g2\csrc/u8g2_setup.c ****     u8g2_uint_t buf_y0;
 135:..\u8g2\csrc/u8g2_setup.c ****     u8g2_uint_t buf_y1; 	
 136:..\u8g2\csrc/u8g2_setup.c **** */
 137:..\u8g2\csrc/u8g2_setup.c **** 
 138:..\u8g2\csrc/u8g2_setup.c **** static void u8g2_update_dimension_common(u8g2_t *u8g2)
 139:..\u8g2\csrc/u8g2_setup.c **** {
  27              		.loc 1 139 0
  28              		.cfi_startproc
  29              		@ args = 0, pretend = 0, frame = 0
  30              		@ frame_needed = 0, uses_anonymous_args = 0
  31              		@ link register save eliminated.
  32              	.LVL0:
ARM GAS  C:\Users\brian\AppData\Local\Temp\ccK1AeEG.s 			page 4


  33 0000 F0B4     		push	{r4, r5, r6, r7}
  34              		.cfi_def_cfa_offset 16
  35              		.cfi_offset 4, -16
  36              		.cfi_offset 5, -12
  37              		.cfi_offset 6, -8
  38              		.cfi_offset 7, -4
 140:..\u8g2\csrc/u8g2_setup.c ****   const u8x8_display_info_t *display_info = u8g2_GetU8x8(u8g2)->display_info;
  39              		.loc 1 140 0
  40 0002 0268     		ldr	r2, [r0]
  41              	.LVL1:
 141:..\u8g2\csrc/u8g2_setup.c ****   u8g2_uint_t t;
 142:..\u8g2\csrc/u8g2_setup.c ****   
 143:..\u8g2\csrc/u8g2_setup.c ****   t = u8g2->tile_buf_height;
  42              		.loc 1 143 0
  43 0004 90F83860 		ldrb	r6, [r0, #56]	@ zero_extendqisi2
  44 0008 B3B2     		uxth	r3, r6
  45              	.LVL2:
 144:..\u8g2\csrc/u8g2_setup.c ****   t *= 8;
  46              		.loc 1 144 0
  47 000a D900     		lsls	r1, r3, #3
  48              	.LVL3:
 145:..\u8g2\csrc/u8g2_setup.c ****   u8g2->pixel_buf_height = t;
  49              		.loc 1 145 0
  50 000c 8187     		strh	r1, [r0, #60]	@ movhi
 146:..\u8g2\csrc/u8g2_setup.c ****   
 147:..\u8g2\csrc/u8g2_setup.c ****   t = display_info->tile_width;
  51              		.loc 1 147 0
  52 000e 147C     		ldrb	r4, [r2, #16]	@ zero_extendqisi2
  53              	.LVL4:
 148:..\u8g2\csrc/u8g2_setup.c **** #ifndef U8G2_16BIT
 149:..\u8g2\csrc/u8g2_setup.c ****   if ( t >= 32 )
 150:..\u8g2\csrc/u8g2_setup.c ****     t = 31;
 151:..\u8g2\csrc/u8g2_setup.c **** #endif
 152:..\u8g2\csrc/u8g2_setup.c ****   t *= 8;
  54              		.loc 1 152 0
  55 0010 E400     		lsls	r4, r4, #3
  56              	.LVL5:
 153:..\u8g2\csrc/u8g2_setup.c ****   u8g2->pixel_buf_width = t;
  57              		.loc 1 153 0
  58 0012 4487     		strh	r4, [r0, #58]	@ movhi
 154:..\u8g2\csrc/u8g2_setup.c ****   
 155:..\u8g2\csrc/u8g2_setup.c ****   t = u8g2->tile_curr_row;
  59              		.loc 1 155 0
  60 0014 90F83910 		ldrb	r1, [r0, #57]	@ zero_extendqisi2
  61 0018 8FB2     		uxth	r7, r1
  62              	.LVL6:
 156:..\u8g2\csrc/u8g2_setup.c ****   t *= 8;
  63              		.loc 1 156 0
  64 001a FC00     		lsls	r4, r7, #3
  65              	.LVL7:
 157:..\u8g2\csrc/u8g2_setup.c ****   u8g2->pixel_curr_row = t;
  66              		.loc 1 157 0
  67 001c C487     		strh	r4, [r0, #62]	@ movhi
  68              	.LVL8:
 158:..\u8g2\csrc/u8g2_setup.c ****   
 159:..\u8g2\csrc/u8g2_setup.c ****   t = u8g2->tile_buf_height;
 160:..\u8g2\csrc/u8g2_setup.c ****   /* handle the case, where the buffer is larger than the (remaining) part of the display */
ARM GAS  C:\Users\brian\AppData\Local\Temp\ccK1AeEG.s 			page 5


 161:..\u8g2\csrc/u8g2_setup.c ****   if ( t + u8g2->tile_curr_row > display_info->tile_height )
  69              		.loc 1 161 0
  70 001e 3144     		add	r1, r1, r6
  71 0020 557C     		ldrb	r5, [r2, #17]	@ zero_extendqisi2
  72 0022 A942     		cmp	r1, r5
  73 0024 01DD     		ble	.L2
 162:..\u8g2\csrc/u8g2_setup.c ****     t = display_info->tile_height - u8g2->tile_curr_row;
  74              		.loc 1 162 0
  75 0026 EB1B     		subs	r3, r5, r7
  76              	.LVL9:
  77 0028 9BB2     		uxth	r3, r3
  78              	.LVL10:
  79              	.L2:
 163:..\u8g2\csrc/u8g2_setup.c ****   t *= 8;
  80              		.loc 1 163 0
  81 002a DB00     		lsls	r3, r3, #3
  82              	.LVL11:
  83 002c 9BB2     		uxth	r3, r3
  84              	.LVL12:
 164:..\u8g2\csrc/u8g2_setup.c ****   
 165:..\u8g2\csrc/u8g2_setup.c ****   u8g2->buf_y0 = u8g2->pixel_curr_row;   
  85              		.loc 1 165 0
  86 002e A0F84040 		strh	r4, [r0, #64]	@ movhi
 166:..\u8g2\csrc/u8g2_setup.c ****   u8g2->buf_y1 = u8g2->buf_y0;
 167:..\u8g2\csrc/u8g2_setup.c ****   u8g2->buf_y1 += t;
  87              		.loc 1 167 0
  88 0032 2344     		add	r3, r3, r4
  89              	.LVL13:
  90 0034 A0F84230 		strh	r3, [r0, #66]	@ movhi
 168:..\u8g2\csrc/u8g2_setup.c **** 
 169:..\u8g2\csrc/u8g2_setup.c ****   
 170:..\u8g2\csrc/u8g2_setup.c **** #ifdef U8G2_16BIT
 171:..\u8g2\csrc/u8g2_setup.c ****   u8g2->width = display_info->pixel_width;
  91              		.loc 1 171 0
  92 0038 938A     		ldrh	r3, [r2, #20]
  93 003a A0F84430 		strh	r3, [r0, #68]	@ movhi
 172:..\u8g2\csrc/u8g2_setup.c ****   u8g2->height = display_info->pixel_height;
  94              		.loc 1 172 0
  95 003e D38A     		ldrh	r3, [r2, #22]
  96 0040 A0F84630 		strh	r3, [r0, #70]	@ movhi
 173:..\u8g2\csrc/u8g2_setup.c **** #else
 174:..\u8g2\csrc/u8g2_setup.c ****   u8g2->width = 240;
 175:..\u8g2\csrc/u8g2_setup.c ****   if ( display_info->pixel_width <= 240 )
 176:..\u8g2\csrc/u8g2_setup.c ****     u8g2->width = display_info->pixel_width;
 177:..\u8g2\csrc/u8g2_setup.c ****   u8g2->height = display_info->pixel_height;
 178:..\u8g2\csrc/u8g2_setup.c **** #endif
 179:..\u8g2\csrc/u8g2_setup.c **** 
 180:..\u8g2\csrc/u8g2_setup.c **** }
  97              		.loc 1 180 0
  98 0044 F0BC     		pop	{r4, r5, r6, r7}
  99              		.cfi_restore 7
 100              		.cfi_restore 6
 101              		.cfi_restore 5
 102              		.cfi_restore 4
 103              		.cfi_def_cfa_offset 0
 104 0046 7047     		bx	lr
 105              		.cfi_endproc
ARM GAS  C:\Users\brian\AppData\Local\Temp\ccK1AeEG.s 			page 6


 106              	.LFE5:
 107              		.size	u8g2_update_dimension_common, .-u8g2_update_dimension_common
 108              		.section	.text.u8g2_update_dimension_r0,"ax",%progbits
 109              		.align	2
 110              		.global	u8g2_update_dimension_r0
 111              		.thumb
 112              		.thumb_func
 113              		.type	u8g2_update_dimension_r0, %function
 114              	u8g2_update_dimension_r0:
 115              	.LFB7:
 181:..\u8g2\csrc/u8g2_setup.c **** 
 182:..\u8g2\csrc/u8g2_setup.c **** /*==========================================================*/
 183:..\u8g2\csrc/u8g2_setup.c **** /* apply clip window */
 184:..\u8g2\csrc/u8g2_setup.c **** 
 185:..\u8g2\csrc/u8g2_setup.c **** #ifdef U8G2_WITH_CLIP_WINDOW_SUPPORT
 186:..\u8g2\csrc/u8g2_setup.c **** static void u8g2_apply_clip_window(u8g2_t *u8g2)
 187:..\u8g2\csrc/u8g2_setup.c **** {
 188:..\u8g2\csrc/u8g2_setup.c ****   /* check aganst the current user_??? window */
 189:..\u8g2\csrc/u8g2_setup.c ****   if ( u8g2_IsIntersection(u8g2, u8g2->clip_x0, u8g2->clip_y0, u8g2->clip_x1, u8g2->clip_y1) == 0 )
 190:..\u8g2\csrc/u8g2_setup.c ****   {
 191:..\u8g2\csrc/u8g2_setup.c ****     u8g2->is_page_clip_window_intersection = 0;
 192:..\u8g2\csrc/u8g2_setup.c ****   }
 193:..\u8g2\csrc/u8g2_setup.c ****   else
 194:..\u8g2\csrc/u8g2_setup.c ****   {
 195:..\u8g2\csrc/u8g2_setup.c ****     u8g2->is_page_clip_window_intersection = 1;
 196:..\u8g2\csrc/u8g2_setup.c **** 
 197:..\u8g2\csrc/u8g2_setup.c ****     if ( u8g2->user_x0 < u8g2->clip_x0 )
 198:..\u8g2\csrc/u8g2_setup.c ****       u8g2->user_x0 = u8g2->clip_x0;
 199:..\u8g2\csrc/u8g2_setup.c ****     if ( u8g2->user_x1 > u8g2->clip_x1 )
 200:..\u8g2\csrc/u8g2_setup.c ****       u8g2->user_x1 = u8g2->clip_x1;
 201:..\u8g2\csrc/u8g2_setup.c ****     if ( u8g2->user_y0 < u8g2->clip_y0 )
 202:..\u8g2\csrc/u8g2_setup.c ****       u8g2->user_y0 = u8g2->clip_y0;
 203:..\u8g2\csrc/u8g2_setup.c ****     if ( u8g2->user_y1 > u8g2->clip_y1 )
 204:..\u8g2\csrc/u8g2_setup.c ****       u8g2->user_y1 = u8g2->clip_y1;
 205:..\u8g2\csrc/u8g2_setup.c ****   }
 206:..\u8g2\csrc/u8g2_setup.c **** }
 207:..\u8g2\csrc/u8g2_setup.c **** #endif /* U8G2_WITH_CLIP_WINDOW_SUPPORT */
 208:..\u8g2\csrc/u8g2_setup.c **** 
 209:..\u8g2\csrc/u8g2_setup.c **** /*==========================================================*/
 210:..\u8g2\csrc/u8g2_setup.c **** 
 211:..\u8g2\csrc/u8g2_setup.c **** 
 212:..\u8g2\csrc/u8g2_setup.c **** void u8g2_update_dimension_r0(u8g2_t *u8g2)
 213:..\u8g2\csrc/u8g2_setup.c **** {
 116              		.loc 1 213 0
 117              		.cfi_startproc
 118              		@ args = 0, pretend = 0, frame = 0
 119              		@ frame_needed = 0, uses_anonymous_args = 0
 120              	.LVL14:
 121 0000 08B5     		push	{r3, lr}
 122              		.cfi_def_cfa_offset 8
 123              		.cfi_offset 3, -8
 124              		.cfi_offset 14, -4
 214:..\u8g2\csrc/u8g2_setup.c ****   u8g2_update_dimension_common(u8g2);  
 125              		.loc 1 214 0
 126 0002 FFF7FEFF 		bl	u8g2_update_dimension_common
 127              	.LVL15:
 128 0006 08BD     		pop	{r3, pc}
ARM GAS  C:\Users\brian\AppData\Local\Temp\ccK1AeEG.s 			page 7


 129              		.cfi_endproc
 130              	.LFE7:
 131              		.size	u8g2_update_dimension_r0, .-u8g2_update_dimension_r0
 132              		.section	.text.u8g2_update_dimension_r1,"ax",%progbits
 133              		.align	2
 134              		.global	u8g2_update_dimension_r1
 135              		.thumb
 136              		.thumb_func
 137              		.type	u8g2_update_dimension_r1, %function
 138              	u8g2_update_dimension_r1:
 139              	.LFB9:
 215:..\u8g2\csrc/u8g2_setup.c **** }
 216:..\u8g2\csrc/u8g2_setup.c **** 
 217:..\u8g2\csrc/u8g2_setup.c **** void u8g2_update_page_win_r0(u8g2_t *u8g2)
 218:..\u8g2\csrc/u8g2_setup.c **** {
 219:..\u8g2\csrc/u8g2_setup.c ****   u8g2->user_x0 = 0;
 220:..\u8g2\csrc/u8g2_setup.c ****   u8g2->user_x1 = u8g2->width;			/* pixel_buf_width replaced with width */
 221:..\u8g2\csrc/u8g2_setup.c ****   
 222:..\u8g2\csrc/u8g2_setup.c ****   u8g2->user_y0 = u8g2->buf_y0;
 223:..\u8g2\csrc/u8g2_setup.c ****   u8g2->user_y1 = u8g2->buf_y1;
 224:..\u8g2\csrc/u8g2_setup.c ****   
 225:..\u8g2\csrc/u8g2_setup.c **** #ifdef U8G2_WITH_CLIP_WINDOW_SUPPORT
 226:..\u8g2\csrc/u8g2_setup.c ****   u8g2_apply_clip_window(u8g2);
 227:..\u8g2\csrc/u8g2_setup.c **** #endif /* U8G2_WITH_CLIP_WINDOW_SUPPORT */
 228:..\u8g2\csrc/u8g2_setup.c **** }
 229:..\u8g2\csrc/u8g2_setup.c **** 
 230:..\u8g2\csrc/u8g2_setup.c **** 
 231:..\u8g2\csrc/u8g2_setup.c **** void u8g2_update_dimension_r1(u8g2_t *u8g2)
 232:..\u8g2\csrc/u8g2_setup.c **** {
 140              		.loc 1 232 0
 141              		.cfi_startproc
 142              		@ args = 0, pretend = 0, frame = 0
 143              		@ frame_needed = 0, uses_anonymous_args = 0
 144              	.LVL16:
 145 0000 10B5     		push	{r4, lr}
 146              		.cfi_def_cfa_offset 8
 147              		.cfi_offset 4, -8
 148              		.cfi_offset 14, -4
 149 0002 0446     		mov	r4, r0
 233:..\u8g2\csrc/u8g2_setup.c ****   u8g2_update_dimension_common(u8g2);
 150              		.loc 1 233 0
 151 0004 FFF7FEFF 		bl	u8g2_update_dimension_common
 152              	.LVL17:
 234:..\u8g2\csrc/u8g2_setup.c ****   
 235:..\u8g2\csrc/u8g2_setup.c ****   u8g2->height = u8g2_GetU8x8(u8g2)->display_info->pixel_width;
 153              		.loc 1 235 0
 154 0008 2368     		ldr	r3, [r4]
 155 000a 9A8A     		ldrh	r2, [r3, #20]
 156 000c A4F84620 		strh	r2, [r4, #70]	@ movhi
 236:..\u8g2\csrc/u8g2_setup.c ****   u8g2->width = u8g2_GetU8x8(u8g2)->display_info->pixel_height;
 157              		.loc 1 236 0
 158 0010 DB8A     		ldrh	r3, [r3, #22]
 159 0012 A4F84430 		strh	r3, [r4, #68]	@ movhi
 160 0016 10BD     		pop	{r4, pc}
 161              		.cfi_endproc
 162              	.LFE9:
 163              		.size	u8g2_update_dimension_r1, .-u8g2_update_dimension_r1
ARM GAS  C:\Users\brian\AppData\Local\Temp\ccK1AeEG.s 			page 8


 164              		.section	.text.u8g2_update_dimension_r2,"ax",%progbits
 165              		.align	2
 166              		.global	u8g2_update_dimension_r2
 167              		.thumb
 168              		.thumb_func
 169              		.type	u8g2_update_dimension_r2, %function
 170              	u8g2_update_dimension_r2:
 171              	.LFB11:
 237:..\u8g2\csrc/u8g2_setup.c ****   
 238:..\u8g2\csrc/u8g2_setup.c **** }
 239:..\u8g2\csrc/u8g2_setup.c **** 
 240:..\u8g2\csrc/u8g2_setup.c **** void u8g2_update_page_win_r1(u8g2_t *u8g2)
 241:..\u8g2\csrc/u8g2_setup.c **** {
 242:..\u8g2\csrc/u8g2_setup.c ****   u8g2->user_x0 = u8g2->buf_y0;
 243:..\u8g2\csrc/u8g2_setup.c ****   u8g2->user_x1 = u8g2->buf_y1;
 244:..\u8g2\csrc/u8g2_setup.c ****   
 245:..\u8g2\csrc/u8g2_setup.c ****   u8g2->user_y0 = 0;
 246:..\u8g2\csrc/u8g2_setup.c ****   u8g2->user_y1 = u8g2->height;	/* pixel_buf_width replaced with height (which is the real pixel wi
 247:..\u8g2\csrc/u8g2_setup.c ****   
 248:..\u8g2\csrc/u8g2_setup.c **** #ifdef U8G2_WITH_CLIP_WINDOW_SUPPORT
 249:..\u8g2\csrc/u8g2_setup.c ****   u8g2_apply_clip_window(u8g2);
 250:..\u8g2\csrc/u8g2_setup.c **** #endif /* U8G2_WITH_CLIP_WINDOW_SUPPORT */
 251:..\u8g2\csrc/u8g2_setup.c **** }
 252:..\u8g2\csrc/u8g2_setup.c **** 
 253:..\u8g2\csrc/u8g2_setup.c **** void u8g2_update_dimension_r2(u8g2_t *u8g2)
 254:..\u8g2\csrc/u8g2_setup.c **** {
 172              		.loc 1 254 0
 173              		.cfi_startproc
 174              		@ args = 0, pretend = 0, frame = 0
 175              		@ frame_needed = 0, uses_anonymous_args = 0
 176              	.LVL18:
 177 0000 08B5     		push	{r3, lr}
 178              		.cfi_def_cfa_offset 8
 179              		.cfi_offset 3, -8
 180              		.cfi_offset 14, -4
 255:..\u8g2\csrc/u8g2_setup.c ****   u8g2_update_dimension_common(u8g2);
 181              		.loc 1 255 0
 182 0002 FFF7FEFF 		bl	u8g2_update_dimension_common
 183              	.LVL19:
 184 0006 08BD     		pop	{r3, pc}
 185              		.cfi_endproc
 186              	.LFE11:
 187              		.size	u8g2_update_dimension_r2, .-u8g2_update_dimension_r2
 188              		.section	.text.u8g2_update_dimension_r3,"ax",%progbits
 189              		.align	2
 190              		.global	u8g2_update_dimension_r3
 191              		.thumb
 192              		.thumb_func
 193              		.type	u8g2_update_dimension_r3, %function
 194              	u8g2_update_dimension_r3:
 195              	.LFB13:
 256:..\u8g2\csrc/u8g2_setup.c **** }
 257:..\u8g2\csrc/u8g2_setup.c **** 
 258:..\u8g2\csrc/u8g2_setup.c **** void u8g2_update_page_win_r2(u8g2_t *u8g2)
 259:..\u8g2\csrc/u8g2_setup.c **** {
 260:..\u8g2\csrc/u8g2_setup.c ****   u8g2->user_x0 = 0;
 261:..\u8g2\csrc/u8g2_setup.c ****   u8g2->user_x1 = u8g2->width;	/* pixel_buf_width replaced with width */
ARM GAS  C:\Users\brian\AppData\Local\Temp\ccK1AeEG.s 			page 9


 262:..\u8g2\csrc/u8g2_setup.c ****   
 263:..\u8g2\csrc/u8g2_setup.c ****   /* there are ases where the height is not a multiple of 8. */
 264:..\u8g2\csrc/u8g2_setup.c ****   /* in such a case u8g2->buf_y1 might be heigher than u8g2->height */
 265:..\u8g2\csrc/u8g2_setup.c ****   u8g2->user_y0 = 0;
 266:..\u8g2\csrc/u8g2_setup.c ****   if ( u8g2->height >= u8g2->buf_y1 )
 267:..\u8g2\csrc/u8g2_setup.c ****     u8g2->user_y0 = u8g2->height - u8g2->buf_y1;
 268:..\u8g2\csrc/u8g2_setup.c ****   u8g2->user_y1 = u8g2->height - u8g2->buf_y0;
 269:..\u8g2\csrc/u8g2_setup.c **** 
 270:..\u8g2\csrc/u8g2_setup.c **** #ifdef U8G2_WITH_CLIP_WINDOW_SUPPORT
 271:..\u8g2\csrc/u8g2_setup.c ****   u8g2_apply_clip_window(u8g2);
 272:..\u8g2\csrc/u8g2_setup.c **** #endif /* U8G2_WITH_CLIP_WINDOW_SUPPORT */
 273:..\u8g2\csrc/u8g2_setup.c **** }
 274:..\u8g2\csrc/u8g2_setup.c **** 
 275:..\u8g2\csrc/u8g2_setup.c **** 
 276:..\u8g2\csrc/u8g2_setup.c **** void u8g2_update_dimension_r3(u8g2_t *u8g2)
 277:..\u8g2\csrc/u8g2_setup.c **** {
 196              		.loc 1 277 0
 197              		.cfi_startproc
 198              		@ args = 0, pretend = 0, frame = 0
 199              		@ frame_needed = 0, uses_anonymous_args = 0
 200              	.LVL20:
 201 0000 10B5     		push	{r4, lr}
 202              		.cfi_def_cfa_offset 8
 203              		.cfi_offset 4, -8
 204              		.cfi_offset 14, -4
 205 0002 0446     		mov	r4, r0
 278:..\u8g2\csrc/u8g2_setup.c ****   u8g2_update_dimension_common(u8g2);
 206              		.loc 1 278 0
 207 0004 FFF7FEFF 		bl	u8g2_update_dimension_common
 208              	.LVL21:
 279:..\u8g2\csrc/u8g2_setup.c ****   
 280:..\u8g2\csrc/u8g2_setup.c ****   u8g2->height = u8g2_GetU8x8(u8g2)->display_info->pixel_width;
 209              		.loc 1 280 0
 210 0008 2368     		ldr	r3, [r4]
 211 000a 9A8A     		ldrh	r2, [r3, #20]
 212 000c A4F84620 		strh	r2, [r4, #70]	@ movhi
 281:..\u8g2\csrc/u8g2_setup.c ****   u8g2->width = u8g2_GetU8x8(u8g2)->display_info->pixel_height;
 213              		.loc 1 281 0
 214 0010 DB8A     		ldrh	r3, [r3, #22]
 215 0012 A4F84430 		strh	r3, [r4, #68]	@ movhi
 216 0016 10BD     		pop	{r4, pc}
 217              		.cfi_endproc
 218              	.LFE13:
 219              		.size	u8g2_update_dimension_r3, .-u8g2_update_dimension_r3
 220              		.section	.text.u8g2_apply_clip_window,"ax",%progbits
 221              		.align	2
 222              		.thumb
 223              		.thumb_func
 224              		.type	u8g2_apply_clip_window, %function
 225              	u8g2_apply_clip_window:
 226              	.LFB6:
 187:..\u8g2\csrc/u8g2_setup.c ****   /* check aganst the current user_??? window */
 227              		.loc 1 187 0
 228              		.cfi_startproc
 229              		@ args = 0, pretend = 0, frame = 0
 230              		@ frame_needed = 0, uses_anonymous_args = 0
 231              	.LVL22:
ARM GAS  C:\Users\brian\AppData\Local\Temp\ccK1AeEG.s 			page 10


 232 0000 30B5     		push	{r4, r5, lr}
 233              		.cfi_def_cfa_offset 12
 234              		.cfi_offset 4, -12
 235              		.cfi_offset 5, -8
 236              		.cfi_offset 14, -4
 237 0002 83B0     		sub	sp, sp, #12
 238              		.cfi_def_cfa_offset 24
 239 0004 0446     		mov	r4, r0
 189:..\u8g2\csrc/u8g2_setup.c ****   {
 240              		.loc 1 189 0
 241 0006 B0F85230 		ldrh	r3, [r0, #82]
 242 000a B0F85420 		ldrh	r2, [r0, #84]
 243 000e B0F85010 		ldrh	r1, [r0, #80]
 244 0012 B0F85650 		ldrh	r5, [r0, #86]
 245 0016 0095     		str	r5, [sp]
 246 0018 FFF7FEFF 		bl	u8g2_IsIntersection
 247              	.LVL23:
 248 001c 18B9     		cbnz	r0, .L13
 191:..\u8g2\csrc/u8g2_setup.c ****   }
 249              		.loc 1 191 0
 250 001e 0023     		movs	r3, #0
 251 0020 84F88C30 		strb	r3, [r4, #140]
 252 0024 22E0     		b	.L12
 253              	.L13:
 195:..\u8g2\csrc/u8g2_setup.c **** 
 254              		.loc 1 195 0
 255 0026 0123     		movs	r3, #1
 256 0028 84F88C30 		strb	r3, [r4, #140]
 197:..\u8g2\csrc/u8g2_setup.c ****       u8g2->user_x0 = u8g2->clip_x0;
 257              		.loc 1 197 0
 258 002c B4F84820 		ldrh	r2, [r4, #72]
 259 0030 B4F85030 		ldrh	r3, [r4, #80]
 260 0034 9A42     		cmp	r2, r3
 261 0036 01D2     		bcs	.L15
 198:..\u8g2\csrc/u8g2_setup.c ****     if ( u8g2->user_x1 > u8g2->clip_x1 )
 262              		.loc 1 198 0
 263 0038 A4F84830 		strh	r3, [r4, #72]	@ movhi
 264              	.L15:
 199:..\u8g2\csrc/u8g2_setup.c ****       u8g2->user_x1 = u8g2->clip_x1;
 265              		.loc 1 199 0
 266 003c B4F84A20 		ldrh	r2, [r4, #74]
 267 0040 B4F85230 		ldrh	r3, [r4, #82]
 268 0044 9A42     		cmp	r2, r3
 269 0046 01D9     		bls	.L16
 200:..\u8g2\csrc/u8g2_setup.c ****     if ( u8g2->user_y0 < u8g2->clip_y0 )
 270              		.loc 1 200 0
 271 0048 A4F84A30 		strh	r3, [r4, #74]	@ movhi
 272              	.L16:
 201:..\u8g2\csrc/u8g2_setup.c ****       u8g2->user_y0 = u8g2->clip_y0;
 273              		.loc 1 201 0
 274 004c B4F84C20 		ldrh	r2, [r4, #76]
 275 0050 B4F85430 		ldrh	r3, [r4, #84]
 276 0054 9A42     		cmp	r2, r3
 277 0056 01D2     		bcs	.L17
 202:..\u8g2\csrc/u8g2_setup.c ****     if ( u8g2->user_y1 > u8g2->clip_y1 )
 278              		.loc 1 202 0
 279 0058 A4F84C30 		strh	r3, [r4, #76]	@ movhi
ARM GAS  C:\Users\brian\AppData\Local\Temp\ccK1AeEG.s 			page 11


 280              	.L17:
 203:..\u8g2\csrc/u8g2_setup.c ****       u8g2->user_y1 = u8g2->clip_y1;
 281              		.loc 1 203 0
 282 005c B4F84E20 		ldrh	r2, [r4, #78]
 283 0060 B4F85630 		ldrh	r3, [r4, #86]
 284 0064 9A42     		cmp	r2, r3
 285 0066 01D9     		bls	.L12
 204:..\u8g2\csrc/u8g2_setup.c ****   }
 286              		.loc 1 204 0
 287 0068 A4F84E30 		strh	r3, [r4, #78]	@ movhi
 288              	.L12:
 206:..\u8g2\csrc/u8g2_setup.c **** #endif /* U8G2_WITH_CLIP_WINDOW_SUPPORT */
 289              		.loc 1 206 0
 290 006c 03B0     		add	sp, sp, #12
 291              		.cfi_def_cfa_offset 12
 292              		@ sp needed
 293 006e 30BD     		pop	{r4, r5, pc}
 294              		.cfi_endproc
 295              	.LFE6:
 296              		.size	u8g2_apply_clip_window, .-u8g2_apply_clip_window
 297              		.section	.text.u8g2_update_page_win_r0,"ax",%progbits
 298              		.align	2
 299              		.global	u8g2_update_page_win_r0
 300              		.thumb
 301              		.thumb_func
 302              		.type	u8g2_update_page_win_r0, %function
 303              	u8g2_update_page_win_r0:
 304              	.LFB8:
 218:..\u8g2\csrc/u8g2_setup.c ****   u8g2->user_x0 = 0;
 305              		.loc 1 218 0
 306              		.cfi_startproc
 307              		@ args = 0, pretend = 0, frame = 0
 308              		@ frame_needed = 0, uses_anonymous_args = 0
 309              	.LVL24:
 310 0000 08B5     		push	{r3, lr}
 311              		.cfi_def_cfa_offset 8
 312              		.cfi_offset 3, -8
 313              		.cfi_offset 14, -4
 219:..\u8g2\csrc/u8g2_setup.c ****   u8g2->user_x1 = u8g2->width;			/* pixel_buf_width replaced with width */
 314              		.loc 1 219 0
 315 0002 0022     		movs	r2, #0
 316 0004 A0F84820 		strh	r2, [r0, #72]	@ movhi
 220:..\u8g2\csrc/u8g2_setup.c ****   
 317              		.loc 1 220 0
 318 0008 B0F84420 		ldrh	r2, [r0, #68]
 319 000c A0F84A20 		strh	r2, [r0, #74]	@ movhi
 222:..\u8g2\csrc/u8g2_setup.c ****   u8g2->user_y1 = u8g2->buf_y1;
 320              		.loc 1 222 0
 321 0010 B0F84020 		ldrh	r2, [r0, #64]
 322 0014 A0F84C20 		strh	r2, [r0, #76]	@ movhi
 223:..\u8g2\csrc/u8g2_setup.c ****   
 323              		.loc 1 223 0
 324 0018 B0F84220 		ldrh	r2, [r0, #66]
 325 001c A0F84E20 		strh	r2, [r0, #78]	@ movhi
 226:..\u8g2\csrc/u8g2_setup.c **** #endif /* U8G2_WITH_CLIP_WINDOW_SUPPORT */
 326              		.loc 1 226 0
 327 0020 FFF7FEFF 		bl	u8g2_apply_clip_window
ARM GAS  C:\Users\brian\AppData\Local\Temp\ccK1AeEG.s 			page 12


 328              	.LVL25:
 329 0024 08BD     		pop	{r3, pc}
 330              		.cfi_endproc
 331              	.LFE8:
 332              		.size	u8g2_update_page_win_r0, .-u8g2_update_page_win_r0
 333 0026 00BF     		.section	.text.u8g2_update_page_win_r1,"ax",%progbits
 334              		.align	2
 335              		.global	u8g2_update_page_win_r1
 336              		.thumb
 337              		.thumb_func
 338              		.type	u8g2_update_page_win_r1, %function
 339              	u8g2_update_page_win_r1:
 340              	.LFB10:
 241:..\u8g2\csrc/u8g2_setup.c ****   u8g2->user_x0 = u8g2->buf_y0;
 341              		.loc 1 241 0
 342              		.cfi_startproc
 343              		@ args = 0, pretend = 0, frame = 0
 344              		@ frame_needed = 0, uses_anonymous_args = 0
 345              	.LVL26:
 346 0000 08B5     		push	{r3, lr}
 347              		.cfi_def_cfa_offset 8
 348              		.cfi_offset 3, -8
 349              		.cfi_offset 14, -4
 242:..\u8g2\csrc/u8g2_setup.c ****   u8g2->user_x1 = u8g2->buf_y1;
 350              		.loc 1 242 0
 351 0002 B0F84020 		ldrh	r2, [r0, #64]
 352 0006 A0F84820 		strh	r2, [r0, #72]	@ movhi
 243:..\u8g2\csrc/u8g2_setup.c ****   
 353              		.loc 1 243 0
 354 000a B0F84220 		ldrh	r2, [r0, #66]
 355 000e A0F84A20 		strh	r2, [r0, #74]	@ movhi
 245:..\u8g2\csrc/u8g2_setup.c ****   u8g2->user_y1 = u8g2->height;	/* pixel_buf_width replaced with height (which is the real pixel wi
 356              		.loc 1 245 0
 357 0012 0022     		movs	r2, #0
 358 0014 A0F84C20 		strh	r2, [r0, #76]	@ movhi
 246:..\u8g2\csrc/u8g2_setup.c ****   
 359              		.loc 1 246 0
 360 0018 B0F84620 		ldrh	r2, [r0, #70]
 361 001c A0F84E20 		strh	r2, [r0, #78]	@ movhi
 249:..\u8g2\csrc/u8g2_setup.c **** #endif /* U8G2_WITH_CLIP_WINDOW_SUPPORT */
 362              		.loc 1 249 0
 363 0020 FFF7FEFF 		bl	u8g2_apply_clip_window
 364              	.LVL27:
 365 0024 08BD     		pop	{r3, pc}
 366              		.cfi_endproc
 367              	.LFE10:
 368              		.size	u8g2_update_page_win_r1, .-u8g2_update_page_win_r1
 369 0026 00BF     		.section	.text.u8g2_update_page_win_r2,"ax",%progbits
 370              		.align	2
 371              		.global	u8g2_update_page_win_r2
 372              		.thumb
 373              		.thumb_func
 374              		.type	u8g2_update_page_win_r2, %function
 375              	u8g2_update_page_win_r2:
 376              	.LFB12:
 259:..\u8g2\csrc/u8g2_setup.c ****   u8g2->user_x0 = 0;
 377              		.loc 1 259 0
ARM GAS  C:\Users\brian\AppData\Local\Temp\ccK1AeEG.s 			page 13


 378              		.cfi_startproc
 379              		@ args = 0, pretend = 0, frame = 0
 380              		@ frame_needed = 0, uses_anonymous_args = 0
 381              	.LVL28:
 382 0000 08B5     		push	{r3, lr}
 383              		.cfi_def_cfa_offset 8
 384              		.cfi_offset 3, -8
 385              		.cfi_offset 14, -4
 260:..\u8g2\csrc/u8g2_setup.c ****   u8g2->user_x1 = u8g2->width;	/* pixel_buf_width replaced with width */
 386              		.loc 1 260 0
 387 0002 0023     		movs	r3, #0
 388 0004 A0F84830 		strh	r3, [r0, #72]	@ movhi
 261:..\u8g2\csrc/u8g2_setup.c ****   
 389              		.loc 1 261 0
 390 0008 B0F84420 		ldrh	r2, [r0, #68]
 391 000c A0F84A20 		strh	r2, [r0, #74]	@ movhi
 265:..\u8g2\csrc/u8g2_setup.c ****   if ( u8g2->height >= u8g2->buf_y1 )
 392              		.loc 1 265 0
 393 0010 A0F84C30 		strh	r3, [r0, #76]	@ movhi
 266:..\u8g2\csrc/u8g2_setup.c ****     u8g2->user_y0 = u8g2->height - u8g2->buf_y1;
 394              		.loc 1 266 0
 395 0014 B0F84630 		ldrh	r3, [r0, #70]
 396 0018 B0F84220 		ldrh	r2, [r0, #66]
 397 001c 9342     		cmp	r3, r2
 398 001e 02D3     		bcc	.L24
 267:..\u8g2\csrc/u8g2_setup.c ****   u8g2->user_y1 = u8g2->height - u8g2->buf_y0;
 399              		.loc 1 267 0
 400 0020 9A1A     		subs	r2, r3, r2
 401 0022 A0F84C20 		strh	r2, [r0, #76]	@ movhi
 402              	.L24:
 268:..\u8g2\csrc/u8g2_setup.c **** 
 403              		.loc 1 268 0
 404 0026 B0F84020 		ldrh	r2, [r0, #64]
 405 002a 9B1A     		subs	r3, r3, r2
 406 002c A0F84E30 		strh	r3, [r0, #78]	@ movhi
 271:..\u8g2\csrc/u8g2_setup.c **** #endif /* U8G2_WITH_CLIP_WINDOW_SUPPORT */
 407              		.loc 1 271 0
 408 0030 FFF7FEFF 		bl	u8g2_apply_clip_window
 409              	.LVL29:
 410 0034 08BD     		pop	{r3, pc}
 411              		.cfi_endproc
 412              	.LFE12:
 413              		.size	u8g2_update_page_win_r2, .-u8g2_update_page_win_r2
 414 0036 00BF     		.section	.text.u8g2_update_page_win_r3,"ax",%progbits
 415              		.align	2
 416              		.global	u8g2_update_page_win_r3
 417              		.thumb
 418              		.thumb_func
 419              		.type	u8g2_update_page_win_r3, %function
 420              	u8g2_update_page_win_r3:
 421              	.LFB14:
 282:..\u8g2\csrc/u8g2_setup.c **** 
 283:..\u8g2\csrc/u8g2_setup.c **** }
 284:..\u8g2\csrc/u8g2_setup.c **** 
 285:..\u8g2\csrc/u8g2_setup.c **** void u8g2_update_page_win_r3(u8g2_t *u8g2)
 286:..\u8g2\csrc/u8g2_setup.c **** {
 422              		.loc 1 286 0
ARM GAS  C:\Users\brian\AppData\Local\Temp\ccK1AeEG.s 			page 14


 423              		.cfi_startproc
 424              		@ args = 0, pretend = 0, frame = 0
 425              		@ frame_needed = 0, uses_anonymous_args = 0
 426              	.LVL30:
 427 0000 08B5     		push	{r3, lr}
 428              		.cfi_def_cfa_offset 8
 429              		.cfi_offset 3, -8
 430              		.cfi_offset 14, -4
 287:..\u8g2\csrc/u8g2_setup.c ****   /* there are ases where the height is not a multiple of 8. */
 288:..\u8g2\csrc/u8g2_setup.c ****   /* in such a case u8g2->buf_y1 might be heigher than u8g2->width */
 289:..\u8g2\csrc/u8g2_setup.c ****   u8g2->user_x0 = 0;
 431              		.loc 1 289 0
 432 0002 0023     		movs	r3, #0
 433 0004 A0F84830 		strh	r3, [r0, #72]	@ movhi
 290:..\u8g2\csrc/u8g2_setup.c ****   if ( u8g2->width >= u8g2->buf_y1 )
 434              		.loc 1 290 0
 435 0008 B0F84430 		ldrh	r3, [r0, #68]
 436 000c B0F84220 		ldrh	r2, [r0, #66]
 437 0010 9342     		cmp	r3, r2
 438 0012 02D3     		bcc	.L27
 291:..\u8g2\csrc/u8g2_setup.c ****     u8g2->user_x0 = u8g2->width - u8g2->buf_y1;
 439              		.loc 1 291 0
 440 0014 9A1A     		subs	r2, r3, r2
 441 0016 A0F84820 		strh	r2, [r0, #72]	@ movhi
 442              	.L27:
 292:..\u8g2\csrc/u8g2_setup.c ****   u8g2->user_x1 = u8g2->width - u8g2->buf_y0;
 443              		.loc 1 292 0
 444 001a B0F84020 		ldrh	r2, [r0, #64]
 445 001e 9B1A     		subs	r3, r3, r2
 446 0020 A0F84A30 		strh	r3, [r0, #74]	@ movhi
 293:..\u8g2\csrc/u8g2_setup.c ****   
 294:..\u8g2\csrc/u8g2_setup.c ****   u8g2->user_y0 = 0;
 447              		.loc 1 294 0
 448 0024 0023     		movs	r3, #0
 449 0026 A0F84C30 		strh	r3, [r0, #76]	@ movhi
 295:..\u8g2\csrc/u8g2_setup.c ****   u8g2->user_y1 = u8g2->height;	/* pixel_buf_width replaced with height (pixel_width) */
 450              		.loc 1 295 0
 451 002a B0F84630 		ldrh	r3, [r0, #70]
 452 002e A0F84E30 		strh	r3, [r0, #78]	@ movhi
 296:..\u8g2\csrc/u8g2_setup.c **** 
 297:..\u8g2\csrc/u8g2_setup.c **** #ifdef U8G2_WITH_CLIP_WINDOW_SUPPORT
 298:..\u8g2\csrc/u8g2_setup.c ****   u8g2_apply_clip_window(u8g2);
 453              		.loc 1 298 0
 454 0032 FFF7FEFF 		bl	u8g2_apply_clip_window
 455              	.LVL31:
 456 0036 08BD     		pop	{r3, pc}
 457              		.cfi_endproc
 458              	.LFE14:
 459              		.size	u8g2_update_page_win_r3, .-u8g2_update_page_win_r3
 460              		.section	.text.u8g2_draw_l90_r0,"ax",%progbits
 461              		.align	2
 462              		.global	u8g2_draw_l90_r0
 463              		.thumb
 464              		.thumb_func
 465              		.type	u8g2_draw_l90_r0, %function
 466              	u8g2_draw_l90_r0:
 467              	.LFB15:
ARM GAS  C:\Users\brian\AppData\Local\Temp\ccK1AeEG.s 			page 15


 299:..\u8g2\csrc/u8g2_setup.c **** #endif /* U8G2_WITH_CLIP_WINDOW_SUPPORT */
 300:..\u8g2\csrc/u8g2_setup.c **** }
 301:..\u8g2\csrc/u8g2_setup.c **** 
 302:..\u8g2\csrc/u8g2_setup.c **** 
 303:..\u8g2\csrc/u8g2_setup.c **** /*============================================*/
 304:..\u8g2\csrc/u8g2_setup.c **** extern void u8g2_draw_hv_line_2dir(u8g2_t *u8g2, u8g2_uint_t x, u8g2_uint_t y, u8g2_uint_t len, uin
 305:..\u8g2\csrc/u8g2_setup.c **** 
 306:..\u8g2\csrc/u8g2_setup.c **** 
 307:..\u8g2\csrc/u8g2_setup.c **** void u8g2_draw_l90_r0(u8g2_t *u8g2, u8g2_uint_t x, u8g2_uint_t y, u8g2_uint_t len, uint8_t dir)
 308:..\u8g2\csrc/u8g2_setup.c **** {
 468              		.loc 1 308 0
 469              		.cfi_startproc
 470              		@ args = 4, pretend = 0, frame = 0
 471              		@ frame_needed = 0, uses_anonymous_args = 0
 472              	.LVL32:
 473 0000 10B5     		push	{r4, lr}
 474              		.cfi_def_cfa_offset 8
 475              		.cfi_offset 4, -8
 476              		.cfi_offset 14, -4
 477 0002 82B0     		sub	sp, sp, #8
 478              		.cfi_def_cfa_offset 16
 309:..\u8g2\csrc/u8g2_setup.c **** #ifdef __unix
 310:..\u8g2\csrc/u8g2_setup.c ****   assert( dir <= 1 );
 311:..\u8g2\csrc/u8g2_setup.c **** #endif
 312:..\u8g2\csrc/u8g2_setup.c ****   u8g2_draw_hv_line_2dir(u8g2, x, y, len, dir);
 479              		.loc 1 312 0
 480 0004 9DF81040 		ldrb	r4, [sp, #16]	@ zero_extendqisi2
 481 0008 0094     		str	r4, [sp]
 482 000a FFF7FEFF 		bl	u8g2_draw_hv_line_2dir
 483              	.LVL33:
 313:..\u8g2\csrc/u8g2_setup.c **** }
 484              		.loc 1 313 0
 485 000e 02B0     		add	sp, sp, #8
 486              		.cfi_def_cfa_offset 8
 487              		@ sp needed
 488 0010 10BD     		pop	{r4, pc}
 489              		.cfi_endproc
 490              	.LFE15:
 491              		.size	u8g2_draw_l90_r0, .-u8g2_draw_l90_r0
 492 0012 00BF     		.section	.text.u8g2_draw_l90_mirrorr_r0,"ax",%progbits
 493              		.align	2
 494              		.global	u8g2_draw_l90_mirrorr_r0
 495              		.thumb
 496              		.thumb_func
 497              		.type	u8g2_draw_l90_mirrorr_r0, %function
 498              	u8g2_draw_l90_mirrorr_r0:
 499              	.LFB16:
 314:..\u8g2\csrc/u8g2_setup.c **** 
 315:..\u8g2\csrc/u8g2_setup.c **** void u8g2_draw_l90_mirrorr_r0(u8g2_t *u8g2, u8g2_uint_t x, u8g2_uint_t y, u8g2_uint_t len, uint8_t 
 316:..\u8g2\csrc/u8g2_setup.c **** {
 500              		.loc 1 316 0
 501              		.cfi_startproc
 502              		@ args = 4, pretend = 0, frame = 0
 503              		@ frame_needed = 0, uses_anonymous_args = 0
 504              	.LVL34:
 505 0000 30B5     		push	{r4, r5, lr}
 506              		.cfi_def_cfa_offset 12
ARM GAS  C:\Users\brian\AppData\Local\Temp\ccK1AeEG.s 			page 16


 507              		.cfi_offset 4, -12
 508              		.cfi_offset 5, -8
 509              		.cfi_offset 14, -4
 510 0002 83B0     		sub	sp, sp, #12
 511              		.cfi_def_cfa_offset 24
 512 0004 9DF81850 		ldrb	r5, [sp, #24]	@ zero_extendqisi2
 317:..\u8g2\csrc/u8g2_setup.c ****   u8g2_uint_t xx;
 318:..\u8g2\csrc/u8g2_setup.c ****   xx = u8g2->width;
 513              		.loc 1 318 0
 514 0008 B0F84440 		ldrh	r4, [r0, #68]
 515              	.LVL35:
 319:..\u8g2\csrc/u8g2_setup.c ****   xx -= x;
 516              		.loc 1 319 0
 517 000c 611A     		subs	r1, r4, r1
 518              	.LVL36:
 519 000e 89B2     		uxth	r1, r1
 520              	.LVL37:
 320:..\u8g2\csrc/u8g2_setup.c ****   if ( (dir & 1) == 0 )
 521              		.loc 1 320 0
 522 0010 15F0010F 		tst	r5, #1
 523 0014 02D1     		bne	.L32
 321:..\u8g2\csrc/u8g2_setup.c ****   {
 322:..\u8g2\csrc/u8g2_setup.c ****     xx -= len;
 524              		.loc 1 322 0
 525 0016 C91A     		subs	r1, r1, r3
 526              	.LVL38:
 527 0018 89B2     		uxth	r1, r1
 528              	.LVL39:
 529 001a 01E0     		b	.L33
 530              	.L32:
 323:..\u8g2\csrc/u8g2_setup.c ****   }
 324:..\u8g2\csrc/u8g2_setup.c ****   else
 325:..\u8g2\csrc/u8g2_setup.c ****   {
 326:..\u8g2\csrc/u8g2_setup.c ****     xx--;
 531              		.loc 1 326 0
 532 001c 0139     		subs	r1, r1, #1
 533              	.LVL40:
 534 001e 89B2     		uxth	r1, r1
 535              	.LVL41:
 536              	.L33:
 327:..\u8g2\csrc/u8g2_setup.c ****   }
 328:..\u8g2\csrc/u8g2_setup.c ****   u8g2_draw_hv_line_2dir(u8g2, xx, y, len, dir);
 537              		.loc 1 328 0
 538 0020 0095     		str	r5, [sp]
 539 0022 FFF7FEFF 		bl	u8g2_draw_hv_line_2dir
 540              	.LVL42:
 329:..\u8g2\csrc/u8g2_setup.c **** }
 541              		.loc 1 329 0
 542 0026 03B0     		add	sp, sp, #12
 543              		.cfi_def_cfa_offset 12
 544              		@ sp needed
 545 0028 30BD     		pop	{r4, r5, pc}
 546              		.cfi_endproc
 547              	.LFE16:
 548              		.size	u8g2_draw_l90_mirrorr_r0, .-u8g2_draw_l90_mirrorr_r0
 549 002a 00BF     		.section	.text.u8g2_draw_mirror_vertical_r0,"ax",%progbits
 550              		.align	2
ARM GAS  C:\Users\brian\AppData\Local\Temp\ccK1AeEG.s 			page 17


 551              		.global	u8g2_draw_mirror_vertical_r0
 552              		.thumb
 553              		.thumb_func
 554              		.type	u8g2_draw_mirror_vertical_r0, %function
 555              	u8g2_draw_mirror_vertical_r0:
 556              	.LFB17:
 330:..\u8g2\csrc/u8g2_setup.c **** 
 331:..\u8g2\csrc/u8g2_setup.c **** void u8g2_draw_mirror_vertical_r0(u8g2_t *u8g2, u8g2_uint_t x, u8g2_uint_t y, u8g2_uint_t len, uint
 332:..\u8g2\csrc/u8g2_setup.c **** {
 557              		.loc 1 332 0
 558              		.cfi_startproc
 559              		@ args = 4, pretend = 0, frame = 0
 560              		@ frame_needed = 0, uses_anonymous_args = 0
 561              	.LVL43:
 562 0000 30B5     		push	{r4, r5, lr}
 563              		.cfi_def_cfa_offset 12
 564              		.cfi_offset 4, -12
 565              		.cfi_offset 5, -8
 566              		.cfi_offset 14, -4
 567 0002 83B0     		sub	sp, sp, #12
 568              		.cfi_def_cfa_offset 24
 569 0004 9DF81850 		ldrb	r5, [sp, #24]	@ zero_extendqisi2
 333:..\u8g2\csrc/u8g2_setup.c ****   u8g2_uint_t yy;
 334:..\u8g2\csrc/u8g2_setup.c ****   yy = u8g2->height;
 570              		.loc 1 334 0
 571 0008 B0F84640 		ldrh	r4, [r0, #70]
 572              	.LVL44:
 335:..\u8g2\csrc/u8g2_setup.c ****   yy -= y;
 573              		.loc 1 335 0
 574 000c A21A     		subs	r2, r4, r2
 575              	.LVL45:
 576 000e 92B2     		uxth	r2, r2
 577              	.LVL46:
 336:..\u8g2\csrc/u8g2_setup.c ****   if ( (dir & 1) == 1 )
 578              		.loc 1 336 0
 579 0010 15F0010F 		tst	r5, #1
 580 0014 02D0     		beq	.L36
 337:..\u8g2\csrc/u8g2_setup.c ****   {
 338:..\u8g2\csrc/u8g2_setup.c ****     yy -= len;
 581              		.loc 1 338 0
 582 0016 D21A     		subs	r2, r2, r3
 583              	.LVL47:
 584 0018 92B2     		uxth	r2, r2
 585              	.LVL48:
 586 001a 01E0     		b	.L37
 587              	.L36:
 339:..\u8g2\csrc/u8g2_setup.c ****   }
 340:..\u8g2\csrc/u8g2_setup.c ****   else
 341:..\u8g2\csrc/u8g2_setup.c ****   {
 342:..\u8g2\csrc/u8g2_setup.c ****     yy--;
 588              		.loc 1 342 0
 589 001c 013A     		subs	r2, r2, #1
 590              	.LVL49:
 591 001e 92B2     		uxth	r2, r2
 592              	.LVL50:
 593              	.L37:
 343:..\u8g2\csrc/u8g2_setup.c ****   }
ARM GAS  C:\Users\brian\AppData\Local\Temp\ccK1AeEG.s 			page 18


 344:..\u8g2\csrc/u8g2_setup.c ****   u8g2_draw_hv_line_2dir(u8g2, x, yy, len, dir);
 594              		.loc 1 344 0
 595 0020 0095     		str	r5, [sp]
 596 0022 FFF7FEFF 		bl	u8g2_draw_hv_line_2dir
 597              	.LVL51:
 345:..\u8g2\csrc/u8g2_setup.c **** }
 598              		.loc 1 345 0
 599 0026 03B0     		add	sp, sp, #12
 600              		.cfi_def_cfa_offset 12
 601              		@ sp needed
 602 0028 30BD     		pop	{r4, r5, pc}
 603              		.cfi_endproc
 604              	.LFE17:
 605              		.size	u8g2_draw_mirror_vertical_r0, .-u8g2_draw_mirror_vertical_r0
 606 002a 00BF     		.section	.text.u8g2_draw_l90_r1,"ax",%progbits
 607              		.align	2
 608              		.global	u8g2_draw_l90_r1
 609              		.thumb
 610              		.thumb_func
 611              		.type	u8g2_draw_l90_r1, %function
 612              	u8g2_draw_l90_r1:
 613              	.LFB18:
 346:..\u8g2\csrc/u8g2_setup.c **** 
 347:..\u8g2\csrc/u8g2_setup.c **** /* dir = 0 or 1 */
 348:..\u8g2\csrc/u8g2_setup.c **** void u8g2_draw_l90_r1(u8g2_t *u8g2, u8g2_uint_t x, u8g2_uint_t y, u8g2_uint_t len, uint8_t dir)
 349:..\u8g2\csrc/u8g2_setup.c **** {
 614              		.loc 1 349 0
 615              		.cfi_startproc
 616              		@ args = 4, pretend = 0, frame = 0
 617              		@ frame_needed = 0, uses_anonymous_args = 0
 618              	.LVL52:
 619 0000 30B5     		push	{r4, r5, lr}
 620              		.cfi_def_cfa_offset 12
 621              		.cfi_offset 4, -12
 622              		.cfi_offset 5, -8
 623              		.cfi_offset 14, -4
 624 0002 83B0     		sub	sp, sp, #12
 625              		.cfi_def_cfa_offset 24
 626 0004 0D46     		mov	r5, r1
 627              	.LVL53:
 350:..\u8g2\csrc/u8g2_setup.c ****   u8g2_uint_t xx, yy;
 351:..\u8g2\csrc/u8g2_setup.c **** 
 352:..\u8g2\csrc/u8g2_setup.c **** #ifdef __unix
 353:..\u8g2\csrc/u8g2_setup.c ****   assert( dir <= 1 );
 354:..\u8g2\csrc/u8g2_setup.c **** #endif
 355:..\u8g2\csrc/u8g2_setup.c ****   
 356:..\u8g2\csrc/u8g2_setup.c ****   yy = x;
 357:..\u8g2\csrc/u8g2_setup.c ****   
 358:..\u8g2\csrc/u8g2_setup.c ****   xx = u8g2->height;
 628              		.loc 1 358 0
 629 0006 B0F84640 		ldrh	r4, [r0, #70]
 630              	.LVL54:
 359:..\u8g2\csrc/u8g2_setup.c ****   xx -= y;
 631              		.loc 1 359 0
 632 000a A21A     		subs	r2, r4, r2
 633              	.LVL55:
 634 000c 92B2     		uxth	r2, r2
ARM GAS  C:\Users\brian\AppData\Local\Temp\ccK1AeEG.s 			page 19


 635              	.LVL56:
 360:..\u8g2\csrc/u8g2_setup.c ****   xx--;
 636              		.loc 1 360 0
 637 000e 013A     		subs	r2, r2, #1
 638              	.LVL57:
 639 0010 91B2     		uxth	r1, r2
 640              	.LVL58:
 361:..\u8g2\csrc/u8g2_setup.c ****   
 362:..\u8g2\csrc/u8g2_setup.c ****   dir ++;
 641              		.loc 1 362 0
 642 0012 9DF81820 		ldrb	r2, [sp, #24]	@ zero_extendqisi2
 643 0016 0132     		adds	r2, r2, #1
 644 0018 D2B2     		uxtb	r2, r2
 645              	.LVL59:
 363:..\u8g2\csrc/u8g2_setup.c ****   if ( dir == 2 )
 646              		.loc 1 363 0
 647 001a 022A     		cmp	r2, #2
 648 001c 04D1     		bne	.L40
 364:..\u8g2\csrc/u8g2_setup.c ****   {
 365:..\u8g2\csrc/u8g2_setup.c ****     xx -= len;
 649              		.loc 1 365 0
 650 001e CA1A     		subs	r2, r1, r3
 651              	.LVL60:
 652 0020 92B2     		uxth	r2, r2
 653              	.LVL61:
 366:..\u8g2\csrc/u8g2_setup.c ****     xx++;
 654              		.loc 1 366 0
 655 0022 0132     		adds	r2, r2, #1
 656              	.LVL62:
 657 0024 91B2     		uxth	r1, r2
 658              	.LVL63:
 367:..\u8g2\csrc/u8g2_setup.c ****     dir = 0;
 659              		.loc 1 367 0
 660 0026 0022     		movs	r2, #0
 661              	.LVL64:
 662              	.L40:
 368:..\u8g2\csrc/u8g2_setup.c ****   }
 369:..\u8g2\csrc/u8g2_setup.c ****   
 370:..\u8g2\csrc/u8g2_setup.c ****   u8g2_draw_hv_line_2dir(u8g2, xx, yy, len, dir);
 663              		.loc 1 370 0
 664 0028 0092     		str	r2, [sp]
 665 002a 2A46     		mov	r2, r5
 666              	.LVL65:
 667 002c FFF7FEFF 		bl	u8g2_draw_hv_line_2dir
 668              	.LVL66:
 371:..\u8g2\csrc/u8g2_setup.c **** }
 669              		.loc 1 371 0
 670 0030 03B0     		add	sp, sp, #12
 671              		.cfi_def_cfa_offset 12
 672              		@ sp needed
 673 0032 30BD     		pop	{r4, r5, pc}
 674              		.cfi_endproc
 675              	.LFE18:
 676              		.size	u8g2_draw_l90_r1, .-u8g2_draw_l90_r1
 677              		.section	.text.u8g2_draw_l90_r2,"ax",%progbits
 678              		.align	2
 679              		.global	u8g2_draw_l90_r2
ARM GAS  C:\Users\brian\AppData\Local\Temp\ccK1AeEG.s 			page 20


 680              		.thumb
 681              		.thumb_func
 682              		.type	u8g2_draw_l90_r2, %function
 683              	u8g2_draw_l90_r2:
 684              	.LFB19:
 372:..\u8g2\csrc/u8g2_setup.c **** 
 373:..\u8g2\csrc/u8g2_setup.c **** void u8g2_draw_l90_r2(u8g2_t *u8g2, u8g2_uint_t x, u8g2_uint_t y, u8g2_uint_t len, uint8_t dir)
 374:..\u8g2\csrc/u8g2_setup.c **** {
 685              		.loc 1 374 0
 686              		.cfi_startproc
 687              		@ args = 4, pretend = 0, frame = 0
 688              		@ frame_needed = 0, uses_anonymous_args = 0
 689              	.LVL67:
 690 0000 30B5     		push	{r4, r5, lr}
 691              		.cfi_def_cfa_offset 12
 692              		.cfi_offset 4, -12
 693              		.cfi_offset 5, -8
 694              		.cfi_offset 14, -4
 695 0002 83B0     		sub	sp, sp, #12
 696              		.cfi_def_cfa_offset 24
 697 0004 9DF81850 		ldrb	r5, [sp, #24]	@ zero_extendqisi2
 375:..\u8g2\csrc/u8g2_setup.c ****   u8g2_uint_t xx, yy;
 376:..\u8g2\csrc/u8g2_setup.c **** 
 377:..\u8g2\csrc/u8g2_setup.c ****   /*
 378:..\u8g2\csrc/u8g2_setup.c ****   yy = u8g2->height;
 379:..\u8g2\csrc/u8g2_setup.c ****   yy -= y;
 380:..\u8g2\csrc/u8g2_setup.c ****   yy--;
 381:..\u8g2\csrc/u8g2_setup.c ****   
 382:..\u8g2\csrc/u8g2_setup.c ****   xx = u8g2->width;
 383:..\u8g2\csrc/u8g2_setup.c ****   xx -= x;
 384:..\u8g2\csrc/u8g2_setup.c ****   xx--;
 385:..\u8g2\csrc/u8g2_setup.c ****   
 386:..\u8g2\csrc/u8g2_setup.c ****   if ( dir == 0 )
 387:..\u8g2\csrc/u8g2_setup.c ****   {
 388:..\u8g2\csrc/u8g2_setup.c ****     xx -= len;
 389:..\u8g2\csrc/u8g2_setup.c ****     xx++;
 390:..\u8g2\csrc/u8g2_setup.c ****   }
 391:..\u8g2\csrc/u8g2_setup.c ****   else if ( dir == 1 )
 392:..\u8g2\csrc/u8g2_setup.c ****   {
 393:..\u8g2\csrc/u8g2_setup.c ****     yy -= len;
 394:..\u8g2\csrc/u8g2_setup.c ****     yy++;
 395:..\u8g2\csrc/u8g2_setup.c ****   }
 396:..\u8g2\csrc/u8g2_setup.c ****   */
 397:..\u8g2\csrc/u8g2_setup.c **** 
 398:..\u8g2\csrc/u8g2_setup.c ****   yy = u8g2->height;
 698              		.loc 1 398 0
 699 0008 B0F84640 		ldrh	r4, [r0, #70]
 700              	.LVL68:
 399:..\u8g2\csrc/u8g2_setup.c ****   yy -= y;
 701              		.loc 1 399 0
 702 000c A21A     		subs	r2, r4, r2
 703              	.LVL69:
 704 000e 92B2     		uxth	r2, r2
 705              	.LVL70:
 400:..\u8g2\csrc/u8g2_setup.c ****   
 401:..\u8g2\csrc/u8g2_setup.c ****   xx = u8g2->width;
 706              		.loc 1 401 0
ARM GAS  C:\Users\brian\AppData\Local\Temp\ccK1AeEG.s 			page 21


 707 0010 B0F84440 		ldrh	r4, [r0, #68]
 708              	.LVL71:
 402:..\u8g2\csrc/u8g2_setup.c ****   xx -= x;
 709              		.loc 1 402 0
 710 0014 611A     		subs	r1, r4, r1
 711              	.LVL72:
 712 0016 89B2     		uxth	r1, r1
 713              	.LVL73:
 403:..\u8g2\csrc/u8g2_setup.c ****   
 404:..\u8g2\csrc/u8g2_setup.c ****   if ( dir == 0 )
 714              		.loc 1 404 0
 715 0018 25B9     		cbnz	r5, .L43
 405:..\u8g2\csrc/u8g2_setup.c ****   {
 406:..\u8g2\csrc/u8g2_setup.c ****     yy--;
 716              		.loc 1 406 0
 717 001a 013A     		subs	r2, r2, #1
 718              	.LVL74:
 719 001c 92B2     		uxth	r2, r2
 720              	.LVL75:
 407:..\u8g2\csrc/u8g2_setup.c ****     xx -= len;
 721              		.loc 1 407 0
 722 001e C91A     		subs	r1, r1, r3
 723              	.LVL76:
 724 0020 89B2     		uxth	r1, r1
 725              	.LVL77:
 726 0022 05E0     		b	.L44
 727              	.L43:
 408:..\u8g2\csrc/u8g2_setup.c ****   }
 409:..\u8g2\csrc/u8g2_setup.c ****   else if ( dir == 1 )
 728              		.loc 1 409 0
 729 0024 012D     		cmp	r5, #1
 730 0026 03D1     		bne	.L44
 410:..\u8g2\csrc/u8g2_setup.c ****   {
 411:..\u8g2\csrc/u8g2_setup.c ****     xx--;
 731              		.loc 1 411 0
 732 0028 0139     		subs	r1, r1, #1
 733              	.LVL78:
 734 002a 89B2     		uxth	r1, r1
 735              	.LVL79:
 412:..\u8g2\csrc/u8g2_setup.c ****     yy -= len;
 736              		.loc 1 412 0
 737 002c D21A     		subs	r2, r2, r3
 738              	.LVL80:
 739 002e 92B2     		uxth	r2, r2
 740              	.LVL81:
 741              	.L44:
 413:..\u8g2\csrc/u8g2_setup.c ****   }
 414:..\u8g2\csrc/u8g2_setup.c **** 
 415:..\u8g2\csrc/u8g2_setup.c ****   u8g2_draw_hv_line_2dir(u8g2, xx, yy, len, dir);
 742              		.loc 1 415 0
 743 0030 0095     		str	r5, [sp]
 744 0032 FFF7FEFF 		bl	u8g2_draw_hv_line_2dir
 745              	.LVL82:
 416:..\u8g2\csrc/u8g2_setup.c **** }
 746              		.loc 1 416 0
 747 0036 03B0     		add	sp, sp, #12
 748              		.cfi_def_cfa_offset 12
ARM GAS  C:\Users\brian\AppData\Local\Temp\ccK1AeEG.s 			page 22


 749              		@ sp needed
 750 0038 30BD     		pop	{r4, r5, pc}
 751              		.cfi_endproc
 752              	.LFE19:
 753              		.size	u8g2_draw_l90_r2, .-u8g2_draw_l90_r2
 754 003a 00BF     		.section	.text.u8g2_draw_l90_r3,"ax",%progbits
 755              		.align	2
 756              		.global	u8g2_draw_l90_r3
 757              		.thumb
 758              		.thumb_func
 759              		.type	u8g2_draw_l90_r3, %function
 760              	u8g2_draw_l90_r3:
 761              	.LFB20:
 417:..\u8g2\csrc/u8g2_setup.c **** 
 418:..\u8g2\csrc/u8g2_setup.c **** void u8g2_draw_l90_r3(u8g2_t *u8g2, u8g2_uint_t x, u8g2_uint_t y, u8g2_uint_t len, uint8_t dir)
 419:..\u8g2\csrc/u8g2_setup.c **** {
 762              		.loc 1 419 0
 763              		.cfi_startproc
 764              		@ args = 4, pretend = 0, frame = 0
 765              		@ frame_needed = 0, uses_anonymous_args = 0
 766              	.LVL83:
 767 0000 30B5     		push	{r4, r5, lr}
 768              		.cfi_def_cfa_offset 12
 769              		.cfi_offset 4, -12
 770              		.cfi_offset 5, -8
 771              		.cfi_offset 14, -4
 772 0002 83B0     		sub	sp, sp, #12
 773              		.cfi_def_cfa_offset 24
 774 0004 1446     		mov	r4, r2
 775 0006 9DF81850 		ldrb	r5, [sp, #24]	@ zero_extendqisi2
 776              	.LVL84:
 420:..\u8g2\csrc/u8g2_setup.c ****   u8g2_uint_t xx, yy;
 421:..\u8g2\csrc/u8g2_setup.c **** 
 422:..\u8g2\csrc/u8g2_setup.c ****   xx = y;
 423:..\u8g2\csrc/u8g2_setup.c ****   
 424:..\u8g2\csrc/u8g2_setup.c ****   yy = u8g2->width;
 777              		.loc 1 424 0
 778 000a B0F84420 		ldrh	r2, [r0, #68]
 779              	.LVL85:
 425:..\u8g2\csrc/u8g2_setup.c ****   yy -= x;
 780              		.loc 1 425 0
 781 000e 511A     		subs	r1, r2, r1
 782              	.LVL86:
 783 0010 8AB2     		uxth	r2, r1
 784              	.LVL87:
 426:..\u8g2\csrc/u8g2_setup.c ****   
 427:..\u8g2\csrc/u8g2_setup.c ****   if ( dir == 0 )
 785              		.loc 1 427 0
 786 0012 3DB9     		cbnz	r5, .L47
 428:..\u8g2\csrc/u8g2_setup.c ****   {
 429:..\u8g2\csrc/u8g2_setup.c ****     yy--;
 787              		.loc 1 429 0
 788 0014 013A     		subs	r2, r2, #1
 789              	.LVL88:
 790 0016 92B2     		uxth	r2, r2
 791              	.LVL89:
 430:..\u8g2\csrc/u8g2_setup.c ****     yy -= len;
ARM GAS  C:\Users\brian\AppData\Local\Temp\ccK1AeEG.s 			page 23


 792              		.loc 1 430 0
 793 0018 D21A     		subs	r2, r2, r3
 794              	.LVL90:
 795 001a 92B2     		uxth	r2, r2
 796              	.LVL91:
 431:..\u8g2\csrc/u8g2_setup.c ****     yy++;
 797              		.loc 1 431 0
 798 001c 0132     		adds	r2, r2, #1
 799              	.LVL92:
 800 001e 92B2     		uxth	r2, r2
 801              	.LVL93:
 432:..\u8g2\csrc/u8g2_setup.c ****     dir = 1;
 802              		.loc 1 432 0
 803 0020 0121     		movs	r1, #1
 804 0022 02E0     		b	.L48
 805              	.LVL94:
 806              	.L47:
 433:..\u8g2\csrc/u8g2_setup.c ****   }
 434:..\u8g2\csrc/u8g2_setup.c ****   else
 435:..\u8g2\csrc/u8g2_setup.c ****   {
 436:..\u8g2\csrc/u8g2_setup.c ****     yy--;
 807              		.loc 1 436 0
 808 0024 013A     		subs	r2, r2, #1
 809              	.LVL95:
 810 0026 92B2     		uxth	r2, r2
 811              	.LVL96:
 437:..\u8g2\csrc/u8g2_setup.c ****     dir = 0;
 812              		.loc 1 437 0
 813 0028 0021     		movs	r1, #0
 814              	.LVL97:
 815              	.L48:
 438:..\u8g2\csrc/u8g2_setup.c ****   }
 439:..\u8g2\csrc/u8g2_setup.c ****   
 440:..\u8g2\csrc/u8g2_setup.c ****   
 441:..\u8g2\csrc/u8g2_setup.c ****   u8g2_draw_hv_line_2dir(u8g2, xx, yy, len, dir);
 816              		.loc 1 441 0
 817 002a 0091     		str	r1, [sp]
 818 002c 2146     		mov	r1, r4
 819              	.LVL98:
 820 002e FFF7FEFF 		bl	u8g2_draw_hv_line_2dir
 821              	.LVL99:
 442:..\u8g2\csrc/u8g2_setup.c **** }
 822              		.loc 1 442 0
 823 0032 03B0     		add	sp, sp, #12
 824              		.cfi_def_cfa_offset 12
 825              		@ sp needed
 826 0034 30BD     		pop	{r4, r5, pc}
 827              		.cfi_endproc
 828              	.LFE20:
 829              		.size	u8g2_draw_l90_r3, .-u8g2_draw_l90_r3
 830 0036 00BF     		.section	.text.u8g2_SetMaxClipWindow,"ax",%progbits
 831              		.align	2
 832              		.global	u8g2_SetMaxClipWindow
 833              		.thumb
 834              		.thumb_func
 835              		.type	u8g2_SetMaxClipWindow, %function
 836              	u8g2_SetMaxClipWindow:
ARM GAS  C:\Users\brian\AppData\Local\Temp\ccK1AeEG.s 			page 24


 837              	.LFB0:
  47:..\u8g2\csrc/u8g2_setup.c ****   u8g2->clip_x0 = 0;
 838              		.loc 1 47 0
 839              		.cfi_startproc
 840              		@ args = 0, pretend = 0, frame = 0
 841              		@ frame_needed = 0, uses_anonymous_args = 0
 842              	.LVL100:
 843 0000 08B5     		push	{r3, lr}
 844              		.cfi_def_cfa_offset 8
 845              		.cfi_offset 3, -8
 846              		.cfi_offset 14, -4
  48:..\u8g2\csrc/u8g2_setup.c ****   u8g2->clip_y0 = 0;
 847              		.loc 1 48 0
 848 0002 0022     		movs	r2, #0
 849 0004 A0F85020 		strh	r2, [r0, #80]	@ movhi
  49:..\u8g2\csrc/u8g2_setup.c ****   u8g2->clip_x1 = (u8g2_uint_t)~(u8g2_uint_t)0;
 850              		.loc 1 49 0
 851 0008 A0F85420 		strh	r2, [r0, #84]	@ movhi
  50:..\u8g2\csrc/u8g2_setup.c ****   u8g2->clip_y1 = (u8g2_uint_t)~(u8g2_uint_t)0;
 852              		.loc 1 50 0
 853 000c 4FF6FF72 		movw	r2, #65535
 854 0010 A0F85220 		strh	r2, [r0, #82]	@ movhi
  51:..\u8g2\csrc/u8g2_setup.c ****   
 855              		.loc 1 51 0
 856 0014 A0F85620 		strh	r2, [r0, #86]	@ movhi
  53:..\u8g2\csrc/u8g2_setup.c **** }
 857              		.loc 1 53 0
 858 0018 036B     		ldr	r3, [r0, #48]
 859 001a 5B68     		ldr	r3, [r3, #4]
 860 001c 9847     		blx	r3
 861              	.LVL101:
 862 001e 08BD     		pop	{r3, pc}
 863              		.cfi_endproc
 864              	.LFE0:
 865              		.size	u8g2_SetMaxClipWindow, .-u8g2_SetMaxClipWindow
 866              		.section	.text.u8g2_SetClipWindow,"ax",%progbits
 867              		.align	2
 868              		.global	u8g2_SetClipWindow
 869              		.thumb
 870              		.thumb_func
 871              		.type	u8g2_SetClipWindow, %function
 872              	u8g2_SetClipWindow:
 873              	.LFB1:
  57:..\u8g2\csrc/u8g2_setup.c ****   u8g2->clip_x0 = clip_x0;
 874              		.loc 1 57 0
 875              		.cfi_startproc
 876              		@ args = 4, pretend = 0, frame = 0
 877              		@ frame_needed = 0, uses_anonymous_args = 0
 878              	.LVL102:
 879 0000 10B5     		push	{r4, lr}
 880              		.cfi_def_cfa_offset 8
 881              		.cfi_offset 4, -8
 882              		.cfi_offset 14, -4
  58:..\u8g2\csrc/u8g2_setup.c ****   u8g2->clip_y0 = clip_y0;
 883              		.loc 1 58 0
 884 0002 A0F85010 		strh	r1, [r0, #80]	@ movhi
  59:..\u8g2\csrc/u8g2_setup.c ****   u8g2->clip_x1 = clip_x1;
ARM GAS  C:\Users\brian\AppData\Local\Temp\ccK1AeEG.s 			page 25


 885              		.loc 1 59 0
 886 0006 A0F85420 		strh	r2, [r0, #84]	@ movhi
  60:..\u8g2\csrc/u8g2_setup.c ****   u8g2->clip_y1 = clip_y1;
 887              		.loc 1 60 0
 888 000a A0F85230 		strh	r3, [r0, #82]	@ movhi
  61:..\u8g2\csrc/u8g2_setup.c ****   u8g2->cb->update_page_win(u8g2);
 889              		.loc 1 61 0
 890 000e BDF80830 		ldrh	r3, [sp, #8]
 891              	.LVL103:
 892 0012 A0F85630 		strh	r3, [r0, #86]	@ movhi
  62:..\u8g2\csrc/u8g2_setup.c **** }
 893              		.loc 1 62 0
 894 0016 036B     		ldr	r3, [r0, #48]
 895 0018 5B68     		ldr	r3, [r3, #4]
 896 001a 9847     		blx	r3
 897              	.LVL104:
 898 001c 10BD     		pop	{r4, pc}
 899              		.cfi_endproc
 900              	.LFE1:
 901              		.size	u8g2_SetClipWindow, .-u8g2_SetClipWindow
 902 001e 00BF     		.section	.text.u8g2_SetupBuffer,"ax",%progbits
 903              		.align	2
 904              		.global	u8g2_SetupBuffer
 905              		.thumb
 906              		.thumb_func
 907              		.type	u8g2_SetupBuffer, %function
 908              	u8g2_SetupBuffer:
 909              	.LFB2:
  72:..\u8g2\csrc/u8g2_setup.c ****   u8g2->font = NULL;
 910              		.loc 1 72 0
 911              		.cfi_startproc
 912              		@ args = 4, pretend = 0, frame = 0
 913              		@ frame_needed = 0, uses_anonymous_args = 0
 914              	.LVL105:
 915 0000 70B5     		push	{r4, r5, r6, lr}
 916              		.cfi_def_cfa_offset 16
 917              		.cfi_offset 4, -16
 918              		.cfi_offset 5, -12
 919              		.cfi_offset 6, -8
 920              		.cfi_offset 14, -4
 921 0002 0446     		mov	r4, r0
 922 0004 049E     		ldr	r6, [sp, #16]
  73:..\u8g2\csrc/u8g2_setup.c ****   //u8g2->kerning = NULL;
 923              		.loc 1 73 0
 924 0006 0025     		movs	r5, #0
 925 0008 8565     		str	r5, [r0, #88]
  78:..\u8g2\csrc/u8g2_setup.c ****   
 926              		.loc 1 78 0
 927 000a C362     		str	r3, [r0, #44]
  80:..\u8g2\csrc/u8g2_setup.c ****   u8g2->tile_buf_height = tile_buf_height;
 928              		.loc 1 80 0
 929 000c 4163     		str	r1, [r0, #52]
  81:..\u8g2\csrc/u8g2_setup.c ****   
 930              		.loc 1 81 0
 931 000e 80F83820 		strb	r2, [r0, #56]
  83:..\u8g2\csrc/u8g2_setup.c ****   
 932              		.loc 1 83 0
ARM GAS  C:\Users\brian\AppData\Local\Temp\ccK1AeEG.s 			page 26


 933 0012 80F83950 		strb	r5, [r0, #57]
  85:..\u8g2\csrc/u8g2_setup.c ****   u8g2->bitmap_transparency = 0;
 934              		.loc 1 85 0
 935 0016 80F86D50 		strb	r5, [r0, #109]
  86:..\u8g2\csrc/u8g2_setup.c ****   
 936              		.loc 1 86 0
 937 001a 80F89150 		strb	r5, [r0, #145]
  88:..\u8g2\csrc/u8g2_setup.c ****   u8g2->is_auto_page_clear = 1;
 938              		.loc 1 88 0
 939 001e 0123     		movs	r3, #1
 940              	.LVL106:
 941 0020 80F89230 		strb	r3, [r0, #146]
  89:..\u8g2\csrc/u8g2_setup.c ****   
 942              		.loc 1 89 0
 943 0024 80F89330 		strb	r3, [r0, #147]
  91:..\u8g2\csrc/u8g2_setup.c ****   u8g2->cb->update_dimension(u8g2);
 944              		.loc 1 91 0
 945 0028 0663     		str	r6, [r0, #48]
  92:..\u8g2\csrc/u8g2_setup.c **** #ifdef U8G2_WITH_CLIP_WINDOW_SUPPORT
 946              		.loc 1 92 0
 947 002a 3368     		ldr	r3, [r6]
 948 002c 9847     		blx	r3
 949              	.LVL107:
  94:..\u8g2\csrc/u8g2_setup.c **** #else
 950              		.loc 1 94 0
 951 002e 2046     		mov	r0, r4
 952 0030 FFF7FEFF 		bl	u8g2_SetMaxClipWindow
 953              	.LVL108:
  99:..\u8g2\csrc/u8g2_setup.c ****   
 954              		.loc 1 99 0
 955 0034 2046     		mov	r0, r4
 956 0036 FFF7FEFF 		bl	u8g2_SetFontPosBaseline
 957              	.LVL109:
 102:..\u8g2\csrc/u8g2_setup.c **** #endif
 958              		.loc 1 102 0
 959 003a 84F87050 		strb	r5, [r4, #112]
 960 003e 70BD     		pop	{r4, r5, r6, pc}
 961              		.cfi_endproc
 962              	.LFE2:
 963              		.size	u8g2_SetupBuffer, .-u8g2_SetupBuffer
 964              		.section	.text.u8g2_SetDisplayRotation,"ax",%progbits
 965              		.align	2
 966              		.global	u8g2_SetDisplayRotation
 967              		.thumb
 968              		.thumb_func
 969              		.type	u8g2_SetDisplayRotation, %function
 970              	u8g2_SetDisplayRotation:
 971              	.LFB3:
 111:..\u8g2\csrc/u8g2_setup.c ****   u8g2->cb = u8g2_cb;
 972              		.loc 1 111 0
 973              		.cfi_startproc
 974              		@ args = 0, pretend = 0, frame = 0
 975              		@ frame_needed = 0, uses_anonymous_args = 0
 976              	.LVL110:
 977 0000 10B5     		push	{r4, lr}
 978              		.cfi_def_cfa_offset 8
 979              		.cfi_offset 4, -8
ARM GAS  C:\Users\brian\AppData\Local\Temp\ccK1AeEG.s 			page 27


 980              		.cfi_offset 14, -4
 981 0002 0446     		mov	r4, r0
 112:..\u8g2\csrc/u8g2_setup.c ****   u8g2->cb->update_dimension(u8g2);
 982              		.loc 1 112 0
 983 0004 0163     		str	r1, [r0, #48]
 113:..\u8g2\csrc/u8g2_setup.c ****   u8g2->cb->update_page_win(u8g2);
 984              		.loc 1 113 0
 985 0006 0B68     		ldr	r3, [r1]
 986 0008 9847     		blx	r3
 987              	.LVL111:
 114:..\u8g2\csrc/u8g2_setup.c **** }
 988              		.loc 1 114 0
 989 000a 236B     		ldr	r3, [r4, #48]
 990 000c 5B68     		ldr	r3, [r3, #4]
 991 000e 2046     		mov	r0, r4
 992 0010 9847     		blx	r3
 993              	.LVL112:
 994 0012 10BD     		pop	{r4, pc}
 995              		.cfi_endproc
 996              	.LFE3:
 997              		.size	u8g2_SetDisplayRotation, .-u8g2_SetDisplayRotation
 998              		.section	.text.u8g2_SendF,"ax",%progbits
 999              		.align	2
 1000              		.global	u8g2_SendF
 1001              		.thumb
 1002              		.thumb_func
 1003              		.type	u8g2_SendF, %function
 1004              	u8g2_SendF:
 1005              	.LFB4:
 120:..\u8g2\csrc/u8g2_setup.c ****   va_list va;
 1006              		.loc 1 120 0
 1007              		.cfi_startproc
 1008              		@ args = 4, pretend = 12, frame = 8
 1009              		@ frame_needed = 0, uses_anonymous_args = 1
 1010              	.LVL113:
 1011 0000 0EB4     		push	{r1, r2, r3}
 1012              		.cfi_def_cfa_offset 12
 1013              		.cfi_offset 1, -12
 1014              		.cfi_offset 2, -8
 1015              		.cfi_offset 3, -4
 1016 0002 00B5     		push	{lr}
 1017              		.cfi_def_cfa_offset 16
 1018              		.cfi_offset 14, -16
 1019 0004 82B0     		sub	sp, sp, #8
 1020              		.cfi_def_cfa_offset 24
 1021 0006 03AA     		add	r2, sp, #12
 1022 0008 52F8041B 		ldr	r1, [r2], #4
 122:..\u8g2\csrc/u8g2_setup.c ****   u8x8_cad_vsendf(u8g2_GetU8x8(u8g2), fmt, va);
 1023              		.loc 1 122 0
 1024 000c 0192     		str	r2, [sp, #4]
 123:..\u8g2\csrc/u8g2_setup.c ****   va_end(va);
 1025              		.loc 1 123 0
 1026 000e FFF7FEFF 		bl	u8x8_cad_vsendf
 1027              	.LVL114:
 125:..\u8g2\csrc/u8g2_setup.c **** 
 1028              		.loc 1 125 0
 1029 0012 02B0     		add	sp, sp, #8
ARM GAS  C:\Users\brian\AppData\Local\Temp\ccK1AeEG.s 			page 28


 1030              		.cfi_def_cfa_offset 16
 1031              		@ sp needed
 1032 0014 5DF804EB 		ldr	lr, [sp], #4
 1033              		.cfi_restore 14
 1034              		.cfi_def_cfa_offset 12
 1035 0018 03B0     		add	sp, sp, #12
 1036              		.cfi_restore 3
 1037              		.cfi_restore 2
 1038              		.cfi_restore 1
 1039              		.cfi_def_cfa_offset 0
 1040 001a 7047     		bx	lr
 1041              		.cfi_endproc
 1042              	.LFE4:
 1043              		.size	u8g2_SendF, .-u8g2_SendF
 1044              		.section	.text.u8g2_Setup_null,"ax",%progbits
 1045              		.align	2
 1046              		.global	u8g2_Setup_null
 1047              		.thumb
 1048              		.thumb_func
 1049              		.type	u8g2_Setup_null, %function
 1050              	u8g2_Setup_null:
 1051              	.LFB21:
 443:..\u8g2\csrc/u8g2_setup.c **** 
 444:..\u8g2\csrc/u8g2_setup.c **** 
 445:..\u8g2\csrc/u8g2_setup.c **** 
 446:..\u8g2\csrc/u8g2_setup.c **** /*============================================*/
 447:..\u8g2\csrc/u8g2_setup.c **** const u8g2_cb_t u8g2_cb_r0 = { u8g2_update_dimension_r0, u8g2_update_page_win_r0, u8g2_draw_l90_r0 
 448:..\u8g2\csrc/u8g2_setup.c **** const u8g2_cb_t u8g2_cb_r1 = { u8g2_update_dimension_r1, u8g2_update_page_win_r1, u8g2_draw_l90_r1 
 449:..\u8g2\csrc/u8g2_setup.c **** const u8g2_cb_t u8g2_cb_r2 = { u8g2_update_dimension_r2, u8g2_update_page_win_r2, u8g2_draw_l90_r2 
 450:..\u8g2\csrc/u8g2_setup.c **** const u8g2_cb_t u8g2_cb_r3 = { u8g2_update_dimension_r3, u8g2_update_page_win_r3, u8g2_draw_l90_r3 
 451:..\u8g2\csrc/u8g2_setup.c ****   
 452:..\u8g2\csrc/u8g2_setup.c **** const u8g2_cb_t u8g2_cb_mirror = { u8g2_update_dimension_r0, u8g2_update_page_win_r0, u8g2_draw_l90
 453:..\u8g2\csrc/u8g2_setup.c **** const u8g2_cb_t u8g2_cb_mirror_vertical = { u8g2_update_dimension_r0, u8g2_update_page_win_r0, u8g2
 454:..\u8g2\csrc/u8g2_setup.c ****   
 455:..\u8g2\csrc/u8g2_setup.c **** /*============================================*/
 456:..\u8g2\csrc/u8g2_setup.c **** /* setup for the null device */
 457:..\u8g2\csrc/u8g2_setup.c **** 
 458:..\u8g2\csrc/u8g2_setup.c **** /* setup for the null (empty) device */
 459:..\u8g2\csrc/u8g2_setup.c **** void u8g2_Setup_null(u8g2_t *u8g2, const u8g2_cb_t *rotation, u8x8_msg_cb byte_cb, u8x8_msg_cb gpio
 460:..\u8g2\csrc/u8g2_setup.c **** {
 1052              		.loc 1 460 0
 1053              		.cfi_startproc
 1054              		@ args = 0, pretend = 0, frame = 0
 1055              		@ frame_needed = 0, uses_anonymous_args = 0
 1056              	.LVL115:
 1057 0000 30B5     		push	{r4, r5, lr}
 1058              		.cfi_def_cfa_offset 12
 1059              		.cfi_offset 4, -12
 1060              		.cfi_offset 5, -8
 1061              		.cfi_offset 14, -4
 1062 0002 83B0     		sub	sp, sp, #12
 1063              		.cfi_def_cfa_offset 24
 1064 0004 0446     		mov	r4, r0
 1065 0006 0D46     		mov	r5, r1
 461:..\u8g2\csrc/u8g2_setup.c ****   static uint8_t buf[8];
 462:..\u8g2\csrc/u8g2_setup.c ****   u8g2_SetupDisplay(u8g2, u8x8_d_null_cb, u8x8_cad_empty, byte_cb, gpio_and_delay_cb);
 1066              		.loc 1 462 0
ARM GAS  C:\Users\brian\AppData\Local\Temp\ccK1AeEG.s 			page 29


 1067 0008 0093     		str	r3, [sp]
 1068 000a 1346     		mov	r3, r2
 1069              	.LVL116:
 1070 000c 064A     		ldr	r2, .L62
 1071              	.LVL117:
 1072 000e 0749     		ldr	r1, .L62+4
 1073              	.LVL118:
 1074 0010 FFF7FEFF 		bl	u8x8_Setup
 1075              	.LVL119:
 463:..\u8g2\csrc/u8g2_setup.c ****   u8g2_SetupBuffer(u8g2, buf, 1, u8g2_ll_hvline_vertical_top_lsb, rotation);
 1076              		.loc 1 463 0
 1077 0014 0095     		str	r5, [sp]
 1078 0016 064B     		ldr	r3, .L62+8
 1079 0018 0122     		movs	r2, #1
 1080 001a 0649     		ldr	r1, .L62+12
 1081 001c 2046     		mov	r0, r4
 1082 001e FFF7FEFF 		bl	u8g2_SetupBuffer
 1083              	.LVL120:
 464:..\u8g2\csrc/u8g2_setup.c **** }
 1084              		.loc 1 464 0
 1085 0022 03B0     		add	sp, sp, #12
 1086              		.cfi_def_cfa_offset 12
 1087              		@ sp needed
 1088 0024 30BD     		pop	{r4, r5, pc}
 1089              	.LVL121:
 1090              	.L63:
 1091 0026 00BF     		.align	2
 1092              	.L62:
 1093 0028 00000000 		.word	u8x8_cad_empty
 1094 002c 00000000 		.word	u8x8_d_null_cb
 1095 0030 00000000 		.word	u8g2_ll_hvline_vertical_top_lsb
 1096 0034 00000000 		.word	.LANCHOR0
 1097              		.cfi_endproc
 1098              	.LFE21:
 1099              		.size	u8g2_Setup_null, .-u8g2_Setup_null
 1100              		.global	u8g2_cb_mirror_vertical
 1101              		.global	u8g2_cb_mirror
 1102              		.global	u8g2_cb_r3
 1103              		.global	u8g2_cb_r2
 1104              		.global	u8g2_cb_r1
 1105              		.global	u8g2_cb_r0
 1106              		.section	.rodata
 1107              		.align	2
 1108              		.type	u8g2_cb_mirror_vertical, %object
 1109              		.size	u8g2_cb_mirror_vertical, 12
 1110              	u8g2_cb_mirror_vertical:
 1111 0000 00000000 		.word	u8g2_update_dimension_r0
 1112 0004 00000000 		.word	u8g2_update_page_win_r0
 1113 0008 00000000 		.word	u8g2_draw_mirror_vertical_r0
 1114              		.type	u8g2_cb_mirror, %object
 1115              		.size	u8g2_cb_mirror, 12
 1116              	u8g2_cb_mirror:
 1117 000c 00000000 		.word	u8g2_update_dimension_r0
 1118 0010 00000000 		.word	u8g2_update_page_win_r0
 1119 0014 00000000 		.word	u8g2_draw_l90_mirrorr_r0
 1120              		.type	u8g2_cb_r3, %object
 1121              		.size	u8g2_cb_r3, 12
ARM GAS  C:\Users\brian\AppData\Local\Temp\ccK1AeEG.s 			page 30


 1122              	u8g2_cb_r3:
 1123 0018 00000000 		.word	u8g2_update_dimension_r3
 1124 001c 00000000 		.word	u8g2_update_page_win_r3
 1125 0020 00000000 		.word	u8g2_draw_l90_r3
 1126              		.type	u8g2_cb_r2, %object
 1127              		.size	u8g2_cb_r2, 12
 1128              	u8g2_cb_r2:
 1129 0024 00000000 		.word	u8g2_update_dimension_r2
 1130 0028 00000000 		.word	u8g2_update_page_win_r2
 1131 002c 00000000 		.word	u8g2_draw_l90_r2
 1132              		.type	u8g2_cb_r1, %object
 1133              		.size	u8g2_cb_r1, 12
 1134              	u8g2_cb_r1:
 1135 0030 00000000 		.word	u8g2_update_dimension_r1
 1136 0034 00000000 		.word	u8g2_update_page_win_r1
 1137 0038 00000000 		.word	u8g2_draw_l90_r1
 1138              		.type	u8g2_cb_r0, %object
 1139              		.size	u8g2_cb_r0, 12
 1140              	u8g2_cb_r0:
 1141 003c 00000000 		.word	u8g2_update_dimension_r0
 1142 0040 00000000 		.word	u8g2_update_page_win_r0
 1143 0044 00000000 		.word	u8g2_draw_l90_r0
 1144              		.bss
 1145              		.align	2
 1146              		.set	.LANCHOR0,. + 0
 1147              		.type	buf.12367, %object
 1148              		.size	buf.12367, 8
 1149              	buf.12367:
 1150 0000 00000000 		.space	8
 1150      00000000 
 1151              		.text
 1152              	.Letext0:
 1153              		.file 2 "c:\\program files (x86)\\cypress\\psoc creator\\4.4\\psoc creator\\import\\gnu\\arm\\5.4.
 1154              		.file 3 "c:\\program files (x86)\\cypress\\psoc creator\\4.4\\psoc creator\\import\\gnu\\arm\\5.4.
 1155              		.file 4 "c:\\program files (x86)\\cypress\\psoc creator\\4.4\\psoc creator\\import\\gnu\\arm\\5.4.
 1156              		.file 5 "..\\u8g2\\csrc\\u8x8.h"
 1157              		.file 6 "<built-in>"
 1158              		.file 7 "..\\u8g2\\csrc\\u8g2.h"