ARM GAS  C:\Users\brian\AppData\Local\Temp\ccvw3HOk.s 			page 1


   1              		.syntax unified
   2              		.cpu cortex-m3
   3              		.fpu softvfp
   4              		.eabi_attribute 20, 1
   5              		.eabi_attribute 21, 1
   6              		.eabi_attribute 23, 3
   7              		.eabi_attribute 24, 1
   8              		.eabi_attribute 25, 1
   9              		.eabi_attribute 26, 1
  10              		.eabi_attribute 30, 1
  11              		.eabi_attribute 34, 1
  12              		.eabi_attribute 18, 4
  13              		.thumb
  14              		.syntax unified
  15              		.file	"u8g2_ll_hvline.c"
  16              		.text
  17              	.Ltext0:
  18              		.cfi_sections	.debug_frame
  19              		.section	.text.u8g2_ll_hvline_vertical_top_lsb,"ax",%progbits
  20              		.align	2
  21              		.global	u8g2_ll_hvline_vertical_top_lsb
  22              		.thumb
  23              		.thumb_func
  24              		.type	u8g2_ll_hvline_vertical_top_lsb, %function
  25              	u8g2_ll_hvline_vertical_top_lsb:
  26              	.LFB0:
  27              		.file 1 "..\\u8g2\\csrc\\u8g2_ll_hvline.c"
   1:..\u8g2\csrc/u8g2_ll_hvline.c **** /*
   2:..\u8g2\csrc/u8g2_ll_hvline.c **** 
   3:..\u8g2\csrc/u8g2_ll_hvline.c ****   u8g2_ll_hvline.c
   4:..\u8g2\csrc/u8g2_ll_hvline.c ****   
   5:..\u8g2\csrc/u8g2_ll_hvline.c ****   low level hvline
   6:..\u8g2\csrc/u8g2_ll_hvline.c **** 
   7:..\u8g2\csrc/u8g2_ll_hvline.c ****   Universal 8bit Graphics Library (https://github.com/olikraus/u8g2/)
   8:..\u8g2\csrc/u8g2_ll_hvline.c **** 
   9:..\u8g2\csrc/u8g2_ll_hvline.c ****   Copyright (c) 2016, olikraus@gmail.com
  10:..\u8g2\csrc/u8g2_ll_hvline.c ****   All rights reserved.
  11:..\u8g2\csrc/u8g2_ll_hvline.c **** 
  12:..\u8g2\csrc/u8g2_ll_hvline.c ****   Redistribution and use in source and binary forms, with or without modification, 
  13:..\u8g2\csrc/u8g2_ll_hvline.c ****   are permitted provided that the following conditions are met:
  14:..\u8g2\csrc/u8g2_ll_hvline.c **** 
  15:..\u8g2\csrc/u8g2_ll_hvline.c ****   * Redistributions of source code must retain the above copyright notice, this list 
  16:..\u8g2\csrc/u8g2_ll_hvline.c ****     of conditions and the following disclaimer.
  17:..\u8g2\csrc/u8g2_ll_hvline.c ****     
  18:..\u8g2\csrc/u8g2_ll_hvline.c ****   * Redistributions in binary form must reproduce the above copyright notice, this 
  19:..\u8g2\csrc/u8g2_ll_hvline.c ****     list of conditions and the following disclaimer in the documentation and/or other 
  20:..\u8g2\csrc/u8g2_ll_hvline.c ****     materials provided with the distribution.
  21:..\u8g2\csrc/u8g2_ll_hvline.c **** 
  22:..\u8g2\csrc/u8g2_ll_hvline.c ****   THIS SOFTWARE IS PROVIDED BY THE COPYRIGHT HOLDERS AND 
  23:..\u8g2\csrc/u8g2_ll_hvline.c ****   CONTRIBUTORS "AS IS" AND ANY EXPRESS OR IMPLIED WARRANTIES, 
  24:..\u8g2\csrc/u8g2_ll_hvline.c ****   INCLUDING, BUT NOT LIMITED TO, THE IMPLIED WARRANTIES OF 
  25:..\u8g2\csrc/u8g2_ll_hvline.c ****   MERCHANTABILITY AND FITNESS FOR A PARTICULAR PURPOSE ARE 
  26:..\u8g2\csrc/u8g2_ll_hvline.c ****   DISCLAIMED. IN NO EVENT SHALL THE COPYRIGHT HOLDER OR 
  27:..\u8g2\csrc/u8g2_ll_hvline.c ****   CONTRIBUTORS BE LIABLE FOR ANY DIRECT, INDIRECT, INCIDENTAL, 
  28:..\u8g2\csrc/u8g2_ll_hvline.c ****   SPECIAL, EXEMPLARY, OR CONSEQUENTIAL DAMAGES (INCLUDING, BUT 
  29:..\u8g2\csrc/u8g2_ll_hvline.c ****   NOT LIMITED TO, PROCUREMENT OF SUBSTITUTE GOODS OR SERVICES; 
  30:..\u8g2\csrc/u8g2_ll_hvline.c ****   LOSS OF USE, DATA, OR PROFITS; OR BUSINESS INTERRUPTION) HOWEVER 
ARM GAS  C:\Users\brian\AppData\Local\Temp\ccvw3HOk.s 			page 2


  31:..\u8g2\csrc/u8g2_ll_hvline.c ****   CAUSED AND ON ANY THEORY OF LIABILITY, WHETHER IN CONTRACT, 
  32:..\u8g2\csrc/u8g2_ll_hvline.c ****   STRICT LIABILITY, OR TORT (INCLUDING NEGLIGENCE OR OTHERWISE) 
  33:..\u8g2\csrc/u8g2_ll_hvline.c ****   ARISING IN ANY WAY OUT OF THE USE OF THIS SOFTWARE, EVEN IF 
  34:..\u8g2\csrc/u8g2_ll_hvline.c ****   ADVISED OF THE POSSIBILITY OF SUCH DAMAGE.  
  35:..\u8g2\csrc/u8g2_ll_hvline.c **** 
  36:..\u8g2\csrc/u8g2_ll_hvline.c **** 
  37:..\u8g2\csrc/u8g2_ll_hvline.c ****   *ptr |= or_mask
  38:..\u8g2\csrc/u8g2_ll_hvline.c ****   *ptr ^= xor_mask
  39:..\u8g2\csrc/u8g2_ll_hvline.c ****   
  40:..\u8g2\csrc/u8g2_ll_hvline.c ****   color = 0:   or_mask = 1, xor_mask = 1
  41:..\u8g2\csrc/u8g2_ll_hvline.c ****   color = 1:   or_mask = 1, xor_mask = 0
  42:..\u8g2\csrc/u8g2_ll_hvline.c ****   color = 2:   or_mask = 0, xor_mask = 1
  43:..\u8g2\csrc/u8g2_ll_hvline.c **** 
  44:..\u8g2\csrc/u8g2_ll_hvline.c ****   if ( color <= 1 )
  45:..\u8g2\csrc/u8g2_ll_hvline.c ****     or_mask  = mask;
  46:..\u8g2\csrc/u8g2_ll_hvline.c ****   if ( color != 1 )
  47:..\u8g2\csrc/u8g2_ll_hvline.c ****     xor_mask = mask;
  48:..\u8g2\csrc/u8g2_ll_hvline.c ****     
  49:..\u8g2\csrc/u8g2_ll_hvline.c **** */
  50:..\u8g2\csrc/u8g2_ll_hvline.c **** 
  51:..\u8g2\csrc/u8g2_ll_hvline.c **** #include "u8g2.h"
  52:..\u8g2\csrc/u8g2_ll_hvline.c **** #include <assert.h>
  53:..\u8g2\csrc/u8g2_ll_hvline.c **** 
  54:..\u8g2\csrc/u8g2_ll_hvline.c **** /*=================================================*/
  55:..\u8g2\csrc/u8g2_ll_hvline.c **** /*
  56:..\u8g2\csrc/u8g2_ll_hvline.c ****   u8g2_ll_hvline_vertical_top_lsb
  57:..\u8g2\csrc/u8g2_ll_hvline.c ****     SSD13xx
  58:..\u8g2\csrc/u8g2_ll_hvline.c ****     UC1701    
  59:..\u8g2\csrc/u8g2_ll_hvline.c **** */
  60:..\u8g2\csrc/u8g2_ll_hvline.c **** 
  61:..\u8g2\csrc/u8g2_ll_hvline.c **** 
  62:..\u8g2\csrc/u8g2_ll_hvline.c **** #ifdef U8G2_WITH_HVLINE_SPEED_OPTIMIZATION
  63:..\u8g2\csrc/u8g2_ll_hvline.c **** 
  64:..\u8g2\csrc/u8g2_ll_hvline.c **** /*
  65:..\u8g2\csrc/u8g2_ll_hvline.c ****   x,y		Upper left position of the line within the local buffer (not the display!)
  66:..\u8g2\csrc/u8g2_ll_hvline.c ****   len		length of the line in pixel, len must not be 0
  67:..\u8g2\csrc/u8g2_ll_hvline.c ****   dir		0: horizontal line (left to right)
  68:..\u8g2\csrc/u8g2_ll_hvline.c **** 		1: vertical line (top to bottom)
  69:..\u8g2\csrc/u8g2_ll_hvline.c ****   asumption: 
  70:..\u8g2\csrc/u8g2_ll_hvline.c ****     all clipping done
  71:..\u8g2\csrc/u8g2_ll_hvline.c **** */
  72:..\u8g2\csrc/u8g2_ll_hvline.c **** void u8g2_ll_hvline_vertical_top_lsb(u8g2_t *u8g2, u8g2_uint_t x, u8g2_uint_t y, u8g2_uint_t len, u
  73:..\u8g2\csrc/u8g2_ll_hvline.c **** {
  28              		.loc 1 73 0
  29              		.cfi_startproc
  30              		@ args = 4, pretend = 0, frame = 0
  31              		@ frame_needed = 0, uses_anonymous_args = 0
  32              	.LVL0:
  33 0000 F0B5     		push	{r4, r5, r6, r7, lr}
  34              		.cfi_def_cfa_offset 20
  35              		.cfi_offset 4, -20
  36              		.cfi_offset 5, -16
  37              		.cfi_offset 6, -12
  38              		.cfi_offset 7, -8
  39              		.cfi_offset 14, -4
  40 0002 9DF814E0 		ldrb	lr, [sp, #20]	@ zero_extendqisi2
  41              	.LVL1:
ARM GAS  C:\Users\brian\AppData\Local\Temp\ccvw3HOk.s 			page 3


  74:..\u8g2\csrc/u8g2_ll_hvline.c ****   uint16_t offset;
  75:..\u8g2\csrc/u8g2_ll_hvline.c ****   uint8_t *ptr;
  76:..\u8g2\csrc/u8g2_ll_hvline.c ****   uint8_t bit_pos, mask;
  77:..\u8g2\csrc/u8g2_ll_hvline.c ****   uint8_t or_mask, xor_mask;
  78:..\u8g2\csrc/u8g2_ll_hvline.c **** #ifdef __unix
  79:..\u8g2\csrc/u8g2_ll_hvline.c ****   uint8_t *max_ptr = u8g2->tile_buf_ptr + u8g2_GetU8x8(u8g2)->display_info->tile_width*u8g2->tile_b
  80:..\u8g2\csrc/u8g2_ll_hvline.c **** #endif
  81:..\u8g2\csrc/u8g2_ll_hvline.c **** 
  82:..\u8g2\csrc/u8g2_ll_hvline.c ****   //assert(x >= u8g2->buf_x0);
  83:..\u8g2\csrc/u8g2_ll_hvline.c ****   //assert(x < u8g2_GetU8x8(u8g2)->display_info->tile_width*8);
  84:..\u8g2\csrc/u8g2_ll_hvline.c ****   //assert(y >= u8g2->buf_y0);
  85:..\u8g2\csrc/u8g2_ll_hvline.c ****   //assert(y < u8g2_GetU8x8(u8g2)->display_info->tile_height*8);
  86:..\u8g2\csrc/u8g2_ll_hvline.c ****   
  87:..\u8g2\csrc/u8g2_ll_hvline.c ****   /* bytes are vertical, lsb on top (y=0), msb at bottom (y=7) */
  88:..\u8g2\csrc/u8g2_ll_hvline.c ****   bit_pos = y;		/* overflow truncate is ok here... */
  89:..\u8g2\csrc/u8g2_ll_hvline.c ****   bit_pos &= 7; 	/* ... because only the lowest 3 bits are needed */
  42              		.loc 1 89 0
  43 0006 02F00704 		and	r4, r2, #7
  44              	.LVL2:
  90:..\u8g2\csrc/u8g2_ll_hvline.c ****   mask = 1;
  91:..\u8g2\csrc/u8g2_ll_hvline.c ****   mask <<= bit_pos;
  45              		.loc 1 91 0
  46 000a 0125     		movs	r5, #1
  47 000c A540     		lsls	r5, r5, r4
  48 000e EDB2     		uxtb	r5, r5
  49              	.LVL3:
  92:..\u8g2\csrc/u8g2_ll_hvline.c **** 
  93:..\u8g2\csrc/u8g2_ll_hvline.c ****   or_mask = 0;
  94:..\u8g2\csrc/u8g2_ll_hvline.c ****   xor_mask = 0;
  95:..\u8g2\csrc/u8g2_ll_hvline.c ****   if ( u8g2->draw_color <= 1 )
  50              		.loc 1 95 0
  51 0010 90F89270 		ldrb	r7, [r0, #146]	@ zero_extendqisi2
  52 0014 012F     		cmp	r7, #1
  53 0016 01D9     		bls	.L10
  93:..\u8g2\csrc/u8g2_ll_hvline.c ****   xor_mask = 0;
  54              		.loc 1 93 0
  55 0018 0026     		movs	r6, #0
  56 001a 00E0     		b	.L2
  57              	.L10:
  96:..\u8g2\csrc/u8g2_ll_hvline.c ****     or_mask  = mask;
  58              		.loc 1 96 0
  59 001c 2E46     		mov	r6, r5
  60              	.L2:
  61              	.LVL4:
  97:..\u8g2\csrc/u8g2_ll_hvline.c ****   if ( u8g2->draw_color != 1 )
  62              		.loc 1 97 0
  63 001e 012F     		cmp	r7, #1
  64 0020 00D1     		bne	.L3
  94:..\u8g2\csrc/u8g2_ll_hvline.c ****   if ( u8g2->draw_color <= 1 )
  65              		.loc 1 94 0
  66 0022 0025     		movs	r5, #0
  67              	.LVL5:
  68              	.L3:
  98:..\u8g2\csrc/u8g2_ll_hvline.c ****     xor_mask = mask;
  99:..\u8g2\csrc/u8g2_ll_hvline.c **** 
 100:..\u8g2\csrc/u8g2_ll_hvline.c **** 
 101:..\u8g2\csrc/u8g2_ll_hvline.c ****   offset = y;		/* y might be 8 or 16 bit, but we need 16 bit, so use a 16 bit variable */
ARM GAS  C:\Users\brian\AppData\Local\Temp\ccvw3HOk.s 			page 4


 102:..\u8g2\csrc/u8g2_ll_hvline.c ****   offset &= ~7;
  69              		.loc 1 102 0
  70 0024 22F00702 		bic	r2, r2, #7
  71              	.LVL6:
 103:..\u8g2\csrc/u8g2_ll_hvline.c ****   offset *= u8g2_GetU8x8(u8g2)->display_info->tile_width;
  72              		.loc 1 103 0
  73 0028 0768     		ldr	r7, [r0]
  74 002a 3F7C     		ldrb	r7, [r7, #16]	@ zero_extendqisi2
  75 002c 02FB07F2 		mul	r2, r2, r7
  76              	.LVL7:
  77 0030 92B2     		uxth	r2, r2
  78              	.LVL8:
 104:..\u8g2\csrc/u8g2_ll_hvline.c ****   ptr = u8g2->tile_buf_ptr;
  79              		.loc 1 104 0
  80 0032 476B     		ldr	r7, [r0, #52]
  81              	.LVL9:
 105:..\u8g2\csrc/u8g2_ll_hvline.c ****   ptr += offset;
 106:..\u8g2\csrc/u8g2_ll_hvline.c ****   ptr += x;
  82              		.loc 1 106 0
  83 0034 1144     		add	r1, r1, r2
  84              	.LVL10:
  85 0036 3944     		add	r1, r1, r7
  86              	.LVL11:
 107:..\u8g2\csrc/u8g2_ll_hvline.c ****   
 108:..\u8g2\csrc/u8g2_ll_hvline.c ****   if ( dir == 0 )
  87              		.loc 1 108 0
  88 0038 BEF1000F 		cmp	lr, #0
  89 003c 0AD1     		bne	.L4
  90              	.LVL12:
  91              	.L5:
 109:..\u8g2\csrc/u8g2_ll_hvline.c ****   {
 110:..\u8g2\csrc/u8g2_ll_hvline.c ****       do
 111:..\u8g2\csrc/u8g2_ll_hvline.c ****       {
 112:..\u8g2\csrc/u8g2_ll_hvline.c **** #ifdef __unix
 113:..\u8g2\csrc/u8g2_ll_hvline.c **** 	assert(ptr < max_ptr);
 114:..\u8g2\csrc/u8g2_ll_hvline.c **** #endif
 115:..\u8g2\csrc/u8g2_ll_hvline.c **** 	*ptr |= or_mask;
  92              		.loc 1 115 0 discriminator 1
  93 003e 0A78     		ldrb	r2, [r1]	@ zero_extendqisi2
  94 0040 3243     		orrs	r2, r2, r6
  95 0042 D2B2     		uxtb	r2, r2
 116:..\u8g2\csrc/u8g2_ll_hvline.c **** 	*ptr ^= xor_mask;
  96              		.loc 1 116 0 discriminator 1
  97 0044 6A40     		eors	r2, r2, r5
  98 0046 01F8012B 		strb	r2, [r1], #1
  99              	.LVL13:
 117:..\u8g2\csrc/u8g2_ll_hvline.c **** 	ptr++;
 118:..\u8g2\csrc/u8g2_ll_hvline.c **** 	len--;
 100              		.loc 1 118 0 discriminator 1
 101 004a 013B     		subs	r3, r3, #1
 102              	.LVL14:
 103 004c 9BB2     		uxth	r3, r3
 104              	.LVL15:
 119:..\u8g2\csrc/u8g2_ll_hvline.c ****       } while( len != 0 );
 105              		.loc 1 119 0 discriminator 1
 106 004e 002B     		cmp	r3, #0
 107 0050 F5D1     		bne	.L5
ARM GAS  C:\Users\brian\AppData\Local\Temp\ccvw3HOk.s 			page 5


 108 0052 F0BD     		pop	{r4, r5, r6, r7, pc}
 109              	.LVL16:
 110              	.L4:
 120:..\u8g2\csrc/u8g2_ll_hvline.c ****   }
 121:..\u8g2\csrc/u8g2_ll_hvline.c ****   else
 122:..\u8g2\csrc/u8g2_ll_hvline.c ****   {    
 123:..\u8g2\csrc/u8g2_ll_hvline.c ****     do
 124:..\u8g2\csrc/u8g2_ll_hvline.c ****     {
 125:..\u8g2\csrc/u8g2_ll_hvline.c **** #ifdef __unix
 126:..\u8g2\csrc/u8g2_ll_hvline.c ****       assert(ptr < max_ptr);
 127:..\u8g2\csrc/u8g2_ll_hvline.c **** #endif
 128:..\u8g2\csrc/u8g2_ll_hvline.c ****       *ptr |= or_mask;
 111              		.loc 1 128 0
 112 0054 0A78     		ldrb	r2, [r1]	@ zero_extendqisi2
 113 0056 3243     		orrs	r2, r2, r6
 114 0058 D2B2     		uxtb	r2, r2
 129:..\u8g2\csrc/u8g2_ll_hvline.c ****       *ptr ^= xor_mask;
 115              		.loc 1 129 0
 116 005a 6A40     		eors	r2, r2, r5
 117 005c 0A70     		strb	r2, [r1]
 130:..\u8g2\csrc/u8g2_ll_hvline.c ****       
 131:..\u8g2\csrc/u8g2_ll_hvline.c ****       bit_pos++;
 118              		.loc 1 131 0
 119 005e 621C     		adds	r2, r4, #1
 120              	.LVL17:
 132:..\u8g2\csrc/u8g2_ll_hvline.c ****       bit_pos &= 7;
 133:..\u8g2\csrc/u8g2_ll_hvline.c **** 
 134:..\u8g2\csrc/u8g2_ll_hvline.c ****       len--;
 121              		.loc 1 134 0
 122 0060 013B     		subs	r3, r3, #1
 123              	.LVL18:
 124 0062 9BB2     		uxth	r3, r3
 125              	.LVL19:
 135:..\u8g2\csrc/u8g2_ll_hvline.c **** 
 136:..\u8g2\csrc/u8g2_ll_hvline.c ****       if ( bit_pos == 0 )
 126              		.loc 1 136 0
 127 0064 12F00704 		ands	r4, r2, #7
 128 0068 09D1     		bne	.L7
 137:..\u8g2\csrc/u8g2_ll_hvline.c ****       {
 138:..\u8g2\csrc/u8g2_ll_hvline.c **** 	ptr+=u8g2->pixel_buf_width;	/* 6 Jan 17: Changed u8g2->width to u8g2->pixel_buf_width, issue #148 
 129              		.loc 1 138 0
 130 006a 428F     		ldrh	r2, [r0, #58]
 131              	.LVL20:
 132 006c 1144     		add	r1, r1, r2
 133              	.LVL21:
 139:..\u8g2\csrc/u8g2_ll_hvline.c **** 		
 140:..\u8g2\csrc/u8g2_ll_hvline.c **** 	if ( u8g2->draw_color <= 1 )
 134              		.loc 1 140 0
 135 006e 90F89220 		ldrb	r2, [r0, #146]	@ zero_extendqisi2
 136 0072 012A     		cmp	r2, #1
 137 0074 00D8     		bhi	.L8
 141:..\u8g2\csrc/u8g2_ll_hvline.c **** 	  or_mask  = 1;
 138              		.loc 1 141 0
 139 0076 0126     		movs	r6, #1
 140              	.LVL22:
 141              	.L8:
 142:..\u8g2\csrc/u8g2_ll_hvline.c **** 	if ( u8g2->draw_color != 1 )
ARM GAS  C:\Users\brian\AppData\Local\Temp\ccvw3HOk.s 			page 6


 142              		.loc 1 142 0
 143 0078 012A     		cmp	r2, #1
 144 007a 05D1     		bne	.L12
 145 007c 05E0     		b	.L9
 146              	.LVL23:
 147              	.L7:
 143:..\u8g2\csrc/u8g2_ll_hvline.c **** 	  xor_mask = 1;
 144:..\u8g2\csrc/u8g2_ll_hvline.c ****       }
 145:..\u8g2\csrc/u8g2_ll_hvline.c ****       else
 146:..\u8g2\csrc/u8g2_ll_hvline.c ****       {
 147:..\u8g2\csrc/u8g2_ll_hvline.c **** 	or_mask <<= 1;
 148              		.loc 1 147 0
 149 007e 7600     		lsls	r6, r6, #1
 150              	.LVL24:
 151 0080 F6B2     		uxtb	r6, r6
 152              	.LVL25:
 148:..\u8g2\csrc/u8g2_ll_hvline.c **** 	xor_mask <<= 1;
 153              		.loc 1 148 0
 154 0082 6D00     		lsls	r5, r5, #1
 155              	.LVL26:
 156 0084 EDB2     		uxtb	r5, r5
 157              	.LVL27:
 158 0086 00E0     		b	.L9
 159              	.LVL28:
 160              	.L12:
 143:..\u8g2\csrc/u8g2_ll_hvline.c **** 	  xor_mask = 1;
 161              		.loc 1 143 0
 162 0088 0125     		movs	r5, #1
 163              	.LVL29:
 164              	.L9:
 149:..\u8g2\csrc/u8g2_ll_hvline.c ****       }
 150:..\u8g2\csrc/u8g2_ll_hvline.c ****     } while( len != 0 );
 165              		.loc 1 150 0
 166 008a 002B     		cmp	r3, #0
 167 008c E2D1     		bne	.L4
 168 008e F0BD     		pop	{r4, r5, r6, r7, pc}
 169              		.cfi_endproc
 170              	.LFE0:
 171              		.size	u8g2_ll_hvline_vertical_top_lsb, .-u8g2_ll_hvline_vertical_top_lsb
 172              		.section	.text.u8g2_ll_hvline_horizontal_right_lsb,"ax",%progbits
 173              		.align	2
 174              		.global	u8g2_ll_hvline_horizontal_right_lsb
 175              		.thumb
 176              		.thumb_func
 177              		.type	u8g2_ll_hvline_horizontal_right_lsb, %function
 178              	u8g2_ll_hvline_horizontal_right_lsb:
 179              	.LFB1:
 151:..\u8g2\csrc/u8g2_ll_hvline.c ****   }
 152:..\u8g2\csrc/u8g2_ll_hvline.c **** }
 153:..\u8g2\csrc/u8g2_ll_hvline.c **** 
 154:..\u8g2\csrc/u8g2_ll_hvline.c **** 
 155:..\u8g2\csrc/u8g2_ll_hvline.c **** 
 156:..\u8g2\csrc/u8g2_ll_hvline.c **** #else /* U8G2_WITH_HVLINE_SPEED_OPTIMIZATION */
 157:..\u8g2\csrc/u8g2_ll_hvline.c **** 
 158:..\u8g2\csrc/u8g2_ll_hvline.c **** /*
 159:..\u8g2\csrc/u8g2_ll_hvline.c ****   x,y position within the buffer
 160:..\u8g2\csrc/u8g2_ll_hvline.c **** */
ARM GAS  C:\Users\brian\AppData\Local\Temp\ccvw3HOk.s 			page 7


 161:..\u8g2\csrc/u8g2_ll_hvline.c **** static void u8g2_draw_pixel_vertical_top_lsb(u8g2_t *u8g2, u8g2_uint_t x, u8g2_uint_t y)
 162:..\u8g2\csrc/u8g2_ll_hvline.c **** {
 163:..\u8g2\csrc/u8g2_ll_hvline.c ****   uint16_t offset;
 164:..\u8g2\csrc/u8g2_ll_hvline.c ****   uint8_t *ptr;
 165:..\u8g2\csrc/u8g2_ll_hvline.c ****   uint8_t bit_pos, mask;
 166:..\u8g2\csrc/u8g2_ll_hvline.c ****   
 167:..\u8g2\csrc/u8g2_ll_hvline.c ****   //assert(x >= u8g2->buf_x0);
 168:..\u8g2\csrc/u8g2_ll_hvline.c ****   //assert(x < u8g2_GetU8x8(u8g2)->display_info->tile_width*8);
 169:..\u8g2\csrc/u8g2_ll_hvline.c ****   //assert(y >= u8g2->buf_y0);
 170:..\u8g2\csrc/u8g2_ll_hvline.c ****   //assert(y < u8g2_GetU8x8(u8g2)->display_info->tile_height*8);
 171:..\u8g2\csrc/u8g2_ll_hvline.c ****   
 172:..\u8g2\csrc/u8g2_ll_hvline.c ****   /* bytes are vertical, lsb on top (y=0), msb at bottom (y=7) */
 173:..\u8g2\csrc/u8g2_ll_hvline.c ****   bit_pos = y;		/* overflow truncate is ok here... */
 174:..\u8g2\csrc/u8g2_ll_hvline.c ****   bit_pos &= 7; 	/* ... because only the lowest 3 bits are needed */
 175:..\u8g2\csrc/u8g2_ll_hvline.c ****   mask = 1;
 176:..\u8g2\csrc/u8g2_ll_hvline.c ****   mask <<= bit_pos;
 177:..\u8g2\csrc/u8g2_ll_hvline.c **** 
 178:..\u8g2\csrc/u8g2_ll_hvline.c ****   offset = y;		/* y might be 8 or 16 bit, but we need 16 bit, so use a 16 bit variable */
 179:..\u8g2\csrc/u8g2_ll_hvline.c ****   offset &= ~7;
 180:..\u8g2\csrc/u8g2_ll_hvline.c ****   offset *= u8g2_GetU8x8(u8g2)->display_info->tile_width;
 181:..\u8g2\csrc/u8g2_ll_hvline.c ****   ptr = u8g2->tile_buf_ptr;
 182:..\u8g2\csrc/u8g2_ll_hvline.c ****   ptr += offset;
 183:..\u8g2\csrc/u8g2_ll_hvline.c ****   ptr += x;
 184:..\u8g2\csrc/u8g2_ll_hvline.c **** 
 185:..\u8g2\csrc/u8g2_ll_hvline.c **** 
 186:..\u8g2\csrc/u8g2_ll_hvline.c ****   if ( u8g2->draw_color <= 1 )
 187:..\u8g2\csrc/u8g2_ll_hvline.c ****     *ptr |= mask;
 188:..\u8g2\csrc/u8g2_ll_hvline.c ****   if ( u8g2->draw_color != 1 )
 189:..\u8g2\csrc/u8g2_ll_hvline.c ****     *ptr ^= mask;
 190:..\u8g2\csrc/u8g2_ll_hvline.c **** 
 191:..\u8g2\csrc/u8g2_ll_hvline.c **** }
 192:..\u8g2\csrc/u8g2_ll_hvline.c **** 
 193:..\u8g2\csrc/u8g2_ll_hvline.c **** /*
 194:..\u8g2\csrc/u8g2_ll_hvline.c ****   x,y		Upper left position of the line within the local buffer (not the display!)
 195:..\u8g2\csrc/u8g2_ll_hvline.c ****   len		length of the line in pixel, len must not be 0
 196:..\u8g2\csrc/u8g2_ll_hvline.c ****   dir		0: horizontal line (left to right)
 197:..\u8g2\csrc/u8g2_ll_hvline.c **** 		1: vertical line (top to bottom)
 198:..\u8g2\csrc/u8g2_ll_hvline.c ****   asumption: 
 199:..\u8g2\csrc/u8g2_ll_hvline.c ****     all clipping done
 200:..\u8g2\csrc/u8g2_ll_hvline.c **** */
 201:..\u8g2\csrc/u8g2_ll_hvline.c **** void u8g2_ll_hvline_vertical_top_lsb(u8g2_t *u8g2, u8g2_uint_t x, u8g2_uint_t y, u8g2_uint_t len, u
 202:..\u8g2\csrc/u8g2_ll_hvline.c **** {
 203:..\u8g2\csrc/u8g2_ll_hvline.c ****   if ( dir == 0 )
 204:..\u8g2\csrc/u8g2_ll_hvline.c ****   {
 205:..\u8g2\csrc/u8g2_ll_hvline.c ****     do
 206:..\u8g2\csrc/u8g2_ll_hvline.c ****     {
 207:..\u8g2\csrc/u8g2_ll_hvline.c ****       u8g2_draw_pixel_vertical_top_lsb(u8g2, x, y);
 208:..\u8g2\csrc/u8g2_ll_hvline.c ****       x++;
 209:..\u8g2\csrc/u8g2_ll_hvline.c ****       len--;
 210:..\u8g2\csrc/u8g2_ll_hvline.c ****     } while( len != 0 );
 211:..\u8g2\csrc/u8g2_ll_hvline.c ****   }
 212:..\u8g2\csrc/u8g2_ll_hvline.c ****   else
 213:..\u8g2\csrc/u8g2_ll_hvline.c ****   {
 214:..\u8g2\csrc/u8g2_ll_hvline.c ****     do
 215:..\u8g2\csrc/u8g2_ll_hvline.c ****     {
 216:..\u8g2\csrc/u8g2_ll_hvline.c ****       u8g2_draw_pixel_vertical_top_lsb(u8g2, x, y);
 217:..\u8g2\csrc/u8g2_ll_hvline.c ****       y++;
ARM GAS  C:\Users\brian\AppData\Local\Temp\ccvw3HOk.s 			page 8


 218:..\u8g2\csrc/u8g2_ll_hvline.c ****       len--;
 219:..\u8g2\csrc/u8g2_ll_hvline.c ****     } while( len != 0 );
 220:..\u8g2\csrc/u8g2_ll_hvline.c ****   }
 221:..\u8g2\csrc/u8g2_ll_hvline.c **** }
 222:..\u8g2\csrc/u8g2_ll_hvline.c **** 
 223:..\u8g2\csrc/u8g2_ll_hvline.c **** 
 224:..\u8g2\csrc/u8g2_ll_hvline.c **** #endif /* U8G2_WITH_HVLINE_SPEED_OPTIMIZATION */
 225:..\u8g2\csrc/u8g2_ll_hvline.c **** 
 226:..\u8g2\csrc/u8g2_ll_hvline.c **** /*=================================================*/
 227:..\u8g2\csrc/u8g2_ll_hvline.c **** /*
 228:..\u8g2\csrc/u8g2_ll_hvline.c ****   u8g2_ll_hvline_horizontal_right_lsb
 229:..\u8g2\csrc/u8g2_ll_hvline.c ****     ST7920
 230:..\u8g2\csrc/u8g2_ll_hvline.c **** */
 231:..\u8g2\csrc/u8g2_ll_hvline.c **** 
 232:..\u8g2\csrc/u8g2_ll_hvline.c **** #ifdef U8G2_WITH_HVLINE_SPEED_OPTIMIZATION
 233:..\u8g2\csrc/u8g2_ll_hvline.c **** 
 234:..\u8g2\csrc/u8g2_ll_hvline.c **** /*
 235:..\u8g2\csrc/u8g2_ll_hvline.c ****   x,y		Upper left position of the line within the local buffer (not the display!)
 236:..\u8g2\csrc/u8g2_ll_hvline.c ****   len		length of the line in pixel, len must not be 0
 237:..\u8g2\csrc/u8g2_ll_hvline.c ****   dir		0: horizontal line (left to right)
 238:..\u8g2\csrc/u8g2_ll_hvline.c **** 		1: vertical line (top to bottom)
 239:..\u8g2\csrc/u8g2_ll_hvline.c ****   asumption: 
 240:..\u8g2\csrc/u8g2_ll_hvline.c ****     all clipping done
 241:..\u8g2\csrc/u8g2_ll_hvline.c **** */
 242:..\u8g2\csrc/u8g2_ll_hvline.c **** 
 243:..\u8g2\csrc/u8g2_ll_hvline.c **** /* SH1122, LD7032, ST7920, ST7986, LC7981, T6963, SED1330, RA8835, MAX7219, LS0 */ 
 244:..\u8g2\csrc/u8g2_ll_hvline.c **** void u8g2_ll_hvline_horizontal_right_lsb(u8g2_t *u8g2, u8g2_uint_t x, u8g2_uint_t y, u8g2_uint_t le
 245:..\u8g2\csrc/u8g2_ll_hvline.c **** {
 180              		.loc 1 245 0
 181              		.cfi_startproc
 182              		@ args = 4, pretend = 0, frame = 0
 183              		@ frame_needed = 0, uses_anonymous_args = 0
 184              		@ link register save eliminated.
 185              	.LVL30:
 186 0000 F0B4     		push	{r4, r5, r6, r7}
 187              		.cfi_def_cfa_offset 16
 188              		.cfi_offset 4, -16
 189              		.cfi_offset 5, -12
 190              		.cfi_offset 6, -8
 191              		.cfi_offset 7, -4
 192 0002 9DF81060 		ldrb	r6, [sp, #16]	@ zero_extendqisi2
 246:..\u8g2\csrc/u8g2_ll_hvline.c ****   uint16_t offset;
 247:..\u8g2\csrc/u8g2_ll_hvline.c ****   uint8_t *ptr;
 248:..\u8g2\csrc/u8g2_ll_hvline.c ****   uint8_t bit_pos;
 249:..\u8g2\csrc/u8g2_ll_hvline.c ****   uint8_t mask;
 250:..\u8g2\csrc/u8g2_ll_hvline.c ****   uint8_t tile_width = u8g2_GetU8x8(u8g2)->display_info->tile_width;
 193              		.loc 1 250 0
 194 0006 0468     		ldr	r4, [r0]
 195 0008 257C     		ldrb	r5, [r4, #16]	@ zero_extendqisi2
 196              	.LVL31:
 251:..\u8g2\csrc/u8g2_ll_hvline.c **** 
 252:..\u8g2\csrc/u8g2_ll_hvline.c ****   bit_pos = x;		/* overflow truncate is ok here... */
 253:..\u8g2\csrc/u8g2_ll_hvline.c ****   bit_pos &= 7; 	/* ... because only the lowest 3 bits are needed */
 197              		.loc 1 253 0
 198 000a 01F00707 		and	r7, r1, #7
 199              	.LVL32:
 254:..\u8g2\csrc/u8g2_ll_hvline.c ****   mask = 128;
ARM GAS  C:\Users\brian\AppData\Local\Temp\ccvw3HOk.s 			page 9


 255:..\u8g2\csrc/u8g2_ll_hvline.c ****   mask >>= bit_pos;
 200              		.loc 1 255 0
 201 000e 8024     		movs	r4, #128
 202 0010 3C41     		asrs	r4, r4, r7
 203 0012 E4B2     		uxtb	r4, r4
 204              	.LVL33:
 256:..\u8g2\csrc/u8g2_ll_hvline.c **** 
 257:..\u8g2\csrc/u8g2_ll_hvline.c ****   offset = y;		/* y might be 8 or 16 bit, but we need 16 bit, so use a 16 bit variable */
 258:..\u8g2\csrc/u8g2_ll_hvline.c ****   offset *= tile_width;
 205              		.loc 1 258 0
 206 0014 05FB02F2 		mul	r2, r5, r2
 207              	.LVL34:
 208 0018 92B2     		uxth	r2, r2
 209              	.LVL35:
 259:..\u8g2\csrc/u8g2_ll_hvline.c ****   offset += x>>3;
 210              		.loc 1 259 0
 211 001a 02EBD101 		add	r1, r2, r1, lsr #3
 212              	.LVL36:
 213 001e 89B2     		uxth	r1, r1
 214              	.LVL37:
 260:..\u8g2\csrc/u8g2_ll_hvline.c ****   ptr = u8g2->tile_buf_ptr;
 215              		.loc 1 260 0
 216 0020 426B     		ldr	r2, [r0, #52]
 217              	.LVL38:
 261:..\u8g2\csrc/u8g2_ll_hvline.c ****   ptr += offset;
 218              		.loc 1 261 0
 219 0022 0A44     		add	r2, r2, r1
 220              	.LVL39:
 262:..\u8g2\csrc/u8g2_ll_hvline.c ****   
 263:..\u8g2\csrc/u8g2_ll_hvline.c ****   if ( dir == 0 )
 221              		.loc 1 263 0
 222 0024 B6B9     		cbnz	r6, .L15
 223              	.LVL40:
 224              	.L19:
 264:..\u8g2\csrc/u8g2_ll_hvline.c ****   {
 265:..\u8g2\csrc/u8g2_ll_hvline.c ****       
 266:..\u8g2\csrc/u8g2_ll_hvline.c ****     do
 267:..\u8g2\csrc/u8g2_ll_hvline.c ****     {
 268:..\u8g2\csrc/u8g2_ll_hvline.c **** 
 269:..\u8g2\csrc/u8g2_ll_hvline.c ****       if ( u8g2->draw_color <= 1 )
 225              		.loc 1 269 0
 226 0026 90F89210 		ldrb	r1, [r0, #146]	@ zero_extendqisi2
 227 002a 0129     		cmp	r1, #1
 228 002c 02D8     		bhi	.L16
 270:..\u8g2\csrc/u8g2_ll_hvline.c **** 	*ptr |= mask;
 229              		.loc 1 270 0
 230 002e 1178     		ldrb	r1, [r2]	@ zero_extendqisi2
 231 0030 2143     		orrs	r1, r1, r4
 232 0032 1170     		strb	r1, [r2]
 233              	.L16:
 271:..\u8g2\csrc/u8g2_ll_hvline.c ****       if ( u8g2->draw_color != 1 )
 234              		.loc 1 271 0
 235 0034 90F89210 		ldrb	r1, [r0, #146]	@ zero_extendqisi2
 236 0038 0129     		cmp	r1, #1
 237 003a 02D0     		beq	.L17
 272:..\u8g2\csrc/u8g2_ll_hvline.c **** 	*ptr ^= mask;
 238              		.loc 1 272 0
ARM GAS  C:\Users\brian\AppData\Local\Temp\ccvw3HOk.s 			page 10


 239 003c 1178     		ldrb	r1, [r2]	@ zero_extendqisi2
 240 003e 6140     		eors	r1, r1, r4
 241 0040 1170     		strb	r1, [r2]
 242              	.L17:
 243              	.LVL41:
 273:..\u8g2\csrc/u8g2_ll_hvline.c ****       
 274:..\u8g2\csrc/u8g2_ll_hvline.c ****       mask >>= 1;
 275:..\u8g2\csrc/u8g2_ll_hvline.c ****       if ( mask == 0 )
 244              		.loc 1 275 0
 245 0042 6408     		lsrs	r4, r4, #1
 246              	.LVL42:
 247 0044 01D1     		bne	.L18
 248              	.LVL43:
 276:..\u8g2\csrc/u8g2_ll_hvline.c ****       {
 277:..\u8g2\csrc/u8g2_ll_hvline.c **** 	mask = 128;
 278:..\u8g2\csrc/u8g2_ll_hvline.c ****         ptr++;
 249              		.loc 1 278 0
 250 0046 0132     		adds	r2, r2, #1
 251              	.LVL44:
 277:..\u8g2\csrc/u8g2_ll_hvline.c ****         ptr++;
 252              		.loc 1 277 0
 253 0048 8024     		movs	r4, #128
 254              	.LVL45:
 255              	.L18:
 279:..\u8g2\csrc/u8g2_ll_hvline.c ****       }
 280:..\u8g2\csrc/u8g2_ll_hvline.c ****       
 281:..\u8g2\csrc/u8g2_ll_hvline.c ****       //x++;
 282:..\u8g2\csrc/u8g2_ll_hvline.c ****       len--;
 256              		.loc 1 282 0
 257 004a 013B     		subs	r3, r3, #1
 258              	.LVL46:
 259 004c 9BB2     		uxth	r3, r3
 260              	.LVL47:
 283:..\u8g2\csrc/u8g2_ll_hvline.c ****     } while( len != 0 );
 261              		.loc 1 283 0
 262 004e 002B     		cmp	r3, #0
 263 0050 E9D1     		bne	.L19
 264 0052 12E0     		b	.L14
 265              	.L15:
 284:..\u8g2\csrc/u8g2_ll_hvline.c ****   }
 285:..\u8g2\csrc/u8g2_ll_hvline.c ****   else
 286:..\u8g2\csrc/u8g2_ll_hvline.c ****   {
 287:..\u8g2\csrc/u8g2_ll_hvline.c ****     do
 288:..\u8g2\csrc/u8g2_ll_hvline.c ****     {
 289:..\u8g2\csrc/u8g2_ll_hvline.c ****       if ( u8g2->draw_color <= 1 )
 266              		.loc 1 289 0
 267 0054 90F89210 		ldrb	r1, [r0, #146]	@ zero_extendqisi2
 268 0058 0129     		cmp	r1, #1
 269 005a 02D8     		bhi	.L21
 290:..\u8g2\csrc/u8g2_ll_hvline.c **** 	*ptr |= mask;
 270              		.loc 1 290 0
 271 005c 1178     		ldrb	r1, [r2]	@ zero_extendqisi2
 272 005e 2143     		orrs	r1, r1, r4
 273 0060 1170     		strb	r1, [r2]
 274              	.L21:
 291:..\u8g2\csrc/u8g2_ll_hvline.c ****       if ( u8g2->draw_color != 1 )
 275              		.loc 1 291 0
ARM GAS  C:\Users\brian\AppData\Local\Temp\ccvw3HOk.s 			page 11


 276 0062 90F89210 		ldrb	r1, [r0, #146]	@ zero_extendqisi2
 277 0066 0129     		cmp	r1, #1
 278 0068 02D0     		beq	.L22
 292:..\u8g2\csrc/u8g2_ll_hvline.c **** 	*ptr ^= mask;
 279              		.loc 1 292 0
 280 006a 1178     		ldrb	r1, [r2]	@ zero_extendqisi2
 281 006c 6140     		eors	r1, r1, r4
 282 006e 1170     		strb	r1, [r2]
 283              	.L22:
 293:..\u8g2\csrc/u8g2_ll_hvline.c ****       
 294:..\u8g2\csrc/u8g2_ll_hvline.c ****       ptr += tile_width;
 284              		.loc 1 294 0
 285 0070 2A44     		add	r2, r2, r5
 286              	.LVL48:
 295:..\u8g2\csrc/u8g2_ll_hvline.c ****       //y++;
 296:..\u8g2\csrc/u8g2_ll_hvline.c ****       len--;
 287              		.loc 1 296 0
 288 0072 013B     		subs	r3, r3, #1
 289              	.LVL49:
 290 0074 9BB2     		uxth	r3, r3
 291              	.LVL50:
 297:..\u8g2\csrc/u8g2_ll_hvline.c ****     } while( len != 0 );
 292              		.loc 1 297 0
 293 0076 002B     		cmp	r3, #0
 294 0078 ECD1     		bne	.L15
 295              	.L14:
 298:..\u8g2\csrc/u8g2_ll_hvline.c ****   }
 299:..\u8g2\csrc/u8g2_ll_hvline.c **** }
 296              		.loc 1 299 0
 297 007a F0BC     		pop	{r4, r5, r6, r7}
 298              		.cfi_restore 7
 299              		.cfi_restore 6
 300              		.cfi_restore 5
 301              		.cfi_restore 4
 302              		.cfi_def_cfa_offset 0
 303              	.LVL51:
 304 007c 7047     		bx	lr
 305              		.cfi_endproc
 306              	.LFE1:
 307              		.size	u8g2_ll_hvline_horizontal_right_lsb, .-u8g2_ll_hvline_horizontal_right_lsb
 308 007e 00BF     		.text
 309              	.Letext0:
 310              		.file 2 "c:\\program files (x86)\\cypress\\psoc creator\\4.4\\psoc creator\\import\\gnu\\arm\\5.4.
 311              		.file 3 "c:\\program files (x86)\\cypress\\psoc creator\\4.4\\psoc creator\\import\\gnu\\arm\\5.4.
 312              		.file 4 "..\\u8g2\\csrc\\u8x8.h"
 313              		.file 5 "..\\u8g2\\csrc\\u8g2.h"