ARM GAS  C:\Users\brian\AppData\Local\Temp\cc1MUoXc.s 			page 1


   1              		.syntax unified
   2              		.cpu cortex-m3
   3              		.fpu softvfp
   4              		.eabi_attribute 20, 1
   5              		.eabi_attribute 21, 1
   6              		.eabi_attribute 23, 3
   7              		.eabi_attribute 24, 1
   8              		.eabi_attribute 25, 1
   9              		.eabi_attribute 26, 1
  10              		.eabi_attribute 30, 1
  11              		.eabi_attribute 34, 1
  12              		.eabi_attribute 18, 4
  13              		.thumb
  14              		.syntax unified
  15              		.file	"u8g2_line.c"
  16              		.text
  17              	.Ltext0:
  18              		.cfi_sections	.debug_frame
  19              		.section	.text.u8g2_DrawLine,"ax",%progbits
  20              		.align	2
  21              		.global	u8g2_DrawLine
  22              		.thumb
  23              		.thumb_func
  24              		.type	u8g2_DrawLine, %function
  25              	u8g2_DrawLine:
  26              	.LFB0:
  27              		.file 1 "..\\u8g2\\csrc\\u8g2_line.c"
   1:..\u8g2\csrc/u8g2_line.c **** /*
   2:..\u8g2\csrc/u8g2_line.c **** 
   3:..\u8g2\csrc/u8g2_line.c ****   u8g2_box.c
   4:..\u8g2\csrc/u8g2_line.c **** 
   5:..\u8g2\csrc/u8g2_line.c ****   Universal 8bit Graphics Library (https://github.com/olikraus/u8g2/)
   6:..\u8g2\csrc/u8g2_line.c **** 
   7:..\u8g2\csrc/u8g2_line.c ****   Copyright (c) 2016, olikraus@gmail.com
   8:..\u8g2\csrc/u8g2_line.c ****   All rights reserved.
   9:..\u8g2\csrc/u8g2_line.c **** 
  10:..\u8g2\csrc/u8g2_line.c ****   Redistribution and use in source and binary forms, with or without modification, 
  11:..\u8g2\csrc/u8g2_line.c ****   are permitted provided that the following conditions are met:
  12:..\u8g2\csrc/u8g2_line.c **** 
  13:..\u8g2\csrc/u8g2_line.c ****   * Redistributions of source code must retain the above copyright notice, this list 
  14:..\u8g2\csrc/u8g2_line.c ****     of conditions and the following disclaimer.
  15:..\u8g2\csrc/u8g2_line.c ****     
  16:..\u8g2\csrc/u8g2_line.c ****   * Redistributions in binary form must reproduce the above copyright notice, this 
  17:..\u8g2\csrc/u8g2_line.c ****     list of conditions and the following disclaimer in the documentation and/or other 
  18:..\u8g2\csrc/u8g2_line.c ****     materials provided with the distribution.
  19:..\u8g2\csrc/u8g2_line.c **** 
  20:..\u8g2\csrc/u8g2_line.c ****   THIS SOFTWARE IS PROVIDED BY THE COPYRIGHT HOLDERS AND 
  21:..\u8g2\csrc/u8g2_line.c ****   CONTRIBUTORS "AS IS" AND ANY EXPRESS OR IMPLIED WARRANTIES, 
  22:..\u8g2\csrc/u8g2_line.c ****   INCLUDING, BUT NOT LIMITED TO, THE IMPLIED WARRANTIES OF 
  23:..\u8g2\csrc/u8g2_line.c ****   MERCHANTABILITY AND FITNESS FOR A PARTICULAR PURPOSE ARE 
  24:..\u8g2\csrc/u8g2_line.c ****   DISCLAIMED. IN NO EVENT SHALL THE COPYRIGHT HOLDER OR 
  25:..\u8g2\csrc/u8g2_line.c ****   CONTRIBUTORS BE LIABLE FOR ANY DIRECT, INDIRECT, INCIDENTAL, 
  26:..\u8g2\csrc/u8g2_line.c ****   SPECIAL, EXEMPLARY, OR CONSEQUENTIAL DAMAGES (INCLUDING, BUT 
  27:..\u8g2\csrc/u8g2_line.c ****   NOT LIMITED TO, PROCUREMENT OF SUBSTITUTE GOODS OR SERVICES; 
  28:..\u8g2\csrc/u8g2_line.c ****   LOSS OF USE, DATA, OR PROFITS; OR BUSINESS INTERRUPTION) HOWEVER 
  29:..\u8g2\csrc/u8g2_line.c ****   CAUSED AND ON ANY THEORY OF LIABILITY, WHETHER IN CONTRACT, 
  30:..\u8g2\csrc/u8g2_line.c ****   STRICT LIABILITY, OR TORT (INCLUDING NEGLIGENCE OR OTHERWISE) 
ARM GAS  C:\Users\brian\AppData\Local\Temp\cc1MUoXc.s 			page 2


  31:..\u8g2\csrc/u8g2_line.c ****   ARISING IN ANY WAY OUT OF THE USE OF THIS SOFTWARE, EVEN IF 
  32:..\u8g2\csrc/u8g2_line.c ****   ADVISED OF THE POSSIBILITY OF SUCH DAMAGE.  
  33:..\u8g2\csrc/u8g2_line.c **** 
  34:..\u8g2\csrc/u8g2_line.c **** */
  35:..\u8g2\csrc/u8g2_line.c **** 
  36:..\u8g2\csrc/u8g2_line.c **** #include "u8g2.h"
  37:..\u8g2\csrc/u8g2_line.c **** 
  38:..\u8g2\csrc/u8g2_line.c **** 
  39:..\u8g2\csrc/u8g2_line.c **** void u8g2_DrawLine(u8g2_t *u8g2, u8g2_uint_t x1, u8g2_uint_t y1, u8g2_uint_t x2, u8g2_uint_t y2)
  40:..\u8g2\csrc/u8g2_line.c **** {
  28              		.loc 1 40 0
  29              		.cfi_startproc
  30              		@ args = 4, pretend = 0, frame = 8
  31              		@ frame_needed = 0, uses_anonymous_args = 0
  32              	.LVL0:
  33 0000 2DE9F04F 		push	{r4, r5, r6, r7, r8, r9, r10, fp, lr}
  34              		.cfi_def_cfa_offset 36
  35              		.cfi_offset 4, -36
  36              		.cfi_offset 5, -32
  37              		.cfi_offset 6, -28
  38              		.cfi_offset 7, -24
  39              		.cfi_offset 8, -20
  40              		.cfi_offset 9, -16
  41              		.cfi_offset 10, -12
  42              		.cfi_offset 11, -8
  43              		.cfi_offset 14, -4
  44 0004 83B0     		sub	sp, sp, #12
  45              		.cfi_def_cfa_offset 48
  46 0006 8246     		mov	r10, r0
  47 0008 0C46     		mov	r4, r1
  48 000a 1646     		mov	r6, r2
  49 000c 1F46     		mov	r7, r3
  50 000e BDF83030 		ldrh	r3, [sp, #48]
  51              	.LVL1:
  41:..\u8g2\csrc/u8g2_line.c ****   u8g2_uint_t tmp;
  42:..\u8g2\csrc/u8g2_line.c ****   u8g2_uint_t x,y;
  43:..\u8g2\csrc/u8g2_line.c ****   u8g2_uint_t dx, dy;
  44:..\u8g2\csrc/u8g2_line.c ****   u8g2_int_t err;
  45:..\u8g2\csrc/u8g2_line.c ****   u8g2_int_t ystep;
  46:..\u8g2\csrc/u8g2_line.c **** 
  47:..\u8g2\csrc/u8g2_line.c ****   uint8_t swapxy = 0;
  48:..\u8g2\csrc/u8g2_line.c ****   
  49:..\u8g2\csrc/u8g2_line.c ****   /* no intersection check at the moment, should be added... */
  50:..\u8g2\csrc/u8g2_line.c **** 
  51:..\u8g2\csrc/u8g2_line.c ****   if ( x1 > x2 ) dx = x1-x2; else dx = x2-x1;
  52              		.loc 1 51 0
  53 0012 B942     		cmp	r1, r7
  54 0014 04D9     		bls	.L2
  55              		.loc 1 51 0 is_stmt 0 discriminator 1
  56 0016 C7EB0108 		rsb	r8, r7, r1
  57 001a 1FFA88F8 		uxth	r8, r8
  58              	.LVL2:
  59 001e 03E0     		b	.L3
  60              	.LVL3:
  61              	.L2:
  62              		.loc 1 51 0 discriminator 2
  63 0020 C1EB0708 		rsb	r8, r1, r7
ARM GAS  C:\Users\brian\AppData\Local\Temp\cc1MUoXc.s 			page 3


  64 0024 1FFA88F8 		uxth	r8, r8
  65              	.LVL4:
  66              	.L3:
  52:..\u8g2\csrc/u8g2_line.c ****   if ( y1 > y2 ) dy = y1-y2; else dy = y2-y1;
  67              		.loc 1 52 0 is_stmt 1
  68 0028 9E42     		cmp	r6, r3
  69 002a 04D9     		bls	.L4
  70              		.loc 1 52 0 is_stmt 0 discriminator 1
  71 002c C3EB060B 		rsb	fp, r3, r6
  72 0030 1FFA8BFB 		uxth	fp, fp
  73              	.LVL5:
  74 0034 03E0     		b	.L5
  75              	.LVL6:
  76              	.L4:
  77              		.loc 1 52 0 discriminator 2
  78 0036 C6EB030B 		rsb	fp, r6, r3
  79 003a 1FFA8BFB 		uxth	fp, fp
  80              	.LVL7:
  81              	.L5:
  53:..\u8g2\csrc/u8g2_line.c **** 
  54:..\u8g2\csrc/u8g2_line.c ****   if ( dy > dx ) 
  82              		.loc 1 54 0 is_stmt 1
  83 003e D845     		cmp	r8, fp
  84 0040 05D3     		bcc	.L15
  85 0042 5A46     		mov	r2, fp
  86              	.LVL8:
  87 0044 C346     		mov	fp, r8
  88              	.LVL9:
  89 0046 9046     		mov	r8, r2
  90              	.LVL10:
  47:..\u8g2\csrc/u8g2_line.c ****   
  91              		.loc 1 47 0
  92 0048 4FF00009 		mov	r9, #0
  93 004c 07E0     		b	.L6
  94              	.LVL11:
  95              	.L15:
  96 004e 3A46     		mov	r2, r7
  97              	.LVL12:
  55:..\u8g2\csrc/u8g2_line.c ****   {
  56:..\u8g2\csrc/u8g2_line.c ****     swapxy = 1;
  57:..\u8g2\csrc/u8g2_line.c ****     tmp = dx; dx =dy; dy = tmp;
  58:..\u8g2\csrc/u8g2_line.c ****     tmp = x1; x1 =y1; y1 = tmp;
  59:..\u8g2\csrc/u8g2_line.c ****     tmp = x2; x2 =y2; y2 = tmp;
  98              		.loc 1 59 0
  99 0050 1F46     		mov	r7, r3
 100 0052 1346     		mov	r3, r2
 101 0054 2246     		mov	r2, r4
  58:..\u8g2\csrc/u8g2_line.c ****     tmp = x2; x2 =y2; y2 = tmp;
 102              		.loc 1 58 0
 103 0056 3446     		mov	r4, r6
 104 0058 1646     		mov	r6, r2
  56:..\u8g2\csrc/u8g2_line.c ****     tmp = dx; dx =dy; dy = tmp;
 105              		.loc 1 56 0
 106 005a 4FF00109 		mov	r9, #1
 107              	.LVL13:
 108              	.L6:
  60:..\u8g2\csrc/u8g2_line.c ****   }
ARM GAS  C:\Users\brian\AppData\Local\Temp\cc1MUoXc.s 			page 4


  61:..\u8g2\csrc/u8g2_line.c ****   if ( x1 > x2 ) 
 109              		.loc 1 61 0
 110 005e BC42     		cmp	r4, r7
 111 0060 05D9     		bls	.L7
 112 0062 3246     		mov	r2, r6
  62:..\u8g2\csrc/u8g2_line.c ****   {
  63:..\u8g2\csrc/u8g2_line.c ****     tmp = x1; x1 =x2; x2 = tmp;
  64:..\u8g2\csrc/u8g2_line.c ****     tmp = y1; y1 =y2; y2 = tmp;
 113              		.loc 1 64 0
 114 0064 1E46     		mov	r6, r3
 115              	.LVL14:
 116 0066 1346     		mov	r3, r2
 117              	.LVL15:
 118 0068 2246     		mov	r2, r4
  63:..\u8g2\csrc/u8g2_line.c ****     tmp = y1; y1 =y2; y2 = tmp;
 119              		.loc 1 63 0
 120 006a 3C46     		mov	r4, r7
 121              	.LVL16:
 122 006c 1746     		mov	r7, r2
 123              	.LVL17:
 124              	.L7:
  65:..\u8g2\csrc/u8g2_line.c ****   }
  66:..\u8g2\csrc/u8g2_line.c ****   err = dx >> 1;
 125              		.loc 1 66 0
 126 006e 4BF34F05 		sbfx	r5, fp, #1, #16
 127              	.LVL18:
  67:..\u8g2\csrc/u8g2_line.c ****   if ( y2 > y1 ) ystep = 1; else ystep = -1;
 128              		.loc 1 67 0
 129 0072 9E42     		cmp	r6, r3
 130 0074 02D2     		bcs	.L17
 131 0076 0123     		movs	r3, #1
 132              	.LVL19:
 133 0078 0193     		str	r3, [sp, #4]
 134 007a 02E0     		b	.L8
 135              	.LVL20:
 136              	.L17:
 137 007c 4FF0FF33 		mov	r3, #-1
 138              	.LVL21:
 139 0080 0193     		str	r3, [sp, #4]
 140              	.L8:
 141              	.LVL22:
  68:..\u8g2\csrc/u8g2_line.c ****   y = y1;
  69:..\u8g2\csrc/u8g2_line.c **** 
  70:..\u8g2\csrc/u8g2_line.c **** #ifndef  U8G2_16BIT
  71:..\u8g2\csrc/u8g2_line.c ****   if ( x2 == 255 )
  72:..\u8g2\csrc/u8g2_line.c ****     x2--;
  73:..\u8g2\csrc/u8g2_line.c **** #else
  74:..\u8g2\csrc/u8g2_line.c ****   if ( x2 == 0xffff )
 142              		.loc 1 74 0
 143 0082 4FF6FF73 		movw	r3, #65535
 144 0086 9F42     		cmp	r7, r3
 145 0088 20D1     		bne	.L10
  75:..\u8g2\csrc/u8g2_line.c ****     x2--;
 146              		.loc 1 75 0
 147 008a 013F     		subs	r7, r7, #1
 148              	.LVL23:
 149 008c BFB2     		uxth	r7, r7
ARM GAS  C:\Users\brian\AppData\Local\Temp\cc1MUoXc.s 			page 5


 150              	.LVL24:
  76:..\u8g2\csrc/u8g2_line.c **** #endif
  77:..\u8g2\csrc/u8g2_line.c **** 
  78:..\u8g2\csrc/u8g2_line.c ****   for( x = x1; x <= x2; x++ )
 151              		.loc 1 78 0
 152 008e 1DE0     		b	.L10
 153              	.LVL25:
 154              	.L14:
  79:..\u8g2\csrc/u8g2_line.c ****   {
  80:..\u8g2\csrc/u8g2_line.c ****     if ( swapxy == 0 ) 
 155              		.loc 1 80 0
 156 0090 B9F1000F 		cmp	r9, #0
 157 0094 05D1     		bne	.L11
  81:..\u8g2\csrc/u8g2_line.c ****       u8g2_DrawPixel(u8g2, x, y); 
 158              		.loc 1 81 0
 159 0096 3246     		mov	r2, r6
 160 0098 2146     		mov	r1, r4
 161 009a 5046     		mov	r0, r10
 162 009c FFF7FEFF 		bl	u8g2_DrawPixel
 163              	.LVL26:
 164 00a0 04E0     		b	.L12
 165              	.L11:
  82:..\u8g2\csrc/u8g2_line.c ****     else 
  83:..\u8g2\csrc/u8g2_line.c ****       u8g2_DrawPixel(u8g2, y, x); 
 166              		.loc 1 83 0
 167 00a2 2246     		mov	r2, r4
 168 00a4 3146     		mov	r1, r6
 169 00a6 5046     		mov	r0, r10
 170 00a8 FFF7FEFF 		bl	u8g2_DrawPixel
 171              	.LVL27:
 172              	.L12:
  84:..\u8g2\csrc/u8g2_line.c ****     err -= (uint8_t)dy;
 173              		.loc 1 84 0
 174 00ac 5FFA88F3 		uxtb	r3, r8
 175 00b0 ED1A     		subs	r5, r5, r3
 176              	.LVL28:
 177 00b2 ABB2     		uxth	r3, r5
 178 00b4 1DB2     		sxth	r5, r3
 179              	.LVL29:
  85:..\u8g2\csrc/u8g2_line.c ****     if ( err < 0 ) 
 180              		.loc 1 85 0
 181 00b6 002D     		cmp	r5, #0
 182 00b8 06DA     		bge	.L13
  86:..\u8g2\csrc/u8g2_line.c ****     {
  87:..\u8g2\csrc/u8g2_line.c ****       y += (u8g2_uint_t)ystep;
 183              		.loc 1 87 0
 184 00ba BDF80420 		ldrh	r2, [sp, #4]
 185 00be 1644     		add	r6, r6, r2
 186              	.LVL30:
 187 00c0 B6B2     		uxth	r6, r6
 188              	.LVL31:
  88:..\u8g2\csrc/u8g2_line.c ****       err += (u8g2_uint_t)dx;
 189              		.loc 1 88 0
 190 00c2 0BEB0305 		add	r5, fp, r3
 191              	.LVL32:
 192 00c6 2DB2     		sxth	r5, r5
 193              	.LVL33:
ARM GAS  C:\Users\brian\AppData\Local\Temp\cc1MUoXc.s 			page 6


 194              	.L13:
  78:..\u8g2\csrc/u8g2_line.c ****   {
 195              		.loc 1 78 0 discriminator 2
 196 00c8 0134     		adds	r4, r4, #1
 197              	.LVL34:
 198 00ca A4B2     		uxth	r4, r4
 199              	.LVL35:
 200              	.L10:
  78:..\u8g2\csrc/u8g2_line.c ****   {
 201              		.loc 1 78 0 is_stmt 0 discriminator 1
 202 00cc A742     		cmp	r7, r4
 203 00ce DFD2     		bcs	.L14
  89:..\u8g2\csrc/u8g2_line.c ****     }
  90:..\u8g2\csrc/u8g2_line.c ****   }
  91:..\u8g2\csrc/u8g2_line.c **** }
 204              		.loc 1 91 0 is_stmt 1
 205 00d0 03B0     		add	sp, sp, #12
 206              		.cfi_def_cfa_offset 36
 207              		@ sp needed
 208 00d2 BDE8F08F 		pop	{r4, r5, r6, r7, r8, r9, r10, fp, pc}
 209              		.cfi_endproc
 210              	.LFE0:
 211              		.size	u8g2_DrawLine, .-u8g2_DrawLine
 212 00d6 00BF     		.text
 213              	.Letext0:
 214              		.file 2 "c:\\program files (x86)\\cypress\\psoc creator\\4.4\\psoc creator\\import\\gnu\\arm\\5.4.
 215              		.file 3 "c:\\program files (x86)\\cypress\\psoc creator\\4.4\\psoc creator\\import\\gnu\\arm\\5.4.
 216              		.file 4 "..\\u8g2\\csrc\\u8x8.h"
 217              		.file 5 "..\\u8g2\\csrc\\u8g2.h"