ARM GAS  C:\Users\brian\AppData\Local\Temp\ccTYhJxe.s 			page 1


   1              		.syntax unified
   2              		.cpu cortex-m3
   3              		.fpu softvfp
   4              		.eabi_attribute 20, 1
   5              		.eabi_attribute 21, 1
   6              		.eabi_attribute 23, 3
   7              		.eabi_attribute 24, 1
   8              		.eabi_attribute 25, 1
   9              		.eabi_attribute 26, 1
  10              		.eabi_attribute 30, 1
  11              		.eabi_attribute 34, 1
  12              		.eabi_attribute 18, 4
  13              		.thumb
  14              		.syntax unified
  15              		.file	"u8g2_font.c"
  16              		.text
  17              	.Ltext0:
  18              		.cfi_sections	.debug_frame
  19              		.section	.text.u8g2_font_get_byte,"ax",%progbits
  20              		.align	2
  21              		.thumb
  22              		.thumb_func
  23              		.type	u8g2_font_get_byte, %function
  24              	u8g2_font_get_byte:
  25              	.LFB0:
  26              		.file 1 "..\\u8g2\\csrc\\u8g2_font.c"
   1:..\u8g2\csrc/u8g2_font.c **** /*
   2:..\u8g2\csrc/u8g2_font.c **** 
   3:..\u8g2\csrc/u8g2_font.c ****   u8g2_font.c
   4:..\u8g2\csrc/u8g2_font.c **** 
   5:..\u8g2\csrc/u8g2_font.c ****   Universal 8bit Graphics Library (https://github.com/olikraus/u8g2/)
   6:..\u8g2\csrc/u8g2_font.c **** 
   7:..\u8g2\csrc/u8g2_font.c ****   Copyright (c) 2016, olikraus@gmail.com
   8:..\u8g2\csrc/u8g2_font.c ****   All rights reserved.
   9:..\u8g2\csrc/u8g2_font.c **** 
  10:..\u8g2\csrc/u8g2_font.c ****   Redistribution and use in source and binary forms, with or without modification, 
  11:..\u8g2\csrc/u8g2_font.c ****   are permitted provided that the following conditions are met:
  12:..\u8g2\csrc/u8g2_font.c **** 
  13:..\u8g2\csrc/u8g2_font.c ****   * Redistributions of source code must retain the above copyright notice, this list 
  14:..\u8g2\csrc/u8g2_font.c ****     of conditions and the following disclaimer.
  15:..\u8g2\csrc/u8g2_font.c ****     
  16:..\u8g2\csrc/u8g2_font.c ****   * Redistributions in binary form must reproduce the above copyright notice, this 
  17:..\u8g2\csrc/u8g2_font.c ****     list of conditions and the following disclaimer in the documentation and/or other 
  18:..\u8g2\csrc/u8g2_font.c ****     materials provided with the distribution.
  19:..\u8g2\csrc/u8g2_font.c **** 
  20:..\u8g2\csrc/u8g2_font.c ****   THIS SOFTWARE IS PROVIDED BY THE COPYRIGHT HOLDERS AND 
  21:..\u8g2\csrc/u8g2_font.c ****   CONTRIBUTORS "AS IS" AND ANY EXPRESS OR IMPLIED WARRANTIES, 
  22:..\u8g2\csrc/u8g2_font.c ****   INCLUDING, BUT NOT LIMITED TO, THE IMPLIED WARRANTIES OF 
  23:..\u8g2\csrc/u8g2_font.c ****   MERCHANTABILITY AND FITNESS FOR A PARTICULAR PURPOSE ARE 
  24:..\u8g2\csrc/u8g2_font.c ****   DISCLAIMED. IN NO EVENT SHALL THE COPYRIGHT HOLDER OR 
  25:..\u8g2\csrc/u8g2_font.c ****   CONTRIBUTORS BE LIABLE FOR ANY DIRECT, INDIRECT, INCIDENTAL, 
  26:..\u8g2\csrc/u8g2_font.c ****   SPECIAL, EXEMPLARY, OR CONSEQUENTIAL DAMAGES (INCLUDING, BUT 
  27:..\u8g2\csrc/u8g2_font.c ****   NOT LIMITED TO, PROCUREMENT OF SUBSTITUTE GOODS OR SERVICES; 
  28:..\u8g2\csrc/u8g2_font.c ****   LOSS OF USE, DATA, OR PROFITS; OR BUSINESS INTERRUPTION) HOWEVER 
  29:..\u8g2\csrc/u8g2_font.c ****   CAUSED AND ON ANY THEORY OF LIABILITY, WHETHER IN CONTRACT, 
  30:..\u8g2\csrc/u8g2_font.c ****   STRICT LIABILITY, OR TORT (INCLUDING NEGLIGENCE OR OTHERWISE) 
  31:..\u8g2\csrc/u8g2_font.c ****   ARISING IN ANY WAY OUT OF THE USE OF THIS SOFTWARE, EVEN IF 
ARM GAS  C:\Users\brian\AppData\Local\Temp\ccTYhJxe.s 			page 2


  32:..\u8g2\csrc/u8g2_font.c ****   ADVISED OF THE POSSIBILITY OF SUCH DAMAGE.  
  33:..\u8g2\csrc/u8g2_font.c **** 
  34:..\u8g2\csrc/u8g2_font.c **** */
  35:..\u8g2\csrc/u8g2_font.c **** 
  36:..\u8g2\csrc/u8g2_font.c **** #include "u8g2.h"
  37:..\u8g2\csrc/u8g2_font.c **** 
  38:..\u8g2\csrc/u8g2_font.c **** /* size of the font data structure, there is no struct or class... */
  39:..\u8g2\csrc/u8g2_font.c **** /* this is the size for the new font format */
  40:..\u8g2\csrc/u8g2_font.c **** #define U8G2_FONT_DATA_STRUCT_SIZE 23
  41:..\u8g2\csrc/u8g2_font.c **** 
  42:..\u8g2\csrc/u8g2_font.c **** /*
  43:..\u8g2\csrc/u8g2_font.c ****   font data:
  44:..\u8g2\csrc/u8g2_font.c **** 
  45:..\u8g2\csrc/u8g2_font.c ****   offset	bytes	description
  46:..\u8g2\csrc/u8g2_font.c ****   0		1		glyph_cnt		number of glyphs
  47:..\u8g2\csrc/u8g2_font.c ****   1		1		bbx_mode	0: proportional, 1: common height, 2: monospace, 3: multiple of 8
  48:..\u8g2\csrc/u8g2_font.c ****   2		1		bits_per_0	glyph rle parameter
  49:..\u8g2\csrc/u8g2_font.c ****   3		1		bits_per_1	glyph rle parameter
  50:..\u8g2\csrc/u8g2_font.c **** 
  51:..\u8g2\csrc/u8g2_font.c ****   4		1		bits_per_char_width		glyph rle parameter
  52:..\u8g2\csrc/u8g2_font.c ****   5		1		bits_per_char_height	glyph rle parameter
  53:..\u8g2\csrc/u8g2_font.c ****   6		1		bits_per_char_x		glyph rle parameter
  54:..\u8g2\csrc/u8g2_font.c ****   7		1		bits_per_char_y		glyph rle parameter
  55:..\u8g2\csrc/u8g2_font.c ****   8		1		bits_per_delta_x		glyph rle parameter
  56:..\u8g2\csrc/u8g2_font.c **** 
  57:..\u8g2\csrc/u8g2_font.c ****   9		1		max_char_width
  58:..\u8g2\csrc/u8g2_font.c ****   10		1		max_char_height
  59:..\u8g2\csrc/u8g2_font.c ****   11		1		x offset
  60:..\u8g2\csrc/u8g2_font.c ****   12		1		y offset (descent)
  61:..\u8g2\csrc/u8g2_font.c ****   
  62:..\u8g2\csrc/u8g2_font.c ****   13		1		ascent (capital A)
  63:..\u8g2\csrc/u8g2_font.c ****   14		1		descent (lower g)
  64:..\u8g2\csrc/u8g2_font.c ****   15		1		ascent '('
  65:..\u8g2\csrc/u8g2_font.c ****   16		1		descent ')'
  66:..\u8g2\csrc/u8g2_font.c ****   
  67:..\u8g2\csrc/u8g2_font.c ****   17		1		start pos 'A' high byte
  68:..\u8g2\csrc/u8g2_font.c ****   18		1		start pos 'A' low byte
  69:..\u8g2\csrc/u8g2_font.c **** 
  70:..\u8g2\csrc/u8g2_font.c ****   19		1		start pos 'a' high byte
  71:..\u8g2\csrc/u8g2_font.c ****   20		1		start pos 'a' low byte
  72:..\u8g2\csrc/u8g2_font.c **** 
  73:..\u8g2\csrc/u8g2_font.c ****   21		1		start pos unicode high byte
  74:..\u8g2\csrc/u8g2_font.c ****   22		1		start pos unicode low byte
  75:..\u8g2\csrc/u8g2_font.c **** 
  76:..\u8g2\csrc/u8g2_font.c ****   Font build mode, 0: proportional, 1: common height, 2: monospace, 3: multiple of 8
  77:..\u8g2\csrc/u8g2_font.c **** 
  78:..\u8g2\csrc/u8g2_font.c ****   Font build mode 0:		
  79:..\u8g2\csrc/u8g2_font.c ****     - "t"
  80:..\u8g2\csrc/u8g2_font.c ****     - Ref height mode: U8G2_FONT_HEIGHT_MODE_TEXT, U8G2_FONT_HEIGHT_MODE_XTEXT or U8G2_FONT_HEIGHT_
  81:..\u8g2\csrc/u8g2_font.c ****     - use in transparent mode only (does not look good in solid mode)
  82:..\u8g2\csrc/u8g2_font.c ****     - most compact format
  83:..\u8g2\csrc/u8g2_font.c ****     - different font heights possible
  84:..\u8g2\csrc/u8g2_font.c ****     
  85:..\u8g2\csrc/u8g2_font.c ****   Font build mode 1:		
  86:..\u8g2\csrc/u8g2_font.c ****     - "h"
  87:..\u8g2\csrc/u8g2_font.c ****     - Ref height mode: U8G2_FONT_HEIGHT_MODE_ALL
  88:..\u8g2\csrc/u8g2_font.c ****     - transparent or solid mode
ARM GAS  C:\Users\brian\AppData\Local\Temp\ccTYhJxe.s 			page 3


  89:..\u8g2\csrc/u8g2_font.c ****     - The height of the glyphs depend on the largest glyph in the font. This means font height depe
  90:..\u8g2\csrc/u8g2_font.c **** 
  91:..\u8g2\csrc/u8g2_font.c **** */
  92:..\u8g2\csrc/u8g2_font.c **** 
  93:..\u8g2\csrc/u8g2_font.c **** /* use case: What is the width and the height of the minimal box into which string s fints? */
  94:..\u8g2\csrc/u8g2_font.c **** void u8g2_font_GetStrSize(const void *font, const char *s, u8g2_uint_t *width, u8g2_uint_t *height)
  95:..\u8g2\csrc/u8g2_font.c **** void u8g2_font_GetStrSizeP(const void *font, const char *s, u8g2_uint_t *width, u8g2_uint_t *height
  96:..\u8g2\csrc/u8g2_font.c **** 
  97:..\u8g2\csrc/u8g2_font.c **** /* use case: lower left edge of a minimal box is known, what is the correct x, y position for the s
  98:..\u8g2\csrc/u8g2_font.c **** void u8g2_font_AdjustXYToDraw(const void *font, const char *s, u8g2_uint_t *x, u8g2_uint_t *y);
  99:..\u8g2\csrc/u8g2_font.c **** void u8g2_font_AdjustXYToDrawP(const void *font, const char *s, u8g2_uint_t *x, u8g2_uint_t *y);
 100:..\u8g2\csrc/u8g2_font.c **** 
 101:..\u8g2\csrc/u8g2_font.c **** /* use case: Baseline origin known, return minimal box */
 102:..\u8g2\csrc/u8g2_font.c **** void u8g2_font_GetStrMinBox(u8g2_t *u8g2, const void *font, const char *s, u8g2_uint_t *x, u8g2_uin
 103:..\u8g2\csrc/u8g2_font.c **** 
 104:..\u8g2\csrc/u8g2_font.c **** /* procedures */
 105:..\u8g2\csrc/u8g2_font.c **** 
 106:..\u8g2\csrc/u8g2_font.c **** /*========================================================================*/
 107:..\u8g2\csrc/u8g2_font.c **** /* low level byte and word access */
 108:..\u8g2\csrc/u8g2_font.c **** 
 109:..\u8g2\csrc/u8g2_font.c **** /* removed NOINLINE, because it leads to smaller code, might also be faster */
 110:..\u8g2\csrc/u8g2_font.c **** //static uint8_t u8g2_font_get_byte(const uint8_t *font, uint8_t offset) U8G2_NOINLINE;
 111:..\u8g2\csrc/u8g2_font.c **** static uint8_t u8g2_font_get_byte(const uint8_t *font, uint8_t offset)
 112:..\u8g2\csrc/u8g2_font.c **** {
  27              		.loc 1 112 0
  28              		.cfi_startproc
  29              		@ args = 0, pretend = 0, frame = 0
  30              		@ frame_needed = 0, uses_anonymous_args = 0
  31              		@ link register save eliminated.
  32              	.LVL0:
 113:..\u8g2\csrc/u8g2_font.c ****   font += offset;
 114:..\u8g2\csrc/u8g2_font.c ****   return u8x8_pgm_read( font );  
 115:..\u8g2\csrc/u8g2_font.c **** }
  33              		.loc 1 115 0
  34 0000 405C     		ldrb	r0, [r0, r1]	@ zero_extendqisi2
  35              	.LVL1:
  36 0002 7047     		bx	lr
  37              		.cfi_endproc
  38              	.LFE0:
  39              		.size	u8g2_font_get_byte, .-u8g2_font_get_byte
  40              		.section	.text.u8g2_font_get_word,"ax",%progbits
  41              		.align	2
  42              		.thumb
  43              		.thumb_func
  44              		.type	u8g2_font_get_word, %function
  45              	u8g2_font_get_word:
  46              	.LFB1:
 116:..\u8g2\csrc/u8g2_font.c **** 
 117:..\u8g2\csrc/u8g2_font.c **** static uint16_t u8g2_font_get_word(const uint8_t *font, uint8_t offset) U8G2_NOINLINE; 
 118:..\u8g2\csrc/u8g2_font.c **** static uint16_t u8g2_font_get_word(const uint8_t *font, uint8_t offset)
 119:..\u8g2\csrc/u8g2_font.c **** {
  47              		.loc 1 119 0
  48              		.cfi_startproc
  49              		@ args = 0, pretend = 0, frame = 0
  50              		@ frame_needed = 0, uses_anonymous_args = 0
  51              		@ link register save eliminated.
  52              	.LVL2:
ARM GAS  C:\Users\brian\AppData\Local\Temp\ccTYhJxe.s 			page 4


 120:..\u8g2\csrc/u8g2_font.c ****     uint16_t pos;
 121:..\u8g2\csrc/u8g2_font.c ****     font += offset;
  53              		.loc 1 121 0
  54 0000 4318     		adds	r3, r0, r1
  55              	.LVL3:
 122:..\u8g2\csrc/u8g2_font.c ****     pos = u8x8_pgm_read( font );
  56              		.loc 1 122 0
  57 0002 405C     		ldrb	r0, [r0, r1]	@ zero_extendqisi2
  58              	.LVL4:
 123:..\u8g2\csrc/u8g2_font.c ****     font++;
 124:..\u8g2\csrc/u8g2_font.c ****     pos <<= 8;
 125:..\u8g2\csrc/u8g2_font.c ****     pos += u8x8_pgm_read( font);
  59              		.loc 1 125 0
  60 0004 5B78     		ldrb	r3, [r3, #1]	@ zero_extendqisi2
  61              	.LVL5:
  62 0006 03EB0020 		add	r0, r3, r0, lsl #8
  63              	.LVL6:
 126:..\u8g2\csrc/u8g2_font.c ****     return pos;
 127:..\u8g2\csrc/u8g2_font.c **** }
  64              		.loc 1 127 0
  65 000a 80B2     		uxth	r0, r0
  66 000c 7047     		bx	lr
  67              		.cfi_endproc
  68              	.LFE1:
  69              		.size	u8g2_font_get_word, .-u8g2_font_get_word
  70 000e 00BF     		.section	.text.u8g2_font_calc_vref_font,"ax",%progbits
  71              		.align	2
  72              		.global	u8g2_font_calc_vref_font
  73              		.thumb
  74              		.thumb_func
  75              		.type	u8g2_font_calc_vref_font, %function
  76              	u8g2_font_calc_vref_font:
  77              	.LFB31:
 128:..\u8g2\csrc/u8g2_font.c **** 
 129:..\u8g2\csrc/u8g2_font.c **** /*========================================================================*/
 130:..\u8g2\csrc/u8g2_font.c **** /* new font format */
 131:..\u8g2\csrc/u8g2_font.c **** void u8g2_read_font_info(u8g2_font_info_t *font_info, const uint8_t *font)
 132:..\u8g2\csrc/u8g2_font.c **** {
 133:..\u8g2\csrc/u8g2_font.c ****   /* offset 0 */
 134:..\u8g2\csrc/u8g2_font.c ****   font_info->glyph_cnt = u8g2_font_get_byte(font, 0);
 135:..\u8g2\csrc/u8g2_font.c ****   font_info->bbx_mode = u8g2_font_get_byte(font, 1);
 136:..\u8g2\csrc/u8g2_font.c ****   font_info->bits_per_0 = u8g2_font_get_byte(font, 2);
 137:..\u8g2\csrc/u8g2_font.c ****   font_info->bits_per_1 = u8g2_font_get_byte(font, 3);
 138:..\u8g2\csrc/u8g2_font.c ****   
 139:..\u8g2\csrc/u8g2_font.c ****   /* offset 4 */
 140:..\u8g2\csrc/u8g2_font.c ****   font_info->bits_per_char_width = u8g2_font_get_byte(font, 4);
 141:..\u8g2\csrc/u8g2_font.c ****   font_info->bits_per_char_height = u8g2_font_get_byte(font, 5);
 142:..\u8g2\csrc/u8g2_font.c ****   font_info->bits_per_char_x = u8g2_font_get_byte(font, 6);
 143:..\u8g2\csrc/u8g2_font.c ****   font_info->bits_per_char_y = u8g2_font_get_byte(font, 7);
 144:..\u8g2\csrc/u8g2_font.c ****   font_info->bits_per_delta_x = u8g2_font_get_byte(font, 8);
 145:..\u8g2\csrc/u8g2_font.c ****   
 146:..\u8g2\csrc/u8g2_font.c ****   /* offset 9 */
 147:..\u8g2\csrc/u8g2_font.c ****   font_info->max_char_width = u8g2_font_get_byte(font, 9);
 148:..\u8g2\csrc/u8g2_font.c ****   font_info->max_char_height = u8g2_font_get_byte(font, 10);
 149:..\u8g2\csrc/u8g2_font.c ****   font_info->x_offset = u8g2_font_get_byte(font, 11);
 150:..\u8g2\csrc/u8g2_font.c ****   font_info->y_offset = u8g2_font_get_byte(font, 12);
 151:..\u8g2\csrc/u8g2_font.c ****   
ARM GAS  C:\Users\brian\AppData\Local\Temp\ccTYhJxe.s 			page 5


 152:..\u8g2\csrc/u8g2_font.c ****   /* offset 13 */
 153:..\u8g2\csrc/u8g2_font.c ****   font_info->ascent_A = u8g2_font_get_byte(font, 13);
 154:..\u8g2\csrc/u8g2_font.c ****   font_info->descent_g = u8g2_font_get_byte(font, 14);
 155:..\u8g2\csrc/u8g2_font.c ****   font_info->ascent_para = u8g2_font_get_byte(font, 15);
 156:..\u8g2\csrc/u8g2_font.c ****   font_info->descent_para = u8g2_font_get_byte(font, 16);
 157:..\u8g2\csrc/u8g2_font.c ****   
 158:..\u8g2\csrc/u8g2_font.c ****   /* offset 17 */
 159:..\u8g2\csrc/u8g2_font.c ****   font_info->start_pos_upper_A = u8g2_font_get_word(font, 17);
 160:..\u8g2\csrc/u8g2_font.c ****   font_info->start_pos_lower_a = u8g2_font_get_word(font, 19); 
 161:..\u8g2\csrc/u8g2_font.c ****   
 162:..\u8g2\csrc/u8g2_font.c ****   /* offset 21 */
 163:..\u8g2\csrc/u8g2_font.c **** #ifdef U8G2_WITH_UNICODE
 164:..\u8g2\csrc/u8g2_font.c ****   font_info->start_pos_unicode = u8g2_font_get_word(font, 21); 
 165:..\u8g2\csrc/u8g2_font.c **** #endif
 166:..\u8g2\csrc/u8g2_font.c **** }
 167:..\u8g2\csrc/u8g2_font.c **** 
 168:..\u8g2\csrc/u8g2_font.c **** 
 169:..\u8g2\csrc/u8g2_font.c **** /* calculate the overall length of the font, only used to create the picture for the google wiki */
 170:..\u8g2\csrc/u8g2_font.c **** size_t u8g2_GetFontSize(const uint8_t *font_arg)
 171:..\u8g2\csrc/u8g2_font.c **** {
 172:..\u8g2\csrc/u8g2_font.c ****   uint16_t e;
 173:..\u8g2\csrc/u8g2_font.c ****   const uint8_t *font = font_arg;
 174:..\u8g2\csrc/u8g2_font.c ****   font += U8G2_FONT_DATA_STRUCT_SIZE;
 175:..\u8g2\csrc/u8g2_font.c ****   
 176:..\u8g2\csrc/u8g2_font.c ****   for(;;)
 177:..\u8g2\csrc/u8g2_font.c ****   {
 178:..\u8g2\csrc/u8g2_font.c ****     if ( u8x8_pgm_read( font + 1 ) == 0 )
 179:..\u8g2\csrc/u8g2_font.c ****       break;
 180:..\u8g2\csrc/u8g2_font.c ****     font += u8x8_pgm_read( font + 1 );
 181:..\u8g2\csrc/u8g2_font.c ****   }
 182:..\u8g2\csrc/u8g2_font.c ****   
 183:..\u8g2\csrc/u8g2_font.c ****   /* continue with unicode section */
 184:..\u8g2\csrc/u8g2_font.c ****   font += 2;
 185:..\u8g2\csrc/u8g2_font.c **** 
 186:..\u8g2\csrc/u8g2_font.c ****   /* skip unicode lookup table */
 187:..\u8g2\csrc/u8g2_font.c ****   font += u8g2_font_get_word(font, 0);
 188:..\u8g2\csrc/u8g2_font.c ****   
 189:..\u8g2\csrc/u8g2_font.c ****   for(;;)
 190:..\u8g2\csrc/u8g2_font.c ****   {
 191:..\u8g2\csrc/u8g2_font.c ****     e = u8x8_pgm_read( font );
 192:..\u8g2\csrc/u8g2_font.c ****     e <<= 8;
 193:..\u8g2\csrc/u8g2_font.c ****     e |= u8x8_pgm_read( font + 1 );
 194:..\u8g2\csrc/u8g2_font.c ****     if ( e == 0 )
 195:..\u8g2\csrc/u8g2_font.c ****       break;
 196:..\u8g2\csrc/u8g2_font.c ****     font += u8x8_pgm_read( font + 2 );    
 197:..\u8g2\csrc/u8g2_font.c ****   }
 198:..\u8g2\csrc/u8g2_font.c ****   
 199:..\u8g2\csrc/u8g2_font.c ****   return (font - font_arg) + 2;
 200:..\u8g2\csrc/u8g2_font.c **** }
 201:..\u8g2\csrc/u8g2_font.c **** 
 202:..\u8g2\csrc/u8g2_font.c **** /*========================================================================*/
 203:..\u8g2\csrc/u8g2_font.c **** /* u8g2 interface, font access */
 204:..\u8g2\csrc/u8g2_font.c **** 
 205:..\u8g2\csrc/u8g2_font.c **** uint8_t u8g2_GetFontBBXWidth(u8g2_t *u8g2)
 206:..\u8g2\csrc/u8g2_font.c **** {
 207:..\u8g2\csrc/u8g2_font.c ****   return u8g2->font_info.max_char_width;		/* new font info structure */
 208:..\u8g2\csrc/u8g2_font.c **** }
ARM GAS  C:\Users\brian\AppData\Local\Temp\ccTYhJxe.s 			page 6


 209:..\u8g2\csrc/u8g2_font.c **** 
 210:..\u8g2\csrc/u8g2_font.c **** uint8_t u8g2_GetFontBBXHeight(u8g2_t *u8g2)
 211:..\u8g2\csrc/u8g2_font.c **** {
 212:..\u8g2\csrc/u8g2_font.c ****   return u8g2->font_info.max_char_height;		/* new font info structure */
 213:..\u8g2\csrc/u8g2_font.c **** }
 214:..\u8g2\csrc/u8g2_font.c **** 
 215:..\u8g2\csrc/u8g2_font.c **** int8_t u8g2_GetFontBBXOffX(u8g2_t *u8g2) U8G2_NOINLINE;
 216:..\u8g2\csrc/u8g2_font.c **** int8_t u8g2_GetFontBBXOffX(u8g2_t *u8g2)
 217:..\u8g2\csrc/u8g2_font.c **** {
 218:..\u8g2\csrc/u8g2_font.c ****   return u8g2->font_info.x_offset;		/* new font info structure */
 219:..\u8g2\csrc/u8g2_font.c **** }
 220:..\u8g2\csrc/u8g2_font.c **** 
 221:..\u8g2\csrc/u8g2_font.c **** int8_t u8g2_GetFontBBXOffY(u8g2_t *u8g2) U8G2_NOINLINE;
 222:..\u8g2\csrc/u8g2_font.c **** int8_t u8g2_GetFontBBXOffY(u8g2_t *u8g2)
 223:..\u8g2\csrc/u8g2_font.c **** {
 224:..\u8g2\csrc/u8g2_font.c ****   return u8g2->font_info.y_offset;		/* new font info structure */
 225:..\u8g2\csrc/u8g2_font.c **** }
 226:..\u8g2\csrc/u8g2_font.c **** 
 227:..\u8g2\csrc/u8g2_font.c **** uint8_t u8g2_GetFontCapitalAHeight(u8g2_t *u8g2) U8G2_NOINLINE; 
 228:..\u8g2\csrc/u8g2_font.c **** uint8_t u8g2_GetFontCapitalAHeight(u8g2_t *u8g2)
 229:..\u8g2\csrc/u8g2_font.c **** {
 230:..\u8g2\csrc/u8g2_font.c ****   return u8g2->font_info.ascent_A;		/* new font info structure */
 231:..\u8g2\csrc/u8g2_font.c **** }
 232:..\u8g2\csrc/u8g2_font.c **** 
 233:..\u8g2\csrc/u8g2_font.c **** /*========================================================================*/
 234:..\u8g2\csrc/u8g2_font.c **** /* glyph handling */
 235:..\u8g2\csrc/u8g2_font.c **** 
 236:..\u8g2\csrc/u8g2_font.c **** /* optimized */
 237:..\u8g2\csrc/u8g2_font.c **** uint8_t u8g2_font_decode_get_unsigned_bits(u8g2_font_decode_t *f, uint8_t cnt) 
 238:..\u8g2\csrc/u8g2_font.c **** {
 239:..\u8g2\csrc/u8g2_font.c ****   uint8_t val;
 240:..\u8g2\csrc/u8g2_font.c ****   uint8_t bit_pos = f->decode_bit_pos;
 241:..\u8g2\csrc/u8g2_font.c ****   uint8_t bit_pos_plus_cnt;
 242:..\u8g2\csrc/u8g2_font.c ****   
 243:..\u8g2\csrc/u8g2_font.c ****   //val = *(f->decode_ptr);
 244:..\u8g2\csrc/u8g2_font.c ****   val = u8x8_pgm_read( f->decode_ptr );  
 245:..\u8g2\csrc/u8g2_font.c ****   
 246:..\u8g2\csrc/u8g2_font.c ****   val >>= bit_pos;
 247:..\u8g2\csrc/u8g2_font.c ****   bit_pos_plus_cnt = bit_pos;
 248:..\u8g2\csrc/u8g2_font.c ****   bit_pos_plus_cnt += cnt;
 249:..\u8g2\csrc/u8g2_font.c ****   if ( bit_pos_plus_cnt >= 8 )
 250:..\u8g2\csrc/u8g2_font.c ****   {
 251:..\u8g2\csrc/u8g2_font.c ****     uint8_t s = 8;
 252:..\u8g2\csrc/u8g2_font.c ****     s -= bit_pos;
 253:..\u8g2\csrc/u8g2_font.c ****     f->decode_ptr++;
 254:..\u8g2\csrc/u8g2_font.c ****     //val |= *(f->decode_ptr) << (8-bit_pos);
 255:..\u8g2\csrc/u8g2_font.c ****     val |= u8x8_pgm_read( f->decode_ptr ) << (s);
 256:..\u8g2\csrc/u8g2_font.c ****     //bit_pos -= 8;
 257:..\u8g2\csrc/u8g2_font.c ****     bit_pos_plus_cnt -= 8;
 258:..\u8g2\csrc/u8g2_font.c ****   }
 259:..\u8g2\csrc/u8g2_font.c ****   val &= (1U<<cnt)-1;
 260:..\u8g2\csrc/u8g2_font.c ****   //bit_pos += cnt;
 261:..\u8g2\csrc/u8g2_font.c ****   
 262:..\u8g2\csrc/u8g2_font.c ****   f->decode_bit_pos = bit_pos_plus_cnt;
 263:..\u8g2\csrc/u8g2_font.c ****   return val;
 264:..\u8g2\csrc/u8g2_font.c **** }
 265:..\u8g2\csrc/u8g2_font.c **** 
ARM GAS  C:\Users\brian\AppData\Local\Temp\ccTYhJxe.s 			page 7


 266:..\u8g2\csrc/u8g2_font.c **** 
 267:..\u8g2\csrc/u8g2_font.c **** /*
 268:..\u8g2\csrc/u8g2_font.c ****     2 bit --> cnt = 2
 269:..\u8g2\csrc/u8g2_font.c ****       -2,-1,0. 1
 270:..\u8g2\csrc/u8g2_font.c **** 
 271:..\u8g2\csrc/u8g2_font.c ****     3 bit --> cnt = 3
 272:..\u8g2\csrc/u8g2_font.c ****       -2,-1,0. 1
 273:..\u8g2\csrc/u8g2_font.c ****       -4,-3,-2,-1,0,1,2,3
 274:..\u8g2\csrc/u8g2_font.c **** 
 275:..\u8g2\csrc/u8g2_font.c ****       if ( x < 0 )
 276:..\u8g2\csrc/u8g2_font.c **** 	r = bits(x-1)+1;
 277:..\u8g2\csrc/u8g2_font.c ****     else
 278:..\u8g2\csrc/u8g2_font.c **** 	r = bits(x)+1;
 279:..\u8g2\csrc/u8g2_font.c **** 
 280:..\u8g2\csrc/u8g2_font.c **** */
 281:..\u8g2\csrc/u8g2_font.c **** /* optimized */
 282:..\u8g2\csrc/u8g2_font.c **** int8_t u8g2_font_decode_get_signed_bits(u8g2_font_decode_t *f, uint8_t cnt)
 283:..\u8g2\csrc/u8g2_font.c **** {
 284:..\u8g2\csrc/u8g2_font.c ****   int8_t v, d;
 285:..\u8g2\csrc/u8g2_font.c ****   v = (int8_t)u8g2_font_decode_get_unsigned_bits(f, cnt);
 286:..\u8g2\csrc/u8g2_font.c ****   d = 1;
 287:..\u8g2\csrc/u8g2_font.c ****   cnt--;
 288:..\u8g2\csrc/u8g2_font.c ****   d <<= cnt;
 289:..\u8g2\csrc/u8g2_font.c ****   v -= d;
 290:..\u8g2\csrc/u8g2_font.c ****   return v;
 291:..\u8g2\csrc/u8g2_font.c ****   //return (int8_t)u8g2_font_decode_get_unsigned_bits(f, cnt) - ((1<<cnt)>>1);
 292:..\u8g2\csrc/u8g2_font.c **** }
 293:..\u8g2\csrc/u8g2_font.c **** 
 294:..\u8g2\csrc/u8g2_font.c **** 
 295:..\u8g2\csrc/u8g2_font.c **** #ifdef U8G2_WITH_FONT_ROTATION
 296:..\u8g2\csrc/u8g2_font.c **** u8g2_uint_t u8g2_add_vector_y(u8g2_uint_t dy, int8_t x, int8_t y, uint8_t dir)
 297:..\u8g2\csrc/u8g2_font.c **** {
 298:..\u8g2\csrc/u8g2_font.c ****   switch(dir)
 299:..\u8g2\csrc/u8g2_font.c ****   {
 300:..\u8g2\csrc/u8g2_font.c ****     case 0:
 301:..\u8g2\csrc/u8g2_font.c ****       dy += y;
 302:..\u8g2\csrc/u8g2_font.c ****       break;
 303:..\u8g2\csrc/u8g2_font.c ****     case 1:
 304:..\u8g2\csrc/u8g2_font.c ****       dy += x;
 305:..\u8g2\csrc/u8g2_font.c ****       break;
 306:..\u8g2\csrc/u8g2_font.c ****     case 2:
 307:..\u8g2\csrc/u8g2_font.c ****       dy -= y;
 308:..\u8g2\csrc/u8g2_font.c ****       break;
 309:..\u8g2\csrc/u8g2_font.c ****     default:
 310:..\u8g2\csrc/u8g2_font.c ****       dy -= x;
 311:..\u8g2\csrc/u8g2_font.c ****       break;      
 312:..\u8g2\csrc/u8g2_font.c ****   }
 313:..\u8g2\csrc/u8g2_font.c ****   return dy;
 314:..\u8g2\csrc/u8g2_font.c **** }
 315:..\u8g2\csrc/u8g2_font.c **** 
 316:..\u8g2\csrc/u8g2_font.c **** u8g2_uint_t u8g2_add_vector_x(u8g2_uint_t dx, int8_t x, int8_t y, uint8_t dir)
 317:..\u8g2\csrc/u8g2_font.c **** {
 318:..\u8g2\csrc/u8g2_font.c ****   switch(dir)
 319:..\u8g2\csrc/u8g2_font.c ****   {
 320:..\u8g2\csrc/u8g2_font.c ****     case 0:
 321:..\u8g2\csrc/u8g2_font.c ****       dx += x;
 322:..\u8g2\csrc/u8g2_font.c ****       break;
ARM GAS  C:\Users\brian\AppData\Local\Temp\ccTYhJxe.s 			page 8


 323:..\u8g2\csrc/u8g2_font.c ****     case 1:
 324:..\u8g2\csrc/u8g2_font.c ****       dx -= y;
 325:..\u8g2\csrc/u8g2_font.c ****       break;
 326:..\u8g2\csrc/u8g2_font.c ****     case 2:
 327:..\u8g2\csrc/u8g2_font.c ****       dx -= x;
 328:..\u8g2\csrc/u8g2_font.c ****       break;
 329:..\u8g2\csrc/u8g2_font.c ****     default:
 330:..\u8g2\csrc/u8g2_font.c ****       dx += y;
 331:..\u8g2\csrc/u8g2_font.c ****       break;      
 332:..\u8g2\csrc/u8g2_font.c ****   }
 333:..\u8g2\csrc/u8g2_font.c ****   return dx;
 334:..\u8g2\csrc/u8g2_font.c **** }
 335:..\u8g2\csrc/u8g2_font.c **** 
 336:..\u8g2\csrc/u8g2_font.c **** /*
 337:..\u8g2\csrc/u8g2_font.c **** // does not make sense, 50 bytes more required on avr
 338:..\u8g2\csrc/u8g2_font.c **** void u8g2_add_vector(u8g2_uint_t *xp, u8g2_uint_t *yp, int8_t x, int8_t y, uint8_t dir)
 339:..\u8g2\csrc/u8g2_font.c **** {
 340:..\u8g2\csrc/u8g2_font.c ****   u8g2_uint_t x_ = *xp;
 341:..\u8g2\csrc/u8g2_font.c ****   u8g2_uint_t y_ = *yp;
 342:..\u8g2\csrc/u8g2_font.c ****   switch(dir)
 343:..\u8g2\csrc/u8g2_font.c ****   {
 344:..\u8g2\csrc/u8g2_font.c ****     case 0:
 345:..\u8g2\csrc/u8g2_font.c ****       y_ += y;
 346:..\u8g2\csrc/u8g2_font.c ****       x_ += x;
 347:..\u8g2\csrc/u8g2_font.c ****       break;
 348:..\u8g2\csrc/u8g2_font.c ****     case 1:
 349:..\u8g2\csrc/u8g2_font.c ****       y_ += x;
 350:..\u8g2\csrc/u8g2_font.c ****       x_ -= y;
 351:..\u8g2\csrc/u8g2_font.c ****       break;
 352:..\u8g2\csrc/u8g2_font.c ****     case 2:
 353:..\u8g2\csrc/u8g2_font.c ****       y_ -= y;
 354:..\u8g2\csrc/u8g2_font.c ****       x_ -= x;
 355:..\u8g2\csrc/u8g2_font.c ****       break;
 356:..\u8g2\csrc/u8g2_font.c ****     default:
 357:..\u8g2\csrc/u8g2_font.c ****       y_ -= x;
 358:..\u8g2\csrc/u8g2_font.c ****       x_ += y;
 359:..\u8g2\csrc/u8g2_font.c ****       break;      
 360:..\u8g2\csrc/u8g2_font.c ****   }
 361:..\u8g2\csrc/u8g2_font.c ****   *xp = x_;
 362:..\u8g2\csrc/u8g2_font.c ****   *yp = y_;
 363:..\u8g2\csrc/u8g2_font.c **** }
 364:..\u8g2\csrc/u8g2_font.c **** */
 365:..\u8g2\csrc/u8g2_font.c **** #endif
 366:..\u8g2\csrc/u8g2_font.c **** 
 367:..\u8g2\csrc/u8g2_font.c **** 
 368:..\u8g2\csrc/u8g2_font.c **** 
 369:..\u8g2\csrc/u8g2_font.c **** /*
 370:..\u8g2\csrc/u8g2_font.c ****   Description:
 371:..\u8g2\csrc/u8g2_font.c ****     Draw a run-length area of the glyph. "len" can have any size and the line
 372:..\u8g2\csrc/u8g2_font.c ****     length has to be wrapped at the glyph border.
 373:..\u8g2\csrc/u8g2_font.c ****   Args:
 374:..\u8g2\csrc/u8g2_font.c ****     len: 					Length of the line
 375:..\u8g2\csrc/u8g2_font.c ****     is_foreground			foreground/background?
 376:..\u8g2\csrc/u8g2_font.c ****     u8g2->font_decode.target_x		X position
 377:..\u8g2\csrc/u8g2_font.c ****     u8g2->font_decode.target_y		Y position
 378:..\u8g2\csrc/u8g2_font.c ****     u8g2->font_decode.is_transparent	Transparent mode
 379:..\u8g2\csrc/u8g2_font.c ****   Return:
ARM GAS  C:\Users\brian\AppData\Local\Temp\ccTYhJxe.s 			page 9


 380:..\u8g2\csrc/u8g2_font.c ****     -
 381:..\u8g2\csrc/u8g2_font.c ****   Calls:
 382:..\u8g2\csrc/u8g2_font.c ****     u8g2_Draw90Line()
 383:..\u8g2\csrc/u8g2_font.c ****   Called by:
 384:..\u8g2\csrc/u8g2_font.c ****     u8g2_font_decode_glyph()
 385:..\u8g2\csrc/u8g2_font.c **** */
 386:..\u8g2\csrc/u8g2_font.c **** /* optimized */
 387:..\u8g2\csrc/u8g2_font.c **** void u8g2_font_decode_len(u8g2_t *u8g2, uint8_t len, uint8_t is_foreground)
 388:..\u8g2\csrc/u8g2_font.c **** {
 389:..\u8g2\csrc/u8g2_font.c ****   uint8_t cnt;	/* total number of remaining pixels, which have to be drawn */
 390:..\u8g2\csrc/u8g2_font.c ****   uint8_t rem; 	/* remaining pixel to the right edge of the glyph */
 391:..\u8g2\csrc/u8g2_font.c ****   uint8_t current;	/* number of pixels, which need to be drawn for the draw procedure */
 392:..\u8g2\csrc/u8g2_font.c ****     /* current is either equal to cnt or equal to rem */
 393:..\u8g2\csrc/u8g2_font.c ****   
 394:..\u8g2\csrc/u8g2_font.c ****   /* local coordinates of the glyph */
 395:..\u8g2\csrc/u8g2_font.c ****   uint8_t lx,ly;
 396:..\u8g2\csrc/u8g2_font.c ****   
 397:..\u8g2\csrc/u8g2_font.c ****   /* target position on the screen */
 398:..\u8g2\csrc/u8g2_font.c ****   u8g2_uint_t x, y;
 399:..\u8g2\csrc/u8g2_font.c ****   
 400:..\u8g2\csrc/u8g2_font.c ****   u8g2_font_decode_t *decode = &(u8g2->font_decode);
 401:..\u8g2\csrc/u8g2_font.c ****   
 402:..\u8g2\csrc/u8g2_font.c ****   cnt = len;
 403:..\u8g2\csrc/u8g2_font.c ****   
 404:..\u8g2\csrc/u8g2_font.c ****   /* get the local position */
 405:..\u8g2\csrc/u8g2_font.c ****   lx = decode->x;
 406:..\u8g2\csrc/u8g2_font.c ****   ly = decode->y;
 407:..\u8g2\csrc/u8g2_font.c ****   
 408:..\u8g2\csrc/u8g2_font.c ****   for(;;)
 409:..\u8g2\csrc/u8g2_font.c ****   {
 410:..\u8g2\csrc/u8g2_font.c ****     /* calculate the number of pixel to the right edge of the glyph */
 411:..\u8g2\csrc/u8g2_font.c ****     rem = decode->glyph_width;
 412:..\u8g2\csrc/u8g2_font.c ****     rem -= lx;
 413:..\u8g2\csrc/u8g2_font.c ****     
 414:..\u8g2\csrc/u8g2_font.c ****     /* calculate how many pixel to draw. This is either to the right edge */
 415:..\u8g2\csrc/u8g2_font.c ****     /* or lesser, if not enough pixel are left */
 416:..\u8g2\csrc/u8g2_font.c ****     current = rem;
 417:..\u8g2\csrc/u8g2_font.c ****     if ( cnt < rem )
 418:..\u8g2\csrc/u8g2_font.c ****       current = cnt;
 419:..\u8g2\csrc/u8g2_font.c ****     
 420:..\u8g2\csrc/u8g2_font.c ****     
 421:..\u8g2\csrc/u8g2_font.c ****     /* now draw the line, but apply the rotation around the glyph target position */
 422:..\u8g2\csrc/u8g2_font.c ****     //u8g2_font_decode_draw_pixel(u8g2, lx,ly,current, is_foreground);
 423:..\u8g2\csrc/u8g2_font.c **** 
 424:..\u8g2\csrc/u8g2_font.c ****     /* get target position */
 425:..\u8g2\csrc/u8g2_font.c ****     x = decode->target_x;
 426:..\u8g2\csrc/u8g2_font.c ****     y = decode->target_y;
 427:..\u8g2\csrc/u8g2_font.c **** 
 428:..\u8g2\csrc/u8g2_font.c ****     /* apply rotation */
 429:..\u8g2\csrc/u8g2_font.c **** #ifdef U8G2_WITH_FONT_ROTATION
 430:..\u8g2\csrc/u8g2_font.c ****     
 431:..\u8g2\csrc/u8g2_font.c ****     x = u8g2_add_vector_x(x, lx, ly, decode->dir);
 432:..\u8g2\csrc/u8g2_font.c ****     y = u8g2_add_vector_y(y, lx, ly, decode->dir);
 433:..\u8g2\csrc/u8g2_font.c ****     
 434:..\u8g2\csrc/u8g2_font.c ****     //u8g2_add_vector(&x, &y, lx, ly, decode->dir);
 435:..\u8g2\csrc/u8g2_font.c ****     
 436:..\u8g2\csrc/u8g2_font.c **** #else
ARM GAS  C:\Users\brian\AppData\Local\Temp\ccTYhJxe.s 			page 10


 437:..\u8g2\csrc/u8g2_font.c ****     x += lx;
 438:..\u8g2\csrc/u8g2_font.c ****     y += ly;
 439:..\u8g2\csrc/u8g2_font.c **** #endif
 440:..\u8g2\csrc/u8g2_font.c ****     
 441:..\u8g2\csrc/u8g2_font.c ****     /* draw foreground and background (if required) */
 442:..\u8g2\csrc/u8g2_font.c ****     if ( is_foreground )
 443:..\u8g2\csrc/u8g2_font.c ****     {
 444:..\u8g2\csrc/u8g2_font.c ****       u8g2->draw_color = decode->fg_color;			/* draw_color will be restored later */
 445:..\u8g2\csrc/u8g2_font.c ****       u8g2_DrawHVLine(u8g2, 
 446:..\u8g2\csrc/u8g2_font.c **** 	x, 
 447:..\u8g2\csrc/u8g2_font.c **** 	y, 
 448:..\u8g2\csrc/u8g2_font.c **** 	current, 
 449:..\u8g2\csrc/u8g2_font.c **** #ifdef U8G2_WITH_FONT_ROTATION
 450:..\u8g2\csrc/u8g2_font.c **** 	/* dir */ decode->dir
 451:..\u8g2\csrc/u8g2_font.c **** #else
 452:..\u8g2\csrc/u8g2_font.c **** 	0
 453:..\u8g2\csrc/u8g2_font.c **** #endif
 454:..\u8g2\csrc/u8g2_font.c ****       );
 455:..\u8g2\csrc/u8g2_font.c ****     }
 456:..\u8g2\csrc/u8g2_font.c ****     else if ( decode->is_transparent == 0 )    
 457:..\u8g2\csrc/u8g2_font.c ****     {
 458:..\u8g2\csrc/u8g2_font.c ****       u8g2->draw_color = decode->bg_color;			/* draw_color will be restored later */
 459:..\u8g2\csrc/u8g2_font.c ****       u8g2_DrawHVLine(u8g2, 
 460:..\u8g2\csrc/u8g2_font.c **** 	x, 
 461:..\u8g2\csrc/u8g2_font.c **** 	y, 
 462:..\u8g2\csrc/u8g2_font.c **** 	current, 
 463:..\u8g2\csrc/u8g2_font.c **** #ifdef U8G2_WITH_FONT_ROTATION
 464:..\u8g2\csrc/u8g2_font.c **** 	/* dir */ decode->dir
 465:..\u8g2\csrc/u8g2_font.c **** #else
 466:..\u8g2\csrc/u8g2_font.c **** 	0
 467:..\u8g2\csrc/u8g2_font.c **** #endif
 468:..\u8g2\csrc/u8g2_font.c ****       );   
 469:..\u8g2\csrc/u8g2_font.c ****     }
 470:..\u8g2\csrc/u8g2_font.c ****     
 471:..\u8g2\csrc/u8g2_font.c ****     /* check, whether the end of the run length code has been reached */
 472:..\u8g2\csrc/u8g2_font.c ****     if ( cnt < rem )
 473:..\u8g2\csrc/u8g2_font.c ****       break;
 474:..\u8g2\csrc/u8g2_font.c ****     cnt -= rem;
 475:..\u8g2\csrc/u8g2_font.c ****     lx = 0;
 476:..\u8g2\csrc/u8g2_font.c ****     ly++;
 477:..\u8g2\csrc/u8g2_font.c ****   }
 478:..\u8g2\csrc/u8g2_font.c ****   lx += cnt;
 479:..\u8g2\csrc/u8g2_font.c ****   
 480:..\u8g2\csrc/u8g2_font.c ****   decode->x = lx;
 481:..\u8g2\csrc/u8g2_font.c ****   decode->y = ly;
 482:..\u8g2\csrc/u8g2_font.c ****   
 483:..\u8g2\csrc/u8g2_font.c **** }
 484:..\u8g2\csrc/u8g2_font.c **** 
 485:..\u8g2\csrc/u8g2_font.c **** static void u8g2_font_setup_decode(u8g2_t *u8g2, const uint8_t *glyph_data)
 486:..\u8g2\csrc/u8g2_font.c **** {
 487:..\u8g2\csrc/u8g2_font.c ****   u8g2_font_decode_t *decode = &(u8g2->font_decode);
 488:..\u8g2\csrc/u8g2_font.c ****   decode->decode_ptr = glyph_data;
 489:..\u8g2\csrc/u8g2_font.c ****   decode->decode_bit_pos = 0;
 490:..\u8g2\csrc/u8g2_font.c ****   
 491:..\u8g2\csrc/u8g2_font.c ****   /* 8 Nov 2015, this is already done in the glyph data search procedure */
 492:..\u8g2\csrc/u8g2_font.c ****   /*
 493:..\u8g2\csrc/u8g2_font.c ****   decode->decode_ptr += 1;
ARM GAS  C:\Users\brian\AppData\Local\Temp\ccTYhJxe.s 			page 11


 494:..\u8g2\csrc/u8g2_font.c ****   decode->decode_ptr += 1;
 495:..\u8g2\csrc/u8g2_font.c ****   */
 496:..\u8g2\csrc/u8g2_font.c ****   
 497:..\u8g2\csrc/u8g2_font.c ****   decode->glyph_width = u8g2_font_decode_get_unsigned_bits(decode, u8g2->font_info.bits_per_char_wi
 498:..\u8g2\csrc/u8g2_font.c ****   decode->glyph_height = u8g2_font_decode_get_unsigned_bits(decode,u8g2->font_info.bits_per_char_he
 499:..\u8g2\csrc/u8g2_font.c ****   
 500:..\u8g2\csrc/u8g2_font.c ****   decode->fg_color = u8g2->draw_color;
 501:..\u8g2\csrc/u8g2_font.c ****   decode->bg_color = (decode->fg_color == 0 ? 1 : 0);
 502:..\u8g2\csrc/u8g2_font.c **** }
 503:..\u8g2\csrc/u8g2_font.c **** 
 504:..\u8g2\csrc/u8g2_font.c **** 
 505:..\u8g2\csrc/u8g2_font.c **** /*
 506:..\u8g2\csrc/u8g2_font.c ****   Description:
 507:..\u8g2\csrc/u8g2_font.c ****     Decode and draw a glyph.
 508:..\u8g2\csrc/u8g2_font.c ****   Args:
 509:..\u8g2\csrc/u8g2_font.c ****     glyph_data: 					Pointer to the compressed glyph data of the font
 510:..\u8g2\csrc/u8g2_font.c ****     u8g2->font_decode.target_x		X position
 511:..\u8g2\csrc/u8g2_font.c ****     u8g2->font_decode.target_y		Y position
 512:..\u8g2\csrc/u8g2_font.c ****     u8g2->font_decode.is_transparent	Transparent mode
 513:..\u8g2\csrc/u8g2_font.c ****   Return:
 514:..\u8g2\csrc/u8g2_font.c ****     Width (delta x advance) of the glyph.
 515:..\u8g2\csrc/u8g2_font.c ****   Calls:
 516:..\u8g2\csrc/u8g2_font.c ****     u8g2_font_decode_len()
 517:..\u8g2\csrc/u8g2_font.c **** */
 518:..\u8g2\csrc/u8g2_font.c **** /* optimized */
 519:..\u8g2\csrc/u8g2_font.c **** int8_t u8g2_font_decode_glyph(u8g2_t *u8g2, const uint8_t *glyph_data)
 520:..\u8g2\csrc/u8g2_font.c **** {
 521:..\u8g2\csrc/u8g2_font.c ****   uint8_t a, b;
 522:..\u8g2\csrc/u8g2_font.c ****   int8_t x, y;
 523:..\u8g2\csrc/u8g2_font.c ****   int8_t d;
 524:..\u8g2\csrc/u8g2_font.c ****   int8_t h;
 525:..\u8g2\csrc/u8g2_font.c ****   u8g2_font_decode_t *decode = &(u8g2->font_decode);
 526:..\u8g2\csrc/u8g2_font.c ****     
 527:..\u8g2\csrc/u8g2_font.c ****   u8g2_font_setup_decode(u8g2, glyph_data);     /* set values in u8g2->font_decode data structure *
 528:..\u8g2\csrc/u8g2_font.c ****   h = u8g2->font_decode.glyph_height;
 529:..\u8g2\csrc/u8g2_font.c ****   
 530:..\u8g2\csrc/u8g2_font.c ****   x = u8g2_font_decode_get_signed_bits(decode, u8g2->font_info.bits_per_char_x);
 531:..\u8g2\csrc/u8g2_font.c ****   y = u8g2_font_decode_get_signed_bits(decode, u8g2->font_info.bits_per_char_y);
 532:..\u8g2\csrc/u8g2_font.c ****   d = u8g2_font_decode_get_signed_bits(decode, u8g2->font_info.bits_per_delta_x);
 533:..\u8g2\csrc/u8g2_font.c ****   
 534:..\u8g2\csrc/u8g2_font.c ****   if ( decode->glyph_width > 0 )
 535:..\u8g2\csrc/u8g2_font.c ****   {
 536:..\u8g2\csrc/u8g2_font.c **** #ifdef U8G2_WITH_FONT_ROTATION
 537:..\u8g2\csrc/u8g2_font.c ****     decode->target_x = u8g2_add_vector_x(decode->target_x, x, -(h+y), decode->dir);
 538:..\u8g2\csrc/u8g2_font.c ****     decode->target_y = u8g2_add_vector_y(decode->target_y, x, -(h+y), decode->dir);
 539:..\u8g2\csrc/u8g2_font.c ****     
 540:..\u8g2\csrc/u8g2_font.c ****     //u8g2_add_vector(&(decode->target_x), &(decode->target_y), x, -(h+y), decode->dir);
 541:..\u8g2\csrc/u8g2_font.c **** 
 542:..\u8g2\csrc/u8g2_font.c **** #else
 543:..\u8g2\csrc/u8g2_font.c ****     decode->target_x += x;
 544:..\u8g2\csrc/u8g2_font.c ****     decode->target_y -= h+y;
 545:..\u8g2\csrc/u8g2_font.c **** #endif
 546:..\u8g2\csrc/u8g2_font.c ****     //u8g2_add_vector(&(decode->target_x), &(decode->target_y), x, -(h+y), decode->dir);
 547:..\u8g2\csrc/u8g2_font.c **** 
 548:..\u8g2\csrc/u8g2_font.c **** #ifdef U8G2_WITH_INTERSECTION
 549:..\u8g2\csrc/u8g2_font.c ****     {
 550:..\u8g2\csrc/u8g2_font.c ****       u8g2_uint_t x0, x1, y0, y1;
ARM GAS  C:\Users\brian\AppData\Local\Temp\ccTYhJxe.s 			page 12


 551:..\u8g2\csrc/u8g2_font.c ****       x0 = decode->target_x;
 552:..\u8g2\csrc/u8g2_font.c ****       y0 = decode->target_y;
 553:..\u8g2\csrc/u8g2_font.c ****       x1 = x0;
 554:..\u8g2\csrc/u8g2_font.c ****       y1 = y0;
 555:..\u8g2\csrc/u8g2_font.c ****       
 556:..\u8g2\csrc/u8g2_font.c **** #ifdef U8G2_WITH_FONT_ROTATION
 557:..\u8g2\csrc/u8g2_font.c ****       switch(decode->dir)
 558:..\u8g2\csrc/u8g2_font.c ****       {
 559:..\u8g2\csrc/u8g2_font.c **** 	case 0:
 560:..\u8g2\csrc/u8g2_font.c **** 	    x1 += decode->glyph_width;
 561:..\u8g2\csrc/u8g2_font.c **** 	    y1 += h;
 562:..\u8g2\csrc/u8g2_font.c **** 	    break;
 563:..\u8g2\csrc/u8g2_font.c **** 	case 1:
 564:..\u8g2\csrc/u8g2_font.c **** 	    x0 -= h;
 565:..\u8g2\csrc/u8g2_font.c **** 	    x0++;	/* shift down, because of assymetric boundaries for the interseciton test */
 566:..\u8g2\csrc/u8g2_font.c **** 	    x1++;
 567:..\u8g2\csrc/u8g2_font.c **** 	    y1 += decode->glyph_width;
 568:..\u8g2\csrc/u8g2_font.c **** 	    break;
 569:..\u8g2\csrc/u8g2_font.c **** 	case 2:
 570:..\u8g2\csrc/u8g2_font.c **** 	    x0 -= decode->glyph_width;
 571:..\u8g2\csrc/u8g2_font.c **** 	    x0++;	/* shift down, because of assymetric boundaries for the interseciton test */
 572:..\u8g2\csrc/u8g2_font.c **** 	    x1++;
 573:..\u8g2\csrc/u8g2_font.c **** 	    y0 -= h;
 574:..\u8g2\csrc/u8g2_font.c **** 	    y0++;	/* shift down, because of assymetric boundaries for the interseciton test */
 575:..\u8g2\csrc/u8g2_font.c **** 	    y1++;
 576:..\u8g2\csrc/u8g2_font.c **** 	    break;	  
 577:..\u8g2\csrc/u8g2_font.c **** 	case 3:
 578:..\u8g2\csrc/u8g2_font.c **** 	    x1 += h;
 579:..\u8g2\csrc/u8g2_font.c **** 	    y0 -= decode->glyph_width;
 580:..\u8g2\csrc/u8g2_font.c **** 	    y0++;	/* shift down, because of assymetric boundaries for the interseciton test */
 581:..\u8g2\csrc/u8g2_font.c **** 	    y1++;
 582:..\u8g2\csrc/u8g2_font.c **** 	    break;	  
 583:..\u8g2\csrc/u8g2_font.c ****       }
 584:..\u8g2\csrc/u8g2_font.c **** #else /* U8G2_WITH_FONT_ROTATION */
 585:..\u8g2\csrc/u8g2_font.c ****       x1 += decode->glyph_width;
 586:..\u8g2\csrc/u8g2_font.c ****       y1 += h;      
 587:..\u8g2\csrc/u8g2_font.c **** #endif
 588:..\u8g2\csrc/u8g2_font.c ****       
 589:..\u8g2\csrc/u8g2_font.c ****       if ( u8g2_IsIntersection(u8g2, x0, y0, x1, y1) == 0 ) 
 590:..\u8g2\csrc/u8g2_font.c **** 	return d;
 591:..\u8g2\csrc/u8g2_font.c ****     }
 592:..\u8g2\csrc/u8g2_font.c **** #endif /* U8G2_WITH_INTERSECTION */
 593:..\u8g2\csrc/u8g2_font.c ****    
 594:..\u8g2\csrc/u8g2_font.c ****     /* reset local x/y position */
 595:..\u8g2\csrc/u8g2_font.c ****     decode->x = 0;
 596:..\u8g2\csrc/u8g2_font.c ****     decode->y = 0;
 597:..\u8g2\csrc/u8g2_font.c ****     
 598:..\u8g2\csrc/u8g2_font.c ****     /* decode glyph */
 599:..\u8g2\csrc/u8g2_font.c ****     for(;;)
 600:..\u8g2\csrc/u8g2_font.c ****     {
 601:..\u8g2\csrc/u8g2_font.c ****       a = u8g2_font_decode_get_unsigned_bits(decode, u8g2->font_info.bits_per_0);
 602:..\u8g2\csrc/u8g2_font.c ****       b = u8g2_font_decode_get_unsigned_bits(decode, u8g2->font_info.bits_per_1);
 603:..\u8g2\csrc/u8g2_font.c ****       do
 604:..\u8g2\csrc/u8g2_font.c ****       {
 605:..\u8g2\csrc/u8g2_font.c **** 	u8g2_font_decode_len(u8g2, a, 0);
 606:..\u8g2\csrc/u8g2_font.c **** 	u8g2_font_decode_len(u8g2, b, 1);
 607:..\u8g2\csrc/u8g2_font.c ****       } while( u8g2_font_decode_get_unsigned_bits(decode, 1) != 0 );
ARM GAS  C:\Users\brian\AppData\Local\Temp\ccTYhJxe.s 			page 13


 608:..\u8g2\csrc/u8g2_font.c **** 
 609:..\u8g2\csrc/u8g2_font.c ****       if ( decode->y >= h )
 610:..\u8g2\csrc/u8g2_font.c **** 	break;
 611:..\u8g2\csrc/u8g2_font.c ****     }
 612:..\u8g2\csrc/u8g2_font.c ****     
 613:..\u8g2\csrc/u8g2_font.c ****     /* restore the u8g2 draw color, because this is modified by the decode algo */
 614:..\u8g2\csrc/u8g2_font.c ****     u8g2->draw_color = decode->fg_color;
 615:..\u8g2\csrc/u8g2_font.c ****   }
 616:..\u8g2\csrc/u8g2_font.c ****   return d;
 617:..\u8g2\csrc/u8g2_font.c **** }
 618:..\u8g2\csrc/u8g2_font.c **** 
 619:..\u8g2\csrc/u8g2_font.c **** /*
 620:..\u8g2\csrc/u8g2_font.c ****   Description:
 621:..\u8g2\csrc/u8g2_font.c ****     Find the starting point of the glyph data.
 622:..\u8g2\csrc/u8g2_font.c ****   Args:
 623:..\u8g2\csrc/u8g2_font.c ****     encoding: Encoding (ASCII or Unicode) of the glyph
 624:..\u8g2\csrc/u8g2_font.c ****   Return:
 625:..\u8g2\csrc/u8g2_font.c ****     Address of the glyph data or NULL, if the encoding is not avialable in the font.
 626:..\u8g2\csrc/u8g2_font.c **** */
 627:..\u8g2\csrc/u8g2_font.c **** const uint8_t *u8g2_font_get_glyph_data(u8g2_t *u8g2, uint16_t encoding)
 628:..\u8g2\csrc/u8g2_font.c **** {
 629:..\u8g2\csrc/u8g2_font.c ****   const uint8_t *font = u8g2->font;
 630:..\u8g2\csrc/u8g2_font.c ****   font += U8G2_FONT_DATA_STRUCT_SIZE;
 631:..\u8g2\csrc/u8g2_font.c **** 
 632:..\u8g2\csrc/u8g2_font.c ****   
 633:..\u8g2\csrc/u8g2_font.c ****   if ( encoding <= 255 )
 634:..\u8g2\csrc/u8g2_font.c ****   {
 635:..\u8g2\csrc/u8g2_font.c ****     if ( encoding >= 'a' )
 636:..\u8g2\csrc/u8g2_font.c ****     {
 637:..\u8g2\csrc/u8g2_font.c ****       font += u8g2->font_info.start_pos_lower_a;
 638:..\u8g2\csrc/u8g2_font.c ****     }
 639:..\u8g2\csrc/u8g2_font.c ****     else if ( encoding >= 'A' )
 640:..\u8g2\csrc/u8g2_font.c ****     {
 641:..\u8g2\csrc/u8g2_font.c ****       font += u8g2->font_info.start_pos_upper_A;
 642:..\u8g2\csrc/u8g2_font.c ****     }
 643:..\u8g2\csrc/u8g2_font.c ****     
 644:..\u8g2\csrc/u8g2_font.c ****     for(;;)
 645:..\u8g2\csrc/u8g2_font.c ****     {
 646:..\u8g2\csrc/u8g2_font.c ****       if ( u8x8_pgm_read( font + 1 ) == 0 )
 647:..\u8g2\csrc/u8g2_font.c **** 	break;
 648:..\u8g2\csrc/u8g2_font.c ****       if ( u8x8_pgm_read( font ) == encoding )
 649:..\u8g2\csrc/u8g2_font.c ****       {
 650:..\u8g2\csrc/u8g2_font.c **** 	return font+2;	/* skip encoding and glyph size */
 651:..\u8g2\csrc/u8g2_font.c ****       }
 652:..\u8g2\csrc/u8g2_font.c ****       font += u8x8_pgm_read( font + 1 );
 653:..\u8g2\csrc/u8g2_font.c ****     }
 654:..\u8g2\csrc/u8g2_font.c ****   }
 655:..\u8g2\csrc/u8g2_font.c **** #ifdef U8G2_WITH_UNICODE
 656:..\u8g2\csrc/u8g2_font.c ****   else
 657:..\u8g2\csrc/u8g2_font.c ****   {
 658:..\u8g2\csrc/u8g2_font.c ****     uint16_t e;
 659:..\u8g2\csrc/u8g2_font.c ****     const uint8_t *unicode_lookup_table;
 660:..\u8g2\csrc/u8g2_font.c ****     
 661:..\u8g2\csrc/u8g2_font.c **** // removed, there is now the new index table
 662:..\u8g2\csrc/u8g2_font.c **** //#ifdef  __unix__
 663:..\u8g2\csrc/u8g2_font.c **** //    if ( u8g2->last_font_data != NULL && encoding >= u8g2->last_unicode )
 664:..\u8g2\csrc/u8g2_font.c **** //    {
ARM GAS  C:\Users\brian\AppData\Local\Temp\ccTYhJxe.s 			page 14


 665:..\u8g2\csrc/u8g2_font.c **** //	font = u8g2->last_font_data;
 666:..\u8g2\csrc/u8g2_font.c **** //    }
 667:..\u8g2\csrc/u8g2_font.c **** //    else
 668:..\u8g2\csrc/u8g2_font.c **** //#endif 
 669:..\u8g2\csrc/u8g2_font.c **** 
 670:..\u8g2\csrc/u8g2_font.c ****     font += u8g2->font_info.start_pos_unicode;
 671:..\u8g2\csrc/u8g2_font.c ****     unicode_lookup_table = font; 
 672:..\u8g2\csrc/u8g2_font.c ****   
 673:..\u8g2\csrc/u8g2_font.c ****     /* issue 596: search for the glyph start in the unicode lookup table */
 674:..\u8g2\csrc/u8g2_font.c ****     do
 675:..\u8g2\csrc/u8g2_font.c ****     {
 676:..\u8g2\csrc/u8g2_font.c ****       font += u8g2_font_get_word(unicode_lookup_table, 0);
 677:..\u8g2\csrc/u8g2_font.c ****       e = u8g2_font_get_word(unicode_lookup_table, 2);
 678:..\u8g2\csrc/u8g2_font.c ****       unicode_lookup_table+=4;
 679:..\u8g2\csrc/u8g2_font.c ****     } while( e < encoding );
 680:..\u8g2\csrc/u8g2_font.c ****     
 681:..\u8g2\csrc/u8g2_font.c ****   
 682:..\u8g2\csrc/u8g2_font.c ****     for(;;)
 683:..\u8g2\csrc/u8g2_font.c ****     {
 684:..\u8g2\csrc/u8g2_font.c ****       e = u8x8_pgm_read( font );
 685:..\u8g2\csrc/u8g2_font.c ****       e <<= 8;
 686:..\u8g2\csrc/u8g2_font.c ****       e |= u8x8_pgm_read( font + 1 );
 687:..\u8g2\csrc/u8g2_font.c ****   
 688:..\u8g2\csrc/u8g2_font.c **** // removed, there is now the new index table  
 689:..\u8g2\csrc/u8g2_font.c **** //#ifdef  __unix__
 690:..\u8g2\csrc/u8g2_font.c **** //      if ( encoding < e )
 691:..\u8g2\csrc/u8g2_font.c **** //        break;
 692:..\u8g2\csrc/u8g2_font.c **** //#endif 
 693:..\u8g2\csrc/u8g2_font.c **** 
 694:..\u8g2\csrc/u8g2_font.c ****       if ( e == 0 )
 695:..\u8g2\csrc/u8g2_font.c **** 	break;
 696:..\u8g2\csrc/u8g2_font.c ****   
 697:..\u8g2\csrc/u8g2_font.c ****       if ( e == encoding )
 698:..\u8g2\csrc/u8g2_font.c ****       {
 699:..\u8g2\csrc/u8g2_font.c **** // removed, there is now the new index table
 700:..\u8g2\csrc/u8g2_font.c **** //#ifdef  __unix__
 701:..\u8g2\csrc/u8g2_font.c **** //	u8g2->last_font_data = font;
 702:..\u8g2\csrc/u8g2_font.c **** //	u8g2->last_unicode = encoding;
 703:..\u8g2\csrc/u8g2_font.c **** //#endif 
 704:..\u8g2\csrc/u8g2_font.c **** 	return font+3;	/* skip encoding and glyph size */
 705:..\u8g2\csrc/u8g2_font.c ****       }
 706:..\u8g2\csrc/u8g2_font.c ****       font += u8x8_pgm_read( font + 2 );
 707:..\u8g2\csrc/u8g2_font.c ****     }  
 708:..\u8g2\csrc/u8g2_font.c ****   }
 709:..\u8g2\csrc/u8g2_font.c **** #endif
 710:..\u8g2\csrc/u8g2_font.c ****   
 711:..\u8g2\csrc/u8g2_font.c ****   return NULL;
 712:..\u8g2\csrc/u8g2_font.c **** }
 713:..\u8g2\csrc/u8g2_font.c **** 
 714:..\u8g2\csrc/u8g2_font.c **** static u8g2_uint_t u8g2_font_draw_glyph(u8g2_t *u8g2, u8g2_uint_t x, u8g2_uint_t y, uint16_t encodi
 715:..\u8g2\csrc/u8g2_font.c **** {
 716:..\u8g2\csrc/u8g2_font.c ****   u8g2_uint_t dx = 0;
 717:..\u8g2\csrc/u8g2_font.c ****   u8g2->font_decode.target_x = x;
 718:..\u8g2\csrc/u8g2_font.c ****   u8g2->font_decode.target_y = y;
 719:..\u8g2\csrc/u8g2_font.c ****   //u8g2->font_decode.is_transparent = is_transparent; this is already set
 720:..\u8g2\csrc/u8g2_font.c ****   //u8g2->font_decode.dir = dir;
 721:..\u8g2\csrc/u8g2_font.c ****   const uint8_t *glyph_data = u8g2_font_get_glyph_data(u8g2, encoding);
ARM GAS  C:\Users\brian\AppData\Local\Temp\ccTYhJxe.s 			page 15


 722:..\u8g2\csrc/u8g2_font.c ****   if ( glyph_data != NULL )
 723:..\u8g2\csrc/u8g2_font.c ****   {
 724:..\u8g2\csrc/u8g2_font.c ****     dx = u8g2_font_decode_glyph(u8g2, glyph_data);
 725:..\u8g2\csrc/u8g2_font.c ****   }
 726:..\u8g2\csrc/u8g2_font.c ****   return dx;
 727:..\u8g2\csrc/u8g2_font.c **** }
 728:..\u8g2\csrc/u8g2_font.c **** 
 729:..\u8g2\csrc/u8g2_font.c **** 
 730:..\u8g2\csrc/u8g2_font.c **** 
 731:..\u8g2\csrc/u8g2_font.c **** uint8_t u8g2_IsGlyph(u8g2_t *u8g2, uint16_t requested_encoding)
 732:..\u8g2\csrc/u8g2_font.c **** {
 733:..\u8g2\csrc/u8g2_font.c ****   /* updated to new code */
 734:..\u8g2\csrc/u8g2_font.c ****   if ( u8g2_font_get_glyph_data(u8g2, requested_encoding) != NULL )
 735:..\u8g2\csrc/u8g2_font.c ****     return 1;
 736:..\u8g2\csrc/u8g2_font.c ****   return 0;
 737:..\u8g2\csrc/u8g2_font.c **** }
 738:..\u8g2\csrc/u8g2_font.c **** 
 739:..\u8g2\csrc/u8g2_font.c **** /* side effect: updates u8g2->font_decode and u8g2->glyph_x_offset */
 740:..\u8g2\csrc/u8g2_font.c **** int8_t u8g2_GetGlyphWidth(u8g2_t *u8g2, uint16_t requested_encoding)
 741:..\u8g2\csrc/u8g2_font.c **** {
 742:..\u8g2\csrc/u8g2_font.c ****   const uint8_t *glyph_data = u8g2_font_get_glyph_data(u8g2, requested_encoding);
 743:..\u8g2\csrc/u8g2_font.c ****   if ( glyph_data == NULL )
 744:..\u8g2\csrc/u8g2_font.c ****     return 0; 
 745:..\u8g2\csrc/u8g2_font.c ****   
 746:..\u8g2\csrc/u8g2_font.c ****   u8g2_font_setup_decode(u8g2, glyph_data);
 747:..\u8g2\csrc/u8g2_font.c ****   u8g2->glyph_x_offset = u8g2_font_decode_get_signed_bits(&(u8g2->font_decode), u8g2->font_info.bit
 748:..\u8g2\csrc/u8g2_font.c ****   u8g2_font_decode_get_signed_bits(&(u8g2->font_decode), u8g2->font_info.bits_per_char_y);
 749:..\u8g2\csrc/u8g2_font.c ****   
 750:..\u8g2\csrc/u8g2_font.c ****   /* glyph width is here: u8g2->font_decode.glyph_width */
 751:..\u8g2\csrc/u8g2_font.c **** 
 752:..\u8g2\csrc/u8g2_font.c ****   return u8g2_font_decode_get_signed_bits(&(u8g2->font_decode), u8g2->font_info.bits_per_delta_x);
 753:..\u8g2\csrc/u8g2_font.c **** }
 754:..\u8g2\csrc/u8g2_font.c **** 
 755:..\u8g2\csrc/u8g2_font.c **** 
 756:..\u8g2\csrc/u8g2_font.c **** /*
 757:..\u8g2\csrc/u8g2_font.c ****   set one of:
 758:..\u8g2\csrc/u8g2_font.c ****     U8G2_FONT_MODE_TRANSPARENT
 759:..\u8g2\csrc/u8g2_font.c ****     U8G2_FONT_MODE_SOLID
 760:..\u8g2\csrc/u8g2_font.c ****     U8G2_FONT_MODE_NONE
 761:..\u8g2\csrc/u8g2_font.c ****   This has been changed for the new font procedures  
 762:..\u8g2\csrc/u8g2_font.c **** */
 763:..\u8g2\csrc/u8g2_font.c **** void u8g2_SetFontMode(u8g2_t *u8g2, uint8_t is_transparent)
 764:..\u8g2\csrc/u8g2_font.c **** {
 765:..\u8g2\csrc/u8g2_font.c ****   u8g2->font_decode.is_transparent = is_transparent;		// new font procedures
 766:..\u8g2\csrc/u8g2_font.c **** }
 767:..\u8g2\csrc/u8g2_font.c **** 
 768:..\u8g2\csrc/u8g2_font.c **** u8g2_uint_t u8g2_DrawGlyph(u8g2_t *u8g2, u8g2_uint_t x, u8g2_uint_t y, uint16_t encoding)
 769:..\u8g2\csrc/u8g2_font.c **** {
 770:..\u8g2\csrc/u8g2_font.c **** #ifdef U8G2_WITH_FONT_ROTATION
 771:..\u8g2\csrc/u8g2_font.c ****   switch(u8g2->font_decode.dir)
 772:..\u8g2\csrc/u8g2_font.c ****   {
 773:..\u8g2\csrc/u8g2_font.c ****     case 0:
 774:..\u8g2\csrc/u8g2_font.c ****       y += u8g2->font_calc_vref(u8g2);
 775:..\u8g2\csrc/u8g2_font.c ****       break;
 776:..\u8g2\csrc/u8g2_font.c ****     case 1:
 777:..\u8g2\csrc/u8g2_font.c ****       x -= u8g2->font_calc_vref(u8g2);
 778:..\u8g2\csrc/u8g2_font.c ****       break;
ARM GAS  C:\Users\brian\AppData\Local\Temp\ccTYhJxe.s 			page 16


 779:..\u8g2\csrc/u8g2_font.c ****     case 2:
 780:..\u8g2\csrc/u8g2_font.c ****       y -= u8g2->font_calc_vref(u8g2);
 781:..\u8g2\csrc/u8g2_font.c ****       break;
 782:..\u8g2\csrc/u8g2_font.c ****     case 3:
 783:..\u8g2\csrc/u8g2_font.c ****       x += u8g2->font_calc_vref(u8g2);
 784:..\u8g2\csrc/u8g2_font.c ****       break;
 785:..\u8g2\csrc/u8g2_font.c ****   }
 786:..\u8g2\csrc/u8g2_font.c **** #else
 787:..\u8g2\csrc/u8g2_font.c ****   y += u8g2->font_calc_vref(u8g2);
 788:..\u8g2\csrc/u8g2_font.c **** #endif
 789:..\u8g2\csrc/u8g2_font.c ****   return u8g2_font_draw_glyph(u8g2, x, y, encoding);
 790:..\u8g2\csrc/u8g2_font.c **** }
 791:..\u8g2\csrc/u8g2_font.c **** 
 792:..\u8g2\csrc/u8g2_font.c **** static u8g2_uint_t u8g2_draw_string(u8g2_t *u8g2, u8g2_uint_t x, u8g2_uint_t y, const char *str) U8
 793:..\u8g2\csrc/u8g2_font.c **** static u8g2_uint_t u8g2_draw_string(u8g2_t *u8g2, u8g2_uint_t x, u8g2_uint_t y, const char *str)
 794:..\u8g2\csrc/u8g2_font.c **** {
 795:..\u8g2\csrc/u8g2_font.c ****   uint16_t e;
 796:..\u8g2\csrc/u8g2_font.c ****   u8g2_uint_t delta, sum;
 797:..\u8g2\csrc/u8g2_font.c ****   u8x8_utf8_init(u8g2_GetU8x8(u8g2));
 798:..\u8g2\csrc/u8g2_font.c ****   sum = 0;
 799:..\u8g2\csrc/u8g2_font.c ****   for(;;)
 800:..\u8g2\csrc/u8g2_font.c ****   {
 801:..\u8g2\csrc/u8g2_font.c ****     e = u8g2->u8x8.next_cb(u8g2_GetU8x8(u8g2), (uint8_t)*str);
 802:..\u8g2\csrc/u8g2_font.c ****     if ( e == 0x0ffff )
 803:..\u8g2\csrc/u8g2_font.c ****       break;
 804:..\u8g2\csrc/u8g2_font.c ****     str++;
 805:..\u8g2\csrc/u8g2_font.c ****     if ( e != 0x0fffe )
 806:..\u8g2\csrc/u8g2_font.c ****     {
 807:..\u8g2\csrc/u8g2_font.c ****       delta = u8g2_DrawGlyph(u8g2, x, y, e);
 808:..\u8g2\csrc/u8g2_font.c ****     
 809:..\u8g2\csrc/u8g2_font.c **** #ifdef U8G2_WITH_FONT_ROTATION
 810:..\u8g2\csrc/u8g2_font.c ****       switch(u8g2->font_decode.dir)
 811:..\u8g2\csrc/u8g2_font.c ****       {
 812:..\u8g2\csrc/u8g2_font.c **** 	case 0:
 813:..\u8g2\csrc/u8g2_font.c **** 	  x += delta;
 814:..\u8g2\csrc/u8g2_font.c **** 	  break;
 815:..\u8g2\csrc/u8g2_font.c **** 	case 1:
 816:..\u8g2\csrc/u8g2_font.c **** 	  y += delta;
 817:..\u8g2\csrc/u8g2_font.c **** 	  break;
 818:..\u8g2\csrc/u8g2_font.c **** 	case 2:
 819:..\u8g2\csrc/u8g2_font.c **** 	  x -= delta;
 820:..\u8g2\csrc/u8g2_font.c **** 	  break;
 821:..\u8g2\csrc/u8g2_font.c **** 	case 3:
 822:..\u8g2\csrc/u8g2_font.c **** 	  y -= delta;
 823:..\u8g2\csrc/u8g2_font.c **** 	  break;
 824:..\u8g2\csrc/u8g2_font.c ****       }
 825:..\u8g2\csrc/u8g2_font.c ****       
 826:..\u8g2\csrc/u8g2_font.c ****       /*
 827:..\u8g2\csrc/u8g2_font.c ****       // requires 10 bytes more on avr
 828:..\u8g2\csrc/u8g2_font.c ****       x = u8g2_add_vector_x(x, delta, 0, u8g2->font_decode.dir);
 829:..\u8g2\csrc/u8g2_font.c ****       y = u8g2_add_vector_y(y, delta, 0, u8g2->font_decode.dir);
 830:..\u8g2\csrc/u8g2_font.c ****       */
 831:..\u8g2\csrc/u8g2_font.c **** 
 832:..\u8g2\csrc/u8g2_font.c **** #else
 833:..\u8g2\csrc/u8g2_font.c ****       x += delta;
 834:..\u8g2\csrc/u8g2_font.c **** #endif
 835:..\u8g2\csrc/u8g2_font.c **** 
ARM GAS  C:\Users\brian\AppData\Local\Temp\ccTYhJxe.s 			page 17


 836:..\u8g2\csrc/u8g2_font.c ****       sum += delta;    
 837:..\u8g2\csrc/u8g2_font.c ****     }
 838:..\u8g2\csrc/u8g2_font.c ****   }
 839:..\u8g2\csrc/u8g2_font.c ****   return sum;
 840:..\u8g2\csrc/u8g2_font.c **** }
 841:..\u8g2\csrc/u8g2_font.c **** 
 842:..\u8g2\csrc/u8g2_font.c **** u8g2_uint_t u8g2_DrawStr(u8g2_t *u8g2, u8g2_uint_t x, u8g2_uint_t y, const char *str)
 843:..\u8g2\csrc/u8g2_font.c **** {
 844:..\u8g2\csrc/u8g2_font.c ****   u8g2->u8x8.next_cb = u8x8_ascii_next;
 845:..\u8g2\csrc/u8g2_font.c ****   return u8g2_draw_string(u8g2, x, y, str);
 846:..\u8g2\csrc/u8g2_font.c **** }
 847:..\u8g2\csrc/u8g2_font.c **** 
 848:..\u8g2\csrc/u8g2_font.c **** /*
 849:..\u8g2\csrc/u8g2_font.c **** source: https://en.wikipedia.org/wiki/UTF-8
 850:..\u8g2\csrc/u8g2_font.c **** Bits	from 		to			bytes	Byte 1 		Byte 2 		Byte 3 		Byte 4 		Byte 5 		Byte 6
 851:..\u8g2\csrc/u8g2_font.c ****   7 	U+0000 		U+007F 		1 		0xxxxxxx
 852:..\u8g2\csrc/u8g2_font.c **** 11 	U+0080 		U+07FF 		2 		110xxxxx 	10xxxxxx
 853:..\u8g2\csrc/u8g2_font.c **** 16 	U+0800 		U+FFFF 		3 		1110xxxx 	10xxxxxx 	10xxxxxx
 854:..\u8g2\csrc/u8g2_font.c **** 21 	U+10000 	U+1FFFFF 	4 		11110xxx 	10xxxxxx 	10xxxxxx 	10xxxxxx
 855:..\u8g2\csrc/u8g2_font.c **** 26 	U+200000 	U+3FFFFFF 	5 		111110xx 	10xxxxxx 	10xxxxxx 	10xxxxxx 	10xxxxxx
 856:..\u8g2\csrc/u8g2_font.c **** 31 	U+4000000 	U+7FFFFFFF 	6 		1111110x 	10xxxxxx 	10xxxxxx 	10xxxxxx 	10xxxxxx 	10xxxxxx  
 857:..\u8g2\csrc/u8g2_font.c **** */
 858:..\u8g2\csrc/u8g2_font.c **** u8g2_uint_t u8g2_DrawUTF8(u8g2_t *u8g2, u8g2_uint_t x, u8g2_uint_t y, const char *str)
 859:..\u8g2\csrc/u8g2_font.c **** {
 860:..\u8g2\csrc/u8g2_font.c ****   u8g2->u8x8.next_cb = u8x8_utf8_next;
 861:..\u8g2\csrc/u8g2_font.c ****   return u8g2_draw_string(u8g2, x, y, str);
 862:..\u8g2\csrc/u8g2_font.c **** }
 863:..\u8g2\csrc/u8g2_font.c **** 
 864:..\u8g2\csrc/u8g2_font.c **** 
 865:..\u8g2\csrc/u8g2_font.c **** 
 866:..\u8g2\csrc/u8g2_font.c **** u8g2_uint_t u8g2_DrawExtendedUTF8(u8g2_t *u8g2, u8g2_uint_t x, u8g2_uint_t y, uint8_t to_left, u8g2
 867:..\u8g2\csrc/u8g2_font.c **** {
 868:..\u8g2\csrc/u8g2_font.c ****   u8g2->u8x8.next_cb = u8x8_utf8_next;
 869:..\u8g2\csrc/u8g2_font.c ****   uint16_t e_prev = 0x0ffff;
 870:..\u8g2\csrc/u8g2_font.c ****   uint16_t e;
 871:..\u8g2\csrc/u8g2_font.c ****   u8g2_uint_t delta, sum, k;
 872:..\u8g2\csrc/u8g2_font.c ****   u8x8_utf8_init(u8g2_GetU8x8(u8g2));
 873:..\u8g2\csrc/u8g2_font.c ****   sum = 0;
 874:..\u8g2\csrc/u8g2_font.c ****   for(;;)
 875:..\u8g2\csrc/u8g2_font.c ****   {
 876:..\u8g2\csrc/u8g2_font.c ****     e = u8g2->u8x8.next_cb(u8g2_GetU8x8(u8g2), (uint8_t)*str);
 877:..\u8g2\csrc/u8g2_font.c ****     if ( e == 0x0ffff )
 878:..\u8g2\csrc/u8g2_font.c ****       break;
 879:..\u8g2\csrc/u8g2_font.c ****     str++;
 880:..\u8g2\csrc/u8g2_font.c ****     if ( e != 0x0fffe )
 881:..\u8g2\csrc/u8g2_font.c ****     {
 882:..\u8g2\csrc/u8g2_font.c ****       delta = u8g2_GetGlyphWidth(u8g2, e);
 883:..\u8g2\csrc/u8g2_font.c **** 	    
 884:..\u8g2\csrc/u8g2_font.c ****       if ( to_left )
 885:..\u8g2\csrc/u8g2_font.c ****       {
 886:..\u8g2\csrc/u8g2_font.c ****         k = u8g2_GetKerning(u8g2, kerning, e, e_prev);
 887:..\u8g2\csrc/u8g2_font.c **** 	delta -= k;
 888:..\u8g2\csrc/u8g2_font.c **** 	x -= delta;
 889:..\u8g2\csrc/u8g2_font.c ****       }
 890:..\u8g2\csrc/u8g2_font.c ****       else
 891:..\u8g2\csrc/u8g2_font.c ****       {
 892:..\u8g2\csrc/u8g2_font.c ****         k = u8g2_GetKerning(u8g2, kerning, e_prev, e);
ARM GAS  C:\Users\brian\AppData\Local\Temp\ccTYhJxe.s 			page 18


 893:..\u8g2\csrc/u8g2_font.c **** 	delta -= k;
 894:..\u8g2\csrc/u8g2_font.c ****       }
 895:..\u8g2\csrc/u8g2_font.c ****       e_prev = e;
 896:..\u8g2\csrc/u8g2_font.c **** 
 897:..\u8g2\csrc/u8g2_font.c ****       u8g2_DrawGlyph(u8g2, x, y, e);
 898:..\u8g2\csrc/u8g2_font.c ****       if ( to_left )
 899:..\u8g2\csrc/u8g2_font.c ****       {
 900:..\u8g2\csrc/u8g2_font.c ****       }
 901:..\u8g2\csrc/u8g2_font.c ****       else
 902:..\u8g2\csrc/u8g2_font.c ****       {
 903:..\u8g2\csrc/u8g2_font.c **** 	x += delta;
 904:..\u8g2\csrc/u8g2_font.c **** 	x -= k;
 905:..\u8g2\csrc/u8g2_font.c ****       }
 906:..\u8g2\csrc/u8g2_font.c ****       
 907:..\u8g2\csrc/u8g2_font.c ****       sum += delta;    
 908:..\u8g2\csrc/u8g2_font.c ****     }
 909:..\u8g2\csrc/u8g2_font.c ****   }
 910:..\u8g2\csrc/u8g2_font.c ****   return sum;
 911:..\u8g2\csrc/u8g2_font.c **** }
 912:..\u8g2\csrc/u8g2_font.c **** 
 913:..\u8g2\csrc/u8g2_font.c **** u8g2_uint_t u8g2_DrawExtUTF8(u8g2_t *u8g2, u8g2_uint_t x, u8g2_uint_t y, uint8_t to_left, const uin
 914:..\u8g2\csrc/u8g2_font.c **** {
 915:..\u8g2\csrc/u8g2_font.c ****   u8g2->u8x8.next_cb = u8x8_utf8_next;
 916:..\u8g2\csrc/u8g2_font.c ****   uint16_t e_prev = 0x0ffff;
 917:..\u8g2\csrc/u8g2_font.c ****   uint16_t e;
 918:..\u8g2\csrc/u8g2_font.c ****   u8g2_uint_t delta, sum, k;
 919:..\u8g2\csrc/u8g2_font.c ****   u8x8_utf8_init(u8g2_GetU8x8(u8g2));
 920:..\u8g2\csrc/u8g2_font.c ****   sum = 0;
 921:..\u8g2\csrc/u8g2_font.c ****   for(;;)
 922:..\u8g2\csrc/u8g2_font.c ****   {
 923:..\u8g2\csrc/u8g2_font.c ****     e = u8g2->u8x8.next_cb(u8g2_GetU8x8(u8g2), (uint8_t)*str);
 924:..\u8g2\csrc/u8g2_font.c ****     if ( e == 0x0ffff )
 925:..\u8g2\csrc/u8g2_font.c ****       break;
 926:..\u8g2\csrc/u8g2_font.c ****     str++;
 927:..\u8g2\csrc/u8g2_font.c ****     if ( e != 0x0fffe )
 928:..\u8g2\csrc/u8g2_font.c ****     {
 929:..\u8g2\csrc/u8g2_font.c ****       delta = u8g2_GetGlyphWidth(u8g2, e);
 930:..\u8g2\csrc/u8g2_font.c **** 	    
 931:..\u8g2\csrc/u8g2_font.c ****       if ( to_left )
 932:..\u8g2\csrc/u8g2_font.c ****       {
 933:..\u8g2\csrc/u8g2_font.c ****         k = u8g2_GetKerningByTable(u8g2, kerning_table, e, e_prev);
 934:..\u8g2\csrc/u8g2_font.c **** 	delta -= k;
 935:..\u8g2\csrc/u8g2_font.c **** 	x -= delta;
 936:..\u8g2\csrc/u8g2_font.c ****       }
 937:..\u8g2\csrc/u8g2_font.c ****       else
 938:..\u8g2\csrc/u8g2_font.c ****       {
 939:..\u8g2\csrc/u8g2_font.c ****         k = u8g2_GetKerningByTable(u8g2, kerning_table, e_prev, e);
 940:..\u8g2\csrc/u8g2_font.c **** 	delta -= k;
 941:..\u8g2\csrc/u8g2_font.c ****       }
 942:..\u8g2\csrc/u8g2_font.c ****       e_prev = e;
 943:..\u8g2\csrc/u8g2_font.c **** 
 944:..\u8g2\csrc/u8g2_font.c ****       if ( to_left )
 945:..\u8g2\csrc/u8g2_font.c ****       {
 946:..\u8g2\csrc/u8g2_font.c ****       }
 947:..\u8g2\csrc/u8g2_font.c ****       else
 948:..\u8g2\csrc/u8g2_font.c ****       {
 949:..\u8g2\csrc/u8g2_font.c **** 	x += delta;
ARM GAS  C:\Users\brian\AppData\Local\Temp\ccTYhJxe.s 			page 19


 950:..\u8g2\csrc/u8g2_font.c ****       }
 951:..\u8g2\csrc/u8g2_font.c ****       u8g2_DrawGlyph(u8g2, x, y, e);
 952:..\u8g2\csrc/u8g2_font.c ****       if ( to_left )
 953:..\u8g2\csrc/u8g2_font.c ****       {
 954:..\u8g2\csrc/u8g2_font.c ****       }
 955:..\u8g2\csrc/u8g2_font.c ****       else
 956:..\u8g2\csrc/u8g2_font.c ****       {
 957:..\u8g2\csrc/u8g2_font.c **** 	//x += delta;
 958:..\u8g2\csrc/u8g2_font.c **** 	//x -= k;
 959:..\u8g2\csrc/u8g2_font.c ****       }
 960:..\u8g2\csrc/u8g2_font.c ****       
 961:..\u8g2\csrc/u8g2_font.c ****       sum += delta;    
 962:..\u8g2\csrc/u8g2_font.c ****     }
 963:..\u8g2\csrc/u8g2_font.c ****   }
 964:..\u8g2\csrc/u8g2_font.c ****   return sum;
 965:..\u8g2\csrc/u8g2_font.c **** }
 966:..\u8g2\csrc/u8g2_font.c **** 
 967:..\u8g2\csrc/u8g2_font.c **** 
 968:..\u8g2\csrc/u8g2_font.c **** 
 969:..\u8g2\csrc/u8g2_font.c **** /*===============================================*/
 970:..\u8g2\csrc/u8g2_font.c **** 
 971:..\u8g2\csrc/u8g2_font.c **** /* set ascent/descent for reference point calculation */
 972:..\u8g2\csrc/u8g2_font.c **** 
 973:..\u8g2\csrc/u8g2_font.c **** void u8g2_UpdateRefHeight(u8g2_t *u8g2)
 974:..\u8g2\csrc/u8g2_font.c **** {
 975:..\u8g2\csrc/u8g2_font.c ****   if ( u8g2->font == NULL )
 976:..\u8g2\csrc/u8g2_font.c ****     return;
 977:..\u8g2\csrc/u8g2_font.c ****   u8g2->font_ref_ascent = u8g2->font_info.ascent_A;
 978:..\u8g2\csrc/u8g2_font.c ****   u8g2->font_ref_descent = u8g2->font_info.descent_g;
 979:..\u8g2\csrc/u8g2_font.c ****   if ( u8g2->font_height_mode == U8G2_FONT_HEIGHT_MODE_TEXT )
 980:..\u8g2\csrc/u8g2_font.c ****   {
 981:..\u8g2\csrc/u8g2_font.c ****   }
 982:..\u8g2\csrc/u8g2_font.c ****   else if ( u8g2->font_height_mode == U8G2_FONT_HEIGHT_MODE_XTEXT )
 983:..\u8g2\csrc/u8g2_font.c ****   {
 984:..\u8g2\csrc/u8g2_font.c ****     if ( u8g2->font_ref_ascent < u8g2->font_info.ascent_para )
 985:..\u8g2\csrc/u8g2_font.c ****       u8g2->font_ref_ascent = u8g2->font_info.ascent_para;
 986:..\u8g2\csrc/u8g2_font.c ****     if ( u8g2->font_ref_descent > u8g2->font_info.descent_para )
 987:..\u8g2\csrc/u8g2_font.c ****       u8g2->font_ref_descent = u8g2->font_info.descent_para;
 988:..\u8g2\csrc/u8g2_font.c ****   }
 989:..\u8g2\csrc/u8g2_font.c ****   else
 990:..\u8g2\csrc/u8g2_font.c ****   {
 991:..\u8g2\csrc/u8g2_font.c ****     if ( u8g2->font_ref_ascent < u8g2->font_info.max_char_height+u8g2->font_info.y_offset )
 992:..\u8g2\csrc/u8g2_font.c ****       u8g2->font_ref_ascent = u8g2->font_info.max_char_height+u8g2->font_info.y_offset;
 993:..\u8g2\csrc/u8g2_font.c ****     if ( u8g2->font_ref_descent > u8g2->font_info.y_offset )
 994:..\u8g2\csrc/u8g2_font.c ****       u8g2->font_ref_descent = u8g2->font_info.y_offset;
 995:..\u8g2\csrc/u8g2_font.c ****   }  
 996:..\u8g2\csrc/u8g2_font.c **** }
 997:..\u8g2\csrc/u8g2_font.c **** 
 998:..\u8g2\csrc/u8g2_font.c **** void u8g2_SetFontRefHeightText(u8g2_t *u8g2)
 999:..\u8g2\csrc/u8g2_font.c **** {
1000:..\u8g2\csrc/u8g2_font.c ****   u8g2->font_height_mode = U8G2_FONT_HEIGHT_MODE_TEXT;
1001:..\u8g2\csrc/u8g2_font.c ****   u8g2_UpdateRefHeight(u8g2);
1002:..\u8g2\csrc/u8g2_font.c **** }
1003:..\u8g2\csrc/u8g2_font.c **** 
1004:..\u8g2\csrc/u8g2_font.c **** void u8g2_SetFontRefHeightExtendedText(u8g2_t *u8g2)
1005:..\u8g2\csrc/u8g2_font.c **** {
1006:..\u8g2\csrc/u8g2_font.c ****   u8g2->font_height_mode = U8G2_FONT_HEIGHT_MODE_XTEXT;
ARM GAS  C:\Users\brian\AppData\Local\Temp\ccTYhJxe.s 			page 20


1007:..\u8g2\csrc/u8g2_font.c ****   u8g2_UpdateRefHeight(u8g2);
1008:..\u8g2\csrc/u8g2_font.c **** }
1009:..\u8g2\csrc/u8g2_font.c **** 
1010:..\u8g2\csrc/u8g2_font.c **** void u8g2_SetFontRefHeightAll(u8g2_t *u8g2)
1011:..\u8g2\csrc/u8g2_font.c **** {
1012:..\u8g2\csrc/u8g2_font.c ****   u8g2->font_height_mode = U8G2_FONT_HEIGHT_MODE_ALL;
1013:..\u8g2\csrc/u8g2_font.c ****   u8g2_UpdateRefHeight(u8g2);
1014:..\u8g2\csrc/u8g2_font.c **** }
1015:..\u8g2\csrc/u8g2_font.c **** 
1016:..\u8g2\csrc/u8g2_font.c **** /*===============================================*/
1017:..\u8g2\csrc/u8g2_font.c **** /* callback procedures to correct the y position */
1018:..\u8g2\csrc/u8g2_font.c **** 
1019:..\u8g2\csrc/u8g2_font.c **** u8g2_uint_t u8g2_font_calc_vref_font(U8X8_UNUSED u8g2_t *u8g2)
1020:..\u8g2\csrc/u8g2_font.c **** {
  78              		.loc 1 1020 0
  79              		.cfi_startproc
  80              		@ args = 0, pretend = 0, frame = 0
  81              		@ frame_needed = 0, uses_anonymous_args = 0
  82              		@ link register save eliminated.
  83              	.LVL7:
1021:..\u8g2\csrc/u8g2_font.c ****   return 0;
1022:..\u8g2\csrc/u8g2_font.c **** }
  84              		.loc 1 1022 0
  85 0000 0020     		movs	r0, #0
  86              	.LVL8:
  87 0002 7047     		bx	lr
  88              		.cfi_endproc
  89              	.LFE31:
  90              		.size	u8g2_font_calc_vref_font, .-u8g2_font_calc_vref_font
  91              		.section	.text.u8g2_font_calc_vref_bottom,"ax",%progbits
  92              		.align	2
  93              		.global	u8g2_font_calc_vref_bottom
  94              		.thumb
  95              		.thumb_func
  96              		.type	u8g2_font_calc_vref_bottom, %function
  97              	u8g2_font_calc_vref_bottom:
  98              	.LFB33:
1023:..\u8g2\csrc/u8g2_font.c **** 
1024:..\u8g2\csrc/u8g2_font.c **** void u8g2_SetFontPosBaseline(u8g2_t *u8g2)
1025:..\u8g2\csrc/u8g2_font.c **** {
1026:..\u8g2\csrc/u8g2_font.c ****   u8g2->font_calc_vref = u8g2_font_calc_vref_font;
1027:..\u8g2\csrc/u8g2_font.c **** }
1028:..\u8g2\csrc/u8g2_font.c **** 
1029:..\u8g2\csrc/u8g2_font.c **** 
1030:..\u8g2\csrc/u8g2_font.c **** u8g2_uint_t u8g2_font_calc_vref_bottom(u8g2_t *u8g2)
1031:..\u8g2\csrc/u8g2_font.c **** {
  99              		.loc 1 1031 0
 100              		.cfi_startproc
 101              		@ args = 0, pretend = 0, frame = 0
 102              		@ frame_needed = 0, uses_anonymous_args = 0
 103              		@ link register save eliminated.
 104              	.LVL9:
1032:..\u8g2\csrc/u8g2_font.c ****   return (u8g2_uint_t)(u8g2->font_ref_descent);
 105              		.loc 1 1032 0
 106 0000 90F98F00 		ldrsb	r0, [r0, #143]
 107              	.LVL10:
1033:..\u8g2\csrc/u8g2_font.c **** }
ARM GAS  C:\Users\brian\AppData\Local\Temp\ccTYhJxe.s 			page 21


 108              		.loc 1 1033 0
 109 0004 80B2     		uxth	r0, r0
 110 0006 7047     		bx	lr
 111              		.cfi_endproc
 112              	.LFE33:
 113              		.size	u8g2_font_calc_vref_bottom, .-u8g2_font_calc_vref_bottom
 114              		.section	.text.u8g2_font_calc_vref_top,"ax",%progbits
 115              		.align	2
 116              		.global	u8g2_font_calc_vref_top
 117              		.thumb
 118              		.thumb_func
 119              		.type	u8g2_font_calc_vref_top, %function
 120              	u8g2_font_calc_vref_top:
 121              	.LFB35:
1034:..\u8g2\csrc/u8g2_font.c **** 
1035:..\u8g2\csrc/u8g2_font.c **** void u8g2_SetFontPosBottom(u8g2_t *u8g2)
1036:..\u8g2\csrc/u8g2_font.c **** {
1037:..\u8g2\csrc/u8g2_font.c ****   u8g2->font_calc_vref = u8g2_font_calc_vref_bottom;
1038:..\u8g2\csrc/u8g2_font.c **** }
1039:..\u8g2\csrc/u8g2_font.c **** 
1040:..\u8g2\csrc/u8g2_font.c **** u8g2_uint_t u8g2_font_calc_vref_top(u8g2_t *u8g2)
1041:..\u8g2\csrc/u8g2_font.c **** {
 122              		.loc 1 1041 0
 123              		.cfi_startproc
 124              		@ args = 0, pretend = 0, frame = 0
 125              		@ frame_needed = 0, uses_anonymous_args = 0
 126              		@ link register save eliminated.
 127              	.LVL11:
1042:..\u8g2\csrc/u8g2_font.c ****   u8g2_uint_t tmp;
1043:..\u8g2\csrc/u8g2_font.c ****   /* reference pos is one pixel above the upper edge of the reference glyph */
1044:..\u8g2\csrc/u8g2_font.c ****   tmp = (u8g2_uint_t)(u8g2->font_ref_ascent);
 128              		.loc 1 1044 0
 129 0000 90F98E00 		ldrsb	r0, [r0, #142]
 130              	.LVL12:
 131 0004 80B2     		uxth	r0, r0
 132              	.LVL13:
1045:..\u8g2\csrc/u8g2_font.c ****   tmp++;
 133              		.loc 1 1045 0
 134 0006 0130     		adds	r0, r0, #1
 135              	.LVL14:
1046:..\u8g2\csrc/u8g2_font.c ****   return tmp;
1047:..\u8g2\csrc/u8g2_font.c **** }
 136              		.loc 1 1047 0
 137 0008 80B2     		uxth	r0, r0
 138 000a 7047     		bx	lr
 139              		.cfi_endproc
 140              	.LFE35:
 141              		.size	u8g2_font_calc_vref_top, .-u8g2_font_calc_vref_top
 142              		.section	.text.u8g2_font_calc_vref_center,"ax",%progbits
 143              		.align	2
 144              		.global	u8g2_font_calc_vref_center
 145              		.thumb
 146              		.thumb_func
 147              		.type	u8g2_font_calc_vref_center, %function
 148              	u8g2_font_calc_vref_center:
 149              	.LFB37:
1048:..\u8g2\csrc/u8g2_font.c **** 
ARM GAS  C:\Users\brian\AppData\Local\Temp\ccTYhJxe.s 			page 22


1049:..\u8g2\csrc/u8g2_font.c **** void u8g2_SetFontPosTop(u8g2_t *u8g2)
1050:..\u8g2\csrc/u8g2_font.c **** {
1051:..\u8g2\csrc/u8g2_font.c ****   u8g2->font_calc_vref = u8g2_font_calc_vref_top;
1052:..\u8g2\csrc/u8g2_font.c **** }
1053:..\u8g2\csrc/u8g2_font.c **** 
1054:..\u8g2\csrc/u8g2_font.c **** u8g2_uint_t u8g2_font_calc_vref_center(u8g2_t *u8g2)
1055:..\u8g2\csrc/u8g2_font.c **** {
 150              		.loc 1 1055 0
 151              		.cfi_startproc
 152              		@ args = 0, pretend = 0, frame = 0
 153              		@ frame_needed = 0, uses_anonymous_args = 0
 154              		@ link register save eliminated.
 155              	.LVL15:
1056:..\u8g2\csrc/u8g2_font.c ****   int8_t tmp;
1057:..\u8g2\csrc/u8g2_font.c ****   tmp = u8g2->font_ref_ascent;
 156              		.loc 1 1057 0
 157 0000 90F98E30 		ldrsb	r3, [r0, #142]
 158              	.LVL16:
1058:..\u8g2\csrc/u8g2_font.c ****   tmp -= u8g2->font_ref_descent;
 159              		.loc 1 1058 0
 160 0004 90F88F00 		ldrb	r0, [r0, #143]	@ zero_extendqisi2
 161              	.LVL17:
 162 0008 1B1A     		subs	r3, r3, r0
 163              	.LVL18:
 164 000a 5BB2     		sxtb	r3, r3
 165              	.LVL19:
1059:..\u8g2\csrc/u8g2_font.c ****   tmp /= 2;
 166              		.loc 1 1059 0
 167 000c 03EBD373 		add	r3, r3, r3, lsr #31
 168              	.LVL20:
1060:..\u8g2\csrc/u8g2_font.c ****   tmp += u8g2->font_ref_descent;  
 169              		.loc 1 1060 0
 170 0010 00EB6303 		add	r3, r0, r3, asr #1
 171              	.LVL21:
 172 0014 58B2     		sxtb	r0, r3
 173              	.LVL22:
1061:..\u8g2\csrc/u8g2_font.c ****   return tmp;
1062:..\u8g2\csrc/u8g2_font.c **** }
 174              		.loc 1 1062 0
 175 0016 80B2     		uxth	r0, r0
 176              	.LVL23:
 177 0018 7047     		bx	lr
 178              		.cfi_endproc
 179              	.LFE37:
 180              		.size	u8g2_font_calc_vref_center, .-u8g2_font_calc_vref_center
 181 001a 00BF     		.section	.text.u8g2_read_font_info,"ax",%progbits
 182              		.align	2
 183              		.global	u8g2_read_font_info
 184              		.thumb
 185              		.thumb_func
 186              		.type	u8g2_read_font_info, %function
 187              	u8g2_read_font_info:
 188              	.LFB2:
 132:..\u8g2\csrc/u8g2_font.c ****   /* offset 0 */
 189              		.loc 1 132 0
 190              		.cfi_startproc
 191              		@ args = 0, pretend = 0, frame = 0
ARM GAS  C:\Users\brian\AppData\Local\Temp\ccTYhJxe.s 			page 23


 192              		@ frame_needed = 0, uses_anonymous_args = 0
 193              	.LVL24:
 194 0000 38B5     		push	{r3, r4, r5, lr}
 195              		.cfi_def_cfa_offset 16
 196              		.cfi_offset 3, -16
 197              		.cfi_offset 4, -12
 198              		.cfi_offset 5, -8
 199              		.cfi_offset 14, -4
 200 0002 0446     		mov	r4, r0
 201 0004 0D46     		mov	r5, r1
 134:..\u8g2\csrc/u8g2_font.c ****   font_info->bbx_mode = u8g2_font_get_byte(font, 1);
 202              		.loc 1 134 0
 203 0006 0021     		movs	r1, #0
 204              	.LVL25:
 205 0008 2846     		mov	r0, r5
 206              	.LVL26:
 207 000a FFF7FEFF 		bl	u8g2_font_get_byte
 208              	.LVL27:
 209 000e 2070     		strb	r0, [r4]
 135:..\u8g2\csrc/u8g2_font.c ****   font_info->bits_per_0 = u8g2_font_get_byte(font, 2);
 210              		.loc 1 135 0
 211 0010 0121     		movs	r1, #1
 212 0012 2846     		mov	r0, r5
 213 0014 FFF7FEFF 		bl	u8g2_font_get_byte
 214              	.LVL28:
 215 0018 6070     		strb	r0, [r4, #1]
 136:..\u8g2\csrc/u8g2_font.c ****   font_info->bits_per_1 = u8g2_font_get_byte(font, 3);
 216              		.loc 1 136 0
 217 001a 0221     		movs	r1, #2
 218 001c 2846     		mov	r0, r5
 219 001e FFF7FEFF 		bl	u8g2_font_get_byte
 220              	.LVL29:
 221 0022 A070     		strb	r0, [r4, #2]
 137:..\u8g2\csrc/u8g2_font.c ****   
 222              		.loc 1 137 0
 223 0024 0321     		movs	r1, #3
 224 0026 2846     		mov	r0, r5
 225 0028 FFF7FEFF 		bl	u8g2_font_get_byte
 226              	.LVL30:
 227 002c E070     		strb	r0, [r4, #3]
 140:..\u8g2\csrc/u8g2_font.c ****   font_info->bits_per_char_height = u8g2_font_get_byte(font, 5);
 228              		.loc 1 140 0
 229 002e 0421     		movs	r1, #4
 230 0030 2846     		mov	r0, r5
 231 0032 FFF7FEFF 		bl	u8g2_font_get_byte
 232              	.LVL31:
 233 0036 2071     		strb	r0, [r4, #4]
 141:..\u8g2\csrc/u8g2_font.c ****   font_info->bits_per_char_x = u8g2_font_get_byte(font, 6);
 234              		.loc 1 141 0
 235 0038 0521     		movs	r1, #5
 236 003a 2846     		mov	r0, r5
 237 003c FFF7FEFF 		bl	u8g2_font_get_byte
 238              	.LVL32:
 239 0040 6071     		strb	r0, [r4, #5]
 142:..\u8g2\csrc/u8g2_font.c ****   font_info->bits_per_char_y = u8g2_font_get_byte(font, 7);
 240              		.loc 1 142 0
 241 0042 0621     		movs	r1, #6
ARM GAS  C:\Users\brian\AppData\Local\Temp\ccTYhJxe.s 			page 24


 242 0044 2846     		mov	r0, r5
 243 0046 FFF7FEFF 		bl	u8g2_font_get_byte
 244              	.LVL33:
 245 004a A071     		strb	r0, [r4, #6]
 143:..\u8g2\csrc/u8g2_font.c ****   font_info->bits_per_delta_x = u8g2_font_get_byte(font, 8);
 246              		.loc 1 143 0
 247 004c 0721     		movs	r1, #7
 248 004e 2846     		mov	r0, r5
 249 0050 FFF7FEFF 		bl	u8g2_font_get_byte
 250              	.LVL34:
 251 0054 E071     		strb	r0, [r4, #7]
 144:..\u8g2\csrc/u8g2_font.c ****   
 252              		.loc 1 144 0
 253 0056 0821     		movs	r1, #8
 254 0058 2846     		mov	r0, r5
 255 005a FFF7FEFF 		bl	u8g2_font_get_byte
 256              	.LVL35:
 257 005e 2072     		strb	r0, [r4, #8]
 147:..\u8g2\csrc/u8g2_font.c ****   font_info->max_char_height = u8g2_font_get_byte(font, 10);
 258              		.loc 1 147 0
 259 0060 0921     		movs	r1, #9
 260 0062 2846     		mov	r0, r5
 261 0064 FFF7FEFF 		bl	u8g2_font_get_byte
 262              	.LVL36:
 263 0068 6072     		strb	r0, [r4, #9]
 148:..\u8g2\csrc/u8g2_font.c ****   font_info->x_offset = u8g2_font_get_byte(font, 11);
 264              		.loc 1 148 0
 265 006a 0A21     		movs	r1, #10
 266 006c 2846     		mov	r0, r5
 267 006e FFF7FEFF 		bl	u8g2_font_get_byte
 268              	.LVL37:
 269 0072 A072     		strb	r0, [r4, #10]
 149:..\u8g2\csrc/u8g2_font.c ****   font_info->y_offset = u8g2_font_get_byte(font, 12);
 270              		.loc 1 149 0
 271 0074 0B21     		movs	r1, #11
 272 0076 2846     		mov	r0, r5
 273 0078 FFF7FEFF 		bl	u8g2_font_get_byte
 274              	.LVL38:
 275 007c E072     		strb	r0, [r4, #11]
 150:..\u8g2\csrc/u8g2_font.c ****   
 276              		.loc 1 150 0
 277 007e 0C21     		movs	r1, #12
 278 0080 2846     		mov	r0, r5
 279 0082 FFF7FEFF 		bl	u8g2_font_get_byte
 280              	.LVL39:
 281 0086 2073     		strb	r0, [r4, #12]
 153:..\u8g2\csrc/u8g2_font.c ****   font_info->descent_g = u8g2_font_get_byte(font, 14);
 282              		.loc 1 153 0
 283 0088 0D21     		movs	r1, #13
 284 008a 2846     		mov	r0, r5
 285 008c FFF7FEFF 		bl	u8g2_font_get_byte
 286              	.LVL40:
 287 0090 6073     		strb	r0, [r4, #13]
 154:..\u8g2\csrc/u8g2_font.c ****   font_info->ascent_para = u8g2_font_get_byte(font, 15);
 288              		.loc 1 154 0
 289 0092 0E21     		movs	r1, #14
 290 0094 2846     		mov	r0, r5
ARM GAS  C:\Users\brian\AppData\Local\Temp\ccTYhJxe.s 			page 25


 291 0096 FFF7FEFF 		bl	u8g2_font_get_byte
 292              	.LVL41:
 293 009a A073     		strb	r0, [r4, #14]
 155:..\u8g2\csrc/u8g2_font.c ****   font_info->descent_para = u8g2_font_get_byte(font, 16);
 294              		.loc 1 155 0
 295 009c 0F21     		movs	r1, #15
 296 009e 2846     		mov	r0, r5
 297 00a0 FFF7FEFF 		bl	u8g2_font_get_byte
 298              	.LVL42:
 299 00a4 E073     		strb	r0, [r4, #15]
 156:..\u8g2\csrc/u8g2_font.c ****   
 300              		.loc 1 156 0
 301 00a6 1021     		movs	r1, #16
 302 00a8 2846     		mov	r0, r5
 303 00aa FFF7FEFF 		bl	u8g2_font_get_byte
 304              	.LVL43:
 305 00ae 2074     		strb	r0, [r4, #16]
 159:..\u8g2\csrc/u8g2_font.c ****   font_info->start_pos_lower_a = u8g2_font_get_word(font, 19); 
 306              		.loc 1 159 0
 307 00b0 1121     		movs	r1, #17
 308 00b2 2846     		mov	r0, r5
 309 00b4 FFF7FEFF 		bl	u8g2_font_get_word
 310              	.LVL44:
 311 00b8 6082     		strh	r0, [r4, #18]	@ movhi
 160:..\u8g2\csrc/u8g2_font.c ****   
 312              		.loc 1 160 0
 313 00ba 1321     		movs	r1, #19
 314 00bc 2846     		mov	r0, r5
 315 00be FFF7FEFF 		bl	u8g2_font_get_word
 316              	.LVL45:
 317 00c2 A082     		strh	r0, [r4, #20]	@ movhi
 164:..\u8g2\csrc/u8g2_font.c **** #endif
 318              		.loc 1 164 0
 319 00c4 1521     		movs	r1, #21
 320 00c6 2846     		mov	r0, r5
 321 00c8 FFF7FEFF 		bl	u8g2_font_get_word
 322              	.LVL46:
 323 00cc E082     		strh	r0, [r4, #22]	@ movhi
 324 00ce 38BD     		pop	{r3, r4, r5, pc}
 325              		.cfi_endproc
 326              	.LFE2:
 327              		.size	u8g2_read_font_info, .-u8g2_read_font_info
 328              		.section	.text.u8g2_GetFontSize,"ax",%progbits
 329              		.align	2
 330              		.global	u8g2_GetFontSize
 331              		.thumb
 332              		.thumb_func
 333              		.type	u8g2_GetFontSize, %function
 334              	u8g2_GetFontSize:
 335              	.LFB3:
 171:..\u8g2\csrc/u8g2_font.c ****   uint16_t e;
 336              		.loc 1 171 0
 337              		.cfi_startproc
 338              		@ args = 0, pretend = 0, frame = 0
 339              		@ frame_needed = 0, uses_anonymous_args = 0
 340              	.LVL47:
 341 0000 38B5     		push	{r3, r4, r5, lr}
ARM GAS  C:\Users\brian\AppData\Local\Temp\ccTYhJxe.s 			page 26


 342              		.cfi_def_cfa_offset 16
 343              		.cfi_offset 3, -16
 344              		.cfi_offset 4, -12
 345              		.cfi_offset 5, -8
 346              		.cfi_offset 14, -4
 347 0002 0546     		mov	r5, r0
 348              	.LVL48:
 174:..\u8g2\csrc/u8g2_font.c ****   
 349              		.loc 1 174 0
 350 0004 1730     		adds	r0, r0, #23
 351              	.LVL49:
 352              	.L11:
 178:..\u8g2\csrc/u8g2_font.c ****       break;
 353              		.loc 1 178 0
 354 0006 4378     		ldrb	r3, [r0, #1]	@ zero_extendqisi2
 355 0008 0BB1     		cbz	r3, .L10
 180:..\u8g2\csrc/u8g2_font.c ****   }
 356              		.loc 1 180 0
 357 000a 1844     		add	r0, r0, r3
 358              	.LVL50:
 181:..\u8g2\csrc/u8g2_font.c ****   
 359              		.loc 1 181 0
 360 000c FBE7     		b	.L11
 361              	.L10:
 184:..\u8g2\csrc/u8g2_font.c **** 
 362              		.loc 1 184 0
 363 000e 841C     		adds	r4, r0, #2
 364              	.LVL51:
 187:..\u8g2\csrc/u8g2_font.c ****   
 365              		.loc 1 187 0
 366 0010 0021     		movs	r1, #0
 367 0012 2046     		mov	r0, r4
 368 0014 FFF7FEFF 		bl	u8g2_font_get_word
 369              	.LVL52:
 370 0018 2044     		add	r0, r0, r4
 371              	.LVL53:
 372              	.L13:
 191:..\u8g2\csrc/u8g2_font.c ****     e <<= 8;
 373              		.loc 1 191 0
 374 001a 0278     		ldrb	r2, [r0]	@ zero_extendqisi2
 375              	.LVL54:
 193:..\u8g2\csrc/u8g2_font.c ****     if ( e == 0 )
 376              		.loc 1 193 0
 377 001c 4378     		ldrb	r3, [r0, #1]	@ zero_extendqisi2
 378              	.LVL55:
 194:..\u8g2\csrc/u8g2_font.c ****       break;
 379              		.loc 1 194 0
 380 001e 53EA0223 		orrs	r3, r3, r2, lsl #8
 381              	.LVL56:
 382 0022 02D0     		beq	.L12
 196:..\u8g2\csrc/u8g2_font.c ****   }
 383              		.loc 1 196 0
 384 0024 8378     		ldrb	r3, [r0, #2]	@ zero_extendqisi2
 385 0026 1844     		add	r0, r0, r3
 386              	.LVL57:
 197:..\u8g2\csrc/u8g2_font.c ****   
 387              		.loc 1 197 0
ARM GAS  C:\Users\brian\AppData\Local\Temp\ccTYhJxe.s 			page 27


 388 0028 F7E7     		b	.L13
 389              	.LVL58:
 390              	.L12:
 199:..\u8g2\csrc/u8g2_font.c **** }
 391              		.loc 1 199 0
 392 002a 401B     		subs	r0, r0, r5
 393              	.LVL59:
 200:..\u8g2\csrc/u8g2_font.c **** 
 394              		.loc 1 200 0
 395 002c 0230     		adds	r0, r0, #2
 396 002e 38BD     		pop	{r3, r4, r5, pc}
 397              		.cfi_endproc
 398              	.LFE3:
 399              		.size	u8g2_GetFontSize, .-u8g2_GetFontSize
 400              		.section	.text.u8g2_GetFontBBXWidth,"ax",%progbits
 401              		.align	2
 402              		.global	u8g2_GetFontBBXWidth
 403              		.thumb
 404              		.thumb_func
 405              		.type	u8g2_GetFontBBXWidth, %function
 406              	u8g2_GetFontBBXWidth:
 407              	.LFB4:
 206:..\u8g2\csrc/u8g2_font.c ****   return u8g2->font_info.max_char_width;		/* new font info structure */
 408              		.loc 1 206 0
 409              		.cfi_startproc
 410              		@ args = 0, pretend = 0, frame = 0
 411              		@ frame_needed = 0, uses_anonymous_args = 0
 412              		@ link register save eliminated.
 413              	.LVL60:
 208:..\u8g2\csrc/u8g2_font.c **** 
 414              		.loc 1 208 0
 415 0000 90F87D00 		ldrb	r0, [r0, #125]	@ zero_extendqisi2
 416              	.LVL61:
 417 0004 7047     		bx	lr
 418              		.cfi_endproc
 419              	.LFE4:
 420              		.size	u8g2_GetFontBBXWidth, .-u8g2_GetFontBBXWidth
 421 0006 00BF     		.section	.text.u8g2_GetFontBBXHeight,"ax",%progbits
 422              		.align	2
 423              		.global	u8g2_GetFontBBXHeight
 424              		.thumb
 425              		.thumb_func
 426              		.type	u8g2_GetFontBBXHeight, %function
 427              	u8g2_GetFontBBXHeight:
 428              	.LFB5:
 211:..\u8g2\csrc/u8g2_font.c ****   return u8g2->font_info.max_char_height;		/* new font info structure */
 429              		.loc 1 211 0
 430              		.cfi_startproc
 431              		@ args = 0, pretend = 0, frame = 0
 432              		@ frame_needed = 0, uses_anonymous_args = 0
 433              		@ link register save eliminated.
 434              	.LVL62:
 213:..\u8g2\csrc/u8g2_font.c **** 
 435              		.loc 1 213 0
 436 0000 90F87E00 		ldrb	r0, [r0, #126]	@ zero_extendqisi2
 437              	.LVL63:
 438 0004 7047     		bx	lr
ARM GAS  C:\Users\brian\AppData\Local\Temp\ccTYhJxe.s 			page 28


 439              		.cfi_endproc
 440              	.LFE5:
 441              		.size	u8g2_GetFontBBXHeight, .-u8g2_GetFontBBXHeight
 442 0006 00BF     		.section	.text.u8g2_GetFontBBXOffX,"ax",%progbits
 443              		.align	2
 444              		.global	u8g2_GetFontBBXOffX
 445              		.thumb
 446              		.thumb_func
 447              		.type	u8g2_GetFontBBXOffX, %function
 448              	u8g2_GetFontBBXOffX:
 449              	.LFB6:
 217:..\u8g2\csrc/u8g2_font.c ****   return u8g2->font_info.x_offset;		/* new font info structure */
 450              		.loc 1 217 0
 451              		.cfi_startproc
 452              		@ args = 0, pretend = 0, frame = 0
 453              		@ frame_needed = 0, uses_anonymous_args = 0
 454              		@ link register save eliminated.
 455              	.LVL64:
 219:..\u8g2\csrc/u8g2_font.c **** 
 456              		.loc 1 219 0
 457 0000 90F97F00 		ldrsb	r0, [r0, #127]
 458              	.LVL65:
 459 0004 7047     		bx	lr
 460              		.cfi_endproc
 461              	.LFE6:
 462              		.size	u8g2_GetFontBBXOffX, .-u8g2_GetFontBBXOffX
 463 0006 00BF     		.section	.text.u8g2_GetFontBBXOffY,"ax",%progbits
 464              		.align	2
 465              		.global	u8g2_GetFontBBXOffY
 466              		.thumb
 467              		.thumb_func
 468              		.type	u8g2_GetFontBBXOffY, %function
 469              	u8g2_GetFontBBXOffY:
 470              	.LFB7:
 223:..\u8g2\csrc/u8g2_font.c ****   return u8g2->font_info.y_offset;		/* new font info structure */
 471              		.loc 1 223 0
 472              		.cfi_startproc
 473              		@ args = 0, pretend = 0, frame = 0
 474              		@ frame_needed = 0, uses_anonymous_args = 0
 475              		@ link register save eliminated.
 476              	.LVL66:
 225:..\u8g2\csrc/u8g2_font.c **** 
 477              		.loc 1 225 0
 478 0000 90F98000 		ldrsb	r0, [r0, #128]
 479              	.LVL67:
 480 0004 7047     		bx	lr
 481              		.cfi_endproc
 482              	.LFE7:
 483              		.size	u8g2_GetFontBBXOffY, .-u8g2_GetFontBBXOffY
 484 0006 00BF     		.section	.text.u8g2_GetFontCapitalAHeight,"ax",%progbits
 485              		.align	2
 486              		.global	u8g2_GetFontCapitalAHeight
 487              		.thumb
 488              		.thumb_func
 489              		.type	u8g2_GetFontCapitalAHeight, %function
 490              	u8g2_GetFontCapitalAHeight:
 491              	.LFB8:
ARM GAS  C:\Users\brian\AppData\Local\Temp\ccTYhJxe.s 			page 29


 229:..\u8g2\csrc/u8g2_font.c ****   return u8g2->font_info.ascent_A;		/* new font info structure */
 492              		.loc 1 229 0
 493              		.cfi_startproc
 494              		@ args = 0, pretend = 0, frame = 0
 495              		@ frame_needed = 0, uses_anonymous_args = 0
 496              		@ link register save eliminated.
 497              	.LVL68:
 231:..\u8g2\csrc/u8g2_font.c **** 
 498              		.loc 1 231 0
 499 0000 90F88100 		ldrb	r0, [r0, #129]	@ zero_extendqisi2
 500              	.LVL69:
 501 0004 7047     		bx	lr
 502              		.cfi_endproc
 503              	.LFE8:
 504              		.size	u8g2_GetFontCapitalAHeight, .-u8g2_GetFontCapitalAHeight
 505 0006 00BF     		.section	.text.u8g2_font_decode_get_unsigned_bits,"ax",%progbits
 506              		.align	2
 507              		.global	u8g2_font_decode_get_unsigned_bits
 508              		.thumb
 509              		.thumb_func
 510              		.type	u8g2_font_decode_get_unsigned_bits, %function
 511              	u8g2_font_decode_get_unsigned_bits:
 512              	.LFB9:
 238:..\u8g2\csrc/u8g2_font.c ****   uint8_t val;
 513              		.loc 1 238 0
 514              		.cfi_startproc
 515              		@ args = 0, pretend = 0, frame = 0
 516              		@ frame_needed = 0, uses_anonymous_args = 0
 517              		@ link register save eliminated.
 518              	.LVL70:
 519 0000 70B4     		push	{r4, r5, r6}
 520              		.cfi_def_cfa_offset 12
 521              		.cfi_offset 4, -12
 522              		.cfi_offset 5, -8
 523              		.cfi_offset 6, -4
 240:..\u8g2\csrc/u8g2_font.c ****   uint8_t bit_pos_plus_cnt;
 524              		.loc 1 240 0
 525 0002 027B     		ldrb	r2, [r0, #12]	@ zero_extendqisi2
 526              	.LVL71:
 244:..\u8g2\csrc/u8g2_font.c ****   
 527              		.loc 1 244 0
 528 0004 0568     		ldr	r5, [r0]
 529 0006 2C78     		ldrb	r4, [r5]	@ zero_extendqisi2
 530              	.LVL72:
 246:..\u8g2\csrc/u8g2_font.c ****   bit_pos_plus_cnt = bit_pos;
 531              		.loc 1 246 0
 532 0008 1441     		asrs	r4, r4, r2
 533              	.LVL73:
 534 000a E6B2     		uxtb	r6, r4
 535              	.LVL74:
 248:..\u8g2\csrc/u8g2_font.c ****   if ( bit_pos_plus_cnt >= 8 )
 536              		.loc 1 248 0
 537 000c 5318     		adds	r3, r2, r1
 538 000e DBB2     		uxtb	r3, r3
 539              	.LVL75:
 249:..\u8g2\csrc/u8g2_font.c ****   {
 540              		.loc 1 249 0
ARM GAS  C:\Users\brian\AppData\Local\Temp\ccTYhJxe.s 			page 30


 541 0010 072B     		cmp	r3, #7
 542 0012 0BD9     		bls	.L21
 543              	.LVL76:
 544              	.LBB2:
 252:..\u8g2\csrc/u8g2_font.c ****     f->decode_ptr++;
 545              		.loc 1 252 0
 546 0014 C2F10802 		rsb	r2, r2, #8
 547              	.LVL77:
 548 0018 D2B2     		uxtb	r2, r2
 549              	.LVL78:
 253:..\u8g2\csrc/u8g2_font.c ****     //val |= *(f->decode_ptr) << (8-bit_pos);
 550              		.loc 1 253 0
 551 001a 6E1C     		adds	r6, r5, #1
 552              	.LVL79:
 553 001c 0660     		str	r6, [r0]
 255:..\u8g2\csrc/u8g2_font.c ****     //bit_pos -= 8;
 554              		.loc 1 255 0
 555 001e 6D78     		ldrb	r5, [r5, #1]	@ zero_extendqisi2
 556 0020 05FA02F2 		lsl	r2, r5, r2
 557              	.LVL80:
 558 0024 1443     		orrs	r4, r4, r2
 559              	.LVL81:
 560 0026 E6B2     		uxtb	r6, r4
 561              	.LVL82:
 257:..\u8g2\csrc/u8g2_font.c ****   }
 562              		.loc 1 257 0
 563 0028 083B     		subs	r3, r3, #8
 564              	.LVL83:
 565 002a DBB2     		uxtb	r3, r3
 566              	.LVL84:
 567              	.L21:
 568              	.LBE2:
 259:..\u8g2\csrc/u8g2_font.c ****   //bit_pos += cnt;
 569              		.loc 1 259 0
 570 002c 0124     		movs	r4, #1
 571 002e 04FA01F1 		lsl	r1, r4, r1
 572              	.LVL85:
 573 0032 0139     		subs	r1, r1, #1
 574              	.LVL86:
 262:..\u8g2\csrc/u8g2_font.c ****   return val;
 575              		.loc 1 262 0
 576 0034 0373     		strb	r3, [r0, #12]
 577              	.LVL87:
 264:..\u8g2\csrc/u8g2_font.c **** 
 578              		.loc 1 264 0
 579 0036 06EA0100 		and	r0, r6, r1
 580              	.LVL88:
 581 003a 70BC     		pop	{r4, r5, r6}
 582              		.cfi_restore 6
 583              		.cfi_restore 5
 584              		.cfi_restore 4
 585              		.cfi_def_cfa_offset 0
 586              	.LVL89:
 587 003c 7047     		bx	lr
 588              		.cfi_endproc
 589              	.LFE9:
 590              		.size	u8g2_font_decode_get_unsigned_bits, .-u8g2_font_decode_get_unsigned_bits
ARM GAS  C:\Users\brian\AppData\Local\Temp\ccTYhJxe.s 			page 31


 591 003e 00BF     		.section	.text.u8g2_font_setup_decode,"ax",%progbits
 592              		.align	2
 593              		.thumb
 594              		.thumb_func
 595              		.type	u8g2_font_setup_decode, %function
 596              	u8g2_font_setup_decode:
 597              	.LFB14:
 486:..\u8g2\csrc/u8g2_font.c ****   u8g2_font_decode_t *decode = &(u8g2->font_decode);
 598              		.loc 1 486 0
 599              		.cfi_startproc
 600              		@ args = 0, pretend = 0, frame = 0
 601              		@ frame_needed = 0, uses_anonymous_args = 0
 602              	.LVL90:
 603 0000 38B5     		push	{r3, r4, r5, lr}
 604              		.cfi_def_cfa_offset 16
 605              		.cfi_offset 3, -16
 606              		.cfi_offset 4, -12
 607              		.cfi_offset 5, -8
 608              		.cfi_offset 14, -4
 609 0002 0446     		mov	r4, r0
 487:..\u8g2\csrc/u8g2_font.c ****   decode->decode_ptr = glyph_data;
 610              		.loc 1 487 0
 611 0004 00F16005 		add	r5, r0, #96
 612              	.LVL91:
 488:..\u8g2\csrc/u8g2_font.c ****   decode->decode_bit_pos = 0;
 613              		.loc 1 488 0
 614 0008 0166     		str	r1, [r0, #96]
 489:..\u8g2\csrc/u8g2_font.c ****   
 615              		.loc 1 489 0
 616 000a 0023     		movs	r3, #0
 617 000c 80F86C30 		strb	r3, [r0, #108]
 497:..\u8g2\csrc/u8g2_font.c ****   decode->glyph_height = u8g2_font_decode_get_unsigned_bits(decode,u8g2->font_info.bits_per_char_he
 618              		.loc 1 497 0
 619 0010 90F87810 		ldrb	r1, [r0, #120]	@ zero_extendqisi2
 620              	.LVL92:
 621 0014 2846     		mov	r0, r5
 622              	.LVL93:
 623 0016 FFF7FEFF 		bl	u8g2_font_decode_get_unsigned_bits
 624              	.LVL94:
 625 001a 84F86A00 		strb	r0, [r4, #106]
 498:..\u8g2\csrc/u8g2_font.c ****   
 626              		.loc 1 498 0
 627 001e 94F87910 		ldrb	r1, [r4, #121]	@ zero_extendqisi2
 628 0022 2846     		mov	r0, r5
 629 0024 FFF7FEFF 		bl	u8g2_font_decode_get_unsigned_bits
 630              	.LVL95:
 631 0028 84F86B00 		strb	r0, [r4, #107]
 500:..\u8g2\csrc/u8g2_font.c ****   decode->bg_color = (decode->fg_color == 0 ? 1 : 0);
 632              		.loc 1 500 0
 633 002c 94F89230 		ldrb	r3, [r4, #146]	@ zero_extendqisi2
 634 0030 84F86E30 		strb	r3, [r4, #110]
 501:..\u8g2\csrc/u8g2_font.c **** }
 635              		.loc 1 501 0
 636 0034 B3FA83F3 		clz	r3, r3
 637 0038 5B09     		lsrs	r3, r3, #5
 638 003a 84F86F30 		strb	r3, [r4, #111]
 639 003e 38BD     		pop	{r3, r4, r5, pc}
ARM GAS  C:\Users\brian\AppData\Local\Temp\ccTYhJxe.s 			page 32


 640              		.cfi_endproc
 641              	.LFE14:
 642              		.size	u8g2_font_setup_decode, .-u8g2_font_setup_decode
 643              		.section	.text.u8g2_font_decode_get_signed_bits,"ax",%progbits
 644              		.align	2
 645              		.global	u8g2_font_decode_get_signed_bits
 646              		.thumb
 647              		.thumb_func
 648              		.type	u8g2_font_decode_get_signed_bits, %function
 649              	u8g2_font_decode_get_signed_bits:
 650              	.LFB10:
 283:..\u8g2\csrc/u8g2_font.c ****   int8_t v, d;
 651              		.loc 1 283 0
 652              		.cfi_startproc
 653              		@ args = 0, pretend = 0, frame = 0
 654              		@ frame_needed = 0, uses_anonymous_args = 0
 655              	.LVL96:
 656 0000 10B5     		push	{r4, lr}
 657              		.cfi_def_cfa_offset 8
 658              		.cfi_offset 4, -8
 659              		.cfi_offset 14, -4
 660 0002 0C46     		mov	r4, r1
 285:..\u8g2\csrc/u8g2_font.c ****   d = 1;
 661              		.loc 1 285 0
 662 0004 FFF7FEFF 		bl	u8g2_font_decode_get_unsigned_bits
 663              	.LVL97:
 287:..\u8g2\csrc/u8g2_font.c ****   d <<= cnt;
 664              		.loc 1 287 0
 665 0008 013C     		subs	r4, r4, #1
 666 000a E4B2     		uxtb	r4, r4
 667              	.LVL98:
 288:..\u8g2\csrc/u8g2_font.c ****   v -= d;
 668              		.loc 1 288 0
 669 000c 0123     		movs	r3, #1
 670 000e A340     		lsls	r3, r3, r4
 671              	.LVL99:
 289:..\u8g2\csrc/u8g2_font.c ****   return v;
 672              		.loc 1 289 0
 673 0010 C01A     		subs	r0, r0, r3
 674              	.LVL100:
 292:..\u8g2\csrc/u8g2_font.c **** 
 675              		.loc 1 292 0
 676 0012 40B2     		sxtb	r0, r0
 677 0014 10BD     		pop	{r4, pc}
 678              		.cfi_endproc
 679              	.LFE10:
 680              		.size	u8g2_font_decode_get_signed_bits, .-u8g2_font_decode_get_signed_bits
 681 0016 00BF     		.section	.text.u8g2_add_vector_y,"ax",%progbits
 682              		.align	2
 683              		.global	u8g2_add_vector_y
 684              		.thumb
 685              		.thumb_func
 686              		.type	u8g2_add_vector_y, %function
 687              	u8g2_add_vector_y:
 688              	.LFB11:
 297:..\u8g2\csrc/u8g2_font.c ****   switch(dir)
 689              		.loc 1 297 0
ARM GAS  C:\Users\brian\AppData\Local\Temp\ccTYhJxe.s 			page 33


 690              		.cfi_startproc
 691              		@ args = 0, pretend = 0, frame = 0
 692              		@ frame_needed = 0, uses_anonymous_args = 0
 693              		@ link register save eliminated.
 694              	.LVL101:
 298:..\u8g2\csrc/u8g2_font.c ****   {
 695              		.loc 1 298 0
 696 0000 012B     		cmp	r3, #1
 697 0002 06D0     		beq	.L29
 698 0004 13B1     		cbz	r3, .L30
 699 0006 022B     		cmp	r3, #2
 700 0008 06D0     		beq	.L31
 701 000a 08E0     		b	.L33
 702              	.L30:
 301:..\u8g2\csrc/u8g2_font.c ****       break;
 703              		.loc 1 301 0
 704 000c 1044     		add	r0, r0, r2
 705              	.LVL102:
 706 000e 80B2     		uxth	r0, r0
 707              	.LVL103:
 302:..\u8g2\csrc/u8g2_font.c ****     case 1:
 708              		.loc 1 302 0
 709 0010 7047     		bx	lr
 710              	.L29:
 304:..\u8g2\csrc/u8g2_font.c ****       break;
 711              		.loc 1 304 0
 712 0012 0844     		add	r0, r0, r1
 713              	.LVL104:
 714 0014 80B2     		uxth	r0, r0
 715              	.LVL105:
 305:..\u8g2\csrc/u8g2_font.c ****     case 2:
 716              		.loc 1 305 0
 717 0016 7047     		bx	lr
 718              	.L31:
 307:..\u8g2\csrc/u8g2_font.c ****       break;
 719              		.loc 1 307 0
 720 0018 801A     		subs	r0, r0, r2
 721              	.LVL106:
 722 001a 80B2     		uxth	r0, r0
 723              	.LVL107:
 308:..\u8g2\csrc/u8g2_font.c ****     default:
 724              		.loc 1 308 0
 725 001c 7047     		bx	lr
 726              	.L33:
 310:..\u8g2\csrc/u8g2_font.c ****       break;      
 727              		.loc 1 310 0
 728 001e 401A     		subs	r0, r0, r1
 729              	.LVL108:
 730 0020 80B2     		uxth	r0, r0
 731              	.LVL109:
 314:..\u8g2\csrc/u8g2_font.c **** 
 732              		.loc 1 314 0
 733 0022 7047     		bx	lr
 734              		.cfi_endproc
 735              	.LFE11:
 736              		.size	u8g2_add_vector_y, .-u8g2_add_vector_y
 737              		.section	.text.u8g2_add_vector_x,"ax",%progbits
ARM GAS  C:\Users\brian\AppData\Local\Temp\ccTYhJxe.s 			page 34


 738              		.align	2
 739              		.global	u8g2_add_vector_x
 740              		.thumb
 741              		.thumb_func
 742              		.type	u8g2_add_vector_x, %function
 743              	u8g2_add_vector_x:
 744              	.LFB12:
 317:..\u8g2\csrc/u8g2_font.c ****   switch(dir)
 745              		.loc 1 317 0
 746              		.cfi_startproc
 747              		@ args = 0, pretend = 0, frame = 0
 748              		@ frame_needed = 0, uses_anonymous_args = 0
 749              		@ link register save eliminated.
 750              	.LVL110:
 318:..\u8g2\csrc/u8g2_font.c ****   {
 751              		.loc 1 318 0
 752 0000 012B     		cmp	r3, #1
 753 0002 06D0     		beq	.L36
 754 0004 13B1     		cbz	r3, .L37
 755 0006 022B     		cmp	r3, #2
 756 0008 06D0     		beq	.L38
 757 000a 08E0     		b	.L40
 758              	.L37:
 321:..\u8g2\csrc/u8g2_font.c ****       break;
 759              		.loc 1 321 0
 760 000c 0844     		add	r0, r0, r1
 761              	.LVL111:
 762 000e 80B2     		uxth	r0, r0
 763              	.LVL112:
 322:..\u8g2\csrc/u8g2_font.c ****     case 1:
 764              		.loc 1 322 0
 765 0010 7047     		bx	lr
 766              	.L36:
 324:..\u8g2\csrc/u8g2_font.c ****       break;
 767              		.loc 1 324 0
 768 0012 801A     		subs	r0, r0, r2
 769              	.LVL113:
 770 0014 80B2     		uxth	r0, r0
 771              	.LVL114:
 325:..\u8g2\csrc/u8g2_font.c ****     case 2:
 772              		.loc 1 325 0
 773 0016 7047     		bx	lr
 774              	.L38:
 327:..\u8g2\csrc/u8g2_font.c ****       break;
 775              		.loc 1 327 0
 776 0018 401A     		subs	r0, r0, r1
 777              	.LVL115:
 778 001a 80B2     		uxth	r0, r0
 779              	.LVL116:
 328:..\u8g2\csrc/u8g2_font.c ****     default:
 780              		.loc 1 328 0
 781 001c 7047     		bx	lr
 782              	.L40:
 330:..\u8g2\csrc/u8g2_font.c ****       break;      
 783              		.loc 1 330 0
 784 001e 1044     		add	r0, r0, r2
 785              	.LVL117:
ARM GAS  C:\Users\brian\AppData\Local\Temp\ccTYhJxe.s 			page 35


 786 0020 80B2     		uxth	r0, r0
 787              	.LVL118:
 334:..\u8g2\csrc/u8g2_font.c **** 
 788              		.loc 1 334 0
 789 0022 7047     		bx	lr
 790              		.cfi_endproc
 791              	.LFE12:
 792              		.size	u8g2_add_vector_x, .-u8g2_add_vector_x
 793              		.section	.text.u8g2_font_decode_len,"ax",%progbits
 794              		.align	2
 795              		.global	u8g2_font_decode_len
 796              		.thumb
 797              		.thumb_func
 798              		.type	u8g2_font_decode_len, %function
 799              	u8g2_font_decode_len:
 800              	.LFB13:
 388:..\u8g2\csrc/u8g2_font.c ****   uint8_t cnt;	/* total number of remaining pixels, which have to be drawn */
 801              		.loc 1 388 0
 802              		.cfi_startproc
 803              		@ args = 0, pretend = 0, frame = 16
 804              		@ frame_needed = 0, uses_anonymous_args = 0
 805              	.LVL119:
 806 0000 2DE9F04F 		push	{r4, r5, r6, r7, r8, r9, r10, fp, lr}
 807              		.cfi_def_cfa_offset 36
 808              		.cfi_offset 4, -36
 809              		.cfi_offset 5, -32
 810              		.cfi_offset 6, -28
 811              		.cfi_offset 7, -24
 812              		.cfi_offset 8, -20
 813              		.cfi_offset 9, -16
 814              		.cfi_offset 10, -12
 815              		.cfi_offset 11, -8
 816              		.cfi_offset 14, -4
 817 0004 87B0     		sub	sp, sp, #28
 818              		.cfi_def_cfa_offset 64
 819 0006 0646     		mov	r6, r0
 820 0008 0C46     		mov	r4, r1
 821 000a 0592     		str	r2, [sp, #20]
 822              	.LVL120:
 405:..\u8g2\csrc/u8g2_font.c ****   ly = decode->y;
 823              		.loc 1 405 0
 824 000c 90F868A0 		ldrb	r10, [r0, #104]	@ zero_extendqisi2
 825              	.LVL121:
 406:..\u8g2\csrc/u8g2_font.c ****   
 826              		.loc 1 406 0
 827 0010 90F86980 		ldrb	r8, [r0, #105]	@ zero_extendqisi2
 828              	.LVL122:
 829              	.L46:
 411:..\u8g2\csrc/u8g2_font.c ****     rem -= lx;
 830              		.loc 1 411 0
 831 0014 96F86A50 		ldrb	r5, [r6, #106]	@ zero_extendqisi2
 832              	.LVL123:
 412:..\u8g2\csrc/u8g2_font.c ****     
 833              		.loc 1 412 0
 834 0018 CAEB0505 		rsb	r5, r10, r5
 835              	.LVL124:
 836 001c EDB2     		uxtb	r5, r5
ARM GAS  C:\Users\brian\AppData\Local\Temp\ccTYhJxe.s 			page 36


 837              	.LVL125:
 417:..\u8g2\csrc/u8g2_font.c ****       current = cnt;
 838              		.loc 1 417 0
 839 001e AC42     		cmp	r4, r5
 840 0020 01D3     		bcc	.L47
 416:..\u8g2\csrc/u8g2_font.c ****     if ( cnt < rem )
 841              		.loc 1 416 0
 842 0022 0395     		str	r5, [sp, #12]
 843 0024 00E0     		b	.L42
 844              	.L47:
 418:..\u8g2\csrc/u8g2_font.c ****     
 845              		.loc 1 418 0
 846 0026 0394     		str	r4, [sp, #12]
 847              	.L42:
 848              	.LVL126:
 426:..\u8g2\csrc/u8g2_font.c **** 
 849              		.loc 1 426 0
 850 0028 B6F86690 		ldrh	r9, [r6, #102]
 851              	.LVL127:
 431:..\u8g2\csrc/u8g2_font.c ****     y = u8g2_add_vector_y(y, lx, ly, decode->dir);
 852              		.loc 1 431 0
 853 002c 4FFA8AF1 		sxtb	r1, r10
 854 0030 4FFA88FB 		sxtb	fp, r8
 855 0034 96F87070 		ldrb	r7, [r6, #112]	@ zero_extendqisi2
 856 0038 3B46     		mov	r3, r7
 857 003a 5A46     		mov	r2, fp
 858 003c 0291     		str	r1, [sp, #8]
 859 003e B6F86400 		ldrh	r0, [r6, #100]
 860 0042 FFF7FEFF 		bl	u8g2_add_vector_x
 861              	.LVL128:
 862 0046 0490     		str	r0, [sp, #16]
 863              	.LVL129:
 432:..\u8g2\csrc/u8g2_font.c ****     
 864              		.loc 1 432 0
 865 0048 3B46     		mov	r3, r7
 866 004a 5A46     		mov	r2, fp
 867 004c 0299     		ldr	r1, [sp, #8]
 868 004e 4846     		mov	r0, r9
 869 0050 FFF7FEFF 		bl	u8g2_add_vector_y
 870              	.LVL130:
 442:..\u8g2\csrc/u8g2_font.c ****     {
 871              		.loc 1 442 0
 872 0054 059B     		ldr	r3, [sp, #20]
 873 0056 63B1     		cbz	r3, .L43
 444:..\u8g2\csrc/u8g2_font.c ****       u8g2_DrawHVLine(u8g2, 
 874              		.loc 1 444 0
 875 0058 96F86E30 		ldrb	r3, [r6, #110]	@ zero_extendqisi2
 876 005c 86F89230 		strb	r3, [r6, #146]
 445:..\u8g2\csrc/u8g2_font.c **** 	x, 
 877              		.loc 1 445 0
 878 0060 0097     		str	r7, [sp]
 879 0062 BDF80C30 		ldrh	r3, [sp, #12]
 880 0066 0246     		mov	r2, r0
 881 0068 0499     		ldr	r1, [sp, #16]
 882 006a 3046     		mov	r0, r6
 883              	.LVL131:
 884 006c FFF7FEFF 		bl	u8g2_DrawHVLine
ARM GAS  C:\Users\brian\AppData\Local\Temp\ccTYhJxe.s 			page 37


 885              	.LVL132:
 886 0070 0EE0     		b	.L44
 887              	.LVL133:
 888              	.L43:
 456:..\u8g2\csrc/u8g2_font.c ****     {
 889              		.loc 1 456 0
 890 0072 96F86D30 		ldrb	r3, [r6, #109]	@ zero_extendqisi2
 891 0076 5BB9     		cbnz	r3, .L44
 458:..\u8g2\csrc/u8g2_font.c ****       u8g2_DrawHVLine(u8g2, 
 892              		.loc 1 458 0
 893 0078 96F86F30 		ldrb	r3, [r6, #111]	@ zero_extendqisi2
 894 007c 86F89230 		strb	r3, [r6, #146]
 459:..\u8g2\csrc/u8g2_font.c **** 	x, 
 895              		.loc 1 459 0
 896 0080 0097     		str	r7, [sp]
 897 0082 BDF80C30 		ldrh	r3, [sp, #12]
 898 0086 0246     		mov	r2, r0
 899 0088 0499     		ldr	r1, [sp, #16]
 900 008a 3046     		mov	r0, r6
 901              	.LVL134:
 902 008c FFF7FEFF 		bl	u8g2_DrawHVLine
 903              	.LVL135:
 904              	.L44:
 472:..\u8g2\csrc/u8g2_font.c ****       break;
 905              		.loc 1 472 0
 906 0090 AC42     		cmp	r4, r5
 907 0092 08D3     		bcc	.L45
 474:..\u8g2\csrc/u8g2_font.c ****     lx = 0;
 908              		.loc 1 474 0
 909 0094 641B     		subs	r4, r4, r5
 910              	.LVL136:
 911 0096 E4B2     		uxtb	r4, r4
 912              	.LVL137:
 476:..\u8g2\csrc/u8g2_font.c ****   }
 913              		.loc 1 476 0
 914 0098 08F10108 		add	r8, r8, #1
 915              	.LVL138:
 916 009c 5FFA88F8 		uxtb	r8, r8
 917              	.LVL139:
 475:..\u8g2\csrc/u8g2_font.c ****     ly++;
 918              		.loc 1 475 0
 919 00a0 4FF0000A 		mov	r10, #0
 477:..\u8g2\csrc/u8g2_font.c ****   lx += cnt;
 920              		.loc 1 477 0
 921 00a4 B6E7     		b	.L46
 922              	.LVL140:
 923              	.L45:
 478:..\u8g2\csrc/u8g2_font.c ****   
 924              		.loc 1 478 0
 925 00a6 5444     		add	r4, r4, r10
 926              	.LVL141:
 480:..\u8g2\csrc/u8g2_font.c ****   decode->y = ly;
 927              		.loc 1 480 0
 928 00a8 86F86840 		strb	r4, [r6, #104]
 481:..\u8g2\csrc/u8g2_font.c ****   
 929              		.loc 1 481 0
 930 00ac 86F869B0 		strb	fp, [r6, #105]
ARM GAS  C:\Users\brian\AppData\Local\Temp\ccTYhJxe.s 			page 38


 483:..\u8g2\csrc/u8g2_font.c **** 
 931              		.loc 1 483 0
 932 00b0 07B0     		add	sp, sp, #28
 933              		.cfi_def_cfa_offset 36
 934              		@ sp needed
 935 00b2 BDE8F08F 		pop	{r4, r5, r6, r7, r8, r9, r10, fp, pc}
 936              		.cfi_endproc
 937              	.LFE13:
 938              		.size	u8g2_font_decode_len, .-u8g2_font_decode_len
 939 00b6 00BF     		.section	.text.u8g2_font_decode_glyph,"ax",%progbits
 940              		.align	2
 941              		.global	u8g2_font_decode_glyph
 942              		.thumb
 943              		.thumb_func
 944              		.type	u8g2_font_decode_glyph, %function
 945              	u8g2_font_decode_glyph:
 946              	.LFB15:
 520:..\u8g2\csrc/u8g2_font.c ****   uint8_t a, b;
 947              		.loc 1 520 0
 948              		.cfi_startproc
 949              		@ args = 0, pretend = 0, frame = 8
 950              		@ frame_needed = 0, uses_anonymous_args = 0
 951              	.LVL142:
 952 0000 2DE9F04F 		push	{r4, r5, r6, r7, r8, r9, r10, fp, lr}
 953              		.cfi_def_cfa_offset 36
 954              		.cfi_offset 4, -36
 955              		.cfi_offset 5, -32
 956              		.cfi_offset 6, -28
 957              		.cfi_offset 7, -24
 958              		.cfi_offset 8, -20
 959              		.cfi_offset 9, -16
 960              		.cfi_offset 10, -12
 961              		.cfi_offset 11, -8
 962              		.cfi_offset 14, -4
 963 0004 85B0     		sub	sp, sp, #20
 964              		.cfi_def_cfa_offset 56
 965 0006 0446     		mov	r4, r0
 525:..\u8g2\csrc/u8g2_font.c ****     
 966              		.loc 1 525 0
 967 0008 00F16005 		add	r5, r0, #96
 968              	.LVL143:
 527:..\u8g2\csrc/u8g2_font.c ****   h = u8g2->font_decode.glyph_height;
 969              		.loc 1 527 0
 970 000c FFF7FEFF 		bl	u8g2_font_setup_decode
 971              	.LVL144:
 528:..\u8g2\csrc/u8g2_font.c ****   
 972              		.loc 1 528 0
 973 0010 94F96B60 		ldrsb	r6, [r4, #107]
 974              	.LVL145:
 530:..\u8g2\csrc/u8g2_font.c ****   y = u8g2_font_decode_get_signed_bits(decode, u8g2->font_info.bits_per_char_y);
 975              		.loc 1 530 0
 976 0014 94F87A10 		ldrb	r1, [r4, #122]	@ zero_extendqisi2
 977 0018 2846     		mov	r0, r5
 978 001a FFF7FEFF 		bl	u8g2_font_decode_get_signed_bits
 979              	.LVL146:
 980 001e 8346     		mov	fp, r0
 981              	.LVL147:
ARM GAS  C:\Users\brian\AppData\Local\Temp\ccTYhJxe.s 			page 39


 531:..\u8g2\csrc/u8g2_font.c ****   d = u8g2_font_decode_get_signed_bits(decode, u8g2->font_info.bits_per_delta_x);
 982              		.loc 1 531 0
 983 0020 94F87B10 		ldrb	r1, [r4, #123]	@ zero_extendqisi2
 984 0024 2846     		mov	r0, r5
 985 0026 FFF7FEFF 		bl	u8g2_font_decode_get_signed_bits
 986              	.LVL148:
 987 002a 0746     		mov	r7, r0
 988              	.LVL149:
 532:..\u8g2\csrc/u8g2_font.c ****   
 989              		.loc 1 532 0
 990 002c 94F87C10 		ldrb	r1, [r4, #124]	@ zero_extendqisi2
 991 0030 2846     		mov	r0, r5
 992 0032 FFF7FEFF 		bl	u8g2_font_decode_get_signed_bits
 993              	.LVL150:
 994 0036 0390     		str	r0, [sp, #12]
 995              	.LVL151:
 534:..\u8g2\csrc/u8g2_font.c ****   {
 996              		.loc 1 534 0
 997 0038 94F96A90 		ldrsb	r9, [r4, #106]
 998 003c B9F1000F 		cmp	r9, #0
 999 0040 7CDD     		ble	.L50
 537:..\u8g2\csrc/u8g2_font.c ****     decode->target_y = u8g2_add_vector_y(decode->target_y, x, -(h+y), decode->dir);
 1000              		.loc 1 537 0
 1001 0042 3744     		add	r7, r7, r6
 1002              	.LVL152:
 1003 0044 7F42     		negs	r7, r7
 1004 0046 7FB2     		sxtb	r7, r7
 1005 0048 94F87080 		ldrb	r8, [r4, #112]	@ zero_extendqisi2
 1006 004c 4346     		mov	r3, r8
 1007 004e 3A46     		mov	r2, r7
 1008 0050 5946     		mov	r1, fp
 1009 0052 B4F86400 		ldrh	r0, [r4, #100]
 1010 0056 FFF7FEFF 		bl	u8g2_add_vector_x
 1011              	.LVL153:
 1012 005a 8246     		mov	r10, r0
 1013 005c A4F86400 		strh	r0, [r4, #100]	@ movhi
 538:..\u8g2\csrc/u8g2_font.c ****     
 1014              		.loc 1 538 0
 1015 0060 4346     		mov	r3, r8
 1016 0062 3A46     		mov	r2, r7
 1017 0064 5946     		mov	r1, fp
 1018 0066 B4F86600 		ldrh	r0, [r4, #102]
 1019 006a FFF7FEFF 		bl	u8g2_add_vector_y
 1020              	.LVL154:
 1021 006e 0246     		mov	r2, r0
 1022 0070 A4F86600 		strh	r0, [r4, #102]	@ movhi
 1023              	.LVL155:
 1024              	.LBB3:
 557:..\u8g2\csrc/u8g2_font.c ****       {
 1025              		.loc 1 557 0
 1026 0074 B8F1030F 		cmp	r8, #3
 1027 0078 30D8     		bhi	.L59
 1028 007a DFE808F0 		tbb	[pc, r8]
 1029              	.L53:
 1030 007e 02       		.byte	(.L52-.L53)/2
 1031 007f 08       		.byte	(.L54-.L53)/2
 1032 0080 14       		.byte	(.L55-.L53)/2
ARM GAS  C:\Users\brian\AppData\Local\Temp\ccTYhJxe.s 			page 40


 1033 0081 24       		.byte	(.L56-.L53)/2
 1034              		.p2align 1
 1035              	.L52:
 560:..\u8g2\csrc/u8g2_font.c **** 	    y1 += h;
 1036              		.loc 1 560 0
 1037 0082 0AEB0903 		add	r3, r10, r9
 1038 0086 9BB2     		uxth	r3, r3
 1039              	.LVL156:
 561:..\u8g2\csrc/u8g2_font.c **** 	    break;
 1040              		.loc 1 561 0
 1041 0088 3044     		add	r0, r0, r6
 1042              	.LVL157:
 1043 008a 80B2     		uxth	r0, r0
 1044              	.LVL158:
 562:..\u8g2\csrc/u8g2_font.c **** 	case 1:
 1045              		.loc 1 562 0
 1046 008c 27E0     		b	.L51
 1047              	.LVL159:
 1048              	.L54:
 564:..\u8g2\csrc/u8g2_font.c **** 	    x0++;	/* shift down, because of assymetric boundaries for the interseciton test */
 1049              		.loc 1 564 0
 1050 008e C6EB0A01 		rsb	r1, r6, r10
 1051 0092 89B2     		uxth	r1, r1
 1052              	.LVL160:
 565:..\u8g2\csrc/u8g2_font.c **** 	    x1++;
 1053              		.loc 1 565 0
 1054 0094 0131     		adds	r1, r1, #1
 1055              	.LVL161:
 566:..\u8g2\csrc/u8g2_font.c **** 	    y1 += decode->glyph_width;
 1056              		.loc 1 566 0
 1057 0096 0AF10103 		add	r3, r10, #1
 1058 009a 9BB2     		uxth	r3, r3
 1059              	.LVL162:
 567:..\u8g2\csrc/u8g2_font.c **** 	    break;
 1060              		.loc 1 567 0
 1061 009c 4844     		add	r0, r0, r9
 1062              	.LVL163:
 1063 009e 80B2     		uxth	r0, r0
 1064              	.LVL164:
 565:..\u8g2\csrc/u8g2_font.c **** 	    x1++;
 1065              		.loc 1 565 0
 1066 00a0 1FFA81FA 		uxth	r10, r1
 568:..\u8g2\csrc/u8g2_font.c **** 	case 2:
 1067              		.loc 1 568 0
 1068 00a4 1BE0     		b	.L51
 1069              	.LVL165:
 1070              	.L55:
 570:..\u8g2\csrc/u8g2_font.c **** 	    x0++;	/* shift down, because of assymetric boundaries for the interseciton test */
 1071              		.loc 1 570 0
 1072 00a6 C9EB0A01 		rsb	r1, r9, r10
 1073 00aa 89B2     		uxth	r1, r1
 1074              	.LVL166:
 571:..\u8g2\csrc/u8g2_font.c **** 	    x1++;
 1075              		.loc 1 571 0
 1076 00ac 0131     		adds	r1, r1, #1
 1077              	.LVL167:
 572:..\u8g2\csrc/u8g2_font.c **** 	    y0 -= h;
ARM GAS  C:\Users\brian\AppData\Local\Temp\ccTYhJxe.s 			page 41


 1078              		.loc 1 572 0
 1079 00ae 0AF10103 		add	r3, r10, #1
 1080 00b2 9BB2     		uxth	r3, r3
 1081              	.LVL168:
 573:..\u8g2\csrc/u8g2_font.c **** 	    y0++;	/* shift down, because of assymetric boundaries for the interseciton test */
 1082              		.loc 1 573 0
 1083 00b4 871B     		subs	r7, r0, r6
 1084 00b6 BFB2     		uxth	r7, r7
 1085              	.LVL169:
 574:..\u8g2\csrc/u8g2_font.c **** 	    y1++;
 1086              		.loc 1 574 0
 1087 00b8 0137     		adds	r7, r7, #1
 1088              	.LVL170:
 575:..\u8g2\csrc/u8g2_font.c **** 	    break;	  
 1089              		.loc 1 575 0
 1090 00ba 0132     		adds	r2, r2, #1
 1091 00bc 90B2     		uxth	r0, r2
 1092              	.LVL171:
 574:..\u8g2\csrc/u8g2_font.c **** 	    y1++;
 1093              		.loc 1 574 0
 1094 00be BAB2     		uxth	r2, r7
 571:..\u8g2\csrc/u8g2_font.c **** 	    x1++;
 1095              		.loc 1 571 0
 1096 00c0 1FFA81FA 		uxth	r10, r1
 576:..\u8g2\csrc/u8g2_font.c **** 	case 3:
 1097              		.loc 1 576 0
 1098 00c4 0BE0     		b	.L51
 1099              	.LVL172:
 1100              	.L56:
 578:..\u8g2\csrc/u8g2_font.c **** 	    y0 -= decode->glyph_width;
 1101              		.loc 1 578 0
 1102 00c6 0AEB0603 		add	r3, r10, r6
 1103 00ca 9BB2     		uxth	r3, r3
 1104              	.LVL173:
 579:..\u8g2\csrc/u8g2_font.c **** 	    y0++;	/* shift down, because of assymetric boundaries for the interseciton test */
 1105              		.loc 1 579 0
 1106 00cc C9EB0001 		rsb	r1, r9, r0
 1107 00d0 89B2     		uxth	r1, r1
 1108              	.LVL174:
 580:..\u8g2\csrc/u8g2_font.c **** 	    y1++;
 1109              		.loc 1 580 0
 1110 00d2 0131     		adds	r1, r1, #1
 1111              	.LVL175:
 581:..\u8g2\csrc/u8g2_font.c **** 	    break;	  
 1112              		.loc 1 581 0
 1113 00d4 0132     		adds	r2, r2, #1
 1114 00d6 90B2     		uxth	r0, r2
 1115              	.LVL176:
 580:..\u8g2\csrc/u8g2_font.c **** 	    y1++;
 1116              		.loc 1 580 0
 1117 00d8 8AB2     		uxth	r2, r1
 582:..\u8g2\csrc/u8g2_font.c ****       }
 1118              		.loc 1 582 0
 1119 00da 00E0     		b	.L51
 1120              	.LVL177:
 1121              	.L59:
 553:..\u8g2\csrc/u8g2_font.c ****       y1 = y0;
ARM GAS  C:\Users\brian\AppData\Local\Temp\ccTYhJxe.s 			page 42


 1122              		.loc 1 553 0
 1123 00dc 5346     		mov	r3, r10
 1124              	.LVL178:
 1125              	.L51:
 589:..\u8g2\csrc/u8g2_font.c **** 	return d;
 1126              		.loc 1 589 0
 1127 00de 0090     		str	r0, [sp]
 1128 00e0 5146     		mov	r1, r10
 1129 00e2 2046     		mov	r0, r4
 1130              	.LVL179:
 1131 00e4 FFF7FEFF 		bl	u8g2_IsIntersection
 1132              	.LVL180:
 1133 00e8 40B3     		cbz	r0, .L50
 1134              	.LBE3:
 595:..\u8g2\csrc/u8g2_font.c ****     decode->y = 0;
 1135              		.loc 1 595 0
 1136 00ea 0023     		movs	r3, #0
 1137 00ec 84F86830 		strb	r3, [r4, #104]
 596:..\u8g2\csrc/u8g2_font.c ****     
 1138              		.loc 1 596 0
 1139 00f0 84F86930 		strb	r3, [r4, #105]
 1140              	.L58:
 601:..\u8g2\csrc/u8g2_font.c ****       b = u8g2_font_decode_get_unsigned_bits(decode, u8g2->font_info.bits_per_1);
 1141              		.loc 1 601 0
 1142 00f4 94F87610 		ldrb	r1, [r4, #118]	@ zero_extendqisi2
 1143 00f8 2846     		mov	r0, r5
 1144 00fa FFF7FEFF 		bl	u8g2_font_decode_get_unsigned_bits
 1145              	.LVL181:
 1146 00fe 8046     		mov	r8, r0
 1147              	.LVL182:
 602:..\u8g2\csrc/u8g2_font.c ****       do
 1148              		.loc 1 602 0
 1149 0100 94F87710 		ldrb	r1, [r4, #119]	@ zero_extendqisi2
 1150 0104 2846     		mov	r0, r5
 1151 0106 FFF7FEFF 		bl	u8g2_font_decode_get_unsigned_bits
 1152              	.LVL183:
 1153 010a 0746     		mov	r7, r0
 1154              	.LVL184:
 1155              	.L57:
 605:..\u8g2\csrc/u8g2_font.c **** 	u8g2_font_decode_len(u8g2, b, 1);
 1156              		.loc 1 605 0 discriminator 1
 1157 010c 0022     		movs	r2, #0
 1158 010e 4146     		mov	r1, r8
 1159 0110 2046     		mov	r0, r4
 1160 0112 FFF7FEFF 		bl	u8g2_font_decode_len
 1161              	.LVL185:
 606:..\u8g2\csrc/u8g2_font.c ****       } while( u8g2_font_decode_get_unsigned_bits(decode, 1) != 0 );
 1162              		.loc 1 606 0 discriminator 1
 1163 0116 0122     		movs	r2, #1
 1164 0118 3946     		mov	r1, r7
 1165 011a 2046     		mov	r0, r4
 1166 011c FFF7FEFF 		bl	u8g2_font_decode_len
 1167              	.LVL186:
 607:..\u8g2\csrc/u8g2_font.c **** 
 1168              		.loc 1 607 0 discriminator 1
 1169 0120 0121     		movs	r1, #1
 1170 0122 2846     		mov	r0, r5
ARM GAS  C:\Users\brian\AppData\Local\Temp\ccTYhJxe.s 			page 43


 1171 0124 FFF7FEFF 		bl	u8g2_font_decode_get_unsigned_bits
 1172              	.LVL187:
 1173 0128 0028     		cmp	r0, #0
 1174 012a EFD1     		bne	.L57
 609:..\u8g2\csrc/u8g2_font.c **** 	break;
 1175              		.loc 1 609 0
 1176 012c 94F96930 		ldrsb	r3, [r4, #105]
 1177 0130 9E42     		cmp	r6, r3
 1178 0132 DFDC     		bgt	.L58
 614:..\u8g2\csrc/u8g2_font.c ****   }
 1179              		.loc 1 614 0
 1180 0134 94F86E30 		ldrb	r3, [r4, #110]	@ zero_extendqisi2
 1181 0138 84F89230 		strb	r3, [r4, #146]
 1182              	.LVL188:
 1183              	.L50:
 617:..\u8g2\csrc/u8g2_font.c **** 
 1184              		.loc 1 617 0
 1185 013c 0398     		ldr	r0, [sp, #12]
 1186 013e 05B0     		add	sp, sp, #20
 1187              		.cfi_def_cfa_offset 36
 1188              		@ sp needed
 1189 0140 BDE8F08F 		pop	{r4, r5, r6, r7, r8, r9, r10, fp, pc}
 1190              		.cfi_endproc
 1191              	.LFE15:
 1192              		.size	u8g2_font_decode_glyph, .-u8g2_font_decode_glyph
 1193              		.section	.text.u8g2_font_get_glyph_data,"ax",%progbits
 1194              		.align	2
 1195              		.global	u8g2_font_get_glyph_data
 1196              		.thumb
 1197              		.thumb_func
 1198              		.type	u8g2_font_get_glyph_data, %function
 1199              	u8g2_font_get_glyph_data:
 1200              	.LFB16:
 628:..\u8g2\csrc/u8g2_font.c ****   const uint8_t *font = u8g2->font;
 1201              		.loc 1 628 0
 1202              		.cfi_startproc
 1203              		@ args = 0, pretend = 0, frame = 0
 1204              		@ frame_needed = 0, uses_anonymous_args = 0
 1205              	.LVL189:
 1206 0000 70B5     		push	{r4, r5, r6, lr}
 1207              		.cfi_def_cfa_offset 16
 1208              		.cfi_offset 4, -16
 1209              		.cfi_offset 5, -12
 1210              		.cfi_offset 6, -8
 1211              		.cfi_offset 14, -4
 629:..\u8g2\csrc/u8g2_font.c ****   font += U8G2_FONT_DATA_STRUCT_SIZE;
 1212              		.loc 1 629 0
 1213 0002 846D     		ldr	r4, [r0, #88]
 1214              	.LVL190:
 630:..\u8g2\csrc/u8g2_font.c **** 
 1215              		.loc 1 630 0
 1216 0004 1734     		adds	r4, r4, #23
 1217              	.LVL191:
 633:..\u8g2\csrc/u8g2_font.c ****   {
 1218              		.loc 1 633 0
 1219 0006 FF29     		cmp	r1, #255
 1220 0008 13D8     		bhi	.L62
ARM GAS  C:\Users\brian\AppData\Local\Temp\ccTYhJxe.s 			page 44


 635:..\u8g2\csrc/u8g2_font.c ****     {
 1221              		.loc 1 635 0
 1222 000a 6029     		cmp	r1, #96
 1223 000c 03D9     		bls	.L63
 637:..\u8g2\csrc/u8g2_font.c ****     }
 1224              		.loc 1 637 0
 1225 000e B0F88830 		ldrh	r3, [r0, #136]
 1226 0012 1C44     		add	r4, r4, r3
 1227              	.LVL192:
 1228 0014 04E0     		b	.L67
 1229              	.L63:
 639:..\u8g2\csrc/u8g2_font.c ****     {
 1230              		.loc 1 639 0
 1231 0016 4029     		cmp	r1, #64
 1232 0018 02D9     		bls	.L67
 641:..\u8g2\csrc/u8g2_font.c ****     }
 1233              		.loc 1 641 0
 1234 001a B0F88630 		ldrh	r3, [r0, #134]
 1235 001e 1C44     		add	r4, r4, r3
 1236              	.LVL193:
 1237              	.L67:
 646:..\u8g2\csrc/u8g2_font.c **** 	break;
 1238              		.loc 1 646 0
 1239 0020 6378     		ldrb	r3, [r4, #1]	@ zero_extendqisi2
 1240 0022 1BB3     		cbz	r3, .L71
 648:..\u8g2\csrc/u8g2_font.c ****       {
 1241              		.loc 1 648 0
 1242 0024 2278     		ldrb	r2, [r4]	@ zero_extendqisi2
 1243 0026 9142     		cmp	r1, r2
 1244 0028 01D1     		bne	.L66
 650:..\u8g2\csrc/u8g2_font.c ****       }
 1245              		.loc 1 650 0
 1246 002a A01C     		adds	r0, r4, #2
 1247              	.LVL194:
 1248 002c 70BD     		pop	{r4, r5, r6, pc}
 1249              	.LVL195:
 1250              	.L66:
 652:..\u8g2\csrc/u8g2_font.c ****     }
 1251              		.loc 1 652 0
 1252 002e 1C44     		add	r4, r4, r3
 1253              	.LVL196:
 653:..\u8g2\csrc/u8g2_font.c ****   }
 1254              		.loc 1 653 0
 1255 0030 F6E7     		b	.L67
 1256              	.L62:
 1257 0032 0E46     		mov	r6, r1
 1258              	.LBB4:
 670:..\u8g2\csrc/u8g2_font.c ****     unicode_lookup_table = font; 
 1259              		.loc 1 670 0
 1260 0034 B0F88A30 		ldrh	r3, [r0, #138]
 1261 0038 1C44     		add	r4, r4, r3
 1262              	.LVL197:
 671:..\u8g2\csrc/u8g2_font.c ****   
 1263              		.loc 1 671 0
 1264 003a 2546     		mov	r5, r4
 1265              	.LVL198:
 1266              	.L68:
ARM GAS  C:\Users\brian\AppData\Local\Temp\ccTYhJxe.s 			page 45


 676:..\u8g2\csrc/u8g2_font.c ****       e = u8g2_font_get_word(unicode_lookup_table, 2);
 1267              		.loc 1 676 0 discriminator 1
 1268 003c 0021     		movs	r1, #0
 1269 003e 2846     		mov	r0, r5
 1270 0040 FFF7FEFF 		bl	u8g2_font_get_word
 1271              	.LVL199:
 1272 0044 0444     		add	r4, r4, r0
 1273              	.LVL200:
 677:..\u8g2\csrc/u8g2_font.c ****       unicode_lookup_table+=4;
 1274              		.loc 1 677 0 discriminator 1
 1275 0046 0221     		movs	r1, #2
 1276 0048 2846     		mov	r0, r5
 1277 004a FFF7FEFF 		bl	u8g2_font_get_word
 1278              	.LVL201:
 678:..\u8g2\csrc/u8g2_font.c ****     } while( e < encoding );
 1279              		.loc 1 678 0 discriminator 1
 1280 004e 0435     		adds	r5, r5, #4
 1281              	.LVL202:
 679:..\u8g2\csrc/u8g2_font.c ****     
 1282              		.loc 1 679 0 discriminator 1
 1283 0050 8642     		cmp	r6, r0
 1284 0052 F3D8     		bhi	.L68
 1285              	.LVL203:
 1286              	.L70:
 684:..\u8g2\csrc/u8g2_font.c ****       e <<= 8;
 1287              		.loc 1 684 0
 1288 0054 2278     		ldrb	r2, [r4]	@ zero_extendqisi2
 1289              	.LVL204:
 686:..\u8g2\csrc/u8g2_font.c ****   
 1290              		.loc 1 686 0
 1291 0056 6378     		ldrb	r3, [r4, #1]	@ zero_extendqisi2
 1292              	.LVL205:
 694:..\u8g2\csrc/u8g2_font.c **** 	break;
 1293              		.loc 1 694 0
 1294 0058 53EA0223 		orrs	r3, r3, r2, lsl #8
 1295              	.LVL206:
 1296 005c 08D0     		beq	.L72
 697:..\u8g2\csrc/u8g2_font.c ****       {
 1297              		.loc 1 697 0
 1298 005e 9E42     		cmp	r6, r3
 1299 0060 01D1     		bne	.L69
 704:..\u8g2\csrc/u8g2_font.c ****       }
 1300              		.loc 1 704 0
 1301 0062 E01C     		adds	r0, r4, #3
 1302 0064 70BD     		pop	{r4, r5, r6, pc}
 1303              	.LVL207:
 1304              	.L69:
 706:..\u8g2\csrc/u8g2_font.c ****     }  
 1305              		.loc 1 706 0
 1306 0066 A378     		ldrb	r3, [r4, #2]	@ zero_extendqisi2
 1307 0068 1C44     		add	r4, r4, r3
 1308              	.LVL208:
 707:..\u8g2\csrc/u8g2_font.c ****   }
 1309              		.loc 1 707 0
 1310 006a F3E7     		b	.L70
 1311              	.LVL209:
 1312              	.L71:
ARM GAS  C:\Users\brian\AppData\Local\Temp\ccTYhJxe.s 			page 46


 1313              	.LBE4:
 711:..\u8g2\csrc/u8g2_font.c **** }
 1314              		.loc 1 711 0
 1315 006c 0020     		movs	r0, #0
 1316              	.LVL210:
 1317 006e 70BD     		pop	{r4, r5, r6, pc}
 1318              	.LVL211:
 1319              	.L72:
 1320 0070 0020     		movs	r0, #0
 712:..\u8g2\csrc/u8g2_font.c **** 
 1321              		.loc 1 712 0
 1322 0072 70BD     		pop	{r4, r5, r6, pc}
 1323              		.cfi_endproc
 1324              	.LFE16:
 1325              		.size	u8g2_font_get_glyph_data, .-u8g2_font_get_glyph_data
 1326              		.section	.text.u8g2_font_draw_glyph,"ax",%progbits
 1327              		.align	2
 1328              		.thumb
 1329              		.thumb_func
 1330              		.type	u8g2_font_draw_glyph, %function
 1331              	u8g2_font_draw_glyph:
 1332              	.LFB17:
 715:..\u8g2\csrc/u8g2_font.c ****   u8g2_uint_t dx = 0;
 1333              		.loc 1 715 0
 1334              		.cfi_startproc
 1335              		@ args = 0, pretend = 0, frame = 0
 1336              		@ frame_needed = 0, uses_anonymous_args = 0
 1337              	.LVL212:
 1338 0000 10B5     		push	{r4, lr}
 1339              		.cfi_def_cfa_offset 8
 1340              		.cfi_offset 4, -8
 1341              		.cfi_offset 14, -4
 1342 0002 0446     		mov	r4, r0
 1343              	.LVL213:
 717:..\u8g2\csrc/u8g2_font.c ****   u8g2->font_decode.target_y = y;
 1344              		.loc 1 717 0
 1345 0004 A0F86410 		strh	r1, [r0, #100]	@ movhi
 718:..\u8g2\csrc/u8g2_font.c ****   //u8g2->font_decode.is_transparent = is_transparent; this is already set
 1346              		.loc 1 718 0
 1347 0008 A0F86620 		strh	r2, [r0, #102]	@ movhi
 721:..\u8g2\csrc/u8g2_font.c ****   if ( glyph_data != NULL )
 1348              		.loc 1 721 0
 1349 000c 1946     		mov	r1, r3
 1350              	.LVL214:
 1351 000e FFF7FEFF 		bl	u8g2_font_get_glyph_data
 1352              	.LVL215:
 722:..\u8g2\csrc/u8g2_font.c ****   {
 1353              		.loc 1 722 0
 1354 0012 28B1     		cbz	r0, .L76
 1355 0014 0146     		mov	r1, r0
 724:..\u8g2\csrc/u8g2_font.c ****   }
 1356              		.loc 1 724 0
 1357 0016 2046     		mov	r0, r4
 1358              	.LVL216:
 1359 0018 FFF7FEFF 		bl	u8g2_font_decode_glyph
 1360              	.LVL217:
 1361 001c 80B2     		uxth	r0, r0
ARM GAS  C:\Users\brian\AppData\Local\Temp\ccTYhJxe.s 			page 47


 1362              	.LVL218:
 1363 001e 10BD     		pop	{r4, pc}
 1364              	.LVL219:
 1365              	.L76:
 716:..\u8g2\csrc/u8g2_font.c ****   u8g2->font_decode.target_x = x;
 1366              		.loc 1 716 0
 1367 0020 0020     		movs	r0, #0
 1368              	.LVL220:
 727:..\u8g2\csrc/u8g2_font.c **** 
 1369              		.loc 1 727 0
 1370 0022 10BD     		pop	{r4, pc}
 1371              		.cfi_endproc
 1372              	.LFE17:
 1373              		.size	u8g2_font_draw_glyph, .-u8g2_font_draw_glyph
 1374              		.section	.text.u8g2_is_all_valid,"ax",%progbits
 1375              		.align	2
 1376              		.thumb
 1377              		.thumb_func
 1378              		.type	u8g2_is_all_valid, %function
 1379              	u8g2_is_all_valid:
 1380              	.LFB40:
1063:..\u8g2\csrc/u8g2_font.c **** 
1064:..\u8g2\csrc/u8g2_font.c **** void u8g2_SetFontPosCenter(u8g2_t *u8g2)
1065:..\u8g2\csrc/u8g2_font.c **** {
1066:..\u8g2\csrc/u8g2_font.c ****   u8g2->font_calc_vref = u8g2_font_calc_vref_center;
1067:..\u8g2\csrc/u8g2_font.c **** }
1068:..\u8g2\csrc/u8g2_font.c **** 
1069:..\u8g2\csrc/u8g2_font.c **** /*===============================================*/
1070:..\u8g2\csrc/u8g2_font.c **** 
1071:..\u8g2\csrc/u8g2_font.c **** void u8g2_SetFont(u8g2_t *u8g2, const uint8_t  *font)
1072:..\u8g2\csrc/u8g2_font.c **** {
1073:..\u8g2\csrc/u8g2_font.c ****   if ( u8g2->font != font )
1074:..\u8g2\csrc/u8g2_font.c ****   {
1075:..\u8g2\csrc/u8g2_font.c **** //#ifdef  __unix__
1076:..\u8g2\csrc/u8g2_font.c **** //	u8g2->last_font_data = NULL;
1077:..\u8g2\csrc/u8g2_font.c **** //	u8g2->last_unicode = 0x0ffff;
1078:..\u8g2\csrc/u8g2_font.c **** //#endif 
1079:..\u8g2\csrc/u8g2_font.c ****     u8g2->font = font;
1080:..\u8g2\csrc/u8g2_font.c ****     u8g2_read_font_info(&(u8g2->font_info), font);
1081:..\u8g2\csrc/u8g2_font.c ****     u8g2_UpdateRefHeight(u8g2);
1082:..\u8g2\csrc/u8g2_font.c ****     /* u8g2_SetFontPosBaseline(u8g2); */ /* removed with issue 195 */
1083:..\u8g2\csrc/u8g2_font.c ****   }
1084:..\u8g2\csrc/u8g2_font.c **** }
1085:..\u8g2\csrc/u8g2_font.c **** 
1086:..\u8g2\csrc/u8g2_font.c **** /*===============================================*/
1087:..\u8g2\csrc/u8g2_font.c **** 
1088:..\u8g2\csrc/u8g2_font.c **** static uint8_t u8g2_is_all_valid(u8g2_t *u8g2, const char *str) U8G2_NOINLINE;
1089:..\u8g2\csrc/u8g2_font.c **** static uint8_t u8g2_is_all_valid(u8g2_t *u8g2, const char *str)
1090:..\u8g2\csrc/u8g2_font.c **** {
 1381              		.loc 1 1090 0
 1382              		.cfi_startproc
 1383              		@ args = 0, pretend = 0, frame = 0
 1384              		@ frame_needed = 0, uses_anonymous_args = 0
 1385              	.LVL221:
 1386 0000 38B5     		push	{r3, r4, r5, lr}
 1387              		.cfi_def_cfa_offset 16
 1388              		.cfi_offset 3, -16
ARM GAS  C:\Users\brian\AppData\Local\Temp\ccTYhJxe.s 			page 48


 1389              		.cfi_offset 4, -12
 1390              		.cfi_offset 5, -8
 1391              		.cfi_offset 14, -4
 1392 0002 0546     		mov	r5, r0
 1393 0004 0C46     		mov	r4, r1
1091:..\u8g2\csrc/u8g2_font.c ****   uint16_t e;
1092:..\u8g2\csrc/u8g2_font.c ****   u8x8_utf8_init(u8g2_GetU8x8(u8g2));
 1394              		.loc 1 1092 0
 1395 0006 FFF7FEFF 		bl	u8x8_utf8_init
 1396              	.LVL222:
 1397              	.L80:
1093:..\u8g2\csrc/u8g2_font.c ****   for(;;)
1094:..\u8g2\csrc/u8g2_font.c ****   {
1095:..\u8g2\csrc/u8g2_font.c ****     e = u8g2->u8x8.next_cb(u8g2_GetU8x8(u8g2), (uint8_t)*str);
 1398              		.loc 1 1095 0
 1399 000a 6B68     		ldr	r3, [r5, #4]
 1400 000c 2178     		ldrb	r1, [r4]	@ zero_extendqisi2
 1401 000e 2846     		mov	r0, r5
 1402 0010 9847     		blx	r3
 1403              	.LVL223:
1096:..\u8g2\csrc/u8g2_font.c ****     if ( e == 0x0ffff )
 1404              		.loc 1 1096 0
 1405 0012 4FF6FF73 		movw	r3, #65535
 1406 0016 9842     		cmp	r0, r3
 1407 0018 0BD0     		beq	.L81
1097:..\u8g2\csrc/u8g2_font.c ****       break;
1098:..\u8g2\csrc/u8g2_font.c ****     str++;
 1408              		.loc 1 1098 0
 1409 001a 0134     		adds	r4, r4, #1
 1410              	.LVL224:
1099:..\u8g2\csrc/u8g2_font.c ****     if ( e != 0x0fffe )
 1411              		.loc 1 1099 0
 1412 001c 4FF6FE73 		movw	r3, #65534
 1413 0020 9842     		cmp	r0, r3
 1414 0022 F2D0     		beq	.L80
1100:..\u8g2\csrc/u8g2_font.c ****     {
1101:..\u8g2\csrc/u8g2_font.c ****       if ( u8g2_font_get_glyph_data(u8g2, e) == NULL )
 1415              		.loc 1 1101 0
 1416 0024 0146     		mov	r1, r0
 1417 0026 2846     		mov	r0, r5
 1418              	.LVL225:
 1419 0028 FFF7FEFF 		bl	u8g2_font_get_glyph_data
 1420              	.LVL226:
 1421 002c 0028     		cmp	r0, #0
 1422 002e ECD1     		bne	.L80
 1423 0030 38BD     		pop	{r3, r4, r5, pc}
 1424              	.LVL227:
 1425              	.L81:
1102:..\u8g2\csrc/u8g2_font.c **** 	return 0;
1103:..\u8g2\csrc/u8g2_font.c ****     }
1104:..\u8g2\csrc/u8g2_font.c ****   }
1105:..\u8g2\csrc/u8g2_font.c ****   return 1;
 1426              		.loc 1 1105 0
 1427 0032 0120     		movs	r0, #1
 1428              	.LVL228:
1106:..\u8g2\csrc/u8g2_font.c **** }
 1429              		.loc 1 1106 0
ARM GAS  C:\Users\brian\AppData\Local\Temp\ccTYhJxe.s 			page 49


 1430 0034 38BD     		pop	{r3, r4, r5, pc}
 1431              		.cfi_endproc
 1432              	.LFE40:
 1433              		.size	u8g2_is_all_valid, .-u8g2_is_all_valid
 1434 0036 00BF     		.section	.text.u8g2_GetGlyphHorizontalProperties,"ax",%progbits
 1435              		.align	2
 1436              		.thumb
 1437              		.thumb_func
 1438              		.type	u8g2_GetGlyphHorizontalProperties, %function
 1439              	u8g2_GetGlyphHorizontalProperties:
 1440              	.LFB43:
1107:..\u8g2\csrc/u8g2_font.c **** 
1108:..\u8g2\csrc/u8g2_font.c **** uint8_t u8g2_IsAllValidUTF8(u8g2_t *u8g2, const char *str)
1109:..\u8g2\csrc/u8g2_font.c **** {
1110:..\u8g2\csrc/u8g2_font.c ****   u8g2->u8x8.next_cb = u8x8_utf8_next;
1111:..\u8g2\csrc/u8g2_font.c ****   return u8g2_is_all_valid(u8g2, str);
1112:..\u8g2\csrc/u8g2_font.c **** }
1113:..\u8g2\csrc/u8g2_font.c **** 
1114:..\u8g2\csrc/u8g2_font.c **** 
1115:..\u8g2\csrc/u8g2_font.c **** /* string calculation is stilll not 100% perfect as it addes the initial string offset to the overa
1116:..\u8g2\csrc/u8g2_font.c **** static u8g2_uint_t u8g2_string_width(u8g2_t *u8g2, const char *str) U8G2_NOINLINE;
1117:..\u8g2\csrc/u8g2_font.c **** static u8g2_uint_t u8g2_string_width(u8g2_t *u8g2, const char *str)
1118:..\u8g2\csrc/u8g2_font.c **** {
1119:..\u8g2\csrc/u8g2_font.c ****   uint16_t e;
1120:..\u8g2\csrc/u8g2_font.c ****   u8g2_uint_t  w, dx;
1121:..\u8g2\csrc/u8g2_font.c **** #ifdef U8G2_BALANCED_STR_WIDTH_CALCULATION
1122:..\u8g2\csrc/u8g2_font.c ****   int8_t initial_x_offset = -64;
1123:..\u8g2\csrc/u8g2_font.c **** #endif 
1124:..\u8g2\csrc/u8g2_font.c ****   
1125:..\u8g2\csrc/u8g2_font.c ****   u8g2->font_decode.glyph_width = 0;
1126:..\u8g2\csrc/u8g2_font.c ****   u8x8_utf8_init(u8g2_GetU8x8(u8g2));
1127:..\u8g2\csrc/u8g2_font.c ****   
1128:..\u8g2\csrc/u8g2_font.c ****   /* reset the total width to zero, this will be expanded during calculation */
1129:..\u8g2\csrc/u8g2_font.c ****   w = 0;
1130:..\u8g2\csrc/u8g2_font.c ****   dx = 0;
1131:..\u8g2\csrc/u8g2_font.c **** 
1132:..\u8g2\csrc/u8g2_font.c ****   // printf("str=<%s>\n", str);
1133:..\u8g2\csrc/u8g2_font.c **** 	
1134:..\u8g2\csrc/u8g2_font.c ****   for(;;)
1135:..\u8g2\csrc/u8g2_font.c ****   {
1136:..\u8g2\csrc/u8g2_font.c ****     e = u8g2->u8x8.next_cb(u8g2_GetU8x8(u8g2), (uint8_t)*str);
1137:..\u8g2\csrc/u8g2_font.c ****     if ( e == 0x0ffff )
1138:..\u8g2\csrc/u8g2_font.c ****       break;
1139:..\u8g2\csrc/u8g2_font.c ****     str++;
1140:..\u8g2\csrc/u8g2_font.c ****     if ( e != 0x0fffe )
1141:..\u8g2\csrc/u8g2_font.c ****     {
1142:..\u8g2\csrc/u8g2_font.c ****       dx = u8g2_GetGlyphWidth(u8g2, e);		/* delta x value of the glyph */
1143:..\u8g2\csrc/u8g2_font.c **** #ifdef U8G2_BALANCED_STR_WIDTH_CALCULATION
1144:..\u8g2\csrc/u8g2_font.c ****       if ( initial_x_offset == -64 )
1145:..\u8g2\csrc/u8g2_font.c ****         initial_x_offset = u8g2->glyph_x_offset;
1146:..\u8g2\csrc/u8g2_font.c **** #endif 
1147:..\u8g2\csrc/u8g2_font.c ****       //printf("'%c' x=%d dx=%d w=%d io=%d ", e, u8g2->glyph_x_offset, dx, u8g2->font_decode.glyph_
1148:..\u8g2\csrc/u8g2_font.c ****       w += dx;
1149:..\u8g2\csrc/u8g2_font.c ****     }
1150:..\u8g2\csrc/u8g2_font.c ****   }
1151:..\u8g2\csrc/u8g2_font.c ****   //printf("\n");
1152:..\u8g2\csrc/u8g2_font.c ****   
ARM GAS  C:\Users\brian\AppData\Local\Temp\ccTYhJxe.s 			page 50


1153:..\u8g2\csrc/u8g2_font.c ****   /* adjust the last glyph, check for issue #16: do not adjust if width is 0 */
1154:..\u8g2\csrc/u8g2_font.c ****   if ( u8g2->font_decode.glyph_width != 0 )
1155:..\u8g2\csrc/u8g2_font.c ****   {
1156:..\u8g2\csrc/u8g2_font.c ****     //printf("string width adjust dx=%d glyph_width=%d x-offset=%d\n", dx, u8g2->font_decode.glyph_
1157:..\u8g2\csrc/u8g2_font.c ****     w -= dx;
1158:..\u8g2\csrc/u8g2_font.c ****     w += u8g2->font_decode.glyph_width;  /* the real pixel width of the glyph, sideeffect of GetGly
1159:..\u8g2\csrc/u8g2_font.c ****     /* issue #46: we have to add the x offset also */
1160:..\u8g2\csrc/u8g2_font.c ****     w += u8g2->glyph_x_offset;	/* this value is set as a side effect of u8g2_GetGlyphWidth() */
1161:..\u8g2\csrc/u8g2_font.c **** #ifdef U8G2_BALANCED_STR_WIDTH_CALCULATION
1162:..\u8g2\csrc/u8g2_font.c ****     /* https://github.com/olikraus/u8g2/issues/1561 */
1163:..\u8g2\csrc/u8g2_font.c ****     if ( initial_x_offset > 0 )
1164:..\u8g2\csrc/u8g2_font.c ****       w+=initial_x_offset;
1165:..\u8g2\csrc/u8g2_font.c **** #endif 
1166:..\u8g2\csrc/u8g2_font.c ****   }
1167:..\u8g2\csrc/u8g2_font.c ****   // printf("w=%d \n", w);
1168:..\u8g2\csrc/u8g2_font.c ****   
1169:..\u8g2\csrc/u8g2_font.c ****   return w;  
1170:..\u8g2\csrc/u8g2_font.c **** }
1171:..\u8g2\csrc/u8g2_font.c **** 
1172:..\u8g2\csrc/u8g2_font.c **** static void u8g2_GetGlyphHorizontalProperties(u8g2_t *u8g2, uint16_t requested_encoding, uint8_t *w
1173:..\u8g2\csrc/u8g2_font.c **** {
 1441              		.loc 1 1173 0
 1442              		.cfi_startproc
 1443              		@ args = 4, pretend = 0, frame = 0
 1444              		@ frame_needed = 0, uses_anonymous_args = 0
 1445              	.LVL229:
 1446 0000 70B5     		push	{r4, r5, r6, lr}
 1447              		.cfi_def_cfa_offset 16
 1448              		.cfi_offset 4, -16
 1449              		.cfi_offset 5, -12
 1450              		.cfi_offset 6, -8
 1451              		.cfi_offset 14, -4
 1452 0002 0446     		mov	r4, r0
 1453 0004 1546     		mov	r5, r2
 1454 0006 1E46     		mov	r6, r3
1174:..\u8g2\csrc/u8g2_font.c ****   const uint8_t *glyph_data = u8g2_font_get_glyph_data(u8g2, requested_encoding);
 1455              		.loc 1 1174 0
 1456 0008 FFF7FEFF 		bl	u8g2_font_get_glyph_data
 1457              	.LVL230:
1175:..\u8g2\csrc/u8g2_font.c ****   if ( glyph_data == NULL )
 1458              		.loc 1 1175 0
 1459 000c D0B1     		cbz	r0, .L83
 1460 000e 0146     		mov	r1, r0
1176:..\u8g2\csrc/u8g2_font.c ****     return; 
1177:..\u8g2\csrc/u8g2_font.c ****   
1178:..\u8g2\csrc/u8g2_font.c ****   u8g2_font_setup_decode(u8g2, glyph_data);
 1461              		.loc 1 1178 0
 1462 0010 2046     		mov	r0, r4
 1463              	.LVL231:
 1464 0012 FFF7FEFF 		bl	u8g2_font_setup_decode
 1465              	.LVL232:
1179:..\u8g2\csrc/u8g2_font.c ****   *w = u8g2->font_decode.glyph_width;
 1466              		.loc 1 1179 0
 1467 0016 94F96A30 		ldrsb	r3, [r4, #106]
 1468 001a 2B70     		strb	r3, [r5]
1180:..\u8g2\csrc/u8g2_font.c ****   *ox =  u8g2_font_decode_get_signed_bits(&(u8g2->font_decode), u8g2->font_info.bits_per_char_x);
 1469              		.loc 1 1180 0
ARM GAS  C:\Users\brian\AppData\Local\Temp\ccTYhJxe.s 			page 51


 1470 001c 04F16005 		add	r5, r4, #96
 1471              	.LVL233:
 1472 0020 94F87A10 		ldrb	r1, [r4, #122]	@ zero_extendqisi2
 1473 0024 2846     		mov	r0, r5
 1474 0026 FFF7FEFF 		bl	u8g2_font_decode_get_signed_bits
 1475              	.LVL234:
 1476 002a 3070     		strb	r0, [r6]
1181:..\u8g2\csrc/u8g2_font.c ****   u8g2_font_decode_get_signed_bits(&(u8g2->font_decode), u8g2->font_info.bits_per_char_y);
 1477              		.loc 1 1181 0
 1478 002c 94F87B10 		ldrb	r1, [r4, #123]	@ zero_extendqisi2
 1479 0030 2846     		mov	r0, r5
 1480 0032 FFF7FEFF 		bl	u8g2_font_decode_get_signed_bits
 1481              	.LVL235:
1182:..\u8g2\csrc/u8g2_font.c ****   *dx = u8g2_font_decode_get_signed_bits(&(u8g2->font_decode), u8g2->font_info.bits_per_delta_x);
 1482              		.loc 1 1182 0
 1483 0036 94F87C10 		ldrb	r1, [r4, #124]	@ zero_extendqisi2
 1484 003a 2846     		mov	r0, r5
 1485 003c FFF7FEFF 		bl	u8g2_font_decode_get_signed_bits
 1486              	.LVL236:
 1487 0040 049B     		ldr	r3, [sp, #16]
 1488 0042 1870     		strb	r0, [r3]
 1489              	.L83:
 1490 0044 70BD     		pop	{r4, r5, r6, pc}
 1491              		.cfi_endproc
 1492              	.LFE43:
 1493              		.size	u8g2_GetGlyphHorizontalProperties, .-u8g2_GetGlyphHorizontalProperties
 1494 0046 00BF     		.section	.text.u8g2_IsGlyph,"ax",%progbits
 1495              		.align	2
 1496              		.global	u8g2_IsGlyph
 1497              		.thumb
 1498              		.thumb_func
 1499              		.type	u8g2_IsGlyph, %function
 1500              	u8g2_IsGlyph:
 1501              	.LFB18:
 732:..\u8g2\csrc/u8g2_font.c ****   /* updated to new code */
 1502              		.loc 1 732 0
 1503              		.cfi_startproc
 1504              		@ args = 0, pretend = 0, frame = 0
 1505              		@ frame_needed = 0, uses_anonymous_args = 0
 1506              	.LVL237:
 1507 0000 08B5     		push	{r3, lr}
 1508              		.cfi_def_cfa_offset 8
 1509              		.cfi_offset 3, -8
 1510              		.cfi_offset 14, -4
 734:..\u8g2\csrc/u8g2_font.c ****     return 1;
 1511              		.loc 1 734 0
 1512 0002 FFF7FEFF 		bl	u8g2_font_get_glyph_data
 1513              	.LVL238:
 1514 0006 08B1     		cbz	r0, .L88
 735:..\u8g2\csrc/u8g2_font.c ****   return 0;
 1515              		.loc 1 735 0
 1516 0008 0120     		movs	r0, #1
 1517 000a 08BD     		pop	{r3, pc}
 1518              	.L88:
 736:..\u8g2\csrc/u8g2_font.c **** }
 1519              		.loc 1 736 0
 1520 000c 0020     		movs	r0, #0
ARM GAS  C:\Users\brian\AppData\Local\Temp\ccTYhJxe.s 			page 52


 737:..\u8g2\csrc/u8g2_font.c **** 
 1521              		.loc 1 737 0
 1522 000e 08BD     		pop	{r3, pc}
 1523              		.cfi_endproc
 1524              	.LFE18:
 1525              		.size	u8g2_IsGlyph, .-u8g2_IsGlyph
 1526              		.section	.text.u8g2_GetGlyphWidth,"ax",%progbits
 1527              		.align	2
 1528              		.global	u8g2_GetGlyphWidth
 1529              		.thumb
 1530              		.thumb_func
 1531              		.type	u8g2_GetGlyphWidth, %function
 1532              	u8g2_GetGlyphWidth:
 1533              	.LFB19:
 741:..\u8g2\csrc/u8g2_font.c ****   const uint8_t *glyph_data = u8g2_font_get_glyph_data(u8g2, requested_encoding);
 1534              		.loc 1 741 0
 1535              		.cfi_startproc
 1536              		@ args = 0, pretend = 0, frame = 0
 1537              		@ frame_needed = 0, uses_anonymous_args = 0
 1538              	.LVL239:
 1539 0000 38B5     		push	{r3, r4, r5, lr}
 1540              		.cfi_def_cfa_offset 16
 1541              		.cfi_offset 3, -16
 1542              		.cfi_offset 4, -12
 1543              		.cfi_offset 5, -8
 1544              		.cfi_offset 14, -4
 1545 0002 0446     		mov	r4, r0
 742:..\u8g2\csrc/u8g2_font.c ****   if ( glyph_data == NULL )
 1546              		.loc 1 742 0
 1547 0004 FFF7FEFF 		bl	u8g2_font_get_glyph_data
 1548              	.LVL240:
 743:..\u8g2\csrc/u8g2_font.c ****     return 0; 
 1549              		.loc 1 743 0
 1550 0008 B8B1     		cbz	r0, .L92
 1551 000a 0146     		mov	r1, r0
 746:..\u8g2\csrc/u8g2_font.c ****   u8g2->glyph_x_offset = u8g2_font_decode_get_signed_bits(&(u8g2->font_decode), u8g2->font_info.bit
 1552              		.loc 1 746 0
 1553 000c 2046     		mov	r0, r4
 1554              	.LVL241:
 1555 000e FFF7FEFF 		bl	u8g2_font_setup_decode
 1556              	.LVL242:
 747:..\u8g2\csrc/u8g2_font.c ****   u8g2_font_decode_get_signed_bits(&(u8g2->font_decode), u8g2->font_info.bits_per_char_y);
 1557              		.loc 1 747 0
 1558 0012 04F16005 		add	r5, r4, #96
 1559 0016 94F87A10 		ldrb	r1, [r4, #122]	@ zero_extendqisi2
 1560 001a 2846     		mov	r0, r5
 1561 001c FFF7FEFF 		bl	u8g2_font_decode_get_signed_bits
 1562              	.LVL243:
 1563 0020 84F89000 		strb	r0, [r4, #144]
 748:..\u8g2\csrc/u8g2_font.c ****   
 1564              		.loc 1 748 0
 1565 0024 94F87B10 		ldrb	r1, [r4, #123]	@ zero_extendqisi2
 1566 0028 2846     		mov	r0, r5
 1567 002a FFF7FEFF 		bl	u8g2_font_decode_get_signed_bits
 1568              	.LVL244:
 752:..\u8g2\csrc/u8g2_font.c **** }
 1569              		.loc 1 752 0
ARM GAS  C:\Users\brian\AppData\Local\Temp\ccTYhJxe.s 			page 53


 1570 002e 94F87C10 		ldrb	r1, [r4, #124]	@ zero_extendqisi2
 1571 0032 2846     		mov	r0, r5
 1572 0034 FFF7FEFF 		bl	u8g2_font_decode_get_signed_bits
 1573              	.LVL245:
 1574 0038 38BD     		pop	{r3, r4, r5, pc}
 1575              	.LVL246:
 1576              	.L92:
 744:..\u8g2\csrc/u8g2_font.c ****   
 1577              		.loc 1 744 0
 1578 003a 0020     		movs	r0, #0
 1579              	.LVL247:
 753:..\u8g2\csrc/u8g2_font.c **** 
 1580              		.loc 1 753 0
 1581 003c 38BD     		pop	{r3, r4, r5, pc}
 1582              		.cfi_endproc
 1583              	.LFE19:
 1584              		.size	u8g2_GetGlyphWidth, .-u8g2_GetGlyphWidth
 1585 003e 00BF     		.section	.text.u8g2_string_width,"ax",%progbits
 1586              		.align	2
 1587              		.thumb
 1588              		.thumb_func
 1589              		.type	u8g2_string_width, %function
 1590              	u8g2_string_width:
 1591              	.LFB42:
1118:..\u8g2\csrc/u8g2_font.c ****   uint16_t e;
 1592              		.loc 1 1118 0
 1593              		.cfi_startproc
 1594              		@ args = 0, pretend = 0, frame = 0
 1595              		@ frame_needed = 0, uses_anonymous_args = 0
 1596              	.LVL248:
 1597 0000 2DE9F041 		push	{r4, r5, r6, r7, r8, lr}
 1598              		.cfi_def_cfa_offset 24
 1599              		.cfi_offset 4, -24
 1600              		.cfi_offset 5, -20
 1601              		.cfi_offset 6, -16
 1602              		.cfi_offset 7, -12
 1603              		.cfi_offset 8, -8
 1604              		.cfi_offset 14, -4
 1605 0004 0446     		mov	r4, r0
 1606 0006 0D46     		mov	r5, r1
 1607              	.LVL249:
1125:..\u8g2\csrc/u8g2_font.c ****   u8x8_utf8_init(u8g2_GetU8x8(u8g2));
 1608              		.loc 1 1125 0
 1609 0008 0026     		movs	r6, #0
 1610 000a 80F86A60 		strb	r6, [r0, #106]
1126:..\u8g2\csrc/u8g2_font.c ****   
 1611              		.loc 1 1126 0
 1612 000e FFF7FEFF 		bl	u8x8_utf8_init
 1613              	.LVL250:
1122:..\u8g2\csrc/u8g2_font.c **** #endif 
 1614              		.loc 1 1122 0
 1615 0012 6FF03F08 		mvn	r8, #63
1130:..\u8g2\csrc/u8g2_font.c **** 
 1616              		.loc 1 1130 0
 1617 0016 3746     		mov	r7, r6
 1618              	.LVL251:
 1619              	.L95:
ARM GAS  C:\Users\brian\AppData\Local\Temp\ccTYhJxe.s 			page 54


1136:..\u8g2\csrc/u8g2_font.c ****     if ( e == 0x0ffff )
 1620              		.loc 1 1136 0
 1621 0018 6368     		ldr	r3, [r4, #4]
 1622 001a 2978     		ldrb	r1, [r5]	@ zero_extendqisi2
 1623 001c 2046     		mov	r0, r4
 1624 001e 9847     		blx	r3
 1625              	.LVL252:
1137:..\u8g2\csrc/u8g2_font.c ****       break;
 1626              		.loc 1 1137 0
 1627 0020 4FF6FF73 		movw	r3, #65535
 1628 0024 9842     		cmp	r0, r3
 1629 0026 11D0     		beq	.L96
1139:..\u8g2\csrc/u8g2_font.c ****     if ( e != 0x0fffe )
 1630              		.loc 1 1139 0
 1631 0028 0135     		adds	r5, r5, #1
 1632              	.LVL253:
1140:..\u8g2\csrc/u8g2_font.c ****     {
 1633              		.loc 1 1140 0
 1634 002a 4FF6FE73 		movw	r3, #65534
 1635 002e 9842     		cmp	r0, r3
 1636 0030 F2D0     		beq	.L95
1142:..\u8g2\csrc/u8g2_font.c **** #ifdef U8G2_BALANCED_STR_WIDTH_CALCULATION
 1637              		.loc 1 1142 0
 1638 0032 0146     		mov	r1, r0
 1639 0034 2046     		mov	r0, r4
 1640              	.LVL254:
 1641 0036 FFF7FEFF 		bl	u8g2_GetGlyphWidth
 1642              	.LVL255:
 1643 003a 87B2     		uxth	r7, r0
 1644              	.LVL256:
1144:..\u8g2\csrc/u8g2_font.c ****         initial_x_offset = u8g2->glyph_x_offset;
 1645              		.loc 1 1144 0
 1646 003c 18F1400F 		cmn	r8, #64
 1647 0040 01D1     		bne	.L98
1145:..\u8g2\csrc/u8g2_font.c **** #endif 
 1648              		.loc 1 1145 0
 1649 0042 94F99080 		ldrsb	r8, [r4, #144]
 1650              	.LVL257:
 1651              	.L98:
1148:..\u8g2\csrc/u8g2_font.c ****     }
 1652              		.loc 1 1148 0
 1653 0046 3E44     		add	r6, r6, r7
 1654              	.LVL258:
 1655 0048 B6B2     		uxth	r6, r6
 1656              	.LVL259:
 1657 004a E5E7     		b	.L95
 1658              	.LVL260:
 1659              	.L96:
1154:..\u8g2\csrc/u8g2_font.c ****   {
 1660              		.loc 1 1154 0
 1661 004c 94F96A30 		ldrsb	r3, [r4, #106]
 1662 0050 63B1     		cbz	r3, .L99
1157:..\u8g2\csrc/u8g2_font.c ****     w += u8g2->font_decode.glyph_width;  /* the real pixel width of the glyph, sideeffect of GetGly
 1663              		.loc 1 1157 0
 1664 0052 F61B     		subs	r6, r6, r7
 1665              	.LVL261:
 1666 0054 B6B2     		uxth	r6, r6
ARM GAS  C:\Users\brian\AppData\Local\Temp\ccTYhJxe.s 			page 55


 1667              	.LVL262:
1158:..\u8g2\csrc/u8g2_font.c ****     /* issue #46: we have to add the x offset also */
 1668              		.loc 1 1158 0
 1669 0056 3344     		add	r3, r3, r6
 1670 0058 9BB2     		uxth	r3, r3
 1671              	.LVL263:
1160:..\u8g2\csrc/u8g2_font.c **** #ifdef U8G2_BALANCED_STR_WIDTH_CALCULATION
 1672              		.loc 1 1160 0
 1673 005a 94F99060 		ldrsb	r6, [r4, #144]
 1674 005e 1E44     		add	r6, r6, r3
 1675 0060 B6B2     		uxth	r6, r6
 1676              	.LVL264:
1163:..\u8g2\csrc/u8g2_font.c ****       w+=initial_x_offset;
 1677              		.loc 1 1163 0
 1678 0062 B8F1000F 		cmp	r8, #0
 1679 0066 01DD     		ble	.L99
1164:..\u8g2\csrc/u8g2_font.c **** #endif 
 1680              		.loc 1 1164 0
 1681 0068 4644     		add	r6, r6, r8
 1682              	.LVL265:
 1683 006a B6B2     		uxth	r6, r6
 1684              	.LVL266:
 1685              	.L99:
1170:..\u8g2\csrc/u8g2_font.c **** 
 1686              		.loc 1 1170 0
 1687 006c 3046     		mov	r0, r6
 1688              	.LVL267:
 1689 006e BDE8F081 		pop	{r4, r5, r6, r7, r8, pc}
 1690              		.cfi_endproc
 1691              	.LFE42:
 1692              		.size	u8g2_string_width, .-u8g2_string_width
 1693 0072 00BF     		.section	.text.u8g2_SetFontMode,"ax",%progbits
 1694              		.align	2
 1695              		.global	u8g2_SetFontMode
 1696              		.thumb
 1697              		.thumb_func
 1698              		.type	u8g2_SetFontMode, %function
 1699              	u8g2_SetFontMode:
 1700              	.LFB20:
 764:..\u8g2\csrc/u8g2_font.c ****   u8g2->font_decode.is_transparent = is_transparent;		// new font procedures
 1701              		.loc 1 764 0
 1702              		.cfi_startproc
 1703              		@ args = 0, pretend = 0, frame = 0
 1704              		@ frame_needed = 0, uses_anonymous_args = 0
 1705              		@ link register save eliminated.
 1706              	.LVL268:
 765:..\u8g2\csrc/u8g2_font.c **** }
 1707              		.loc 1 765 0
 1708 0000 80F86D10 		strb	r1, [r0, #109]
 1709 0004 7047     		bx	lr
 1710              		.cfi_endproc
 1711              	.LFE20:
 1712              		.size	u8g2_SetFontMode, .-u8g2_SetFontMode
 1713 0006 00BF     		.section	.text.u8g2_DrawGlyph,"ax",%progbits
 1714              		.align	2
 1715              		.global	u8g2_DrawGlyph
 1716              		.thumb
ARM GAS  C:\Users\brian\AppData\Local\Temp\ccTYhJxe.s 			page 56


 1717              		.thumb_func
 1718              		.type	u8g2_DrawGlyph, %function
 1719              	u8g2_DrawGlyph:
 1720              	.LFB21:
 769:..\u8g2\csrc/u8g2_font.c **** #ifdef U8G2_WITH_FONT_ROTATION
 1721              		.loc 1 769 0
 1722              		.cfi_startproc
 1723              		@ args = 0, pretend = 0, frame = 0
 1724              		@ frame_needed = 0, uses_anonymous_args = 0
 1725              	.LVL269:
 1726 0000 F8B5     		push	{r3, r4, r5, r6, r7, lr}
 1727              		.cfi_def_cfa_offset 24
 1728              		.cfi_offset 3, -24
 1729              		.cfi_offset 4, -20
 1730              		.cfi_offset 5, -16
 1731              		.cfi_offset 6, -12
 1732              		.cfi_offset 7, -8
 1733              		.cfi_offset 14, -4
 1734 0002 0446     		mov	r4, r0
 1735 0004 0D46     		mov	r5, r1
 1736 0006 1646     		mov	r6, r2
 1737 0008 1F46     		mov	r7, r3
 771:..\u8g2\csrc/u8g2_font.c ****   {
 1738              		.loc 1 771 0
 1739 000a 90F87030 		ldrb	r3, [r0, #112]	@ zero_extendqisi2
 1740              	.LVL270:
 1741 000e 032B     		cmp	r3, #3
 1742 0010 16D8     		bhi	.L103
 1743 0012 DFE803F0 		tbb	[pc, r3]
 1744              	.LVL271:
 1745              	.L105:
 1746 0016 02       		.byte	(.L104-.L105)/2
 1747 0017 07       		.byte	(.L106-.L105)/2
 1748 0018 0C       		.byte	(.L107-.L105)/2
 1749 0019 11       		.byte	(.L108-.L105)/2
 1750              		.p2align 1
 1751              	.L104:
 774:..\u8g2\csrc/u8g2_font.c ****       break;
 1752              		.loc 1 774 0
 1753 001a C36D     		ldr	r3, [r0, #92]
 1754 001c 9847     		blx	r3
 1755              	.LVL272:
 1756 001e 3044     		add	r0, r0, r6
 1757 0020 86B2     		uxth	r6, r0
 1758              	.LVL273:
 775:..\u8g2\csrc/u8g2_font.c ****     case 1:
 1759              		.loc 1 775 0
 1760 0022 0DE0     		b	.L103
 1761              	.LVL274:
 1762              	.L106:
 777:..\u8g2\csrc/u8g2_font.c ****       break;
 1763              		.loc 1 777 0
 1764 0024 C36D     		ldr	r3, [r0, #92]
 1765 0026 9847     		blx	r3
 1766              	.LVL275:
 1767 0028 281A     		subs	r0, r5, r0
 1768 002a 85B2     		uxth	r5, r0
ARM GAS  C:\Users\brian\AppData\Local\Temp\ccTYhJxe.s 			page 57


 1769              	.LVL276:
 778:..\u8g2\csrc/u8g2_font.c ****     case 2:
 1770              		.loc 1 778 0
 1771 002c 08E0     		b	.L103
 1772              	.LVL277:
 1773              	.L107:
 780:..\u8g2\csrc/u8g2_font.c ****       break;
 1774              		.loc 1 780 0
 1775 002e C36D     		ldr	r3, [r0, #92]
 1776 0030 9847     		blx	r3
 1777              	.LVL278:
 1778 0032 301A     		subs	r0, r6, r0
 1779 0034 86B2     		uxth	r6, r0
 1780              	.LVL279:
 781:..\u8g2\csrc/u8g2_font.c ****     case 3:
 1781              		.loc 1 781 0
 1782 0036 03E0     		b	.L103
 1783              	.LVL280:
 1784              	.L108:
 783:..\u8g2\csrc/u8g2_font.c ****       break;
 1785              		.loc 1 783 0
 1786 0038 C36D     		ldr	r3, [r0, #92]
 1787 003a 9847     		blx	r3
 1788              	.LVL281:
 1789 003c 2844     		add	r0, r0, r5
 1790 003e 85B2     		uxth	r5, r0
 1791              	.LVL282:
 1792              	.L103:
 789:..\u8g2\csrc/u8g2_font.c **** }
 1793              		.loc 1 789 0
 1794 0040 3B46     		mov	r3, r7
 1795 0042 3246     		mov	r2, r6
 1796 0044 2946     		mov	r1, r5
 1797 0046 2046     		mov	r0, r4
 1798 0048 FFF7FEFF 		bl	u8g2_font_draw_glyph
 1799              	.LVL283:
 790:..\u8g2\csrc/u8g2_font.c **** 
 1800              		.loc 1 790 0
 1801 004c F8BD     		pop	{r3, r4, r5, r6, r7, pc}
 1802              		.cfi_endproc
 1803              	.LFE21:
 1804              		.size	u8g2_DrawGlyph, .-u8g2_DrawGlyph
 1805 004e 00BF     		.section	.text.u8g2_draw_string,"ax",%progbits
 1806              		.align	2
 1807              		.thumb
 1808              		.thumb_func
 1809              		.type	u8g2_draw_string, %function
 1810              	u8g2_draw_string:
 1811              	.LFB22:
 794:..\u8g2\csrc/u8g2_font.c ****   uint16_t e;
 1812              		.loc 1 794 0
 1813              		.cfi_startproc
 1814              		@ args = 0, pretend = 0, frame = 0
 1815              		@ frame_needed = 0, uses_anonymous_args = 0
 1816              	.LVL284:
 1817 0000 2DE9F041 		push	{r4, r5, r6, r7, r8, lr}
 1818              		.cfi_def_cfa_offset 24
ARM GAS  C:\Users\brian\AppData\Local\Temp\ccTYhJxe.s 			page 58


 1819              		.cfi_offset 4, -24
 1820              		.cfi_offset 5, -20
 1821              		.cfi_offset 6, -16
 1822              		.cfi_offset 7, -12
 1823              		.cfi_offset 8, -8
 1824              		.cfi_offset 14, -4
 1825 0004 0446     		mov	r4, r0
 1826 0006 0F46     		mov	r7, r1
 1827 0008 1646     		mov	r6, r2
 1828 000a 1D46     		mov	r5, r3
 797:..\u8g2\csrc/u8g2_font.c ****   sum = 0;
 1829              		.loc 1 797 0
 1830 000c FFF7FEFF 		bl	u8x8_utf8_init
 1831              	.LVL285:
 798:..\u8g2\csrc/u8g2_font.c ****   for(;;)
 1832              		.loc 1 798 0
 1833 0010 4FF00008 		mov	r8, #0
 1834              	.LVL286:
 1835              	.L111:
 801:..\u8g2\csrc/u8g2_font.c ****     if ( e == 0x0ffff )
 1836              		.loc 1 801 0
 1837 0014 6368     		ldr	r3, [r4, #4]
 1838 0016 2978     		ldrb	r1, [r5]	@ zero_extendqisi2
 1839 0018 2046     		mov	r0, r4
 1840 001a 9847     		blx	r3
 1841              	.LVL287:
 802:..\u8g2\csrc/u8g2_font.c ****       break;
 1842              		.loc 1 802 0
 1843 001c 4FF6FF73 		movw	r3, #65535
 1844 0020 9842     		cmp	r0, r3
 1845 0022 21D0     		beq	.L112
 804:..\u8g2\csrc/u8g2_font.c ****     if ( e != 0x0fffe )
 1846              		.loc 1 804 0
 1847 0024 0135     		adds	r5, r5, #1
 1848              	.LVL288:
 805:..\u8g2\csrc/u8g2_font.c ****     {
 1849              		.loc 1 805 0
 1850 0026 4FF6FE73 		movw	r3, #65534
 1851 002a 9842     		cmp	r0, r3
 1852 002c F2D0     		beq	.L111
 807:..\u8g2\csrc/u8g2_font.c ****     
 1853              		.loc 1 807 0
 1854 002e 0346     		mov	r3, r0
 1855 0030 3246     		mov	r2, r6
 1856 0032 3946     		mov	r1, r7
 1857 0034 2046     		mov	r0, r4
 1858              	.LVL289:
 1859 0036 FFF7FEFF 		bl	u8g2_DrawGlyph
 1860              	.LVL290:
 810:..\u8g2\csrc/u8g2_font.c ****       {
 1861              		.loc 1 810 0
 1862 003a 94F87030 		ldrb	r3, [r4, #112]	@ zero_extendqisi2
 1863 003e 032B     		cmp	r3, #3
 1864 0040 0ED8     		bhi	.L114
 1865 0042 DFE803F0 		tbb	[pc, r3]
 1866              	.L116:
 1867 0046 02       		.byte	(.L115-.L116)/2
ARM GAS  C:\Users\brian\AppData\Local\Temp\ccTYhJxe.s 			page 59


 1868 0047 05       		.byte	(.L117-.L116)/2
 1869 0048 08       		.byte	(.L118-.L116)/2
 1870 0049 0B       		.byte	(.L119-.L116)/2
 1871              		.p2align 1
 1872              	.L115:
 813:..\u8g2\csrc/u8g2_font.c **** 	  break;
 1873              		.loc 1 813 0
 1874 004a 0744     		add	r7, r7, r0
 1875              	.LVL291:
 1876 004c BFB2     		uxth	r7, r7
 1877              	.LVL292:
 814:..\u8g2\csrc/u8g2_font.c **** 	case 1:
 1878              		.loc 1 814 0
 1879 004e 07E0     		b	.L114
 1880              	.L117:
 816:..\u8g2\csrc/u8g2_font.c **** 	  break;
 1881              		.loc 1 816 0
 1882 0050 0644     		add	r6, r6, r0
 1883              	.LVL293:
 1884 0052 B6B2     		uxth	r6, r6
 1885              	.LVL294:
 817:..\u8g2\csrc/u8g2_font.c **** 	case 2:
 1886              		.loc 1 817 0
 1887 0054 04E0     		b	.L114
 1888              	.L118:
 819:..\u8g2\csrc/u8g2_font.c **** 	  break;
 1889              		.loc 1 819 0
 1890 0056 3F1A     		subs	r7, r7, r0
 1891              	.LVL295:
 1892 0058 BFB2     		uxth	r7, r7
 1893              	.LVL296:
 820:..\u8g2\csrc/u8g2_font.c **** 	case 3:
 1894              		.loc 1 820 0
 1895 005a 01E0     		b	.L114
 1896              	.L119:
 822:..\u8g2\csrc/u8g2_font.c **** 	  break;
 1897              		.loc 1 822 0
 1898 005c 361A     		subs	r6, r6, r0
 1899              	.LVL297:
 1900 005e B6B2     		uxth	r6, r6
 1901              	.LVL298:
 1902              	.L114:
 836:..\u8g2\csrc/u8g2_font.c ****     }
 1903              		.loc 1 836 0
 1904 0060 4044     		add	r0, r0, r8
 1905              	.LVL299:
 1906 0062 1FFA80F8 		uxth	r8, r0
 1907              	.LVL300:
 1908 0066 D5E7     		b	.L111
 1909              	.LVL301:
 1910              	.L112:
 840:..\u8g2\csrc/u8g2_font.c **** 
 1911              		.loc 1 840 0
 1912 0068 4046     		mov	r0, r8
 1913              	.LVL302:
 1914 006a BDE8F081 		pop	{r4, r5, r6, r7, r8, pc}
 1915              		.cfi_endproc
ARM GAS  C:\Users\brian\AppData\Local\Temp\ccTYhJxe.s 			page 60


 1916              	.LFE22:
 1917              		.size	u8g2_draw_string, .-u8g2_draw_string
 1918 006e 00BF     		.section	.text.u8g2_DrawStr,"ax",%progbits
 1919              		.align	2
 1920              		.global	u8g2_DrawStr
 1921              		.thumb
 1922              		.thumb_func
 1923              		.type	u8g2_DrawStr, %function
 1924              	u8g2_DrawStr:
 1925              	.LFB23:
 843:..\u8g2\csrc/u8g2_font.c ****   u8g2->u8x8.next_cb = u8x8_ascii_next;
 1926              		.loc 1 843 0
 1927              		.cfi_startproc
 1928              		@ args = 0, pretend = 0, frame = 0
 1929              		@ frame_needed = 0, uses_anonymous_args = 0
 1930              	.LVL303:
 1931 0000 10B5     		push	{r4, lr}
 1932              		.cfi_def_cfa_offset 8
 1933              		.cfi_offset 4, -8
 1934              		.cfi_offset 14, -4
 844:..\u8g2\csrc/u8g2_font.c ****   return u8g2_draw_string(u8g2, x, y, str);
 1935              		.loc 1 844 0
 1936 0002 024C     		ldr	r4, .L123
 1937 0004 4460     		str	r4, [r0, #4]
 845:..\u8g2\csrc/u8g2_font.c **** }
 1938              		.loc 1 845 0
 1939 0006 FFF7FEFF 		bl	u8g2_draw_string
 1940              	.LVL304:
 846:..\u8g2\csrc/u8g2_font.c **** 
 1941              		.loc 1 846 0
 1942 000a 10BD     		pop	{r4, pc}
 1943              	.L124:
 1944              		.align	2
 1945              	.L123:
 1946 000c 00000000 		.word	u8x8_ascii_next
 1947              		.cfi_endproc
 1948              	.LFE23:
 1949              		.size	u8g2_DrawStr, .-u8g2_DrawStr
 1950              		.section	.text.u8g2_DrawUTF8,"ax",%progbits
 1951              		.align	2
 1952              		.global	u8g2_DrawUTF8
 1953              		.thumb
 1954              		.thumb_func
 1955              		.type	u8g2_DrawUTF8, %function
 1956              	u8g2_DrawUTF8:
 1957              	.LFB24:
 859:..\u8g2\csrc/u8g2_font.c ****   u8g2->u8x8.next_cb = u8x8_utf8_next;
 1958              		.loc 1 859 0
 1959              		.cfi_startproc
 1960              		@ args = 0, pretend = 0, frame = 0
 1961              		@ frame_needed = 0, uses_anonymous_args = 0
 1962              	.LVL305:
 1963 0000 10B5     		push	{r4, lr}
 1964              		.cfi_def_cfa_offset 8
 1965              		.cfi_offset 4, -8
 1966              		.cfi_offset 14, -4
 860:..\u8g2\csrc/u8g2_font.c ****   return u8g2_draw_string(u8g2, x, y, str);
ARM GAS  C:\Users\brian\AppData\Local\Temp\ccTYhJxe.s 			page 61


 1967              		.loc 1 860 0
 1968 0002 024C     		ldr	r4, .L127
 1969 0004 4460     		str	r4, [r0, #4]
 861:..\u8g2\csrc/u8g2_font.c **** }
 1970              		.loc 1 861 0
 1971 0006 FFF7FEFF 		bl	u8g2_draw_string
 1972              	.LVL306:
 862:..\u8g2\csrc/u8g2_font.c **** 
 1973              		.loc 1 862 0
 1974 000a 10BD     		pop	{r4, pc}
 1975              	.L128:
 1976              		.align	2
 1977              	.L127:
 1978 000c 00000000 		.word	u8x8_utf8_next
 1979              		.cfi_endproc
 1980              	.LFE24:
 1981              		.size	u8g2_DrawUTF8, .-u8g2_DrawUTF8
 1982              		.section	.text.u8g2_DrawExtendedUTF8,"ax",%progbits
 1983              		.align	2
 1984              		.global	u8g2_DrawExtendedUTF8
 1985              		.thumb
 1986              		.thumb_func
 1987              		.type	u8g2_DrawExtendedUTF8, %function
 1988              	u8g2_DrawExtendedUTF8:
 1989              	.LFB25:
 867:..\u8g2\csrc/u8g2_font.c ****   u8g2->u8x8.next_cb = u8x8_utf8_next;
 1990              		.loc 1 867 0
 1991              		.cfi_startproc
 1992              		@ args = 8, pretend = 0, frame = 8
 1993              		@ frame_needed = 0, uses_anonymous_args = 0
 1994              	.LVL307:
 1995 0000 2DE9F04F 		push	{r4, r5, r6, r7, r8, r9, r10, fp, lr}
 1996              		.cfi_def_cfa_offset 36
 1997              		.cfi_offset 4, -36
 1998              		.cfi_offset 5, -32
 1999              		.cfi_offset 6, -28
 2000              		.cfi_offset 7, -24
 2001              		.cfi_offset 8, -20
 2002              		.cfi_offset 9, -16
 2003              		.cfi_offset 10, -12
 2004              		.cfi_offset 11, -8
 2005              		.cfi_offset 14, -4
 2006 0004 83B0     		sub	sp, sp, #12
 2007              		.cfi_def_cfa_offset 48
 2008 0006 8146     		mov	r9, r0
 2009 0008 0F46     		mov	r7, r1
 2010 000a 0192     		str	r2, [sp, #4]
 2011 000c 9B46     		mov	fp, r3
 2012 000e DDF834A0 		ldr	r10, [sp, #52]
 868:..\u8g2\csrc/u8g2_font.c ****   uint16_t e_prev = 0x0ffff;
 2013              		.loc 1 868 0
 2014 0012 274B     		ldr	r3, .L137
 2015              	.LVL308:
 2016 0014 4360     		str	r3, [r0, #4]
 2017              	.LVL309:
 872:..\u8g2\csrc/u8g2_font.c ****   sum = 0;
 2018              		.loc 1 872 0
ARM GAS  C:\Users\brian\AppData\Local\Temp\ccTYhJxe.s 			page 62


 2019 0016 FFF7FEFF 		bl	u8x8_utf8_init
 2020              	.LVL310:
 873:..\u8g2\csrc/u8g2_font.c ****   for(;;)
 2021              		.loc 1 873 0
 2022 001a 0025     		movs	r5, #0
 869:..\u8g2\csrc/u8g2_font.c ****   uint16_t e;
 2023              		.loc 1 869 0
 2024 001c 4FF6FF78 		movw	r8, #65535
 2025              	.LVL311:
 2026              	.L130:
 876:..\u8g2\csrc/u8g2_font.c ****     if ( e == 0x0ffff )
 2027              		.loc 1 876 0
 2028 0020 D9F80430 		ldr	r3, [r9, #4]
 2029 0024 9AF80010 		ldrb	r1, [r10]	@ zero_extendqisi2
 2030 0028 4846     		mov	r0, r9
 2031 002a 9847     		blx	r3
 2032              	.LVL312:
 2033 002c 0446     		mov	r4, r0
 2034              	.LVL313:
 877:..\u8g2\csrc/u8g2_font.c ****       break;
 2035              		.loc 1 877 0
 2036 002e 4FF6FF73 		movw	r3, #65535
 2037 0032 9842     		cmp	r0, r3
 2038 0034 38D0     		beq	.L131
 879:..\u8g2\csrc/u8g2_font.c ****     if ( e != 0x0fffe )
 2039              		.loc 1 879 0
 2040 0036 0AF1010A 		add	r10, r10, #1
 2041              	.LVL314:
 880:..\u8g2\csrc/u8g2_font.c ****     {
 2042              		.loc 1 880 0
 2043 003a 4FF6FE73 		movw	r3, #65534
 2044 003e 9842     		cmp	r0, r3
 2045 0040 EED0     		beq	.L130
 882:..\u8g2\csrc/u8g2_font.c **** 	    
 2046              		.loc 1 882 0
 2047 0042 0146     		mov	r1, r0
 2048 0044 4846     		mov	r0, r9
 2049              	.LVL315:
 2050 0046 FFF7FEFF 		bl	u8g2_GetGlyphWidth
 2051              	.LVL316:
 2052 004a 86B2     		uxth	r6, r0
 2053              	.LVL317:
 884:..\u8g2\csrc/u8g2_font.c ****       {
 2054              		.loc 1 884 0
 2055 004c BBF1000F 		cmp	fp, #0
 2056 0050 0DD0     		beq	.L133
 886:..\u8g2\csrc/u8g2_font.c **** 	delta -= k;
 2057              		.loc 1 886 0
 2058 0052 4346     		mov	r3, r8
 2059 0054 2246     		mov	r2, r4
 2060 0056 0C99     		ldr	r1, [sp, #48]
 2061 0058 4846     		mov	r0, r9
 2062 005a FFF7FEFF 		bl	u8g2_GetKerning
 2063              	.LVL318:
 2064 005e 1FFA80F8 		uxth	r8, r0
 2065              	.LVL319:
 887:..\u8g2\csrc/u8g2_font.c **** 	x -= delta;
ARM GAS  C:\Users\brian\AppData\Local\Temp\ccTYhJxe.s 			page 63


 2066              		.loc 1 887 0
 2067 0062 C8EB0606 		rsb	r6, r8, r6
 2068              	.LVL320:
 2069 0066 B6B2     		uxth	r6, r6
 2070              	.LVL321:
 888:..\u8g2\csrc/u8g2_font.c ****       }
 2071              		.loc 1 888 0
 2072 0068 BF1B     		subs	r7, r7, r6
 2073              	.LVL322:
 2074 006a BFB2     		uxth	r7, r7
 2075              	.LVL323:
 2076 006c 0AE0     		b	.L134
 2077              	.LVL324:
 2078              	.L133:
 892:..\u8g2\csrc/u8g2_font.c **** 	delta -= k;
 2079              		.loc 1 892 0
 2080 006e 2346     		mov	r3, r4
 2081 0070 4246     		mov	r2, r8
 2082 0072 0C99     		ldr	r1, [sp, #48]
 2083 0074 4846     		mov	r0, r9
 2084 0076 FFF7FEFF 		bl	u8g2_GetKerning
 2085              	.LVL325:
 2086 007a 1FFA80F8 		uxth	r8, r0
 2087              	.LVL326:
 893:..\u8g2\csrc/u8g2_font.c ****       }
 2088              		.loc 1 893 0
 2089 007e C8EB0606 		rsb	r6, r8, r6
 2090              	.LVL327:
 2091 0082 B6B2     		uxth	r6, r6
 2092              	.LVL328:
 2093              	.L134:
 897:..\u8g2\csrc/u8g2_font.c ****       if ( to_left )
 2094              		.loc 1 897 0
 2095 0084 2346     		mov	r3, r4
 2096 0086 019A     		ldr	r2, [sp, #4]
 2097 0088 3946     		mov	r1, r7
 2098 008a 4846     		mov	r0, r9
 2099 008c FFF7FEFF 		bl	u8g2_DrawGlyph
 2100              	.LVL329:
 898:..\u8g2\csrc/u8g2_font.c ****       {
 2101              		.loc 1 898 0
 2102 0090 BBF1000F 		cmp	fp, #0
 2103 0094 04D1     		bne	.L135
 903:..\u8g2\csrc/u8g2_font.c **** 	x -= k;
 2104              		.loc 1 903 0
 2105 0096 3744     		add	r7, r7, r6
 2106              	.LVL330:
 2107 0098 BFB2     		uxth	r7, r7
 2108              	.LVL331:
 904:..\u8g2\csrc/u8g2_font.c ****       }
 2109              		.loc 1 904 0
 2110 009a C8EB0707 		rsb	r7, r8, r7
 2111              	.LVL332:
 2112 009e BFB2     		uxth	r7, r7
 2113              	.LVL333:
 2114              	.L135:
 907:..\u8g2\csrc/u8g2_font.c ****     }
ARM GAS  C:\Users\brian\AppData\Local\Temp\ccTYhJxe.s 			page 64


 2115              		.loc 1 907 0
 2116 00a0 3544     		add	r5, r5, r6
 2117              	.LVL334:
 2118 00a2 ADB2     		uxth	r5, r5
 2119              	.LVL335:
 895:..\u8g2\csrc/u8g2_font.c **** 
 2120              		.loc 1 895 0
 2121 00a4 A046     		mov	r8, r4
 2122              	.LVL336:
 2123 00a6 BBE7     		b	.L130
 2124              	.LVL337:
 2125              	.L131:
 911:..\u8g2\csrc/u8g2_font.c **** 
 2126              		.loc 1 911 0
 2127 00a8 2846     		mov	r0, r5
 2128              	.LVL338:
 2129 00aa 03B0     		add	sp, sp, #12
 2130              		.cfi_def_cfa_offset 36
 2131              		@ sp needed
 2132 00ac BDE8F08F 		pop	{r4, r5, r6, r7, r8, r9, r10, fp, pc}
 2133              	.LVL339:
 2134              	.L138:
 2135              		.align	2
 2136              	.L137:
 2137 00b0 00000000 		.word	u8x8_utf8_next
 2138              		.cfi_endproc
 2139              	.LFE25:
 2140              		.size	u8g2_DrawExtendedUTF8, .-u8g2_DrawExtendedUTF8
 2141              		.section	.text.u8g2_DrawExtUTF8,"ax",%progbits
 2142              		.align	2
 2143              		.global	u8g2_DrawExtUTF8
 2144              		.thumb
 2145              		.thumb_func
 2146              		.type	u8g2_DrawExtUTF8, %function
 2147              	u8g2_DrawExtUTF8:
 2148              	.LFB26:
 914:..\u8g2\csrc/u8g2_font.c ****   u8g2->u8x8.next_cb = u8x8_utf8_next;
 2149              		.loc 1 914 0
 2150              		.cfi_startproc
 2151              		@ args = 8, pretend = 0, frame = 8
 2152              		@ frame_needed = 0, uses_anonymous_args = 0
 2153              	.LVL340:
 2154 0000 2DE9F04F 		push	{r4, r5, r6, r7, r8, r9, r10, fp, lr}
 2155              		.cfi_def_cfa_offset 36
 2156              		.cfi_offset 4, -36
 2157              		.cfi_offset 5, -32
 2158              		.cfi_offset 6, -28
 2159              		.cfi_offset 7, -24
 2160              		.cfi_offset 8, -20
 2161              		.cfi_offset 9, -16
 2162              		.cfi_offset 10, -12
 2163              		.cfi_offset 11, -8
 2164              		.cfi_offset 14, -4
 2165 0004 83B0     		sub	sp, sp, #12
 2166              		.cfi_def_cfa_offset 48
 2167 0006 0646     		mov	r6, r0
 2168 0008 8846     		mov	r8, r1
ARM GAS  C:\Users\brian\AppData\Local\Temp\ccTYhJxe.s 			page 65


 2169 000a 0192     		str	r2, [sp, #4]
 2170 000c 9B46     		mov	fp, r3
 2171 000e 0D9F     		ldr	r7, [sp, #52]
 915:..\u8g2\csrc/u8g2_font.c ****   uint16_t e_prev = 0x0ffff;
 2172              		.loc 1 915 0
 2173 0010 244B     		ldr	r3, .L147
 2174              	.LVL341:
 2175 0012 4360     		str	r3, [r0, #4]
 2176              	.LVL342:
 919:..\u8g2\csrc/u8g2_font.c ****   sum = 0;
 2177              		.loc 1 919 0
 2178 0014 FFF7FEFF 		bl	u8x8_utf8_init
 2179              	.LVL343:
 920:..\u8g2\csrc/u8g2_font.c ****   for(;;)
 2180              		.loc 1 920 0
 2181 0018 4FF00009 		mov	r9, #0
 916:..\u8g2\csrc/u8g2_font.c ****   uint16_t e;
 2182              		.loc 1 916 0
 2183 001c 4FF6FF7A 		movw	r10, #65535
 2184              	.LVL344:
 2185              	.L140:
 923:..\u8g2\csrc/u8g2_font.c ****     if ( e == 0x0ffff )
 2186              		.loc 1 923 0
 2187 0020 7368     		ldr	r3, [r6, #4]
 2188 0022 3978     		ldrb	r1, [r7]	@ zero_extendqisi2
 2189 0024 3046     		mov	r0, r6
 2190 0026 9847     		blx	r3
 2191              	.LVL345:
 2192 0028 0446     		mov	r4, r0
 2193              	.LVL346:
 924:..\u8g2\csrc/u8g2_font.c ****       break;
 2194              		.loc 1 924 0
 2195 002a 4FF6FF73 		movw	r3, #65535
 2196 002e 9842     		cmp	r0, r3
 2197 0030 34D0     		beq	.L141
 926:..\u8g2\csrc/u8g2_font.c ****     if ( e != 0x0fffe )
 2198              		.loc 1 926 0
 2199 0032 0137     		adds	r7, r7, #1
 2200              	.LVL347:
 927:..\u8g2\csrc/u8g2_font.c ****     {
 2201              		.loc 1 927 0
 2202 0034 4FF6FE73 		movw	r3, #65534
 2203 0038 9842     		cmp	r0, r3
 2204 003a F1D0     		beq	.L140
 929:..\u8g2\csrc/u8g2_font.c **** 	    
 2205              		.loc 1 929 0
 2206 003c 0146     		mov	r1, r0
 2207 003e 3046     		mov	r0, r6
 2208              	.LVL348:
 2209 0040 FFF7FEFF 		bl	u8g2_GetGlyphWidth
 2210              	.LVL349:
 2211 0044 85B2     		uxth	r5, r0
 2212              	.LVL350:
 931:..\u8g2\csrc/u8g2_font.c ****       {
 2213              		.loc 1 931 0
 2214 0046 BBF1000F 		cmp	fp, #0
 2215 004a 0DD0     		beq	.L143
ARM GAS  C:\Users\brian\AppData\Local\Temp\ccTYhJxe.s 			page 66


 933:..\u8g2\csrc/u8g2_font.c **** 	delta -= k;
 2216              		.loc 1 933 0
 2217 004c 5346     		mov	r3, r10
 2218 004e 2246     		mov	r2, r4
 2219 0050 0C99     		ldr	r1, [sp, #48]
 2220 0052 3046     		mov	r0, r6
 2221 0054 FFF7FEFF 		bl	u8g2_GetKerningByTable
 2222              	.LVL351:
 2223 0058 80B2     		uxth	r0, r0
 2224              	.LVL352:
 934:..\u8g2\csrc/u8g2_font.c **** 	x -= delta;
 2225              		.loc 1 934 0
 2226 005a 2D1A     		subs	r5, r5, r0
 2227              	.LVL353:
 2228 005c ADB2     		uxth	r5, r5
 2229              	.LVL354:
 935:..\u8g2\csrc/u8g2_font.c ****       }
 2230              		.loc 1 935 0
 2231 005e C5EB0808 		rsb	r8, r5, r8
 2232              	.LVL355:
 2233 0062 1FFA88F8 		uxth	r8, r8
 2234              	.LVL356:
 2235 0066 08E0     		b	.L144
 2236              	.LVL357:
 2237              	.L143:
 939:..\u8g2\csrc/u8g2_font.c **** 	delta -= k;
 2238              		.loc 1 939 0
 2239 0068 2346     		mov	r3, r4
 2240 006a 5246     		mov	r2, r10
 2241 006c 0C99     		ldr	r1, [sp, #48]
 2242 006e 3046     		mov	r0, r6
 2243 0070 FFF7FEFF 		bl	u8g2_GetKerningByTable
 2244              	.LVL358:
 2245 0074 80B2     		uxth	r0, r0
 2246              	.LVL359:
 940:..\u8g2\csrc/u8g2_font.c ****       }
 2247              		.loc 1 940 0
 2248 0076 2D1A     		subs	r5, r5, r0
 2249              	.LVL360:
 2250 0078 ADB2     		uxth	r5, r5
 2251              	.LVL361:
 2252              	.L144:
 944:..\u8g2\csrc/u8g2_font.c ****       {
 2253              		.loc 1 944 0
 2254 007a BBF1000F 		cmp	fp, #0
 2255 007e 02D1     		bne	.L145
 949:..\u8g2\csrc/u8g2_font.c ****       }
 2256              		.loc 1 949 0
 2257 0080 A844     		add	r8, r8, r5
 2258              	.LVL362:
 2259 0082 1FFA88F8 		uxth	r8, r8
 2260              	.LVL363:
 2261              	.L145:
 951:..\u8g2\csrc/u8g2_font.c ****       if ( to_left )
 2262              		.loc 1 951 0
 2263 0086 2346     		mov	r3, r4
 2264 0088 019A     		ldr	r2, [sp, #4]
ARM GAS  C:\Users\brian\AppData\Local\Temp\ccTYhJxe.s 			page 67


 2265 008a 4146     		mov	r1, r8
 2266 008c 3046     		mov	r0, r6
 2267              	.LVL364:
 2268 008e FFF7FEFF 		bl	u8g2_DrawGlyph
 2269              	.LVL365:
 961:..\u8g2\csrc/u8g2_font.c ****     }
 2270              		.loc 1 961 0
 2271 0092 A944     		add	r9, r9, r5
 2272              	.LVL366:
 2273 0094 1FFA89F9 		uxth	r9, r9
 2274              	.LVL367:
 942:..\u8g2\csrc/u8g2_font.c **** 
 2275              		.loc 1 942 0
 2276 0098 A246     		mov	r10, r4
 2277 009a C1E7     		b	.L140
 2278              	.LVL368:
 2279              	.L141:
 965:..\u8g2\csrc/u8g2_font.c **** 
 2280              		.loc 1 965 0
 2281 009c 4846     		mov	r0, r9
 2282              	.LVL369:
 2283 009e 03B0     		add	sp, sp, #12
 2284              		.cfi_def_cfa_offset 36
 2285              		@ sp needed
 2286 00a0 BDE8F08F 		pop	{r4, r5, r6, r7, r8, r9, r10, fp, pc}
 2287              	.LVL370:
 2288              	.L148:
 2289              		.align	2
 2290              	.L147:
 2291 00a4 00000000 		.word	u8x8_utf8_next
 2292              		.cfi_endproc
 2293              	.LFE26:
 2294              		.size	u8g2_DrawExtUTF8, .-u8g2_DrawExtUTF8
 2295              		.section	.text.u8g2_UpdateRefHeight,"ax",%progbits
 2296              		.align	2
 2297              		.global	u8g2_UpdateRefHeight
 2298              		.thumb
 2299              		.thumb_func
 2300              		.type	u8g2_UpdateRefHeight, %function
 2301              	u8g2_UpdateRefHeight:
 2302              	.LFB27:
 974:..\u8g2\csrc/u8g2_font.c ****   if ( u8g2->font == NULL )
 2303              		.loc 1 974 0
 2304              		.cfi_startproc
 2305              		@ args = 0, pretend = 0, frame = 0
 2306              		@ frame_needed = 0, uses_anonymous_args = 0
 2307              		@ link register save eliminated.
 2308              	.LVL371:
 975:..\u8g2\csrc/u8g2_font.c ****     return;
 2309              		.loc 1 975 0
 2310 0000 836D     		ldr	r3, [r0, #88]
 2311 0002 43B3     		cbz	r3, .L156
 977:..\u8g2\csrc/u8g2_font.c ****   u8g2->font_ref_descent = u8g2->font_info.descent_g;
 2312              		.loc 1 977 0
 2313 0004 90F98110 		ldrsb	r1, [r0, #129]
 2314 0008 80F88E10 		strb	r1, [r0, #142]
 978:..\u8g2\csrc/u8g2_font.c ****   if ( u8g2->font_height_mode == U8G2_FONT_HEIGHT_MODE_TEXT )
ARM GAS  C:\Users\brian\AppData\Local\Temp\ccTYhJxe.s 			page 68


 2315              		.loc 1 978 0
 2316 000c 90F98220 		ldrsb	r2, [r0, #130]
 2317 0010 80F88F20 		strb	r2, [r0, #143]
 979:..\u8g2\csrc/u8g2_font.c ****   {
 2318              		.loc 1 979 0
 2319 0014 90F88D30 		ldrb	r3, [r0, #141]	@ zero_extendqisi2
 2320 0018 EBB1     		cbz	r3, .L156
 982:..\u8g2\csrc/u8g2_font.c ****   {
 2321              		.loc 1 982 0
 2322 001a 012B     		cmp	r3, #1
 2323 001c 0CD1     		bne	.L151
 984:..\u8g2\csrc/u8g2_font.c ****       u8g2->font_ref_ascent = u8g2->font_info.ascent_para;
 2324              		.loc 1 984 0
 2325 001e 90F98330 		ldrsb	r3, [r0, #131]
 2326 0022 9942     		cmp	r1, r3
 2327 0024 01DA     		bge	.L152
 985:..\u8g2\csrc/u8g2_font.c ****     if ( u8g2->font_ref_descent > u8g2->font_info.descent_para )
 2328              		.loc 1 985 0
 2329 0026 80F88E30 		strb	r3, [r0, #142]
 2330              	.L152:
 986:..\u8g2\csrc/u8g2_font.c ****       u8g2->font_ref_descent = u8g2->font_info.descent_para;
 2331              		.loc 1 986 0
 2332 002a 90F98430 		ldrsb	r3, [r0, #132]
 2333 002e 9A42     		cmp	r2, r3
 2334 0030 11DD     		ble	.L156
 987:..\u8g2\csrc/u8g2_font.c ****   }
 2335              		.loc 1 987 0
 2336 0032 80F88F30 		strb	r3, [r0, #143]
 2337 0036 7047     		bx	lr
 2338              	.L151:
 974:..\u8g2\csrc/u8g2_font.c ****   if ( u8g2->font == NULL )
 2339              		.loc 1 974 0
 2340 0038 30B4     		push	{r4, r5}
 2341              		.cfi_def_cfa_offset 8
 2342              		.cfi_offset 4, -8
 2343              		.cfi_offset 5, -4
 991:..\u8g2\csrc/u8g2_font.c ****       u8g2->font_ref_ascent = u8g2->font_info.max_char_height+u8g2->font_info.y_offset;
 2344              		.loc 1 991 0
 2345 003a 90F97E40 		ldrsb	r4, [r0, #126]
 2346 003e 90F98030 		ldrsb	r3, [r0, #128]
 2347 0042 E518     		adds	r5, r4, r3
 2348 0044 A942     		cmp	r1, r5
 2349 0046 01DA     		bge	.L153
 992:..\u8g2\csrc/u8g2_font.c ****     if ( u8g2->font_ref_descent > u8g2->font_info.y_offset )
 2350              		.loc 1 992 0
 2351 0048 80F88E50 		strb	r5, [r0, #142]
 2352              	.L153:
 993:..\u8g2\csrc/u8g2_font.c ****       u8g2->font_ref_descent = u8g2->font_info.y_offset;
 2353              		.loc 1 993 0
 2354 004c 9A42     		cmp	r2, r3
 2355 004e 01DD     		ble	.L149
 994:..\u8g2\csrc/u8g2_font.c ****   }  
 2356              		.loc 1 994 0
 2357 0050 80F88F30 		strb	r3, [r0, #143]
 2358              	.L149:
 996:..\u8g2\csrc/u8g2_font.c **** 
 2359              		.loc 1 996 0
ARM GAS  C:\Users\brian\AppData\Local\Temp\ccTYhJxe.s 			page 69


 2360 0054 30BC     		pop	{r4, r5}
 2361              		.cfi_restore 5
 2362              		.cfi_restore 4
 2363              		.cfi_def_cfa_offset 0
 2364              	.L156:
 2365 0056 7047     		bx	lr
 2366              		.cfi_endproc
 2367              	.LFE27:
 2368              		.size	u8g2_UpdateRefHeight, .-u8g2_UpdateRefHeight
 2369              		.section	.text.u8g2_SetFontRefHeightText,"ax",%progbits
 2370              		.align	2
 2371              		.global	u8g2_SetFontRefHeightText
 2372              		.thumb
 2373              		.thumb_func
 2374              		.type	u8g2_SetFontRefHeightText, %function
 2375              	u8g2_SetFontRefHeightText:
 2376              	.LFB28:
 999:..\u8g2\csrc/u8g2_font.c ****   u8g2->font_height_mode = U8G2_FONT_HEIGHT_MODE_TEXT;
 2377              		.loc 1 999 0
 2378              		.cfi_startproc
 2379              		@ args = 0, pretend = 0, frame = 0
 2380              		@ frame_needed = 0, uses_anonymous_args = 0
 2381              	.LVL372:
 2382 0000 08B5     		push	{r3, lr}
 2383              		.cfi_def_cfa_offset 8
 2384              		.cfi_offset 3, -8
 2385              		.cfi_offset 14, -4
1000:..\u8g2\csrc/u8g2_font.c ****   u8g2_UpdateRefHeight(u8g2);
 2386              		.loc 1 1000 0
 2387 0002 0022     		movs	r2, #0
 2388 0004 80F88D20 		strb	r2, [r0, #141]
1001:..\u8g2\csrc/u8g2_font.c **** }
 2389              		.loc 1 1001 0
 2390 0008 FFF7FEFF 		bl	u8g2_UpdateRefHeight
 2391              	.LVL373:
 2392 000c 08BD     		pop	{r3, pc}
 2393              		.cfi_endproc
 2394              	.LFE28:
 2395              		.size	u8g2_SetFontRefHeightText, .-u8g2_SetFontRefHeightText
 2396 000e 00BF     		.section	.text.u8g2_SetFontRefHeightExtendedText,"ax",%progbits
 2397              		.align	2
 2398              		.global	u8g2_SetFontRefHeightExtendedText
 2399              		.thumb
 2400              		.thumb_func
 2401              		.type	u8g2_SetFontRefHeightExtendedText, %function
 2402              	u8g2_SetFontRefHeightExtendedText:
 2403              	.LFB29:
1005:..\u8g2\csrc/u8g2_font.c ****   u8g2->font_height_mode = U8G2_FONT_HEIGHT_MODE_XTEXT;
 2404              		.loc 1 1005 0
 2405              		.cfi_startproc
 2406              		@ args = 0, pretend = 0, frame = 0
 2407              		@ frame_needed = 0, uses_anonymous_args = 0
 2408              	.LVL374:
 2409 0000 08B5     		push	{r3, lr}
 2410              		.cfi_def_cfa_offset 8
 2411              		.cfi_offset 3, -8
 2412              		.cfi_offset 14, -4
ARM GAS  C:\Users\brian\AppData\Local\Temp\ccTYhJxe.s 			page 70


1006:..\u8g2\csrc/u8g2_font.c ****   u8g2_UpdateRefHeight(u8g2);
 2413              		.loc 1 1006 0
 2414 0002 0123     		movs	r3, #1
 2415 0004 80F88D30 		strb	r3, [r0, #141]
1007:..\u8g2\csrc/u8g2_font.c **** }
 2416              		.loc 1 1007 0
 2417 0008 FFF7FEFF 		bl	u8g2_UpdateRefHeight
 2418              	.LVL375:
 2419 000c 08BD     		pop	{r3, pc}
 2420              		.cfi_endproc
 2421              	.LFE29:
 2422              		.size	u8g2_SetFontRefHeightExtendedText, .-u8g2_SetFontRefHeightExtendedText
 2423 000e 00BF     		.section	.text.u8g2_SetFontRefHeightAll,"ax",%progbits
 2424              		.align	2
 2425              		.global	u8g2_SetFontRefHeightAll
 2426              		.thumb
 2427              		.thumb_func
 2428              		.type	u8g2_SetFontRefHeightAll, %function
 2429              	u8g2_SetFontRefHeightAll:
 2430              	.LFB30:
1011:..\u8g2\csrc/u8g2_font.c ****   u8g2->font_height_mode = U8G2_FONT_HEIGHT_MODE_ALL;
 2431              		.loc 1 1011 0
 2432              		.cfi_startproc
 2433              		@ args = 0, pretend = 0, frame = 0
 2434              		@ frame_needed = 0, uses_anonymous_args = 0
 2435              	.LVL376:
 2436 0000 08B5     		push	{r3, lr}
 2437              		.cfi_def_cfa_offset 8
 2438              		.cfi_offset 3, -8
 2439              		.cfi_offset 14, -4
1012:..\u8g2\csrc/u8g2_font.c ****   u8g2_UpdateRefHeight(u8g2);
 2440              		.loc 1 1012 0
 2441 0002 0223     		movs	r3, #2
 2442 0004 80F88D30 		strb	r3, [r0, #141]
1013:..\u8g2\csrc/u8g2_font.c **** }
 2443              		.loc 1 1013 0
 2444 0008 FFF7FEFF 		bl	u8g2_UpdateRefHeight
 2445              	.LVL377:
 2446 000c 08BD     		pop	{r3, pc}
 2447              		.cfi_endproc
 2448              	.LFE30:
 2449              		.size	u8g2_SetFontRefHeightAll, .-u8g2_SetFontRefHeightAll
 2450 000e 00BF     		.section	.text.u8g2_SetFontPosBaseline,"ax",%progbits
 2451              		.align	2
 2452              		.global	u8g2_SetFontPosBaseline
 2453              		.thumb
 2454              		.thumb_func
 2455              		.type	u8g2_SetFontPosBaseline, %function
 2456              	u8g2_SetFontPosBaseline:
 2457              	.LFB32:
1025:..\u8g2\csrc/u8g2_font.c ****   u8g2->font_calc_vref = u8g2_font_calc_vref_font;
 2458              		.loc 1 1025 0
 2459              		.cfi_startproc
 2460              		@ args = 0, pretend = 0, frame = 0
 2461              		@ frame_needed = 0, uses_anonymous_args = 0
 2462              		@ link register save eliminated.
 2463              	.LVL378:
ARM GAS  C:\Users\brian\AppData\Local\Temp\ccTYhJxe.s 			page 71


1026:..\u8g2\csrc/u8g2_font.c **** }
 2464              		.loc 1 1026 0
 2465 0000 014B     		ldr	r3, .L164
 2466 0002 C365     		str	r3, [r0, #92]
 2467 0004 7047     		bx	lr
 2468              	.L165:
 2469 0006 00BF     		.align	2
 2470              	.L164:
 2471 0008 00000000 		.word	u8g2_font_calc_vref_font
 2472              		.cfi_endproc
 2473              	.LFE32:
 2474              		.size	u8g2_SetFontPosBaseline, .-u8g2_SetFontPosBaseline
 2475              		.section	.text.u8g2_SetFontPosBottom,"ax",%progbits
 2476              		.align	2
 2477              		.global	u8g2_SetFontPosBottom
 2478              		.thumb
 2479              		.thumb_func
 2480              		.type	u8g2_SetFontPosBottom, %function
 2481              	u8g2_SetFontPosBottom:
 2482              	.LFB34:
1036:..\u8g2\csrc/u8g2_font.c ****   u8g2->font_calc_vref = u8g2_font_calc_vref_bottom;
 2483              		.loc 1 1036 0
 2484              		.cfi_startproc
 2485              		@ args = 0, pretend = 0, frame = 0
 2486              		@ frame_needed = 0, uses_anonymous_args = 0
 2487              		@ link register save eliminated.
 2488              	.LVL379:
1037:..\u8g2\csrc/u8g2_font.c **** }
 2489              		.loc 1 1037 0
 2490 0000 014B     		ldr	r3, .L167
 2491 0002 C365     		str	r3, [r0, #92]
 2492 0004 7047     		bx	lr
 2493              	.L168:
 2494 0006 00BF     		.align	2
 2495              	.L167:
 2496 0008 00000000 		.word	u8g2_font_calc_vref_bottom
 2497              		.cfi_endproc
 2498              	.LFE34:
 2499              		.size	u8g2_SetFontPosBottom, .-u8g2_SetFontPosBottom
 2500              		.section	.text.u8g2_SetFontPosTop,"ax",%progbits
 2501              		.align	2
 2502              		.global	u8g2_SetFontPosTop
 2503              		.thumb
 2504              		.thumb_func
 2505              		.type	u8g2_SetFontPosTop, %function
 2506              	u8g2_SetFontPosTop:
 2507              	.LFB36:
1050:..\u8g2\csrc/u8g2_font.c ****   u8g2->font_calc_vref = u8g2_font_calc_vref_top;
 2508              		.loc 1 1050 0
 2509              		.cfi_startproc
 2510              		@ args = 0, pretend = 0, frame = 0
 2511              		@ frame_needed = 0, uses_anonymous_args = 0
 2512              		@ link register save eliminated.
 2513              	.LVL380:
1051:..\u8g2\csrc/u8g2_font.c **** }
 2514              		.loc 1 1051 0
 2515 0000 014B     		ldr	r3, .L170
ARM GAS  C:\Users\brian\AppData\Local\Temp\ccTYhJxe.s 			page 72


 2516 0002 C365     		str	r3, [r0, #92]
 2517 0004 7047     		bx	lr
 2518              	.L171:
 2519 0006 00BF     		.align	2
 2520              	.L170:
 2521 0008 00000000 		.word	u8g2_font_calc_vref_top
 2522              		.cfi_endproc
 2523              	.LFE36:
 2524              		.size	u8g2_SetFontPosTop, .-u8g2_SetFontPosTop
 2525              		.section	.text.u8g2_SetFontPosCenter,"ax",%progbits
 2526              		.align	2
 2527              		.global	u8g2_SetFontPosCenter
 2528              		.thumb
 2529              		.thumb_func
 2530              		.type	u8g2_SetFontPosCenter, %function
 2531              	u8g2_SetFontPosCenter:
 2532              	.LFB38:
1065:..\u8g2\csrc/u8g2_font.c ****   u8g2->font_calc_vref = u8g2_font_calc_vref_center;
 2533              		.loc 1 1065 0
 2534              		.cfi_startproc
 2535              		@ args = 0, pretend = 0, frame = 0
 2536              		@ frame_needed = 0, uses_anonymous_args = 0
 2537              		@ link register save eliminated.
 2538              	.LVL381:
1066:..\u8g2\csrc/u8g2_font.c **** }
 2539              		.loc 1 1066 0
 2540 0000 014B     		ldr	r3, .L173
 2541 0002 C365     		str	r3, [r0, #92]
 2542 0004 7047     		bx	lr
 2543              	.L174:
 2544 0006 00BF     		.align	2
 2545              	.L173:
 2546 0008 00000000 		.word	u8g2_font_calc_vref_center
 2547              		.cfi_endproc
 2548              	.LFE38:
 2549              		.size	u8g2_SetFontPosCenter, .-u8g2_SetFontPosCenter
 2550              		.section	.text.u8g2_SetFont,"ax",%progbits
 2551              		.align	2
 2552              		.global	u8g2_SetFont
 2553              		.thumb
 2554              		.thumb_func
 2555              		.type	u8g2_SetFont, %function
 2556              	u8g2_SetFont:
 2557              	.LFB39:
1072:..\u8g2\csrc/u8g2_font.c ****   if ( u8g2->font != font )
 2558              		.loc 1 1072 0
 2559              		.cfi_startproc
 2560              		@ args = 0, pretend = 0, frame = 0
 2561              		@ frame_needed = 0, uses_anonymous_args = 0
 2562              	.LVL382:
1073:..\u8g2\csrc/u8g2_font.c ****   {
 2563              		.loc 1 1073 0
 2564 0000 836D     		ldr	r3, [r0, #88]
 2565 0002 8B42     		cmp	r3, r1
 2566 0004 09D0     		beq	.L178
1072:..\u8g2\csrc/u8g2_font.c ****   if ( u8g2->font != font )
 2567              		.loc 1 1072 0
ARM GAS  C:\Users\brian\AppData\Local\Temp\ccTYhJxe.s 			page 73


 2568 0006 10B5     		push	{r4, lr}
 2569              		.cfi_def_cfa_offset 8
 2570              		.cfi_offset 4, -8
 2571              		.cfi_offset 14, -4
 2572 0008 0446     		mov	r4, r0
1079:..\u8g2\csrc/u8g2_font.c ****     u8g2_read_font_info(&(u8g2->font_info), font);
 2573              		.loc 1 1079 0
 2574 000a 8165     		str	r1, [r0, #88]
1080:..\u8g2\csrc/u8g2_font.c ****     u8g2_UpdateRefHeight(u8g2);
 2575              		.loc 1 1080 0
 2576 000c 7430     		adds	r0, r0, #116
 2577              	.LVL383:
 2578 000e FFF7FEFF 		bl	u8g2_read_font_info
 2579              	.LVL384:
1081:..\u8g2\csrc/u8g2_font.c ****     /* u8g2_SetFontPosBaseline(u8g2); */ /* removed with issue 195 */
 2580              		.loc 1 1081 0
 2581 0012 2046     		mov	r0, r4
 2582 0014 FFF7FEFF 		bl	u8g2_UpdateRefHeight
 2583              	.LVL385:
 2584 0018 10BD     		pop	{r4, pc}
 2585              	.LVL386:
 2586              	.L178:
 2587              		.cfi_def_cfa_offset 0
 2588              		.cfi_restore 4
 2589              		.cfi_restore 14
 2590 001a 7047     		bx	lr
 2591              		.cfi_endproc
 2592              	.LFE39:
 2593              		.size	u8g2_SetFont, .-u8g2_SetFont
 2594              		.section	.text.u8g2_IsAllValidUTF8,"ax",%progbits
 2595              		.align	2
 2596              		.global	u8g2_IsAllValidUTF8
 2597              		.thumb
 2598              		.thumb_func
 2599              		.type	u8g2_IsAllValidUTF8, %function
 2600              	u8g2_IsAllValidUTF8:
 2601              	.LFB41:
1109:..\u8g2\csrc/u8g2_font.c ****   u8g2->u8x8.next_cb = u8x8_utf8_next;
 2602              		.loc 1 1109 0
 2603              		.cfi_startproc
 2604              		@ args = 0, pretend = 0, frame = 0
 2605              		@ frame_needed = 0, uses_anonymous_args = 0
 2606              	.LVL387:
 2607 0000 08B5     		push	{r3, lr}
 2608              		.cfi_def_cfa_offset 8
 2609              		.cfi_offset 3, -8
 2610              		.cfi_offset 14, -4
1110:..\u8g2\csrc/u8g2_font.c ****   return u8g2_is_all_valid(u8g2, str);
 2611              		.loc 1 1110 0
 2612 0002 024B     		ldr	r3, .L181
 2613 0004 4360     		str	r3, [r0, #4]
1111:..\u8g2\csrc/u8g2_font.c **** }
 2614              		.loc 1 1111 0
 2615 0006 FFF7FEFF 		bl	u8g2_is_all_valid
 2616              	.LVL388:
1112:..\u8g2\csrc/u8g2_font.c **** 
 2617              		.loc 1 1112 0
ARM GAS  C:\Users\brian\AppData\Local\Temp\ccTYhJxe.s 			page 74


 2618 000a 08BD     		pop	{r3, pc}
 2619              	.L182:
 2620              		.align	2
 2621              	.L181:
 2622 000c 00000000 		.word	u8x8_utf8_next
 2623              		.cfi_endproc
 2624              	.LFE41:
 2625              		.size	u8g2_IsAllValidUTF8, .-u8g2_IsAllValidUTF8
 2626              		.section	.text.u8g2_GetStrX,"ax",%progbits
 2627              		.align	2
 2628              		.global	u8g2_GetStrX
 2629              		.thumb
 2630              		.thumb_func
 2631              		.type	u8g2_GetStrX, %function
 2632              	u8g2_GetStrX:
 2633              	.LFB44:
1183:..\u8g2\csrc/u8g2_font.c **** }
1184:..\u8g2\csrc/u8g2_font.c **** 
1185:..\u8g2\csrc/u8g2_font.c **** /* u8g compatible GetStrX function */
1186:..\u8g2\csrc/u8g2_font.c **** int8_t u8g2_GetStrX(u8g2_t *u8g2, const char *s)
1187:..\u8g2\csrc/u8g2_font.c **** {
 2634              		.loc 1 1187 0
 2635              		.cfi_startproc
 2636              		@ args = 0, pretend = 0, frame = 8
 2637              		@ frame_needed = 0, uses_anonymous_args = 0
 2638              	.LVL389:
 2639 0000 00B5     		push	{lr}
 2640              		.cfi_def_cfa_offset 4
 2641              		.cfi_offset 14, -4
 2642 0002 85B0     		sub	sp, sp, #20
 2643              		.cfi_def_cfa_offset 24
1188:..\u8g2\csrc/u8g2_font.c ****   uint8_t w;
1189:..\u8g2\csrc/u8g2_font.c ****   int8_t ox, dx;
1190:..\u8g2\csrc/u8g2_font.c ****   u8g2_GetGlyphHorizontalProperties(u8g2, *s, &w, &ox, &dx);
 2644              		.loc 1 1190 0
 2645 0004 0978     		ldrb	r1, [r1]	@ zero_extendqisi2
 2646              	.LVL390:
 2647 0006 0DF10D03 		add	r3, sp, #13
 2648 000a 0093     		str	r3, [sp]
 2649 000c 0DF10E03 		add	r3, sp, #14
 2650 0010 0DF10F02 		add	r2, sp, #15
 2651 0014 FFF7FEFF 		bl	u8g2_GetGlyphHorizontalProperties
 2652              	.LVL391:
1191:..\u8g2\csrc/u8g2_font.c ****   return ox;
1192:..\u8g2\csrc/u8g2_font.c **** }
 2653              		.loc 1 1192 0
 2654 0018 9DF90E00 		ldrsb	r0, [sp, #14]
 2655 001c 05B0     		add	sp, sp, #20
 2656              		.cfi_def_cfa_offset 4
 2657              		@ sp needed
 2658 001e 5DF804FB 		ldr	pc, [sp], #4
 2659              		.cfi_endproc
 2660              	.LFE44:
 2661              		.size	u8g2_GetStrX, .-u8g2_GetStrX
 2662 0022 00BF     		.section	.text.u8g2_GetStrWidth,"ax",%progbits
 2663              		.align	2
 2664              		.global	u8g2_GetStrWidth
ARM GAS  C:\Users\brian\AppData\Local\Temp\ccTYhJxe.s 			page 75


 2665              		.thumb
 2666              		.thumb_func
 2667              		.type	u8g2_GetStrWidth, %function
 2668              	u8g2_GetStrWidth:
 2669              	.LFB45:
1193:..\u8g2\csrc/u8g2_font.c **** 
1194:..\u8g2\csrc/u8g2_font.c **** 
1195:..\u8g2\csrc/u8g2_font.c **** /*
1196:..\u8g2\csrc/u8g2_font.c **** Warning: This function needs to be fixed. I think it was taken over from u8glib, but not fixed as o
1197:..\u8g2\csrc/u8g2_font.c **** The main difference for this procedure compared to the normal get width, should be, that the initia
1198:..\u8g2\csrc/u8g2_font.c **** offset is removed
1199:..\u8g2\csrc/u8g2_font.c **** 
1200:..\u8g2\csrc/u8g2_font.c **** Idea: for the user interface it probably would be better to add the xoffset of the first char to th
1201:..\u8g2\csrc/u8g2_font.c **** Maybe then the procedure should be called differently, maybe balanced width instead of exact width
1202:..\u8g2\csrc/u8g2_font.c **** 
1203:..\u8g2\csrc/u8g2_font.c **** u8g2_calculate_exact_string_width is now OBSOLETE, instead the above str width calculation has been
1204:..\u8g2\csrc/u8g2_font.c **** https://github.com/olikraus/u8g2/issues/1561
1205:..\u8g2\csrc/u8g2_font.c **** */
1206:..\u8g2\csrc/u8g2_font.c **** #ifdef OBSOLETE
1207:..\u8g2\csrc/u8g2_font.c **** static u8g2_uint_t u8g2_calculate_exact_string_width(u8g2_t *u8g2, const char *str)
1208:..\u8g2\csrc/u8g2_font.c **** {
1209:..\u8g2\csrc/u8g2_font.c ****   const char *s = str;
1210:..\u8g2\csrc/u8g2_font.c ****   uint16_t enc;
1211:..\u8g2\csrc/u8g2_font.c ****   u8g2_uint_t  w;
1212:..\u8g2\csrc/u8g2_font.c ****   uint8_t cnt;
1213:..\u8g2\csrc/u8g2_font.c ****   uint8_t gw; 
1214:..\u8g2\csrc/u8g2_font.c ****   int8_t ox, dx;
1215:..\u8g2\csrc/u8g2_font.c ****   
1216:..\u8g2\csrc/u8g2_font.c ****   /* reset the total minimal width to zero, this will be expanded during calculation */
1217:..\u8g2\csrc/u8g2_font.c ****   w = 0;
1218:..\u8g2\csrc/u8g2_font.c ****     
1219:..\u8g2\csrc/u8g2_font.c ****   
1220:..\u8g2\csrc/u8g2_font.c ****   /* check for empty string, width is already 0 */
1221:..\u8g2\csrc/u8g2_font.c ****   cnt = 0;
1222:..\u8g2\csrc/u8g2_font.c ****   
1223:..\u8g2\csrc/u8g2_font.c ****   for(;;)
1224:..\u8g2\csrc/u8g2_font.c ****   {
1225:..\u8g2\csrc/u8g2_font.c ****     enc = u8g2->u8x8.next_cb(u8g2_GetU8x8(u8g2), (uint8_t)*s);
1226:..\u8g2\csrc/u8g2_font.c ****     if ( enc == 0x0ffff )
1227:..\u8g2\csrc/u8g2_font.c ****       break;    
1228:..\u8g2\csrc/u8g2_font.c ****     s++;
1229:..\u8g2\csrc/u8g2_font.c ****     if ( enc != 0x0fffe )
1230:..\u8g2\csrc/u8g2_font.c ****     {
1231:..\u8g2\csrc/u8g2_font.c ****       if ( cnt == 0 )
1232:..\u8g2\csrc/u8g2_font.c ****       {
1233:..\u8g2\csrc/u8g2_font.c ****         /* get glyph properties of the first char */
1234:..\u8g2\csrc/u8g2_font.c ****         u8g2_GetGlyphHorizontalProperties(u8g2, enc, &gw, &ox, &dx);  
1235:..\u8g2\csrc/u8g2_font.c ****       }        
1236:..\u8g2\csrc/u8g2_font.c ****       cnt++;
1237:..\u8g2\csrc/u8g2_font.c ****       if ( cnt > 2 )
1238:..\u8g2\csrc/u8g2_font.c ****         break;
1239:..\u8g2\csrc/u8g2_font.c ****     }
1240:..\u8g2\csrc/u8g2_font.c ****   }
1241:..\u8g2\csrc/u8g2_font.c ****   
1242:..\u8g2\csrc/u8g2_font.c ****   if ( cnt == 0 )
1243:..\u8g2\csrc/u8g2_font.c ****     return 0;
1244:..\u8g2\csrc/u8g2_font.c ****    
ARM GAS  C:\Users\brian\AppData\Local\Temp\ccTYhJxe.s 			page 76


1245:..\u8g2\csrc/u8g2_font.c ****   if ( cnt == 1 )
1246:..\u8g2\csrc/u8g2_font.c ****      return gw;
1247:..\u8g2\csrc/u8g2_font.c **** 
1248:..\u8g2\csrc/u8g2_font.c ****   /* strlen(s) == 1:       width = width(s[0]) */
1249:..\u8g2\csrc/u8g2_font.c ****   /* strlen(s) == 2:       width = - offx(s[0]) + deltax(s[0]) + offx(s[1]) + width(s[1]) */
1250:..\u8g2\csrc/u8g2_font.c ****   /* strlen(s) == 3:       width = - offx(s[0]) + deltax(s[0]) + deltax(s[1]) + offx(s[2]) + width(
1251:..\u8g2\csrc/u8g2_font.c ****   
1252:..\u8g2\csrc/u8g2_font.c ****   /* assume that the string has size 2 or more, than start with negative offset-x */
1253:..\u8g2\csrc/u8g2_font.c ****   /* for string with size 1, this will be nullified after the loop */
1254:..\u8g2\csrc/u8g2_font.c ****   w = -ox;  
1255:..\u8g2\csrc/u8g2_font.c ****   for(;;)
1256:..\u8g2\csrc/u8g2_font.c ****   {
1257:..\u8g2\csrc/u8g2_font.c ****     enc = u8g2->u8x8.next_cb(u8g2_GetU8x8(u8g2), (uint8_t)*str);
1258:..\u8g2\csrc/u8g2_font.c ****     if ( enc== 0x0ffff )
1259:..\u8g2\csrc/u8g2_font.c ****       break;
1260:..\u8g2\csrc/u8g2_font.c ****     str++;
1261:..\u8g2\csrc/u8g2_font.c ****     if ( enc != 0x0fffe )
1262:..\u8g2\csrc/u8g2_font.c ****     {
1263:..\u8g2\csrc/u8g2_font.c ****       u8g2_GetGlyphHorizontalProperties(u8g2, enc, &gw, &ox, &dx);        
1264:..\u8g2\csrc/u8g2_font.c ****       /* if there are still more characters, add the delta to the next glyph */
1265:..\u8g2\csrc/u8g2_font.c ****       w += dx;    
1266:..\u8g2\csrc/u8g2_font.c ****     }
1267:..\u8g2\csrc/u8g2_font.c ****   }
1268:..\u8g2\csrc/u8g2_font.c ****   
1269:..\u8g2\csrc/u8g2_font.c ****   /* finally calculate the width of the last char */
1270:..\u8g2\csrc/u8g2_font.c ****   /* here is another exception, if the last char is a blank, use the dx value instead */
1271:..\u8g2\csrc/u8g2_font.c ****   if ( gw != 0 )
1272:..\u8g2\csrc/u8g2_font.c ****   {
1273:..\u8g2\csrc/u8g2_font.c ****     w -= dx;    /* remove the last dx */
1274:..\u8g2\csrc/u8g2_font.c ****     /* if g was not updated in the for loop (strlen() == 1), then the initial offset x gets removed
1275:..\u8g2\csrc/u8g2_font.c ****     w += gw;
1276:..\u8g2\csrc/u8g2_font.c ****     w += ox;
1277:..\u8g2\csrc/u8g2_font.c ****   }
1278:..\u8g2\csrc/u8g2_font.c ****   else
1279:..\u8g2\csrc/u8g2_font.c ****   {
1280:..\u8g2\csrc/u8g2_font.c ****     //w += dx;
1281:..\u8g2\csrc/u8g2_font.c ****   }
1282:..\u8g2\csrc/u8g2_font.c ****   
1283:..\u8g2\csrc/u8g2_font.c ****   
1284:..\u8g2\csrc/u8g2_font.c ****   return w;
1285:..\u8g2\csrc/u8g2_font.c **** 	
1286:..\u8g2\csrc/u8g2_font.c **** }
1287:..\u8g2\csrc/u8g2_font.c **** #endif
1288:..\u8g2\csrc/u8g2_font.c **** 
1289:..\u8g2\csrc/u8g2_font.c **** 
1290:..\u8g2\csrc/u8g2_font.c **** 
1291:..\u8g2\csrc/u8g2_font.c **** 
1292:..\u8g2\csrc/u8g2_font.c **** 
1293:..\u8g2\csrc/u8g2_font.c **** u8g2_uint_t u8g2_GetStrWidth(u8g2_t *u8g2, const char *s)
1294:..\u8g2\csrc/u8g2_font.c **** {
 2670              		.loc 1 1294 0
 2671              		.cfi_startproc
 2672              		@ args = 0, pretend = 0, frame = 0
 2673              		@ frame_needed = 0, uses_anonymous_args = 0
 2674              	.LVL392:
 2675 0000 08B5     		push	{r3, lr}
 2676              		.cfi_def_cfa_offset 8
ARM GAS  C:\Users\brian\AppData\Local\Temp\ccTYhJxe.s 			page 77


 2677              		.cfi_offset 3, -8
 2678              		.cfi_offset 14, -4
1295:..\u8g2\csrc/u8g2_font.c ****   u8g2->u8x8.next_cb = u8x8_ascii_next;
 2679              		.loc 1 1295 0
 2680 0002 024B     		ldr	r3, .L187
 2681 0004 4360     		str	r3, [r0, #4]
1296:..\u8g2\csrc/u8g2_font.c ****   return u8g2_string_width(u8g2, s);
 2682              		.loc 1 1296 0
 2683 0006 FFF7FEFF 		bl	u8g2_string_width
 2684              	.LVL393:
1297:..\u8g2\csrc/u8g2_font.c **** }
 2685              		.loc 1 1297 0
 2686 000a 08BD     		pop	{r3, pc}
 2687              	.L188:
 2688              		.align	2
 2689              	.L187:
 2690 000c 00000000 		.word	u8x8_ascii_next
 2691              		.cfi_endproc
 2692              	.LFE45:
 2693              		.size	u8g2_GetStrWidth, .-u8g2_GetStrWidth
 2694              		.section	.text.u8g2_GetUTF8Width,"ax",%progbits
 2695              		.align	2
 2696              		.global	u8g2_GetUTF8Width
 2697              		.thumb
 2698              		.thumb_func
 2699              		.type	u8g2_GetUTF8Width, %function
 2700              	u8g2_GetUTF8Width:
 2701              	.LFB46:
1298:..\u8g2\csrc/u8g2_font.c **** 
1299:..\u8g2\csrc/u8g2_font.c **** /* OBSOLETE
1300:..\u8g2\csrc/u8g2_font.c **** u8g2_uint_t u8g2_GetExactStrWidth(u8g2_t *u8g2, const char *s)
1301:..\u8g2\csrc/u8g2_font.c **** {
1302:..\u8g2\csrc/u8g2_font.c ****   u8g2->u8x8.next_cb = u8x8_ascii_next;
1303:..\u8g2\csrc/u8g2_font.c ****   return u8g2_calculate_exact_string_width(u8g2, s);
1304:..\u8g2\csrc/u8g2_font.c **** }
1305:..\u8g2\csrc/u8g2_font.c **** */
1306:..\u8g2\csrc/u8g2_font.c **** 
1307:..\u8g2\csrc/u8g2_font.c **** /*
1308:..\u8g2\csrc/u8g2_font.c **** source: https://en.wikipedia.org/wiki/UTF-8
1309:..\u8g2\csrc/u8g2_font.c **** Bits	from 		to			bytes	Byte 1 		Byte 2 		Byte 3 		Byte 4 		Byte 5 		Byte 6
1310:..\u8g2\csrc/u8g2_font.c ****   7 	U+0000 		U+007F 		1 		0xxxxxxx
1311:..\u8g2\csrc/u8g2_font.c **** 11 	U+0080 		U+07FF 		2 		110xxxxx 	10xxxxxx
1312:..\u8g2\csrc/u8g2_font.c **** 16 	U+0800 		U+FFFF 		3 		1110xxxx 	10xxxxxx 	10xxxxxx
1313:..\u8g2\csrc/u8g2_font.c **** 21 	U+10000 	U+1FFFFF 	4 		11110xxx 	10xxxxxx 	10xxxxxx 	10xxxxxx
1314:..\u8g2\csrc/u8g2_font.c **** 26 	U+200000 	U+3FFFFFF 	5 		111110xx 	10xxxxxx 	10xxxxxx 	10xxxxxx 	10xxxxxx
1315:..\u8g2\csrc/u8g2_font.c **** 31 	U+4000000 	U+7FFFFFFF 	6 		1111110x 	10xxxxxx 	10xxxxxx 	10xxxxxx 	10xxxxxx 	10xxxxxx  
1316:..\u8g2\csrc/u8g2_font.c **** */
1317:..\u8g2\csrc/u8g2_font.c **** u8g2_uint_t u8g2_GetUTF8Width(u8g2_t *u8g2, const char *str)
1318:..\u8g2\csrc/u8g2_font.c **** {
 2702              		.loc 1 1318 0
 2703              		.cfi_startproc
 2704              		@ args = 0, pretend = 0, frame = 0
 2705              		@ frame_needed = 0, uses_anonymous_args = 0
 2706              	.LVL394:
 2707 0000 08B5     		push	{r3, lr}
 2708              		.cfi_def_cfa_offset 8
 2709              		.cfi_offset 3, -8
ARM GAS  C:\Users\brian\AppData\Local\Temp\ccTYhJxe.s 			page 78


 2710              		.cfi_offset 14, -4
1319:..\u8g2\csrc/u8g2_font.c ****   u8g2->u8x8.next_cb = u8x8_utf8_next;
 2711              		.loc 1 1319 0
 2712 0002 024B     		ldr	r3, .L191
 2713 0004 4360     		str	r3, [r0, #4]
1320:..\u8g2\csrc/u8g2_font.c ****   return u8g2_string_width(u8g2, str);
 2714              		.loc 1 1320 0
 2715 0006 FFF7FEFF 		bl	u8g2_string_width
 2716              	.LVL395:
1321:..\u8g2\csrc/u8g2_font.c **** }
 2717              		.loc 1 1321 0
 2718 000a 08BD     		pop	{r3, pc}
 2719              	.L192:
 2720              		.align	2
 2721              	.L191:
 2722 000c 00000000 		.word	u8x8_utf8_next
 2723              		.cfi_endproc
 2724              	.LFE46:
 2725              		.size	u8g2_GetUTF8Width, .-u8g2_GetUTF8Width
 2726              		.section	.text.u8g2_SetFontDirection,"ax",%progbits
 2727              		.align	2
 2728              		.global	u8g2_SetFontDirection
 2729              		.thumb
 2730              		.thumb_func
 2731              		.type	u8g2_SetFontDirection, %function
 2732              	u8g2_SetFontDirection:
 2733              	.LFB47:
1322:..\u8g2\csrc/u8g2_font.c **** 
1323:..\u8g2\csrc/u8g2_font.c **** 
1324:..\u8g2\csrc/u8g2_font.c **** 
1325:..\u8g2\csrc/u8g2_font.c **** void u8g2_SetFontDirection(u8g2_t *u8g2, uint8_t dir)
1326:..\u8g2\csrc/u8g2_font.c **** {
 2734              		.loc 1 1326 0
 2735              		.cfi_startproc
 2736              		@ args = 0, pretend = 0, frame = 0
 2737              		@ frame_needed = 0, uses_anonymous_args = 0
 2738              		@ link register save eliminated.
 2739              	.LVL396:
1327:..\u8g2\csrc/u8g2_font.c **** #ifdef U8G2_WITH_FONT_ROTATION  
1328:..\u8g2\csrc/u8g2_font.c ****   u8g2->font_decode.dir = dir;
 2740              		.loc 1 1328 0
 2741 0000 80F87010 		strb	r1, [r0, #112]
 2742 0004 7047     		bx	lr
 2743              		.cfi_endproc
 2744              	.LFE47:
 2745              		.size	u8g2_SetFontDirection, .-u8g2_SetFontDirection
 2746 0006 00BF     		.text
 2747              	.Letext0:
 2748              		.file 2 "c:\\program files (x86)\\cypress\\psoc creator\\4.4\\psoc creator\\import\\gnu\\arm\\5.4.
 2749              		.file 3 "c:\\program files (x86)\\cypress\\psoc creator\\4.4\\psoc creator\\import\\gnu\\arm\\5.4.
 2750              		.file 4 "c:\\program files (x86)\\cypress\\psoc creator\\4.4\\psoc creator\\import\\gnu\\arm\\5.4.
 2751              		.file 5 "..\\u8g2\\csrc\\u8x8.h"
 2752              		.file 6 "..\\u8g2\\csrc\\u8g2.h"