ARM GAS  C:\Users\brian\AppData\Local\Temp\ccTYhJxe.s 			page 1


   1              		.syntax unified
   2              		.cpu cortex-m3
   3              		.fpu softvfp
   4              		.eabi_attribute 20, 1
   5              		.eabi_attribute 21, 1
   6              		.eabi_attribute 23, 3
   7              		.eabi_attribute 24, 1
   8              		.eabi_attribute 25, 1
   9              		.eabi_attribute 26, 1
  10              		.eabi_attribute 30, 1
  11              		.eabi_attribute 34, 1
  12              		.eabi_attribute 18, 4
  13              		.thumb
  14              		.syntax unified
  15              		.file	"u8g2_font.c"
  16              		.text
  17              	.Ltext0:
  18              		.cfi_sections	.debug_frame
  19              		.section	.text.u8g2_font_get_byte,"ax",%progbits
  20              		.align	2
  21              		.thumb
  22              		.thumb_func
  23              		.type	u8g2_font_get_byte, %function
  24              	u8g2_font_get_byte:
  25              	.LFB0:
  26              		.file 1 "..\\u8g2\\csrc\\u8g2_font.c"
   1:..\u8g2\csrc/u8g2_font.c **** /*
   2:..\u8g2\csrc/u8g2_font.c **** 
   3:..\u8g2\csrc/u8g2_font.c ****   u8g2_font.c
   4:..\u8g2\csrc/u8g2_font.c **** 
   5:..\u8g2\csrc/u8g2_font.c ****   Universal 8bit Graphics Library (https://github.com/olikraus/u8g2/)
   6:..\u8g2\csrc/u8g2_font.c **** 
   7:..\u8g2\csrc/u8g2_font.c ****   Copyright (c) 2016, olikraus@gmail.com
   8:..\u8g2\csrc/u8g2_font.c ****   All rights reserved.
   9:..\u8g2\csrc/u8g2_font.c **** 
  10:..\u8g2\csrc/u8g2_font.c ****   Redistribution and use in source and binary forms, with or without modification, 
  11:..\u8g2\csrc/u8g2_font.c ****   are permitted provided that the following conditions are met:
  12:..\u8g2\csrc/u8g2_font.c **** 
  13:..\u8g2\csrc/u8g2_font.c ****   * Redistributions of source code must retain the above copyright notice, this list 
  14:..\u8g2\csrc/u8g2_font.c ****     of conditions and the following disclaimer.
  15:..\u8g2\csrc/u8g2_font.c ****     
  16:..\u8g2\csrc/u8g2_font.c ****   * Redistributions in binary form must reproduce the above copyright notice, this 
  17:..\u8g2\csrc/u8g2_font.c ****     list of conditions and the following disclaimer in the documentation and/or other 
  18:..\u8g2\csrc/u8g2_font.c ****     materials provided with the distribution.
  19:..\u8g2\csrc/u8g2_font.c **** 
  20:..\u8g2\csrc/u8g2_font.c ****   THIS SOFTWARE IS PROVIDED BY THE COPYRIGHT HOLDERS AND 
  21:..\u8g2\csrc/u8g2_font.c ****   CONTRIBUTORS "AS IS" AND ANY EXPRESS OR IMPLIED WARRANTIES, 
  22:..\u8g2\csrc/u8g2_font.c ****   INCLUDING, BUT NOT LIMITED TO, THE IMPLIED WARRANTIES OF 
  23:..\u8g2\csrc/u8g2_font.c ****   MERCHANTABILITY AND FITNESS FOR A PARTICULAR PURPOSE ARE 
  24:..\u8g2\csrc/u8g2_font.c ****   DISCLAIMED. IN NO EVENT SHALL THE COPYRIGHT HOLDER OR 
  25:..\u8g2\csrc/u8g2_font.c ****   CONTRIBUTORS BE LIABLE FOR ANY DIRECT, INDIRECT, INCIDENTAL, 
  26:..\u8g2\csrc/u8g2_font.c ****   SPECIAL, EXEMPLARY, OR CONSEQUENTIAL DAMAGES (INCLUDING, BUT 
  27:..\u8g2\csrc/u8g2_font.c ****   NOT LIMITED TO, PROCUREMENT OF SUBSTITUTE GOODS OR SERVICES; 
  28:..\u8g2\csrc/u8g2_font.c ****   LOSS OF USE, DATA, OR PROFITS; OR BUSINESS INTERRUPTION) HOWEVER 
  29:..\u8g2\csrc/u8g2_font.c ****   CAUSED AND ON ANY THEORY OF LIABILITY, WHETHER IN CONTRACT, 
  30:..\u8g2\csrc/u8g2_font.c ****   STRICT LIABILITY, OR TORT (INCLUDING NEGLIGENCE OR OTHERWISE) 
  31:..\u8g2\csrc/u8g2_font.c ****   ARISING IN ANY WAY OUT OF THE USE OF THIS SOFTWARE, EVEN IF 
ARM GAS  C:\Users\brian\AppData\Local\Temp\ccTYhJxe.s 			page 2


  32:..\u8g2\csrc/u8g2_font.c ****   ADVISED OF THE POSSIBILITY OF SUCH DAMAGE.  
  33:..\u8g2\csrc/u8g2_font.c **** 
  34:..\u8g2\csrc/u8g2_font.c **** */
  35:..\u8g2\csrc/u8g2_font.c **** 
  36:..\u8g2\csrc/u8g2_font.c **** #include "u8g2.h"
  37:..\u8g2\csrc/u8g2_font.c **** 
  38:..\u8g2\csrc/u8g2_font.c **** /* size of the font data structure, there is no struct or class... */
  39:..\u8g2\csrc/u8g2_font.c **** /* this is the size for the new font format */
  40:..\u8g2\csrc/u8g2_font.c **** #define U8G2_FONT_DATA_STRUCT_SIZE 23
  41:..\u8g2\csrc/u8g2_font.c **** 
  42:..\u8g2\csrc/u8g2_font.c **** /*
  43:..\u8g2\csrc/u8g2_font.c ****   font data:
  44:..\u8g2\csrc/u8g2_font.c **** 
  45:..\u8g2\csrc/u8g2_font.c ****   offset	bytes	description
  46:..\u8g2\csrc/u8g2_font.c ****   0		1		glyph_cnt		number of glyphs
  47:..\u8g2\csrc/u8g2_font.c ****   1		1		bbx_mode	0: proportional, 1: common height, 2: monospace, 3: multiple of 8
  48:..\u8g2\csrc/u8g2_font.c ****   2		1		bits_per_0	glyph rle parameter
  49:..\u8g2\csrc/u8g2_font.c ****   3		1		bits_per_1	glyph rle parameter
  50:..\u8g2\csrc/u8g2_font.c **** 
  51:..\u8g2\csrc/u8g2_font.c ****   4		1		bits_per_char_width		glyph rle parameter
  52:..\u8g2\csrc/u8g2_font.c ****   5		1		bits_per_char_height	glyph rle parameter
  53:..\u8g2\csrc/u8g2_font.c ****   6		1		bits_per_char_x		glyph rle parameter
  54:..\u8g2\csrc/u8g2_font.c ****   7		1		bits_per_char_y		glyph rle parameter
  55:..\u8g2\csrc/u8g2_font.c ****   8		1		bits_per_delta_x		glyph rle parameter
  56:..\u8g2\csrc/u8g2_font.c **** 
  57:..\u8g2\csrc/u8g2_font.c ****   9		1		max_char_width
  58:..\u8g2\csrc/u8g2_font.c ****   10		1		max_char_height
  59:..\u8g2\csrc/u8g2_font.c ****   11		1		x offset
  60:..\u8g2\csrc/u8g2_font.c ****   12		1		y offset (descent)
  61:..\u8g2\csrc/u8g2_font.c ****   
  62:..\u8g2\csrc/u8g2_font.c ****   13		1		ascent (capital A)
  63:..\u8g2\csrc/u8g2_font.c ****   14		1		descent (lower g)
  64:..\u8g2\csrc/u8g2_font.c ****   15		1		ascent '('
  65:..\u8g2\csrc/u8g2_font.c ****   16		1		descent ')'
  66:..\u8g2\csrc/u8g2_font.c ****   
  67:..\u8g2\csrc/u8g2_font.c ****   17		1		start pos 'A' high byte
  68:..\u8g2\csrc/u8g2_font.c ****   18		1		start pos 'A' low byte
  69:..\u8g2\csrc/u8g2_font.c **** 
  70:..\u8g2\csrc/u8g2_font.c ****   19		1		start pos 'a' high byte
  71:..\u8g2\csrc/u8g2_font.c ****   20		1		start pos 'a' low byte
  72:..\u8g2\csrc/u8g2_font.c **** 
  73:..\u8g2\csrc/u8g2_font.c ****   21		1		start pos unicode high byte
  74:..\u8g2\csrc/u8g2_font.c ****   22		1		start pos unicode low byte
  75:..\u8g2\csrc/u8g2_font.c **** 
  76:..\u8g2\csrc/u8g2_font.c ****   Font build mode, 0: proportional, 1: common height, 2: monospace, 3: multiple of 8
  77:..\u8g2\csrc/u8g2_font.c **** 
  78:..\u8g2\csrc/u8g2_font.c ****   Font build mode 0:		
  79:..\u8g2\csrc/u8g2_font.c ****     - "t"
  80:..\u8g2\csrc/u8g2_font.c ****     - Ref height mode: U8G2_FONT_HEIGHT_MODE_TEXT, U8G2_FONT_HEIGHT_MODE_XTEXT or U8G2_FONT_HEIGHT_
  81:..\u8g2\csrc/u8g2_font.c ****     - use in transparent mode only (does not look good in solid mode)
  82:..\u8g2\csrc/u8g2_font.c ****     - most compact format
  83:..\u8g2\csrc/u8g2_font.c ****     - different font heights possible
  84:..\u8g2\csrc/u8g2_font.c ****     
  85:..\u8g2\csrc/u8g2_font.c ****   Font build mode 1:		
  86:..\u8g2\csrc/u8g2_font.c ****     - "h"
  87:..\u8g2\csrc/u8g2_font.c ****     - Ref height mode: U8G2_FONT_HEIGHT_MODE_ALL
  88:..\u8g2\csrc/u8g2_font.c ****     - transparent or solid mode
ARM GAS  C:\Users\brian\AppData\Local\Temp\ccTYhJxe.s 			page 3


  89:..\u8g2\csrc/u8g2_font.c ****     - The height of the glyphs depend on the largest glyph in the font. This means font height depe
  90:..\u8g2\csrc/u8g2_font.c **** 
  91:..\u8g2\csrc/u8g2_font.c **** */
  92:..\u8g2\csrc/u8g2_font.c **** 
  93:..\u8g2\csrc/u8g2_font.c **** /* use case: What is the width and the height of the minimal box into which string s fints? */
  94:..\u8g2\csrc/u8g2_font.c **** void u8g2_font_GetStrSize(const void *font, const char *s, u8g2_uint_t *width, u8g2_uint_t *height)
  95:..\u8g2\csrc/u8g2_font.c **** void u8g2_font_GetStrSizeP(const void *font, const char *s, u8g2_uint_t *width, u8g2_uint_t *height
  96:..\u8g2\csrc/u8g2_font.c **** 
  97:..\u8g2\csrc/u8g2_font.c **** /* use case: lower left edge of a minimal box is known, what is the correct x, y position for the s
  98:..\u8g2\csrc/u8g2_font.c **** void u8g2_font_AdjustXYToDraw(const void *font, const char *s, u8g2_uint_t *x, u8g2_uint_t *y);
  99:..\u8g2\csrc/u8g2_font.c **** void u8g2_font_AdjustXYToDrawP(const void *font, const char *s, u8g2_uint_t *x, u8g2_uint_t *y);
 100:..\u8g2\csrc/u8g2_font.c **** 
 101:..\u8g2\csrc/u8g2_font.c **** /* use case: Baseline origin known, return minimal box */
 102:..\u8g2\csrc/u8g2_font.c **** void u8g2_font_GetStrMinBox(u8g2_t *u8g2, const void *font, const char *s, u8g2_uint_t *x, u8g2_uin
 103:..\u8g2\csrc/u8g2_font.c **** 
 104:..\u8g2\csrc/u8g2_font.c **** /* procedures */
 105:..\u8g2\csrc/u8g2_font.c **** 
 106:..\u8g2\csrc/u8g2_font.c **** /*========================================================================*/
 107:..\u8g2\csrc/u8g2_font.c **** /* low level byte and word access */
 108:..\u8g2\csrc/u8g2_font.c **** 
 109:..\u8g2\csrc/u8g2_font.c **** /* removed NOINLINE, because it leads to smaller code, might also be faster */
 110:..\u8g2\csrc/u8g2_font.c **** //static uint8_t u8g2_font_get_byte(const uint8_t *font, uint8_t offset) U8G2_NOINLINE;
 111:..\u8g2\csrc/u8g2_font.c **** static uint8_t u8g2_font_get_byte(const uint8_t *font, uint8_t offset)
 112:..\u8g2\csrc/u8g2_font.c **** {
  27              		.loc 1 112 0
  28              		.cfi_startproc
  29              		@ args = 0, pretend = 0, frame = 0
  30              		@ frame_needed = 0, uses_anonymous_args = 0
  31              		@ link register save eliminated.
  32              	.LVL0:
 113:..\u8g2\csrc/u8g2_font.c ****   font += offset;
 114:..\u8g2\csrc/u8g2_font.c ****   return u8x8_pgm_read( font );  
 115:..\u8g2\csrc/u8g2_font.c **** }
  33              		.loc 1 115 0
  34 0000 405C     		ldrb	r0, [r0, r1]	@ zero_extendqisi2
  35              	.LVL1:
  36 0002 7047     		bx	lr
  37              		.cfi_endproc
  38              	.LFE0:
  39              		.size	u8g2_font_get_byte, .-u8g2_font_get_byte
  40              		.section	.text.u8g2_font_get_word,"ax",%progbits
  41              		.align	2
  42              		.thumb
  43              		.thumb_func
  44              		.type	u8g2_font_get_word, %function
  45              	u8g2_font_get_word:
  46              	.LFB1:
 116:..\u8g2\csrc/u8g2_font.c **** 
 117:..\u8g2\csrc/u8g2_font.c **** static uint16_t u8g2_font_get_word(const uint8_t *font, uint8_t offset) U8G2_NOINLINE; 
 118:..\u8g2\csrc/u8g2_font.c **** static uint16_t u8g2_font_get_word(const uint8_t *font, uint8_t offset)
 119:..\u8g2\csrc/u8g2_font.c **** {
  47              		.loc 1 119 0
  48              		.cfi_startproc
  49              		@ args = 0, pretend = 0, frame = 0
  50              		@ frame_needed = 0, uses_anonymous_args = 0
  51              		@ link register save eliminated.
  52              	.LVL2:
ARM GAS  C:\Users\brian\AppData\Local\Temp\ccTYhJxe.s 			page 4


 120:..\u8g2\csrc/u8g2_font.c ****     uint16_t pos;
 121:..\u8g2\csrc/u8g2_font.c ****     font += offset;
  53              		.loc 1 121 0
  54 0000 4318     		adds	r3, r0, r1
  55              	.LVL3:
 122:..\u8g2\csrc/u8g2_font.c ****     pos = u8x8_pgm_read( font );
  56              		.loc 1 122 0
  57 0002 405C     		ldrb	r0, [r0, r1]	@ zero_extendqisi2
  58              	.LVL4:
 123:..\u8g2\csrc/u8g2_font.c ****     font++;
 124:..\u8g2\csrc/u8g2_font.c ****     pos <<= 8;
 125:..\u8g2\csrc/u8g2_font.c ****     pos += u8x8_pgm_read( font);
  59              		.loc 1 125 0
  60 0004 5B78     		ldrb	r3, [r3, #1]	@ zero_extendqisi2
  61              	.LVL5:
  62 0006 03EB0020 		add	r0, r3, r0, lsl #8
  63              	.LVL6:
 126:..\u8g2\csrc/u8g2_font.c ****     return pos;
 127:..\u8g2\csrc/u8g2_font.c **** }
  64              		.loc 1 127 0
  65 000a 80B2     		uxth	r0, r0
  66 000c 7047     		bx	lr
  67              		.cfi_endproc
  68              	.LFE1:
  69              		.size	u8g2_font_get_word, .-u8g2_font_get_word
  70 000e 00BF     		.section	.text.u8g2_font_calc_vref_font,"ax",%progbits
  71              		.align	2
  72              		.global	u8g2_font_calc_vref_font
  73              		.thumb
  74              		.thumb_func
  75              		.type	u8g2_font_calc_vref_font, %function
  76              	u8g2_font_calc_vref_font:
  77              	.LFB31:
 128:..\u8g2\csrc/u8g2_font.c **** 
 129:..\u8g2\csrc/u8g2_font.c **** /*========================================================================*/
 130:..\u8g2\csrc/u8g2_font.c **** /* new font format */
 131:..\u8g2\csrc/u8g2_font.c **** void u8g2_read_font_info(u8g2_font_info_t *font_info, const uint8_t *font)
 132:..\u8g2\csrc/u8g2_font.c **** {
 133:..\u8g2\csrc/u8g2_font.c ****   /* offset 0 */
 134:..\u8g2\csrc/u8g2_font.c ****   font_info->glyph_cnt = u8g2_font_get_byte(font, 0);
 135:..\u8g2\csrc/u8g2_font.c ****   font_info->bbx_mode = u8g2_font_get_byte(font, 1);
 136:..\u8g2\csrc/u8g2_font.c ****   font_info->bits_per_0 = u8g2_font_get_byte(font, 2);
 137:..\u8g2\csrc/u8g2_font.c ****   font_info->bits_per_1 = u8g2_font_get_byte(font, 3);
 138:..\u8g2\csrc/u8g2_font.c ****   
 139:..\u8g2\csrc/u8g2_font.c ****   /* offset 4 */
 140:..\u8g2\csrc/u8g2_font.c ****   font_info->bits_per_char_width = u8g2_font_get_byte(font, 4);
 141:..\u8g2\csrc/u8g2_font.c ****   font_info->bits_per_char_height = u8g2_font_get_byte(font, 5);
 142:..\u8g2\csrc/u8g2_font.c ****   font_info->bits_per_char_x = u8g2_font_get_byte(font, 6);
 143:..\u8g2\csrc/u8g2_font.c ****   font_info->bits_per_char_y = u8g2_font_get_byte(font, 7);
 144:..\u8g2\csrc/u8g2_font.c ****   font_info->bits_per_delta_x = u8g2_font_get_byte(font, 8);
 145:..\u8g2\csrc/u8g2_font.c ****   
 146:..\u8g2\csrc/u8g2_font.c ****   /* offset 9 */
 147:..\u8g2\csrc/u8g2_font.c ****   font_info->max_char_width = u8g2_font_get_byte(font, 9);
 148:..\u8g2\csrc/u8g2_font.c ****   font_info->max_char_height = u8g2_font_get_byte(font, 10);
 149:..\u8g2\csrc/u8g2_font.c ****   font_info->x_offset = u8g2_font_get_byte(font, 11);
 150:..\u8g2\csrc/u8g2_font.c ****   font_info->y_offset = u8g2_font_get_byte(font, 12);
 151:..\u8g2\csrc/u8g2_font.c ****   
ARM GAS  C:\Users\brian\AppData\Local\Temp\ccTYhJxe.s 			page 5


 152:..\u8g2\csrc/u8g2_font.c ****   /* offset 13 */
 153:..\u8g2\csrc/u8g2_font.c ****   font_info->ascent_A = u8g2_font_get_byte(font, 13);
 154:..\u8g2\csrc/u8g2_font.c ****   font_info->descent_g = u8g2_font_get_byte(font, 14);
 155:..\u8g2\csrc/u8g2_font.c ****   font_info->ascent_para = u8g2_font_get_byte(font, 15);
 156:..\u8g2\csrc/u8g2_font.c ****   font_info->descent_para = u8g2_font_get_byte(font, 16);
 157:..\u8g2\csrc/u8g2_font.c ****   
 158:..\u8g2\csrc/u8g2_font.c ****   /* offset 17 */
 159:..\u8g2\csrc/u8g2_font.c ****   font_info->start_pos_upper_A = u8g2_font_get_word(font, 17);
 160:..\u8g2\csrc/u8g2_font.c ****   font_info->start_pos_lower_a = u8g2_font_get_word(font, 19); 
 161:..\u8g2\csrc/u8g2_font.c ****   
 162:..\u8g2\csrc/u8g2_font.c ****   /* offset 21 */
 163:..\u8g2\csrc/u8g2_font.c **** #ifdef U8G2_WITH_UNICODE
 164:..\u8g2\csrc/u8g2_font.c ****   font_info->start_pos_unicode = u8g2_font_get_word(font, 21); 
 165:..\u8g2\csrc/u8g2_font.c **** #endif
 166:..\u8g2\csrc/u8g2_font.c **** }
 167:..\u8g2\csrc/u8g2_font.c **** 
 168:..\u8g2\csrc/u8g2_font.c **** 
 169:..\u8g2\csrc/u8g2_font.c **** /* calculate the overall length of the font, only used to create the picture for the google wiki */
 170:..\u8g2\csrc/u8g2_font.c **** size_t u8g2_GetFontSize(const uint8_t *font_arg)
 171:..\u8g2\csrc/u8g2_font.c **** {
 172:..\u8g2\csrc/u8g2_font.c ****   uint16_t e;
 173:..\u8g2\csrc/u8g2_font.c ****   const uint8_t *font = font_arg;
 174:..\u8g2\csrc/u8g2_font.c ****   font += U8G2_FONT_DATA_STRUCT_SIZE;
 175:..\u8g2\csrc/u8g2_font.c ****   
 176:..\u8g2\csrc/u8g2_font.c ****   for(;;)
 177:..\u8g2\csrc/u8g2_font.c ****   {
 178:..\u8g2\csrc/u8g2_font.c ****     if ( u8x8_pgm_read( font + 1 ) == 0 )
 179:..\u8g2\csrc/u8g2_font.c ****       break;
 180:..\u8g2\csrc/u8g2_font.c ****     font += u8x8_pgm_read( font + 1 );
 181:..\u8g2\csrc/u8g2_font.c ****   }
 182:..\u8g2\csrc/u8g2_font.c ****   
 183:..\u8g2\csrc/u8g2_font.c ****   /* continue with unicode section */
 184:..\u8g2\csrc/u8g2_font.c ****   font += 2;
 185:..\u8g2\csrc/u8g2_font.c **** 
 186:..\u8g2\csrc/u8g2_font.c ****   /* skip unicode lookup table */
 187:..\u8g2\csrc/u8g2_font.c ****   font += u8g2_font_get_word(font, 0);
 188:..\u8g2\csrc/u8g2_font.c ****   
 189:..\u8g2\csrc/u8g2_font.c ****   for(;;)
 190:..\u8g2\csrc/u8g2_font.c ****   {
 191:..\u8g2\csrc/u8g2_font.c ****     e = u8x8_pgm_read( font );
 192:..\u8g2\csrc/u8g2_font.c ****     e <<= 8;
 193:..\u8g2\csrc/u8g2_font.c ****     e |= u8x8_pgm_read( font + 1 );
 194:..\u8g2\csrc/u8g2_font.c ****     if ( e == 0 )
 195:..\u8g2\csrc/u8g2_font.c ****       break;
 196:..\u8g2\csrc/u8g2_font.c ****     font += u8x8_pgm_read( font + 2 );    
 197:..\u8g2\csrc/u8g2_font.c ****   }
 198:..\u8g2\csrc/u8g2_font.c ****   
 199:..\u8g2\csrc/u8g2_font.c ****   return (font - font_arg) + 2;
 200:..\u8g2\csrc/u8g2_font.c **** }
 201:..\u8g2\csrc/u8g2_font.c **** 
 202:..\u8g2\csrc/u8g2_font.c **** /*========================================================================*/
 203:..\u8g2\csrc/u8g2_font.c **** /* u8g2 interface, font access */
 204:..\u8g2\csrc/u8g2_font.c **** 
 205:..\u8g2\csrc/u8g2_font.c **** uint8_t u8g2_GetFontBBXWidth(u8g2_t *u8g2)
 206:..\u8g2\csrc/u8g2_font.c **** {
 207:..\u8g2\csrc/u8g2_font.c ****   return u8g2->font_info.max_char_width;		/* new font info structure */
 208:..\u8g2\csrc/u8g2_font.c **** }
ARM GAS  C:\Users\brian\AppData\Local\Temp\ccTYhJxe.s 			page 6


 209:..\u8g2\csrc/u8g2_font.c **** 
 210:..\u8g2\csrc/u8g2_font.c **** uint8_t u8g2_GetFontBBXHeight(u8g2_t *u8g2)
 211:..\u8g2\csrc/u8g2_font.c **** {
 212:..\u8g2\csrc/u8g2_font.c ****   return u8g2->font_info.max_char_height;		/* new font info structure */
 213:..\u8g2\csrc/u8g2_font.c **** }
 214:..\u8g2\csrc/u8g2_font.c **** 
 215:..\u8g2\csrc/u8g2_font.c **** int8_t u8g2_GetFontBBXOffX(u8g2_t *u8g2) U8G2_NOINLINE;
 216:..\u8g2\csrc/u8g2_font.c **** int8_t u8g2_GetFontBBXOffX(u8g2_t *u8g2)
 217:..\u8g2\csrc/u8g2_font.c **** {
 218:..\u8g2\csrc/u8g2_font.c ****   return u8g2->font_info.x_offset;		/* new font info structure */
 219:..\u8g2\csrc/u8g2_font.c **** }
 220:..\u8g2\csrc/u8g2_font.c **** 
 221:..\u8g2\csrc/u8g2_font.c **** int8_t u8g2_GetFontBBXOffY(u8g2_t *u8g2) U8G2_NOINLINE;
 222:..\u8g2\csrc/u8g2_font.c **** int8_t u8g2_GetFontBBXOffY(u8g2_t *u8g2)
 223:..\u8g2\csrc/u8g2_font.c **** {
 224:..\u8g2\csrc/u8g2_font.c ****   return u8g2->font_info.y_offset;		/* new font info structure */
 225:..\u8g2\csrc/u8g2_font.c **** }
 226:..\u8g2\csrc/u8g2_font.c **** 
 227:..\u8g2\csrc/u8g2_font.c **** uint8_t u8g2_GetFontCapitalAHeight(u8g2_t *u8g2) U8G2_NOINLINE; 
 228:..\u8g2\csrc/u8g2_font.c **** uint8_t u8g2_GetFontCapitalAHeight(u8g2_t *u8g2)
 229:..\u8g2\csrc/u8g2_font.c **** {
 230:..\u8g2\csrc/u8g2_font.c ****   return u8g2->font_info.ascent_A;		/* new font info structure */
 231:..\u8g2\csrc/u8g2_font.c **** }
 232:..\u8g2\csrc/u8g2_font.c **** 
 233:..\u8g2\csrc/u8g2_font.c **** /*========================================================================*/
 234:..\u8g2\csrc/u8g2_font.c **** /* glyph handling */
 235:..\u8g2\csrc/u8g2_font.c **** 
 236:..\u8g2\csrc/u8g2_font.c **** /* optimized */
 237:..\u8g2\csrc/u8g2_font.c **** uint8_t u8g2_font_decode_get_unsigned_bits(u8g2_font_decode_t *f, uint8_t cnt) 
 238:..\u8g2\csrc/u8g2_font.c **** {
 239:..\u8g2\csrc/u8g2_font.c ****   uint8_t val;
 240:..\u8g2\csrc/u8g2_font.c ****   uint8_t bit_pos = f->decode_bit_pos;
 241:..\u8g2\csrc/u8g2_font.c ****   uint8_t bit_pos_plus_cnt;
 242:..\u8g2\csrc/u8g2_font.c ****   
 243:..\u8g2\csrc/u8g2_font.c ****   //val = *(f->decode_ptr);
 244:..\u8g2\csrc/u8g2_font.c ****   val = u8x8_pgm_read( f->decode_ptr );  
 245:..\u8g2\csrc/u8g2_font.c ****   
 246:..\u8g2\csrc/u8g2_font.c ****   val >>= bit_pos;
 247:..\u8g2\csrc/u8g2_font.c ****   bit_pos_plus_cnt = bit_pos;
 248:..\u8g2\csrc/u8g2_font.c ****   bit_pos_plus_cnt += cnt;
 249:..\u8g2\csrc/u8g2_font.c ****   if ( bit_pos_plus_cnt >= 8 )
 250:..\u8g2\csrc/u8g2_font.c ****   {
 251:..\u8g2\csrc/u8g2_font.c ****     uint8_t s = 8;
 252:..\u8g2\csrc/u8g2_font.c ****     s -= bit_pos;
 253:..\u8g2\csrc/u8g2_font.c ****     f->decode_ptr++;
 254:..\u8g2\csrc/u8g2_font.c ****     //val |= *(f->decode_ptr) << (8-bit_pos);
 255:..\u8g2\csrc/u8g2_font.c ****     val |= u8x8_pgm_read( f->decode_ptr ) << (s);
 256:..\u8g2\csrc/u8g2_font.c ****     //bit_pos -= 8;
 257:..\u8g2\csrc/u8g2_font.c ****     bit_pos_plus_cnt -= 8;
 258:..\u8g2\csrc/u8g2_font.c ****   }
 259:..\u8g2\csrc/u8g2_font.c ****   val &= (1U<<cnt)-1;
 260:..\u8g2\csrc/u8g2_font.c ****   //bit_pos += cnt;
 261:..\u8g2\csrc/u8g2_font.c ****   
 262:..\u8g2\csrc/u8g2_font.c ****   f->decode_bit_pos = bit_pos_plus_cnt;
 263:..\u8g2\csrc/u8g2_font.c ****   return val;
 264:..\u8g2\csrc/u8g2_font.c **** }
 265:..\u8g2\csrc/u8g2_font.c **** 
ARM GAS  C:\Users\brian\AppData\Local\Temp\ccTYhJxe.s 			page 7


 266:..\u8g2\csrc/u8g2_font.c **** 
 267:..\u8g2\csrc/u8g2_font.c **** /*
 268:..\u8g2\csrc/u8g2_font.c ****     2 bit --> cnt = 2
 269:..\u8g2\csrc/u8g2_font.c ****       -2,-1,0. 1
 270:..\u8g2\csrc/u8g2_font.c **** 
 271:..\u8g2\csrc/u8g2_font.c ****     3 bit --> cnt = 3
 272:..\u8g2\csrc/u8g2_font.c ****       -2,-1,0. 1
 273:..\u8g2\csrc/u8g2_font.c ****       -4,-3,-2,-1,0,1,2,3
 274:..\u8g2\csrc/u8g2_font.c **** 
 275:..\u8g2\csrc/u8g2_font.c ****       if ( x < 0 )
 276:..\u8g2\csrc/u8g2_font.c **** 	r = bits(x-1)+1;
 277:..\u8g2\csrc/u8g2_font.c ****     else
 278:..\u8g2\csrc/u8g2_font.c **** 	r = bits(x)+1;
 279:..\u8g2\csrc/u8g2_font.c **** 
 280:..\u8g2\csrc/u8g2_font.c **** */
 281:..\u8g2\csrc/u8g2_font.c **** /* optimized */
 282:..\u8g2\csrc/u8g2_font.c **** int8_t u8g2_font_decode_get_signed_bits(u8g2_font_decode_t *f, uint8_t cnt)
 283:..\u8g2\csrc/u8g2_font.c **** {
 284:..\u8g2\csrc/u8g2_font.c ****   int8_t v, d;
 285:..\u8g2\csrc/u8g2_font.c ****   v = (int8_t)u8g2_font_decode_get_unsigned_bits(f, cnt);
 286:..\u8g2\csrc/u8g2_font.c ****   d = 1;
 287:..\u8g2\csrc/u8g2_font.c ****   cnt--;
 288:..\u8g2\csrc/u8g2_font.c ****   d <<= cnt;
 289:..\u8g2\csrc/u8g2_font.c ****   v -= d;
 290:..\u8g2\csrc/u8g2_font.c ****   return v;
 291:..\u8g2\csrc/u8g2_font.c ****   //return (int8_t)u8g2_font_decode_get_unsigned_bits(f, cnt) - ((1<<cnt)>>1);
 292:..\u8g2\csrc/u8g2_font.c **** }
 293:..\u8g2\csrc/u8g2_font.c **** 
 294:..\u8g2\csrc/u8g2_font.c **** 
 295:..\u8g2\csrc/u8g2_font.c **** #ifdef U8G2_WITH_FONT_ROTATION
 296:..\u8g2\csrc/u8g2_font.c **** u8g2_uint_t u8g2_add_vector_y(u8g2_uint_t dy, int8_t x, int8_t y, uint8_t dir)
 297:..\u8g2\csrc/u8g2_font.c **** {
 298:..\u8g2\csrc/u8g2_font.c ****   switch(dir)
 299:..\u8g2\csrc/u8g2_font.c ****   {
 300:..\u8g2\csrc/u8g2_font.c ****     case 0:
 301:..\u8g2\csrc/u8g2_font.c ****       dy += y;
 302:..\u8g2\csrc/u8g2_font.c ****       break;
 303:..\u8g2\csrc/u8g2_font.c ****     case 1:
 304:..\u8g2\csrc/u8g2_font.c ****       dy += x;
 305:..\u8g2\csrc/u8g2_font.c ****       break;
 306:..\u8g2\csrc/u8g2_font.c ****     case 2:
 307:..\u8g2\csrc/u8g2_font.c ****       dy -= y;
 308:..\u8g2\csrc/u8g2_font.c ****       break;
 309:..\u8g2\csrc/u8g2_font.c ****     default:
 310:..\u8g2\csrc/u8g2_font.c ****       dy -= x;
 311:..\u8g2\csrc/u8g2_font.c ****       break;      
 312:..\u8g2\csrc/u8g2_font.c ****   }
 313:..\u8g2\csrc/u8g2_font.c ****   return dy;
 314:..\u8g2\csrc/u8g2_font.c **** }
 315:..\u8g2\csrc/u8g2_font.c **** 
 316:..\u8g2\csrc/u8g2_font.c **** u8g2_uint_t u8g2_add_vector_x(u8g2_uint_t dx, int8_t x, int8_t y, uint8_t dir)
 317:..\u8g2\csrc/u8g2_font.c **** {
 318:..\u8g2\csrc/u8g2_font.c ****   switch(dir)
 319:..\u8g2\csrc/u8g2_font.c ****   {
 320:..\u8g2\csrc/u8g2_font.c ****     case 0:
 321:..\u8g2\csrc/u8g2_font.c ****       dx += x;
 322:..\u8g2\csrc/u8g2_font.c ****       break;
ARM GAS  C:\Users\brian\AppData\Local\Temp\ccTYhJxe.s 			page 8


 323:..\u8g2\csrc/u8g2_font.c ****     case 1:
 324:..\u8g2\csrc/u8g2_font.c ****       dx -= y;
 325:..\u8g2\csrc/u8g2_font.c ****       break;
 326:..\u8g2\csrc/u8g2_font.c ****     case 2:
 327:..\u8g2\csrc/u8g2_font.c ****       dx -= x;
 328:..\u8g2\csrc/u8g2_font.c ****       break;
 329:..\u8g2\csrc/u8g2_font.c ****     default:
 330:..\u8g2\csrc/u8g2_font.c ****       dx += y;
 331:..\u8g2\csrc/u8g2_font.c ****       break;      
 332:..\u8g2\csrc/u8g2_font.c ****   }
 333:..\u8g2\csrc/u8g2_font.c ****   return dx;
 334:..\u8g2\csrc/u8g2_font.c **** }
 335:..\u8g2\csrc/u8g2_font.c **** 
 336:..\u8g2\csrc/u8g2_font.c **** /*
 337:..\u8g2\csrc/u8g2_font.c **** // does not make sense, 50 bytes more required on avr
 338:..\u8g2\csrc/u8g2_font.c **** void u8g2_add_vector(u8g2_uint_t *xp, u8g2_uint_t *yp, int8_t x, int8_t y, uint8_t dir)
 339:..\u8g2\csrc/u8g2_font.c **** {
 340:..\u8g2\csrc/u8g2_font.c ****   u8g2_uint_t x_ = *xp;
 341:..\u8g2\csrc/u8g2_font.c ****   u8g2_uint_t y_ = *yp;
 342:..\u8g2\csrc/u8g2_font.c ****   switch(dir)
 343:..\u8g2\csrc/u8g2_font.c ****   {
 344:..\u8g2\csrc/u8g2_font.c ****     case 0:
 345:..\u8g2\csrc/u8g2_font.c ****       y_ += y;
 346:..\u8g2\csrc/u8g2_font.c ****       x_ += x;
 347:..\u8g2\csrc/u8g2_font.c ****       break;
 348:..\u8g2\csrc/u8g2_font.c ****     case 1:
 349:..\u8g2\csrc/u8g2_font.c ****       y_ += x;
 350:..\u8g2\csrc/u8g2_font.c ****       x_ -= y;
 351:..\u8g2\csrc/u8g2_font.c ****       break;
 352:..\u8g2\csrc/u8g2_font.c ****     case 2:
 353:..\u8g2\csrc/u8g2_font.c ****       y_ -= y;
 354:..\u8g2\csrc/u8g2_font.c ****       x_ -= x;
 355:..\u8g2\csrc/u8g2_font.c ****       break;
 356:..\u8g2\csrc/u8g2_font.c ****     default:
 357:..\u8g2\csrc/u8g2_font.c ****       y_ -= x;
 358:..\u8g2\csrc/u8g2_font.c ****       x_ += y;
 359:..\u8g2\csrc/u8g2_font.c ****       break;      
 360:..\u8g2\csrc/u8g2_font.c ****   }
 361:..\u8g2\csrc/u8g2_font.c ****   *xp = x_;
 362:..\u8g2\csrc/u8g2_font.c ****   *yp = y_;
 363:..\u8g2\csrc/u8g2_font.c **** }
 364:..\u8g2\csrc/u8g2_font.c **** */
 365:..\u8g2\csrc/u8g2_font.c **** #endif
 366:..\u8g2\csrc/u8g2_font.c **** 
 367:..\u8g2\csrc/u8g2_font.c **** 
 368:..\u8g2\csrc/u8g2_font.c **** 
 369:..\u8g2\csrc/u8g2_font.c **** /*
 370:..\u8g2\csrc/u8g2_font.c ****   Description:
 371:..\u8g2\csrc/u8g2_font.c ****     Draw a run-length area of the glyph. "len" can have any size and the line
 372:..\u8g2\csrc/u8g2_font.c ****     length has to be wrapped at the glyph border.
 373:..\u8g2\csrc/u8g2_font.c ****   Args:
 374:..\u8g2\csrc/u8g2_font.c ****     len: 					Length of the line
 375:..\u8g2\csrc/u8g2_font.c ****     is_foreground			foreground/background?
 376:..\u8g2\csrc/u8g2_font.c ****     u8g2->font_decode.target_x		X position
 377:..\u8g2\csrc/u8g2_font.c ****     u8g2->font_decode.target_y		Y position
 378:..\u8g2\csrc/u8g2_font.c ****     u8g2->font_decode.is_transparent	Transparent mode
 379:..\u8g2\csrc/u8g2_font.c ****   Return:
ARM GAS  C:\Users\brian\AppData\Local\Temp\ccTYhJxe.s 			page 9


 380:..\u8g2\csrc/u8g2_font.c ****     -
 381:..\u8g2\csrc/u8g2_font.c ****   Calls:
 382:..\u8g2\csrc/u8g2_font.c ****     u8g2_Draw90Line()
 383:..\u8g2\csrc/u8g2_font.c ****   Called by:
 384:..\u8g2\csrc/u8g2_font.c ****     u8g2_font_decode_glyph()
 385:..\u8g2\csrc/u8g2_font.c **** */
 386:..\u8g2\csrc/u8g2_font.c **** /* optimized */
 387:..\u8g2\csrc/u8g2_font.c **** void u8g2_font_decode_len(u8g2_t *u8g2, uint8_t len, uint8_t is_foreground)
 388:..\u8g2\csrc/u8g2_font.c **** {
 389:..\u8g2\csrc/u8g2_font.c ****   uint8_t cnt;	/* total number of remaining pixels, which have to be drawn */
 390:..\u8g2\csrc/u8g2_font.c ****   uint8_t rem; 	/* remaining pixel to the right edge of the glyph */
 391:..\u8g2\csrc/u8g2_font.c ****   uint8_t current;	/* number of pixels, which need to be drawn for the draw procedure */
 392:..\u8g2\csrc/u8g2_font.c ****     /* current is either equal to cnt or equal to rem */
 393:..\u8g2\csrc/u8g2_font.c ****   
 394:..\u8g2\csrc/u8g2_font.c ****   /* local coordinates of the glyph */
 395:..\u8g2\csrc/u8g2_font.c ****   uint8_t lx,ly;
 396:..\u8g2\csrc/u8g2_font.c ****   
 397:..\u8g2\csrc/u8g2_font.c ****   /* target position on the screen */
 398:..\u8g2\csrc/u8g2_font.c ****   u8g2_uint_t x, y;
 399:..\u8g2\csrc/u8g2_font.c ****   
 400:..\u8g2\csrc/u8g2_font.c ****   u8g2_font_decode_t *decode = &(u8g2->font_decode);
 401:..\u8g2\csrc/u8g2_font.c ****   
 402:..\u8g2\csrc/u8g2_font.c ****   cnt = len;
 403:..\u8g2\csrc/u8g2_font.c ****   
 404:..\u8g2\csrc/u8g2_font.c ****   /* get the local position */
 405:..\u8g2\csrc/u8g2_font.c ****   lx = decode->x;
 406:..\u8g2\csrc/u8g2_font.c ****   ly = decode->y;
 407:..\u8g2\csrc/u8g2_font.c ****   
 408:..\u8g2\csrc/u8g2_font.c ****   for(;;)
 409:..\u8g2\csrc/u8g2_font.c ****   {
 410:..\u8g2\csrc/u8g2_font.c ****     /* calculate the number of pixel to the right edge of the glyph */
 411:..\u8g2\csrc/u8g2_font.c ****     rem = decode->glyph_width;
 412:..\u8g2\csrc/u8g2_font.c ****     rem -= lx;
 413:..\u8g2\csrc/u8g2_font.c ****     
 414:..\u8g2\csrc/u8g2_font.c ****     /* calculate how many pixel to draw. This is either to the right edge */
 415:..\u8g2\csrc/u8g2_font.c ****     /* or lesser, if not enough pixel are left */
 416:..\u8g2\csrc/u8g2_font.c ****     current = rem;
 417:..\u8g2\csrc/u8g2_font.c ****     if ( cnt < rem )
 418:..\u8g2\csrc/u8g2_font.c ****       current = cnt;
 419:..\u8g2\csrc/u8g2_font.c ****     
 420:..\u8g2\csrc/u8g2_font.c ****     
 421:..\u8g2\csrc/u8g2_font.c ****     /* now draw the line, but apply the rotation around the glyph target position */
 422:..\u8g2\csrc/u8g2_font.c ****     //u8g2_font_decode_draw_pixel(u8g2, lx,ly,current, is_foreground);
 423:..\u8g2\csrc/u8g2_font.c **** 
 424:..\u8g2\csrc/u8g2_font.c ****     /* get target position */
 425:..\u8g2\csrc/u8g2_font.c ****     x = decode->target_x;
 426:..\u8g2\csrc/u8g2_font.c ****     y = decode->target_y;
 427:..\u8g2\csrc/u8g2_font.c **** 
 428:..\u8g2\csrc/u8g2_font.c ****     /* apply rotation */
 429:..\u8g2\csrc/u8g2_font.c **** #ifdef U8G2_WITH_FONT_ROTATION
 430:..\u8g2\csrc/u8g2_font.c ****     
 431:..\u8g2\csrc/u8g2_font.c ****     x = u8g2_add_vector_x(x, lx, ly, decode->dir);
 432:..\u8g2\csrc/u8g2_font.c ****     y = u8g2_add_vector_y(y, lx, ly, decode->dir);
 433:..\u8g2\csrc/u8g2_font.c ****     
 434:..\u8g2\csrc/u8g2_font.c ****     //u8g2_add_vector(&x, &y, lx, ly, decode->dir);
 435:..\u8g2\csrc/u8g2_font.c ****     
 436:..\u8g2\csrc/u8g2_font.c **** #else
ARM GAS  C:\Users\brian\AppData\Local\Temp\ccTYhJxe.s 			page 10


 437:..\u8g2\csrc/u8g2_font.c ****     x += lx;
 438:..\u8g2\csrc/u8g2_font.c ****     y += ly;
 439:..\u8g2\csrc/u8g2_font.c **** #endif
 440:..\u8g2\csrc/u8g2_font.c ****     
 441:..\u8g2\csrc/u8g2_font.c ****     /* draw foreground and background (if required) */
 442:..\u8g2\csrc/u8g2_font.c ****     if ( is_foreground )
 443:..\u8g2\csrc/u8g2_font.c ****     {
 444:..\u8g2\csrc/u8g2_font.c ****       u8g2->draw_color = decode->fg_color;			/* draw_color will be restored later */
 445:..\u8g2\csrc/u8g2_font.c ****       u8g2_DrawHVLine(u8g2, 
 446:..\u8g2\csrc/u8g2_font.c **** 	x, 
 447:..\u8g2\csrc/u8g2_font.c **** 	y, 
 448:..\u8g2\csrc/u8g2_font.c **** 	current, 
 449:..\u8g2\csrc/u8g2_font.c **** #ifdef U8G2_WITH_FONT_ROTATION
 450:..\u8g2\csrc/u8g2_font.c **** 	/* dir */ decode->dir
 451:..\u8g2\csrc/u8g2_font.c **** #else
 452:..\u8g2\csrc/u8g2_font.c **** 	0
 453:..\u8g2\csrc/u8g2_font.c **** #endif
 454:..\u8g2\csrc/u8g2_font.c ****       );
 455:..\u8g2\csrc/u8g2_font.c ****     }
 456:..\u8g2\csrc/u8g2_font.c ****     else if ( decode->is_transparent == 0 )    
 457:..\u8g2\csrc/u8g2_font.c ****     {
 458:..\u8g2\csrc/u8g2_font.c ****       u8g2->draw_color = decode->bg_color;			/* draw_color will be restored later */
 459:..\u8g2\csrc/u8g2_font.c ****       u8g2_DrawHVLine(u8g2, 
 460:..\u8g2\csrc/u8g2_font.c **** 	x, 
 461:..\u8g2\csrc/u8g2_font.c **** 	y, 
 462:..\u8g2\csrc/u8g2_font.c **** 	current, 
 463:..\u8g2\csrc/u8g2_font.c **** #ifdef U8G2_WITH_FONT_ROTATION
 464:..\u8g2\csrc/u8g2_font.c **** 	/* dir */ decode->dir
 465:..\u8g2\csrc/u8g2_font.c **** #else
 466:..\u8g2\csrc/u8g2_font.c **** 	0
 467:..\u8g2\csrc/u8g2_font.c **** #endif
 468:..\u8g2\csrc/u8g2_font.c ****       );   
 469:..\u8g2\csrc/u8g2_font.c ****     }
 470:..\u8g2\csrc/u8g2_font.c ****     
 471:..\u8g2\csrc/u8g2_font.c ****     /* check, whether the end of the run length code has been reached */
 472:..\u8g2\csrc/u8g2_font.c ****     if ( cnt < rem )
 473:..\u8g2\csrc/u8g2_font.c ****       break;
 474:..\u8g2\csrc/u8g2_font.c ****     cnt -= rem;
 475:..\u8g2\csrc/u8g2_font.c ****     lx = 0;
 476:..\u8g2\csrc/u8g2_font.c ****     ly++;
 477:..\u8g2\csrc/u8g2_font.c ****   }
 478:..\u8g2\csrc/u8g2_font.c ****   lx += cnt;
 479:..\u8g2\csrc/u8g2_font.c ****   
 480:..\u8g2\csrc/u8g2_font.c ****   decode->x = lx;
 481:..\u8g2\csrc/u8g2_font.c ****   decode->y = ly;
 482:..\u8g2\csrc/u8g2_font.c ****   
 483:..\u8g2\csrc/u8g2_font.c **** }
 484:..\u8g2\csrc/u8g2_font.c **** 
 485:..\u8g2\csrc/u8g2_font.c **** static void u8g2_font_setup_decode(u8g2_t *u8g2, const uint8_t *glyph_data)
 486:..\u8g2\csrc/u8g2_font.c **** {
 487:..\u8g2\csrc/u8g2_font.c ****   u8g2_font_decode_t *decode = &(u8g2->font_decode);
 488:..\u8g2\csrc/u8g2_font.c ****   decode->decode_ptr = glyph_data;
 489:..\u8g2\csrc/u8g2_font.c ****   decode->decode_bit_pos = 0;
 490:..\u8g2\csrc/u8g2_font.c ****   
 491:..\u8g2\csrc/u8g2_font.c ****   /* 8 Nov 2015, this is already done in the glyph data search procedure */
 492:..\u8g2\csrc/u8g2_font.c ****   /*
 493:..\u8g2\csrc/u8g2_font.c ****   decode->decode_ptr += 1;
ARM GAS  C:\Users\brian\AppData\Local\Temp\ccTYhJxe.s 			page 11


 494:..\u8g2\csrc/u8g2_font.c ****   decode->decode_ptr += 1;
 495:..\u8g2\csrc/u8g2_font.c ****   */
 496:..\u8g2\csrc/u8g2_font.c ****   
 497:..\u8g2\csrc/u8g2_font.c ****   decode->glyph_width = u8g2_font_decode_get_unsigned_bits(decode, u8g2->font_info.bits_per_char_wi
 498:..\u8g2\csrc/u8g2_font.c ****   decode->glyph_height = u8g2_font_decode_get_unsigned_bits(decode,u8g2->font_info.bits_per_char_he
 499:..\u8g2\csrc/u8g2_font.c ****   
 500:..\u8g2\csrc/u8g2_font.c ****   decode->fg_color = u8g2->draw_color;
 501:..\u8g2\csrc/u8g2_font.c ****   decode->bg_color = (decode->fg_color == 0 ? 1 : 0);
 502:..\u8g2\csrc/u8g2_font.c **** }
 503:..\u8g2\csrc/u8g2_font.c **** 
 504:..\u8g2\csrc/u8g2_font.c **** 
 505:..\u8g2\csrc/u8g2_font.c **** /*
 506:..\u8g2\csrc/u8g2_font.c ****   Description:
 507:..\u8g2\csrc/u8g2_font.c ****     Decode and draw a glyph.
 508:..\u8g2\csrc/u8g2_font.c ****   Args:
 509:..\u8g2\csrc/u8g2_font.c ****     glyph_data: 					Pointer to the compressed glyph data of the font
 510:..\u8g2\csrc/u8g2_font.c ****     u8g2->font_decode.target_x		X position
 511:..\u8g2\csrc/u8g2_font.c ****     u8g2->font_decode.target_y		Y position
 512:..\u8g2\csrc/u8g2_font.c ****     u8g2->font_decode.is_transparent	Transparent mode
 513:..\u8g2\csrc/u8g2_font.c ****   Return:
 514:..\u8g2\csrc/u8g2_font.c ****     Width (delta x advance) of the glyph.
 515:..\u8g2\csrc/u8g2_font.c ****   Calls:
 516:..\u8g2\csrc/u8g2_font.c ****     u8g2_font_decode_len()
 517:..\u8g2\csrc/u8g2_font.c **** */
 518:..\u8g2\csrc/u8g2_font.c **** /* optimized */
 519:..\u8g2\csrc/u8g2_font.c **** int8_t u8g2_font_decode_glyph(u8g2_t *u8g2, const uint8_t *glyph_data)
 520:..\u8g2\csrc/u8g2_font.c **** {
 521:..\u8g2\csrc/u8g2_font.c ****   uint8_t a, b;
 522:..\u8g2\csrc/u8g2_font.c ****   int8_t x, y;
 523:..\u8g2\csrc/u8g2_font.c ****   int8_t d;
 524:..\u8g2\csrc/u8g2_font.c ****   int8_t h;
 525:..\u8g2\csrc/u8g2_font.c ****   u8g2_font_decode_t *decode = &(u8g2->font_decode);
 526:..\u8g2\csrc/u8g2_font.c ****     
 527:..\u8g2\csrc/u8g2_font.c ****   u8g2_font_setup_decode(u8g2, glyph_data);     /* set values in u8g2->font_decode data structure *
 528:..\u8g2\csrc/u8g2_font.c ****   h = u8g2->font_decode.glyph_height;
 529:..\u8g2\csrc/u8g2_font.c ****   
 530:..\u8g2\csrc/u8g2_font.c ****   x = u8g2_font_decode_get_signed_bits(decode, u8g2->font_info.bits_per_char_x);
 531:..\u8g2\csrc/u8g2_font.c ****   y = u8g2_font_decode_get_signed_bits(decode, u8g2->font_info.bits_per_char_y);
 532:..\u8g2\csrc/u8g2_font.c ****   d = u8g2_font_decode_get_signed_bits(decode, u8g2->font_info.bits_per_delta_x);
 533:..\u8g2\csrc/u8g2_font.c ****   
 534:..\u8g2\csrc/u8g2_font.c ****   if ( decode->glyph_width > 0 )
 535:..\u8g2\csrc/u8g2_font.c ****   {
 536:..\u8g2\csrc/u8g2_font.c **** #ifdef U8G2_WITH_FONT_ROTATION
 537:..\u8g2\csrc/u8g2_font.c ****     decode->target_x = u8g2_add_vector_x(decode->target_x, x, -(h+y), decode->dir);
 538:..\u8g2\csrc/u8g2_font.c ****     decode->target_y = u8g2_add_vector_y(decode->target_y, x, -(h+y), decode->dir);
 539:..\u8g2\csrc/u8g2_font.c ****     
 540:..\u8g2\csrc/u8g2_font.c ****     //u8g2_add_vector(&(decode->target_x), &(decode->target_y), x, -(h+y), decode->dir);
 541:..\u8g2\csrc/u8g2_font.c **** 
 542:..\u8g2\csrc/u8g2_font.c **** #else
 543:..\u8g2\csrc/u8g2_font.c ****     decode->target_x += x;
 544:..\u8g2\csrc/u8g2_font.c ****     decode->target_y -= h+y;
 545:..\u8g2\csrc/u8g2_font.c **** #endif
 546:..\u8g2\csrc/u8g2_font.c ****     //u8g2_add_vector(&(decode->target_x), &(decode->target_y), x, -(h+y), decode->dir);
 547:..\u8g2\csrc/u8g2_font.c **** 
 548:..\u8g2\csrc/u8g2_font.c **** #ifdef U8G2_WITH_INTERSECTION
 549:..\u8g2\csrc/u8g2_font.c ****     {
 550:..\u8g2\csrc/u8g2_font.c ****       u8g2_uint_t x0, x1, y0, y1;
ARM GAS  C:\Users\brian\AppData\Local\Temp\ccTYhJxe.s 			page 12


 551:..\u8g2\csrc/u8g2_font.c ****       x0 = decode->target_x;
 552:..\u8g2\csrc/u8g2_font.c ****       y0 = decode->target_y;
 553:..\u8g2\csrc/u8g2_font.c ****       x1 = x0;
 554:..\u8g2\csrc/u8g2_font.c ****       y1 = y0;
 555:..\u8g2\csrc/u8g2_font.c ****       
 556:..\u8g2\csrc/u8g2_font.c **** #ifdef U8G2_WITH_FONT_ROTATION
 557:..\u8g2\csrc/u8g2_font.c ****       switch(decode->dir)
 558:..\u8g2\csrc/u8g2_font.c ****       {
 559:..\u8g2\csrc/u8g2_font.c **** 	case 0:
 560:..\u8g2\csrc/u8g2_font.c **** 	    x1 += decode->glyph_width;
 561:..\u8g2\csrc/u8g2_font.c **** 	    y1 += h;
 562:..\u8g2\csrc/u8g2_font.c **** 	    break;
 563:..\u8g2\csrc/u8g2_font.c **** 	case 1:
 564:..\u8g2\csrc/u8g2_font.c **** 	    x0 -= h;
 565:..\u8g2\csrc/u8g2_font.c **** 	    x0++;	/* shift down, because of assymetric boundaries for the interseciton test */
 566:..\u8g2\csrc/u8g2_font.c **** 	    x1++;
 567:..\u8g2\csrc/u8g2_font.c **** 	    y1 += decode->glyph_width;
 568:..\u8g2\csrc/u8g2_font.c **** 	    break;
 569:..\u8g2\csrc/u8g2_font.c **** 	case 2:
 570:..\u8g2\csrc/u8g2_font.c **** 	    x0 -= decode->glyph_width;
 571:..\u8g2\csrc/u8g2_font.c **** 	    x0++;	/* shift down, because of assymetric boundaries for the interseciton test */
 572:..\u8g2\csrc/u8g2_font.c **** 	    x1++;
 573:..\u8g2\csrc/u8g2_font.c **** 	    y0 -= h;
 574:..\u8g2\csrc/u8g2_font.c **** 	    y0++;	/* shift down, because of assymetric boundaries for the interseciton test */
 575:..\u8g2\csrc/u8g2_font.c **** 	    y1++;
 576:..\u8g2\csrc/u8g2_font.c **** 	    break;	  
 577:..\u8g2\csrc/u8g2_font.c **** 	case 3:
 578:..\u8g2\csrc/u8g2_font.c **** 	    x1 += h;
 579:..\u8g2\csrc/u8g2_font.c **** 	    y0 -= decode->glyph_width;
 580:..\u8g2\csrc/u8g2_font.c **** 	    y0++;	/* shift down, because of assymetric boundaries for the interseciton test */
 581:..\u8g2\csrc/u8g2_font.c **** 	    y1++;
 582:..\u8g2\csrc/u8g2_font.c **** 	    break;	  
 583:..\u8g2\csrc/u8g2_font.c ****       }
 584:..\u8g2\csrc/u8g2_font.c **** #else /* U8G2_WITH_FONT_ROTATION */
 585:..\u8g2\csrc/u8g2_font.c ****       x1 += decode->glyph_width;
 586:..\u8g2\csrc/u8g2_font.c ****       y1 += h;      
 587:..\u8g2\csrc/u8g2_font.c **** #endif
 588:..\u8g2\csrc/u8g2_font.c ****       
 589:..\u8g2\csrc/u8g2_font.c ****       if ( u8g2_IsIntersection(u8g2, x0, y0, x1, y1) == 0 ) 
 590:..\u8g2\csrc/u8g2_font.c **** 	return d;
 591:..\u8g2\csrc/u8g2_font.c ****     }
 592:..\u8g2\csrc/u8g2_font.c **** #endif /* U8G2_WITH_INTERSECTION */
 593:..\u8g2\csrc/u8g2_font.c ****    
 594:..\u8g2\csrc/u8g2_font.c ****     /* reset local x/y position */
 595:..\u8g2\csrc/u8g2_font.c ****     decode->x = 0;
 596:..\u8g2\csrc/u8g2_font.c ****     decode->y = 0;
 597:..\u8g2\csrc/u8g2_font.c ****     
 598:..\u8g2\csrc/u8g2_font.c ****     /* decode glyph */
 599:..\u8g2\csrc/u8g2_font.c ****     for(;;)
 600:..\u8g2\csrc/u8g2_font.c ****     {
 601:..\u8g2\csrc/u8g2_font.c ****       a = u8g2_font_decode_get_unsigned_bits(decode, u8g2->font_info.bits_per_0);
 602:..\u8g2\csrc/u8g2_font.c ****       b = u8g2_font_decode_get_unsigned_bits(decode, u8g2->font_info.bits_per_1);
 603:..\u8g2\csrc/u8g2_font.c ****       do
 604:..\u8g2\csrc/u8g2_font.c ****       {
 605:..\u8g2\csrc/u8g2_font.c **** 	u8g2_font_decode_len(u8g2, a, 0);
 606:..\u8g2\csrc/u8g2_font.c **** 	u8g2_font_decode_len(u8g2, b, 1);
 607:..\u8g2\csrc/u8g2_font.c ****       } while( u8g2_font_decode_get_unsigned_bits(decode, 1) != 0 );
ARM GAS  C:\Users\brian\AppData\Local\Temp\ccTYhJxe.s 			page 13


 608:..\u8g2\csrc/u8g2_font.c **** 
 609:..\u8g2\csrc/u8g2_font.c ****       if ( decode->y >= h )
 610:..\u8g2\csrc/u8g2_font.c **** 	break;
 611:..\u8g2\csrc/u8g2_font.c ****     }
 612:..\u8g2\csrc/u8g2_font.c ****     
 613:..\u8g2\csrc/u8g2_font.c ****     /* restore the u8g2 draw color, because this is modified by the decode algo */
 614:..\u8g2\csrc/u8g2_font.c ****     u8g2->draw_color = decode->fg_color;
 615:..\u8g2\csrc/u8g2_font.c ****   }
 616:..\u8g2\csrc/u8g2_font.c ****   return d;
 617:..\u8g2\csrc/u8g2_font.c **** }
 618:..\u8g2\csrc/u8g2_font.c **** 
 619:..\u8g2\csrc/u8g2_font.c **** /*
 620:..\u8g2\csrc/u8g2_font.c ****   Description:
 621:..\u8g2\csrc/u8g2_font.c ****     Find the starting point of the glyph data.
 622:..\u8g2\csrc/u8g2_font.c ****   Args:
 623:..\u8g2\csrc/u8g2_font.c ****     encoding: Encoding (ASCII or Unicode) of the glyph
 624:..\u8g2\csrc/u8g2_font.c ****   Return:
 625:..\u8g2\csrc/u8g2_font.c ****     Address of the glyph data or NULL, if the encoding is not avialable in the font.
 626:..\u8g2\csrc/u8g2_font.c **** */
 627:..\u8g2\csrc/u8g2_font.c **** const uint8_t *u8g2_font_get_glyph_data(u8g2_t *u8g2, uint16_t encoding)
 628:..\u8g2\csrc/u8g2_font.c **** {
 629:..\u8g2\csrc/u8g2_font.c ****   const uint8_t *font = u8g2->font;
 630:..\u8g2\csrc/u8g2_font.c ****   font += U8G2_FONT_DATA_STRUCT_SIZE;
 631:..\u8g2\csrc/u8g2_font.c **** 
 632:..\u8g2\csrc/u8g2_font.c ****   
 633:..\u8g2\csrc/u8g2_font.c ****   if ( encoding <= 255 )
 634:..\u8g2\csrc/u8g2_font.c ****   {
 635:..\u8g2\csrc/u8g2_font.c ****     if ( encoding >= 'a' )
 636:..\u8g2\csrc/u8g2_font.c ****     {
 637:..\u8g2\csrc/u8g2_font.c ****       font += u8g2->font_info.start_pos_lower_a;
 638:..\u8g2\csrc/u8g2_font.c ****     }
 639:..\u8g2\csrc/u8g2_font.c ****     else if ( encoding >= 'A' )
 640:..\u8g2\csrc/u8g2_font.c ****     {
 641:..\u8g2\csrc/u8g2_font.c ****       font += u8g2->font_info.start_pos_upper_A;
 642:..\u8g2\csrc/u8g2_font.c ****     }
 643:..\u8g2\csrc/u8g2_font.c ****     
 644:..\u8g2\csrc/u8g2_font.c ****     for(;;)
 645:..\u8g2\csrc/u8g2_font.c ****     {
 646:..\u8g2\csrc/u8g2_font.c ****       if ( u8x8_pgm_read( font + 1 ) == 0 )
 647:..\u8g2\csrc/u8g2_font.c **** 	break;
 648:..\u8g2\csrc/u8g2_font.c ****       if ( u8x8_pgm_read( font ) == encoding )
 649:..\u8g2\csrc/u8g2_font.c ****       {
 650:..\u8g2\csrc/u8g2_font.c **** 	return font+2;	/* skip encoding and glyph size */
 651:..\u8g2\csrc/u8g2_font.c ****       }
 652:..\u8g2\csrc/u8g2_font.c ****       font += u8x8_pgm_read( font + 1 );
 653:..\u8g2\csrc/u8g2_font.c ****     }
 654:..\u8g2\csrc/u8g2_font.c ****   }
 655:..\u8g2\csrc/u8g2_font.c **** #ifdef U8G2_WITH_UNICODE
 656:..\u8g2\csrc/u8g2_font.c ****   else
 657:..\u8g2\csrc/u8g2_font.c ****   {
 658:..\u8g2\csrc/u8g2_font.c ****     uint16_t e;
 659:..\u8g2\csrc/u8g2_font.c ****     const uint8_t *unicode_lookup_table;
 660:..\u8g2\csrc/u8g2_font.c ****     
 661:..\u8g2\csrc/u8g2_font.c **** // removed, there is now the new index table
 662:..\u8g2\csrc/u8g2_font.c **** //#ifdef  __unix__
 663:..\u8g2\csrc/u8g2_font.c **** //    if ( u8g2->last_font_data != NULL && encoding >= u8g2->last_unicode )
 664:..\u8g2\csrc/u8g2_font.c **** //    {
ARM GAS  C:\Users\brian\AppData\Local\Temp\ccTYhJxe.s 			page 14


 665:..\u8g2\csrc/u8g2_font.c **** //	font = u8g2->last_font_data;
 666:..\u8g2\csrc/u8g2_font.c **** //    }
 667:..\u8g2\csrc/u8g2_font.c **** //    else
 668:..\u8g2\csrc/u8g2_font.c **** //#endif 
 669:..\u8g2\csrc/u8g2_font.c **** 
 670:..\u8g2\csrc/u8g2_font.c ****     font += u8g2->font_info.start_pos_unicode;
 671:..\u8g2\csrc/u8g2_font.c ****     unicode_lookup_table = font; 
 672:..\u8g2\csrc/u8g2_font.c ****   
 673:..\u8g2\csrc/u8g2_font.c ****     /* issue 596: search for the glyph start in the unicode lookup table */
 674:..\u8g2\csrc/u8g2_font.c ****     do
 675:..\u8g2\csrc/u8g2_font.c ****     {
 676:..\u8g2\csrc/u8g2_font.c ****       font += u8g2_font_get_word(unicode_lookup_table, 0);
 677:..\u8g2\csrc/u8g2_font.c ****       e = u8g2_font_get_word(unicode_lookup_table, 2);
 678:..\u8g2\csrc/u8g2_font.c ****       unicode_lookup_table+=4;
 679:..\u8g2\csrc/u8g2_font.c ****     } while( e < encoding );
 680:..\u8g2\csrc/u8g2_font.c ****     
 681:..\u8g2\csrc/u8g2_font.c ****   
 682:..\u8g2\csrc/u8g2_font.c ****     for(;;)
 683:..\u8g2\csrc/u8g2_font.c ****     {
 684:..\u8g2\csrc/u8g2_font.c ****       e = u8x8_pgm_read( font );
 685:..\u8g2\csrc/u8g2_font.c ****       e <<= 8;
 686:..\u8g2\csrc/u8g2_font.c ****       e |= u8x8_pgm_read( font + 1 );
 687:..\u8g2\csrc/u8g2_font.c ****   
 688:..\u8g2\csrc/u8g2_font.c **** // removed, there is now the new index table  
 689:..\u8g2\csrc/u8g2_font.c **** //#ifdef  __unix__
 690:..\u8g2\csrc/u8g2_font.c **** //      if ( encoding < e )
 691:..\u8g2\csrc/u8g2_font.c **** //        break;
 692:..\u8g2\csrc/u8g2_font.c **** //#endif 
 693:..\u8g2\csrc/u8g2_font.c **** 
 694:..\u8g2\csrc/u8g2_font.c ****       if ( e == 0 )
 695:..\u8g2\csrc/u8g2_font.c **** 	break;
 696:..\u8g2\csrc/u8g2_font.c ****   
 697:..\u8g2\csrc/u8g2_font.c ****       if ( e == encoding )
 698:..\u8g2\csrc/u8g2_font.c ****       {
 699:..\u8g2\csrc/u8g2_font.c **** // removed, there is now the new index table
 700:..\u8g2\csrc/u8g2_font.c **** //#ifdef  __unix__
 701:..\u8g2\csrc/u8g2_font.c **** //	u8g2->last_font_data = font;
 702:..\u8g2\csrc/u8g2_font.c **** //	u8g2->last_unicode = encoding;
 703:..\u8g2\csrc/u8g2_font.c **** //#endif 
 704:..\u8g2\csrc/u8g2_font.c **** 	return font+3;	/* skip encoding and glyph size */
 705:..\u8g2\csrc/u8g2_font.c ****       }
 706:..\u8g2\csrc/u8g2_font.c ****       font += u8x8_pgm_read( font + 2 );
 707:..\u8g2\csrc/u8g2_font.c ****     }  
 708:..\u8g2\csrc/u8g2_font.c ****   }
 709:..\u8g2\csrc/u8g2_font.c **** #endif
 710:..\u8g2\csrc/u8g2_font.c ****   
 711:..\u8g2\csrc/u8g2_font.c ****   return NULL;
 712:..\u8g2\csrc/u8g2_font.c **** }
 713:..\u8g2\csrc/u8g2_font.c **** 
 714:..\u8g2\csrc/u8g2_font.c **** static u8g2_uint_t u8g2_font_draw_glyph(u8g2_t *u8g2, u8g2_uint_t x, u8g2_uint_t y, uint16_t encodi
 715:..\u8g2\csrc/u8g2_font.c **** {
 716:..\u8g2\csrc/u8g2_font.c ****   u8g2_uint_t dx = 0;
 717:..\u8g2\csrc/u8g2_font.c ****   u8g2->font_decode.target_x = x;
 718:..\u8g2\csrc/u8g2_font.c ****   u8g2->font_decode.target_y = y;
 719:..\u8g2\csrc/u8g2_font.c ****   //u8g2->font_decode.is_transparent = is_transparent; this is already set
 720:..\u8g2\csrc/u8g2_font.c ****   //u8g2->font_decode.dir = dir;
 721:..\u8g2\csrc/u8g2_font.c ****   const uint8_t *glyph_data = u8g2_font_get_glyph_data(u8g2, encoding);
ARM GAS  C:\Users\brian\AppData\Local\Temp\ccTYhJxe.s 			page 15


 722:..\u8g2\csrc/u8g2_font.c ****   if ( glyph_data != NULL )
 723:..\u8g2\csrc/u8g2_font.c ****   {
 724:..\u8g2\csrc/u8g2_font.c ****     dx = u8g2_font_decode_glyph(u8g2, glyph_data);
 725:..\u8g2\csrc/u8g2_font.c ****   }
 726:..\u8g2\csrc/u8g2_font.c ****   return dx;
 727:..\u8g2\csrc/u8g2_font.c **** }
 728:..\u8g2\csrc/u8g2_font.c **** 
 729:..\u8g2\csrc/u8g2_font.c **** 
 730:..\u8g2\csrc/u8g2_font.c **** 
 731:..\u8g2\csrc/u8g2_font.c **** uint8_t u8g2_IsGlyph(u8g2_t *u8g2, uint16_t requested_encoding)
 732:..\u8g2\csrc/u8g2_font.c **** {
 733:..\u8g2\csrc/u8g2_font.c ****   /* updated to new code */
 734:..\u8g2\csrc/u8g2_font.c ****   if ( u8g2_font_get_glyph_data(u8g2, requested_encoding) != NULL )
 735:..\u8g2\csrc/u8g2_font.c ****     return 1;
 736:..\u8g2\csrc/u8g2_font.c ****   return 0;
 737:..\u8g2\csrc/u8g2_font.c **** }
 738:..\u8g2\csrc/u8g2_font.c **** 
 739:..\u8g2\csrc/u8g2_font.c **** /* side effect: updates u8g2->font_decode and u8g2->glyph_x_offset */
 740:..\u8g2\csrc/u8g2_font.c **** int8_t u8g2_GetGlyphWidth(u8g2_t *u8g2, uint16_t requested_encoding)
 741:..\u8g2\csrc/u8g2_font.c **** {
 742:..\u8g2\csrc/u8g2_font.c ****   const uint8_t *glyph_data = u8g2_font_get_glyph_data(u8g2, requested_encoding);
 743:..\u8g2\csrc/u8g2_font.c ****   if ( glyph_data == NULL )
 744:..\u8g2\csrc/u8g2_font.c ****     return 0; 
 745:..\u8g2\csrc/u8g2_font.c ****   
 746:..\u8g2\csrc/u8g2_font.c ****   u8g2_font_setup_decode(u8g2, glyph_data);
 747:..\u8g2\csrc/u8g2_font.c ****   u8g2->glyph_x_offset = u8g2_font_decode_get_signed_bits(&(u8g2->font_decode), u8g2->font_info.bit
 748:..\u8g2\csrc/u8g2_font.c ****   u8g2_font_decode_get_signed_bits(&(u8g2->font_decode), u8g2->font_info.bits_per_char_y);
 749:..\u8g2\csrc/u8g2_font.c ****   
 750:..\u8g2\csrc/u8g2_font.c ****   /* glyph width is here: u8g2->font_decode.glyph_width */
 751:..\u8g2\csrc/u8g2_font.c **** 
 752:..\u8g2\csrc/u8g2_font.c ****   return u8g2_font_decode_get_signed_bits(&(u8g2->font_decode), u8g2->font_info.bits_per_delta_x);
 753:..\u8g2\csrc/u8g2_font.c **** }
 754:..\u8g2\csrc/u8g2_font.c **** 
 755:..\u8g2\csrc/u8g2_font.c **** 
 756:..\u8g2\csrc/u8g2_font.c **** /*
 757:..\u8g2\csrc/u8g2_font.c ****   set one of:
 758:..\u8g2\csrc/u8g2_font.c ****     U8G2_FONT_MODE_TRANSPARENT
 759:..\u8g2\csrc/u8g2_font.c ****     U8G2_FONT_MODE_SOLID
 760:..\u8g2\csrc/u8g2_font.c ****     U8G2_FONT_MODE_NONE
 761:..\u8g2\csrc/u8g2_font.c ****   This has been changed for the new font procedures  
 762:..\u8g2\csrc/u8g2_font.c **** */
 763:..\u8g2\csrc/u8g2_font.c **** void u8g2_SetFontMode(u8g2_t *u8g2, uint8_t is_transparent)
 764:..\u8g2\csrc/u8g2_font.c **** {
 765:..\u8g2\csrc/u8g2_font.c ****   u8g2->font_decode.is_transparent = is_transparent;		// new font procedures
 766:..\u8g2\csrc/u8g2_font.c **** }
 767:..\u8g2\csrc/u8g2_font.c **** 
 768:..\u8g2\csrc/u8g2_font.c **** u8g2_uint_t u8g2_DrawGlyph(u8g2_t *u8g2, u8g2_uint_t x, u8g2_uint_t y, uint16_t encoding)
 769:..\u8g2\csrc/u8g2_font.c **** {
 770:..\u8g2\csrc/u8g2_font.c **** #ifdef U8G2_WITH_FONT_ROTATION
 771:..\u8g2\csrc/u8g2_font.c ****   switch(u8g2->font_decode.dir)
 772:..\u8g2\csrc/u8g2_font.c ****   {
 773:..\u8g2\csrc/u8g2_font.c ****     case 0:
 774:..\u8g2\csrc/u8g2_font.c ****       y += u8g2->font_calc_vref(u8g2);
 775:..\u8g2\csrc/u8g2_font.c ****       break;
 776:..\u8g2\csrc/u8g2_font.c ****     case 1:
 777:..\u8g2\csrc/u8g2_font.c ****       x -= u8g2->font_calc_vref(u8g2);
 778:..\u8g2\csrc/u8g2_font.c ****       break;
ARM GAS  C:\Users\brian\AppData\Local\Temp\ccTYhJxe.s 			page 16


 779:..\u8g2\csrc/u8g2_font.c ****     case 2:
 780:..\u8g2\csrc/u8g2_font.c ****       y -= u8g2->font_calc_vref(u8g2);
 781:..\u8g2\csrc/u8g2_font.c ****       break;
 782:..\u8g2\csrc/u8g2_font.c ****     case 3:
 783:..\u8g2\csrc/u8g2_font.c ****       x += u8g2->font_calc_vref(u8g2);
 784:..\u8g2\csrc/u8g2_font.c ****       break;
 785:..\u8g2\csrc/u8g2_font.c ****   }
 786:..\u8g2\csrc/u8g2_font.c **** #else
 787:..\u8g2\csrc/u8g2_font.c ****   y += u8g2->font_calc_vref(u8g2);
 788:..\u8g2\csrc/u8g2_font.c **** #endif
 789:..\u8g2\csrc/u8g2_font.c ****   return u8g2_font_draw_glyph(u8g2, x, y, encoding);
 790:..\u8g2\csrc/u8g2_font.c **** }
 791:..\u8g2\csrc/u8g2_font.c **** 
 792:..\u8g2\csrc/u8g2_font.c **** static u8g2_uint_t u8g2_draw_string(u8g2_t *u8g2, u8g2_uint_t x, u8g2_uint_t y, const char *str) U8
 793:..\u8g2\csrc/u8g2_font.c **** static u8g2_uint_t u8g2_draw_string(u8g2_t *u8g2, u8g2_uint_t x, u8g2_uint_t y, const char *str)
 794:..\u8g2\csrc/u8g2_font.c **** {
 795:..\u8g2\csrc/u8g2_font.c ****   uint16_t e;
 796:..\u8g2\csrc/u8g2_font.c ****   u8g2_uint_t delta, sum;
 797:..\u8g2\csrc/u8g2_font.c ****   u8x8_utf8_init(u8g2_GetU8x8(u8g2));
 798:..\u8g2\csrc/u8g2_font.c ****   sum = 0;
 799:..\u8g2\csrc/u8g2_font.c ****   for(;;)
 800:..\u8g2\csrc/u8g2_font.c ****   {
 801:..\u8g2\csrc/u8g2_font.c ****     e = u8g2->u8x8.next_cb(u8g2_GetU8x8(u8g2), (uint8_t)*str);
 802:..\u8g2\csrc/u8g2_font.c ****     if ( e == 0x0ffff )
 803:..\u8g2\csrc/u8g2_font.c ****       break;
 804:..\u8g2\csrc/u8g2_font.c ****     str++;
 805:..\u8g2\csrc/u8g2_font.c ****     if ( e != 0x0fffe )
 806:..\u8g2\csrc/u8g2_font.c ****     {
 807:..\u8g2\csrc/u8g2_font.c ****       delta = u8g2_DrawGlyph(u8g2, x, y, e);
 808:..\u8g2\csrc/u8g2_font.c ****     
 809:..\u8g2\csrc/u8g2_font.c **** #ifdef U8G2_WITH_FONT_ROTATION
 810:..\u8g2\csrc/u8g2_font.c ****       switch(u8g2->font_decode.dir)
 811:..\u8g2\csrc/u8g2_font.c ****       {
 812:..\u8g2\csrc/u8g2_font.c **** 	case 0:
 813:..\u8g2\csrc/u8g2_font.c **** 	  x += delta;
 814:..\u8g2\csrc/u8g2_font.c **** 	  break;
 815:..\u8g2\csrc/u8g2_font.c **** 	case 1:
 816:..\u8g2\csrc/u8g2_font.c **** 	  y += delta;
 817:..\u8g2\csrc/u8g2_font.c **** 	  break;
 818:..\u8g2\csrc/u8g2_font.c **** 	case 2:
 819:..\u8g2\csrc/u8g2_font.c **** 	  x -= delta;
 820:..\u8g2\csrc/u8g2_font.c **** 	  break;
 821:..\u8g2\csrc/u8g2_font.c **** 	case 3:
 822:..\u8g2\csrc/u8g2_font.c **** 	  y -= delta;
 823:..\u8g2\csrc/u8g2_font.c **** 	  break;
 824:..\u8g2\csrc/u8g2_font.c ****       }
 825:..\u8g2\csrc/u8g2_font.c ****       
 826:..\u8g2\csrc/u8g2_font.c ****       /*
 827:..\u8g2\csrc/u8g2_font.c ****       // requires 10 bytes more on avr
 828:..\u8g2\csrc/u8g2_font.c ****       x = u8g2_add_vector_x(x, delta, 0, u8g2->font_decode.dir);
 829:..\u8g2\csrc/u8g2_font.c ****       y = u8g2_add_vector_y(y, delta, 0, u8g2->font_decode.dir);
 830:..\u8g2\csrc/u8g2_font.c ****       */
 831:..\u8g2\csrc/u8g2_font.c **** 
 832:..\u8g2\csrc/u8g2_font.c **** #else
 833:..\u8g2\csrc/u8g2_font.c ****       x += delta;
 834:..\u8g2\csrc/u8g2_font.c **** #endif
 835:..\u8g2\csrc/u8g2_font.c **** 
ARM GAS  C:\Users\brian\AppData\Local\Temp\ccTYhJxe.s 			page 17


 836:..\u8g2\csrc/u8g2_font.c ****       sum += delta;    
 837:..\u8g2\csrc/u8g2_font.c ****     }
 838:..\u8g2\csrc/u8g2_font.c ****   }
 839:..\u8g2\csrc/u8g2_font.c ****   return sum;
 840:..\u8g2\csrc/u8g2_font.c **** }
 841:..\u8g2\csrc/u8g2_font.c **** 
 842:..\u8g2\csrc/u8g2_font.c **** u8g2_uint_t u8g2_DrawStr(u8g2_t *u8g2, u8g2_uint_t x, u8g2_uint_t y, const char *str)
 843:..\u8g2\csrc/u8g2_font.c **** {
 844:..\u8g2\csrc/u8g2_font.c ****   u8g2->u8x8.next_cb = u8x8_ascii_next;
 845:..\u8g2\csrc/u8g2_font.c ****   return u8g2_draw_string(u8g2, x, y, str);
 846:..\u8g2\csrc/u8g2_font.c **** }
 847:..\u8g2\csrc/u8g2_font.c **** 
 848:..\u8g2\csrc/u8g2_font.c **** /*
 849:..\u8g2\csrc/u8g2_font.c **** source: https://en.wikipedia.org/wiki/UTF-8
 850:..\u8g2\csrc/u8g2_font.c **** Bits	from 		to			bytes	Byte 1 		Byte 2 		Byte 3 		Byte 4 		Byte 5 		Byte 6
 851:..\u8g2\csrc/u8g2_font.c ****   7 	U+0000 		U+007F 		1 		0xxxxxxx
 852:..\u8g2\csrc/u8g2_font.c **** 11 	U+0080 		U+07FF 		2 		110xxxxx 	10xxxxxx
 853:..\u8g2\csrc/u8g2_font.c **** 16 	U+0800 		U+FFFF 		3 		1110xxxx 	10xxxxxx 	10xxxxxx
 854:..\u8g2\csrc/u8g2_font.c **** 21 	U+10000 	U+1FFFFF 	4 		11110xxx 	10xxxxxx 	10xxxxxx 	10xxxxxx
 855:..\u8g2\csrc/u8g2_font.c **** 26 	U+200000 	U+3FFFFFF 	5 		111110xx 	10xxxxxx 	10xxxxxx 	10xxxxxx 	10xxxxxx
 856:..\u8g2\csrc/u8g2_font.c **** 31 	U+4000000 	U+7FFFFFFF 	6 		1111110x 	10xxxxxx 	10xxxxxx 	10xxxxxx 	10xxxxxx 	10xxxxxx  
 857:..\u8g2\csrc/u8g2_font.c **** */
 858:..\u8g2\csrc/u8g2_font.c **** u8g2_uint_t u8g2_DrawUTF8(u8g2_t *u8g2, u8g2_uint_t x, u8g2_uint_t y, const char *str)
 859:..\u8g2\csrc/u8g2_font.c **** {
 860:..\u8g2\csrc/u8g2_font.c ****   u8g2->u8x8.next_cb = u8x8_utf8_next;
 861:..\u8g2\csrc/u8g2_font.c ****   return u8g2_draw_string(u8g2, x, y, str);
 862:..\u8g2\csrc/u8g2_font.c **** }
 863:..\u8g2\csrc/u8g2_font.c **** 
 864:..\u8g2\csrc/u8g2_font.c **** 
 865:..\u8g2\csrc/u8g2_font.c **** 
 866:..\u8g2\csrc/u8g2_font.c **** u8g2_uint_t u8g2_DrawExtendedUTF8(u8g2_t *u8g2, u8g2_uint_t x, u8g2_uint_t y, uint8_t to_left, u8g2
 867:..\u8g2\csrc/u8g2_font.c **** {
 868:..\u8g2\csrc/u8g2_font.c ****   u8g2->u8x8.next_cb = u8x8_utf8_next;
 869:..\u8g2\csrc/u8g2_font.c ****   uint16_t e_prev = 0x0ffff;
 870:..\u8g2\csrc/u8g2_font.c ****   uint16_t e;
 871:..\u8g2\csrc/u8g2_font.c ****   u8g2_uint_t delta, sum, k;
 872:..\u8g2\csrc/u8g2_font.c ****   u8x8_utf8_init(u8g2_GetU8x8(u8g2));
 873:..\u8g2\csrc/u8g2_font.c ****   sum = 0;
 874:..\u8g2\csrc/u8g2_font.c ****   for(;;)
 875:..\u8g2\csrc/u8g2_font.c ****   {
 876:..\u8g2\csrc/u8g2_font.c ****     e = u8g2->u8x8.next_cb(u8g2_GetU8x8(u8g2), (uint8_t)*str);
 877:..\u8g2\csrc/u8g2_font.c ****     if ( e == 0x0ffff )
 878:..\u8g2\csrc/u8g2_font.c ****       break;
 879:..\u8g2\csrc/u8g2_font.c ****     str++;
 880:..\u8g2\csrc/u8g2_font.c ****     if ( e != 0x0fffe )
 881:..\u8g2\csrc/u8g2_font.c ****     {
 882:..\u8g2\csrc/u8g2_font.c ****       delta = u8g2_GetGlyphWidth(u8g2, e);
 883:..\u8g2\csrc/u8g2_font.c **** 	    
 884:..\u8g2\csrc/u8g2_font.c ****       if ( to_left )
 885:..\u8g2\csrc/u8g2_font.c ****       {
 886:..\u8g2\csrc/u8g2_font.c ****         k = u8g2_GetKerning(u8g2, kerning, e, e_prev);
 887:..\u8g2\csrc/u8g2_font.c **** 	delta -= k;
 888:..\u8g2\csrc/u8g2_font.c **** 	x -= delta;
 889:..\u8g2\csrc/u8g2_font.c ****       }
 890:..\u8g2\csrc/u8g2_font.c ****       else
 891:..\u8g2\csrc/u8g2_font.c ****       {
 892:..\u8g2\csrc/u8g2_font.c ****         k = u8g2_GetKerning(u8g2, kerning, e_prev, e);
ARM GAS  C:\Users\brian\AppData\Local\Temp\ccTYhJxe.s 			page 18


 893:..\u8g2\csrc/u8g2_font.c **** 	delta -= k;
 894:..\u8g2\csrc/u8g2_font.c ****       }
 895:..\u8g2\csrc/u8g2_font.c ****       e_prev = e;
 896:..\u8g2\csrc/u8g2_font.c **** 
 897:..\u8g2\csrc/u8g2_font.c ****       u8g2_DrawGlyph(u8g2, x, y, e);
 898:..\u8g2\csrc/u8g2_font.c ****       if ( to_left )
 899:..\u8g2\csrc/u8g2_font.c ****       {
 900:..\u8g2\csrc/u8g2_font.c ****       }
 901:..\u8g2\csrc/u8g2_font.c ****       else
 902:..\u8g2\csrc/u8g2_font.c ****       {
 903:..\u8g2\csrc/u8g2_font.c **** 	x += delta;
 904:..\u8g2\csrc/u8g2_font.c **** 	x -= k;
 905:..\u8g2\csrc/u8g2_font.c ****       }
 906:..\u8g2\csrc/u8g2_font.c ****       
 907:..\u8g2\csrc/u8g2_font.c ****       sum += delta;    
 908:..\u8g2\csrc/u8g2_font.c ****     }
 909:..\u8g2\csrc/u8g2_font.c ****   }
 910:..\u8g2\csrc/u8g2_font.c ****   return sum;
 911:..\u8g2\csrc/u8g2_font.c **** }
 912:..\u8g2\csrc/u8g2_font.c **** 
 913:..\u8g2\csrc/u8g2_font.c **** u8g2_uint_t u8g2_DrawExtUTF8(u8g2_t *u8g2, u8g2_uint_t x, u8g2_uint_t y, uint8_t to_left, const uin
 914:..\u8g2\csrc/u8g2_font.c **** {
 915:..\u8g2\csrc/u8g2_font.c ****   u8g2->u8x8.next_cb = u8x8_utf8_next;
 916:..\u8g2\csrc/u8g2_font.c ****   uint16_t e_prev = 0x0ffff;
 917:..\u8g2\csrc/u8g2_font.c ****   uint16_t e;
 918:..\u8g2\csrc/u8g2_font.c ****   u8g2_uint_t delta, sum, k;
 919:..\u8g2\csrc/u8g2_font.c ****   u8x8_utf8_init(u8g2_GetU8x8(u8g2));
 920:..\u8g2\csrc/u8g2_font.c ****   sum = 0;
 921:..\u8g2\csrc/u8g2_font.c ****   for(;;)
 922:..\u8g2\csrc/u8g2_font.c ****   {
 923:..\u8g2\csrc/u8g2_font.c ****     e = u8g2->u8x8.next_cb(u8g2_GetU8x8(u8g2), (uint8_t)*str);
 924:..\u8g2\csrc/u8g2_font.c ****     if ( e == 0x0ffff )
 925:..\u8g2\csrc/u8g2_font.c ****       break;
 926:..\u8g2\csrc/u8g2_font.c ****     str++;
 927:..\u8g2\csrc/u8g2_font.c ****     if ( e != 0x0fffe )
 928:..\u8g2\csrc/u8g2_font.c ****     {
 929:..\u8g2\csrc/u8g2_font.c ****       delta = u8g2_GetGlyphWidth(u8g2, e);
 930:..\u8g2\csrc/u8g2_font.c **** 	    
 931:..\u8g2\csrc/u8g2_font.c ****       if ( to_left )
 932:..\u8g2\csrc/u8g2_font.c ****       {
 933:..\u8g2\csrc/u8g2_font.c ****         k = u8g2_GetKerningByTable(u8g2, kerning_table, e, e_prev);
 934:..\u8g2\csrc/u8g2_font.c **** 	delta -= k;
 935:..\u8g2\csrc/u8g2_font.c **** 	x -= delta;
 936:..\u8g2\csrc/u8g2_font.c ****       }
 937:..\u8g2\csrc/u8g2_font.c ****       else
 938:..\u8g2\csrc/u8g2_font.c ****       {
 939:..\u8g2\csrc/u8g2_font.c ****         k = u8g2_GetKerningByTable(u8g2, kerning_table, e_prev, e);
 940:..\u8g2\csrc/u8g2_font.c **** 	delta -= k;
 941:..\u8g2\csrc/u8g2_font.c ****       }
 942:..\u8g2\csrc/u8g2_font.c ****       e_prev = e;
 943:..\u8g2\csrc/u8g2_font.c **** 
 944:..\u8g2\csrc/u8g2_font.c ****       if ( to_left )
 945:..\u8g2\csrc/u8g2_font.c ****       {
 946:..\u8g2\csrc/u8g2_font.c ****       }
 947:..\u8g2\csrc/u8g2_font.c ****       else
 948:..\u8g2\csrc/u8g2_font.c ****       {
 949:..\u8g2\csrc/u8g2_font.c **** 	x += delta;
ARM GAS  C:\Users\brian\AppData\Local\Temp\ccTYhJxe.s 			page 19


 950:..\u8g2\csrc/u8g2_font.c ****       }
 951:..\u8g2\csrc/u8g2_font.c ****       u8g2_DrawGlyph(u8g2, x, y, e);
 952:..\u8g2\csrc/u8g2_font.c ****       if ( to_left )
 953:..\u8g2\csrc/u8g2_font.c ****       {
 954:..\u8g2\csrc/u8g2_font.c ****       }
 955:..\u8g2\csrc/u8g2_font.c ****       else
 956:..\u8g2\csrc/u8g2_font.c ****       {
 957:..\u8g2\csrc/u8g2_font.c **** 	//x += delta;
 958:..\u8g2\csrc/u8g2_font.c **** 	//x -= k;
 959:..\u8g2\csrc/u8g2_font.c ****       }
 960:..\u8g2\csrc/u8g2_font.c ****       
 961:..\u8g2\csrc/u8g2_font.c ****       sum += delta;    
 962:..\u8g2\csrc/u8g2_font.c ****     }
 963:..\u8g2\csrc/u8g2_font.c ****   }
 964:..\u8g2\csrc/u8g2_font.c ****   return sum;
 965:..\u8g2\csrc/u8g2_font.c **** }
 966:..\u8g2\csrc/u8g2_font.c **** 
 967:..\u8g2\csrc/u8g2_font.c **** 
 968:..\u8g2\csrc/u8g2_font.c **** 
 969:..\u8g2\csrc/u8g2_font.c **** /*===============================================*/
 970:..\u8g2\csrc/u8g2_font.c **** 
 971:..\u8g2\csrc/u8g2_font.c **** /* set ascent/descent for reference point calculation */
 972:..\u8g2\csrc/u8g2_font.c **** 
 973:..\u8g2\csrc/u8g2_font.c **** void u8g2_UpdateRefHeight(u8g2_t *u8g2)
 974:..\u8g2\csrc/u8g2_font.c **** {
 975:..\u8g2\csrc/u8g2_font.c ****   if ( u8g2->font == NULL )
 976:..\u8g2\csrc/u8g2_font.c ****     return;
 977:..\u8g2\csrc/u8g2_font.c ****   u8g2->font_ref_ascent = u8g2->font_info.ascent_A;
 978:..\u8g2\csrc/u8g2_font.c ****   u8g2->font_ref_descent = u8g2->font_info.descent_g;
 979:..\u8g2\csrc/u8g2_font.c ****   if ( u8g2->font_height_mode == U8G2_FONT_HEIGHT_MODE_TEXT )
 980:..\u8g2\csrc/u8g2_font.c ****   {
 981:..\u8g2\csrc/u8g2_font.c ****   }
 982:..\u8g2\csrc/u8g2_font.c ****   else if ( u8g2->font_height_mode == U8G2_FONT_HEIGHT_MODE_XTEXT )
 983:..\u8g2\csrc/u8g2_font.c ****   {
 984:..\u8g2\csrc/u8g2_font.c ****     if ( u8g2->font_ref_ascent < u8g2->font_info.ascent_para )
 985:..\u8g2\csrc/u8g2_font.c ****       u8g2->font_ref_ascent = u8g2->font_info.ascent_para;
 986:..\u8g2\csrc/u8g2_font.c ****     if ( u8g2->font_ref_descent > u8g2->font_info.descent_para )
 987:..\u8g2\csrc/u8g2_font.c ****       u8g2->font_ref_descent = u8g2->font_info.descent_para;
 988:..\u8g2\csrc/u8g2_font.c ****   }
 989:..\u8g2\csrc/u8g2_font.c ****   else
 990:..\u8g2\csrc/u8g2_font.c ****   {
 991:..\u8g2\csrc/u8g2_font.c ****     if ( u8g2->font_ref_ascent < u8g2->font_info.max_char_height+u8g2->font_info.y_offset )
 992:..\u8g2\csrc/u8g2_font.c ****       u8g2->font_ref_ascent = u8g2->font_info.max_char_height+u8g2->font_info.y_offset;
 993:..\u8g2\csrc/u8g2_font.c ****     if ( u8g2->font_ref_descent > u8g2->font_info.y_offset )
 994:..\u8g2\csrc/u8g2_font.c ****       u8g2->font_ref_descent = u8g2->font_info.y_offset;
 995:..\u8g2\csrc/u8g2_font.c ****   }  
 996:..\u8g2\csrc/u8g2_font.c **** }
 997:..\u8g2\csrc/u8g2_font.c **** 
 998:..\u8g2\csrc/u8g2_font.c **** void u8g2_SetFontRefHeightText(u8g2_t *u8g2)
 999:..\u8g2\csrc/u8g2_font.c **** {
1000:..\u8g2\csrc/u8g2_font.c ****   u8g2->font_height_mode = U8G2_FONT_HEIGHT_MODE_TEXT;
1001:..\u8g2\csrc/u8g2_font.c ****   u8g2_UpdateRefHeight(u8g2);
1002:..\u8g2\csrc/u8g2_font.c **** }
1003:..\u8g2\csrc/u8g2_font.c **** 
1004:..\u8g2\csrc/u8g2_font.c **** void u8g2_SetFontRefHeightExtendedText(u8g2_t *u8g2)
1005:..\u8g2\csrc/u8g2_font.c **** {
1006:..\u8g2\csrc/u8g2_font.c ****   u8g2->font_height_mode = U8G2_FONT_HEIGHT_MODE_XTEXT;
ARM GAS  C:\Users\brian\AppData\Local\Temp\ccTYhJxe.s 			page 20


1007:..\u8g2\csrc/u8g2_font.c ****   u8g2_UpdateRefHeight(u8g2);
1008:..\u8g2\csrc/u8g2_font.c **** }
1009:..\u8g2\csrc/u8g2_font.c **** 
1010:..\u8g2\csrc/u8g2_font.c **** void u8g2_SetFontRefHeightAll(u8g2_t *u8g2)
1011:..\u8g2\csrc/u8g2_font.c **** {
1012:..\u8g2\csrc/u8g2_font.c ****   u8g2->font_height_mode = U8G2_FONT_HEIGHT_MODE_ALL;
1013:..\u8g2\csrc/u8g2_font.c ****   u8g2_UpdateRefHeight(u8g2);
1014:..\u8g2\csrc/u8g2_font.c **** }
1015:..\u8g2\csrc/u8g2_font.c **** 
1016:..\u8g2\csrc/u8g2_font.c **** /*===============================================*/
1017:..\u8g2\csrc/u8g2_font.c **** /* callback procedures to correct the y position */
1018:..\u8g2\csrc/u8g2_font.c **** 
1019:..\u8g2\csrc/u8g2_font.c **** u8g2_uint_t u8g2_font_calc_vref_font(U8X8_UNUSED u8g2_t *u8g2)
1020:..\u8g2\csrc/u8g2_font.c **** {
  78              		.loc 1 1020 0
  79              		.cfi_startproc
  80              		@ args = 0, pretend = 0, frame = 0
  81              		@ frame_needed = 0, uses_anonymous_args = 0
  82              		@ link register save eliminated.
  83              	.LVL7:
1021:..\u8g2\csrc/u8g2_font.c ****   return 0;
1022:..\u8g2\csrc/u8g2_font.c **** }
  84              		.loc 1 1022 0
  85 0000 0020     		movs	r0, #0
  86              	.LVL8:
  87 0002 7047     		bx	lr
  88              		.cfi_endproc
  89              	.LFE31:
  90              		.size	u8g2_font_calc_vref_font, .-u8g2_font_calc_vref_font
  91              		.section	.text.u8g2_font_calc_vref_bottom,"ax",%progbits
  92              		.align	2
  93              		.global	u8g2_font_calc_vref_bottom
  94              		.thumb
  95              		.thumb_func
  96              		.type	u8g2_font_calc_vref_bottom, %function
  97              	u8g2_font_calc_vref_bottom:
  98              	.LFB33:
1023:..\u8g2\csrc/u8g2_font.c **** 
1024:..\u8g2\csrc/u8g2_font.c **** void u8g2_SetFontPosBaseline(u8g2_t *u8g2)
1025:..\u8g2\csrc/u8g2_font.c **** {
1026:..\u8g2\csrc/u8g2_font.c ****   u8g2->font_calc_vref = u8g2_font_calc_vref_font;
1027:..\u8g2\csrc/u8g2_font.c **** }
1028:..\u8g2\csrc/u8g2_font.c **** 
1029:..\u8g2\csrc/u8g2_font.c **** 
1030:..\u8g2\csrc/u8g2_font.c **** u8g2_uint_t u8g2_font_calc_vref_bottom(u8g2_t *u8g2)
1031:..\u8g2\csrc/u8g2_font.c **** {
  99              		.loc 1 1031 0
 100              		.cfi_startproc
 101              		@ args = 0, pretend = 0, frame = 0
 102              		@ frame_needed = 0, uses_anonymous_args = 0
 103              		@ link register save eliminated.
 104              	.LVL9:
1032:..\u8g2\csrc/u8g2_font.c ****   return (u8g2_uint_t)(u8g2->font_ref_descent);
 105              		.loc 1 1032 0
 106 0000 90F98F00 		ldrsb	r0, [r0, #143]
 107              	.LVL10:
1033:..\u8g2\csrc/u8g2_font.c **** }
ARM GAS  C:\Users\brian\AppData\Local\Temp\ccTYhJxe.s 			page 21


 108              		.loc 1 1033 0
 109 0004 80B2     		uxth	r0, r0
 110 0006 7047     		bx	lr
 111              		.cfi_endproc
 112              	.LFE33:
 113              		.size	u8g2_font_calc_vref_bottom, .-u8g2_font_calc_vref_bottom
 114              		.section	.text.u8g2_font_calc_vref_top,"ax",%progbits
 115              		.align	2
 116              		.global	u8g2_font_calc_vref_top
 117              		.thumb
 118              		.thumb_func
 119              		.type	u8g2_font_calc_vref_top, %function
 120              	u8g2_font_calc_vref_top:
 121              	.LFB35:
1034:..\u8g2\csrc/u8g2_font.c **** 
1035:..\u8g2\csrc/u8g2_font.c **** void u8g2_SetFontPosBottom(u8g2_t *u8g2)
1036:..\u8g2\csrc/u8g2_font.c **** {
1037:..\u8g2\csrc/u8g2_font.c ****   u8g2->font_calc_vref = u8g2_font_calc_vref_bottom;
1038:..\u8g2\csrc/u8g2_font.c **** }
1039:..\u8g2\csrc/u8g2_font.c **** 
1040:..\u8g2\csrc/u8g2_font.c **** u8g2_uint_t u8g2_font_calc_vref_top(u8g2_t *u8g2)
1041:..\u8g2\csrc/u8g2_font.c **** {
 122              		.loc 1 1041 0
 123              		.cfi_startproc
 124              		@ args = 0, pretend = 0, frame = 0
 125              		@ frame_needed = 0, uses_anonymous_args = 0
 126              		@ link register save eliminated.
 127              	.LVL11:
1042:..\u8g2\csrc/u8g2_font.c ****   u8g2_uint_t tmp;
1043:..\u8g2\csrc/u8g2_font.c ****   /* reference pos is one pixel above the upper edge of the reference glyph */
1044:..\u8g2\csrc/u8g2_font.c ****   tmp = (u8g2_uint_t)(u8g2->font_ref_ascent);
 128              		.loc 1 1044 0
 129 0000 90F98E00 		ldrsb	r0, [r0, #142]
 130              	.LVL12:
 131 0004 80B2     		uxth	r0, r0
 132              	.LVL13:
1045:..\u8g2\csrc/u8g2_font.c ****   tmp++;
 133              		.loc 1 1045 0
 134 0006 0130     		adds	r0, r0, #1
 135              	.LVL14:
1046:..\u8g2\csrc/u8g2_font.c ****   return tmp;
1047:..\u8g2\csrc/u8g2_font.c **** }
 136              		.loc 1 1047 0
 137 0008 80B2     		uxth	r0, r0
 138 000a 7047     		bx	lr
 139              		.cfi_endproc
 140              	.LFE35:
 141              		.size	u8g2_font_calc_vref_top, .-u8g2_font_calc_vref_top
 142              		.section	.text.u8g2_font_calc_vref_center,"ax",%progbits
 143              		.align	2
 144              		.global	u8g2_font_calc_vref_center
 145              		.thumb
 146              		.thumb_func
 147              		.type	u8g2_font_calc_vref_center, %function
 148              	u8g2_font_calc_vref_center:
 149              	.LFB37:
1048:..\u8g2\csrc/u8g2_font.c **** 
ARM GAS  C:\Users\brian\AppData\Local\Temp\ccTYhJxe.s 			page 22


1049:..\u8g2\csrc/u8g2_font.c **** void u8g2_SetFontPosTop(u8g2_t *u8g2)
1050:..\u8g2\csrc/u8g2_font.c **** {
1051:..\u8g2\csrc/u8g2_font.c ****   u8g2->font_calc_vref = u8g2_font_calc_vref_top;
1052:..\u8g2\csrc/u8g2_font.c **** }
1053:..\u8g2\csrc/u8g2_font.c **** 
1054:..\u8g2\csrc/u8g2_font.c **** u8g2_uint_t u8g2_font_calc_vref_center(u8g2_t *u8g2)
1055:..\u8g2\csrc/u8g2_font.c **** {
 150              		.loc 1 1055 0
 151              		.cfi_startproc
 152              		@ args = 0, pretend = 0, frame = 0
 153              		@ frame_needed = 0, uses_anonymous_args = 0
 154              		@ link register save eliminated.
 155              	.LVL15:
1056:..\u8g2\csrc/u8g2_font.c ****   int8_t tmp;
1057:..\u8g2\csrc/u8g2_font.c ****   tmp = u8g2->font_ref_ascent;
 156              		.loc 1 1057 0
 157 0000 90F98E30 		ldrsb	r3, [r0, #142]
 158              	.LVL16:
1058:..\u8g2\csrc/u8g2_font.c ****   tmp -= u8g2->font_ref_descent;
 159              		.loc 1 1058 0
 160 0004 90F88F00 		ldrb	r0, [r0, #143]	@ zero_extendqisi2
 161              	.LVL17:
 162 0008 1B1A     		subs	r3, r3, r0
 163              	.LVL18:
 164 000a 5BB2     		sxtb	r3, r3
 165              	.LVL19:
1059:..\u8g2\csrc/u8g2_font.c ****   tmp /= 2;
 166              		.loc 1 1059 0
 167 000c 03EBD373 		add	r3, r3, r3, lsr #31
 168              	.LVL20:
1060:..\u8g2\csrc/u8g2_font.c ****   tmp += u8g2->font_ref_descent;  
 169              		.loc 1 1060 0
 170 0010 00EB6303 		add	r3, r0, r3, asr #1
 171              	.LVL21:
 172 0014 58B2     		sxtb	r0, r3
 173              	.LVL22:
1061:..\u8g2\csrc/u8g2_font.c ****   return tmp;
1062:..\u8g2\csrc/u8g2_font.c **** }
 174              		.loc 1 1062 0
 175 0016 80B2     		uxth	r0, r0
 176              	.LVL23:
 177 0018 7047     		bx	lr
 178              		.cfi_endproc
 179              	.LFE37:
 180              		.size	u8g2_font_calc_vref_center, .-u8g2_font_calc_vref_center
 181 001a 00BF     		.section	.text.u8g2_read_font_info,"ax",%progbits
 182              		.align	2
 183              		.global	u8g2_read_font_info
 184              		.thumb
 185              		.thumb_func
 186              		.type	u8g2_read_font_info, %function
 187              	u8g2_read_font_info:
 188              	.LFB2:
 132:..\u8g2\csrc/u8g2_font.c ****   /* offset 0 */
 189              		.loc 1 132 0
 190              		.cfi_startproc
 191              		@ args = 0, pretend = 0, frame = 0
ARM GAS  C:\Users\brian\AppData\Local\Temp\ccTYhJxe.s 			page 23


 192              		@ frame_needed = 0, uses_anonymous_args = 0
 193              	.LVL24:
 194 0000 38B5     		push	{r3, r4, r5, lr}
 195              		.cfi_def_cfa_offset 16
 196              		.cfi_offset 3, -16
 197              		.cfi_offset 4, -12
 198              		.cfi_offset 5, -8
 199              		.cfi_offset 14, -4
 200 0002 0446     		mov	r4, r0
 201 0004 0D46     		mov	r5, r1
 134:..\u8g2\csrc/u8g2_font.c ****   font_info->bbx_mode = u8g2_font_get_byte(font, 1);
 202              		.loc 1 134 0
 203 0006 0021     		movs	r1, #0
 204              	.LVL25:
 205 0008 2846     		mov	r0, r5
 206              	.LVL26:
 207 000a FFF7FEFF 		bl	u8g2_font_get_byte
 208              	.LVL27:
 209 000e 2070     		strb	r0, [r4]
 135:..\u8g2\csrc/u8g2_font.c ****   font_info->bits_per_0 = u8g2_font_get_byte(font, 2);
 210              		.loc 1 135 0
 211 0010 0121     		movs	r1, #1
 212 0012 2846     		mov	r0, r5
 213 0014 FFF7FEFF 		bl	u8g2_font_get_byte
 214              	.LVL28:
 215 0018 6070     		strb	r0, [r4, #1]
 136:..\u8g2\csrc/u8g2_font.c ****   font_info->bits_per_1 = u8g2_font_get_byte(font, 3);
 216              		.loc 1 136 0
 217 001a 0221     		movs	r1, #2
 218 001c 2846     		mov	r0, r5
 219 001e FFF7FEFF 		bl	u8g2_font_get_byte
 220              	.LVL29:
 221 0022 A070     		strb	r0, [r4, #2]
 137:..\u8g2\csrc/u8g2_font.c ****   
 222              		.loc 1 137 0
 223 0024 0321     		movs	r1, #3
 224 0026 2846     		mov	r0, r5
 225 0028 FFF7FEFF 		bl	u8g2_font_get_byte
 226              	.LVL30:
 227 002c E070     		strb	r0, [r4, #3]
 140:..\u8g2\csrc/u8g2_font.c ****   font_info->bits_per_char_height = u8g2_font_get_byte(font, 5);
 228              		.loc 1 140 0
 229 002e 0421     		movs	r1, #4
 230 0030 2846     		mov	r0, r5
 231 0032 FFF7FEFF 		bl	u8g2_font_get_byte
 232              	.LVL31:
 233 0036 2071     		strb	r0, [r4, #4]
 141:..\u8g2\csrc/u8g2_font.c ****   font_info->bits_per_char_x = u8g2_font_get_byte(font, 6);
 234              		.loc 1 141 0
 235 0038 0521     		movs	r1, #5
 236 003a 2846     		mov	r0, r5
 237 003c FFF7FEFF 		bl	u8g2_font_get_byte
 238              	.LVL32:
 239 0040 6071     		strb	r0, [r4, #5]
 142:..\u8g2\csrc/u8g2_font.c ****   font_info->bits_per_char_y = u8g2_font_get_byte(font, 7);
 240              		.loc 1 142 0
 241 0042 0621     		movs	r1, #6
ARM GAS  C:\Users\brian\AppData\Local\Temp\ccTYhJxe.s 			page 24


 242 0044 2846     		mov	r0, r5
 243 0046 FFF7FEFF 		bl	u8g2_font_get_byte
 244              	.LVL33:
 245 004a A071     		strb	r0, [r4, #6]
 143:..\u8g2\csrc/u8g2_font.c ****   font_info->bits_per_delta_x = u8g2_font_get_byte(font, 8);
 246              		.loc 1 143 0
 247 004c 0721     		movs	r1, #7
 248 004e 2846     		mov	r0, r5
 249 0050 FFF7FEFF 		bl	u8g2_font_get_byte
 250              	.LVL34:
 251 0054 E071     		strb	r0, [r4, #7]
 144:..\u8g2\csrc/u8g2_font.c ****   
 252              		.loc 1 144 0
 253 0056 0821     		movs	r1, #8
 254 0058 2846     		mov	r0, r5
 255 005a FFF7FEFF 		bl	u8g2_font_get_byte
 256              	.LVL35:
 257 005e 2072     		strb	r0, [r4, #8]
 147:..\u8g2\csrc/u8g2_font.c ****   font_info->max_char_height = u8g2_font_get_byte(font, 10);
 258              		.loc 1 147 0
 259 0060 0921     		movs	r1, #9
 260 0062 2846     		mov	r0, r5
 261 0064 FFF7FEFF 		bl	u8g2_font_get_byte
 262              	.LVL36:
 263 0068 6072     		strb	r0, [r4, #9]
 148:..\u8g2\csrc/u8g2_font.c ****   font_info->x_offset = u8g2_font_get_byte(font, 11);
 264              		.loc 1 148 0
 265 006a 0A21     		movs	r1, #10
 266 006c 2846     		mov	r0, r5
 267 006e FFF7FEFF 		bl	u8g2_font_get_byte
 268              	.LVL37:
 269 0072 A072     		strb	r0, [r4, #10]
 149:..\u8g2\csrc/u8g2_font.c ****   font_info->y_offset = u8g2_font_get_byte(font, 12);
 270              		.loc 1 149 0
 271 0074 0B21     		movs	r1, #11
 272 0076 2846     		mov	r0, r5
 273 0078 FFF7FEFF 		bl	u8g2_font_get_byte
 274              	.LVL38:
 275 007c E072     		strb	r0, [r4, #11]
 150:..\u8g2\csrc/u8g2_font.c ****   
 276              		.loc 1 150 0
 277 007e 0C21     		movs	r1, #12
 278 0080 2846     		mov	r0, r5
 279 0082 FFF7FEFF 		bl	u8g2_font_get_byte
 280              	.LVL39:
 281 0086 2073     		strb	r0, [r4, #12]
 153:..\u8g2\csrc/u8g2_font.c ****   font_info->descent_g = u8g2_font_get_byte(font, 14);
 282              		.loc 1 153 0
 283 0088 0D21     		movs	r1, #13
 284 008a 2846     		mov	r0, r5
 285 008c FFF7FEFF 		bl	u8g2_font_get_byte
 286              	.LVL40:
 287 0090 6073     		strb	r0, [r4, #13]
 154:..\u8g2\csrc/u8g2_font.c ****   font_info->ascent_para = u8g2_font_get_byte(font, 15);
 288              		.loc 1 154 0
 289 0092 0E21     		movs	r1, #14
 290 0094 2846     		mov	r0, r5
ARM GAS  C:\Users\brian\AppData\Local\Temp\ccTYhJxe.s 			page 25


 291 0096 FFF7FEFF 		bl	u8g2_font_get_byte
 292              	.LVL41:
 293 009a A073     		strb	r0, [r4, #14]
 155:..\u8g2\csrc/u8g2_font.c ****   font_info->descent_para = u8g2_font_get_byte(font, 16);
 294              		.loc 1 155 0
 295 009c 0F21     		movs	r1, #15
 296 009e 2846     		mov	r0, r5
 297 00a0 FFF7FEFF 		bl	u8g2_font_get_byte
 298              	.LVL42:
 299 00a4 E073     		strb	r0, [r4, #15]
 156:..\u8g2\csrc/u8g2_font.c ****   
 300              		.loc 1 156 0
 301 00a6 1021     		movs	r1, #16
 302 00a8 2846     		mov	r0, r5
 303 00aa FFF7FEFF 		bl	u8g2_font_get_byte
 304              	.LVL43:
 305 00ae 2074     		strb	r0, [r4, #16]
 159:..\u8g2\csrc/u8g2_font.c ****   font_info->start_pos_lower_a = u8g2_font_get_word(font, 19); 
 306              		.loc 1 159 0
 307 00b0 1121     		movs	r1, #17
 308 00b2 2846     		mov	r0, r5
 309 00b4 FFF7FEFF 		bl	u8g2_font_get_word
 310              	.LVL44:
 311 00b8 6082     		strh	r0, [r4, #18]	@ movhi
 160:..\u8g2\csrc/u8g2_font.c ****   
 312              		.loc 1 160 0
 313 00ba 1321     		movs	r1, #19
 314 00bc 2846     		mov	r0, r5
 315 00be FFF7FEFF 		bl	u8g2_font_get_word
 316              	.LVL45:
 317 00c2 A082     		strh	r0, [r4, #20]	@ movhi
 164:..\u8g2\csrc/u8g2_font.c **** #endif
 318              		.loc 1 164 0
 319 00c4 1521     		movs	r1, #21
 320 00c6 2846     		mov	r0, r5
 321 00c8 FFF7FEFF 		bl	u8g2_font_get_word
 322              	.LVL46:
 323 00cc E082     		strh	r0, [r4, #22]	@ movhi
 324 00ce 38BD     		pop	{r3, r4, r5, pc}
 325              		.cfi_endproc
 326              	.LFE2:
 327              		.size	u8g2_read_font_info, .-u8g2_read_font_info
 328              		.section	.text.u8g2_GetFontSize,"ax",%progbits
 329              		.align	2
 330              		.global	u8g2_GetFontSize
 331              		.thumb
 332              		.thumb_func
 333              		.type	u8g2_GetFontSize, %function
 334              	u8g2_GetFontSize:
 335              	.LFB3:
 171:..\u8g2\csrc/u8g2_font.c ****   uint16_t e;
 336              		.loc 1 171 0
 337              		.cfi_startproc
 338              		@ args = 0, pretend = 0, frame = 0
 339              		@ frame_needed = 0, uses_anonymous_args = 0
 340              	.LVL47:
 341 0000 38B5     		push	{r3, r4, r5, lr}
ARM GAS  C:\Users\brian\AppData\Local\Temp\ccTYhJxe.s 			page 26


 342              		.cfi_def_cfa_offset 16
 343              		.cfi_offset 3, -16
 344              		.cfi_offset 4, -12
 345              		.cfi_offset 5, -8
 346              		.cfi_offset 14, -4
 347 0002 0546     		mov	r5, r0
 348              	.LVL48:
 174:..\u8g2\csrc/u8g2_font.c ****   
 349              		.loc 1 174 0
 350 0004 1730     		adds	r0, r0, #23
 351              	.LVL49:
 352              	.L11:
 178:..\u8g2\csrc/u8g2_font.c ****       break;
 353              		.loc 1 178 0
 354 0006 4378     		ldrb	r3, [r0, #1]	@ zero_extendqisi2
 355 0008 0BB1     		cbz	r3, .L10
 180:..\u8g2\csrc/u8g2_font.c ****   }
 356              		.loc 1 180 0
 357 000a 1844     		add	r0, r0, r3
 358              	.LVL50:
 181:..\u8g2\csrc/u8g2_font.c ****   
 359              		.loc 1 181 0
 360 000c FBE7     		b	.L11
 361              	.L10:
 184:..\u8g2\csrc/u8g2_font.c **** 
 362              		.loc 1 184 0
 363 000e 841C     		adds	r4, r0, #2
 364              	.LVL51:
 187:..\u8g2\csrc/u8g2_font.c ****   
 365              		.loc 1 187 0
 366 0010 0021     		movs	r1, #0
 367 0012 2046     		mov	r0, r4
 368 0014 FFF7FEFF 		bl	u8g2_font_get_word
 369              	.LVL52:
 370 0018 2044     		add	r0, r0, r4
 371              	.LVL53:
 372              	.L13:
 191:..\u8g2\csrc/u8g2_font.c ****     e <<= 8;
 373              		.loc 1 191 0
 374 001a 0278     		ldrb	r2, [r0]	@ zero_extendqisi2
 375              	.LVL54:
 193:..\u8g2\csrc/u8g2_font.c ****     if ( e == 0 )
 376              		.loc 1 193 0
 377 001c 4378     		ldrb	r3, [r0, #1]	@ zero_extendqisi2
 378              	.LVL55:
 194:..\u8g2\csrc/u8g2_font.c ****       break;
 379              		.loc 1 194 0
 380 001e 53EA0223 		orrs	r3, r3, r2, lsl #8
 381              	.LVL56:
 382 0022 02D0     		beq	.L12
 196:..\u8g2\csrc/u8g2_font.c ****   }
 383              		.loc 1 196 0
 384 0024 8378     		ldrb	r3, [r0, #2]	@ zero_extendqisi2
 385 0026 1844     		add	r0, r0, r3
 386              	.LVL57:
 197:..\u8g2\csrc/u8g2_font.c ****   
 387              		.loc 1 197 0
ARM GAS  C:\Users\brian\AppData\Local\Temp\ccTYhJxe.s 			page 27


 388 0028 F7E7     		b	.L13
 389              	.LVL58:
 390              	.L12:
 199:..\u8g2\csrc/u8g2_font.c **** }
 391              		.loc 1 199 0
 392 002a 401B     		subs	r0, r0, r5
 393              	.LVL59:
 200:..\u8g2\csrc/u8g2_font.c **** 
 394              		.loc 1 200 0
 395 002c 0230     		adds	r0, r0, #2
 396 002e 38BD     		pop	{r3, r4, r5, pc}
 397              		.cfi_endproc
 398              	.LFE3:
 399              		.size	u8g2_GetFontSize, .-u8g2_GetFontSize
 400              		.section	.text.u8g2_GetFontBBXWidth,"ax",%progbits
 401              		.align	2
 402              		.global	u8g2_GetFontBBXWidth
 403              		.thumb
 404              		.thumb_func
 405              		.type	u8g2_GetFontBBXWidth, %function
 406              	u8g2_GetFontBBXWidth:
 407              	.LFB4:
 206:..\u8g2\csrc/u8g2_font.c ****   return u8g2->font_info.max_char_width;		/* new font info structure */
 408              		.loc 1 206 0
 409              		.cfi_startproc
 410              		@ args = 0, pretend = 0, frame = 0
 411              		@ frame_needed = 0, uses_anonymous_args = 0
 412              		@ link register save eliminated.
 413              	.LVL60:
 208:..\u8g2\csrc/u8g2_font.c **** 
 414              		.loc 1 208 0
 415 0000 90F87D00 		ldrb	r0, [r0, #125]	@ zero_extendqisi2
 416              	.LVL61:
 417 0004 7047     		bx	lr
 418              		.cfi_endproc
 419              	.LFE4:
 420              		.size	u8g2_GetFontBBXWidth, .-u8g2_GetFontBBXWidth
 421 0006 00BF     		.section	.text.u8g2_GetFontBBXHeight,"ax",%progbits
 422              		.align	2
 423              		.global	u8g2_GetFontBBXHeight
 424              		.thumb
 425              		.thumb_func
 426              		.type	u8g2_GetFontBBXHeight, %function
 427              	u8g2_GetFontBBXHeight:
 428              	.LFB5:
 211:..\u8g2\csrc/u8g2_font.c ****   return u8g2->font_info.max_char_height;		/* new font info structure */
 429              		.loc 1 211 0
 430              		.cfi_startproc
 431              		@ args = 0, pretend = 0, frame = 0
 432              		@ frame_needed = 0, uses_anonymous_args = 0
 433              		@ link register save eliminated.
 434              	.LVL62:
 213:..\u8g2\csrc/u8g2_font.c **** 
 435              		.loc 1 213 0
 436 0000 90F87E00 		ldrb	r0, [r0, #126]	@ zero_extendqisi2
 437              	.LVL63:
 438 0004 7047     		bx	lr
ARM GAS  C:\Users\brian\AppData\Local\Temp\ccTYhJxe.s 			page 28


 439              		.cfi_endproc
 440              	.LFE5:
 441              		.size	u8g2_GetFontBBXHeight, .-u8g2_GetFontBBXHeight
 442 0006 00BF     		.section	.text.u8g2_GetFontBBXOffX,"ax",%progbits
 443              		.align	2
 444              		.global	u8g2_GetFontBBXOffX
 445              		.thumb
 446              		.thumb_func
 447              		.type	u8g2_GetFontBBXOffX, %function
 448              	u8g2_GetFontBBXOffX:
 449              	.LFB6:
 217:..\u8g2\csrc/u8g2_font.c ****   return u8g2->font_info.x_offset;		/* new font info structure */
 450              		.loc 1 217 0
 451              		.cfi_startproc
 452              		@ args = 0, pretend = 0, frame = 0
 453              		@ frame_needed = 0, uses_anonymous_args = 0
 454              		@ link register save eliminated.
 455              	.LVL64:
 219:..\u8g2\csrc/u8g2_font.c **** 
 456              		.loc 1 219 0
 457 0000 90F97F00 		ldrsb	r0, [r0, #127]
 458              	.LVL65:
 459 0004 7047     		bx	lr
 460              		.cfi_endproc
 461              	.LFE6:
 462              		.size	u8g2_GetFontBBXOffX, .-u8g2_GetFontBBXOffX
 463 0006 00BF     		.section	.text.u8g2_GetFontBBXOffY,"ax",%progbits
 464              		.align	2
 465              		.global	u8g2_GetFontBBXOffY
 466              		.thumb
 467              		.thumb_func
 468              		.type	u8g2_GetFontBBXOffY, %function
 469              	u8g2_GetFontBBXOffY:
 470              	.LFB7:
 223:..\u8g2\csrc/u8g2_font.c ****   return u8g2->font_info.y_offset;		/* new font info structure */
 471              		.loc 1 223 0
 472              		.cfi_startproc
 473              		@ args = 0, pretend = 0, frame = 0
 474              		@ frame_needed = 0, uses_anonymous_args = 0
 475              		@ link register save eliminated.
 476              	.LVL66:
 225:..\u8g2\csrc/u8g2_font.c **** 
 477              		.loc 1 225 0
 478 0000 90F98000 		ldrsb	r0, [r0, #128]
 479              	.LVL67:
 480 0004 7047     		bx	lr
 481              		.cfi_endproc
 482              	.LFE7:
 483              		.size	u8g2_GetFontBBXOffY, .-u8g2_GetFontBBXOffY
 484 0006 00BF     		.section	.text.u8g2_GetFontCapitalAHeight,"ax",%progbits
 485              		.align	2
 486              		.global	u8g2_GetFontCapitalAHeight
 487              		.thumb
 488              		.thumb_func
 489              		.type	u8g2_GetFontCapitalAHeight, %function
 490              	u8g2_GetFontCapitalAHeight:
 491              	.LFB8:
ARM GAS  C:\Users\brian\AppData\Local\Temp\ccTYhJxe.s 			page 29


 229:..\u8g2\csrc/u8g2_font.c ****   return u8g2->font_info.ascent_A;		/* new font info structure */
 492              		.loc 1 229 0
 493              		.cfi_startproc
 494              		@ args = 0, pretend = 0, frame = 0
 495              		@ frame_needed = 0, uses_anonymous_args = 0
 496              		@ link register save eliminated.
 497              	.LVL68:
 231:..\u8g2\csrc/u8g2_font.c **** 
 498              		.loc 1 231 0
 499 0000 90F88100 		ldrb	r0, [r0, #129]	@ zero_extendqisi2
 500              	.LVL69:
 501 0004 7047     		bx	lr
 502              		.cfi_endproc
 503              	.LFE8:
 504              		.size	u8g2_GetFontCapitalAHeight, .-u8g2_GetFontCapitalAHeight
 505 0006 00BF     		.section	.text.u8g2_font_decode_get_unsigned_bits,"ax",%progbits
 506              		.align	2
 507              		.global	u8g2_font_decode_get_unsigned_bits
 508              		.thumb
 509              		.thumb_func
 510              		.type	u8g2_font_decode_get_unsigned_bits, %function
 511              	u8g2_font_decode_get_unsigned_bits:
 512              	.LFB9:
 238:..\u8g2\csrc/u8g2_font.c ****   uint8_t val;
 513              		.loc 1 238 0
 514              		.cfi_startproc
 515              		@ args = 0, pretend = 0, frame = 0
 516              		@ frame_needed = 0, uses_anonymous_args = 0
 517              		@ link register save eliminated.
 518              	.LVL70:
 519 0000 70B4     		push	{r4, r5, r6}
 520              		.cfi_def_cfa_offset 12
 521              		.cfi_offset 4, -12
 522              		.cfi_offset 5, -8
 523              		.cfi_offset 6, -4
 240:..\u8g2\csrc/u8g2_font.c ****   uint8_t bit_pos_plus_cnt;
 524              		.loc 1 240 0
 525 0002 027B     		ldrb	r2, [r0, #12]	@ zero_extendqisi2
 526              	.LVL71:
 244:..\u8g2\csrc/u8g2_font.c ****   
 527              		.loc 1 244 0
 528 0004 0568     		ldr	r5, [r0]
 529 0006 2C78     		ldrb	r4, [r5]	@ zero_extendqisi2
 530              	.LVL72:
 246:..\u8g2\csrc/u8g2_font.c ****   bit_pos_plus_cnt = bit_pos;
 531              		.loc 1 246 0
 532 0008 1441     		asrs	r4, r4, r2
 533              	.LVL73:
 534 000a E6B2     		uxtb	r6, r4
 535              	.LVL74:
 248:..\u8g2\csrc/u8g2_font.c ****   if ( bit_pos_plus_cnt >= 8 )
 536              		.loc 1 248 0
 537 000c 5318     		adds	r3, r2, r1
 538 000e DBB2     		uxtb	r3, r3
 539              	.LVL75:
 249:..\u8g2\csrc/u8g2_font.c ****   {
 540              		.loc 1 249 0
ARM GAS  C:\Users\brian\AppData\Local\Temp\ccTYhJxe.s 			page 30


 541 0010 072B     		cmp	r3, #7
 542 0012 0BD9     		bls	.L21
 543              	.LVL76:
 544              	.LBB2:
 252:..\u8g2\csrc/u8g2_font.c ****     f->decode_ptr++;
 545              		.loc 1 252 0
 546 0014 C2F10802 		rsb	r2, r2, #8
 547              	.LVL77:
 548 0018 D2B2     		uxtb	r2, r2
 549              	.LVL78:
 253:..\u8g2\csrc/u8g2_font.c ****     //val |= *(f->decode_ptr) << (8-bit_pos);
 550              		.loc 1 253 0
 551 001a 6E1C     		adds	r6, r5, #1
 552              	.LVL79:
 553 001c 0660     		str	r6, [r0]
 255:..\u8g2\csrc/u8g2_font.c ****     //bit_pos -= 8;
 554              		.loc 1 255 0
 555 001e 6D78     		ldrb	r5, [r5, #1]	@ zero_extendqisi2
 556 0020 05FA02F2 		lsl	r2, r5, r2
 557              	.LVL80:
 558 0024 1443     		orrs	r4, r4, r2
 559              	.LVL81:
 560 0026 E6B2     		uxtb	r6, r4
 561              	.LVL82:
 257:..\u8g2\csrc/u8g2_font.c ****   }
 562              		.loc 1 257 0
 563 0028 083B     		subs	r3, r3, #8
 564              	.LVL83:
 565 002a DBB2     		uxtb	r3, r3
 566              	.LVL84:
 567              	.L21:
 568              	.LBE2:
 259:..\u8g2\csrc/u8g2_font.c ****   //bit_pos += cnt;
 569              		.loc 1 259 0
 570 002c 0124     		movs	r4, #1
 571 002e 04FA01F1 		lsl	r1, r4, r1
 572              	.LVL85:
 573 0032 0139     		subs	r1, r1, #1
 574              	.LVL86:
 262:..\u8g2\csrc/u8g2_font.c ****   return val;
 575              		.loc 1 262 0
 576 0034 0373     		strb	r3, [r0, #12]
 577              	.LVL87:
 264:..\u8g2\csrc/u8g2_font.c **** 
 578              		.loc 1 264 0
 579 0036 06EA0100 		and	r0, r6, r1
 580              	.LVL88:
 581 003a 70BC     		pop	{r4, r5, r6}
 582              		.cfi_restore 6
 583              		.cfi_restore 5
 584              		.cfi_restore 4
 585              		.cfi_def_cfa_offset 0
 586              	.LVL89:
 587 003c 7047     		bx	lr
 588              		.cfi_endproc
 589              	.LFE9:
 590              		.size	u8g2_font_decode_get_unsigned_bits, .-u8g2_font_decode_get_unsigned_bits
ARM GAS  C:\Users\brian\AppData\Local\Temp\ccTYhJxe.s 			page 31


 591 003e 00BF     		.section	.text.u8g2_font_setup_decode,"ax",%progbits
 592              		.align	2
 593              		.thumb
 594              		.thumb_func
 595              		.type	u8g2_font_setup_decode, %function
 596              	u8g2_font_setup_decode:
 597              	.LFB14:
 486:..\u8g2\csrc/u8g2_font.c ****   u8g2_font_decode_t *decode = &(u8g2->font_decode);
 598              		.loc 1 486 0
 599              		.cfi_startproc
 600              		@ args = 0, pretend = 0, frame = 0
 601              		@ frame_needed = 0, uses_anonymous_args = 0
 602              	.LVL90:
 603 0000 38B5     		push	{r3, r4, r5, lr}
 604              		.cfi_def_cfa_offset 16
 605              		.cfi_offset 3, -16
 606              		.cfi_offset 4, -12
 607              		.cfi_offset 5, -8
 608              		.cfi_offset 14, -4
 609 0002 0446     		mov	r4, r0
 487:..\u8g2\csrc/u8g2_font.c ****   decode->decode_ptr = glyph_data;
 610              		.loc 1 487 0
 611 0004 00F16005 		add	r5, r0, #96
 612              	.LVL91:
 488:..\u8g2\csrc/u8g2_font.c ****   decode->decode_bit_pos = 0;
 613              		.loc 1 488 0
 614 0008 0166     		str	r1, [r0, #96]
 489:..\u8g2\csrc/u8g2_font.c ****   
 615              		.loc 1 489 0
 616 000a 0023     		movs	r3, #0
 617 000c 80F86C30 		strb	r3, [r0, #108]
 497:..\u8g2\csrc/u8g2_font.c ****   decode->glyph_height = u8g2_font_decode_get_unsigned_bits(decode,u8g2->font_info.bits_per_char_he
 618              		.loc 1 497 0
 619 0010 90F87810 		ldrb	r1, [r0, #120]	@ zero_extendqisi2
 620              	.LVL92:
 621 0014 2846     		mov	r0, r5
 622              	.LVL93:
 623 0016 FFF7FEFF 		bl	u8g2_font_decode_get_unsigned_bits
 624              	.LVL94:
 625 001a 84F86A00 		strb	r0, [r4, #106]
 498:..\u8g2\csrc/u8g2_font.c ****   
 626              		.loc 1 498 0
 627 001e 94F87910 		ldrb	r1, [r4, #121]	@ zero_extendqisi2
 628 0022 2846     		mov	r0, r5
 629 0024 FFF7FEFF 		bl	u8g2_font_decode_get_unsigned_bits
 630              	.LVL95:
 631 0028 84F86B00 		strb	r0, [r4, #107]
 500:..\u8g2\csrc/u8g2_font.c ****   decode->bg_color = (decode->fg_color == 0 ? 1 : 0);
 632              		.loc 1 500 0
 633 002c 94F89230 		ldrb	r3, [r4, #146]	@ zero_extendqisi2
 634 0030 84F86E30 		strb	r3, [r4, #110]
 501:..\u8g2\csrc/u8g2_font.c **** }
 635              		.loc 1 501 0
 636 0034 B3FA83F3 		clz	r3, r3
 637 0038 5B09     		lsrs	r3, r3, #5
 638 003a 84F86F30 		strb	r3, [r4, #111]
 639 003e 38BD     		pop	{r3, r4, r5, pc}
ARM GAS  C:\Users\brian\AppData\Local\Temp\ccTYhJxe.s 			page 32


 640              		.cfi_endproc
 641              	.LFE14:
 642              		.size	u8g2_font_setup_decode, .-u8g2_font_setup_decode
 643              		.section	.text.u8g2_font_decode_get_signed_bits,"ax",%progbits
 644              		.align	2
 645              		.global	u8g2_font_decode_get_signed_bits
 646              		.thumb
 647              		.thumb_func
 648              		.type	u8g2_font_decode_get_signed_bits, %function
 649              	u8g2_font_decode_get_signed_bits:
 650              	.LFB10:
 283:..\u8g2\csrc/u8g2_font.c ****   int8_t v, d;
 651              		.loc 1 283 0
 652              		.cfi_startproc
 653              		@ args = 0, pretend = 0, frame = 0
 654              		@ frame_needed = 0, uses_anonymous_args = 0
 655              	.LVL96:
 656 0000 10B5     		push	{r4, lr}
 657              		.cfi_def_cfa_offset 8
 658              		.cfi_offset 4, -8
 659              		.cfi_offset 14, -4
 660 0002 0C46     		mov	r4, r1
 285:..\u8g2\csrc/u8g2_font.c ****   d = 1;
 661              		.loc 1 285 0
 662 0004 FFF7FEFF 		bl	u8g2_font_decode_get_unsigned_bits
 663              	.LVL97:
 287:..\u8g2\csrc/u8g2_font.c ****   d <<= cnt;
 664              		.loc 1 287 0
 665 0008 013C     		subs	r4, r4, #1
 666 000a E4B2     		uxtb	r4, r4
 667              	.LVL98:
 288:..\u8g2\csrc/u8g2_font.c ****   v -= d;
 668              		.loc 1 288 0
 669 000c 0123     		movs	r3, #1
 670 000e A340     		lsls	r3, r3, r4
 671              	.LVL99:
 289:..\u8g2\csrc/u8g2_font.c ****   return v;
 672              		.loc 1 289 0
 673 0010 C01A     		subs	r0, r0, r3
 674              	.LVL100:
 292:..\u8g2\csrc/u8g2_font.c **** 
 675              		.loc 1 292 0
 676 0012 40B2     		sxtb	r0, r0
 677 0014 10BD     		pop	{r4, pc}
 678              		.cfi_endproc
 679              	.LFE10:
 680              		.size	u8g2_font_decode_get_signed_bits, .-u8g2_font_decode_get_signed_bits
 681 0016 00BF     		.section	.text.u8g2_add_vector_y,"ax",%progbits
 682              		.align	2
 683              		.global	u8g2_add_vector_y
 684              		.thumb
 685              		.thumb_func
 686              		.type	u8g2_add_vector_y, %function
 687              	u8g2_add_vector_y:
 688              	.LFB11:
 297:..\u8g2\csrc/u8g2_font.c ****   switch(dir)
 689              		.loc 1 297 0
ARM GAS  C:\Users\brian\AppData\Local\Temp\ccTYhJxe.s 			page 33


 690              		.cfi_startproc
 691              		@ args = 0, pretend = 0, frame = 0
 692              		@ frame_needed = 0, uses_anonymous_args = 0
 693              		@ link register save eliminated.
 694              	.LVL101:
 298:..\u8g2\csrc/u8g2_font.c ****   {
 695              		.loc 1 298 0
 696 0000 012B     		cmp	r3, #1
 697 0002 06D0     		beq	.L29
 698 0004 13B1     		cbz	r3, .L30
 699 0006 022B     		cmp	r3, #2
 700 0008 06D0     		beq	.L31
 701 000a 08E0     		b	.L33
 702              	.L30:
 301:..\u8g2\csrc/u8g2_font.c ****       break;
 703              		.loc 1 301 0
 704 000c 1044     		add	r0, r0, r2
 705              	.LVL102:
 706 000e 80B2     		uxth	r0, r0
 707              	.LVL103:
 302:..\u8g2\csrc/u8g2_font.c ****     case 1:
 708              		.loc 1 302 0
 709 0010 7047     		bx	lr
 710              	.L29:
 304:..\u8g2\csrc/u8g2_font.c ****       break;
 711              		.loc 1 304 0
 712 0012 0844     		add	r0, r0, r1
 713              	.LVL104:
 714 0014 80B2     		uxth	r0, r0
 715              	.LVL105:
 305:..\u8g2\csrc/u8g2_font.c ****     case 2:
 716              		.loc 1 305 0
 717 0016 7047     		bx	lr
 718              	.L31:
 307:..\u8g2\csrc/u8g2_font.c ****       break;
 719              		.loc 1 307 0
 720 0018 801A     		subs	r0, r0, r2
 721              	.LVL106:
 722 001a 80B2     		uxth	r0, r0
 723              	.LVL107:
 308:..\u8g2\csrc/u8g2_font.c ****     default:
 724              		.loc 1 308 0
 725 001c 7047     		bx	lr
 726              	.L33:
 310:..\u8g2\csrc/u8g2_font.c ****       break;      
 727              		.loc 1 310 0
 728 001e 401A     		subs	r0, r0, r1
 729              	.LVL108:
 730 0020 80B2     		uxth	r0, r0
 731              	.LVL109:
 314:..\u8g2\csrc/u8g2_font.c **** 
 732              		.loc 1 314 0
 733 0022 7047     		bx	lr
 734              		.cfi_endproc
 735              	.LFE11:
 736              		.size	u8g2_add_vector_y, .-u8g2_add_vector_y
 737              		.section	.text.u8g2_add_vector_x,"ax",%progbits
ARM GAS  C:\Users\brian\AppData\Local\Temp\ccTYhJxe.s 			page 34


 738              		.align	2
 739              		.global	u8g2_add_vector_x
 740              		.thumb
 741              		.thumb_func
 742              		.type	u8g2_add_vector_x, %function
 743              	u8g2_add_vector_x:
 744              	.LFB12:
 317:..\u8g2\csrc/u8g2_font.c ****   switch(dir)
 745              		.loc 1 317 0
 746              		.cfi_startproc
 747              		@ args = 0, pretend = 0, frame = 0
 748              		@ frame_needed = 0, uses_anonymous_args = 0
 749              		@ link register save eliminated.
 750              	.LVL110:
 318:..\u8g2\csrc/u8g2_font.c ****   {
 751              		.loc 1 318 0
 752 0000 012B     		cmp	r3, #1
 753 0002 06D0     		beq	.L36
 754 0004 13B1     		cbz	r3, .L37
 755 0006 022B     		cmp	r3, #2
 756 0008 06D0     		beq	.L38
 757 000a 08E0     		b	.L40
 758              	.L37:
 321:..\u8g2\csrc/u8g2_font.c ****       break;
 759              		.loc 1 321 0
 760 000c 0844     		add	r0, r0, r1
 761              	.LVL111:
 762 000e 80B2     		uxth	r0, r0
 763              	.LVL112:
 322:..\u8g2\csrc/u8g2_font.c ****     case 1:
 764              		.loc 1 322 0
 765 0010 7047     		bx	lr
 766              	.L36:
 324:..\u8g2\csrc/u8g2_font.c ****       break;
 767              		.loc 1 324 0
 768 0012 801A     		subs	r0, r0, r2
 769              	.LVL113:
 770 0014 80B2     		uxth	r0, r0
 771              	.LVL114:
 325:..\u8g2\csrc/u8g2_font.c ****     case 2:
 772              		.loc 1 325 0
 773 0016 7047     		bx	lr
 774              	.L38:
 327:..\u8g2\csrc/u8g2_font.c ****       break;
 775              		.loc 1 327 0
 776 0018 401A     		subs	r0, r0, r1
 777              	.LVL115:
 778 001a 80B2     		uxth	r0, r0
 779              	.LVL116:
 328:..\u8g2\csrc/u8g2_font.c ****     default:
 780              		.loc 1 328 0
 781 001c 7047     		bx	lr
 782              	.L40:
 330:..\u8g2\csrc/u8g2_font.c ****       break;      
 783              		.loc 1 330 0
 784 001e 1044     		add	r0, r0, r2
 785              	.LVL117:
ARM GAS  C:\Users\brian\AppData\Local\Temp\ccTYhJxe.s 			page 35


 786 0020 80B2     		uxth	r0, r0
 787              	.LVL118:
 334:..\u8g2\csrc/u8g2_font.c **** 
 788              		.loc 1 334 0
 789 0022 7047     		bx	lr
 790              		.cfi_endproc
 791              	.LFE12:
 792              		.size	u8g2_add_vector_x, .-u8g2_add_vector_x
 793              		.section	.text.u8g2_font_decode_len,"ax",%progbits
 794              		.align	2
 795              		.global	u8g2_font_decode_len
 796              		.thumb
 797              		.thumb_func
 798              		.type	u8g2_font_decode_len, %function
 799              	u8g2_font_decode_len:
 800              	.LFB13:
 388:..\u8g2\csrc/u8g2_font.c ****   uint8_t cnt;	/* total number of remaining pixels, which have to be drawn */
 801              		.loc 1 388 0
 802              		.cfi_startproc
 803              		@ args = 0, pretend = 0, frame = 16
 804              		@ frame_needed = 0, uses_anonymous_args = 0
 805              	.LVL119:
 806 0000 2DE9F04F 		push	{r4, r5, r6, r7, r8, r9, r10, fp, lr}
 807              		.cfi_def_cfa_offset 36
 808              		.cfi_offset 4, -36
 809              		.cfi_offset 5, -32
 810              		.cfi_offset 6, -28
 811              		.cfi_offset 7, -24
 812              		.cfi_offset 8, -20
 813              		.cfi_offset 9, -16
 814              		.cfi_offset 10, -12
 815              		.cfi_offset 11, -8
 816              		.cfi_offset 14, -4
 817 0004 87B0     		sub	sp, sp, #28
 818              		.cfi_def_cfa_offset 64
 819 0006 0646     		mov	r6, r0
 820 0008 0C46     		mov	r4, r1
 821 000a 0592     		str	r2, [sp, #20]
 822              	.LVL120:
 405:..\u8g2\csrc/u8g2_font.c ****   ly = decode->y;
 823              		.loc 1 405 0
 824 000c 90F868A0 		ldrb	r10, [r0, #104]	@ zero_extendqisi2
 825              	.LVL121:
 406:..\u8g2\csrc/u8g2_font.c ****   
 826              		.loc 1 406 0
 827 0010 90F86980 		ldrb	r8, [r0, #105]	@ zero_extendqisi2
 828              	.LVL122:
 829              	.L46:
 411:..\u8g2\csrc/u8g2_font.c ****     rem -= lx;
 830              		.loc 1 411 0
 831 0014 96F86A50 		ldrb	r5, [r6, #106]	@ zero_extendqisi2
 832              	.LVL123:
 412:..\u8g2\csrc/u8g2_font.c ****     
 833              		.loc 1 412 0
 834 0018 CAEB0505 		rsb	r5, r10, r5
 835              	.LVL124:
 836 001c EDB2     		uxtb	r5, r5
ARM GAS  C:\Users\brian\AppData\Local\Temp\ccTYhJxe.s 			page 36


 837              	.LVL125:
 417:..\u8g2\csrc/u8g2_font.c ****       current = cnt;
 838              		.loc 1 417 0
 839 001e AC42     		cmp	r4, r5
 840 0020 01D3     		bcc	.L47
 416:..\u8g2\csrc/u8g2_font.c ****     if ( cnt < rem )
 841              		.loc 1 416 0
 842 0022 0395     		str	r5, [sp, #12]
 843 0024 00E0     		b	.L42
 844              	.L47:
 418:..\u8g2\csrc/u8g2_font.c ****     
 845              		.loc 1 418 0
 846 0026 0394     		str	r4, [sp, #12]
 847              	.L42:
 848              	.LVL126:
 426:..\u8g2\csrc/u8g2_font.c **** 
 849              		.loc 1 426 0
 850 0028 B6F86690 		ldrh	r9, [r6, #102]
 851              	.LVL127:
 431:..\u8g2\csrc/u8g2_font.c ****     y = u8g2_add_vector_y(y, lx, ly, decode->dir);
 852              		.loc 1 431 0
 853 002c 4FFA8AF1 		sxtb	r1, r10
 854 0030 4FFA88FB 		sxtb	fp, r8
 855 0034 96F87070 		ldrb	r7, [r6, #112]	@ zero_extendqisi2
 856 0038 3B46     		mov	r3, r7
 857 003a 5A46     		mov	r2, fp
 858 003c 0291     		str	r1, [sp, #8]
 859 003e B6F86400 		ldrh	r0, [r6, #100]
 860 0042 FFF7FEFF 		bl	u8g2_add_vector_x
 861              	.LVL128:
 862 0046 0490     		str	r0, [sp, #16]
 863              	.LVL129:
 432:..\u8g2\csrc/u8g2_font.c ****     
 864              		.loc 1 432 0
 865 0048 3B46     		mov	r3, r7
 866 004a 5A46     		mov	r2, fp
 867 004c 0299     		ldr	r1, [sp, #8]
 868 004e 4846     		mov	r0, r9
 869 0050 FFF7FEFF 		bl	u8g2_add_vector_y
 870              	.LVL130:
 442:..\u8g2\csrc/u8g2_font.c ****     {
 871              		.loc 1 442 0
 872 0054 059B     		ldr	r3, [sp, #20]
 873 0056 63B1     		cbz	r3, .L43
 444:..\u8g2\csrc/u8g2_font.c ****       u8g2_DrawHVLine(u8g2, 
 874              		.loc 1 444 0
 875 0058 96F86E30 		ldrb	r3, [r6, #110]	@ zero_extendqisi2
 876 005c 86F89230 		strb	r3, [r6, #146]
 445:..\u8g2\csrc/u8g2_font.c **** 	x, 
 877              		.loc 1 445 0
 878 0060 0097     		str	r7, [sp]
 879 0062 BDF80C30 		ldrh	r3, [sp, #12]
 880 0066 0246     		mov	r2, r0
 881 0068 0499     		ldr	r1, [sp, #16]
 882 006a 3046     		mov	r0, r6
 883              	.LVL131:
 884 006c FFF7FEFF 		bl	u8g2_DrawHVLine
ARM GAS  C:\Users\brian\AppData\Local\Temp\ccTYhJxe.s 			page 37


 885              	.LVL132:
 886 0070 0EE0     		b	.L44
 887              	.LVL133:
 888              	.L43:
 456:..\u8g2\csrc/u8g2_font.c ****     {
 889              		.loc 1 456 0
 890 0072 96F86D30 		ldrb	r3, [r6, #109]	@ zero_extendqisi2
 891 0076 5BB9     		cbnz	r3, .L44
 458:..\u8g2\csrc/u8g2_font.c ****       u8g2_DrawHVLine(u8g2, 
 892              		.loc 1 458 0
 893 0078 96F86F30 		ldrb	r3, [r6, #111]	@ zero_extendqisi2
 894 007c 86F89230 		strb	r3, [r6, #146]
 459:..\u8g2\csrc/u8g2_font.c **** 	x, 
 895              		.loc 1 459 0
 896 0080 0097     		str	r7, [sp]
 897 0082 BDF80C30 		ldrh	r3, [sp, #12]
 898 0086 0246     		mov	r2, r0
 899 0088 0499     		ldr	r1, [sp, #16]
 900 008a 3046     		mov	r0, r6
 901              	.LVL134:
 902 008c FFF7FEFF 		bl	u8g2_DrawHVLine
 903              	.LVL135:
 904              	.L44:
 472:..\u8g2\csrc/u8g2_font.c ****       break;
 905              		.loc 1 472 0
 906 0090 AC42     		cmp	r4, r5
 907 0092 08D3     		bcc	.L45
 474:..\u8g2\csrc/u8g2_font.c ****     lx = 0;
 908              		.loc 1 474 0
 909 0094 641B     		subs	r4, r4, r5
 910              	.LVL136:
 911 0096 E4B2     		uxtb	r4, r4
 912              	.LVL137:
 476:..\u8g2\csrc/u8g2_font.c ****   }
 913              		.loc 1 476 0
 914 0098 08F10108 		add	r8, r8, #1
 915              	.LVL138:
 916 009c 5FFA88F8 		uxtb	r8, r8
 917              	.LVL139:
 475:..\u8g2\csrc/u8g2_font.c ****     ly++;
 918              		.loc 1 475 0
 919 00a0 4FF0000A 		mov	r10, #0
 477:..\u8g2\csrc/u8g2_font.c ****   lx += cnt;
 920              		.loc 1 477 0
 921 00a4 B6E7     		b	.L46
 922              	.LVL140:
 923              	.L45:
 478:..\u8g2\csrc/u8g2_font.c ****   
 924              		.loc 1 478 0
 925 00a6 5444     		add	r4, r4, r10
 926              	.LVL141:
 480:..\u8g2\csrc/u8g2_font.c ****   decode->y = ly;
 927              		.loc 1 480 0
 928 00a8 86F86840 		strb	r4, [r6, #104]
 481:..\u8g2\csrc/u8g2_font.c ****   
 929              		.loc 1 481 0
 930 00ac 86F869B0 		strb	fp, [r6, #105]
ARM GAS  C:\Users\brian\AppData\Local\Temp\ccTYhJxe.s 			page 38


 483:..\u8g2\csrc/u8g2_font.c **** 
 931              		.loc 1 483 0
 932 00b0 07B0     		add	sp, sp, #28
 933              		.cfi_def_cfa_offset 36
 934              		@ sp needed
 935 00b2 BDE8F08F 		pop	{r4, r5, r6, r7, r8, r9, r10, fp, pc}
 936              		.cfi_endproc
 937              	.LFE13:
 938              		.size	u8g2_font_decode_len, .-u8g2_font_decode_len
 939 00b6 00BF     		.section	.text.u8g2_font_decode_glyph,"ax",%progbits
 940              		.align	2
 941              		.global	u8g2_font_decode_glyph
 942              		.thumb
 943              		.thumb_func
 944              		.type	u8g2_font_decode_glyph, %function
 945              	u8g2_font_decode_glyph:
 946              	.LFB15:
 520:..\u8g2\csrc/u8g2_font.c ****   uint8_t a, b;
 947              		.loc 1 520 0
 948              		.cfi_startproc
 949              		@ args = 0, pretend = 0, frame = 8
 950              		@ frame_needed = 0, uses_anonymous_args = 0
 951              	.LVL142:
 952 0000 2DE9F04F 		push	{r4, r5, r6, r7, r8, r9, r10, fp, lr}
 953              		.cfi_def_cfa_offset 36
 954              		.cfi_offset 4, -36
 955              		.cfi_offset 5, -32
 956              		.cfi_offset 6, -28
 957              		.cfi_offset 7, -24
 958              		.cfi_offset 8, -20
 959              		.cfi_offset 9, -16
 960              		.cfi_offset 10, -12
 961              		.cfi_offset 11, -8
 962              		.cfi_offset 14, -4
 963 0004 85B0     		sub	sp, sp, #20
 964              		.cfi_def_cfa_offset 56
 965 0006 0446     		mov	r4, r0
 525:..\u8g2\csrc/u8g2_font.c ****     
 966              		.loc 1 525 0
 967 0008 00F16005 		add	r5, r0, #96
 968              	.LVL143:
 527:..\u8g2\csrc/u8g2_font.c ****   h = u8g2->font_decode.glyph_height;
 969              		.loc 1 527 0
 970 000c FFF7FEFF 		bl	u8g2_font_setup_decode
 971              	.LVL144:
 528:..\u8g2\csrc/u8g2_font.c ****   
 972              		.loc 1 528 0
 973 0010 94F96B60 		ldrsb	r6, [r4, #107]
 974              	.LVL145:
 530:..\u8g2\csrc/u8g2_font.c ****   y = u8g2_font_decode_get_signed_bits(decode, u8g2->font_info.bits_per_char_y);
 975              		.loc 1 530 0
 976 0014 94F87A10 		ldrb	r1, [r4, #122]	@ zero_extendqisi2
 977 0018 2846     		mov	r0, r5
 978 001a FFF7FEFF 		bl	u8g2_font_decode_get_signed_bits
 979              	.LVL146:
 980 001e 8346     		mov	fp, r0
 981              	.LVL147:
ARM GAS  C:\Users\brian\AppData\Local\Temp\ccTYhJxe.s 			page 39


 531:..\u8g2\csrc/u8g2_font.c ****   d = u8g2_font_decode_get_signed_bits(decode, u8g2->font_info.bits_per_delta_x);
 982              		.loc 1 531 0
 983 0020 94F87B10 		ldrb	r1, [r4, #123]	@ zero_extendqisi2
 984 0024 2846     		mov	r0, r5
 985 0026 FFF7FEFF 		bl	u8g2_font_decode_get_signed_bits
 986              	.LVL148:
 987 002a 0746     		mov	r7, r0
 988              	.LVL149:
 532:..\u8g2\csrc/u8g2_font.c ****   
 989              		.loc 1 532 0
 990 002c 94F87C10 		ldrb	r1, [r4, #124]	@ zero_extendqisi2
 991 0030 2846     		mov	r0, r5
 992 0032 FFF7FEFF 		bl	u8g2_font_decode_get_signed_bits
 993              	.LVL150:
 994 0036 0390     		str	r0, [sp, #12]
 995              	.LVL151:
 534:..\u8g2\csrc/u8g2_font.c ****   {
 996              		.loc 1 534 0
 997 0038 94F96A90 		ldrsb	r9, [r4, #106]
 998 003c B9F1000F 		cmp	r9, #0
 999 0040 7CDD     		ble	.L50
 537:..\u8g2\csrc/u8g2_font.c ****     decode->target_y = u8g2_add_vector_y(decode->target_y, x, -(h+y), decode->dir);
 1000              		.loc 1 537 0
 1001 0042 3744     		add	r7, r7, r6
 1002              	.LVL152:
 1003 0044 7F42     		negs	r7, r7
 1004 0046 7FB2     		sxtb	r7, r7
 1005 0048 94F87080 		ldrb	r8, [r4, #112]	@ zero_extendqisi2
 1006 004c 4346     		mov	r3, r8
 1007 004e 3A46     		mov	r2, r7
 1008 0050 5946     		mov	r1, fp
 1009 0052 B4F86400 		ldrh	r0, [r4, #100]
 1010 0056 FFF7FEFF 		bl	u8g2_add_vector_x
 1011              	.LVL153:
 1012 005a 8246     		mov	r10, r0
 1013 005c A4F86400 		strh	r0, [r4, #100]	@ movhi
 538:..\u8g2\csrc/u8g2_font.c ****     
 1014              		.loc 1 538 0
 1015 0060 4346     		mov	r3, r8
 1016 0062 3A46     		mov	r2, r7
 1017 0064 5946     		mov	r1, fp
 1018 0066 B4F86600 		ldrh	r0, [r4, #102]
 1019 006a FFF7FEFF 		bl	u8g2_add_vector_y
 1020              	.LVL154:
 1021 006e 0246     		mov	r2, r0
 1022 0070 A4F86600 		strh	r0, [r4, #102]	@ movhi
 1023              	.LVL155:
 1024              	.LBB3:
 557:..\u8g2\csrc/u8g2_font.c ****       {
 1025              		.loc 1 557 0
 1026 0074 B8F1030F 		cmp	r8, #3
 1027 0078 30D8     		bhi	.L59
 1028 007a DFE808F0 		tbb	[pc, r8]
 1029              	.L53:
 1030 007e 02       		.byte	(.L52-.L53)/2
 1031 007f 08       		.byte	(.L54-.L53)/2
 1032 0080 14       		.byte	(.L55-.L53)/2
ARM GAS  C:\Users\brian\AppData\Local\Temp\ccTYhJxe.s 			page 40


 1033 0081 24       		.byte	(.L56-.L53)/2
 1034              		.p2align 1
 1035              	.L52:
 560:..\u8g2\csrc/u8g2_font.c **** 	    y1 += h;
 1036              		.loc 1 560 0
 1037 0082 0AEB0903 		add	r3, r10, r9
 1038 0086 9BB2     		uxth	r3, r3
 1039              	.LVL156:
 561:..\u8g2\csrc/u8g2_font.c **** 	    break;
 1040              		.loc 1 561 0
 1041 0088 3044     		add	r0, r0, r6
 1042              	.LVL157:
 1043 008a 80B2     		uxth	r0, r0
 1044              	.LVL158:
 562:..\u8g2\csrc/u8g2_font.c **** 	case 1:
 1045              		.loc 1 562 0
 1046 008c 27E0     		b	.L51
 1047              	.LVL159:
 1048              	.L54:
 564:..\u8g2\csrc/u8g2_font.c **** 	    x0++;	/* shift down, because of assymetric boundaries for the interseciton test */
 1049              		.loc 1 564 0
 1050 008e C6EB0A01 		rsb	r1, r6, r10
 1051 0092 89B2     		uxth	r1, r1
 1052              	.LVL160:
 565:..\u8g2\csrc/u8g2_font.c **** 	    x1++;
 1053              		.loc 1 565 0
 1054 0094 0131     		adds	r1, r1, #1
 1055              	.LVL161:
 566:..\u8g2\csrc/u8g2_font.c **** 	    y1 += decode->glyph_width;
 1056              		.loc 1 566 0
 1057 0096 0AF10103 		add	r3, r10, #1
 1058 009a 9BB2     		uxth	r3, r3
 1059              	.LVL162:
 567:..\u8g2\csrc/u8g2_font.c **** 	    break;
 1060              		.loc 1 567 0
 1061 009c 4844     		add	r0, r0, r9
 1062              	.LVL163:
 1063 009e 80B2     		uxth	r0, r0
 1064              	.LVL164:
 565:..\u8g2\csrc/u8g2_font.c **** 	    x1++;
 1065              		.loc 1 565 0
 1066 00a0 1FFA81FA 		uxth	r10, r1
 568:..\u8g2\csrc/u8g2_font.c **** 	case 2:
 1067              		.loc 1 568 0
 1068 00a4 1BE0     		b	.L51
 1069              	.LVL165:
 1070              	.L55:
 570:..\u8g2\csrc/u8g2_font.c **** 	    x0++;	/* shift down, because of assymetric boundaries for the interseciton test */
 1071              		.loc 1 570 0
 1072 00a6 C9EB0A01 		rsb	r1, r9, r10
 1073 00aa 89B2     		uxth	r1, r1
 1074              	.LVL166:
 571:..\u8g2\csrc/u8g2_font.c **** 	    x1++;
 1075              		.loc 1 571 0
 1076 00ac 0131     		adds	r1, r1, #1
 1077              	.LVL167:
 572:..\u8g2\csrc/u8g2_font.c **** 	    y0 -= h;
ARM GAS  C:\Users\brian\AppData\Local\Temp\ccTYhJxe.s 			page 41


 1078              		.loc 1 572 0
 1079 00ae 0AF10103 		add	r3, r10, #1
 1080 00b2 9BB2     		uxth	r3, r3
 1081              	.LVL168:
 573:..\u8g2\csrc/u8g2_font.c **** 	    y0++;	/* shift down, because of assymetric boundaries for the interseciton test */
 1082              		.loc 1 573 0
 1083 00b4 871B     		subs	r7, r0, r6
 1084 00b6 BFB2     		uxth	r7, r7
 1085              	.LVL169:
 574:..\u8g2\csrc/u8g2_font.c **** 	    y1++;
 1086              		.loc 1 574 0
 1087 00b8 0137     		adds	r7, r7, #1
 1088              	.LVL170:
 575:..\u8g2\csrc/u8g2_font.c **** 	    break;	  
 1089              		.loc 1 575 0
 1090 00ba 0132     		adds	r2, r2, #1
 1091 00bc 90B2     		uxth	r0, r2
 1092              	.LVL171:
 574:..\u8g2\csrc/u8g2_font.c **** 	    y1++;
 1093              		.loc 1 574 0
 1094 00be BAB2     		uxth	r2, r7
 571:..\u8g2\csrc/u8g2_font.c **** 	    x1++;
 1095              		.loc 1 571 0
 1096 00c0 1FFA81FA 		uxth	r10, r1
 576:..\u8g2\csrc/u8g2_font.c **** 	case 3:
 1097              		.loc 1 576 0
 1098 00c4 0BE0     		b	.L51
 1099              	.LVL172:
 1100              	.L56:
 578:..\u8g2\csrc/u8g2_font.c **** 	    y0 -= decode->glyph_width;
 1101              		.loc 1 578 0
 1102 00c6 0AEB0603 		add	r3, r10, r6
 1103 00ca 9BB2     		uxth	r3, r3
 1104              	.LVL173:
 579:..\u8g2\csrc/u8g2_font.c **** 	    y0++;	/* shift down, because of assymetric boundaries for the interseciton test */
 1105              		.loc 1 579 0
 1106 00cc C9EB0001 		rsb	r1, r9, r0
 1107 00d0 89B2     		uxth	r1, r1
 1108              	.LVL174:
 580:..\u8g2\csrc/u8g2_font.c **** 	    y1++;
 1109              		.loc 1 580 0
 1110 00d2 0131     		adds	r1, r1, #1
 1111              	.LVL175:
 581:..\u8g2\csrc/u8g2_font.c **** 	    break;	  
 1112              		.loc 1 581 0
 1113 00d4 0132     		adds	r2, r2, #1
 1114 00d6 90B2     		uxth	r0, r2
 1115              	.LVL176:
 580:..\u8g2\csrc/u8g2_font.c **** 	    y1++;
 1116              		.loc 1 580 0
 1117 00d8 8AB2     		uxth	r2, r1
 582:..\u8g2\csrc/u8g2_font.c ****       }
 1118              		.loc 1 582 0
 1119 00da 00E0     		b	.L51
 1120              	.LVL177:
 1121              	.L59:
 553:..\u8g2\csrc/u8g2_font.c ****       y1 = y0;
ARM GAS  C:\Users\brian\AppData\Local\Temp\ccTYhJxe.s 			page 42


 1122              		.loc 1 553 0
 1123 00dc 5346     		mov	r3, r10
 1124              	.LVL178:
 1125              	.L51:
 589:..\u8g2\csrc/u8g2_font.c **** 	return d;
 1126              		.loc 1 589 0
 1127 00de 0090     		str	r0, [sp]
 1128 00e0 5146     		mov	r1, r10
 1129 00e2 2046     		mov	r0, r4
 1130              	.LVL179:
 1131 00e4 FFF7FEFF 		bl	u8g2_IsIntersection
 1132              	.LVL180:
 1133 00e8 40B3     		cbz	r0, .L50
 1134              	.LBE3:
 595:..\u8g2\csrc/u8g2_font.c ****     decode->y = 0;
 1135              		.loc 1 595 0
 1136 00ea 0023     		movs	r3, #0
 1137 00ec 84F86830 		strb	r3, [r4, #104]
 596:..\u8g2\csrc/u8g2_font.c ****     
 1138              		.loc 1 596 0
 1139 00f0 84F86930 		strb	r3, [r4, #105]
 1140              	.L58:
 601:..\u8g2\csrc/u8g2_font.c ****       b = u8g2_font_decode_get_unsigned_bits(decode, u8g2->font_info.bits_per_1);
 1141              		.loc 1 601 0
 1142 00f4 94F87610 		ldrb	r1, [r4, #118]	@ zero_extendqisi2
 1143 00f8 2846     		mov	r0, r5
 1144 00fa FFF7FEFF 		bl	u8g2_font_decode_get_unsigned_bits
 1145              	.LVL181:
 1146 00fe 8046     		mov	r8, r0
 1147              	.LVL182:
 602:..\u8g2\csrc/u8g2_font.c ****       do
 1148              		.loc 1 602 0
 1149 0100 94F87710 		ldrb	r1, [r4, #119]	@ zero_extendqisi2
 1150 0104 2846     		mov	r0, r5
 1151 0106 FFF7FEFF 		bl	u8g2_font_decode_get_unsigned_bits
 1152              	.LVL183:
 1153 010a 0746     		mov	r7, r0
 1154              	.LVL184:
 1155              	.L57:
 605:..\u8g2\csrc/u8g2_font.c **** 	u8g2_font_decode_len(u8g2, b, 1);
 1156              		.loc 1 605 0 discriminator 1
 1157 010c 0022     		movs	r2, #0
 1158 010e 4146     		mov	r1, r8
 1159 0110 2046     		mov	r0, r4
 1160 0112 FFF7FEFF 		bl	u8g2_font_decode_len
 1161              	.LVL185:
 606:..\u8g2\csrc/u8g2_font.c ****       } while( u8g2_font_decode_get_unsigned_bits(decode, 1) != 0 );
 1162              		.loc 1 606 0 discriminator 1
 1163 0116 0122     		movs	r2, #1
 1164 0118 3946     		mov	r1, r7
 1165 011a 2046     		mov	r0, r4
 1166 011c FFF7FEFF 		bl	u8g2_font_decode_len
 1167              	.LVL186:
 607:..\u8g2\csrc/u8g2_font.c **** 
 1168              		.loc 1 607 0 discriminator 1
 1169 0120 0121     		movs	r1, #1
 1170 0122 2846     		mov	r0, r5
ARM GAS  C:\Users\brian\AppData\Local\Temp\ccTYhJxe.s 			page 43


 1171 0124 FFF7FEFF 		bl	u8g2_font_decode_get_unsigned_bits
 1172              	.LVL187:
 1173 0128 0028     		cmp	r0, #0
 1174 012a EFD1     		bne	.L57
 609:..\u8g2\csrc/u8g2_font.c **** 	break;
 1175              		.loc 1 609 0
 1176 012c 94F96930 		ldrsb	r3, [r4, #105]
 1177 0130 9E42     		cmp	r6, r3
 1178 0132 DFDC     		bgt	.L58
 614:..\u8g2\csrc/u8g2_font.c ****   }
 1179              		.loc 1 614 0
 1180 0134 94F86E30 		ldrb	r3, [r4, #110]	@ zero_extendqisi2
 1181 0138 84F89230 		strb	r3, [r4, #146]
 1182              	.LVL188:
 1183              	.L50:
 617:..\u8g2\csrc/u8g2_font.c **** 
 1184              		.loc 1 617 0
 1185 013c 0398     		ldr	r0, [sp, #12]
 1186 013e 05B0     		add	sp, sp, #20
 1187              		.cfi_def_cfa_offset 36
 1188              		@ sp needed
 1189 0140 BDE8F08F 		pop	{r4, r5, r6, r7, r8, r9, r10, fp, pc}
 1190              		.cfi_endproc
 1191              	.LFE15:
 1192              		.size	u8g2_font_decode_glyph, .-u8g2_font_decode_glyph
 1193              		.section	.text.u8g2_font_get_glyph_data,"ax",%progbits
 1194              		.align	2
 1195              		.global	u8g2_font_get_glyph_data
 1196              		.thumb
 1197              		.thumb_func
 1198              		.type	u8g2_font_get_glyph_data, %function
 1199              	u8g2_font_get_glyph_data:
 1200              	.LFB16:
 628:..\u8g2\csrc/u8g2_font.c ****   const uint8_t *font = u8g2->font;
 1201              		.loc 1 628 0
 1202              		.cfi_startproc
 1203              		@ args = 0, pretend = 0, frame = 0
 1204              		@ frame_needed = 0, uses_anonymous_args = 0
 1205              	.LVL189:
 1206 0000 70B5     		push	{r4, r5, r6, lr}
 1207              		.cfi_def_cfa_offset 16
 1208              		.cfi_offset 4, -16
 1209              		.cfi_offset 5, -12
 1210              		.cfi_offset 6, -8
 1211              		.cfi_offset 14, -4
 629:..\u8g2\csrc/u8g2_font.c ****   font += U8G2_FONT_DATA_STRUCT_SIZE;
 1212              		.loc 1 629 0
 1213 0002 846D     		ldr	r4, [r0, #88]
 1214              	.LVL190:
 630:..\u8g2\csrc/u8g2_font.c **** 
 1215              		.loc 1 630 0
 1216 0004 1734     		adds	r4, r4, #23
 1217              	.LVL191:
 633:..\u8g2\csrc/u8g2_font.c ****   {
 1218              		.loc 1 633 0
 1219 0006 FF29     		cmp	r1, #255
 1220 0008 13D8     		bhi	.L62
ARM GAS  C:\Users\brian\AppData\Local\Temp\ccTYhJxe.s 			page 44


 635:..\u8g2\csrc/u8g2_font.c ****     {
 1221              		.loc 1 635 0
 1222 000a 6029     		cmp	r1, #96
 1223 000c 03D9     		bls	.L63
 637:..\u8g2\csrc/u8g2_font.c ****     }
 1224              		.loc 1 637 0
 1225 000e B0F88830 		ldrh	r3, [r0, #136]
 1226 0012 1C44     		add	r4, r4, r3
 1227              	.LVL192:
 1228 0014 04E0     		b	.L67
 1229              	.L63:
 639:..\u8g2\csrc/u8g2_font.c ****     {
 1230              		.loc 1 639 0
 1231 0016 4029     		cmp	r1, #64
 1232 0018 02D9     		bls	.L67
 641:..\u8g2\csrc/u8g2_font.c ****     }
 1233              		.loc 1 641 0
 1234 001a B0F88630 		ldrh	r3, [r0, #134]
 1235 001e 1C44     		add	r4, r4, r3
 1236              	.LVL193:
 1237              	.L67:
 646:..\u8g2\csrc/u8g2_font.c **** 	break;
 1238              		.loc 1 646 0
 1239 0020 6378     		ldrb	r3, [r4, #1]	@ zero_extendqisi2
 1240 0022 1BB3     		cbz	r3, .L71
 648:..\u8g2\csrc/u8g2_font.c ****       {
 1241              		.loc 1 648 0
 1242 0024 2278     		ldrb	r2, [r4]	@ zero_extendqisi2
 1243 0026 9142     		cmp	r1, r2
 1244 0028 01D1     		bne	.L66
 650:..\u8g2\csrc/u8g2_font.c ****       }
 1245              		.loc 1 650 0
 1246 002a A01C     		adds	r0, r4, #2
 1247              	.LVL194:
 1248 002c 70BD     		pop	{r4, r5, r6, pc}
 1249              	.LVL195:
 1250              	.L66:
 652:..\u8g2\csrc/u8g2_font.c ****     }
 1251              		.loc 1 652 0
 1252 002e 1C44     		add	r4, r4, r3
 1253              	.LVL196:
 653:..\u8g2\csrc/u8g2_font.c ****   }
 1254              		.loc 1 653 0
 1255 0030 F6E7     		b	.L67
 1256              	.L62:
 1257 0032 0E46     		mov	r6, r1
 1258              	.LBB4:
 670:..\u8g2\csrc/u8g2_font.c ****     unicode_lookup_table = font; 
 1259              		.loc 1 670 0
 1260 0034 B0F88A30 		ldrh	r3, [r0, #138]
 1261 0038 1C44     		add	r4, r4, r3
 1262              	.LVL197:
 671:..\u8g2\csrc/u8g2_font.c ****   
 1263              		.loc 1 671 0
 1264 003a 2546     		mov	r5, r4
 1265              	.LVL198:
 1266              	.L68:
ARM GAS  C:\Users\brian\AppData\Local\Temp\ccTYhJxe.s 			page 45


 676:..\u8g2\csrc/u8g2_font.c ****       e = u8g2_font_get_word(unicode_lookup_table, 2);
 1267              		.loc 1 676 0 discriminator 1
 1268 003c 0021     		movs	r1, #0
 1269 003e 2846     		mov	r0, r5
 1270 0040 FFF7FEFF 		bl	u8g2_font_get_word
 1271              	.LVL199:
 1272 0044 0444     		add	r4, r4, r0
 1273              	.LVL200:
 677:..\u8g2\csrc/u8g2_font.c ****       unicode_lookup_table+=4;
 1274              		.loc 1 677 0 discriminator 1
 1275 0046 0221     		movs	r1, #2
 1276 0048 2846     		mov	r0, r5
 1277 004a FFF7FEFF 		bl	u8g2_font_get_word
 1278              	.LVL201:
 678:..\u8g2\csrc/u8g2_font.c ****     } while( e < encoding );
 1279              		.loc 1 678 0 discriminator 1
 1280 004e 0435     		adds	r5, r5, #4
 1281              	.LVL202:
 679:..\u8g2\csrc/u8g2_font.c ****     
 1282              		.loc 1 679 0 discriminator 1
 1283 0050 8642     		cmp	r6, r0
 1284 0052 F3D8     		bhi	.L68
 1285              	.LVL203:
 1286              	.L70:
 684:..\u8g2\csrc/u8g2_font.c ****       e <<= 8;
 1287              		.loc 1 684 0
 1288 0054 2278     		ldrb	r2, [r4]	@ zero_extendqisi2
 1289              	.LVL204:
 686:..\u8g2\csrc/u8g2_font.c ****   
 1290              		.loc 1 686 0
 1291 0056 6378     		ldrb	r3, [r4, #1]	@ zero_extendqisi2
 1292              	.LVL205:
 694:..\u8g2\csrc/u8g2_font.c **** 	break;
 1293              		.loc 1 694 0
 1294 0058 53EA0223 		orrs	r3, r3, r2, lsl #8
 1295              	.LVL206:
 1296 005c 08D0     		beq	.L72
 697:..\u8g2\csrc/u8g2_font.c ****       {
 1297              		.loc 1 697 0
 1298 005e 9E42     		cmp	r6, r3
 1299 0060 01D1     		bne	.L69
 704:..\u8g2\csrc/u8g2_font.c ****       }
 1300              		.loc 1 704 0
 1301 0062 E01C     		adds	r0, r4, #3
 1302 0064 70BD     		pop	{r4, r5, r6, pc}
 1303              	.LVL207:
 1304              	.L69:
 706:..\u8g2\csrc/u8g2_font.c ****     }  
 1305              		.loc 1 706 0
 1306 0066 A378     		ldrb	r3, [r4, #2]	@ zero_extendqisi2
 1307 0068 1C44     		add	r4, r4, r3
 1308              	.LVL208:
 707:..\u8g2\csrc/u8g2_font.c ****   }
 1309              		.loc 1 707 0
 1310 006a F3E7     		b	.L70
 1311              	.LVL209:
 1312              	.L71:
ARM GAS  C:\Users\brian\AppData\Local\Temp\ccTYhJxe.s 			page 46


 1313              	.LBE4:
 711:..\u8g2\csrc/u8g2_font.c **** }
 1314              		.loc 1 711 0
 1315 006c 0020     		movs	r0, #0
 1316              	.LVL210:
 1317 006e 70BD     		pop	{r4, r5, r6, pc}
 1318              	.LVL211:
 1319              	.L72:
 1320 0070 0020     		movs	r0, #0
 712:..\u8g2\csrc/u8g2_font.c **** 
 1321              		.loc 1 712 0
 1322 0072 70BD     		pop	{r4, r5, r6, pc}
 1323              		.cfi_endproc
 1324              	.LFE16:
 1325              		.size	u8g2_font_get_glyph_data, .-u8g2_font_get_glyph_data
 1326              		.section	.text.u8g2_font_draw_glyph,"ax",%progbits
 1327              		.align	2
 1328              		.thumb
 1329              		.thumb_func
 1330              		.type	u8g2_font_draw_glyph, %function
 1331              	u8g2_font_draw_glyph:
 1332              	.LFB17:
 715:..\u8g2\csrc/u8g2_font.c ****   u8g2_uint_t dx = 0;
 1333              		.loc 1 715 0
 1334              		.cfi_startproc
 1335              		@ args = 0, pretend = 0, frame = 0
 1336              		@ frame_needed = 0, uses_anonymous_args = 0
 1337              	.LVL212:
 1338 0000 10B5     		push	{r4, lr}
 1339              		.cfi_def_cfa_offset 8
 1340              		.cfi_offset 4, -8
 1341              		.cfi_offset 14, -4
 1342 0002 0446     		mov	r4, r0
 1343              	.LVL213:
 717:..\u8g2\csrc/u8g2_font.c ****   u8g2->font_decode.target_y = y;
 1344              		.loc 1 717 0
 1345 0004 A0F86410 		strh	r1, [r0, #100]	@ movhi
 718:..\u8g2\csrc/u8g2_font.c ****   //u8g2->font_decode.is_transparent = is_transparent; this is already set
 1346              		.loc 1 718 0
 1347 0008 A0F86620 		strh	r2, [r0, #102]	@ movhi
 721:..\u8g2\csrc/u8g2_font.c ****   if ( glyph_data != NULL )
 1348              		.loc 1 721 0
 1349 000c 1946     		mov	r1, r3
 1350              	.LVL214:
 1351 000e FFF7FEFF 		bl	u8g2_font_get_glyph_data
 1352              	.LVL215:
 722:..\u8g2\csrc/u8g2_font.c ****   {
 1353              		.loc 1 722 0
 1354 0012 28B1     		cbz	r0, .L76
 1355 0014 0146     		mov	r1, r0
 724:..\u8g2\csrc/u8g2_font.c ****   }
 1356              		.loc 1 724 0
 1357 0016 2046     		mov	r0, r4
 1358              	.LVL216:
 1359 0018 FFF7FEFF 		bl	u8g2_font_decode_glyph
 1360              	.LVL217:
 1361 001c 80B2     		uxth	r0, r0
ARM GAS  C:\Users\brian\AppData\Local\Temp\ccTYhJxe.s 			page 47


 1362              	.LVL218:
 1363 001e 10BD     		pop	{r4, pc}
 1364              	.LVL219:
 1365              	.L76:
 716:..\u8g2\csrc/u8g2_font.c ****   u8g2->font_decode.target_x = x;
 1366              		.loc 1 716 0
 1367 0020 0020     		movs	r0, #0
 1368              	.LVL220:
 727:..\u8g2\csrc/u8g2_font.c **** 
 1369              		.loc 1 727 0
 1370 0022 10BD     		pop	{r4, pc}
 1371              		.cfi_endproc
 1372              	.LFE17:
 1373              		.size	u8g2_font_draw_glyph, .-u8g2_font_draw_glyph
 1374              		.section	.text.u8g2_is_all_valid,"ax",%progbits
 1375              		.align	2
 1376              		.thumb
 1377              		.thumb_func
 1378              		.type	u8g2_is_all_valid, %function
 1379              	u8g2_is_all_valid:
 1380              	.LFB40:
1063:..\u8g2\csrc/u8g2_font.c **** 
1064:..\u8g2\csrc/u8g2_font.c **** void u8g2_SetFontPosCenter(u8g2_t *u8g2)
1065:..\u8g2\csrc/u8g2_font.c **** {
1066:..\u8g2\csrc/u8g2_font.c ****   u8g2->font_calc_vref = u8g2_font_calc_vref_center;
1067:..\u8g2\csrc/u8g2_font.c **** }
1068:..\u8g2\csrc/u8g2_font.c **** 
1069:..\u8g2\csrc/u8g2_font.c **** /*===============================================*/
1070:..\u8g2\csrc/u8g2_font.c **** 
1071:..\u8g2\csrc/u8g2_font.c **** void u8g2_SetFont(u8g2_t *u8g2, const uint8_t  *font)
1072:..\u8g2\csrc/u8g2_font.c **** {
1073:..\u8g2\csrc/u8g2_font.c ****   if ( u8g2->font != font )
1074:..\u8g2\csrc/u8g2_font.c ****   {
1075:..\u8g2\csrc/u8g2_font.c **** //#ifdef  __unix__
1076:..\u8g2\csrc/u8g2_font.c **** //	u8g2->last_font_data = NULL;
1077:..\u8g2\csrc/u8g2_font.c **** //	u8g2->last_unicode = 0x0ffff;
1078:..\u8g2\csrc/u8g2_font.c **** //#endif 
1079:..\u8g2\csrc/u8g2_font.c ****     u8g2->font = font;
1080:..\u8g2\csrc/u8g2_font.c ****     u8g2_read_font_info(&(u8g2->font_info), font);
1081:..\u8g2\csrc/u8g2_font.c ****     u8g2_UpdateRefHeight(u8g2);
1082:..\u8g2\csrc/u8g2_font.c ****     /* u8g2_SetFontPosBaseline(u8g2); */ /* removed with issue 195 */
1083:..\u8g2\csrc/u8g2_font.c ****   }
1084:..\u8g2\csrc/u8g2_font.c **** }
1085:..\u8g2\csrc/u8g2_font.c **** 
1086:..\u8g2\csrc/u8g2_font.c **** /*===============================================*/
1087:..\u8g2\csrc/u8g2_font.c **** 
1088:..\u8g2\csrc/u8g2_font.c **** static uint8_t u8g2_is_all_valid(u8g2_t *u8g2, const char *str) U8G2_NOINLINE;
1089:..\u8g2\csrc/u8g2_font.c **** static uint8_t u8g2_is_all_valid(u8g2_t *u8g2, const char *str)
1090:..\u8g2\csrc/u8g2_font.c **** {
 1381              		.loc 1 1090 0
 1382              		.cfi_startproc
 1383              		@ args = 0, pretend = 0, frame = 0
 1384              		@ frame_needed = 0, uses_anonymous_args = 0
 1385              	.LVL221:
 1386 0000 38B5     		push	{r3, r4, r5, lr}
 1387              		.cfi_def_cfa_offset 16
 1388              		.cfi_offset 3, -16
ARM GAS  C:\Users\brian\AppData\Local\Temp\ccTYhJxe.s 			page 48


 1389              		.cfi_offset 4, -12
 1390              		.cfi_offset 5, -8
 1391              		.cfi_offset 14, -4
 1392 0002 0546     		mov	r5, r0
 1393 0004 0C46     		mov	r4, r1
1091:..\u8g2\csrc/u8g2_font.c ****   uint16_t e;
1092:..\u8g2\csrc/u8g2_font.c ****   u8x8_utf8_init(u8g2_GetU8x8(u8g2));
 1394              		.loc 1 1092 0
 1395 0006 FFF7FEFF 		bl	u8x8_utf8_init
 1396              	.LVL222:
 1397              	.L80:
1093:..\u8g2\csrc/u8g2_font.c ****   for(;;)
1094:..\u8g2\csrc/u8g2_font.c ****   {
1095:..\u8g2\csrc/u8g2_font.c ****     e = u8g2->u8x8.next_cb(u8g2_GetU8x8(u8g2), (uint8_t)*str);
 1398              		.loc 1 1095 0
 1399 000a 6B68     		ldr	r3, [r5, #4]
 1400 000c 2178     		ldrb	r1, [r4]	@ zero_extendqisi2
 1401 000e 2846     		mov	r0, r5
 1402 0010 9847     		blx	r3
 1403              	.LVL223:
1096:..\u8g2\csrc/u8g2_font.c ****     if ( e == 0x0ffff )
 1404              		.loc 1 1096 0
 1405 0012 4FF6FF73 		movw	r3, #65535
 1406 0016 9842     		cmp	r0, r3
 1407 0018 0BD0     		beq	.L81
1097:..\u8g2\csrc/u8g2_font.c ****       break;
1098:..\u8g2\csrc/u8g2_font.c ****     str++;
 1408              		.loc 1 1098 0
 1409 001a 0134     		adds	r4, r4, #1
 1410              	.LVL224:
1099:..\u8g2\csrc/u8g2_font.c ****     if ( e != 0x0fffe )
 1411              		.loc 1 1099 0
 1412 001c 4FF6FE73 		movw	r3, #65534
 1413 0020 9842     		cmp	r0, r3
 1414 0022 F2D0     		beq	.L80
1100:..\u8g2\csrc/u8g2_font.c ****     {
1101:..\u8g2\csrc/u8g2_font.c ****       if ( u8g2_font_get_glyph_data(u8g2, e) == NULL )
 1415              		.loc 1 1101 0
 1416 0024 0146     		mov	r1, r0
 1417 0026 2846     		mov	r0, r5
 1418              	.LVL225:
 1419 0028 FFF7FEFF 		bl	u8g2_font_get_glyph_data
 1420              	.LVL226:
 1421 002c 0028     		cmp	r0, #0
 1422 002e ECD1     		bne	.L80
 1423 0030 38BD     		pop	{r3, r4, r5, pc}
 1424              	.LVL227:
 1425              	.L81:
1102:..\u8g2\csrc/u8g2_font.c **** 	return 0;
1103:..\u8g2\csrc/u8g2_font.c ****     }
1104:..\u8g2\csrc/u8g2_font.c ****   }
1105:..\u8g2\csrc/u8g2_font.c ****   return 1;
 1426              		.loc 1 1105 0
 1427 0032 0120     		movs	r0, #1
 1428              	.LVL228:
1106:..\u8g2\csrc/u8g2_font.c **** }
 1429              		.loc 1 1106 0
ARM GAS  C:\Users\brian\AppData\Local\Temp\ccTYhJxe.s 			page 49


 1430 0034 38BD     		pop	{r3, r4, r5, pc}
 1431              		.cfi_endproc
 1432              	.LFE40:
 1433              		.size	u8g2_is_all_valid, .-u8g2_is_all_valid
 1434 0036 00BF     		.section	.text.u8g2_GetGlyphHorizontalProperties,"ax",%progbits
 1435              		.align	2
 1436              		.thumb
 1437              		.thumb_func
 1438              		.type	u8g2_GetGlyphHorizontalProperties, %function
 1439              	u8g2_GetGlyphHorizontalProperties:
 1440              	.LFB43:
1107:..\u8g2\csrc/u8g2_font.c **** 
1108:..\u8g2\csrc/u8g2_font.c **** uint8_t u8g2_IsAllValidUTF8(u8g2_t *u8g2, const char *str)
1109:..\u8g2\csrc/u8g2_font.c **** {
1110:..\u8g2\csrc/u8g2_font.c ****   u8g2->u8x8.next_cb = u8x8_utf8_next;
1111:..\u8g2\csrc/u8g2_font.c ****   return u8g2_is_all_valid(u8g2, str);
1112:..\u8g2\csrc/u8g2_font.c **** }
1113:..\u8g2\csrc/u8g2_font.c **** 
1114:..\u8g2\csrc/u8g2_font.c **** 
1115:..\u8g2\csrc/u8g2_font.c **** /* string calculation is stilll not 100% perfect as it addes the initial string offset to the overa
1116:..\u8g2\csrc/u8g2_font.c **** static u8g2_uint_t u8g2_string_width(u8g2_t *u8g2, const char *str) U8G2_NOINLINE;
1117:..\u8g2\csrc/u8g2_font.c **** static u8g2_uint_t u8g2_string_width(u8g2_t *u8g2, const char *str)
1118:..\u8g2\csrc/u8g2_font.c **** {
1119:..\u8g2\csrc/u8g2_font.c ****   uint16_t e;
1120:..\u8g2\csrc/u8g2_font.c ****   u8g2_uint_t  w, dx;
1121:..\u8g2\csrc/u8g2_font.c **** #ifdef U8G2_BALANCED_STR_WIDTH_CALCULATION
1122:..\u8g2\csrc/u8g2_font.c ****   int8_t initial_x_offset = -64;
1123:..\u8g2\csrc/u8g2_font.c **** #endif 
1124:..\u8g2\csrc/u8g2_font.c ****   
1125:..\u8g2\csrc/u8g2_font.c ****   u8g2->font_decode.glyph_width = 0;
1126:..\u8g2\csrc/u8g2_font.c ****   u8x8_utf8_init(u8g2_GetU8x8(u8g2));
1127:..\u8g2\csrc/u8g2_font.c ****   
1128:..\u8g2\csrc/u8g2_font.c ****   /* reset the total width to zero, this will be expanded during calculation */
1129:..\u8g2\csrc/u8g2_font.c ****   w = 0;
1130:..\u8g2\csrc/u8g2_font.c ****   dx = 0;
1131:..\u8g2\csrc/u8g2_font.c **** 
1132:..\u8g2\csrc/u8g2_font.c ****   // printf("str=<%s>\n", str);
1133:..\u8g2\csrc/u8g2_font.c **** 	
1134:..\u8g2\csrc/u8g2_font.c ****   for(;;)
1135:..\u8g2\csrc/u8g2_font.c ****   {
1136:..\u8g2\csrc/u8g2_font.c ****     e = u8g2->u8x8.next_cb(u8g2_GetU8x8(u8g2), (uint8_t)*str);
1137:..\u8g2\csrc/u8g2_font.c ****     if ( e == 0x0ffff )
1138:..\u8g2\csrc/u8g2_font.c ****       break;
1139:..\u8g2\csrc/u8g2_font.c ****     str++;
1140:..\u8g2\csrc/u8g2_font.c ****     if ( e != 0x0fffe )
1141:..\u8g2\csrc/u8g2_font.c ****     {
1142:..\u8g2\csrc/u8g2_font.c ****       dx = u8g2_GetGlyphWidth(u8g2, e);		/* delta x value of the glyph */
1143:..\u8g2\csrc/u8g2_font.c **** #ifdef U8G2_BALANCED_STR_WIDTH_CALCULATION
1144:..\u8g2\csrc/u8g2_font.c ****       if ( initial_x_offset == -64 )
1145:..\u8g2\csrc/u8g2_font.c ****         initial_x_offset = u8g2->glyph_x_offset;
1146:..\u8g2\csrc/u8g2_font.c **** #endif 
1147:..\u8g2\csrc/u8g2_font.c ****       //printf("'%c' x=%d dx=%d w=%d io=%d ", e, u8g2->glyph_x_offset, dx, u8g2->font_decode.glyph_
1148:..\u8g2\csrc/u8g2_font.c ****       w += dx;
1149:..\u8g2\csrc/u8g2_font.c ****     }
1150:..\u8g2\csrc/u8g2_font.c ****   }
1151:..\u8g2\csrc/u8g2_font.c ****   //printf("\n");
1152:..\u8g2\csrc/u8g2_font.c ****   
ARM GAS  C:\Users\brian\AppData\Local\Temp\ccTYhJxe.s 			page 50


1153:..\u8g2\csrc/u8g2_font.c ****   /* adjust the last glyph, check for issue #16: do not adjust if width is 0 */
1154:..\u8g2\csrc/u8g2_font.c ****   if ( u8g2->font_decode.glyph_width != 0 )
1155:..\u8g2\csrc/u8g2_font.c ****   {
1156:..\u8g2\csrc/u8g2_font.c ****     //printf("string width adjust dx=%d glyph_width=%d x-offset=%d\n", dx, u8g2->font_decode.glyph_
1157:..\u8g2\csrc/u8g2_font.c ****     w -= dx;
1158:..\u8g2\csrc/u8g2_font.c ****     w += u8g2->font_decode.glyph_width;  /* the real pixel width of the glyph, sideeffect of GetGly
1159:..\u8g2\csrc/u8g2_font.c ****     /* issue #46: we have to add the x offset also */
1160:..\u8g2\csrc/u8g2_font.c ****     w += u8g2->glyph_x_offset;	/* this value is set as a side effect of u8g2_GetGlyphWidth() */
1161:..\u8g2\csrc/u8g2_font.c **** #ifdef U8G2_BALANCED_STR_WIDTH_CALCULATION
1162:..\u8g2\csrc/u8g2_font.c ****     /* https://github.com/olikraus/u8g2/issues/1561 */
1163:..\u8g2\csrc/u8g2_font.c ****     if ( initial_x_offset > 0 )
1164:..\u8g2\csrc/u8g2_font.c ****       w+=initial_x_offset;
1165:..\u8g2\csrc/u8g2_font.c **** #endif 
1166:..\u8g2\csrc/u8g2_font.c ****   }
1167:..\u8g2\csrc/u8g2_font.c ****   // printf("w=%d \n", w);
1168:..\u8g2\csrc/u8g2_font.c ****   
1169:..\u8g2\csrc/u8g2_font.c ****   return w;  
1170:..\u8g2\csrc/u8g2_font.c **** }
1171:..\u8g2\csrc/u8g2_font.c **** 
1172:..\u8g2\csrc/u8g2_font.c **** static void u8g2_GetGlyphHorizontalProperties(u8g2_t *u8g2, uint16_t requested_encoding, uint8_t *w
1173:..\u8g2\csrc/u8g2_font.c **** {
 1441              		.loc 1 1173 0
 1442              		.cfi_startproc
 1443              		@ args = 4, pretend = 0, frame = 0
 1444              		@ frame_needed = 0, uses_anonymous_args = 0
 1445              	.LVL229:
 1446 0000 70B5     		push	{r4, r5, r6, lr}
 1447              		.cfi_def_cfa_offset 16
 1448              		.cfi_offset 4, -16
 1449              		.cfi_offset 5, -12
 1450              		.cfi_offset 6, -8
 1451              		.cfi_offset 14, -4
 1452 0002 0446     		mov	r4, r0
 1453 0004 1546     		mov	r5, r2
 1454 0006 1E46     		mov	r6, r3
1174:..\u8g2\csrc/u8g2_font.c ****   const uint8_t *glyph_data = u8g2_font_get_glyph_data(u8g2, requested_encoding);
 1455              		.loc 1 1174 0
 1456 0008 FFF7FEFF 		bl	u8g2_font_get_glyph_data
 1457              	.LVL230:
1175:..\u8g2\csrc/u8g2_font.c ****   if ( glyph_data == NULL )
 1458              		.loc 1 1175 0
 1459 000c D0B1     		cbz	r0, .L83
 1460 000e 0146     		mov	r1, r0
1176:..\u8g2\csrc/u8g2_font.c ****     return; 
1177:..\u8g2\csrc/u8g2_font.c ****   
1178:..\u8g2\csrc/u8g2_font.c ****   u8g2_font_setup_decode(u8g2, glyph_data);
 1461              		.loc 1 1178 0
 1462 0010 2046     		mov	r0, r4
 1463              	.LVL231:
 1464 0012 FFF7FEFF 		bl	u8g2_font_setup_decode
 1465              	.LVL232:
1179:..\u8g2\csrc/u8g2_font.c ****   *w = u8g2->font_decode.glyph_width;
 1466              		.loc 1 1179 0
 1467 0016 94F96A30 		ldrsb	r3, [r4, #106]
 1468 001a 2B70     		strb	r3, [r5]
1180:..\u8g2\csrc/u8g2_font.c ****   *ox =  u8g2_font_decode_get_signed_bits(&(u8g2->font_decode), u8g2->font_info.bits_per_char_x);
 1469              		.loc 1 1180 0
ARM GAS  C:\Users\brian\AppData\Local\Temp\ccTYhJxe.s 			page 51


 1470 001c 04F16005 		add	r5, r4, #96
 1471              	.LVL233:
 1472 0020 94F87A10 		ldrb	r1, [r4, #122]	@ zero_extendqisi2
 1473 0024 2846     		mov	r0, r5
 1474 0026 FFF7FEFF 		bl	u8g2_font_decode_get_signed_bits
 1475              	.LVL234:
 1476 002a 3070     		strb	r0, [r6]
1181:..\u8g2\csrc/u8g2_font.c ****   u8g2_font_decode_get_signed_bits(&(u8g2->font_decode), u8g2->font_info.bits_per_char_y);
 1477              		.loc 1 1181 0
 1478 002c 94F87B10 		ldrb	r1, [r4, #123]	@ zero_extendqisi2
 1479 0030 2846     		mov	r0, r5
 1480 0032 FFF7FEFF 		bl	u8g2_font_decode_get_signed_bits
 1481              	.LVL235:
1182:..\u8g2\csrc/u8g2_font.c ****   *dx = u8g2_font_decode_get_signed_bits(&(u8g2->font_decode), u8g2->font_info.bits_per_delta_x);
 1482              		.loc 1 1182 0
 1483 0036 94F87C10 		ldrb	r1, [r4, #124]	@ zero_extendqisi2
 1484 003a 2846     		mov	r0, r5
 1485 003c FFF7FEFF 		bl	u8g2_font_decode_get_signed_bits
 1486              	.LVL236:
 1487 0040 049B     		ldr	r3, [sp, #16]
 1488 0042 1870     		strb	r0, [r3]
 1489              	.L83:
 1490 0044 70BD     		pop	{r4, r5, r6, pc}
 1491              		.cfi_endproc
 1492              	.LFE43:
 1493              		.size	u8g2_GetGlyphHorizontalProperties, .-u8g2_GetGlyphHorizontalProperties
 1494 0046 00BF     		.section	.text.u8g2_IsGlyph,"ax",%progbits
 1495              		.align	2
 1496              		.global	u8g2_IsGlyph
 1497              		.thumb
 1498              		.thumb_func
 1499              		.type	u8g2_IsGlyph, %function
 1500              	u8g2_IsGlyph:
 1501              	.LFB18:
 732:..\u8g2\csrc/u8g2_font.c ****   /* updated to new code */
 1502              		.loc 1 732 0
 1503              		.cfi_startproc
 1504              		@ args = 0, pretend = 0, frame = 0
 1505              		@ frame_needed = 0, uses_anonymous_args = 0
 1506              	.LVL237:
 1507 0000 08B5     		push	{r3, lr}
 1508              		.cfi_def_cfa_offset 8
 1509              		.cfi_offset 3, -8
 1510              		.cfi_offset 14, -4
 734:..\u8g2\csrc/u8g2_font.c ****     return 1;
 1511              		.loc 1 734 0
 1512 0002 FFF7FEFF 		bl	u8g2_font_get_glyph_data
 1513              	.LVL238:
 1514 0006 08B1     		cbz	r0, .L88
 735:..\u8g2\csrc/u8g2_font.c ****   return 0;
 1515              		.loc 1 735 0
 1516 0008 0120     		movs	r0, #1
 1517 000a 08BD     		pop	{r3, pc}
 1518              	.L88:
 736:..\u8g2\csrc/u8g2_font.c **** }
 1519              		.loc 1 736 0
 1520 000c 0020     		movs	r0, #0
ARM GAS  C:\Users\brian\AppData\Local\Temp\ccTYhJxe.s 			page 52


 737:..\u8g2\csrc/u8g2_font.c **** 
 1521              		.loc 1 737 0
 1522 000e 08BD     		pop	{r3, pc}
 1523              		.cfi_endproc
 1524              	.LFE18:
 1525              		.size	u8g2_IsGlyph, .-u8g2_IsGlyph
 1526              		.section	.text.u8g2_GetGlyphWidth,"ax",%progbits
 1527              		.align	2
 1528              		.global	u8g2_GetGlyphWidth
 1529              		.thumb
 1530              		.thumb_func
 1531              		.type	u8g2_GetGlyphWidth, %function
 1532              	u8g2_GetGlyphWidth:
 1533              	.LFB19:
 741:..\u8g2\csrc/u8g2_font.c ****   const uint8_t *glyph_data = u8g2_font_get_glyph_data(u8g2, requested_encoding);
 1534              		.loc 1 741 0
 1535              		.cfi_startproc
 1536              		@ args = 0, pretend = 0, frame = 0
 1537              		@ frame_needed = 0, uses_anonymous_args = 0
 1538              	.LVL239:
 1539 0000 38B5     		push	{r3, r4, r5, lr}
 1540              		.cfi_def_cfa_offset 16
 1541              		.cfi_offset 3, -16
 1542              		.cfi_offset 4, -12
 1543              		.cfi_offset 5, -8
 1544              		.cfi_offset 14, -4
 1545 0002 0446     		mov	r4, r0
 742:..\u8g2\csrc/u8g2_font.c ****   if ( glyph_data == NULL )
 1546              		.loc 1 742 0
 1547 0004 FFF7FEFF 		bl	u8g2_font_get_glyph_data
 1548              	.LVL240:
 743:..\u8g2\csrc/u8g2_font.c ****     return 0; 
 1549              		.loc 1 743 0
 1550 0008 B8B1     		cbz	r0, .L92
 1551 000a 0146     		mov	r1, r0
 746:..\u8g2\csrc/u8g2_font.c ****   u8g2->glyph_x_offset = u8g2_font_decode_get_signed_bits(&(u8g2->font_decode), u8g2->font_info.bit
 1552              		.loc 1 746 0
 1553 000c 2046     		mov	r0, r4
 1554              	.LVL241:
 1555 000e FFF7FEFF 		bl	u8g2_font_setup_decode
 1556              	.LVL242:
 747:..\u8g2\csrc/u8g2_font.c ****   u8g2_font_decode_get_signed_bits(&(u8g2->font_decode), u8g2->font_info.bits_per_char_y);
 1557              		.loc 1 747 0
 1558 0012 04F16005 		add	r5, r4, #96
 1559 0016 94F87A10 		ldrb	r1, [r4, #122]	@ zero_extendqisi2
 1560 001a 2846     		mov	r0, r5
 1561 001c FFF7FEFF 		bl	u8g2_font_decode_get_signed_bits
 1562              	.LVL243:
 1563 0020 84F89000 		strb	r0, [r4, #144]
 748:..\u8g2\csrc/u8g2_font.c ****   
 1564              		.loc 1 748 0
 1565 0024 94F87B10 		ldrb	r1, [r4, #123]	@ zero_extendqisi2
 1566 0028 2846     		mov	r0, r5
 1567 002a FFF7FEFF 		bl	u8g2_font_decode_get_signed_bits
 1568              	.LVL244:
 752:..\u8g2\csrc/u8g2_font.c **** }
 1569              		.loc 1 752 0
ARM GAS  C:\Users\brian\AppData\Local\Temp\ccTYhJxe.s 			page 53


 1570 002e 94F87C10 		ldrb	r1, [r4, #124]	@ zero_extendqisi2
 1571 0032 2846     		mov	r0, r5
 1572 0034 FFF7FEFF 		bl	u8g2_font_decode_get_signed_bits
 1573              	.LVL245:
 1574 0038 38BD     		pop	{r3, r4, r5, pc}
 1575              	.LVL246:
 1576              	.L92:
 744:..\u8g2\csrc/u8g2_font.c ****   
 1577              		.loc 1 744 0
 1578 003a 0020     		movs	r0, #0
 1579              	.LVL247:
 753:..\u8g2\csrc/u8g2_font.c **** 
 1580              		.loc 1 753 0
 1581 003c 38BD     		pop	{r3, r4, r5, pc}
 1582              		.cfi_endproc
 1583              	.LFE19:
 1584              		.size	u8g2_GetGlyphWidth, .-u8g2_GetGlyphWidth
 1585 003e 00BF     		.section	.text.u8g2_string_width,"ax",%progbits
 1586              		.align	2
 1587              		.thumb
 1588              		.thumb_func
 1589              		.type	u8g2_string_width, %function
 1590              	u8g2_string_width:
 1591              	.LFB42:
1118:..\u8g2\csrc/u8g2_font.c ****   uint16_t e;
 1592              		.loc 1 1118 0
 1593              		.cfi_startproc
 1594              		@ args = 0, pretend = 0, frame = 0
 1595              		@ frame_needed = 0, uses_anonymous_args = 0
 1596              	.LVL248:
 1597 0000 2DE9F041 		push	{r4, r5, r6, r7, r8, lr}
 1598              		.cfi_def_cfa_offset 24
 1599              		.cfi_offset 4, -24
 1600              		.cfi_offset 5, -20
 1601              		.cfi_offset 6, -16
 1602              		.cfi_offset 7, -12
 1603              		.cfi_offset 8, -8
 1604              		.cfi_offset 14, -4
 1605 0004 0446     		mov	r4, r0
 1606 0006 0D46     		mov	r5, r1
 1607              	.LVL249:
1125:..\u8g2\csrc/u8g2_font.c ****   u8x8_utf8_init(u8g2_GetU8x8(u8g2));
 1608              		.loc 1 1125 0
 1609 0008 0026     		movs	r6, #0
 1610 000a 80F86A60 		strb	r6, [r0, #106]
1126:..\u8g2\csrc/u8g2_font.c ****   
 1611              		.loc 1 1126 0
 1612 000e FFF7FEFF 		bl	u8x8_utf8_init
 1613              	.LVL250:
1122:..\u8g2\csrc/u8g2_font.c **** #endif 
 1614              		.loc 1 1122 0
 1615 0012 6FF03F08 		mvn	r8, #63
1130:..\u8g2\csrc/u8g2_font.c **** 
 1616              		.loc 1 1130 0
 1617 0016 3746     		mov	r7, r6
 1618              	.LVL251:
 1619              	.L95:
ARM GAS  C:\Users\brian\AppData\Local\Temp\ccTYhJxe.s 			page 54


1136:..\u8g2\csrc/u8g2_font.c ****     if ( e == 0x0ffff )
 1620              		.loc 1 1136 0
 1621 0018 6368     		ldr	r3, [r4, #4]
 1622 001a 2978     		ldrb	r1, [r5]	@ zero_extendqisi2
 1623 001c 2046     		mov	r0, r4
 1624 001e 9847     		blx	r3
 1625              	.LVL252:
1137:..\u8g2\csrc/u8g2_font.c ****       break;
 1626              		.loc 1 1137 0
 1627 0020 4FF6FF73 		movw	r3, #65535
 1628 0024 9842     		cmp	r0, r3
 1629 0026 11D0     		beq	.L96
1139:..\u8g2\csrc/u8g2_font.c ****     if ( e != 0x0fffe )
 1630              		.loc 1 1139 0
 1631 0028 0135     		adds	r5, r5, #1
 1632              	.LVL253:
1140:..\u8g2\csrc/u8g2_font.c ****     {
 1633              		.loc 1 1140 0
 1634 002a 4FF6FE73 		movw	r3, #65534
 1635 002e 9842     		cmp	r0, r3
 1636 0030 F2D0     		beq	.L95
1142:..\u8g2\csrc/u8g2_font.c **** #ifdef U8G2_BALANCED_STR_WIDTH_CALCULATION
 1637              		.loc 1 1142 0
 1638 0032 0146     		mov	r1, r0
 1639 0034 2046     		mov	r0, r4
 1640              	.LVL254:
 1641 0036 FFF7FEFF 		bl	u8g2_GetGlyphWidth
 1642              	.LVL255:
 1643 003a 87B2     		uxth	r7, r0
 1644              	.LVL256:
1144:..\u8g2\csrc/u8g2_font.c ****         initial_x_offset = u8g2->glyph_x_offset;
 1645              		.loc 1 1144 0
 1646 003c 18F1400F 		cmn	r8, #64
 1647 0040 01D1     		bne	.L98
1145:..\u8g2\csrc/u8g2_font.c **** #endif 
 1648              		.loc 1 1145 0
 1649 0042 94F99080 		ldrsb	r8, [r4, #144]
 1650              	.LVL257:
 1651              	.L98:
1148:..\u8g2\csrc/u8g2_font.c ****     }
 1652              		.loc 1 1148 0
 1653 0046 3E44     		add	r6, r6, r7
 1654              	.LVL258:
 1655 0048 B6B2     		uxth	r6, r6
 1656              	.LVL259:
 1657 004a E5E7     		b	.L95
 1658              	.LVL260:
 1659              	.L96:
1154:..\u8g2\csrc/u8g2_font.c ****   {
 1660              		.loc 1 1154 0
 1661 004c 94F96A30 		ldrsb	r3, [r4, #106]
 1662 0050 63B1     		cbz	r3, .L99
1157:..\u8g2\csrc/u8g2_font.c ****     w += u8g2->font_decode.glyph_width;  /* the real pixel width of the glyph, sideeffect of GetGly
 1663              		.loc 1 1157 0
 1664 0052 F61B     		subs	r6, r6, r7
 1665              	.LVL261:
 1666 0054 B6B2     		uxth	r6, r6
ARM GAS  C:\Users\brian\AppData\Local\Temp\ccTYhJxe.s 			page 55


 1667              	.LVL262:
1158:..\u8g2\csrc/u8g2_font.c ****     /* issue #46: we have to add the x offset also */
 1668              		.loc 1 1158 0
 1669 0056 3344     		add	r3, r3, r6
 1670 0058 9BB2     		uxth	r3, r3
 1671              	.LVL263:
1160:..\u8g2\csrc/u8g2_font.c **** #ifdef U8G2_BALANCED_STR_WIDTH_CALCULATION
 1672              		.loc 1 1160 0
 1673 005a 94F99060 		ldrsb	r6, [r4, #144]
 1674 005e 1E44     		add	r6, r6, r3
 1675 0060 B6B2     		uxth	r6, r6
 1676              	.LVL264:
1163:..\u8g2\csrc/u8g2_font.c ****       w+=initial_x_offset;
 1677              		.loc 1 1163 0
 1678 0062 B8F1000F 		cmp	r8, #0
 1679 0066 01DD     		ble	.L99
1164:..\u8g2\csrc/u8g2_font.c **** #endif 
 1680              		.loc 1 1164 0
 1681 0068 4644     		add	r6, r6, r8
 1682              	.LVL265:
 1683 006a B6B2     		uxth	r6, r6
 1684              	.LVL266:
 1685              	.L99:
1170:..\u8g2\csrc/u8g2_font.c **** 
 1686              		.loc 1 1170 0
 1687 006c 3046     		mov	r0, r6
 1688              	.LVL267:
 1689 006e BDE8F081 		pop	{r4, r5, r6, r7, r8, pc}
 1690              		.cfi_endproc
 1691              	.LFE42:
 1692              		.size	u8g2_string_width, .-u8g2_string_width
 1693 0072 00BF     		.section	.text.u8g2_SetFontMode,"ax",%progbits
 1694              		.align	2
 1695              		.global	u8g2_SetFontMode
 1696              		.thumb
 1697              		.thumb_func
 1698              		.type	u8g2_SetFontMode, %function
 1699              	u8g2_SetFontMode:
 1700              	.LFB20:
 764:..\u8g2\csrc/u8g2_font.c ****   u8g2->font_decode.is_transparent = is_transparent;		// new font procedures
 1701              		.loc 1 764 0
 1702              		.cfi_startproc
 1703              		@ args = 0, pretend = 0, frame = 0
 1704              		@ frame_needed = 0, uses_anonymous_args = 0
 1705              		@ link register save eliminated.
 1706              	.LVL268:
 765:..\u8g2\csrc/u8g2_font.c **** }
 1707              		.loc 1 765 0
 1708 0000 80F86D10 		strb	r1, [r0, #109]
 1709 0004 7047     		bx	lr
 1710              		.cfi_endproc
 1711              	.LFE20:
 1712              		.size	u8g2_SetFontMode, .-u8g2_SetFontMode
 1713 0006 00BF     		.section	.text.u8g2_DrawGlyph,"ax",%progbits
 1714              		.align	2
 1715              		.global	u8g2_DrawGlyph
 1716              		.thumb
ARM GAS  C:\Users\brian\AppData\Local\Temp\ccTYhJxe.s 			page 56


 1717              		.thumb_func
 1718              		.type	u8g2_DrawGlyph, %function
 1719              	u8g2_DrawGlyph:
 1720              	.LFB21:
 769:..\u8g2\csrc/u8g2_font.c **** #ifdef U8G2_WITH_FONT_ROTATION
 1721              		.loc 1 769 0
 1722              		.cfi_startproc
 1723              		@ args = 0, pretend = 0, frame = 0
 1724              		@ frame_needed = 0, uses_anonymous_args = 0
 1725              	.LVL269:
 1726 0000 F8B5     		push	{r3, r4, r5, r6, r7, lr}
 1727              		.cfi_def_cfa_offset 24
 1728              		.cfi_offset 3, -24
 1729              		.cfi_offset 4, -20
 1730              		.cfi_offset 5, -16
 1731              		.cfi_offset 6, -12
 1732              		.cfi_offset 7, -8
 1733              		.cfi_offset 14, -4
 1734 0002 0446     		mov	r4, r0
 1735 0004 0D46     		mov	r5, r1
 1736 0006 1646     		mov	r6, r2
 1737 0008 1F46     		mov	r7, r3
 771:..\u8g2\csrc/u8g2_font.c ****   {
 1738              		.loc 1 771 0
 1739 000a 90F87030 		ldrb	r3, [r0, #112]	@ zero_extendqisi2
 1740              	.LVL270:
 1741 000e 032B     		cmp	r3, #3
 1742 0010 16D8     		bhi	.L103
 1743 0012 DFE803F0 		tbb	[pc, r3]
 1744              	.LVL271:
 1745              	.L105:
 1746 0016 02       		.byte	(.L104-.L105)/2
 1747 0017 07       		.byte	(.L106-.L105)/2
 1748 0018 0C       		.byte	(.L107-.L105)/2
 1749 0019 11       		.byte	(.L108-.L105)/2
 1750              		.p2align 1
 1751              	.L104:
 774:..\u8g2\csrc/u8g2_font.c ****       break;
 1752              		.loc 1 774 0
 1753 001a C36D     		ldr	r3, [r0, #92]
 1754 001c 9847     		blx	r3
 1755              	.LVL272:
 1756 001e 3044     		add	r0, r0, r6
 1757 0020 86B2     		uxth	r6, r0
 1758              	.LVL273:
 775:..\u8g2\csrc/u8g2_font.c ****     case 1:
 1759              		.loc 1 775 0
 1760 0022 0DE0     		b	.L103
 1761              	.LVL274:
 1762              	.L106:
 777:..\u8g2\csrc/u8g2_font.c ****       break;
 1763              		.loc 1 777 0
 1764 0024 C36D     		ldr	r3, [r0, #92]
 1765 0026 9847     		blx	r3
 1766              	.LVL275:
 1767 0028 281A     		subs	r0, r5, r0
 1768 002a 85B2     		uxth	r5, r0
ARM GAS  C:\Users\brian\AppData\Local\Temp\ccTYhJxe.s 			page 57


 1769              	.LVL276:
 778:..\u8g2\csrc/u8g2_font.c ****     case 2:
 1770              		.loc 1 778 0
 1771 002c 08E0     		b	.L103
 1772              	.LVL277:
 1773              	.L107:
 780:..\u8g2\csrc/u8g2_font.c ****       break;
 1774              		.loc 1 780 0
 1775 002e C36D     		ldr	r3, [r0, #92]
 1776 0030 9847     		blx	r3
 1777              	.LVL278:
 1778 0032 301A     		subs	r0, r6, r0
 1779 0034 86B2     		uxth	r6, r0
 1780              	.LVL279:
 781:..\u8g2\csrc/u8g2_font.c ****     case 3:
 1781              		.loc 1 781 0
 1782 0036 03E0     		b	.L103
 1783              	.LVL280:
 1784              	.L108:
 783:..\u8g2\csrc/u8g2_font.c ****       break;
 1785              		.loc 1 783 0
 1786 0038 C36D     		ldr	r3, [r0, #92]
 1787 003a 9847     		blx	r3
 1788              	.LVL281:
 1789 003c 2844     		add	r0, r0, r5
 1790 003e 85B2     		uxth	r5, r0
 1791              	.LVL282:
 1792              	.L103:
 789:..\u8g2\csrc/u8g2_font.c **** }
 1793              		.loc 1 789 0
 1794 0040 3B46     		mov	r3, r7
 1795 0042 3246     		mov	r2, r6
 1796 0044 2946     		mov	r1, r5
 1797 0046 2046     		mov	r0, r4
 1798 0048 FFF7FEFF 		bl	u8g2_font_draw_glyph
 1799              	.LVL283:
 790:..\u8g2\csrc/u8g2_font.c **** 
 1800              		.loc 1 790 0
 1801 004c F8BD     		pop	{r3, r4, r5, r6, r7, pc}
 1802              		.cfi_endproc
 1803              	.LFE21:
 1804              		.size	u8g2_DrawGlyph, .-u8g2_DrawGlyph
 1805 004e 00BF     		.section	.text.u8g2_draw_string,"ax",%progbits
 1806              		.align	2
 1807              		.thumb
 1808              		.thumb_func
 1809              		.type	u8g2_draw_string, %function
 1810              	u8g2_draw_string:
 1811              	.LFB22:
 794:..\u8g2\csrc/u8g2_font.c ****   uint16_t e;
 1812              		.loc 1 794 0
 1813              		.cfi_startproc
 1814              		@ args = 0, pretend = 0, frame = 0
 1815              		@ frame_needed = 0, uses_anonymous_args = 0
 1816              	.LVL284:
 1817 0000 2DE9F041 		push	{r4, r5, r6, r7, r8, lr}
 1818              		.cfi_def_cfa_offset 24
ARM GAS  C:\Users\brian\AppData\Local\Temp\ccTYhJxe.s 			page 58


 1819              		.cfi_offset 4, -24
 1820              		.cfi_offset 5, -20
 1821              		.cfi_offset 6, -16
 1822              		.cfi_offset 7, -12
 1823              		.cfi_offset 8, -8
 1824              		.cfi_offset 14, -4
 1825 0004 0446     		mov	r4, r0
 1826 0006 0F46     		mov	r7, r1
 1827 0008 1646     		mov	r6, r2
 1828 000a 1D46     		mov	r5, r3
 797:..\u8g2\csrc/u8g2_font.c ****   sum = 0;
 1829              		.loc 1 797 0
 1830 000c FFF7FEFF 		bl	u8x8_utf8_init
 1831              	.LVL285:
 798:..\u8g2\csrc/u8g2_font.c ****   for(;;)
 1832              		.loc 1 798 0
 1833 0010 4FF00008 		mov	r8, #0
 1834              	.LVL286:
 1835              	.L111:
 801:..\u8g2\csrc/u8g2_font.c ****     if ( e == 0x0ffff )
 1836              		.loc 1 801 0
 1837 0014 6368     		ldr	r3, [r4, #4]
 1838 0016 2978     		ldrb	r1, [r5]	@ zero_extendqisi2
 1839 0018 2046     		mov	r0, r4
 1840 001a 9847     		blx	r3
 1841              	.LVL287:
 802:..\u8g2\csrc/u8g2_font.c ****       break;
 1842              		.loc 1 802 0
 1843 001c 4FF6FF73 		movw	r3, #65535
 1844 0020 9842     		cmp	r0, r3
 1845 0022 21D0     		beq	.L112
 804:..\u8g2\csrc/u8g2_font.c ****     if ( e != 0x0fffe )
 1846              		.loc 1 804 0
 1847 0024 0135     		adds	r5, r5, #1
 1848              	.LVL288:
 805:..\u8g2\csrc/u8g2_font.c ****     {
 1849              		.loc 1 805 0
 1850 0026 4FF6FE73 		movw	r3, #65534
 1851 002a 9842     		cmp	r0, r3
 1852 002c F2D0     		beq	.L111
 807:..\u8g2\csrc/u8g2_font.c ****     
 1853              		.loc 1 807 0
 1854 002e 0346     		mov	r3, r0
 1855 0030 3246     		mov	r2, r6
 1856 0032 3946     		mov	r1, r7
 1857 0034 2046     		mov	r0, r4
 1858              	.LVL289:
 1859 0036 FFF7FEFF 		bl	u8g2_DrawGlyph
 1860              	.LVL290:
 810:..\u8g2\csrc/u8g2_font.c ****       {
 1861              		.loc 1 810 0
 1862 003a 94F87030 		ldrb	r3, [r4, #112]	@ zero_extendqisi2
 1863 003e 032B     		cmp	r3, #3
 1864 0040 0ED8     		bhi	.L114
 1865 0042 DFE803F0 		tbb	[pc, r3]
 1866              	.L116:
 1867 0046 02       		.byte	(.L115-.L116)/2
ARM GAS  C:\Users\brian\AppData\Local\Temp\ccTYhJxe.s 			page 59


 1868 0047 05       		.byte	(.L117-.L116)/2
 1869 0048 08       		.byte	(.L118-.L116)/2
 1870 0049 0B       		.byte	(.L119-.L116)/2
 1871              		.p2align 1
 1872              	.L115:
 813:..\u8g2\csrc/u8g2_font.c **** 	  break;
 1873              		.loc 1 813 0
 1874 004a 0744     		add	r7, r7, r0
 1875              	.LVL291:
 1876 004c BFB2     		uxth	r7, r7
 1877              	.LVL292:
 814:..\u8g2\csrc/u8g2_font.c **** 	case 1:
 1878              		.loc 1 814 0
 1879 004e 07E0     		b	.L114
 1880              	.L117:
 816:..\u8g2\csrc/u8g2_font.c **** 	  break;
 1881              		.loc 1 816 0
 1882 0050 0644     		add	r6, r6, r0
 1883              	.LVL293:
 1884 0052 B6B2     		uxth	r6, r6
 1885              	.LVL294:
 817:..\u8g2\csrc/u8g2_font.c **** 	case 2:
 1886              		.loc 1 817 0
 1887 0054 04E0     		b	.L114
 1888              	.L118:
 819:..\u8g2\csrc/u8g2_font.c **** 	  break;
 1889              		.loc 1 819 0
 1890 0056 3F1A     		subs	r7, r7, r0
 1891              	.LVL295:
 1892 0058 BFB2     		uxth	r7, r7
 1893              	.LVL296:
 820:..\u8g2\csrc/u8g2_font.c **** 	case 3:
 1894              		.loc 1 820 0
 1895 005a 01E0     		b	.L114
 1896              	.L119:
 822:..\u8g2\csrc/u8g2_font.c **** 	  break;
 1897              		.loc 1 822 0
 1898 005c 361A     		subs	r6, r6, r0
 1899              	.LVL297:
 1900 005e B6B2     		uxth	r6, r6
 1901              	.LVL298:
 1902              	.L114:
 836:..\u8g2\csrc/u8g2_font.c ****     }
 1903              		.loc 1 836 0
 1904 0060 4044     		add	r0, r0, r8
 1905              	.LVL299:
 1906 0062 1FFA80F8 		uxth	r8, r0
 1907              	.LVL300:
 1908 0066 D5E7     		b	.L111
 1909              	.LVL301:
 1910              	.L112:
 840:..\u8g2\csrc/u8g2_font.c **** 
 1911              		.loc 1 840 0
 1912 0068 4046     		mov	r0, r8
 1913              	.LVL302:
 1914 006a BDE8F081 		pop	{r4, r5, r6, r7, r8, pc}
 1915              		.cfi_endproc
ARM GAS  C:\Users\brian\AppData\Local\Temp\ccTYhJxe.s 			page 60


 1916              	.LFE22:
 1917              		.size	u8g2_draw_string, .-u8g2_draw_string
 1918 006e 00BF     		.section	.text.u8g2_DrawStr,"ax",%progbits
 1919              		.align	2
 1920              		.global	u8g2_DrawStr
 1921              		.thumb
 1922              		.thumb_func
 1923              		.type	u8g2_DrawStr, %function
 1924              	u8g2_DrawStr:
 1925              	.LFB23:
 843:..\u8g2\csrc/u8g2_font.c ****   u8g2->u8x8.next_cb = u8x8_ascii_next;
 1926              		.loc 1 843 0
 1927              		.cfi_startproc
 1928              		@ args = 0, pretend = 0, frame = 0
 1929              		@ frame_needed = 0, uses_anonymous_args = 0
 1930              	.LVL303:
 1931 0000 10B5     		push	{r4, lr}
 1932              		.cfi_def_cfa_offset 8
 1933              		.cfi_offset 4, -8
 1934              		.cfi_offset 14, -4
 844:..\u8g2\csrc/u8g2_font.c ****   return u8g2_draw_string(u8g2, x, y, str);
 1935              		.loc 1 844 0
 1936 0002 024C     		ldr	r4, .L123
 1937 0004 4460     		str	r4, [r0, #4]
 845:..\u8g2\csrc/u8g2_font.c **** }
 1938              		.loc 1 845 0
 1939 0006 FFF7FEFF 		bl	u8g2_draw_string
 1940              	.LVL304:
 846:..\u8g2\csrc/u8g2_font.c **** 
 1941              		.loc 1 846 0
 1942 000a 10BD     		pop	{r4, pc}
 1943              	.L124:
 1944              		.align	2
 1945              	.L123:
 1946 000c 00000000 		.word	u8x8_ascii_next
 1947              		.cfi_endproc
 1948              	.LFE23:
 1949              		.size	u8g2_DrawStr, .-u8g2_DrawStr
 1950              		.section	.text.u8g2_DrawUTF8,"ax",%progbits
 1951              		.align	2
 1952              		.global	u8g2_DrawUTF8
 1953              		.thumb
 1954              		.thumb_func
 1955              		.type	u8g2_DrawUTF8, %function
 1956              	u8g2_DrawUTF8:
 1957              	.LFB24:
 859:..\u8g2\csrc/u8g2_font.c ****   u8g2->u8x8.next_cb = u8x8_utf8_next;
 1958              		.loc 1 859 0
 1959              		.cfi_startproc
 1960              		@ args = 0, pretend = 0, frame = 0
 1961              		@ frame_needed = 0, uses_anonymous_args = 0
 1962              	.LVL305:
 1963 0000 10B5     		push	{r4, lr}
 1964              		.cfi_def_cfa_offset 8
 1965              		.cfi_offset 4, -8
 1966              		.cfi_offset 14, -4
 860:..\u8g2\csrc/u8g2_font.c ****   return u8g2_draw_string(u8g2, x, y, str);
ARM GAS  C:\Users\brian\AppData\Local\Temp\ccTYhJxe.s 			page 61


 1967              		.loc 1 860 0
 1968 0002 024C     		ldr	r4, .L127
 1969 0004 4460     		str	r4, [r0, #4]
 861:..\u8g2\csrc/u8g2_font.c **** }
 1970              		.loc 1 861 0
 1971 0006 FFF7FEFF 		bl	u8g2_draw_string
 1972              	.LVL306:
 862:..\u8g2\csrc/u8g2_font.c **** 
 1973              		.loc 1 862 0
 1974 000a 10BD     		pop	{r4, pc}
 1975              	.L128:
 1976              		.align	2
 1977              	.L127:
 1978 000c 00000000 		.word	u8x8_utf8_next
 1979              		.cfi_endproc
 1980              	.LFE24:
 1981              		.size	u8g2_DrawUTF8, .-u8g2_DrawUTF8
 1982              		.section	.text.u8g2_DrawExtendedUTF8,"ax",%progbits
 1983              		.align	2
 1984              		.global	u8g2_DrawExtendedUTF8
 1985              		.thumb
 1986              		.thumb_func
 1987              		.type	u8g2_DrawExtendedUTF8, %function
 1988              	u8g2_DrawExtendedUTF8:
 1989              	.LFB25:
 867:..\u8g2\csrc/u8g2_font.c ****   u8g2->u8x8.next_cb = u8x8_utf8_next;
 1990              		.loc 1 867 0
 1991              		.cfi_startproc
 1992              		@ args = 8, pretend = 0, frame = 8
 1993              		@ frame_needed = 0, uses_anonymous_args = 0
 1994              	.LVL307:
 1995 0000 2DE9F04F 		push	{r4, r5, r6, r7, r8, r9, r10, fp, lr}
 1996              		.cfi_def_cfa_offset 36
 1997              		.cfi_offset 4, -36
 1998              		.cfi_offset 5, -32
 1999              		.cfi_offset 6, -28
 2000              		.cfi_offset 7, -24
 2001              		.cfi_offset 8, -20
 2002              		.cfi_offset 9, -16
 2003              		.cfi_offset 10, -12
 2004              		.cfi_offset 11, -8
 2005              		.cfi_offset 14, -4
 2006 0004 83B0     		sub	sp, sp, #12
 2007              		.cfi_def_cfa_offset 48
 2008 0006 8146     		mov	r9, r0
 2009 0008 0F46     		mov	r7, r1
 2010 000a 0192     		str	r2, [sp, #4]
 2011 000c 9B46     		mov	fp, r3
 2012 000e DDF834A0 		ldr	r10, [sp, #52]
 868:..\u8g2\csrc/u8g2_font.c ****   uint16_t e_prev = 0x0ffff;
 2013              		.loc 1 868 0
 2014 0012 274B     		ldr	r3, .L137
 2015              	.LVL308:
 2016 0014 4360     		str	r3, [r0, #4]
 2017              	.LVL309:
 872:..\u8g2\csrc/u8g2_font.c ****   sum = 0;
 2018              		.loc 1 872 0
ARM GAS  C:\Users\brian\AppData\Local\Temp\ccTYhJxe.s 			page 62


 2019 0016 FFF7FEFF 		bl	u8x8_utf8_init
 2020              	.LVL310:
 873:..\u8g2\csrc/u8g2_font.c ****   for(;;)
 2021              		.loc 1 873 0
 2022 001a 0025     		movs	r5, #0
 869:..\u8g2\csrc/u8g2_font.c ****   uint16_t e;
 2023              		.loc 1 869 0
 2024 001c 4FF6FF78 		movw	r8, #65535
 2025              	.LVL311:
 2026              	.L130:
 876:..\u8g2\csrc/u8g2_font.c ****     if ( e == 0x0ffff )
 2027              		.loc 1 876 0
 2028 0020 D9F80430 		ldr	r3, [r9, #4]
 2029 0024 9AF80010 		ldrb	r1, [r10]	@ zero_extendqisi2
 2030 0028 4846     		mov	r0, r9
 2031 002a 9847     		blx	r3
 2032              	.LVL312:
 2033 002c 0446     		mov	r4, r0
 2034              	.LVL313:
 877:..\u8g2\csrc/u8g2_font.c ****       break;
 2035              		.loc 1 877 0
 2036 002e 4FF6FF73 		movw	r3, #65535
 2037 0032 9842     		cmp	r0, r3
 2038 0034 38D0     		beq	.L131
 879:..\u8g2\csrc/u8g2_font.c ****     if ( e != 0x0fffe )
 2039              		.loc 1 879 0
 2040 0036 0AF1010A 		add	r10, r10, #1
 2041              	.LVL314:
 880:..\u8g2\csrc/u8g2_font.c ****     {
 2042              		.loc 1 880 0
 2043 003a 4FF6FE73 		movw	r3, #65534
 2044 003e 9842     		cmp	r0, r3
 2045 0040 EED0     		beq	.L130
 882:..\u8g2\csrc/u8g2_font.c **** 	    
 2046              		.loc 1 882 0
 2047 0042 0146     		mov	r1, r0
 2048 0044 4846     		mov	r0, r9
 2049              	.LVL315:
 2050 0046 FFF7FEFF 		bl	u8g2_GetGlyphWidth
 2051              	.LVL316:
 2052 004a 86B2     		uxth	r6, r0
 2053              	.LVL317:
 884:..\u8g2\csrc/u8g2_font.c ****       {
 2054              		.loc 1 884 0
 2055 004c BBF1000F 		cmp	fp, #0
 2056 0050 0DD0     		beq	.L133
 886:..\u8g2\csrc/u8g2_font.c **** 	delta -= k;
 2057              		.loc 1 886 0
 2058 0052 4346     		mov	r3, r8
 2059 0054 2246     		mov	r2, r4
 2060 0056 0C99     		ldr	r1, [sp, #48]
 2061 0058 4846     		mov	r0, r9
 2062 005a FFF7FEFF 		bl	u8g2_GetKerning
 2063              	.LVL318:
 2064 005e 1FFA80F8 		uxth	r8, r0
 2065              	.LVL319:
 887:..\u8g2\csrc/u8g2_font.c **** 	x -= delta;
ARM GAS  C:\Users\brian\AppData\Local\Temp\ccTYhJxe.s 			page 63


 2066              		.loc 1 887 0
 2067 0062 C8EB0606 		rsb	r6, r8, r6
 2068              	.LVL320:
 2069 0066 B6B2     		uxth	r6, r6
 2070              	.LVL321:
 888:..\u8g2\csrc/u8g2_font.c ****       }
 2071              		.loc 1 888 0
 2072 0068 BF1B     		subs	r7, r7, r6
 2073              	.LVL322:
 2074 006a BFB2     		uxth	r7, r7
 2075              	.LVL323:
 2076 006c 0AE0     		b	.L134
 2077              	.LVL324:
 2078              	.L133:
 892:..\u8g2\csrc/u8g2_font.c **** 	delta -= k;
 2079              		.loc 1 892 0
 2080 006e 2346     		mov	r3, r4
 2081 0070 4246     		mov	r2, r8
 2082 0072 0C99     		ldr	r1, [sp, #48]
 2083 0074 4846     		mov	r0, r9
 2084 0076 FFF7FEFF 		bl	u8g2_GetKerning
 2085              	.LVL325:
 2086 007a 1FFA80F8 		uxth	r8, r0
 2087              	.LVL326:
 893:..\u8g2\csrc/u8g2_font.c ****       }
 2088              		.loc 1 893 0
 2089 007e C8EB0606 		rsb	r6, r8, r6
 2090              	.LVL327:
 2091 0082 B6B2     		uxth	r6, r6
 2092              	.LVL328:
 2093              	.L134:
 897:..\u8g2\csrc/u8g2_font.c ****       if ( to_left )
 2094              		.loc 1 897 0
 2095 0084 2346     		mov	r3, r4
 2096 0086 019A     		ldr	r2, [sp, #4]
 2097 0088 3946     		mov	r1, r7
 2098 008a 4846     		mov	r0, r9
 2099 008c FFF7FEFF 		bl	u8g2_DrawGlyph
 2100              	.LVL329:
 898:..\u8g2\csrc/u8g2_font.c ****       {
 2101              		.loc 1 898 0
 2102 0090 BBF1000F 		cmp	fp, #0
 2103 0094 04D1     		bne	.L135
 903:..\u8g2\csrc/u8g2_font.c **** 	x -= k;
 2104              		.loc 1 903 0
 2105 0096 3744     		add	r7, r7, r6
 2106              	.LVL330:
 2107 0098 BFB2     		uxth	r7, r7
 2108              	.LVL331:
 904:..\u8g2\csrc/u8g2_font.c ****       }
 2109              		.loc 1 904 0
 2110 009a C8EB0707 		rsb	r7, r8, r7
 2111              	.LVL332:
 2112 009e BFB2     		uxth	r7, r7
 2113              	.LVL333:
 2114              	.L135:
 907:..\u8g2\csrc/u8g2_font.c ****     }
ARM GAS  C:\Users\brian\AppData\Local\Temp\ccTYhJxe.s 			page 64


 2115              		.loc 1 907 0
 2116 00a0 3544     		add	r5, r5, r6
 2117              	.LVL334:
 2118 00a2 ADB2     		uxth	r5, r5
 2119              	.LVL335:
 895:..\u8g2\csrc/u8g2_font.c **** 
 2120              		.loc 1 895 0
 2121 00a4 A046     		mov	r8, r4
 2122              	.LVL336:
 2123 00a6 BBE7     		b	.L130
 2124              	.LVL337:
 2125              	.L131:
 911:..\u8g2\csrc/u8g2_font.c **** 
 2126              		.loc 1 911 0
 2127 00a8 2846     		mov	r0, r5
 2128              	.LVL338:
 2129 00aa 03B0     		add	sp, sp, #12
 2130              		.cfi_def_cfa_offset 36
 2131              		@ sp needed
 2132 00ac BDE8F08F 		pop	{r4, r5, r6, r7, r8, r9, r10, fp, pc}
 2133              	.LVL339:
 2134              	.L138:
 2135              		.align	2
 2136              	.L137:
 2137 00b0 00000000 		.word	u8x8_utf8_next
 2138              		.cfi_endproc
 2139              	.LFE25:
 2140              		.size	u8g2_DrawExtendedUTF8, .-u8g2_DrawExtendedUTF8
 2141              		.section	.text.u8g2_DrawExtUTF8,"ax",%progbits
 2142              		.align	2
 2143              		.global	u8g2_DrawExtUTF8
 2144              		.thumb
 2145              		.thumb_func
 2146              		.type	u8g2_DrawExtUTF8, %function
 2147              	u8g2_DrawExtUTF8:
 2148              	.LFB26:
 914:..\u8g2\csrc/u8g2_font.c ****   u8g2->u8x8.next_cb = u8x8_utf8_next;
 2149              		.loc 1 914 0
 2150              		.cfi_startproc
 2151              		@ args = 8, pretend = 0, frame = 8
 2152              		@ frame_needed = 0, uses_anonymous_args = 0
 2153              	.LVL340:
 2154 0000 2DE9F04F 		push	{r4, r5, r6, r7, r8, r9, r10, fp, lr}
 2155              		.cfi_def_cfa_offset 36
 2156              		.cfi_offset 4, -36
 2157              		.cfi_offset 5, -32
 2158              		.cfi_offset 6, -28
 2159              		.cfi_offset 7, -24
 2160              		.cfi_offset 8, -20
 2161              		.cfi_offset 9, -16
 2162              		.cfi_offset 10, -12
 2163              		.cfi_offset 11, -8
 2164              		.cfi_offset 14, -4
 2165 0004 83B0     		sub	sp, sp, #12
 2166              		.cfi_def_cfa_offset 48
 2167 0006 0646     		mov	r6, r0
 2168 0008 8846     		mov	r8, r1
ARM GAS  C:\Users\brian\AppData\Local\Temp\ccTYhJxe.s 			page 65


 2169 000a 0192     		str	r2, [sp, #4]
 2170 000c 9B46     		mov	fp, r3
 2171 000e 0D9F     		ldr	r7, [sp, #52]
 915:..\u8g2\csrc/u8g2_font.c ****   uint16_t e_prev = 0x0ffff;
 2172              		.loc 1 915 0
 2173 0010 244B     		ldr	r3, .L147
 2174              	.LVL341:
 2175 0012 4360     		str	r3, [r0, #4]
 2176              	.LVL342:
 919:..\u8g2\csrc/u8g2_font.c ****   sum = 0;
 2177              		.loc 1 919 0
 2178 0014 FFF7FEFF 		bl	u8x8_utf8_init
 2179              	.LVL343:
 920:..\u8g2\csrc/u8g2_font.c ****   for(;;)
 2180              		.loc 1 920 0
 2181 0018 4FF00009 		mov	r9, #0
 916:..\u8g2\csrc/u8g2_font.c ****   uint16_t e;
 2182              		.loc 1 916 0
 2183 001c 4FF6FF7A 		movw	r10, #65535
 2184              	.LVL344:
 2185              	.L140:
 923:..\u8g2\csrc/u8g2_font.c ****     if ( e == 0x0ffff )
 2186              		.loc 1 923 0
 2187 0020 7368     		ldr	r3, [r6, #4]
 2188 0022 3978     		ldrb	r1, [r7]	@ zero_extendqisi2
 2189 0024 3046     		mov	r0, r6
 2190 0026 9847     		blx	r3
 2191              	.LVL345:
 2192 0028 0446     		mov	r4, r0
 2193              	.LVL346:
 924:..\u8g2\csrc/u8g2_font.c ****       break;
 2194              		.loc 1 924 0
 2195 002a 4FF6FF73 		movw	r3, #65535
 2196 002e 9842     		cmp	r0, r3
 2197 0030 34D0     		beq	.L141
 926:..\u8g2\csrc/u8g2_font.c ****     if ( e != 0x0fffe )
 2198              		.loc 1 926 0
 2199 0032 0137     		adds	r7, r7, #1
 2200              	.LVL347:
 927:..\u8g2\csrc/u8g2_font.c ****     {
 2201              		.loc 1 927 0
 2202 0034 4FF6FE73 		movw	r3, #65534
 2203 0038 9842     		cmp	r0, r3
 2204 003a F1D0     		beq	.L140
 929:..\u8g2\csrc/u8g2_font.c **** 	    
 2205              		.loc 1 929 0
 2206 003c 0146     		mov	r1, r0
 2207 003e 3046     		mov	r0, r6
 2208              	.LVL348:
 2209 0040 FFF7FEFF 		bl	u8g2_GetGlyphWidth
 2210              	.LVL349:
 2211 0044 85B2     		uxth	r5, r0
 2212              	.LVL350:
 931:..\u8g2\csrc/u8g2_font.c ****       {
 2213              		.loc 1 931 0
 2214 0046 BBF1000F 		cmp	fp, #0
 2215 004a 0DD0     		beq	.L143
ARM GAS  C:\Users\brian\AppData\Local\Temp\ccTYhJxe.s 			page 66


 933:..\u8g2\csrc/u8g2_font.c **** 	delta -= k;
 2216              		.loc 1 933 0
 2217 004c 5346     		mov	r3, r10
 2218 004e 2246     		mov	r2, r4
 2219 0050 0C99     		ldr	r1, [sp, #48]
 2220 0052 3046     		mov	r0, r6
 2221 0054 FFF7FEFF 		bl	u8g2_GetKerningByTable
 2222              	.LVL351:
 2223 0058 80B2     		uxth	r0, r0
 2224              	.LVL352:
 934:..\u8g2\csrc/u8g2_font.c **** 	x -= delta;
 2225              		.loc 1 934 0
 2226 005a 2D1A     		subs	r5, r5, r0
 2227              	.LVL353:
 2228 005c ADB2     		uxth	r5, r5
 2229              	.LVL354:
 935:..\u8g2\csrc/u8g2_font.c ****       }
 2230              		.loc 1 935 0
 2231 005e C5EB0808 		rsb	r8, r5, r8
 2232              	.LVL355:
 2233 0062 1FFA88F8 		uxth	r8, r8
 2234              	.LVL356:
 2235 0066 08E0     		b	.L144
 2236              	.LVL357:
 2237              	.L143:
 939:..\u8g2\csrc/u8g2_font.c **** 	delta -= k;
 2238              		.loc 1 939 0
 2239 0068 2346     		mov	r3, r4
 2240 006a 5246     		mov	r2, r10
 2241 006c 0C99     		ldr	r1, [sp, #48]
 2242 006e 3046     		mov	r0, r6
 2243 0070 FFF7FEFF 		bl	u8g2_GetKerningByTable
 2244              	.LVL358:
 2245 0074 80B2     		uxth	r0, r0
 2246              	.LVL359:
 940:..\u8g2\csrc/u8g2_font.c ****       }
 2247              		.loc 1 940 0
 2248 0076 2D1A     		subs	r5, r5, r0
 2249              	.LVL360:
 2250 0078 ADB2     		uxth	r5, r5
 2251              	.LVL361:
 2252              	.L144:
 944:..\u8g2\csrc/u8g2_font.c ****       {
 2253              		.loc 1 944 0
 2254 007a BBF1000F 		cmp	fp, #0
 2255 007e 02D1     		bne	.L145
 949:..\u8g2\csrc/u8g2_font.c ****       }
 2256              		.loc 1 949 0
 2257 0080 A844     		add	r8, r8, r5
 2258              	.LVL362:
 2259 0082 1FFA88F8 		uxth	r8, r8
 2260              	.LVL363:
 2261              	.L145:
 951:..\u8g2\csrc/u8g2_font.c ****       if ( to_left )
 2262              		.loc 1 951 0
 2263 0086 2346     		mov	r3, r4
 2264 0088 019A     		ldr	r2, [sp, #4]
ARM GAS  C:\Users\brian\AppData\Local\Temp\ccTYhJxe.s 			page 67


 2265 008a 4146     		mov	r1, r8
 2266 008c 3046     		mov	r0, r6
 2267              	.LVL364:
 2268 008e FFF7FEFF 		bl	u8g2_DrawGlyph
 2269              	.LVL365:
 961:..\u8g2\csrc/u8g2_font.c ****     }
 2270              		.loc 1 961 0
 2271 0092 A944     		add	r9, r9, r5
 2272              	.LVL366:
 2273 0094 1FFA89F9 		uxth	r9, r9
 2274              	.LVL367:
 942:..\u8g2\csrc/u8g2_font.c **** 
 2275              		.loc 1 942 0
 2276 0098 A246     		mov	r10, r4
 2277 009a C1E7     		b	.L140
 2278              	.LVL368:
 2279              	.L141:
 965:..\u8g2\csrc/u8g2_font.c **** 
 2280              		.loc 1 965 0
 2281 009c 4846     		mov	r0, r9
 2282              	.LVL369:
 2283 009e 03B0     		add	sp, sp, #12
 2284              		.cfi_def_cfa_offset 36
 2285              		@ sp needed
 2286 00a0 BDE8F08F 		pop	{r4, r5, r6, r7, r8, r9, r10, fp, pc}
 2287              	.LVL370:
 2288              	.L148:
 2289              		.align	2
 2290              	.L147:
 2291 00a4 00000000 		.word	u8x8_utf8_next
 2292              		.cfi_endproc
 2293              	.LFE26:
 2294              		.size	u8g2_DrawExtUTF8, .-u8g2_DrawExtUTF8
 2295              		.section	.text.u8g2_UpdateRefHeight,"ax",%progbits
 2296              		.align	2
 2297              		.global	u8g2_UpdateRefHeight
 2298              		.thumb
 2299              		.thumb_func
 2300              		.type	u8g2_UpdateRefHeight, %function
 2301              	u8g2_UpdateRefHeight:
 2302              	.LFB27:
 974:..\u8g2\csrc/u8g2_font.c ****   if ( u8g2->font == NULL )
 2303              		.loc 1 974 0
 2304              		.cfi_startproc
 2305              		@ args = 0, pretend = 0, frame = 0
 2306              		@ frame_needed = 0, uses_anonymous_args = 0
 2307              		@ link register save eliminated.
 2308              	.LVL371:
 975:..\u8g2\csrc/u8g2_font.c ****     return;
 2309              		.loc 1 975 0
 2310 0000 836D     		ldr	r3, [r0, #88]
 2311 0002 43B3     		cbz	r3, .L156
 977:..\u8g2\csrc/u8g2_font.c ****   u8g2->font_ref_descent = u8g2->font_info.descent_g;
 2312              		.loc 1 977 0
 2313 0004 90F98110 		ldrsb	r1, [r0, #129]
 2314 0008 80F88E10 		strb	r1, [r0, #142]
 978:..\u8g2\csrc/u8g2_font.c ****   if ( u8g2->font_height_mode == U8G2_FONT_HEIGHT_MODE_TEXT )
ARM GAS  C:\Users\brian\AppData\Local\Temp\ccTYhJxe.s 			page 68


 2315              		.loc 1 978 0
 2316 000c 90F98220 		ldrsb	r2, [r0, #130]
 2317 0010 80F88F20 		strb	r2, [r0, #143]
 979:..\u8g2\csrc/u8g2_font.c ****   {
 2318              		.loc 1 979 0
 2319 0014 90F88D30 		ldrb	r3, [r0, #141]	@ zero_extendqisi2
 2320 0018 EBB1     		cbz	r3, .L156
 982:..\u8g2\csrc/u8g2_font.c ****   {
 2321              		.loc 1 982 0
 2322 001a 012B     		cmp	r3, #1
 2323 001c 0CD1     		bne	.L151
 984:..\u8g2\csrc/u8g2_font.c ****       u8g2->font_ref_ascent = u8g2->font_info.ascent_para;
 2324              		.loc 1 984 0
 2325 001e 90F98330 		ldrsb	r3, [r0, #131]
 2326 0022 9942     		cmp	r1, r3
 2327 0024 01DA     		bge	.L152
 985:..\u8g2\csrc/u8g2_font.c ****     if ( u8g2->font_ref_descent > u8g2->font_info.descent_para )
 2328              		.loc 1 985 0
 2329 0026 80F88E30 		strb	r3, [r0, #142]
 2330              	.L152:
 986:..\u8g2\csrc/u8g2_font.c ****       u8g2->font_ref_descent = u8g2->font_info.descent_para;
 2331              		.loc 1 986 0
 2332 002a 90F98430 		ldrsb	r3, [r0, #132]
 2333 002e 9A42     		cmp	r2, r3
 2334 0030 11DD     		ble	.L156
 987:..\u8g2\csrc/u8g2_font.c ****   }
 2335              		.loc 1 987 0
 2336 0032 80F88F30 		strb	r3, [r0, #143]
 2337 0036 7047     		bx	lr
 2338              	.L151:
 974:..\u8g2\csrc/u8g2_font.c ****   if ( u8g2->font == NULL )
 2339              		.loc 1 974 0
 2340 0038 30B4     		push	{r4, r5}
 2341              		.cfi_def_cfa_offset 8
 2342              		.cfi_offset 4, -8
 2343              		.cfi_offset 5, -4
 991:..\u8g2\csrc/u8g2_font.c ****       u8g2->font_ref_ascent = u8g2->font_info.max_char_height+u8g2->font_info.y_offset;
 2344              		.loc 1 991 0
 2345 003a 90F97E40 		ldrsb	r4, [r0, #126]
 2346 003e 90F98030 		ldrsb	r3, [r0, #128]
 2347 0042 E518     		adds	r5, r4, r3
 2348 0044 A942     		cmp	r1, r5
 2349 0046 01DA     		bge	.L153
 992:..\u8g2\csrc/u8g2_font.c ****     if ( u8g2->font_ref_descent > u8g2->font_info.y_offset )
 2350              		.loc 1 992 0
 2351 0048 80F88E50 		strb	r5, [r0, #142]
 2352              	.L153:
 993:..\u8g2\csrc/u8g2_font.c ****       u8g2->font_ref_descent = u8g2->font_info.y_offset;
 2353              		.loc 1 993 0
 2354 004c 9A42     		cmp	r2, r3
 2355 004e 01DD     		ble	.L149
 994:..\u8g2\csrc/u8g2_font.c ****   }  
 2356              		.loc 1 994 0
 2357 0050 80F88F30 		strb	r3, [r0, #143]
 2358              	.L149:
 996:..\u8g2\csrc/u8g2_font.c **** 
 2359              		.loc 1 996 0
ARM GAS  C:\Users\brian\AppData\Local\Temp\ccTYhJxe.s 			page 69


 2360 0054 30BC     		pop	{r4, r5}
 2361              		.cfi_restore 5
 2362              		.cfi_restore 4
 2363              		.cfi_def_cfa_offset 0
 2364              	.L156:
 2365 0056 7047     		bx	lr
 2366              		.cfi_endproc
 2367              	.LFE27:
 2368              		.size	u8g2_UpdateRefHeight, .-u8g2_UpdateRefHeight
 2369              		.section	.text.u8g2_SetFontRefHeightText,"ax",%progbits
 2370              		.align	2
 2371              		.global	u8g2_SetFontRefHeightText
 2372              		.thumb
 2373              		.thumb_func
 2374              		.type	u8g2_SetFontRefHeightText, %function
 2375              	u8g2_SetFontRefHeightText:
 2376              	.LFB28:
 999:..\u8g2\csrc/u8g2_font.c ****   u8g2->font_height_mode = U8G2_FONT_HEIGHT_MODE_TEXT;
 2377              		.loc 1 999 0
 2378              		.cfi_startproc
 2379              		@ args = 0, pretend = 0, frame = 0
 2380              		@ frame_needed = 0, uses_anonymous_args = 0
 2381              	.LVL372:
 2382 0000 08B5     		push	{r3, lr}
 2383              		.cfi_def_cfa_offset 8
 2384              		.cfi_offset 3, -8
 2385              		.cfi_offset 14, -4
1000:..\u8g2\csrc/u8g2_font.c ****   u8g2_UpdateRefHeight(u8g2);
 2386              		.loc 1 1000 0
 2387 0002 0022     		movs	r2, #0
 2388 0004 80F88D20 		strb	r2, [r0, #141]
1001:..\u8g2\csrc/u8g2_font.c **** }
 2389              		.loc 1 1001 0
 2390 0008 FFF7FEFF 		bl	u8g2_UpdateRefHeight
 2391              	.LVL373:
 2392 000c 08BD     		pop	{r3, pc}
 2393              		.cfi_endproc
 2394              	.LFE28:
 2395              		.size	u8g2_SetFontRefHeightText, .-u8g2_SetFontRefHeightText
 2396 000e 00BF     		.section	.text.u8g2_SetFontRefHeightExtendedText,"ax",%progbits
 2397              		.align	2
 2398              		.global	u8g2_SetFontRefHeightExtendedText
 2399              		.thumb
 2400              		.thumb_func
 2401              		.type	u8g2_SetFontRefHeightExtendedText, %function
 2402              	u8g2_SetFontRefHeightExtendedText:
 2403              	.LFB29:
1005:..\u8g2\csrc/u8g2_font.c ****   u8g2->font_height_mode = U8G2_FONT_HEIGHT_MODE_XTEXT;
 2404              		.loc 1 1005 0
 2405              		.cfi_startproc
 2406              		@ args = 0, pretend = 0, frame = 0
 2407              		@ frame_needed = 0, uses_anonymous_args = 0
 2408              	.LVL374:
 2409 0000 08B5     		push	{r3, lr}
 2410              		.cfi_def_cfa_offset 8
 2411              		.cfi_offset 3, -8
 2412              		.cfi_offset 14, -4
ARM GAS  C:\Users\brian\AppData\Local\Temp\ccTYhJxe.s 			page 70


1006:..\u8g2\csrc/u8g2_font.c ****   u8g2_UpdateRefHeight(u8g2);
 2413              		.loc 1 1006 0
 2414 0002 0123     		movs	r3, #1
 2415 0004 80F88D30 		strb	r3, [r0, #141]
1007:..\u8g2\csrc/u8g2_font.c **** }
 2416              		.loc 1 1007 0
 2417 0008 FFF7FEFF 		bl	u8g2_UpdateRefHeight
 2418              	.LVL375:
 2419 000c 08BD     		pop	{r3, pc}
 2420              		.cfi_endproc
 2421              	.LFE29:
 2422              		.size	u8g2_SetFontRefHeightExtendedText, .-u8g2_SetFontRefHeightExtendedText
 2423 000e 00BF     		.section	.text.u8g2_SetFontRefHeightAll,"ax",%progbits
 2424              		.align	2
 2425              		.global	u8g2_SetFontRefHeightAll
 2426              		.thumb
 2427              		.thumb_func
 2428              		.type	u8g2_SetFontRefHeightAll, %function
 2429              	u8g2_SetFontRefHeightAll:
 2430              	.LFB30:
1011:..\u8g2\csrc/u8g2_font.c ****   u8g2->font_height_mode = U8G2_FONT_HEIGHT_MODE_ALL;
 2431              		.loc 1 1011 0
 2432              		.cfi_startproc
 2433              		@ args = 0, pretend = 0, frame = 0
 2434              		@ frame_needed = 0, uses_anonymous_args = 0
 2435              	.LVL376:
 2436 0000 08B5     		push	{r3, lr}
 2437              		.cfi_def_cfa_offset 8
 2438              		.cfi_offset 3, -8
 2439              		.cfi_offset 14, -4
1012:..\u8g2\csrc/u8g2_font.c ****   u8g2_UpdateRefHeight(u8g2);
 2440              		.loc 1 1012 0
 2441 0002 0223     		movs	r3, #2
 2442 0004 80F88D30 		strb	r3, [r0, #141]
1013:..\u8g2\csrc/u8g2_font.c **** }
 2443              		.loc 1 1013 0
 2444 0008 FFF7FEFF 		bl	u8g2_UpdateRefHeight
 2445              	.LVL377:
 2446 000c 08BD     		pop	{r3, pc}
 2447              		.cfi_endproc
 2448              	.LFE30:
 2449              		.size	u8g2_SetFontRefHeightAll, .-u8g2_SetFontRefHeightAll
 2450 000e 00BF     		.section	.text.u8g2_SetFontPosBaseline,"ax",%progbits
 2451              		.align	2
 2452              		.global	u8g2_SetFontPosBaseline
 2453              		.thumb
 2454              		.thumb_func
 2455              		.type	u8g2_SetFontPosBaseline, %function
 2456              	u8g2_SetFontPosBaseline:
 2457              	.LFB32:
1025:..\u8g2\csrc/u8g2_font.c ****   u8g2->font_calc_vref = u8g2_font_calc_vref_font;
 2458              		.loc 1 1025 0
 2459              		.cfi_startproc
 2460              		@ args = 0, pretend = 0, frame = 0
 2461              		@ frame_needed = 0, uses_anonymous_args = 0
 2462              		@ link register save eliminated.
 2463              	.LVL378:
ARM GAS  C:\Users\brian\AppData\Local\Temp\ccTYhJxe.s 			page 71


1026:..\u8g2\csrc/u8g2_font.c **** }
 2464              		.loc 1 1026 0
 2465 0000 014B     		ldr	r3, .L164
 2466 0002 C365     		str	r3, [r0, #92]
 2467 0004 7047     		bx	lr
 2468              	.L165:
 2469 0006 00BF     		.align	2
 2470              	.L164:
 2471 0008 00000000 		.word	u8g2_font_calc_vref_font
 2472              		.cfi_endproc
 2473              	.LFE32:
 2474              		.size	u8g2_SetFontPosBaseline, .-u8g2_SetFontPosBaseline
 2475              		.section	.text.u8g2_SetFontPosBottom,"ax",%progbits
 2476              		.align	2
 2477              		.global	u8g2_SetFontPosBottom
 2478              		.thumb
 2479              		.thumb_func
 2480              		.type	u8g2_SetFontPosBottom, %function
 2481              	u8g2_SetFontPosBottom:
 2482              	.LFB34:
1036:..\u8g2\csrc/u8g2_font.c ****   u8g2->font_calc_vref = u8g2_font_calc_vref_bottom;
 2483              		.loc 1 1036 0
 2484              		.cfi_startproc
 2485              		@ args = 0, pretend = 0, frame = 0
 2486              		@ frame_needed = 0, uses_anonymous_args = 0
 2487              		@ link register save eliminated.
 2488              	.LVL379:
1037:..\u8g2\csrc/u8g2_font.c **** }
 2489              		.loc 1 1037 0
 2490 0000 014B     		ldr	r3, .L167
 2491 0002 C365     		str	r3, [r0, #92]
 2492 0004 7047     		bx	lr
 2493              	.L168:
 2494 0006 00BF     		.align	2
 2495              	.L167:
 2496 0008 00000000 		.word	u8g2_font_calc_vref_bottom
 2497              		.cfi_endproc
 2498              	.LFE34:
 2499              		.size	u8g2_SetFontPosBottom, .-u8g2_SetFontPosBottom
 2500              		.section	.text.u8g2_SetFontPosTop,"ax",%progbits
 2501              		.align	2
 2502              		.global	u8g2_SetFontPosTop
 2503              		.thumb
 2504              		.thumb_func
 2505              		.type	u8g2_SetFontPosTop, %function
 2506              	u8g2_SetFontPosTop:
 2507              	.LFB36:
1050:..\u8g2\csrc/u8g2_font.c ****   u8g2->font_calc_vref = u8g2_font_calc_vref_top;
 2508              		.loc 1 1050 0
 2509              		.cfi_startproc
 2510              		@ args = 0, pretend = 0, frame = 0
 2511              		@ frame_needed = 0, uses_anonymous_args = 0
 2512              		@ link register save eliminated.
 2513              	.LVL380:
1051:..\u8g2\csrc/u8g2_font.c **** }
 2514              		.loc 1 1051 0
 2515 0000 014B     		ldr	r3, .L170
ARM GAS  C:\Users\brian\AppData\Local\Temp\ccTYhJxe.s 			page 72


 2516 0002 C365     		str	r3, [r0, #92]
 2517 0004 7047     		bx	lr
 2518              	.L171:
 2519 0006 00BF     		.align	2
 2520              	.L170:
 2521 0008 00000000 		.word	u8g2_font_calc_vref_top
 2522              		.cfi_endproc
 2523              	.LFE36:
 2524              		.size	u8g2_SetFontPosTop, .-u8g2_SetFontPosTop
 2525              		.section	.text.u8g2_SetFontPosCenter,"ax",%progbits
 2526              		.align	2
 2527              		.global	u8g2_SetFontPosCenter
 2528              		.thumb
 2529              		.thumb_func
 2530              		.type	u8g2_SetFontPosCenter, %function
 2531              	u8g2_SetFontPosCenter:
 2532              	.LFB38:
1065:..\u8g2\csrc/u8g2_font.c ****   u8g2->font_calc_vref = u8g2_font_calc_vref_center;
 2533              		.loc 1 1065 0
 2534              		.cfi_startproc
 2535              		@ args = 0, pretend = 0, frame = 0
 2536              		@ frame_needed = 0, uses_anonymous_args = 0
 2537              		@ link register save eliminated.
 2538              	.LVL381:
1066:..\u8g2\csrc/u8g2_font.c **** }
 2539              		.loc 1 1066 0
 2540 0000 014B     		ldr	r3, .L173
 2541 0002 C365     		str	r3, [r0, #92]
 2542 0004 7047     		bx	lr
 2543              	.L174:
 2544 0006 00BF     		.align	2
 2545              	.L173:
 2546 0008 00000000 		.word	u8g2_font_calc_vref_center
 2547              		.cfi_endproc
 2548              	.LFE38:
 2549              		.size	u8g2_SetFontPosCenter, .-u8g2_SetFontPosCenter
 2550              		.section	.text.u8g2_SetFont,"ax",%progbits
 2551              		.align	2
 2552              		.global	u8g2_SetFont
 2553              		.thumb
 2554              		.thumb_func
 2555              		.type	u8g2_SetFont, %function
 2556              	u8g2_SetFont:
 2557              	.LFB39:
1072:..\u8g2\csrc/u8g2_font.c ****   if ( u8g2->font != font )
 2558              		.loc 1 1072 0
 2559              		.cfi_startproc
 2560              		@ args = 0, pretend = 0, frame = 0
 2561              		@ frame_needed = 0, uses_anonymous_args = 0
 2562              	.LVL382:
1073:..\u8g2\csrc/u8g2_font.c ****   {
 2563              		.loc 1 1073 0
 2564 0000 836D     		ldr	r3, [r0, #88]
 2565 0002 8B42     		cmp	r3, r1
 2566 0004 09D0     		beq	.L178
1072:..\u8g2\csrc/u8g2_font.c ****   if ( u8g2->font != font )
 2567              		.loc 1 1072 0
ARM GAS  C:\Users\brian\AppData\Local\Temp\ccTYhJxe.s 			page 73


 2568 0006 10B5     		push	{r4, lr}
 2569              		.cfi_def_cfa_offset 8
 2570              		.cfi_offset 4, -8
 2571              		.cfi_offset 14, -4
 2572 0008 0446     		mov	r4, r0
1079:..\u8g2\csrc/u8g2_font.c ****     u8g2_read_font_info(&(u8g2->font_info), font);
 2573              		.loc 1 1079 0
 2574 000a 8165     		str	r1, [r0, #88]
1080:..\u8g2\csrc/u8g2_font.c ****     u8g2_UpdateRefHeight(u8g2);
 2575              		.loc 1 1080 0
 2576 000c 7430     		adds	r0, r0, #116
 2577              	.LVL383:
 2578 000e FFF7FEFF 		bl	u8g2_read_font_info
 2579              	.LVL384:
1081:..\u8g2\csrc/u8g2_font.c ****     /* u8g2_SetFontPosBaseline(u8g2); */ /* removed with issue 195 */
 2580              		.loc 1 1081 0
 2581 0012 2046     		mov	r0, r4
 2582 0014 FFF7FEFF 		bl	u8g2_UpdateRefHeight
 2583              	.LVL385:
 2584 0018 10BD     		pop	{r4, pc}
 2585              	.LVL386:
 2586              	.L178:
 2587              		.cfi_def_cfa_offset 0
 2588              		.cfi_restore 4
 2589              		.cfi_restore 14
 2590 001a 7047     		bx	lr
 2591              		.cfi_endproc
 2592              	.LFE39:
 2593              		.size	u8g2_SetFont, .-u8g2_SetFont
 2594              		.section	.text.u8g2_IsAllValidUTF8,"ax",%progbits
 2595              		.align	2
 2596              		.global	u8g2_IsAllValidUTF8
 2597              		.thumb
 2598              		.thumb_func
 2599              		.type	u8g2_IsAllValidUTF8, %function
 2600              	u8g2_IsAllValidUTF8:
 2601              	.LFB41:
1109:..\u8g2\csrc/u8g2_font.c ****   u8g2->u8x8.next_cb = u8x8_utf8_next;
 2602              		.loc 1 1109 0
 2603              		.cfi_startproc
 2604              		@ args = 0, pretend = 0, frame = 0
 2605              		@ frame_needed = 0, uses_anonymous_args = 0
 2606              	.LVL387:
 2607 0000 08B5     		push	{r3, lr}
 2608              		.cfi_def_cfa_offset 8
 2609              		.cfi_offset 3, -8
 2610              		.cfi_offset 14, -4
1110:..\u8g2\csrc/u8g2_font.c ****   return u8g2_is_all_valid(u8g2, str);
 2611              		.loc 1 1110 0
 2612 0002 024B     		ldr	r3, .L181
 2613 0004 4360     		str	r3, [r0, #4]
1111:..\u8g2\csrc/u8g2_font.c **** }
 2614              		.loc 1 1111 0
 2615 0006 FFF7FEFF 		bl	u8g2_is_all_valid
 2616              	.LVL388:
1112:..\u8g2\csrc/u8g2_font.c **** 
 2617              		.loc 1 1112 0
ARM GAS  C:\Users\brian\AppData\Local\Temp\ccTYhJxe.s 			page 74


 2618 000a 08BD     		pop	{r3, pc}
 2619              	.L182:
 2620              		.align	2
 2621              	.L181:
 2622 000c 00000000 		.word	u8x8_utf8_next
 2623              		.cfi_endproc
 2624              	.LFE41:
 2625              		.size	u8g2_IsAllValidUTF8, .-u8g2_IsAllValidUTF8
 2626              		.section	.text.u8g2_GetStrX,"ax",%progbits
 2627              		.align	2
 2628              		.global	u8g2_GetStrX
 2629              		.thumb
 2630              		.thumb_func
 2631              		.type	u8g2_GetStrX, %function
 2632              	u8g2_GetStrX:
 2633              	.LFB44:
1183:..\u8g2\csrc/u8g2_font.c **** }
1184:..\u8g2\csrc/u8g2_font.c **** 
1185:..\u8g2\csrc/u8g2_font.c **** /* u8g compatible GetStrX function */
1186:..\u8g2\csrc/u8g2_font.c **** int8_t u8g2_GetStrX(u8g2_t *u8g2, const char *s)
1187:..\u8g2\csrc/u8g2_font.c **** {
 2634              		.loc 1 1187 0
 2635              		.cfi_startproc
 2636              		@ args = 0, pretend = 0, frame = 8
 2637              		@ frame_needed = 0, uses_anonymous_args = 0
 2638              	.LVL389:
 2639 0000 00B5     		push	{lr}
 2640              		.cfi_def_cfa_offset 4
 2641              		.cfi_offset 14, -4
 2642 0002 85B0     		sub	sp, sp, #20
 2643              		.cfi_def_cfa_offset 24
1188:..\u8g2\csrc/u8g2_font.c ****   uint8_t w;
1189:..\u8g2\csrc/u8g2_font.c ****   int8_t ox, dx;
1190:..\u8g2\csrc/u8g2_font.c ****   u8g2_GetGlyphHorizontalProperties(u8g2, *s, &w, &ox, &dx);
 2644              		.loc 1 1190 0
 2645 0004 0978     		ldrb	r1, [r1]	@ zero_extendqisi2
 2646              	.LVL390:
 2647 0006 0DF10D03 		add	r3, sp, #13
 2648 000a 0093     		str	r3, [sp]
 2649 000c 0DF10E03 		add	r3, sp, #14
 2650 0010 0DF10F02 		add	r2, sp, #15
 2651 0014 FFF7FEFF 		bl	u8g2_GetGlyphHorizontalProperties
 2652              	.LVL391:
1191:..\u8g2\csrc/u8g2_font.c ****   return ox;
1192:..\u8g2\csrc/u8g2_font.c **** }
 2653              		.loc 1 1192 0
 2654 0018 9DF90E00 		ldrsb	r0, [sp, #14]
 2655 001c 05B0     		add	sp, sp, #20
 2656              		.cfi_def_cfa_offset 4
 2657              		@ sp needed
 2658 001e 5DF804FB 		ldr	pc, [sp], #4
 2659              		.cfi_endproc
 2660              	.LFE44:
 2661              		.size	u8g2_GetStrX, .-u8g2_GetStrX
 2662 0022 00BF     		.section	.text.u8g2_GetStrWidth,"ax",%progbits
 2663              		.align	2
 2664              		.global	u8g2_GetStrWidth
ARM GAS  C:\Users\brian\AppData\Local\Temp\ccTYhJxe.s 			page 75


 2665              		.thumb
 2666              		.thumb_func
 2667              		.type	u8g2_GetStrWidth, %function
 2668              	u8g2_GetStrWidth:
 2669              	.LFB45:
1193:..\u8g2\csrc/u8g2_font.c **** 
1194:..\u8g2\csrc/u8g2_font.c **** 
1195:..\u8g2\csrc/u8g2_font.c **** /*
1196:..\u8g2\csrc/u8g2_font.c **** Warning: This function needs to be fixed. I think it was taken over from u8glib, but not fixed as o
1197:..\u8g2\csrc/u8g2_font.c **** The main difference for this procedure compared to the normal get width, should be, that the initia
1198:..\u8g2\csrc/u8g2_font.c **** offset is removed
1199:..\u8g2\csrc/u8g2_font.c **** 
1200:..\u8g2\csrc/u8g2_font.c **** Idea: for the user interface it probably would be better to add the xoffset of the first char to th
1201:..\u8g2\csrc/u8g2_font.c **** Maybe then the procedure should be called differently, maybe balanced width instead of exact width
1202:..\u8g2\csrc/u8g2_font.c **** 
1203:..\u8g2\csrc/u8g2_font.c **** u8g2_calculate_exact_string_width is now OBSOLETE, instead the above str width calculation has been
1204:..\u8g2\csrc/u8g2_font.c **** https://github.com/olikraus/u8g2/issues/1561
1205:..\u8g2\csrc/u8g2_font.c **** */
1206:..\u8g2\csrc/u8g2_font.c **** #ifdef OBSOLETE
1207:..\u8g2\csrc/u8g2_font.c **** static u8g2_uint_t u8g2_calculate_exact_string_width(u8g2_t *u8g2, const char *str)
1208:..\u8g2\csrc/u8g2_font.c **** {
1209:..\u8g2\csrc/u8g2_font.c ****   const char *s = str;
1210:..\u8g2\csrc/u8g2_font.c ****   uint16_t enc;
1211:..\u8g2\csrc/u8g2_font.c ****   u8g2_uint_t  w;
1212:..\u8g2\csrc/u8g2_font.c ****   uint8_t cnt;
1213:..\u8g2\csrc/u8g2_font.c ****   uint8_t gw; 
1214:..\u8g2\csrc/u8g2_font.c ****   int8_t ox, dx;
1215:..\u8g2\csrc/u8g2_font.c ****   
1216:..\u8g2\csrc/u8g2_font.c ****   /* reset the total minimal width to zero, this will be expanded during calculation */
1217:..\u8g2\csrc/u8g2_font.c ****   w = 0;
1218:..\u8g2\csrc/u8g2_font.c ****     
1219:..\u8g2\csrc/u8g2_font.c ****   
1220:..\u8g2\csrc/u8g2_font.c ****   /* check for empty string, width is already 0 */
1221:..\u8g2\csrc/u8g2_font.c ****   cnt = 0;
1222:..\u8g2\csrc/u8g2_font.c ****   
1223:..\u8g2\csrc/u8g2_font.c ****   for(;;)
1224:..\u8g2\csrc/u8g2_font.c ****   {
1225:..\u8g2\csrc/u8g2_font.c ****     enc = u8g2->u8x8.next_cb(u8g2_GetU8x8(u8g2), (uint8_t)*s);
1226:..\u8g2\csrc/u8g2_font.c ****     if ( enc == 0x0ffff )
1227:..\u8g2\csrc/u8g2_font.c ****       break;    
1228:..\u8g2\csrc/u8g2_font.c ****     s++;
1229:..\u8g2\csrc/u8g2_font.c ****     if ( enc != 0x0fffe )
1230:..\u8g2\csrc/u8g2_font.c ****     {
1231:..\u8g2\csrc/u8g2_font.c ****       if ( cnt == 0 )
1232:..\u8g2\csrc/u8g2_font.c ****       {
1233:..\u8g2\csrc/u8g2_font.c ****         /* get glyph properties of the first char */
1234:..\u8g2\csrc/u8g2_font.c ****         u8g2_GetGlyphHorizontalProperties(u8g2, enc, &gw, &ox, &dx);  
1235:..\u8g2\csrc/u8g2_font.c ****       }        
1236:..\u8g2\csrc/u8g2_font.c ****       cnt++;
1237:..\u8g2\csrc/u8g2_font.c ****       if ( cnt > 2 )
1238:..\u8g2\csrc/u8g2_font.c ****         break;
1239:..\u8g2\csrc/u8g2_font.c ****     }
1240:..\u8g2\csrc/u8g2_font.c ****   }
1241:..\u8g2\csrc/u8g2_font.c ****   
1242:..\u8g2\csrc/u8g2_font.c ****   if ( cnt == 0 )
1243:..\u8g2\csrc/u8g2_font.c ****     return 0;
1244:..\u8g2\csrc/u8g2_font.c ****    
ARM GAS  C:\Users\brian\AppData\Local\Temp\ccTYhJxe.s 			page 76


1245:..\u8g2\csrc/u8g2_font.c ****   if ( cnt == 1 )
1246:..\u8g2\csrc/u8g2_font.c ****      return gw;
1247:..\u8g2\csrc/u8g2_font.c **** 
1248:..\u8g2\csrc/u8g2_font.c ****   /* strlen(s) == 1:       width = width(s[0]) */
1249:..\u8g2\csrc/u8g2_font.c ****   /* strlen(s) == 2:       width = - offx(s[0]) + deltax(s[0]) + offx(s[1]) + width(s[1]) */
1250:..\u8g2\csrc/u8g2_font.c ****   /* strlen(s) == 3:       width = - offx(s[0]) + deltax(s[0]) + deltax(s[1]) + offx(s[2]) + width(
1251:..\u8g2\csrc/u8g2_font.c ****   
1252:..\u8g2\csrc/u8g2_font.c ****   /* assume that the string has size 2 or more, than start with negative offset-x */
1253:..\u8g2\csrc/u8g2_font.c ****   /* for string with size 1, this will be nullified after the loop */
1254:..\u8g2\csrc/u8g2_font.c ****   w = -ox;  
1255:..\u8g2\csrc/u8g2_font.c ****   for(;;)
1256:..\u8g2\csrc/u8g2_font.c ****   {
1257:..\u8g2\csrc/u8g2_font.c ****     enc = u8g2->u8x8.next_cb(u8g2_GetU8x8(u8g2), (uint8_t)*str);
1258:..\u8g2\csrc/u8g2_font.c ****     if ( enc== 0x0ffff )
1259:..\u8g2\csrc/u8g2_font.c ****       break;
1260:..\u8g2\csrc/u8g2_font.c ****     str++;
1261:..\u8g2\csrc/u8g2_font.c ****     if ( enc != 0x0fffe )
1262:..\u8g2\csrc/u8g2_font.c ****     {
1263:..\u8g2\csrc/u8g2_font.c ****       u8g2_GetGlyphHorizontalProperties(u8g2, enc, &gw, &ox, &dx);        
1264:..\u8g2\csrc/u8g2_font.c ****       /* if there are still more characters, add the delta to the next glyph */
1265:..\u8g2\csrc/u8g2_font.c ****       w += dx;    
1266:..\u8g2\csrc/u8g2_font.c ****     }
1267:..\u8g2\csrc/u8g2_font.c ****   }
1268:..\u8g2\csrc/u8g2_font.c ****   
1269:..\u8g2\csrc/u8g2_font.c ****   /* finally calculate the width of the last char */
1270:..\u8g2\csrc/u8g2_font.c ****   /* here is another exception, if the last char is a blank, use the dx value instead */
1271:..\u8g2\csrc/u8g2_font.c ****   if ( gw != 0 )
1272:..\u8g2\csrc/u8g2_font.c ****   {
1273:..\u8g2\csrc/u8g2_font.c ****     w -= dx;    /* remove the last dx */
1274:..\u8g2\csrc/u8g2_font.c ****     /* if g was not updated in the for loop (strlen() == 1), then the initial offset x gets removed
1275:..\u8g2\csrc/u8g2_font.c ****     w += gw;
1276:..\u8g2\csrc/u8g2_font.c ****     w += ox;
1277:..\u8g2\csrc/u8g2_font.c ****   }
1278:..\u8g2\csrc/u8g2_font.c ****   else
1279:..\u8g2\csrc/u8g2_font.c ****   {
1280:..\u8g2\csrc/u8g2_font.c ****     //w += dx;
1281:..\u8g2\csrc/u8g2_font.c ****   }
1282:..\u8g2\csrc/u8g2_font.c ****   
1283:..\u8g2\csrc/u8g2_font.c ****   
1284:..\u8g2\csrc/u8g2_font.c ****   return w;
1285:..\u8g2\csrc/u8g2_font.c **** 	
1286:..\u8g2\csrc/u8g2_font.c **** }
1287:..\u8g2\csrc/u8g2_font.c **** #endif
1288:..\u8g2\csrc/u8g2_font.c **** 
1289:..\u8g2\csrc/u8g2_font.c **** 
1290:..\u8g2\csrc/u8g2_font.c **** 
1291:..\u8g2\csrc/u8g2_font.c **** 
1292:..\u8g2\csrc/u8g2_font.c **** 
1293:..\u8g2\csrc/u8g2_font.c **** u8g2_uint_t u8g2_GetStrWidth(u8g2_t *u8g2, const char *s)
1294:..\u8g2\csrc/u8g2_font.c **** {
 2670              		.loc 1 1294 0
 2671              		.cfi_startproc
 2672              		@ args = 0, pretend = 0, frame = 0
 2673              		@ frame_needed = 0, uses_anonymous_args = 0
 2674              	.LVL392:
 2675 0000 08B5     		push	{r3, lr}
 2676              		.cfi_def_cfa_offset 8
ARM GAS  C:\Users\brian\AppData\Local\Temp\ccTYhJxe.s 			page 77


 2677              		.cfi_offset 3, -8
 2678              		.cfi_offset 14, -4
1295:..\u8g2\csrc/u8g2_font.c ****   u8g2->u8x8.next_cb = u8x8_ascii_next;
 2679              		.loc 1 1295 0
 2680 0002 024B     		ldr	r3, .L187
 2681 0004 4360     		str	r3, [r0, #4]
1296:..\u8g2\csrc/u8g2_font.c ****   return u8g2_string_width(u8g2, s);
 2682              		.loc 1 1296 0
 2683 0006 FFF7FEFF 		bl	u8g2_string_width
 2684              	.LVL393:
1297:..\u8g2\csrc/u8g2_font.c **** }
 2685              		.loc 1 1297 0
 2686 000a 08BD     		pop	{r3, pc}
 2687              	.L188:
 2688              		.align	2
 2689              	.L187:
 2690 000c 00000000 		.word	u8x8_ascii_next
 2691              		.cfi_endproc
 2692              	.LFE45:
 2693              		.size	u8g2_GetStrWidth, .-u8g2_GetStrWidth
 2694              		.section	.text.u8g2_GetUTF8Width,"ax",%progbits
 2695              		.align	2
 2696              		.global	u8g2_GetUTF8Width
 2697              		.thumb
 2698              		.thumb_func
 2699              		.type	u8g2_GetUTF8Width, %function
 2700              	u8g2_GetUTF8Width:
 2701              	.LFB46:
1298:..\u8g2\csrc/u8g2_font.c **** 
1299:..\u8g2\csrc/u8g2_font.c **** /* OBSOLETE
1300:..\u8g2\csrc/u8g2_font.c **** u8g2_uint_t u8g2_GetExactStrWidth(u8g2_t *u8g2, const char *s)
1301:..\u8g2\csrc/u8g2_font.c **** {
1302:..\u8g2\csrc/u8g2_font.c ****   u8g2->u8x8.next_cb = u8x8_ascii_next;
1303:..\u8g2\csrc/u8g2_font.c ****   return u8g2_calculate_exact_string_width(u8g2, s);
1304:..\u8g2\csrc/u8g2_font.c **** }
1305:..\u8g2\csrc/u8g2_font.c **** */
1306:..\u8g2\csrc/u8g2_font.c **** 
1307:..\u8g2\csrc/u8g2_font.c **** /*
1308:..\u8g2\csrc/u8g2_font.c **** source: https://en.wikipedia.org/wiki/UTF-8
1309:..\u8g2\csrc/u8g2_font.c **** Bits	from 		to			bytes	Byte 1 		Byte 2 		Byte 3 		Byte 4 		Byte 5 		Byte 6
1310:..\u8g2\csrc/u8g2_font.c ****   7 	U+0000 		U+007F 		1 		0xxxxxxx
1311:..\u8g2\csrc/u8g2_font.c **** 11 	U+0080 		U+07FF 		2 		110xxxxx 	10xxxxxx
1312:..\u8g2\csrc/u8g2_font.c **** 16 	U+0800 		U+FFFF 		3 		1110xxxx 	10xxxxxx 	10xxxxxx
1313:..\u8g2\csrc/u8g2_font.c **** 21 	U+10000 	U+1FFFFF 	4 		11110xxx 	10xxxxxx 	10xxxxxx 	10xxxxxx
1314:..\u8g2\csrc/u8g2_font.c **** 26 	U+200000 	U+3FFFFFF 	5 		111110xx 	10xxxxxx 	10xxxxxx 	10xxxxxx 	10xxxxxx
1315:..\u8g2\csrc/u8g2_font.c **** 31 	U+4000000 	U+7FFFFFFF 	6 		1111110x 	10xxxxxx 	10xxxxxx 	10xxxxxx 	10xxxxxx 	10xxxxxx  
1316:..\u8g2\csrc/u8g2_font.c **** */
1317:..\u8g2\csrc/u8g2_font.c **** u8g2_uint_t u8g2_GetUTF8Width(u8g2_t *u8g2, const char *str)
1318:..\u8g2\csrc/u8g2_font.c **** {
 2702              		.loc 1 1318 0
 2703              		.cfi_startproc
 2704              		@ args = 0, pretend = 0, frame = 0
 2705              		@ frame_needed = 0, uses_anonymous_args = 0
 2706              	.LVL394:
 2707 0000 08B5     		push	{r3, lr}
 2708              		.cfi_def_cfa_offset 8
 2709              		.cfi_offset 3, -8
ARM GAS  C:\Users\brian\AppData\Local\Temp\ccTYhJxe.s 			page 78


 2710              		.cfi_offset 14, -4
1319:..\u8g2\csrc/u8g2_font.c ****   u8g2->u8x8.next_cb = u8x8_utf8_next;
 2711              		.loc 1 1319 0
 2712 0002 024B     		ldr	r3, .L191
 2713 0004 4360     		str	r3, [r0, #4]
1320:..\u8g2\csrc/u8g2_font.c ****   return u8g2_string_width(u8g2, str);
 2714              		.loc 1 1320 0
 2715 0006 FFF7FEFF 		bl	u8g2_string_width
 2716              	.LVL395:
1321:..\u8g2\csrc/u8g2_font.c **** }
 2717              		.loc 1 1321 0
 2718 000a 08BD     		pop	{r3, pc}
 2719              	.L192:
 2720              		.align	2
 2721              	.L191:
 2722 000c 00000000 		.word	u8x8_utf8_next
 2723              		.cfi_endproc
 2724              	.LFE46:
 2725              		.size	u8g2_GetUTF8Width, .-u8g2_GetUTF8Width
 2726              		.section	.text.u8g2_SetFontDirection,"ax",%progbits
 2727              		.align	2
 2728              		.global	u8g2_SetFontDirection
 2729              		.thumb
 2730              		.thumb_func
 2731              		.type	u8g2_SetFontDirection, %function
 2732              	u8g2_SetFontDirection:
 2733              	.LFB47:
1322:..\u8g2\csrc/u8g2_font.c **** 
1323:..\u8g2\csrc/u8g2_font.c **** 
1324:..\u8g2\csrc/u8g2_font.c **** 
1325:..\u8g2\csrc/u8g2_font.c **** void u8g2_SetFontDirection(u8g2_t *u8g2, uint8_t dir)
1326:..\u8g2\csrc/u8g2_font.c **** {
 2734              		.loc 1 1326 0
 2735              		.cfi_startproc
 2736              		@ args = 0, pretend = 0, frame = 0
 2737              		@ frame_needed = 0, uses_anonymous_args = 0
 2738              		@ link register save eliminated.
 2739              	.LVL396:
1327:..\u8g2\csrc/u8g2_font.c **** #ifdef U8G2_WITH_FONT_ROTATION  
1328:..\u8g2\csrc/u8g2_font.c ****   u8g2->font_decode.dir = dir;
 2740              		.loc 1 1328 0
 2741 0000 80F87010 		strb	r1, [r0, #112]
 2742 0004 7047     		bx	lr
 2743              		.cfi_endproc
 2744              	.LFE47:
 2745              		.size	u8g2_SetFontDirection, .-u8g2_SetFontDirection
 2746 0006 00BF     		.text
 2747              	.Letext0:
 2748              		.file 2 "c:\\program files (x86)\\cypress\\psoc creator\\4.4\\psoc creator\\import\\gnu\\arm\\5.4.
 2749              		.file 3 "c:\\program files (x86)\\cypress\\psoc creator\\4.4\\psoc creator\\import\\gnu\\arm\\5.4.
 2750              		.file 4 "c:\\program files (x86)\\cypress\\psoc creator\\4.4\\psoc creator\\import\\gnu\\arm\\5.4.
 2751              		.file 5 "..\\u8g2\\csrc\\u8x8.h"
 2752              		.file 6 "..\\u8g2\\csrc\\u8g2.h"
 2753              		.section	.debug_info,"",%progbits
 2754              	.Ldebug_info0:
 2755 0000 931F0000 		.4byte	0x1f93
 2756 0004 0400     		.2byte	0x4
ARM GAS  C:\Users\brian\AppData\Local\Temp\ccTYhJxe.s 			page 79


 2757 0006 00000000 		.4byte	.Ldebug_abbrev0
 2758 000a 04       		.byte	0x4
 2759 000b 01       		.uleb128 0x1
 2760 000c 4E090000 		.4byte	.LASF218
 2761 0010 0C       		.byte	0xc
 2762 0011 F0040000 		.4byte	.LASF219
 2763 0015 9F070000 		.4byte	.LASF220
 2764 0019 00000000 		.4byte	.Ldebug_ranges0+0
 2765 001d 00000000 		.4byte	0
 2766 0021 00000000 		.4byte	.Ldebug_line0
 2767 0025 02       		.uleb128 0x2
 2768 0026 38010000 		.4byte	.LASF0
 2769 002a 02       		.byte	0x2
 2770 002b 1B       		.byte	0x1b
 2771 002c 30000000 		.4byte	0x30
 2772 0030 03       		.uleb128 0x3
 2773 0031 01       		.byte	0x1
 2774 0032 06       		.byte	0x6
 2775 0033 BA010000 		.4byte	.LASF2
 2776 0037 02       		.uleb128 0x2
 2777 0038 9B000000 		.4byte	.LASF1
 2778 003c 02       		.byte	0x2
 2779 003d 1D       		.byte	0x1d
 2780 003e 42000000 		.4byte	0x42
 2781 0042 03       		.uleb128 0x3
 2782 0043 01       		.byte	0x1
 2783 0044 08       		.byte	0x8
 2784 0045 7D080000 		.4byte	.LASF3
 2785 0049 03       		.uleb128 0x3
 2786 004a 02       		.byte	0x2
 2787 004b 05       		.byte	0x5
 2788 004c DE080000 		.4byte	.LASF4
 2789 0050 02       		.uleb128 0x2
 2790 0051 F20A0000 		.4byte	.LASF5
 2791 0055 02       		.byte	0x2
 2792 0056 2B       		.byte	0x2b
 2793 0057 5B000000 		.4byte	0x5b
 2794 005b 03       		.uleb128 0x3
 2795 005c 02       		.byte	0x2
 2796 005d 07       		.byte	0x7
 2797 005e A8040000 		.4byte	.LASF6
 2798 0062 03       		.uleb128 0x3
 2799 0063 04       		.byte	0x4
 2800 0064 05       		.byte	0x5
 2801 0065 5A020000 		.4byte	.LASF7
 2802 0069 02       		.uleb128 0x2
 2803 006a 29030000 		.4byte	.LASF8
 2804 006e 02       		.byte	0x2
 2805 006f 41       		.byte	0x41
 2806 0070 74000000 		.4byte	0x74
 2807 0074 03       		.uleb128 0x3
 2808 0075 04       		.byte	0x4
 2809 0076 07       		.byte	0x7
 2810 0077 2D040000 		.4byte	.LASF9
 2811 007b 03       		.uleb128 0x3
 2812 007c 08       		.byte	0x8
 2813 007d 05       		.byte	0x5
ARM GAS  C:\Users\brian\AppData\Local\Temp\ccTYhJxe.s 			page 80


 2814 007e AC010000 		.4byte	.LASF10
 2815 0082 03       		.uleb128 0x3
 2816 0083 08       		.byte	0x8
 2817 0084 07       		.byte	0x7
 2818 0085 F8000000 		.4byte	.LASF11
 2819 0089 04       		.uleb128 0x4
 2820 008a 04       		.byte	0x4
 2821 008b 05       		.byte	0x5
 2822 008c 696E7400 		.ascii	"int\000"
 2823 0090 03       		.uleb128 0x3
 2824 0091 04       		.byte	0x4
 2825 0092 07       		.byte	0x7
 2826 0093 C0030000 		.4byte	.LASF12
 2827 0097 02       		.uleb128 0x2
 2828 0098 E90B0000 		.4byte	.LASF13
 2829 009c 03       		.byte	0x3
 2830 009d 14       		.byte	0x14
 2831 009e 25000000 		.4byte	0x25
 2832 00a2 02       		.uleb128 0x2
 2833 00a3 BE0C0000 		.4byte	.LASF14
 2834 00a7 03       		.byte	0x3
 2835 00a8 18       		.byte	0x18
 2836 00a9 37000000 		.4byte	0x37
 2837 00ad 02       		.uleb128 0x2
 2838 00ae AA020000 		.4byte	.LASF15
 2839 00b2 03       		.byte	0x3
 2840 00b3 24       		.byte	0x24
 2841 00b4 50000000 		.4byte	0x50
 2842 00b8 02       		.uleb128 0x2
 2843 00b9 500A0000 		.4byte	.LASF16
 2844 00bd 03       		.byte	0x3
 2845 00be 30       		.byte	0x30
 2846 00bf 69000000 		.4byte	0x69
 2847 00c3 05       		.uleb128 0x5
 2848 00c4 04       		.byte	0x4
 2849 00c5 02       		.uleb128 0x2
 2850 00c6 52000000 		.4byte	.LASF17
 2851 00ca 04       		.byte	0x4
 2852 00cb D8       		.byte	0xd8
 2853 00cc 90000000 		.4byte	0x90
 2854 00d0 03       		.uleb128 0x3
 2855 00d1 08       		.byte	0x8
 2856 00d2 04       		.byte	0x4
 2857 00d3 9D060000 		.4byte	.LASF18
 2858 00d7 02       		.uleb128 0x2
 2859 00d8 A10B0000 		.4byte	.LASF19
 2860 00dc 05       		.byte	0x5
 2861 00dd CD       		.byte	0xcd
 2862 00de E2000000 		.4byte	0xe2
 2863 00e2 06       		.uleb128 0x6
 2864 00e3 8B050000 		.4byte	.LASF40
 2865 00e7 2C       		.byte	0x2c
 2866 00e8 05       		.byte	0x5
 2867 00e9 5001     		.2byte	0x150
 2868 00eb E7010000 		.4byte	0x1e7
 2869 00ef 07       		.uleb128 0x7
 2870 00f0 4C050000 		.4byte	.LASF20
ARM GAS  C:\Users\brian\AppData\Local\Temp\ccTYhJxe.s 			page 81


 2871 00f4 05       		.byte	0x5
 2872 00f5 5201     		.2byte	0x152
 2873 00f7 4D030000 		.4byte	0x34d
 2874 00fb 00       		.byte	0
 2875 00fc 07       		.uleb128 0x7
 2876 00fd B3020000 		.4byte	.LASF21
 2877 0101 05       		.byte	0x5
 2878 0102 5301     		.2byte	0x153
 2879 0104 22030000 		.4byte	0x322
 2880 0108 04       		.byte	0x4
 2881 0109 07       		.uleb128 0x7
 2882 010a F6010000 		.4byte	.LASF22
 2883 010e 05       		.byte	0x5
 2884 010f 5401     		.2byte	0x154
 2885 0111 ED020000 		.4byte	0x2ed
 2886 0115 08       		.byte	0x8
 2887 0116 07       		.uleb128 0x7
 2888 0117 FF060000 		.4byte	.LASF23
 2889 011b 05       		.byte	0x5
 2890 011c 5501     		.2byte	0x155
 2891 011e ED020000 		.4byte	0x2ed
 2892 0122 0C       		.byte	0xc
 2893 0123 07       		.uleb128 0x7
 2894 0124 A5000000 		.4byte	.LASF24
 2895 0128 05       		.byte	0x5
 2896 0129 5601     		.2byte	0x156
 2897 012b ED020000 		.4byte	0x2ed
 2898 012f 10       		.byte	0x10
 2899 0130 07       		.uleb128 0x7
 2900 0131 C8020000 		.4byte	.LASF25
 2901 0135 05       		.byte	0x5
 2902 0136 5701     		.2byte	0x157
 2903 0138 ED020000 		.4byte	0x2ed
 2904 013c 14       		.byte	0x14
 2905 013d 07       		.uleb128 0x7
 2906 013e C30B0000 		.4byte	.LASF26
 2907 0142 05       		.byte	0x5
 2908 0143 5801     		.2byte	0x158
 2909 0145 B8000000 		.4byte	0xb8
 2910 0149 18       		.byte	0x18
 2911 014a 07       		.uleb128 0x7
 2912 014b 8A0C0000 		.4byte	.LASF27
 2913 014f 05       		.byte	0x5
 2914 0150 5901     		.2byte	0x159
 2915 0152 58030000 		.4byte	0x358
 2916 0156 1C       		.byte	0x1c
 2917 0157 07       		.uleb128 0x7
 2918 0158 FE050000 		.4byte	.LASF28
 2919 015c 05       		.byte	0x5
 2920 015d 5A01     		.2byte	0x15a
 2921 015f AD000000 		.4byte	0xad
 2922 0163 20       		.byte	0x20
 2923 0164 07       		.uleb128 0x7
 2924 0165 82070000 		.4byte	.LASF29
 2925 0169 05       		.byte	0x5
 2926 016a 5B01     		.2byte	0x15b
 2927 016c A2000000 		.4byte	0xa2
ARM GAS  C:\Users\brian\AppData\Local\Temp\ccTYhJxe.s 			page 82


 2928 0170 22       		.byte	0x22
 2929 0171 07       		.uleb128 0x7
 2930 0172 D2010000 		.4byte	.LASF30
 2931 0176 05       		.byte	0x5
 2932 0177 5C01     		.2byte	0x15c
 2933 0179 A2000000 		.4byte	0xa2
 2934 017d 23       		.byte	0x23
 2935 017e 07       		.uleb128 0x7
 2936 017f 21040000 		.4byte	.LASF31
 2937 0183 05       		.byte	0x5
 2938 0184 5D01     		.2byte	0x15d
 2939 0186 A2000000 		.4byte	0xa2
 2940 018a 24       		.byte	0x24
 2941 018b 07       		.uleb128 0x7
 2942 018c E00C0000 		.4byte	.LASF32
 2943 0190 05       		.byte	0x5
 2944 0191 6001     		.2byte	0x160
 2945 0193 A2000000 		.4byte	0xa2
 2946 0197 25       		.byte	0x25
 2947 0198 07       		.uleb128 0x7
 2948 0199 5D010000 		.4byte	.LASF33
 2949 019d 05       		.byte	0x5
 2950 019e 6201     		.2byte	0x162
 2951 01a0 A2000000 		.4byte	0xa2
 2952 01a4 26       		.byte	0x26
 2953 01a5 07       		.uleb128 0x7
 2954 01a6 80010000 		.4byte	.LASF34
 2955 01aa 05       		.byte	0x5
 2956 01ab 6301     		.2byte	0x163
 2957 01ad A2000000 		.4byte	0xa2
 2958 01b1 27       		.byte	0x27
 2959 01b2 07       		.uleb128 0x7
 2960 01b3 5B0D0000 		.4byte	.LASF35
 2961 01b7 05       		.byte	0x5
 2962 01b8 6401     		.2byte	0x164
 2963 01ba A2000000 		.4byte	0xa2
 2964 01be 28       		.byte	0x28
 2965 01bf 07       		.uleb128 0x7
 2966 01c0 22050000 		.4byte	.LASF36
 2967 01c4 05       		.byte	0x5
 2968 01c5 6501     		.2byte	0x165
 2969 01c7 A2000000 		.4byte	0xa2
 2970 01cb 29       		.byte	0x29
 2971 01cc 07       		.uleb128 0x7
 2972 01cd 050C0000 		.4byte	.LASF37
 2973 01d1 05       		.byte	0x5
 2974 01d2 6601     		.2byte	0x166
 2975 01d4 A2000000 		.4byte	0xa2
 2976 01d8 2A       		.byte	0x2a
 2977 01d9 07       		.uleb128 0x7
 2978 01da AC030000 		.4byte	.LASF38
 2979 01de 05       		.byte	0x5
 2980 01df 6701     		.2byte	0x167
 2981 01e1 A2000000 		.4byte	0xa2
 2982 01e5 2B       		.byte	0x2b
 2983 01e6 00       		.byte	0
 2984 01e7 02       		.uleb128 0x2
ARM GAS  C:\Users\brian\AppData\Local\Temp\ccTYhJxe.s 			page 83


 2985 01e8 15030000 		.4byte	.LASF39
 2986 01ec 05       		.byte	0x5
 2987 01ed CE       		.byte	0xce
 2988 01ee F2010000 		.4byte	0x1f2
 2989 01f2 08       		.uleb128 0x8
 2990 01f3 810D0000 		.4byte	.LASF41
 2991 01f7 18       		.byte	0x18
 2992 01f8 05       		.byte	0x5
 2993 01f9 E7       		.byte	0xe7
 2994 01fa ED020000 		.4byte	0x2ed
 2995 01fe 09       		.uleb128 0x9
 2996 01ff 910A0000 		.4byte	.LASF42
 2997 0203 05       		.byte	0x5
 2998 0204 EB       		.byte	0xeb
 2999 0205 A2000000 		.4byte	0xa2
 3000 0209 00       		.byte	0
 3001 020a 09       		.uleb128 0x9
 3002 020b 5D0C0000 		.4byte	.LASF43
 3003 020f 05       		.byte	0x5
 3004 0210 EC       		.byte	0xec
 3005 0211 A2000000 		.4byte	0xa2
 3006 0215 01       		.byte	0x1
 3007 0216 09       		.uleb128 0x9
 3008 0217 2A0B0000 		.4byte	.LASF44
 3009 021b 05       		.byte	0x5
 3010 021c EE       		.byte	0xee
 3011 021d A2000000 		.4byte	0xa2
 3012 0221 02       		.byte	0x2
 3013 0222 09       		.uleb128 0x9
 3014 0223 2D020000 		.4byte	.LASF45
 3015 0227 05       		.byte	0x5
 3016 0228 EF       		.byte	0xef
 3017 0229 A2000000 		.4byte	0xa2
 3018 022d 03       		.byte	0x3
 3019 022e 09       		.uleb128 0x9
 3020 022f 3D000000 		.4byte	.LASF46
 3021 0233 05       		.byte	0x5
 3022 0234 F0       		.byte	0xf0
 3023 0235 A2000000 		.4byte	0xa2
 3024 0239 04       		.byte	0x4
 3025 023a 09       		.uleb128 0x9
 3026 023b 41010000 		.4byte	.LASF47
 3027 023f 05       		.byte	0x5
 3028 0240 F1       		.byte	0xf1
 3029 0241 A2000000 		.4byte	0xa2
 3030 0245 05       		.byte	0x5
 3031 0246 09       		.uleb128 0x9
 3032 0247 65030000 		.4byte	.LASF48
 3033 024b 05       		.byte	0x5
 3034 024c F8       		.byte	0xf8
 3035 024d A2000000 		.4byte	0xa2
 3036 0251 06       		.byte	0x6
 3037 0252 09       		.uleb128 0x9
 3038 0253 63050000 		.4byte	.LASF49
 3039 0257 05       		.byte	0x5
 3040 0258 FC       		.byte	0xfc
 3041 0259 A2000000 		.4byte	0xa2
ARM GAS  C:\Users\brian\AppData\Local\Temp\ccTYhJxe.s 			page 84


 3042 025d 07       		.byte	0x7
 3043 025e 09       		.uleb128 0x9
 3044 025f 030E0000 		.4byte	.LASF50
 3045 0263 05       		.byte	0x5
 3046 0264 FF       		.byte	0xff
 3047 0265 B8000000 		.4byte	0xb8
 3048 0269 08       		.byte	0x8
 3049 026a 07       		.uleb128 0x7
 3050 026b 880A0000 		.4byte	.LASF51
 3051 026f 05       		.byte	0x5
 3052 0270 0901     		.2byte	0x109
 3053 0272 A2000000 		.4byte	0xa2
 3054 0276 0C       		.byte	0xc
 3055 0277 07       		.uleb128 0x7
 3056 0278 3B0A0000 		.4byte	.LASF52
 3057 027c 05       		.byte	0x5
 3058 027d 0C01     		.2byte	0x10c
 3059 027f A2000000 		.4byte	0xa2
 3060 0283 0D       		.byte	0xd
 3061 0284 07       		.uleb128 0x7
 3062 0285 FD090000 		.4byte	.LASF53
 3063 0289 05       		.byte	0x5
 3064 028a 1201     		.2byte	0x112
 3065 028c A2000000 		.4byte	0xa2
 3066 0290 0E       		.byte	0xe
 3067 0291 07       		.uleb128 0x7
 3068 0292 4D070000 		.4byte	.LASF54
 3069 0296 05       		.byte	0x5
 3070 0297 1401     		.2byte	0x114
 3071 0299 A2000000 		.4byte	0xa2
 3072 029d 0F       		.byte	0xf
 3073 029e 07       		.uleb128 0x7
 3074 029f 3E0D0000 		.4byte	.LASF55
 3075 02a3 05       		.byte	0x5
 3076 02a4 1701     		.2byte	0x117
 3077 02a6 A2000000 		.4byte	0xa2
 3078 02aa 10       		.byte	0x10
 3079 02ab 07       		.uleb128 0x7
 3080 02ac 93070000 		.4byte	.LASF56
 3081 02b0 05       		.byte	0x5
 3082 02b1 1801     		.2byte	0x118
 3083 02b3 A2000000 		.4byte	0xa2
 3084 02b7 11       		.byte	0x11
 3085 02b8 07       		.uleb128 0x7
 3086 02b9 ED050000 		.4byte	.LASF57
 3087 02bd 05       		.byte	0x5
 3088 02be 1A01     		.2byte	0x11a
 3089 02c0 A2000000 		.4byte	0xa2
 3090 02c4 12       		.byte	0x12
 3091 02c5 07       		.uleb128 0x7
 3092 02c6 43060000 		.4byte	.LASF58
 3093 02ca 05       		.byte	0x5
 3094 02cb 1B01     		.2byte	0x11b
 3095 02cd A2000000 		.4byte	0xa2
 3096 02d1 13       		.byte	0x13
 3097 02d2 07       		.uleb128 0x7
 3098 02d3 020D0000 		.4byte	.LASF59
ARM GAS  C:\Users\brian\AppData\Local\Temp\ccTYhJxe.s 			page 85


 3099 02d7 05       		.byte	0x5
 3100 02d8 2301     		.2byte	0x123
 3101 02da AD000000 		.4byte	0xad
 3102 02de 14       		.byte	0x14
 3103 02df 07       		.uleb128 0x7
 3104 02e0 F60D0000 		.4byte	.LASF60
 3105 02e4 05       		.byte	0x5
 3106 02e5 2401     		.2byte	0x124
 3107 02e7 AD000000 		.4byte	0xad
 3108 02eb 16       		.byte	0x16
 3109 02ec 00       		.byte	0
 3110 02ed 02       		.uleb128 0x2
 3111 02ee 56080000 		.4byte	.LASF61
 3112 02f2 05       		.byte	0x5
 3113 02f3 D1       		.byte	0xd1
 3114 02f4 F8020000 		.4byte	0x2f8
 3115 02f8 0A       		.uleb128 0xa
 3116 02f9 04       		.byte	0x4
 3117 02fa FE020000 		.4byte	0x2fe
 3118 02fe 0B       		.uleb128 0xb
 3119 02ff A2000000 		.4byte	0xa2
 3120 0303 1C030000 		.4byte	0x31c
 3121 0307 0C       		.uleb128 0xc
 3122 0308 1C030000 		.4byte	0x31c
 3123 030c 0C       		.uleb128 0xc
 3124 030d A2000000 		.4byte	0xa2
 3125 0311 0C       		.uleb128 0xc
 3126 0312 A2000000 		.4byte	0xa2
 3127 0316 0C       		.uleb128 0xc
 3128 0317 C3000000 		.4byte	0xc3
 3129 031b 00       		.byte	0
 3130 031c 0A       		.uleb128 0xa
 3131 031d 04       		.byte	0x4
 3132 031e D7000000 		.4byte	0xd7
 3133 0322 02       		.uleb128 0x2
 3134 0323 BB020000 		.4byte	.LASF62
 3135 0327 05       		.byte	0x5
 3136 0328 D2       		.byte	0xd2
 3137 0329 2D030000 		.4byte	0x32d
 3138 032d 0A       		.uleb128 0xa
 3139 032e 04       		.byte	0x4
 3140 032f 33030000 		.4byte	0x333
 3141 0333 0B       		.uleb128 0xb
 3142 0334 AD000000 		.4byte	0xad
 3143 0338 47030000 		.4byte	0x347
 3144 033c 0C       		.uleb128 0xc
 3145 033d 1C030000 		.4byte	0x31c
 3146 0341 0C       		.uleb128 0xc
 3147 0342 A2000000 		.4byte	0xa2
 3148 0346 00       		.byte	0
 3149 0347 0A       		.uleb128 0xa
 3150 0348 04       		.byte	0x4
 3151 0349 A2000000 		.4byte	0xa2
 3152 034d 0A       		.uleb128 0xa
 3153 034e 04       		.byte	0x4
 3154 034f 53030000 		.4byte	0x353
 3155 0353 0D       		.uleb128 0xd
ARM GAS  C:\Users\brian\AppData\Local\Temp\ccTYhJxe.s 			page 86


 3156 0354 E7010000 		.4byte	0x1e7
 3157 0358 0A       		.uleb128 0xa
 3158 0359 04       		.byte	0x4
 3159 035a 5E030000 		.4byte	0x35e
 3160 035e 0D       		.uleb128 0xd
 3161 035f A2000000 		.4byte	0xa2
 3162 0363 02       		.uleb128 0x2
 3163 0364 C6010000 		.4byte	.LASF63
 3164 0368 06       		.byte	0x6
 3165 0369 D2       		.byte	0xd2
 3166 036a AD000000 		.4byte	0xad
 3167 036e 02       		.uleb128 0x2
 3168 036f 3F040000 		.4byte	.LASF64
 3169 0373 06       		.byte	0x6
 3170 0374 DC       		.byte	0xdc
 3171 0375 79030000 		.4byte	0x379
 3172 0379 06       		.uleb128 0x6
 3173 037a 1E0A0000 		.4byte	.LASF65
 3174 037e 94       		.byte	0x94
 3175 037f 06       		.byte	0x6
 3176 0380 3B01     		.2byte	0x13b
 3177 0382 33050000 		.4byte	0x533
 3178 0386 07       		.uleb128 0x7
 3179 0387 19090000 		.4byte	.LASF66
 3180 038b 06       		.byte	0x6
 3181 038c 3D01     		.2byte	0x13d
 3182 038e D7000000 		.4byte	0xd7
 3183 0392 00       		.byte	0
 3184 0393 07       		.uleb128 0x7
 3185 0394 20080000 		.4byte	.LASF67
 3186 0398 06       		.byte	0x6
 3187 0399 3E01     		.2byte	0x13e
 3188 039b D0050000 		.4byte	0x5d0
 3189 039f 2C       		.byte	0x2c
 3190 03a0 0E       		.uleb128 0xe
 3191 03a1 636200   		.ascii	"cb\000"
 3192 03a4 06       		.byte	0x6
 3193 03a5 3F01     		.2byte	0x13f
 3194 03a7 2F080000 		.4byte	0x82f
 3195 03ab 30       		.byte	0x30
 3196 03ac 07       		.uleb128 0x7
 3197 03ad 81000000 		.4byte	.LASF68
 3198 03b1 06       		.byte	0x6
 3199 03b2 4201     		.2byte	0x142
 3200 03b4 47030000 		.4byte	0x347
 3201 03b8 34       		.byte	0x34
 3202 03b9 07       		.uleb128 0x7
 3203 03ba 98040000 		.4byte	.LASF69
 3204 03be 06       		.byte	0x6
 3205 03bf 4301     		.2byte	0x143
 3206 03c1 A2000000 		.4byte	0xa2
 3207 03c5 38       		.byte	0x38
 3208 03c6 07       		.uleb128 0x7
 3209 03c7 6B0A0000 		.4byte	.LASF70
 3210 03cb 06       		.byte	0x6
 3211 03cc 4401     		.2byte	0x144
 3212 03ce A2000000 		.4byte	0xa2
ARM GAS  C:\Users\brian\AppData\Local\Temp\ccTYhJxe.s 			page 87


 3213 03d2 39       		.byte	0x39
 3214 03d3 07       		.uleb128 0x7
 3215 03d4 BD080000 		.4byte	.LASF71
 3216 03d8 06       		.byte	0x6
 3217 03d9 4701     		.2byte	0x147
 3218 03db 63030000 		.4byte	0x363
 3219 03df 3A       		.byte	0x3a
 3220 03e0 07       		.uleb128 0x7
 3221 03e1 DE030000 		.4byte	.LASF72
 3222 03e5 06       		.byte	0x6
 3223 03e6 4801     		.2byte	0x148
 3224 03e8 63030000 		.4byte	0x363
 3225 03ec 3C       		.byte	0x3c
 3226 03ed 07       		.uleb128 0x7
 3227 03ee D3060000 		.4byte	.LASF73
 3228 03f2 06       		.byte	0x6
 3229 03f3 4901     		.2byte	0x149
 3230 03f5 63030000 		.4byte	0x363
 3231 03f9 3E       		.byte	0x3e
 3232 03fa 07       		.uleb128 0x7
 3233 03fb 62070000 		.4byte	.LASF74
 3234 03ff 06       		.byte	0x6
 3235 0400 4F01     		.2byte	0x14f
 3236 0402 63030000 		.4byte	0x363
 3237 0406 40       		.byte	0x40
 3238 0407 07       		.uleb128 0x7
 3239 0408 69070000 		.4byte	.LASF75
 3240 040c 06       		.byte	0x6
 3241 040d 5001     		.2byte	0x150
 3242 040f 63030000 		.4byte	0x363
 3243 0413 42       		.byte	0x42
 3244 0414 07       		.uleb128 0x7
 3245 0415 92040000 		.4byte	.LASF76
 3246 0419 06       		.byte	0x6
 3247 041a 5301     		.2byte	0x153
 3248 041c 63030000 		.4byte	0x363
 3249 0420 44       		.byte	0x44
 3250 0421 07       		.uleb128 0x7
 3251 0422 B50D0000 		.4byte	.LASF77
 3252 0426 06       		.byte	0x6
 3253 0427 5401     		.2byte	0x154
 3254 0429 63030000 		.4byte	0x363
 3255 042d 46       		.byte	0x46
 3256 042e 07       		.uleb128 0x7
 3257 042f 3E090000 		.4byte	.LASF78
 3258 0433 06       		.byte	0x6
 3259 0434 5901     		.2byte	0x159
 3260 0436 63030000 		.4byte	0x363
 3261 043a 48       		.byte	0x48
 3262 043b 07       		.uleb128 0x7
 3263 043c 46090000 		.4byte	.LASF79
 3264 0440 06       		.byte	0x6
 3265 0441 5A01     		.2byte	0x15a
 3266 0443 63030000 		.4byte	0x363
 3267 0447 4A       		.byte	0x4a
 3268 0448 07       		.uleb128 0x7
 3269 0449 34070000 		.4byte	.LASF80
ARM GAS  C:\Users\brian\AppData\Local\Temp\ccTYhJxe.s 			page 88


 3270 044d 06       		.byte	0x6
 3271 044e 5B01     		.2byte	0x15b
 3272 0450 63030000 		.4byte	0x363
 3273 0454 4C       		.byte	0x4c
 3274 0455 07       		.uleb128 0x7
 3275 0456 CD0B0000 		.4byte	.LASF81
 3276 045a 06       		.byte	0x6
 3277 045b 5C01     		.2byte	0x15c
 3278 045d 63030000 		.4byte	0x363
 3279 0461 4E       		.byte	0x4e
 3280 0462 07       		.uleb128 0x7
 3281 0463 09050000 		.4byte	.LASF82
 3282 0467 06       		.byte	0x6
 3283 0468 6001     		.2byte	0x160
 3284 046a 63030000 		.4byte	0x363
 3285 046e 50       		.byte	0x50
 3286 046f 07       		.uleb128 0x7
 3287 0470 11050000 		.4byte	.LASF83
 3288 0474 06       		.byte	0x6
 3289 0475 6101     		.2byte	0x161
 3290 0477 63030000 		.4byte	0x363
 3291 047b 52       		.byte	0x52
 3292 047c 07       		.uleb128 0x7
 3293 047d 06070000 		.4byte	.LASF84
 3294 0481 06       		.byte	0x6
 3295 0482 6201     		.2byte	0x162
 3296 0484 63030000 		.4byte	0x363
 3297 0488 54       		.byte	0x54
 3298 0489 07       		.uleb128 0x7
 3299 048a 0E070000 		.4byte	.LASF85
 3300 048e 06       		.byte	0x6
 3301 048f 6301     		.2byte	0x163
 3302 0491 63030000 		.4byte	0x363
 3303 0495 56       		.byte	0x56
 3304 0496 07       		.uleb128 0x7
 3305 0497 8A0C0000 		.4byte	.LASF27
 3306 049b 06       		.byte	0x6
 3307 049c 6801     		.2byte	0x168
 3308 049e 58030000 		.4byte	0x358
 3309 04a2 58       		.byte	0x58
 3310 04a3 07       		.uleb128 0x7
 3311 04a4 3F030000 		.4byte	.LASF86
 3312 04a8 06       		.byte	0x6
 3313 04a9 6C01     		.2byte	0x16c
 3314 04ab 0E080000 		.4byte	0x80e
 3315 04af 5C       		.byte	0x5c
 3316 04b0 07       		.uleb128 0x7
 3317 04b1 BA0A0000 		.4byte	.LASF87
 3318 04b5 06       		.byte	0x6
 3319 04b6 6D01     		.2byte	0x16d
 3320 04b8 8F070000 		.4byte	0x78f
 3321 04bc 60       		.byte	0x60
 3322 04bd 07       		.uleb128 0x7
 3323 04be 59050000 		.4byte	.LASF88
 3324 04c2 06       		.byte	0x6
 3325 04c3 6E01     		.2byte	0x16e
 3326 04c5 DD060000 		.4byte	0x6dd
ARM GAS  C:\Users\brian\AppData\Local\Temp\ccTYhJxe.s 			page 89


 3327 04c9 74       		.byte	0x74
 3328 04ca 07       		.uleb128 0x7
 3329 04cb BB040000 		.4byte	.LASF89
 3330 04cf 06       		.byte	0x6
 3331 04d0 7201     		.2byte	0x172
 3332 04d2 A2000000 		.4byte	0xa2
 3333 04d6 8C       		.byte	0x8c
 3334 04d7 07       		.uleb128 0x7
 3335 04d8 07060000 		.4byte	.LASF90
 3336 04dc 06       		.byte	0x6
 3337 04dd 7501     		.2byte	0x175
 3338 04df A2000000 		.4byte	0xa2
 3339 04e3 8D       		.byte	0x8d
 3340 04e4 07       		.uleb128 0x7
 3341 04e5 4E030000 		.4byte	.LASF91
 3342 04e9 06       		.byte	0x6
 3343 04ea 7601     		.2byte	0x176
 3344 04ec 97000000 		.4byte	0x97
 3345 04f0 8E       		.byte	0x8e
 3346 04f1 07       		.uleb128 0x7
 3347 04f2 04030000 		.4byte	.LASF92
 3348 04f6 06       		.byte	0x6
 3349 04f7 7701     		.2byte	0x177
 3350 04f9 97000000 		.4byte	0x97
 3351 04fd 8F       		.byte	0x8f
 3352 04fe 07       		.uleb128 0x7
 3353 04ff 1E020000 		.4byte	.LASF93
 3354 0503 06       		.byte	0x6
 3355 0504 7901     		.2byte	0x179
 3356 0506 97000000 		.4byte	0x97
 3357 050a 90       		.byte	0x90
 3358 050b 07       		.uleb128 0x7
 3359 050c DC040000 		.4byte	.LASF94
 3360 0510 06       		.byte	0x6
 3361 0511 7B01     		.2byte	0x17b
 3362 0513 A2000000 		.4byte	0xa2
 3363 0517 91       		.byte	0x91
 3364 0518 07       		.uleb128 0x7
 3365 0519 FD0A0000 		.4byte	.LASF95
 3366 051d 06       		.byte	0x6
 3367 051e 7D01     		.2byte	0x17d
 3368 0520 A2000000 		.4byte	0xa2
 3369 0524 92       		.byte	0x92
 3370 0525 07       		.uleb128 0x7
 3371 0526 AA080000 		.4byte	.LASF96
 3372 052a 06       		.byte	0x6
 3373 052b 8101     		.2byte	0x181
 3374 052d A2000000 		.4byte	0xa2
 3375 0531 93       		.byte	0x93
 3376 0532 00       		.byte	0
 3377 0533 02       		.uleb128 0x2
 3378 0534 7E0A0000 		.4byte	.LASF97
 3379 0538 06       		.byte	0x6
 3380 0539 DD       		.byte	0xdd
 3381 053a 3E050000 		.4byte	0x53e
 3382 053e 06       		.uleb128 0x6
 3383 053f 62080000 		.4byte	.LASF98
ARM GAS  C:\Users\brian\AppData\Local\Temp\ccTYhJxe.s 			page 90


 3384 0543 0C       		.byte	0xc
 3385 0544 06       		.byte	0x6
 3386 0545 3101     		.2byte	0x131
 3387 0547 73050000 		.4byte	0x573
 3388 054b 07       		.uleb128 0x7
 3389 054c E7000000 		.4byte	.LASF99
 3390 0550 06       		.byte	0x6
 3391 0551 3301     		.2byte	0x133
 3392 0553 73050000 		.4byte	0x573
 3393 0557 00       		.byte	0
 3394 0558 07       		.uleb128 0x7
 3395 0559 8A020000 		.4byte	.LASF100
 3396 055d 06       		.byte	0x6
 3397 055e 3401     		.2byte	0x134
 3398 0560 95050000 		.4byte	0x595
 3399 0564 04       		.byte	0x4
 3400 0565 07       		.uleb128 0x7
 3401 0566 19050000 		.4byte	.LASF101
 3402 056a 06       		.byte	0x6
 3403 056b 3501     		.2byte	0x135
 3404 056d A0050000 		.4byte	0x5a0
 3405 0571 08       		.byte	0x8
 3406 0572 00       		.byte	0
 3407 0573 02       		.uleb128 0x2
 3408 0574 610B0000 		.4byte	.LASF102
 3409 0578 06       		.byte	0x6
 3410 0579 DF       		.byte	0xdf
 3411 057a 7E050000 		.4byte	0x57e
 3412 057e 0A       		.uleb128 0xa
 3413 057f 04       		.byte	0x4
 3414 0580 84050000 		.4byte	0x584
 3415 0584 0F       		.uleb128 0xf
 3416 0585 8F050000 		.4byte	0x58f
 3417 0589 0C       		.uleb128 0xc
 3418 058a 8F050000 		.4byte	0x58f
 3419 058e 00       		.byte	0
 3420 058f 0A       		.uleb128 0xa
 3421 0590 04       		.byte	0x4
 3422 0591 6E030000 		.4byte	0x36e
 3423 0595 02       		.uleb128 0x2
 3424 0596 69000000 		.4byte	.LASF103
 3425 059a 06       		.byte	0x6
 3426 059b E0       		.byte	0xe0
 3427 059c 7E050000 		.4byte	0x57e
 3428 05a0 02       		.uleb128 0x2
 3429 05a1 2A0A0000 		.4byte	.LASF104
 3430 05a5 06       		.byte	0x6
 3431 05a6 E1       		.byte	0xe1
 3432 05a7 AB050000 		.4byte	0x5ab
 3433 05ab 0A       		.uleb128 0xa
 3434 05ac 04       		.byte	0x4
 3435 05ad B1050000 		.4byte	0x5b1
 3436 05b1 0F       		.uleb128 0xf
 3437 05b2 D0050000 		.4byte	0x5d0
 3438 05b6 0C       		.uleb128 0xc
 3439 05b7 8F050000 		.4byte	0x58f
 3440 05bb 0C       		.uleb128 0xc
ARM GAS  C:\Users\brian\AppData\Local\Temp\ccTYhJxe.s 			page 91


 3441 05bc 63030000 		.4byte	0x363
 3442 05c0 0C       		.uleb128 0xc
 3443 05c1 63030000 		.4byte	0x363
 3444 05c5 0C       		.uleb128 0xc
 3445 05c6 63030000 		.4byte	0x363
 3446 05ca 0C       		.uleb128 0xc
 3447 05cb A2000000 		.4byte	0xa2
 3448 05cf 00       		.byte	0
 3449 05d0 02       		.uleb128 0x2
 3450 05d1 77030000 		.4byte	.LASF105
 3451 05d5 06       		.byte	0x6
 3452 05d6 E2       		.byte	0xe2
 3453 05d7 AB050000 		.4byte	0x5ab
 3454 05db 08       		.uleb128 0x8
 3455 05dc 590A0000 		.4byte	.LASF106
 3456 05e0 18       		.byte	0x18
 3457 05e1 06       		.byte	0x6
 3458 05e2 E8       		.byte	0xe8
 3459 05e3 DD060000 		.4byte	0x6dd
 3460 05e7 09       		.uleb128 0x9
 3461 05e8 DD000000 		.4byte	.LASF107
 3462 05ec 06       		.byte	0x6
 3463 05ed EB       		.byte	0xeb
 3464 05ee A2000000 		.4byte	0xa2
 3465 05f2 00       		.byte	0
 3466 05f3 09       		.uleb128 0x9
 3467 05f4 54010000 		.4byte	.LASF108
 3468 05f8 06       		.byte	0x6
 3469 05f9 EC       		.byte	0xec
 3470 05fa A2000000 		.4byte	0xa2
 3471 05fe 01       		.byte	0x1
 3472 05ff 09       		.uleb128 0x9
 3473 0600 34030000 		.4byte	.LASF109
 3474 0604 06       		.byte	0x6
 3475 0605 ED       		.byte	0xed
 3476 0606 A2000000 		.4byte	0xa2
 3477 060a 02       		.byte	0x2
 3478 060b 09       		.uleb128 0x9
 3479 060c 55060000 		.4byte	.LASF110
 3480 0610 06       		.byte	0x6
 3481 0611 EE       		.byte	0xee
 3482 0612 A2000000 		.4byte	0xa2
 3483 0616 03       		.byte	0x3
 3484 0617 09       		.uleb128 0x9
 3485 0618 98030000 		.4byte	.LASF111
 3486 061c 06       		.byte	0x6
 3487 061d F1       		.byte	0xf1
 3488 061e A2000000 		.4byte	0xa2
 3489 0622 04       		.byte	0x4
 3490 0623 09       		.uleb128 0x9
 3491 0624 DD0A0000 		.4byte	.LASF112
 3492 0628 06       		.byte	0x6
 3493 0629 F2       		.byte	0xf2
 3494 062a A2000000 		.4byte	0xa2
 3495 062e 05       		.byte	0x5
 3496 062f 09       		.uleb128 0x9
 3497 0630 8C010000 		.4byte	.LASF113
ARM GAS  C:\Users\brian\AppData\Local\Temp\ccTYhJxe.s 			page 92


 3498 0634 06       		.byte	0x6
 3499 0635 F3       		.byte	0xf3
 3500 0636 A2000000 		.4byte	0xa2
 3501 063a 06       		.byte	0x6
 3502 063b 09       		.uleb128 0x9
 3503 063c 9C010000 		.4byte	.LASF114
 3504 0640 06       		.byte	0x6
 3505 0641 F4       		.byte	0xf4
 3506 0642 A2000000 		.4byte	0xa2
 3507 0646 07       		.byte	0x7
 3508 0647 09       		.uleb128 0x9
 3509 0648 60060000 		.4byte	.LASF115
 3510 064c 06       		.byte	0x6
 3511 064d F5       		.byte	0xf5
 3512 064e A2000000 		.4byte	0xa2
 3513 0652 08       		.byte	0x8
 3514 0653 09       		.uleb128 0x9
 3515 0654 25070000 		.4byte	.LASF116
 3516 0658 06       		.byte	0x6
 3517 0659 F8       		.byte	0xf8
 3518 065a 97000000 		.4byte	0x97
 3519 065e 09       		.byte	0x9
 3520 065f 09       		.uleb128 0x9
 3521 0660 9A020000 		.4byte	.LASF117
 3522 0664 06       		.byte	0x6
 3523 0665 F9       		.byte	0xf9
 3524 0666 97000000 		.4byte	0x97
 3525 066a 0A       		.byte	0xa
 3526 066b 09       		.uleb128 0x9
 3527 066c 82070000 		.4byte	.LASF29
 3528 0670 06       		.byte	0x6
 3529 0671 FA       		.byte	0xfa
 3530 0672 97000000 		.4byte	0x97
 3531 0676 0B       		.byte	0xb
 3532 0677 09       		.uleb128 0x9
 3533 0678 68010000 		.4byte	.LASF118
 3534 067c 06       		.byte	0x6
 3535 067d FB       		.byte	0xfb
 3536 067e 97000000 		.4byte	0x97
 3537 0682 0C       		.byte	0xc
 3538 0683 09       		.uleb128 0x9
 3539 0684 A1080000 		.4byte	.LASF119
 3540 0688 06       		.byte	0x6
 3541 0689 FE       		.byte	0xfe
 3542 068a 97000000 		.4byte	0x97
 3543 068e 0D       		.byte	0xd
 3544 068f 09       		.uleb128 0x9
 3545 0690 8E030000 		.4byte	.LASF120
 3546 0694 06       		.byte	0x6
 3547 0695 FF       		.byte	0xff
 3548 0696 97000000 		.4byte	0x97
 3549 069a 0E       		.byte	0xe
 3550 069b 07       		.uleb128 0x7
 3551 069c 12020000 		.4byte	.LASF121
 3552 06a0 06       		.byte	0x6
 3553 06a1 0001     		.2byte	0x100
 3554 06a3 97000000 		.4byte	0x97
ARM GAS  C:\Users\brian\AppData\Local\Temp\ccTYhJxe.s 			page 93


 3555 06a7 0F       		.byte	0xf
 3556 06a8 07       		.uleb128 0x7
 3557 06a9 3F050000 		.4byte	.LASF122
 3558 06ad 06       		.byte	0x6
 3559 06ae 0101     		.2byte	0x101
 3560 06b0 97000000 		.4byte	0x97
 3561 06b4 10       		.byte	0x10
 3562 06b5 07       		.uleb128 0x7
 3563 06b6 31060000 		.4byte	.LASF123
 3564 06ba 06       		.byte	0x6
 3565 06bb 0401     		.2byte	0x104
 3566 06bd AD000000 		.4byte	0xad
 3567 06c1 12       		.byte	0x12
 3568 06c2 07       		.uleb128 0x7
 3569 06c3 A30C0000 		.4byte	.LASF124
 3570 06c7 06       		.byte	0x6
 3571 06c8 0501     		.2byte	0x105
 3572 06ca AD000000 		.4byte	0xad
 3573 06ce 14       		.byte	0x14
 3574 06cf 07       		.uleb128 0x7
 3575 06d0 2B000000 		.4byte	.LASF125
 3576 06d4 06       		.byte	0x6
 3577 06d5 0901     		.2byte	0x109
 3578 06d7 AD000000 		.4byte	0xad
 3579 06db 16       		.byte	0x16
 3580 06dc 00       		.byte	0
 3581 06dd 10       		.uleb128 0x10
 3582 06de DA020000 		.4byte	.LASF126
 3583 06e2 06       		.byte	0x6
 3584 06e3 0C01     		.2byte	0x10c
 3585 06e5 DB050000 		.4byte	0x5db
 3586 06e9 06       		.uleb128 0x6
 3587 06ea D50B0000 		.4byte	.LASF127
 3588 06ee 14       		.byte	0x14
 3589 06ef 06       		.byte	0x6
 3590 06f0 0F01     		.2byte	0x10f
 3591 06f2 8F070000 		.4byte	0x78f
 3592 06f6 07       		.uleb128 0x7
 3593 06f7 87040000 		.4byte	.LASF128
 3594 06fb 06       		.byte	0x6
 3595 06fc 1101     		.2byte	0x111
 3596 06fe 58030000 		.4byte	0x358
 3597 0702 00       		.byte	0
 3598 0703 07       		.uleb128 0x7
 3599 0704 7A0B0000 		.4byte	.LASF129
 3600 0708 06       		.byte	0x6
 3601 0709 1301     		.2byte	0x113
 3602 070b 63030000 		.4byte	0x363
 3603 070f 04       		.byte	0x4
 3604 0710 07       		.uleb128 0x7
 3605 0711 830B0000 		.4byte	.LASF130
 3606 0715 06       		.byte	0x6
 3607 0716 1401     		.2byte	0x114
 3608 0718 63030000 		.4byte	0x363
 3609 071c 06       		.byte	0x6
 3610 071d 0E       		.uleb128 0xe
 3611 071e 7800     		.ascii	"x\000"
ARM GAS  C:\Users\brian\AppData\Local\Temp\ccTYhJxe.s 			page 94


 3612 0720 06       		.byte	0x6
 3613 0721 1601     		.2byte	0x116
 3614 0723 97000000 		.4byte	0x97
 3615 0727 08       		.byte	0x8
 3616 0728 0E       		.uleb128 0xe
 3617 0729 7900     		.ascii	"y\000"
 3618 072b 06       		.byte	0x6
 3619 072c 1701     		.2byte	0x117
 3620 072e 97000000 		.4byte	0x97
 3621 0732 09       		.byte	0x9
 3622 0733 07       		.uleb128 0x7
 3623 0734 71080000 		.4byte	.LASF131
 3624 0738 06       		.byte	0x6
 3625 0739 1801     		.2byte	0x118
 3626 073b 97000000 		.4byte	0x97
 3627 073f 0A       		.byte	0xa
 3628 0740 07       		.uleb128 0x7
 3629 0741 80060000 		.4byte	.LASF132
 3630 0745 06       		.byte	0x6
 3631 0746 1901     		.2byte	0x119
 3632 0748 97000000 		.4byte	0x97
 3633 074c 0B       		.byte	0xb
 3634 074d 07       		.uleb128 0x7
 3635 074e 71060000 		.4byte	.LASF133
 3636 0752 06       		.byte	0x6
 3637 0753 1B01     		.2byte	0x11b
 3638 0755 A2000000 		.4byte	0xa2
 3639 0759 0C       		.byte	0xc
 3640 075a 07       		.uleb128 0x7
 3641 075b 12040000 		.4byte	.LASF134
 3642 075f 06       		.byte	0x6
 3643 0760 1C01     		.2byte	0x11c
 3644 0762 A2000000 		.4byte	0xa2
 3645 0766 0D       		.byte	0xd
 3646 0767 07       		.uleb128 0x7
 3647 0768 37080000 		.4byte	.LASF135
 3648 076c 06       		.byte	0x6
 3649 076d 1D01     		.2byte	0x11d
 3650 076f A2000000 		.4byte	0xa2
 3651 0773 0E       		.byte	0xe
 3652 0774 07       		.uleb128 0x7
 3653 0775 350D0000 		.4byte	.LASF136
 3654 0779 06       		.byte	0x6
 3655 077a 1E01     		.2byte	0x11e
 3656 077c A2000000 		.4byte	0xa2
 3657 0780 0F       		.byte	0xf
 3658 0781 0E       		.uleb128 0xe
 3659 0782 64697200 		.ascii	"dir\000"
 3660 0786 06       		.byte	0x6
 3661 0787 2001     		.2byte	0x120
 3662 0789 A2000000 		.4byte	0xa2
 3663 078d 10       		.byte	0x10
 3664 078e 00       		.byte	0
 3665 078f 10       		.uleb128 0x10
 3666 0790 C2000000 		.4byte	.LASF137
 3667 0794 06       		.byte	0x6
 3668 0795 2301     		.2byte	0x123
ARM GAS  C:\Users\brian\AppData\Local\Temp\ccTYhJxe.s 			page 95


 3669 0797 E9060000 		.4byte	0x6e9
 3670 079b 06       		.uleb128 0x6
 3671 079c 430B0000 		.4byte	.LASF138
 3672 07a0 14       		.byte	0x14
 3673 07a1 06       		.byte	0x6
 3674 07a2 2501     		.2byte	0x125
 3675 07a4 F7070000 		.4byte	0x7f7
 3676 07a8 07       		.uleb128 0x7
 3677 07a9 59000000 		.4byte	.LASF139
 3678 07ad 06       		.byte	0x6
 3679 07ae 2701     		.2byte	0x127
 3680 07b0 AD000000 		.4byte	0xad
 3681 07b4 00       		.byte	0
 3682 07b5 07       		.uleb128 0x7
 3683 07b6 AF050000 		.4byte	.LASF140
 3684 07ba 06       		.byte	0x6
 3685 07bb 2801     		.2byte	0x128
 3686 07bd AD000000 		.4byte	0xad
 3687 07c1 02       		.byte	0x2
 3688 07c2 07       		.uleb128 0x7
 3689 07c3 75020000 		.4byte	.LASF141
 3690 07c7 06       		.byte	0x6
 3691 07c8 2901     		.2byte	0x129
 3692 07ca F7070000 		.4byte	0x7f7
 3693 07ce 04       		.byte	0x4
 3694 07cf 07       		.uleb128 0x7
 3695 07d0 A9060000 		.4byte	.LASF142
 3696 07d4 06       		.byte	0x6
 3697 07d5 2A01     		.2byte	0x12a
 3698 07d7 F7070000 		.4byte	0x7f7
 3699 07db 08       		.byte	0x8
 3700 07dc 07       		.uleb128 0x7
 3701 07dd 40080000 		.4byte	.LASF143
 3702 07e1 06       		.byte	0x6
 3703 07e2 2B01     		.2byte	0x12b
 3704 07e4 F7070000 		.4byte	0x7f7
 3705 07e8 0C       		.byte	0xc
 3706 07e9 07       		.uleb128 0x7
 3707 07ea 16070000 		.4byte	.LASF144
 3708 07ee 06       		.byte	0x6
 3709 07ef 2C01     		.2byte	0x12c
 3710 07f1 58030000 		.4byte	0x358
 3711 07f5 10       		.byte	0x10
 3712 07f6 00       		.byte	0
 3713 07f7 0A       		.uleb128 0xa
 3714 07f8 04       		.byte	0x4
 3715 07f9 FD070000 		.4byte	0x7fd
 3716 07fd 0D       		.uleb128 0xd
 3717 07fe AD000000 		.4byte	0xad
 3718 0802 10       		.uleb128 0x10
 3719 0803 4E0C0000 		.4byte	.LASF145
 3720 0807 06       		.byte	0x6
 3721 0808 2E01     		.2byte	0x12e
 3722 080a 9B070000 		.4byte	0x79b
 3723 080e 10       		.uleb128 0x10
 3724 080f C60C0000 		.4byte	.LASF146
 3725 0813 06       		.byte	0x6
ARM GAS  C:\Users\brian\AppData\Local\Temp\ccTYhJxe.s 			page 96


 3726 0814 3801     		.2byte	0x138
 3727 0816 1A080000 		.4byte	0x81a
 3728 081a 0A       		.uleb128 0xa
 3729 081b 04       		.byte	0x4
 3730 081c 20080000 		.4byte	0x820
 3731 0820 0B       		.uleb128 0xb
 3732 0821 63030000 		.4byte	0x363
 3733 0825 2F080000 		.4byte	0x82f
 3734 0829 0C       		.uleb128 0xc
 3735 082a 8F050000 		.4byte	0x58f
 3736 082e 00       		.byte	0
 3737 082f 0A       		.uleb128 0xa
 3738 0830 04       		.byte	0x4
 3739 0831 35080000 		.4byte	0x835
 3740 0835 0D       		.uleb128 0xd
 3741 0836 33050000 		.4byte	0x533
 3742 083a 11       		.uleb128 0x11
 3743 083b 220D0000 		.4byte	.LASF148
 3744 083f 01       		.byte	0x1
 3745 0840 6F       		.byte	0x6f
 3746 0841 A2000000 		.4byte	0xa2
 3747 0845 00000000 		.4byte	.LFB0
 3748 0849 04000000 		.4byte	.LFE0-.LFB0
 3749 084d 01       		.uleb128 0x1
 3750 084e 9C       		.byte	0x9c
 3751 084f 70080000 		.4byte	0x870
 3752 0853 12       		.uleb128 0x12
 3753 0854 8A0C0000 		.4byte	.LASF27
 3754 0858 01       		.byte	0x1
 3755 0859 6F       		.byte	0x6f
 3756 085a 58030000 		.4byte	0x358
 3757 085e 00000000 		.4byte	.LLST0
 3758 0862 13       		.uleb128 0x13
 3759 0863 5E030000 		.4byte	.LASF147
 3760 0867 01       		.byte	0x1
 3761 0868 6F       		.byte	0x6f
 3762 0869 A2000000 		.4byte	0xa2
 3763 086d 01       		.uleb128 0x1
 3764 086e 51       		.byte	0x51
 3765 086f 00       		.byte	0
 3766 0870 11       		.uleb128 0x11
 3767 0871 E30D0000 		.4byte	.LASF149
 3768 0875 01       		.byte	0x1
 3769 0876 76       		.byte	0x76
 3770 0877 AD000000 		.4byte	0xad
 3771 087b 00000000 		.4byte	.LFB1
 3772 087f 0E000000 		.4byte	.LFE1-.LFB1
 3773 0883 01       		.uleb128 0x1
 3774 0884 9C       		.byte	0x9c
 3775 0885 B5080000 		.4byte	0x8b5
 3776 0889 12       		.uleb128 0x12
 3777 088a 8A0C0000 		.4byte	.LASF27
 3778 088e 01       		.byte	0x1
 3779 088f 76       		.byte	0x76
 3780 0890 58030000 		.4byte	0x358
 3781 0894 34000000 		.4byte	.LLST1
 3782 0898 13       		.uleb128 0x13
ARM GAS  C:\Users\brian\AppData\Local\Temp\ccTYhJxe.s 			page 97


 3783 0899 5E030000 		.4byte	.LASF147
 3784 089d 01       		.byte	0x1
 3785 089e 76       		.byte	0x76
 3786 089f A2000000 		.4byte	0xa2
 3787 08a3 01       		.uleb128 0x1
 3788 08a4 51       		.byte	0x51
 3789 08a5 14       		.uleb128 0x14
 3790 08a6 706F7300 		.ascii	"pos\000"
 3791 08aa 01       		.byte	0x1
 3792 08ab 78       		.byte	0x78
 3793 08ac AD000000 		.4byte	0xad
 3794 08b0 72000000 		.4byte	.LLST2
 3795 08b4 00       		.byte	0
 3796 08b5 15       		.uleb128 0x15
 3797 08b6 EB020000 		.4byte	.LASF151
 3798 08ba 01       		.byte	0x1
 3799 08bb FB03     		.2byte	0x3fb
 3800 08bd 63030000 		.4byte	0x363
 3801 08c1 00000000 		.4byte	.LFB31
 3802 08c5 04000000 		.4byte	.LFE31-.LFB31
 3803 08c9 01       		.uleb128 0x1
 3804 08ca 9C       		.byte	0x9c
 3805 08cb E0080000 		.4byte	0x8e0
 3806 08cf 16       		.uleb128 0x16
 3807 08d0 3A050000 		.4byte	.LASF150
 3808 08d4 01       		.byte	0x1
 3809 08d5 FB03     		.2byte	0x3fb
 3810 08d7 8F050000 		.4byte	0x58f
 3811 08db 94000000 		.4byte	.LLST3
 3812 08df 00       		.byte	0
 3813 08e0 15       		.uleb128 0x15
 3814 08e1 FD070000 		.4byte	.LASF152
 3815 08e5 01       		.byte	0x1
 3816 08e6 0604     		.2byte	0x406
 3817 08e8 63030000 		.4byte	0x363
 3818 08ec 00000000 		.4byte	.LFB33
 3819 08f0 08000000 		.4byte	.LFE33-.LFB33
 3820 08f4 01       		.uleb128 0x1
 3821 08f5 9C       		.byte	0x9c
 3822 08f6 0B090000 		.4byte	0x90b
 3823 08fa 16       		.uleb128 0x16
 3824 08fb 3A050000 		.4byte	.LASF150
 3825 08ff 01       		.byte	0x1
 3826 0900 0604     		.2byte	0x406
 3827 0902 8F050000 		.4byte	0x58f
 3828 0906 B5000000 		.4byte	.LLST4
 3829 090a 00       		.byte	0
 3830 090b 15       		.uleb128 0x15
 3831 090c 360C0000 		.4byte	.LASF153
 3832 0910 01       		.byte	0x1
 3833 0911 1004     		.2byte	0x410
 3834 0913 63030000 		.4byte	0x363
 3835 0917 00000000 		.4byte	.LFB35
 3836 091b 0C000000 		.4byte	.LFE35-.LFB35
 3837 091f 01       		.uleb128 0x1
 3838 0920 9C       		.byte	0x9c
 3839 0921 44090000 		.4byte	0x944
ARM GAS  C:\Users\brian\AppData\Local\Temp\ccTYhJxe.s 			page 98


 3840 0925 16       		.uleb128 0x16
 3841 0926 3A050000 		.4byte	.LASF150
 3842 092a 01       		.byte	0x1
 3843 092b 1004     		.2byte	0x410
 3844 092d 8F050000 		.4byte	0x58f
 3845 0931 D6000000 		.4byte	.LLST5
 3846 0935 17       		.uleb128 0x17
 3847 0936 746D7000 		.ascii	"tmp\000"
 3848 093a 01       		.byte	0x1
 3849 093b 1204     		.2byte	0x412
 3850 093d 63030000 		.4byte	0x363
 3851 0941 01       		.uleb128 0x1
 3852 0942 50       		.byte	0x50
 3853 0943 00       		.byte	0
 3854 0944 15       		.uleb128 0x15
 3855 0945 E8080000 		.4byte	.LASF154
 3856 0949 01       		.byte	0x1
 3857 094a 1E04     		.2byte	0x41e
 3858 094c 63030000 		.4byte	0x363
 3859 0950 00000000 		.4byte	.LFB37
 3860 0954 1A000000 		.4byte	.LFE37-.LFB37
 3861 0958 01       		.uleb128 0x1
 3862 0959 9C       		.byte	0x9c
 3863 095a 7F090000 		.4byte	0x97f
 3864 095e 16       		.uleb128 0x16
 3865 095f 3A050000 		.4byte	.LASF150
 3866 0963 01       		.byte	0x1
 3867 0964 1E04     		.2byte	0x41e
 3868 0966 8F050000 		.4byte	0x58f
 3869 096a F7000000 		.4byte	.LLST6
 3870 096e 18       		.uleb128 0x18
 3871 096f 746D7000 		.ascii	"tmp\000"
 3872 0973 01       		.byte	0x1
 3873 0974 2004     		.2byte	0x420
 3874 0976 97000000 		.4byte	0x97
 3875 097a 18010000 		.4byte	.LLST7
 3876 097e 00       		.byte	0
 3877 097f 19       		.uleb128 0x19
 3878 0980 46020000 		.4byte	.LASF170
 3879 0984 01       		.byte	0x1
 3880 0985 83       		.byte	0x83
 3881 0986 00000000 		.4byte	.LFB2
 3882 098a D0000000 		.4byte	.LFE2-.LFB2
 3883 098e 01       		.uleb128 0x1
 3884 098f 9C       		.byte	0x9c
 3885 0990 A30B0000 		.4byte	0xba3
 3886 0994 12       		.uleb128 0x12
 3887 0995 59050000 		.4byte	.LASF88
 3888 0999 01       		.byte	0x1
 3889 099a 83       		.byte	0x83
 3890 099b A30B0000 		.4byte	0xba3
 3891 099f A1010000 		.4byte	.LLST8
 3892 09a3 12       		.uleb128 0x12
 3893 09a4 8A0C0000 		.4byte	.LASF27
 3894 09a8 01       		.byte	0x1
 3895 09a9 83       		.byte	0x83
 3896 09aa 58030000 		.4byte	0x358
ARM GAS  C:\Users\brian\AppData\Local\Temp\ccTYhJxe.s 			page 99


 3897 09ae BF010000 		.4byte	.LLST9
 3898 09b2 1A       		.uleb128 0x1a
 3899 09b3 0E000000 		.4byte	.LVL27
 3900 09b7 3A080000 		.4byte	0x83a
 3901 09bb CB090000 		.4byte	0x9cb
 3902 09bf 1B       		.uleb128 0x1b
 3903 09c0 01       		.uleb128 0x1
 3904 09c1 50       		.byte	0x50
 3905 09c2 02       		.uleb128 0x2
 3906 09c3 75       		.byte	0x75
 3907 09c4 00       		.sleb128 0
 3908 09c5 1B       		.uleb128 0x1b
 3909 09c6 01       		.uleb128 0x1
 3910 09c7 51       		.byte	0x51
 3911 09c8 01       		.uleb128 0x1
 3912 09c9 30       		.byte	0x30
 3913 09ca 00       		.byte	0
 3914 09cb 1A       		.uleb128 0x1a
 3915 09cc 18000000 		.4byte	.LVL28
 3916 09d0 3A080000 		.4byte	0x83a
 3917 09d4 E4090000 		.4byte	0x9e4
 3918 09d8 1B       		.uleb128 0x1b
 3919 09d9 01       		.uleb128 0x1
 3920 09da 50       		.byte	0x50
 3921 09db 02       		.uleb128 0x2
 3922 09dc 75       		.byte	0x75
 3923 09dd 00       		.sleb128 0
 3924 09de 1B       		.uleb128 0x1b
 3925 09df 01       		.uleb128 0x1
 3926 09e0 51       		.byte	0x51
 3927 09e1 01       		.uleb128 0x1
 3928 09e2 31       		.byte	0x31
 3929 09e3 00       		.byte	0
 3930 09e4 1A       		.uleb128 0x1a
 3931 09e5 22000000 		.4byte	.LVL29
 3932 09e9 3A080000 		.4byte	0x83a
 3933 09ed FD090000 		.4byte	0x9fd
 3934 09f1 1B       		.uleb128 0x1b
 3935 09f2 01       		.uleb128 0x1
 3936 09f3 50       		.byte	0x50
 3937 09f4 02       		.uleb128 0x2
 3938 09f5 75       		.byte	0x75
 3939 09f6 00       		.sleb128 0
 3940 09f7 1B       		.uleb128 0x1b
 3941 09f8 01       		.uleb128 0x1
 3942 09f9 51       		.byte	0x51
 3943 09fa 01       		.uleb128 0x1
 3944 09fb 32       		.byte	0x32
 3945 09fc 00       		.byte	0
 3946 09fd 1A       		.uleb128 0x1a
 3947 09fe 2C000000 		.4byte	.LVL30
 3948 0a02 3A080000 		.4byte	0x83a
 3949 0a06 160A0000 		.4byte	0xa16
 3950 0a0a 1B       		.uleb128 0x1b
 3951 0a0b 01       		.uleb128 0x1
 3952 0a0c 50       		.byte	0x50
 3953 0a0d 02       		.uleb128 0x2
ARM GAS  C:\Users\brian\AppData\Local\Temp\ccTYhJxe.s 			page 100


 3954 0a0e 75       		.byte	0x75
 3955 0a0f 00       		.sleb128 0
 3956 0a10 1B       		.uleb128 0x1b
 3957 0a11 01       		.uleb128 0x1
 3958 0a12 51       		.byte	0x51
 3959 0a13 01       		.uleb128 0x1
 3960 0a14 33       		.byte	0x33
 3961 0a15 00       		.byte	0
 3962 0a16 1A       		.uleb128 0x1a
 3963 0a17 36000000 		.4byte	.LVL31
 3964 0a1b 3A080000 		.4byte	0x83a
 3965 0a1f 2F0A0000 		.4byte	0xa2f
 3966 0a23 1B       		.uleb128 0x1b
 3967 0a24 01       		.uleb128 0x1
 3968 0a25 50       		.byte	0x50
 3969 0a26 02       		.uleb128 0x2
 3970 0a27 75       		.byte	0x75
 3971 0a28 00       		.sleb128 0
 3972 0a29 1B       		.uleb128 0x1b
 3973 0a2a 01       		.uleb128 0x1
 3974 0a2b 51       		.byte	0x51
 3975 0a2c 01       		.uleb128 0x1
 3976 0a2d 34       		.byte	0x34
 3977 0a2e 00       		.byte	0
 3978 0a2f 1A       		.uleb128 0x1a
 3979 0a30 40000000 		.4byte	.LVL32
 3980 0a34 3A080000 		.4byte	0x83a
 3981 0a38 480A0000 		.4byte	0xa48
 3982 0a3c 1B       		.uleb128 0x1b
 3983 0a3d 01       		.uleb128 0x1
 3984 0a3e 50       		.byte	0x50
 3985 0a3f 02       		.uleb128 0x2
 3986 0a40 75       		.byte	0x75
 3987 0a41 00       		.sleb128 0
 3988 0a42 1B       		.uleb128 0x1b
 3989 0a43 01       		.uleb128 0x1
 3990 0a44 51       		.byte	0x51
 3991 0a45 01       		.uleb128 0x1
 3992 0a46 35       		.byte	0x35
 3993 0a47 00       		.byte	0
 3994 0a48 1A       		.uleb128 0x1a
 3995 0a49 4A000000 		.4byte	.LVL33
 3996 0a4d 3A080000 		.4byte	0x83a
 3997 0a51 610A0000 		.4byte	0xa61
 3998 0a55 1B       		.uleb128 0x1b
 3999 0a56 01       		.uleb128 0x1
 4000 0a57 50       		.byte	0x50
 4001 0a58 02       		.uleb128 0x2
 4002 0a59 75       		.byte	0x75
 4003 0a5a 00       		.sleb128 0
 4004 0a5b 1B       		.uleb128 0x1b
 4005 0a5c 01       		.uleb128 0x1
 4006 0a5d 51       		.byte	0x51
 4007 0a5e 01       		.uleb128 0x1
 4008 0a5f 36       		.byte	0x36
 4009 0a60 00       		.byte	0
 4010 0a61 1A       		.uleb128 0x1a
ARM GAS  C:\Users\brian\AppData\Local\Temp\ccTYhJxe.s 			page 101


 4011 0a62 54000000 		.4byte	.LVL34
 4012 0a66 3A080000 		.4byte	0x83a
 4013 0a6a 7A0A0000 		.4byte	0xa7a
 4014 0a6e 1B       		.uleb128 0x1b
 4015 0a6f 01       		.uleb128 0x1
 4016 0a70 50       		.byte	0x50
 4017 0a71 02       		.uleb128 0x2
 4018 0a72 75       		.byte	0x75
 4019 0a73 00       		.sleb128 0
 4020 0a74 1B       		.uleb128 0x1b
 4021 0a75 01       		.uleb128 0x1
 4022 0a76 51       		.byte	0x51
 4023 0a77 01       		.uleb128 0x1
 4024 0a78 37       		.byte	0x37
 4025 0a79 00       		.byte	0
 4026 0a7a 1A       		.uleb128 0x1a
 4027 0a7b 5E000000 		.4byte	.LVL35
 4028 0a7f 3A080000 		.4byte	0x83a
 4029 0a83 930A0000 		.4byte	0xa93
 4030 0a87 1B       		.uleb128 0x1b
 4031 0a88 01       		.uleb128 0x1
 4032 0a89 50       		.byte	0x50
 4033 0a8a 02       		.uleb128 0x2
 4034 0a8b 75       		.byte	0x75
 4035 0a8c 00       		.sleb128 0
 4036 0a8d 1B       		.uleb128 0x1b
 4037 0a8e 01       		.uleb128 0x1
 4038 0a8f 51       		.byte	0x51
 4039 0a90 01       		.uleb128 0x1
 4040 0a91 38       		.byte	0x38
 4041 0a92 00       		.byte	0
 4042 0a93 1A       		.uleb128 0x1a
 4043 0a94 68000000 		.4byte	.LVL36
 4044 0a98 3A080000 		.4byte	0x83a
 4045 0a9c AC0A0000 		.4byte	0xaac
 4046 0aa0 1B       		.uleb128 0x1b
 4047 0aa1 01       		.uleb128 0x1
 4048 0aa2 50       		.byte	0x50
 4049 0aa3 02       		.uleb128 0x2
 4050 0aa4 75       		.byte	0x75
 4051 0aa5 00       		.sleb128 0
 4052 0aa6 1B       		.uleb128 0x1b
 4053 0aa7 01       		.uleb128 0x1
 4054 0aa8 51       		.byte	0x51
 4055 0aa9 01       		.uleb128 0x1
 4056 0aaa 39       		.byte	0x39
 4057 0aab 00       		.byte	0
 4058 0aac 1A       		.uleb128 0x1a
 4059 0aad 72000000 		.4byte	.LVL37
 4060 0ab1 3A080000 		.4byte	0x83a
 4061 0ab5 C50A0000 		.4byte	0xac5
 4062 0ab9 1B       		.uleb128 0x1b
 4063 0aba 01       		.uleb128 0x1
 4064 0abb 50       		.byte	0x50
 4065 0abc 02       		.uleb128 0x2
 4066 0abd 75       		.byte	0x75
 4067 0abe 00       		.sleb128 0
ARM GAS  C:\Users\brian\AppData\Local\Temp\ccTYhJxe.s 			page 102


 4068 0abf 1B       		.uleb128 0x1b
 4069 0ac0 01       		.uleb128 0x1
 4070 0ac1 51       		.byte	0x51
 4071 0ac2 01       		.uleb128 0x1
 4072 0ac3 3A       		.byte	0x3a
 4073 0ac4 00       		.byte	0
 4074 0ac5 1A       		.uleb128 0x1a
 4075 0ac6 7C000000 		.4byte	.LVL38
 4076 0aca 3A080000 		.4byte	0x83a
 4077 0ace DE0A0000 		.4byte	0xade
 4078 0ad2 1B       		.uleb128 0x1b
 4079 0ad3 01       		.uleb128 0x1
 4080 0ad4 50       		.byte	0x50
 4081 0ad5 02       		.uleb128 0x2
 4082 0ad6 75       		.byte	0x75
 4083 0ad7 00       		.sleb128 0
 4084 0ad8 1B       		.uleb128 0x1b
 4085 0ad9 01       		.uleb128 0x1
 4086 0ada 51       		.byte	0x51
 4087 0adb 01       		.uleb128 0x1
 4088 0adc 3B       		.byte	0x3b
 4089 0add 00       		.byte	0
 4090 0ade 1A       		.uleb128 0x1a
 4091 0adf 86000000 		.4byte	.LVL39
 4092 0ae3 3A080000 		.4byte	0x83a
 4093 0ae7 F70A0000 		.4byte	0xaf7
 4094 0aeb 1B       		.uleb128 0x1b
 4095 0aec 01       		.uleb128 0x1
 4096 0aed 50       		.byte	0x50
 4097 0aee 02       		.uleb128 0x2
 4098 0aef 75       		.byte	0x75
 4099 0af0 00       		.sleb128 0
 4100 0af1 1B       		.uleb128 0x1b
 4101 0af2 01       		.uleb128 0x1
 4102 0af3 51       		.byte	0x51
 4103 0af4 01       		.uleb128 0x1
 4104 0af5 3C       		.byte	0x3c
 4105 0af6 00       		.byte	0
 4106 0af7 1A       		.uleb128 0x1a
 4107 0af8 90000000 		.4byte	.LVL40
 4108 0afc 3A080000 		.4byte	0x83a
 4109 0b00 100B0000 		.4byte	0xb10
 4110 0b04 1B       		.uleb128 0x1b
 4111 0b05 01       		.uleb128 0x1
 4112 0b06 50       		.byte	0x50
 4113 0b07 02       		.uleb128 0x2
 4114 0b08 75       		.byte	0x75
 4115 0b09 00       		.sleb128 0
 4116 0b0a 1B       		.uleb128 0x1b
 4117 0b0b 01       		.uleb128 0x1
 4118 0b0c 51       		.byte	0x51
 4119 0b0d 01       		.uleb128 0x1
 4120 0b0e 3D       		.byte	0x3d
 4121 0b0f 00       		.byte	0
 4122 0b10 1A       		.uleb128 0x1a
 4123 0b11 9A000000 		.4byte	.LVL41
 4124 0b15 3A080000 		.4byte	0x83a
ARM GAS  C:\Users\brian\AppData\Local\Temp\ccTYhJxe.s 			page 103


 4125 0b19 290B0000 		.4byte	0xb29
 4126 0b1d 1B       		.uleb128 0x1b
 4127 0b1e 01       		.uleb128 0x1
 4128 0b1f 50       		.byte	0x50
 4129 0b20 02       		.uleb128 0x2
 4130 0b21 75       		.byte	0x75
 4131 0b22 00       		.sleb128 0
 4132 0b23 1B       		.uleb128 0x1b
 4133 0b24 01       		.uleb128 0x1
 4134 0b25 51       		.byte	0x51
 4135 0b26 01       		.uleb128 0x1
 4136 0b27 3E       		.byte	0x3e
 4137 0b28 00       		.byte	0
 4138 0b29 1A       		.uleb128 0x1a
 4139 0b2a A4000000 		.4byte	.LVL42
 4140 0b2e 3A080000 		.4byte	0x83a
 4141 0b32 420B0000 		.4byte	0xb42
 4142 0b36 1B       		.uleb128 0x1b
 4143 0b37 01       		.uleb128 0x1
 4144 0b38 50       		.byte	0x50
 4145 0b39 02       		.uleb128 0x2
 4146 0b3a 75       		.byte	0x75
 4147 0b3b 00       		.sleb128 0
 4148 0b3c 1B       		.uleb128 0x1b
 4149 0b3d 01       		.uleb128 0x1
 4150 0b3e 51       		.byte	0x51
 4151 0b3f 01       		.uleb128 0x1
 4152 0b40 3F       		.byte	0x3f
 4153 0b41 00       		.byte	0
 4154 0b42 1A       		.uleb128 0x1a
 4155 0b43 AE000000 		.4byte	.LVL43
 4156 0b47 3A080000 		.4byte	0x83a
 4157 0b4b 5B0B0000 		.4byte	0xb5b
 4158 0b4f 1B       		.uleb128 0x1b
 4159 0b50 01       		.uleb128 0x1
 4160 0b51 50       		.byte	0x50
 4161 0b52 02       		.uleb128 0x2
 4162 0b53 75       		.byte	0x75
 4163 0b54 00       		.sleb128 0
 4164 0b55 1B       		.uleb128 0x1b
 4165 0b56 01       		.uleb128 0x1
 4166 0b57 51       		.byte	0x51
 4167 0b58 01       		.uleb128 0x1
 4168 0b59 40       		.byte	0x40
 4169 0b5a 00       		.byte	0
 4170 0b5b 1A       		.uleb128 0x1a
 4171 0b5c B8000000 		.4byte	.LVL44
 4172 0b60 70080000 		.4byte	0x870
 4173 0b64 740B0000 		.4byte	0xb74
 4174 0b68 1B       		.uleb128 0x1b
 4175 0b69 01       		.uleb128 0x1
 4176 0b6a 50       		.byte	0x50
 4177 0b6b 02       		.uleb128 0x2
 4178 0b6c 75       		.byte	0x75
 4179 0b6d 00       		.sleb128 0
 4180 0b6e 1B       		.uleb128 0x1b
 4181 0b6f 01       		.uleb128 0x1
ARM GAS  C:\Users\brian\AppData\Local\Temp\ccTYhJxe.s 			page 104


 4182 0b70 51       		.byte	0x51
 4183 0b71 01       		.uleb128 0x1
 4184 0b72 41       		.byte	0x41
 4185 0b73 00       		.byte	0
 4186 0b74 1A       		.uleb128 0x1a
 4187 0b75 C2000000 		.4byte	.LVL45
 4188 0b79 70080000 		.4byte	0x870
 4189 0b7d 8D0B0000 		.4byte	0xb8d
 4190 0b81 1B       		.uleb128 0x1b
 4191 0b82 01       		.uleb128 0x1
 4192 0b83 50       		.byte	0x50
 4193 0b84 02       		.uleb128 0x2
 4194 0b85 75       		.byte	0x75
 4195 0b86 00       		.sleb128 0
 4196 0b87 1B       		.uleb128 0x1b
 4197 0b88 01       		.uleb128 0x1
 4198 0b89 51       		.byte	0x51
 4199 0b8a 01       		.uleb128 0x1
 4200 0b8b 43       		.byte	0x43
 4201 0b8c 00       		.byte	0
 4202 0b8d 1C       		.uleb128 0x1c
 4203 0b8e CC000000 		.4byte	.LVL46
 4204 0b92 70080000 		.4byte	0x870
 4205 0b96 1B       		.uleb128 0x1b
 4206 0b97 01       		.uleb128 0x1
 4207 0b98 50       		.byte	0x50
 4208 0b99 02       		.uleb128 0x2
 4209 0b9a 75       		.byte	0x75
 4210 0b9b 00       		.sleb128 0
 4211 0b9c 1B       		.uleb128 0x1b
 4212 0b9d 01       		.uleb128 0x1
 4213 0b9e 51       		.byte	0x51
 4214 0b9f 01       		.uleb128 0x1
 4215 0ba0 45       		.byte	0x45
 4216 0ba1 00       		.byte	0
 4217 0ba2 00       		.byte	0
 4218 0ba3 0A       		.uleb128 0xa
 4219 0ba4 04       		.byte	0x4
 4220 0ba5 DD060000 		.4byte	0x6dd
 4221 0ba9 1D       		.uleb128 0x1d
 4222 0baa CD080000 		.4byte	.LASF155
 4223 0bae 01       		.byte	0x1
 4224 0baf AA       		.byte	0xaa
 4225 0bb0 C5000000 		.4byte	0xc5
 4226 0bb4 00000000 		.4byte	.LFB3
 4227 0bb8 30000000 		.4byte	.LFE3-.LFB3
 4228 0bbc 01       		.uleb128 0x1
 4229 0bbd 9C       		.byte	0x9c
 4230 0bbe 030C0000 		.4byte	0xc03
 4231 0bc2 12       		.uleb128 0x12
 4232 0bc3 B50C0000 		.4byte	.LASF156
 4233 0bc7 01       		.byte	0x1
 4234 0bc8 AA       		.byte	0xaa
 4235 0bc9 58030000 		.4byte	0x358
 4236 0bcd DD010000 		.4byte	.LLST10
 4237 0bd1 14       		.uleb128 0x14
 4238 0bd2 6500     		.ascii	"e\000"
ARM GAS  C:\Users\brian\AppData\Local\Temp\ccTYhJxe.s 			page 105


 4239 0bd4 01       		.byte	0x1
 4240 0bd5 AC       		.byte	0xac
 4241 0bd6 AD000000 		.4byte	0xad
 4242 0bda FB010000 		.4byte	.LLST11
 4243 0bde 1E       		.uleb128 0x1e
 4244 0bdf 8A0C0000 		.4byte	.LASF27
 4245 0be3 01       		.byte	0x1
 4246 0be4 AD       		.byte	0xad
 4247 0be5 58030000 		.4byte	0x358
 4248 0be9 52020000 		.4byte	.LLST12
 4249 0bed 1C       		.uleb128 0x1c
 4250 0bee 18000000 		.4byte	.LVL52
 4251 0bf2 70080000 		.4byte	0x870
 4252 0bf6 1B       		.uleb128 0x1b
 4253 0bf7 01       		.uleb128 0x1
 4254 0bf8 50       		.byte	0x50
 4255 0bf9 02       		.uleb128 0x2
 4256 0bfa 74       		.byte	0x74
 4257 0bfb 00       		.sleb128 0
 4258 0bfc 1B       		.uleb128 0x1b
 4259 0bfd 01       		.uleb128 0x1
 4260 0bfe 51       		.byte	0x51
 4261 0bff 01       		.uleb128 0x1
 4262 0c00 30       		.byte	0x30
 4263 0c01 00       		.byte	0
 4264 0c02 00       		.byte	0
 4265 0c03 1D       		.uleb128 0x1d
 4266 0c04 76050000 		.4byte	.LASF157
 4267 0c08 01       		.byte	0x1
 4268 0c09 CD       		.byte	0xcd
 4269 0c0a A2000000 		.4byte	0xa2
 4270 0c0e 00000000 		.4byte	.LFB4
 4271 0c12 06000000 		.4byte	.LFE4-.LFB4
 4272 0c16 01       		.uleb128 0x1
 4273 0c17 9C       		.byte	0x9c
 4274 0c18 2C0C0000 		.4byte	0xc2c
 4275 0c1c 12       		.uleb128 0x12
 4276 0c1d 3A050000 		.4byte	.LASF150
 4277 0c21 01       		.byte	0x1
 4278 0c22 CD       		.byte	0xcd
 4279 0c23 8F050000 		.4byte	0x58f
 4280 0c27 7B020000 		.4byte	.LLST13
 4281 0c2b 00       		.byte	0
 4282 0c2c 1D       		.uleb128 0x1d
 4283 0c2d 8B080000 		.4byte	.LASF158
 4284 0c31 01       		.byte	0x1
 4285 0c32 D2       		.byte	0xd2
 4286 0c33 A2000000 		.4byte	0xa2
 4287 0c37 00000000 		.4byte	.LFB5
 4288 0c3b 06000000 		.4byte	.LFE5-.LFB5
 4289 0c3f 01       		.uleb128 0x1
 4290 0c40 9C       		.byte	0x9c
 4291 0c41 550C0000 		.4byte	0xc55
 4292 0c45 12       		.uleb128 0x12
 4293 0c46 3A050000 		.4byte	.LASF150
 4294 0c4a 01       		.byte	0x1
 4295 0c4b D2       		.byte	0xd2
ARM GAS  C:\Users\brian\AppData\Local\Temp\ccTYhJxe.s 			page 106


 4296 0c4c 8F050000 		.4byte	0x58f
 4297 0c50 9C020000 		.4byte	.LLST14
 4298 0c54 00       		.byte	0
 4299 0c55 1D       		.uleb128 0x1d
 4300 0c56 8F0C0000 		.4byte	.LASF159
 4301 0c5a 01       		.byte	0x1
 4302 0c5b D8       		.byte	0xd8
 4303 0c5c 97000000 		.4byte	0x97
 4304 0c60 00000000 		.4byte	.LFB6
 4305 0c64 06000000 		.4byte	.LFE6-.LFB6
 4306 0c68 01       		.uleb128 0x1
 4307 0c69 9C       		.byte	0x9c
 4308 0c6a 7E0C0000 		.4byte	0xc7e
 4309 0c6e 12       		.uleb128 0x12
 4310 0c6f 3A050000 		.4byte	.LASF150
 4311 0c73 01       		.byte	0x1
 4312 0c74 D8       		.byte	0xd8
 4313 0c75 8F050000 		.4byte	0x58f
 4314 0c79 BD020000 		.4byte	.LLST15
 4315 0c7d 00       		.byte	0
 4316 0c7e 1D       		.uleb128 0x1d
 4317 0c7f 17000000 		.4byte	.LASF160
 4318 0c83 01       		.byte	0x1
 4319 0c84 DE       		.byte	0xde
 4320 0c85 97000000 		.4byte	0x97
 4321 0c89 00000000 		.4byte	.LFB7
 4322 0c8d 06000000 		.4byte	.LFE7-.LFB7
 4323 0c91 01       		.uleb128 0x1
 4324 0c92 9C       		.byte	0x9c
 4325 0c93 A70C0000 		.4byte	0xca7
 4326 0c97 12       		.uleb128 0x12
 4327 0c98 3A050000 		.4byte	.LASF150
 4328 0c9c 01       		.byte	0x1
 4329 0c9d DE       		.byte	0xde
 4330 0c9e 8F050000 		.4byte	0x58f
 4331 0ca2 DE020000 		.4byte	.LLST16
 4332 0ca6 00       		.byte	0
 4333 0ca7 1D       		.uleb128 0x1d
 4334 0ca8 A80B0000 		.4byte	.LASF161
 4335 0cac 01       		.byte	0x1
 4336 0cad E4       		.byte	0xe4
 4337 0cae A2000000 		.4byte	0xa2
 4338 0cb2 00000000 		.4byte	.LFB8
 4339 0cb6 06000000 		.4byte	.LFE8-.LFB8
 4340 0cba 01       		.uleb128 0x1
 4341 0cbb 9C       		.byte	0x9c
 4342 0cbc D00C0000 		.4byte	0xcd0
 4343 0cc0 12       		.uleb128 0x12
 4344 0cc1 3A050000 		.4byte	.LASF150
 4345 0cc5 01       		.byte	0x1
 4346 0cc6 E4       		.byte	0xe4
 4347 0cc7 8F050000 		.4byte	0x58f
 4348 0ccb FF020000 		.4byte	.LLST17
 4349 0ccf 00       		.byte	0
 4350 0cd0 1D       		.uleb128 0x1d
 4351 0cd1 EF030000 		.4byte	.LASF162
 4352 0cd5 01       		.byte	0x1
ARM GAS  C:\Users\brian\AppData\Local\Temp\ccTYhJxe.s 			page 107


 4353 0cd6 ED       		.byte	0xed
 4354 0cd7 A2000000 		.4byte	0xa2
 4355 0cdb 00000000 		.4byte	.LFB9
 4356 0cdf 3E000000 		.4byte	.LFE9-.LFB9
 4357 0ce3 01       		.uleb128 0x1
 4358 0ce4 9C       		.byte	0x9c
 4359 0ce5 4A0D0000 		.4byte	0xd4a
 4360 0ce9 1F       		.uleb128 0x1f
 4361 0cea 6600     		.ascii	"f\000"
 4362 0cec 01       		.byte	0x1
 4363 0ced ED       		.byte	0xed
 4364 0cee 4A0D0000 		.4byte	0xd4a
 4365 0cf2 20030000 		.4byte	.LLST18
 4366 0cf6 1F       		.uleb128 0x1f
 4367 0cf7 636E7400 		.ascii	"cnt\000"
 4368 0cfb 01       		.byte	0x1
 4369 0cfc ED       		.byte	0xed
 4370 0cfd A2000000 		.4byte	0xa2
 4371 0d01 41030000 		.4byte	.LLST19
 4372 0d05 14       		.uleb128 0x14
 4373 0d06 76616C00 		.ascii	"val\000"
 4374 0d0a 01       		.byte	0x1
 4375 0d0b EF       		.byte	0xef
 4376 0d0c A2000000 		.4byte	0xa2
 4377 0d10 62030000 		.4byte	.LLST20
 4378 0d14 1E       		.uleb128 0x1e
 4379 0d15 18080000 		.4byte	.LASF163
 4380 0d19 01       		.byte	0x1
 4381 0d1a F0       		.byte	0xf0
 4382 0d1b A2000000 		.4byte	0xa2
 4383 0d1f B2030000 		.4byte	.LLST21
 4384 0d23 1E       		.uleb128 0x1e
 4385 0d24 3C070000 		.4byte	.LASF164
 4386 0d28 01       		.byte	0x1
 4387 0d29 F1       		.byte	0xf1
 4388 0d2a A2000000 		.4byte	0xa2
 4389 0d2e D1030000 		.4byte	.LLST22
 4390 0d32 20       		.uleb128 0x20
 4391 0d33 14000000 		.4byte	.LBB2
 4392 0d37 18000000 		.4byte	.LBE2-.LBB2
 4393 0d3b 14       		.uleb128 0x14
 4394 0d3c 7300     		.ascii	"s\000"
 4395 0d3e 01       		.byte	0x1
 4396 0d3f FB       		.byte	0xfb
 4397 0d40 A2000000 		.4byte	0xa2
 4398 0d44 07040000 		.4byte	.LLST23
 4399 0d48 00       		.byte	0
 4400 0d49 00       		.byte	0
 4401 0d4a 0A       		.uleb128 0xa
 4402 0d4b 04       		.byte	0x4
 4403 0d4c 8F070000 		.4byte	0x78f
 4404 0d50 21       		.uleb128 0x21
 4405 0d51 00000000 		.4byte	.LASF180
 4406 0d55 01       		.byte	0x1
 4407 0d56 E501     		.2byte	0x1e5
 4408 0d58 00000000 		.4byte	.LFB14
 4409 0d5c 40000000 		.4byte	.LFE14-.LFB14
ARM GAS  C:\Users\brian\AppData\Local\Temp\ccTYhJxe.s 			page 108


 4410 0d60 01       		.uleb128 0x1
 4411 0d61 9C       		.byte	0x9c
 4412 0d62 B90D0000 		.4byte	0xdb9
 4413 0d66 16       		.uleb128 0x16
 4414 0d67 3A050000 		.4byte	.LASF150
 4415 0d6b 01       		.byte	0x1
 4416 0d6c E501     		.2byte	0x1e5
 4417 0d6e 8F050000 		.4byte	0x58f
 4418 0d72 3A040000 		.4byte	.LLST24
 4419 0d76 16       		.uleb128 0x16
 4420 0d77 760D0000 		.4byte	.LASF165
 4421 0d7b 01       		.byte	0x1
 4422 0d7c E501     		.2byte	0x1e5
 4423 0d7e 58030000 		.4byte	0x358
 4424 0d82 58040000 		.4byte	.LLST25
 4425 0d86 22       		.uleb128 0x22
 4426 0d87 E2060000 		.4byte	.LASF166
 4427 0d8b 01       		.byte	0x1
 4428 0d8c E701     		.2byte	0x1e7
 4429 0d8e 4A0D0000 		.4byte	0xd4a
 4430 0d92 01       		.uleb128 0x1
 4431 0d93 55       		.byte	0x55
 4432 0d94 1A       		.uleb128 0x1a
 4433 0d95 1A000000 		.4byte	.LVL94
 4434 0d99 D00C0000 		.4byte	0xcd0
 4435 0d9d A80D0000 		.4byte	0xda8
 4436 0da1 1B       		.uleb128 0x1b
 4437 0da2 01       		.uleb128 0x1
 4438 0da3 50       		.byte	0x50
 4439 0da4 02       		.uleb128 0x2
 4440 0da5 75       		.byte	0x75
 4441 0da6 00       		.sleb128 0
 4442 0da7 00       		.byte	0
 4443 0da8 1C       		.uleb128 0x1c
 4444 0da9 28000000 		.4byte	.LVL95
 4445 0dad D00C0000 		.4byte	0xcd0
 4446 0db1 1B       		.uleb128 0x1b
 4447 0db2 01       		.uleb128 0x1
 4448 0db3 50       		.byte	0x50
 4449 0db4 02       		.uleb128 0x2
 4450 0db5 75       		.byte	0x75
 4451 0db6 00       		.sleb128 0
 4452 0db7 00       		.byte	0
 4453 0db8 00       		.byte	0
 4454 0db9 15       		.uleb128 0x15
 4455 0dba DC090000 		.4byte	.LASF167
 4456 0dbe 01       		.byte	0x1
 4457 0dbf 1A01     		.2byte	0x11a
 4458 0dc1 97000000 		.4byte	0x97
 4459 0dc5 00000000 		.4byte	.LFB10
 4460 0dc9 16000000 		.4byte	.LFE10-.LFB10
 4461 0dcd 01       		.uleb128 0x1
 4462 0dce 9C       		.byte	0x9c
 4463 0dcf 230E0000 		.4byte	0xe23
 4464 0dd3 23       		.uleb128 0x23
 4465 0dd4 6600     		.ascii	"f\000"
 4466 0dd6 01       		.byte	0x1
ARM GAS  C:\Users\brian\AppData\Local\Temp\ccTYhJxe.s 			page 109


 4467 0dd7 1A01     		.2byte	0x11a
 4468 0dd9 4A0D0000 		.4byte	0xd4a
 4469 0ddd 85040000 		.4byte	.LLST26
 4470 0de1 23       		.uleb128 0x23
 4471 0de2 636E7400 		.ascii	"cnt\000"
 4472 0de6 01       		.byte	0x1
 4473 0de7 1A01     		.2byte	0x11a
 4474 0de9 A2000000 		.4byte	0xa2
 4475 0ded A6040000 		.4byte	.LLST27
 4476 0df1 17       		.uleb128 0x17
 4477 0df2 7600     		.ascii	"v\000"
 4478 0df4 01       		.byte	0x1
 4479 0df5 1C01     		.2byte	0x11c
 4480 0df7 97000000 		.4byte	0x97
 4481 0dfb 01       		.uleb128 0x1
 4482 0dfc 50       		.byte	0x50
 4483 0dfd 18       		.uleb128 0x18
 4484 0dfe 6400     		.ascii	"d\000"
 4485 0e00 01       		.byte	0x1
 4486 0e01 1C01     		.2byte	0x11c
 4487 0e03 97000000 		.4byte	0x97
 4488 0e07 D2040000 		.4byte	.LLST28
 4489 0e0b 1C       		.uleb128 0x1c
 4490 0e0c 08000000 		.4byte	.LVL97
 4491 0e10 D00C0000 		.4byte	0xcd0
 4492 0e14 1B       		.uleb128 0x1b
 4493 0e15 01       		.uleb128 0x1
 4494 0e16 50       		.byte	0x50
 4495 0e17 03       		.uleb128 0x3
 4496 0e18 F3       		.byte	0xf3
 4497 0e19 01       		.uleb128 0x1
 4498 0e1a 50       		.byte	0x50
 4499 0e1b 1B       		.uleb128 0x1b
 4500 0e1c 01       		.uleb128 0x1
 4501 0e1d 51       		.byte	0x51
 4502 0e1e 02       		.uleb128 0x2
 4503 0e1f 74       		.byte	0x74
 4504 0e20 00       		.sleb128 0
 4505 0e21 00       		.byte	0
 4506 0e22 00       		.byte	0
 4507 0e23 15       		.uleb128 0x15
 4508 0e24 70070000 		.4byte	.LASF168
 4509 0e28 01       		.byte	0x1
 4510 0e29 2801     		.2byte	0x128
 4511 0e2b 63030000 		.4byte	0x363
 4512 0e2f 00000000 		.4byte	.LFB11
 4513 0e33 24000000 		.4byte	.LFE11-.LFB11
 4514 0e37 01       		.uleb128 0x1
 4515 0e38 9C       		.byte	0x9c
 4516 0e39 730E0000 		.4byte	0xe73
 4517 0e3d 23       		.uleb128 0x23
 4518 0e3e 647900   		.ascii	"dy\000"
 4519 0e41 01       		.byte	0x1
 4520 0e42 2801     		.2byte	0x128
 4521 0e44 63030000 		.4byte	0x363
 4522 0e48 F1040000 		.4byte	.LLST29
 4523 0e4c 24       		.uleb128 0x24
ARM GAS  C:\Users\brian\AppData\Local\Temp\ccTYhJxe.s 			page 110


 4524 0e4d 7800     		.ascii	"x\000"
 4525 0e4f 01       		.byte	0x1
 4526 0e50 2801     		.2byte	0x128
 4527 0e52 97000000 		.4byte	0x97
 4528 0e56 01       		.uleb128 0x1
 4529 0e57 51       		.byte	0x51
 4530 0e58 24       		.uleb128 0x24
 4531 0e59 7900     		.ascii	"y\000"
 4532 0e5b 01       		.byte	0x1
 4533 0e5c 2801     		.2byte	0x128
 4534 0e5e 97000000 		.4byte	0x97
 4535 0e62 01       		.uleb128 0x1
 4536 0e63 52       		.byte	0x52
 4537 0e64 24       		.uleb128 0x24
 4538 0e65 64697200 		.ascii	"dir\000"
 4539 0e69 01       		.byte	0x1
 4540 0e6a 2801     		.2byte	0x128
 4541 0e6c A2000000 		.4byte	0xa2
 4542 0e70 01       		.uleb128 0x1
 4543 0e71 53       		.byte	0x53
 4544 0e72 00       		.byte	0
 4545 0e73 15       		.uleb128 0x15
 4546 0e74 490D0000 		.4byte	.LASF169
 4547 0e78 01       		.byte	0x1
 4548 0e79 3C01     		.2byte	0x13c
 4549 0e7b 63030000 		.4byte	0x363
 4550 0e7f 00000000 		.4byte	.LFB12
 4551 0e83 24000000 		.4byte	.LFE12-.LFB12
 4552 0e87 01       		.uleb128 0x1
 4553 0e88 9C       		.byte	0x9c
 4554 0e89 C30E0000 		.4byte	0xec3
 4555 0e8d 23       		.uleb128 0x23
 4556 0e8e 647800   		.ascii	"dx\000"
 4557 0e91 01       		.byte	0x1
 4558 0e92 3C01     		.2byte	0x13c
 4559 0e94 63030000 		.4byte	0x363
 4560 0e98 68050000 		.4byte	.LLST30
 4561 0e9c 24       		.uleb128 0x24
 4562 0e9d 7800     		.ascii	"x\000"
 4563 0e9f 01       		.byte	0x1
 4564 0ea0 3C01     		.2byte	0x13c
 4565 0ea2 97000000 		.4byte	0x97
 4566 0ea6 01       		.uleb128 0x1
 4567 0ea7 51       		.byte	0x51
 4568 0ea8 24       		.uleb128 0x24
 4569 0ea9 7900     		.ascii	"y\000"
 4570 0eab 01       		.byte	0x1
 4571 0eac 3C01     		.2byte	0x13c
 4572 0eae 97000000 		.4byte	0x97
 4573 0eb2 01       		.uleb128 0x1
 4574 0eb3 52       		.byte	0x52
 4575 0eb4 24       		.uleb128 0x24
 4576 0eb5 64697200 		.ascii	"dir\000"
 4577 0eb9 01       		.byte	0x1
 4578 0eba 3C01     		.2byte	0x13c
 4579 0ebc A2000000 		.4byte	0xa2
 4580 0ec0 01       		.uleb128 0x1
ARM GAS  C:\Users\brian\AppData\Local\Temp\ccTYhJxe.s 			page 111


 4581 0ec1 53       		.byte	0x53
 4582 0ec2 00       		.byte	0
 4583 0ec3 25       		.uleb128 0x25
 4584 0ec4 F00B0000 		.4byte	.LASF171
 4585 0ec8 01       		.byte	0x1
 4586 0ec9 8301     		.2byte	0x183
 4587 0ecb 00000000 		.4byte	.LFB13
 4588 0ecf B6000000 		.4byte	.LFE13-.LFB13
 4589 0ed3 01       		.uleb128 0x1
 4590 0ed4 9C       		.byte	0x9c
 4591 0ed5 20100000 		.4byte	0x1020
 4592 0ed9 16       		.uleb128 0x16
 4593 0eda 3A050000 		.4byte	.LASF150
 4594 0ede 01       		.byte	0x1
 4595 0edf 8301     		.2byte	0x183
 4596 0ee1 8F050000 		.4byte	0x58f
 4597 0ee5 DF050000 		.4byte	.LLST31
 4598 0ee9 23       		.uleb128 0x23
 4599 0eea 6C656E00 		.ascii	"len\000"
 4600 0eee 01       		.byte	0x1
 4601 0eef 8301     		.2byte	0x183
 4602 0ef1 A2000000 		.4byte	0xa2
 4603 0ef5 FD050000 		.4byte	.LLST32
 4604 0ef9 16       		.uleb128 0x16
 4605 0efa 100A0000 		.4byte	.LASF172
 4606 0efe 01       		.byte	0x1
 4607 0eff 8301     		.2byte	0x183
 4608 0f01 A2000000 		.4byte	0xa2
 4609 0f05 1E060000 		.4byte	.LLST33
 4610 0f09 18       		.uleb128 0x18
 4611 0f0a 636E7400 		.ascii	"cnt\000"
 4612 0f0e 01       		.byte	0x1
 4613 0f0f 8501     		.2byte	0x185
 4614 0f11 A2000000 		.4byte	0xa2
 4615 0f15 3F060000 		.4byte	.LLST34
 4616 0f19 18       		.uleb128 0x18
 4617 0f1a 72656D00 		.ascii	"rem\000"
 4618 0f1e 01       		.byte	0x1
 4619 0f1f 8601     		.2byte	0x186
 4620 0f21 A2000000 		.4byte	0xa2
 4621 0f25 5D060000 		.4byte	.LLST35
 4622 0f29 26       		.uleb128 0x26
 4623 0f2a 8B070000 		.4byte	.LASF173
 4624 0f2e 01       		.byte	0x1
 4625 0f2f 8701     		.2byte	0x187
 4626 0f31 A2000000 		.4byte	0xa2
 4627 0f35 88060000 		.4byte	.LLST36
 4628 0f39 18       		.uleb128 0x18
 4629 0f3a 6C7800   		.ascii	"lx\000"
 4630 0f3d 01       		.byte	0x1
 4631 0f3e 8B01     		.2byte	0x18b
 4632 0f40 A2000000 		.4byte	0xa2
 4633 0f44 A7060000 		.4byte	.LLST37
 4634 0f48 18       		.uleb128 0x18
 4635 0f49 6C7900   		.ascii	"ly\000"
 4636 0f4c 01       		.byte	0x1
 4637 0f4d 8B01     		.2byte	0x18b
ARM GAS  C:\Users\brian\AppData\Local\Temp\ccTYhJxe.s 			page 112


 4638 0f4f A2000000 		.4byte	0xa2
 4639 0f53 DC060000 		.4byte	.LLST38
 4640 0f57 18       		.uleb128 0x18
 4641 0f58 7800     		.ascii	"x\000"
 4642 0f5a 01       		.byte	0x1
 4643 0f5b 8E01     		.2byte	0x18e
 4644 0f5d 63030000 		.4byte	0x363
 4645 0f61 05070000 		.4byte	.LLST39
 4646 0f65 18       		.uleb128 0x18
 4647 0f66 7900     		.ascii	"y\000"
 4648 0f68 01       		.byte	0x1
 4649 0f69 8E01     		.2byte	0x18e
 4650 0f6b 63030000 		.4byte	0x363
 4651 0f6f 26070000 		.4byte	.LLST40
 4652 0f73 26       		.uleb128 0x26
 4653 0f74 E2060000 		.4byte	.LASF166
 4654 0f78 01       		.byte	0x1
 4655 0f79 9001     		.2byte	0x190
 4656 0f7b 4A0D0000 		.4byte	0xd4a
 4657 0f7f 4F070000 		.4byte	.LLST41
 4658 0f83 1A       		.uleb128 0x1a
 4659 0f84 46000000 		.4byte	.LVL128
 4660 0f88 730E0000 		.4byte	0xe73
 4661 0f8c A50F0000 		.4byte	0xfa5
 4662 0f90 1B       		.uleb128 0x1b
 4663 0f91 01       		.uleb128 0x1
 4664 0f92 51       		.byte	0x51
 4665 0f93 04       		.uleb128 0x4
 4666 0f94 91       		.byte	0x91
 4667 0f95 48       		.sleb128 -56
 4668 0f96 94       		.byte	0x94
 4669 0f97 01       		.byte	0x1
 4670 0f98 1B       		.uleb128 0x1b
 4671 0f99 01       		.uleb128 0x1
 4672 0f9a 52       		.byte	0x52
 4673 0f9b 02       		.uleb128 0x2
 4674 0f9c 7B       		.byte	0x7b
 4675 0f9d 00       		.sleb128 0
 4676 0f9e 1B       		.uleb128 0x1b
 4677 0f9f 01       		.uleb128 0x1
 4678 0fa0 53       		.byte	0x53
 4679 0fa1 02       		.uleb128 0x2
 4680 0fa2 77       		.byte	0x77
 4681 0fa3 00       		.sleb128 0
 4682 0fa4 00       		.byte	0
 4683 0fa5 1A       		.uleb128 0x1a
 4684 0fa6 54000000 		.4byte	.LVL130
 4685 0faa 230E0000 		.4byte	0xe23
 4686 0fae CD0F0000 		.4byte	0xfcd
 4687 0fb2 1B       		.uleb128 0x1b
 4688 0fb3 01       		.uleb128 0x1
 4689 0fb4 50       		.byte	0x50
 4690 0fb5 02       		.uleb128 0x2
 4691 0fb6 79       		.byte	0x79
 4692 0fb7 00       		.sleb128 0
 4693 0fb8 1B       		.uleb128 0x1b
 4694 0fb9 01       		.uleb128 0x1
ARM GAS  C:\Users\brian\AppData\Local\Temp\ccTYhJxe.s 			page 113


 4695 0fba 51       		.byte	0x51
 4696 0fbb 04       		.uleb128 0x4
 4697 0fbc 91       		.byte	0x91
 4698 0fbd 48       		.sleb128 -56
 4699 0fbe 94       		.byte	0x94
 4700 0fbf 01       		.byte	0x1
 4701 0fc0 1B       		.uleb128 0x1b
 4702 0fc1 01       		.uleb128 0x1
 4703 0fc2 52       		.byte	0x52
 4704 0fc3 02       		.uleb128 0x2
 4705 0fc4 7B       		.byte	0x7b
 4706 0fc5 00       		.sleb128 0
 4707 0fc6 1B       		.uleb128 0x1b
 4708 0fc7 01       		.uleb128 0x1
 4709 0fc8 53       		.byte	0x53
 4710 0fc9 02       		.uleb128 0x2
 4711 0fca 77       		.byte	0x77
 4712 0fcb 00       		.sleb128 0
 4713 0fcc 00       		.byte	0
 4714 0fcd 1A       		.uleb128 0x1a
 4715 0fce 70000000 		.4byte	.LVL132
 4716 0fd2 5A1F0000 		.4byte	0x1f5a
 4717 0fd6 F80F0000 		.4byte	0xff8
 4718 0fda 1B       		.uleb128 0x1b
 4719 0fdb 01       		.uleb128 0x1
 4720 0fdc 50       		.byte	0x50
 4721 0fdd 02       		.uleb128 0x2
 4722 0fde 76       		.byte	0x76
 4723 0fdf 00       		.sleb128 0
 4724 0fe0 1B       		.uleb128 0x1b
 4725 0fe1 01       		.uleb128 0x1
 4726 0fe2 51       		.byte	0x51
 4727 0fe3 04       		.uleb128 0x4
 4728 0fe4 91       		.byte	0x91
 4729 0fe5 50       		.sleb128 -48
 4730 0fe6 94       		.byte	0x94
 4731 0fe7 02       		.byte	0x2
 4732 0fe8 1B       		.uleb128 0x1b
 4733 0fe9 01       		.uleb128 0x1
 4734 0fea 53       		.byte	0x53
 4735 0feb 04       		.uleb128 0x4
 4736 0fec 91       		.byte	0x91
 4737 0fed 4C       		.sleb128 -52
 4738 0fee 94       		.byte	0x94
 4739 0fef 02       		.byte	0x2
 4740 0ff0 1B       		.uleb128 0x1b
 4741 0ff1 02       		.uleb128 0x2
 4742 0ff2 7D       		.byte	0x7d
 4743 0ff3 00       		.sleb128 0
 4744 0ff4 02       		.uleb128 0x2
 4745 0ff5 77       		.byte	0x77
 4746 0ff6 00       		.sleb128 0
 4747 0ff7 00       		.byte	0
 4748 0ff8 1C       		.uleb128 0x1c
 4749 0ff9 90000000 		.4byte	.LVL135
 4750 0ffd 5A1F0000 		.4byte	0x1f5a
 4751 1001 1B       		.uleb128 0x1b
ARM GAS  C:\Users\brian\AppData\Local\Temp\ccTYhJxe.s 			page 114


 4752 1002 01       		.uleb128 0x1
 4753 1003 50       		.byte	0x50
 4754 1004 02       		.uleb128 0x2
 4755 1005 76       		.byte	0x76
 4756 1006 00       		.sleb128 0
 4757 1007 1B       		.uleb128 0x1b
 4758 1008 01       		.uleb128 0x1
 4759 1009 51       		.byte	0x51
 4760 100a 04       		.uleb128 0x4
 4761 100b 91       		.byte	0x91
 4762 100c 50       		.sleb128 -48
 4763 100d 94       		.byte	0x94
 4764 100e 02       		.byte	0x2
 4765 100f 1B       		.uleb128 0x1b
 4766 1010 01       		.uleb128 0x1
 4767 1011 53       		.byte	0x53
 4768 1012 04       		.uleb128 0x4
 4769 1013 91       		.byte	0x91
 4770 1014 4C       		.sleb128 -52
 4771 1015 94       		.byte	0x94
 4772 1016 02       		.byte	0x2
 4773 1017 1B       		.uleb128 0x1b
 4774 1018 02       		.uleb128 0x2
 4775 1019 7D       		.byte	0x7d
 4776 101a 00       		.sleb128 0
 4777 101b 02       		.uleb128 0x2
 4778 101c 77       		.byte	0x77
 4779 101d 00       		.sleb128 0
 4780 101e 00       		.byte	0
 4781 101f 00       		.byte	0
 4782 1020 15       		.uleb128 0x15
 4783 1021 A30A0000 		.4byte	.LASF174
 4784 1025 01       		.byte	0x1
 4785 1026 0702     		.2byte	0x207
 4786 1028 97000000 		.4byte	0x97
 4787 102c 00000000 		.4byte	.LFB15
 4788 1030 44010000 		.4byte	.LFE15-.LFB15
 4789 1034 01       		.uleb128 0x1
 4790 1035 9C       		.byte	0x9c
 4791 1036 2A120000 		.4byte	0x122a
 4792 103a 16       		.uleb128 0x16
 4793 103b 3A050000 		.4byte	.LASF150
 4794 103f 01       		.byte	0x1
 4795 1040 0702     		.2byte	0x207
 4796 1042 8F050000 		.4byte	0x58f
 4797 1046 73070000 		.4byte	.LLST42
 4798 104a 16       		.uleb128 0x16
 4799 104b 760D0000 		.4byte	.LASF165
 4800 104f 01       		.byte	0x1
 4801 1050 0702     		.2byte	0x207
 4802 1052 58030000 		.4byte	0x358
 4803 1056 91070000 		.4byte	.LLST43
 4804 105a 18       		.uleb128 0x18
 4805 105b 6100     		.ascii	"a\000"
 4806 105d 01       		.byte	0x1
 4807 105e 0902     		.2byte	0x209
 4808 1060 A2000000 		.4byte	0xa2
ARM GAS  C:\Users\brian\AppData\Local\Temp\ccTYhJxe.s 			page 115


 4809 1064 B2070000 		.4byte	.LLST44
 4810 1068 18       		.uleb128 0x18
 4811 1069 6200     		.ascii	"b\000"
 4812 106b 01       		.byte	0x1
 4813 106c 0902     		.2byte	0x209
 4814 106e A2000000 		.4byte	0xa2
 4815 1072 C5070000 		.4byte	.LLST45
 4816 1076 17       		.uleb128 0x17
 4817 1077 7800     		.ascii	"x\000"
 4818 1079 01       		.byte	0x1
 4819 107a 0A02     		.2byte	0x20a
 4820 107c 97000000 		.4byte	0x97
 4821 1080 01       		.uleb128 0x1
 4822 1081 5B       		.byte	0x5b
 4823 1082 18       		.uleb128 0x18
 4824 1083 7900     		.ascii	"y\000"
 4825 1085 01       		.byte	0x1
 4826 1086 0A02     		.2byte	0x20a
 4827 1088 97000000 		.4byte	0x97
 4828 108c D8070000 		.4byte	.LLST46
 4829 1090 17       		.uleb128 0x17
 4830 1091 6400     		.ascii	"d\000"
 4831 1093 01       		.byte	0x1
 4832 1094 0B02     		.2byte	0x20b
 4833 1096 97000000 		.4byte	0x97
 4834 109a 02       		.uleb128 0x2
 4835 109b 91       		.byte	0x91
 4836 109c 54       		.sleb128 -44
 4837 109d 17       		.uleb128 0x17
 4838 109e 6800     		.ascii	"h\000"
 4839 10a0 01       		.byte	0x1
 4840 10a1 0C02     		.2byte	0x20c
 4841 10a3 97000000 		.4byte	0x97
 4842 10a7 01       		.uleb128 0x1
 4843 10a8 56       		.byte	0x56
 4844 10a9 22       		.uleb128 0x22
 4845 10aa E2060000 		.4byte	.LASF166
 4846 10ae 01       		.byte	0x1
 4847 10af 0D02     		.2byte	0x20d
 4848 10b1 4A0D0000 		.4byte	0xd4a
 4849 10b5 01       		.uleb128 0x1
 4850 10b6 55       		.byte	0x55
 4851 10b7 27       		.uleb128 0x27
 4852 10b8 74000000 		.4byte	.LBB3
 4853 10bc 76000000 		.4byte	.LBE3-.LBB3
 4854 10c0 17110000 		.4byte	0x1117
 4855 10c4 18       		.uleb128 0x18
 4856 10c5 783000   		.ascii	"x0\000"
 4857 10c8 01       		.byte	0x1
 4858 10c9 2602     		.2byte	0x226
 4859 10cb 63030000 		.4byte	0x363
 4860 10cf EB070000 		.4byte	.LLST47
 4861 10d3 18       		.uleb128 0x18
 4862 10d4 783100   		.ascii	"x1\000"
 4863 10d7 01       		.byte	0x1
 4864 10d8 2602     		.2byte	0x226
 4865 10da 63030000 		.4byte	0x363
ARM GAS  C:\Users\brian\AppData\Local\Temp\ccTYhJxe.s 			page 116


 4866 10de 2A080000 		.4byte	.LLST48
 4867 10e2 18       		.uleb128 0x18
 4868 10e3 793000   		.ascii	"y0\000"
 4869 10e6 01       		.byte	0x1
 4870 10e7 2602     		.2byte	0x226
 4871 10e9 63030000 		.4byte	0x363
 4872 10ed A0080000 		.4byte	.LLST49
 4873 10f1 18       		.uleb128 0x18
 4874 10f2 793100   		.ascii	"y1\000"
 4875 10f5 01       		.byte	0x1
 4876 10f6 2602     		.2byte	0x226
 4877 10f8 63030000 		.4byte	0x363
 4878 10fc 1A090000 		.4byte	.LLST50
 4879 1100 1C       		.uleb128 0x1c
 4880 1101 E8000000 		.4byte	.LVL180
 4881 1105 661F0000 		.4byte	0x1f66
 4882 1109 1B       		.uleb128 0x1b
 4883 110a 01       		.uleb128 0x1
 4884 110b 50       		.byte	0x50
 4885 110c 02       		.uleb128 0x2
 4886 110d 74       		.byte	0x74
 4887 110e 00       		.sleb128 0
 4888 110f 1B       		.uleb128 0x1b
 4889 1110 01       		.uleb128 0x1
 4890 1111 51       		.byte	0x51
 4891 1112 02       		.uleb128 0x2
 4892 1113 7A       		.byte	0x7a
 4893 1114 00       		.sleb128 0
 4894 1115 00       		.byte	0
 4895 1116 00       		.byte	0
 4896 1117 1A       		.uleb128 0x1a
 4897 1118 10000000 		.4byte	.LVL144
 4898 111c 500D0000 		.4byte	0xd50
 4899 1120 32110000 		.4byte	0x1132
 4900 1124 1B       		.uleb128 0x1b
 4901 1125 01       		.uleb128 0x1
 4902 1126 50       		.byte	0x50
 4903 1127 02       		.uleb128 0x2
 4904 1128 74       		.byte	0x74
 4905 1129 00       		.sleb128 0
 4906 112a 1B       		.uleb128 0x1b
 4907 112b 01       		.uleb128 0x1
 4908 112c 51       		.byte	0x51
 4909 112d 03       		.uleb128 0x3
 4910 112e F3       		.byte	0xf3
 4911 112f 01       		.uleb128 0x1
 4912 1130 51       		.byte	0x51
 4913 1131 00       		.byte	0
 4914 1132 1A       		.uleb128 0x1a
 4915 1133 1E000000 		.4byte	.LVL146
 4916 1137 B90D0000 		.4byte	0xdb9
 4917 113b 46110000 		.4byte	0x1146
 4918 113f 1B       		.uleb128 0x1b
 4919 1140 01       		.uleb128 0x1
 4920 1141 50       		.byte	0x50
 4921 1142 02       		.uleb128 0x2
 4922 1143 75       		.byte	0x75
ARM GAS  C:\Users\brian\AppData\Local\Temp\ccTYhJxe.s 			page 117


 4923 1144 00       		.sleb128 0
 4924 1145 00       		.byte	0
 4925 1146 1A       		.uleb128 0x1a
 4926 1147 2A000000 		.4byte	.LVL148
 4927 114b B90D0000 		.4byte	0xdb9
 4928 114f 5A110000 		.4byte	0x115a
 4929 1153 1B       		.uleb128 0x1b
 4930 1154 01       		.uleb128 0x1
 4931 1155 50       		.byte	0x50
 4932 1156 02       		.uleb128 0x2
 4933 1157 75       		.byte	0x75
 4934 1158 00       		.sleb128 0
 4935 1159 00       		.byte	0
 4936 115a 1A       		.uleb128 0x1a
 4937 115b 36000000 		.4byte	.LVL150
 4938 115f B90D0000 		.4byte	0xdb9
 4939 1163 6E110000 		.4byte	0x116e
 4940 1167 1B       		.uleb128 0x1b
 4941 1168 01       		.uleb128 0x1
 4942 1169 50       		.byte	0x50
 4943 116a 02       		.uleb128 0x2
 4944 116b 75       		.byte	0x75
 4945 116c 00       		.sleb128 0
 4946 116d 00       		.byte	0
 4947 116e 1A       		.uleb128 0x1a
 4948 116f 5A000000 		.4byte	.LVL153
 4949 1173 730E0000 		.4byte	0xe73
 4950 1177 8E110000 		.4byte	0x118e
 4951 117b 1B       		.uleb128 0x1b
 4952 117c 01       		.uleb128 0x1
 4953 117d 51       		.byte	0x51
 4954 117e 02       		.uleb128 0x2
 4955 117f 7B       		.byte	0x7b
 4956 1180 00       		.sleb128 0
 4957 1181 1B       		.uleb128 0x1b
 4958 1182 01       		.uleb128 0x1
 4959 1183 52       		.byte	0x52
 4960 1184 02       		.uleb128 0x2
 4961 1185 77       		.byte	0x77
 4962 1186 00       		.sleb128 0
 4963 1187 1B       		.uleb128 0x1b
 4964 1188 01       		.uleb128 0x1
 4965 1189 53       		.byte	0x53
 4966 118a 02       		.uleb128 0x2
 4967 118b 78       		.byte	0x78
 4968 118c 00       		.sleb128 0
 4969 118d 00       		.byte	0
 4970 118e 1A       		.uleb128 0x1a
 4971 118f 6E000000 		.4byte	.LVL154
 4972 1193 230E0000 		.4byte	0xe23
 4973 1197 AE110000 		.4byte	0x11ae
 4974 119b 1B       		.uleb128 0x1b
 4975 119c 01       		.uleb128 0x1
 4976 119d 51       		.byte	0x51
 4977 119e 02       		.uleb128 0x2
 4978 119f 7B       		.byte	0x7b
 4979 11a0 00       		.sleb128 0
ARM GAS  C:\Users\brian\AppData\Local\Temp\ccTYhJxe.s 			page 118


 4980 11a1 1B       		.uleb128 0x1b
 4981 11a2 01       		.uleb128 0x1
 4982 11a3 52       		.byte	0x52
 4983 11a4 02       		.uleb128 0x2
 4984 11a5 77       		.byte	0x77
 4985 11a6 00       		.sleb128 0
 4986 11a7 1B       		.uleb128 0x1b
 4987 11a8 01       		.uleb128 0x1
 4988 11a9 53       		.byte	0x53
 4989 11aa 02       		.uleb128 0x2
 4990 11ab 78       		.byte	0x78
 4991 11ac 00       		.sleb128 0
 4992 11ad 00       		.byte	0
 4993 11ae 1A       		.uleb128 0x1a
 4994 11af FE000000 		.4byte	.LVL181
 4995 11b3 D00C0000 		.4byte	0xcd0
 4996 11b7 C2110000 		.4byte	0x11c2
 4997 11bb 1B       		.uleb128 0x1b
 4998 11bc 01       		.uleb128 0x1
 4999 11bd 50       		.byte	0x50
 5000 11be 02       		.uleb128 0x2
 5001 11bf 75       		.byte	0x75
 5002 11c0 00       		.sleb128 0
 5003 11c1 00       		.byte	0
 5004 11c2 1A       		.uleb128 0x1a
 5005 11c3 0A010000 		.4byte	.LVL183
 5006 11c7 D00C0000 		.4byte	0xcd0
 5007 11cb D6110000 		.4byte	0x11d6
 5008 11cf 1B       		.uleb128 0x1b
 5009 11d0 01       		.uleb128 0x1
 5010 11d1 50       		.byte	0x50
 5011 11d2 02       		.uleb128 0x2
 5012 11d3 75       		.byte	0x75
 5013 11d4 00       		.sleb128 0
 5014 11d5 00       		.byte	0
 5015 11d6 1A       		.uleb128 0x1a
 5016 11d7 16010000 		.4byte	.LVL185
 5017 11db C30E0000 		.4byte	0xec3
 5018 11df F5110000 		.4byte	0x11f5
 5019 11e3 1B       		.uleb128 0x1b
 5020 11e4 01       		.uleb128 0x1
 5021 11e5 50       		.byte	0x50
 5022 11e6 02       		.uleb128 0x2
 5023 11e7 74       		.byte	0x74
 5024 11e8 00       		.sleb128 0
 5025 11e9 1B       		.uleb128 0x1b
 5026 11ea 01       		.uleb128 0x1
 5027 11eb 51       		.byte	0x51
 5028 11ec 02       		.uleb128 0x2
 5029 11ed 78       		.byte	0x78
 5030 11ee 00       		.sleb128 0
 5031 11ef 1B       		.uleb128 0x1b
 5032 11f0 01       		.uleb128 0x1
 5033 11f1 52       		.byte	0x52
 5034 11f2 01       		.uleb128 0x1
 5035 11f3 30       		.byte	0x30
 5036 11f4 00       		.byte	0
ARM GAS  C:\Users\brian\AppData\Local\Temp\ccTYhJxe.s 			page 119


 5037 11f5 1A       		.uleb128 0x1a
 5038 11f6 20010000 		.4byte	.LVL186
 5039 11fa C30E0000 		.4byte	0xec3
 5040 11fe 14120000 		.4byte	0x1214
 5041 1202 1B       		.uleb128 0x1b
 5042 1203 01       		.uleb128 0x1
 5043 1204 50       		.byte	0x50
 5044 1205 02       		.uleb128 0x2
 5045 1206 74       		.byte	0x74
 5046 1207 00       		.sleb128 0
 5047 1208 1B       		.uleb128 0x1b
 5048 1209 01       		.uleb128 0x1
 5049 120a 51       		.byte	0x51
 5050 120b 02       		.uleb128 0x2
 5051 120c 77       		.byte	0x77
 5052 120d 00       		.sleb128 0
 5053 120e 1B       		.uleb128 0x1b
 5054 120f 01       		.uleb128 0x1
 5055 1210 52       		.byte	0x52
 5056 1211 01       		.uleb128 0x1
 5057 1212 31       		.byte	0x31
 5058 1213 00       		.byte	0
 5059 1214 1C       		.uleb128 0x1c
 5060 1215 28010000 		.4byte	.LVL187
 5061 1219 D00C0000 		.4byte	0xcd0
 5062 121d 1B       		.uleb128 0x1b
 5063 121e 01       		.uleb128 0x1
 5064 121f 50       		.byte	0x50
 5065 1220 02       		.uleb128 0x2
 5066 1221 75       		.byte	0x75
 5067 1222 00       		.sleb128 0
 5068 1223 1B       		.uleb128 0x1b
 5069 1224 01       		.uleb128 0x1
 5070 1225 51       		.byte	0x51
 5071 1226 01       		.uleb128 0x1
 5072 1227 31       		.byte	0x31
 5073 1228 00       		.byte	0
 5074 1229 00       		.byte	0
 5075 122a 15       		.uleb128 0x15
 5076 122b 18060000 		.4byte	.LASF175
 5077 122f 01       		.byte	0x1
 5078 1230 7302     		.2byte	0x273
 5079 1232 58030000 		.4byte	0x358
 5080 1236 00000000 		.4byte	.LFB16
 5081 123a 74000000 		.4byte	.LFE16-.LFB16
 5082 123e 01       		.uleb128 0x1
 5083 123f 9C       		.byte	0x9c
 5084 1240 C9120000 		.4byte	0x12c9
 5085 1244 16       		.uleb128 0x16
 5086 1245 3A050000 		.4byte	.LASF150
 5087 1249 01       		.byte	0x1
 5088 124a 7302     		.2byte	0x273
 5089 124c 8F050000 		.4byte	0x58f
 5090 1250 5D090000 		.4byte	.LLST51
 5091 1254 16       		.uleb128 0x16
 5092 1255 FE050000 		.4byte	.LASF28
 5093 1259 01       		.byte	0x1
ARM GAS  C:\Users\brian\AppData\Local\Temp\ccTYhJxe.s 			page 120


 5094 125a 7302     		.2byte	0x273
 5095 125c AD000000 		.4byte	0xad
 5096 1260 B0090000 		.4byte	.LLST52
 5097 1264 22       		.uleb128 0x22
 5098 1265 8A0C0000 		.4byte	.LASF27
 5099 1269 01       		.byte	0x1
 5100 126a 7502     		.2byte	0x275
 5101 126c 58030000 		.4byte	0x358
 5102 1270 01       		.uleb128 0x1
 5103 1271 54       		.byte	0x54
 5104 1272 20       		.uleb128 0x20
 5105 1273 34000000 		.4byte	.LBB4
 5106 1277 38000000 		.4byte	.LBE4-.LBB4
 5107 127b 18       		.uleb128 0x18
 5108 127c 6500     		.ascii	"e\000"
 5109 127e 01       		.byte	0x1
 5110 127f 9202     		.2byte	0x292
 5111 1281 AD000000 		.4byte	0xad
 5112 1285 EA090000 		.4byte	.LLST53
 5113 1289 26       		.uleb128 0x26
 5114 128a E8070000 		.4byte	.LASF176
 5115 128e 01       		.byte	0x1
 5116 128f 9302     		.2byte	0x293
 5117 1291 58030000 		.4byte	0x358
 5118 1295 4C0A0000 		.4byte	.LLST54
 5119 1299 1A       		.uleb128 0x1a
 5120 129a 44000000 		.4byte	.LVL199
 5121 129e 70080000 		.4byte	0x870
 5122 12a2 B2120000 		.4byte	0x12b2
 5123 12a6 1B       		.uleb128 0x1b
 5124 12a7 01       		.uleb128 0x1
 5125 12a8 50       		.byte	0x50
 5126 12a9 02       		.uleb128 0x2
 5127 12aa 75       		.byte	0x75
 5128 12ab 00       		.sleb128 0
 5129 12ac 1B       		.uleb128 0x1b
 5130 12ad 01       		.uleb128 0x1
 5131 12ae 51       		.byte	0x51
 5132 12af 01       		.uleb128 0x1
 5133 12b0 30       		.byte	0x30
 5134 12b1 00       		.byte	0
 5135 12b2 1C       		.uleb128 0x1c
 5136 12b3 4E000000 		.4byte	.LVL201
 5137 12b7 70080000 		.4byte	0x870
 5138 12bb 1B       		.uleb128 0x1b
 5139 12bc 01       		.uleb128 0x1
 5140 12bd 50       		.byte	0x50
 5141 12be 02       		.uleb128 0x2
 5142 12bf 75       		.byte	0x75
 5143 12c0 00       		.sleb128 0
 5144 12c1 1B       		.uleb128 0x1b
 5145 12c2 01       		.uleb128 0x1
 5146 12c3 51       		.byte	0x51
 5147 12c4 01       		.uleb128 0x1
 5148 12c5 32       		.byte	0x32
 5149 12c6 00       		.byte	0
 5150 12c7 00       		.byte	0
ARM GAS  C:\Users\brian\AppData\Local\Temp\ccTYhJxe.s 			page 121


 5151 12c8 00       		.byte	0
 5152 12c9 28       		.uleb128 0x28
 5153 12ca AD000000 		.4byte	.LASF177
 5154 12ce 01       		.byte	0x1
 5155 12cf CA02     		.2byte	0x2ca
 5156 12d1 63030000 		.4byte	0x363
 5157 12d5 00000000 		.4byte	.LFB17
 5158 12d9 24000000 		.4byte	.LFE17-.LFB17
 5159 12dd 01       		.uleb128 0x1
 5160 12de 9C       		.byte	0x9c
 5161 12df 63130000 		.4byte	0x1363
 5162 12e3 16       		.uleb128 0x16
 5163 12e4 3A050000 		.4byte	.LASF150
 5164 12e8 01       		.byte	0x1
 5165 12e9 CA02     		.2byte	0x2ca
 5166 12eb 8F050000 		.4byte	0x58f
 5167 12ef 750A0000 		.4byte	.LLST55
 5168 12f3 23       		.uleb128 0x23
 5169 12f4 7800     		.ascii	"x\000"
 5170 12f6 01       		.byte	0x1
 5171 12f7 CA02     		.2byte	0x2ca
 5172 12f9 63030000 		.4byte	0x363
 5173 12fd 930A0000 		.4byte	.LLST56
 5174 1301 23       		.uleb128 0x23
 5175 1302 7900     		.ascii	"y\000"
 5176 1304 01       		.byte	0x1
 5177 1305 CA02     		.2byte	0x2ca
 5178 1307 63030000 		.4byte	0x363
 5179 130b C10A0000 		.4byte	.LLST57
 5180 130f 16       		.uleb128 0x16
 5181 1310 FE050000 		.4byte	.LASF28
 5182 1314 01       		.byte	0x1
 5183 1315 CA02     		.2byte	0x2ca
 5184 1317 AD000000 		.4byte	0xad
 5185 131b E20A0000 		.4byte	.LLST58
 5186 131f 18       		.uleb128 0x18
 5187 1320 647800   		.ascii	"dx\000"
 5188 1323 01       		.byte	0x1
 5189 1324 CC02     		.2byte	0x2cc
 5190 1326 63030000 		.4byte	0x363
 5191 132a 030B0000 		.4byte	.LLST59
 5192 132e 26       		.uleb128 0x26
 5193 132f 760D0000 		.4byte	.LASF165
 5194 1333 01       		.byte	0x1
 5195 1334 D102     		.2byte	0x2d1
 5196 1336 58030000 		.4byte	0x358
 5197 133a 390B0000 		.4byte	.LLST60
 5198 133e 1A       		.uleb128 0x1a
 5199 133f 12000000 		.4byte	.LVL215
 5200 1343 2A120000 		.4byte	0x122a
 5201 1347 52130000 		.4byte	0x1352
 5202 134b 1B       		.uleb128 0x1b
 5203 134c 01       		.uleb128 0x1
 5204 134d 50       		.byte	0x50
 5205 134e 02       		.uleb128 0x2
 5206 134f 74       		.byte	0x74
 5207 1350 00       		.sleb128 0
ARM GAS  C:\Users\brian\AppData\Local\Temp\ccTYhJxe.s 			page 122


 5208 1351 00       		.byte	0
 5209 1352 1C       		.uleb128 0x1c
 5210 1353 1C000000 		.4byte	.LVL217
 5211 1357 20100000 		.4byte	0x1020
 5212 135b 1B       		.uleb128 0x1b
 5213 135c 01       		.uleb128 0x1
 5214 135d 50       		.byte	0x50
 5215 135e 02       		.uleb128 0x2
 5216 135f 74       		.byte	0x74
 5217 1360 00       		.sleb128 0
 5218 1361 00       		.byte	0
 5219 1362 00       		.byte	0
 5220 1363 28       		.uleb128 0x28
 5221 1364 CD050000 		.4byte	.LASF178
 5222 1368 01       		.byte	0x1
 5223 1369 4104     		.2byte	0x441
 5224 136b A2000000 		.4byte	0xa2
 5225 136f 00000000 		.4byte	.LFB40
 5226 1373 36000000 		.4byte	.LFE40-.LFB40
 5227 1377 01       		.uleb128 0x1
 5228 1378 9C       		.byte	0x9c
 5229 1379 E0130000 		.4byte	0x13e0
 5230 137d 16       		.uleb128 0x16
 5231 137e 3A050000 		.4byte	.LASF150
 5232 1382 01       		.byte	0x1
 5233 1383 4104     		.2byte	0x441
 5234 1385 8F050000 		.4byte	0x58f
 5235 1389 620B0000 		.4byte	.LLST61
 5236 138d 23       		.uleb128 0x23
 5237 138e 73747200 		.ascii	"str\000"
 5238 1392 01       		.byte	0x1
 5239 1393 4104     		.2byte	0x441
 5240 1395 E0130000 		.4byte	0x13e0
 5241 1399 800B0000 		.4byte	.LLST62
 5242 139d 18       		.uleb128 0x18
 5243 139e 6500     		.ascii	"e\000"
 5244 13a0 01       		.byte	0x1
 5245 13a1 4304     		.2byte	0x443
 5246 13a3 AD000000 		.4byte	0xad
 5247 13a7 9E0B0000 		.4byte	.LLST63
 5248 13ab 1A       		.uleb128 0x1a
 5249 13ac 0A000000 		.4byte	.LVL222
 5250 13b0 721F0000 		.4byte	0x1f72
 5251 13b4 BF130000 		.4byte	0x13bf
 5252 13b8 1B       		.uleb128 0x1b
 5253 13b9 01       		.uleb128 0x1
 5254 13ba 50       		.byte	0x50
 5255 13bb 02       		.uleb128 0x2
 5256 13bc 75       		.byte	0x75
 5257 13bd 00       		.sleb128 0
 5258 13be 00       		.byte	0
 5259 13bf 29       		.uleb128 0x29
 5260 13c0 12000000 		.4byte	.LVL223
 5261 13c4 CF130000 		.4byte	0x13cf
 5262 13c8 1B       		.uleb128 0x1b
 5263 13c9 01       		.uleb128 0x1
 5264 13ca 50       		.byte	0x50
ARM GAS  C:\Users\brian\AppData\Local\Temp\ccTYhJxe.s 			page 123


 5265 13cb 02       		.uleb128 0x2
 5266 13cc 75       		.byte	0x75
 5267 13cd 00       		.sleb128 0
 5268 13ce 00       		.byte	0
 5269 13cf 1C       		.uleb128 0x1c
 5270 13d0 2C000000 		.4byte	.LVL226
 5271 13d4 2A120000 		.4byte	0x122a
 5272 13d8 1B       		.uleb128 0x1b
 5273 13d9 01       		.uleb128 0x1
 5274 13da 50       		.byte	0x50
 5275 13db 02       		.uleb128 0x2
 5276 13dc 75       		.byte	0x75
 5277 13dd 00       		.sleb128 0
 5278 13de 00       		.byte	0
 5279 13df 00       		.byte	0
 5280 13e0 0A       		.uleb128 0xa
 5281 13e1 04       		.byte	0x4
 5282 13e2 ED130000 		.4byte	0x13ed
 5283 13e6 03       		.uleb128 0x3
 5284 13e7 01       		.byte	0x1
 5285 13e8 08       		.byte	0x8
 5286 13e9 790A0000 		.4byte	.LASF179
 5287 13ed 0D       		.uleb128 0xd
 5288 13ee E6130000 		.4byte	0x13e6
 5289 13f2 21       		.uleb128 0x21
 5290 13f3 140C0000 		.4byte	.LASF181
 5291 13f7 01       		.byte	0x1
 5292 13f8 9404     		.2byte	0x494
 5293 13fa 00000000 		.4byte	.LFB43
 5294 13fe 46000000 		.4byte	.LFE43-.LFB43
 5295 1402 01       		.uleb128 0x1
 5296 1403 9C       		.byte	0x9c
 5297 1404 C4140000 		.4byte	0x14c4
 5298 1408 16       		.uleb128 0x16
 5299 1409 3A050000 		.4byte	.LASF150
 5300 140d 01       		.byte	0x1
 5301 140e 9404     		.2byte	0x494
 5302 1410 8F050000 		.4byte	0x58f
 5303 1414 BC0B0000 		.4byte	.LLST64
 5304 1418 16       		.uleb128 0x16
 5305 1419 9A0D0000 		.4byte	.LASF182
 5306 141d 01       		.byte	0x1
 5307 141e 9404     		.2byte	0x494
 5308 1420 AD000000 		.4byte	0xad
 5309 1424 DA0B0000 		.4byte	.LLST65
 5310 1428 23       		.uleb128 0x23
 5311 1429 7700     		.ascii	"w\000"
 5312 142b 01       		.byte	0x1
 5313 142c 9404     		.2byte	0x494
 5314 142e 47030000 		.4byte	0x347
 5315 1432 FB0B0000 		.4byte	.LLST66
 5316 1436 23       		.uleb128 0x23
 5317 1437 6F7800   		.ascii	"ox\000"
 5318 143a 01       		.byte	0x1
 5319 143b 9404     		.2byte	0x494
 5320 143d C4140000 		.4byte	0x14c4
 5321 1441 270C0000 		.4byte	.LLST67
ARM GAS  C:\Users\brian\AppData\Local\Temp\ccTYhJxe.s 			page 124


 5322 1445 24       		.uleb128 0x24
 5323 1446 647800   		.ascii	"dx\000"
 5324 1449 01       		.byte	0x1
 5325 144a 9404     		.2byte	0x494
 5326 144c C4140000 		.4byte	0x14c4
 5327 1450 02       		.uleb128 0x2
 5328 1451 91       		.byte	0x91
 5329 1452 00       		.sleb128 0
 5330 1453 26       		.uleb128 0x26
 5331 1454 760D0000 		.4byte	.LASF165
 5332 1458 01       		.byte	0x1
 5333 1459 9604     		.2byte	0x496
 5334 145b 58030000 		.4byte	0x358
 5335 145f 450C0000 		.4byte	.LLST68
 5336 1463 1A       		.uleb128 0x1a
 5337 1464 0C000000 		.4byte	.LVL230
 5338 1468 2A120000 		.4byte	0x122a
 5339 146c 77140000 		.4byte	0x1477
 5340 1470 1B       		.uleb128 0x1b
 5341 1471 01       		.uleb128 0x1
 5342 1472 50       		.byte	0x50
 5343 1473 02       		.uleb128 0x2
 5344 1474 74       		.byte	0x74
 5345 1475 00       		.sleb128 0
 5346 1476 00       		.byte	0
 5347 1477 1A       		.uleb128 0x1a
 5348 1478 16000000 		.4byte	.LVL232
 5349 147c 500D0000 		.4byte	0xd50
 5350 1480 8B140000 		.4byte	0x148b
 5351 1484 1B       		.uleb128 0x1b
 5352 1485 01       		.uleb128 0x1
 5353 1486 50       		.byte	0x50
 5354 1487 02       		.uleb128 0x2
 5355 1488 74       		.byte	0x74
 5356 1489 00       		.sleb128 0
 5357 148a 00       		.byte	0
 5358 148b 1A       		.uleb128 0x1a
 5359 148c 2A000000 		.4byte	.LVL234
 5360 1490 B90D0000 		.4byte	0xdb9
 5361 1494 9F140000 		.4byte	0x149f
 5362 1498 1B       		.uleb128 0x1b
 5363 1499 01       		.uleb128 0x1
 5364 149a 50       		.byte	0x50
 5365 149b 02       		.uleb128 0x2
 5366 149c 75       		.byte	0x75
 5367 149d 00       		.sleb128 0
 5368 149e 00       		.byte	0
 5369 149f 1A       		.uleb128 0x1a
 5370 14a0 36000000 		.4byte	.LVL235
 5371 14a4 B90D0000 		.4byte	0xdb9
 5372 14a8 B3140000 		.4byte	0x14b3
 5373 14ac 1B       		.uleb128 0x1b
 5374 14ad 01       		.uleb128 0x1
 5375 14ae 50       		.byte	0x50
 5376 14af 02       		.uleb128 0x2
 5377 14b0 75       		.byte	0x75
 5378 14b1 00       		.sleb128 0
ARM GAS  C:\Users\brian\AppData\Local\Temp\ccTYhJxe.s 			page 125


 5379 14b2 00       		.byte	0
 5380 14b3 1C       		.uleb128 0x1c
 5381 14b4 40000000 		.4byte	.LVL236
 5382 14b8 B90D0000 		.4byte	0xdb9
 5383 14bc 1B       		.uleb128 0x1b
 5384 14bd 01       		.uleb128 0x1
 5385 14be 50       		.byte	0x50
 5386 14bf 02       		.uleb128 0x2
 5387 14c0 75       		.byte	0x75
 5388 14c1 00       		.sleb128 0
 5389 14c2 00       		.byte	0
 5390 14c3 00       		.byte	0
 5391 14c4 0A       		.uleb128 0xa
 5392 14c5 04       		.byte	0x4
 5393 14c6 97000000 		.4byte	0x97
 5394 14ca 15       		.uleb128 0x15
 5395 14cb C0050000 		.4byte	.LASF183
 5396 14cf 01       		.byte	0x1
 5397 14d0 DB02     		.2byte	0x2db
 5398 14d2 A2000000 		.4byte	0xa2
 5399 14d6 00000000 		.4byte	.LFB18
 5400 14da 10000000 		.4byte	.LFE18-.LFB18
 5401 14de 01       		.uleb128 0x1
 5402 14df 9C       		.byte	0x9c
 5403 14e0 16150000 		.4byte	0x1516
 5404 14e4 16       		.uleb128 0x16
 5405 14e5 3A050000 		.4byte	.LASF150
 5406 14e9 01       		.byte	0x1
 5407 14ea DB02     		.2byte	0x2db
 5408 14ec 8F050000 		.4byte	0x58f
 5409 14f0 630C0000 		.4byte	.LLST69
 5410 14f4 16       		.uleb128 0x16
 5411 14f5 9A0D0000 		.4byte	.LASF182
 5412 14f9 01       		.byte	0x1
 5413 14fa DB02     		.2byte	0x2db
 5414 14fc AD000000 		.4byte	0xad
 5415 1500 840C0000 		.4byte	.LLST70
 5416 1504 1C       		.uleb128 0x1c
 5417 1505 06000000 		.4byte	.LVL238
 5418 1509 2A120000 		.4byte	0x122a
 5419 150d 1B       		.uleb128 0x1b
 5420 150e 01       		.uleb128 0x1
 5421 150f 50       		.byte	0x50
 5422 1510 03       		.uleb128 0x3
 5423 1511 F3       		.byte	0xf3
 5424 1512 01       		.uleb128 0x1
 5425 1513 50       		.byte	0x50
 5426 1514 00       		.byte	0
 5427 1515 00       		.byte	0
 5428 1516 15       		.uleb128 0x15
 5429 1517 2B090000 		.4byte	.LASF184
 5430 151b 01       		.byte	0x1
 5431 151c E402     		.2byte	0x2e4
 5432 151e 97000000 		.4byte	0x97
 5433 1522 00000000 		.4byte	.LFB19
 5434 1526 3E000000 		.4byte	.LFE19-.LFB19
 5435 152a 01       		.uleb128 0x1
ARM GAS  C:\Users\brian\AppData\Local\Temp\ccTYhJxe.s 			page 126


 5436 152b 9C       		.byte	0x9c
 5437 152c C1150000 		.4byte	0x15c1
 5438 1530 16       		.uleb128 0x16
 5439 1531 3A050000 		.4byte	.LASF150
 5440 1535 01       		.byte	0x1
 5441 1536 E402     		.2byte	0x2e4
 5442 1538 8F050000 		.4byte	0x58f
 5443 153c A50C0000 		.4byte	.LLST71
 5444 1540 16       		.uleb128 0x16
 5445 1541 9A0D0000 		.4byte	.LASF182
 5446 1545 01       		.byte	0x1
 5447 1546 E402     		.2byte	0x2e4
 5448 1548 AD000000 		.4byte	0xad
 5449 154c C30C0000 		.4byte	.LLST72
 5450 1550 26       		.uleb128 0x26
 5451 1551 760D0000 		.4byte	.LASF165
 5452 1555 01       		.byte	0x1
 5453 1556 E602     		.2byte	0x2e6
 5454 1558 58030000 		.4byte	0x358
 5455 155c E40C0000 		.4byte	.LLST73
 5456 1560 1A       		.uleb128 0x1a
 5457 1561 08000000 		.4byte	.LVL240
 5458 1565 2A120000 		.4byte	0x122a
 5459 1569 74150000 		.4byte	0x1574
 5460 156d 1B       		.uleb128 0x1b
 5461 156e 01       		.uleb128 0x1
 5462 156f 50       		.byte	0x50
 5463 1570 02       		.uleb128 0x2
 5464 1571 74       		.byte	0x74
 5465 1572 00       		.sleb128 0
 5466 1573 00       		.byte	0
 5467 1574 1A       		.uleb128 0x1a
 5468 1575 12000000 		.4byte	.LVL242
 5469 1579 500D0000 		.4byte	0xd50
 5470 157d 88150000 		.4byte	0x1588
 5471 1581 1B       		.uleb128 0x1b
 5472 1582 01       		.uleb128 0x1
 5473 1583 50       		.byte	0x50
 5474 1584 02       		.uleb128 0x2
 5475 1585 74       		.byte	0x74
 5476 1586 00       		.sleb128 0
 5477 1587 00       		.byte	0
 5478 1588 1A       		.uleb128 0x1a
 5479 1589 20000000 		.4byte	.LVL243
 5480 158d B90D0000 		.4byte	0xdb9
 5481 1591 9C150000 		.4byte	0x159c
 5482 1595 1B       		.uleb128 0x1b
 5483 1596 01       		.uleb128 0x1
 5484 1597 50       		.byte	0x50
 5485 1598 02       		.uleb128 0x2
 5486 1599 75       		.byte	0x75
 5487 159a 00       		.sleb128 0
 5488 159b 00       		.byte	0
 5489 159c 1A       		.uleb128 0x1a
 5490 159d 2E000000 		.4byte	.LVL244
 5491 15a1 B90D0000 		.4byte	0xdb9
 5492 15a5 B0150000 		.4byte	0x15b0
ARM GAS  C:\Users\brian\AppData\Local\Temp\ccTYhJxe.s 			page 127


 5493 15a9 1B       		.uleb128 0x1b
 5494 15aa 01       		.uleb128 0x1
 5495 15ab 50       		.byte	0x50
 5496 15ac 02       		.uleb128 0x2
 5497 15ad 75       		.byte	0x75
 5498 15ae 00       		.sleb128 0
 5499 15af 00       		.byte	0
 5500 15b0 1C       		.uleb128 0x1c
 5501 15b1 38000000 		.4byte	.LVL245
 5502 15b5 B90D0000 		.4byte	0xdb9
 5503 15b9 1B       		.uleb128 0x1b
 5504 15ba 01       		.uleb128 0x1
 5505 15bb 50       		.byte	0x50
 5506 15bc 02       		.uleb128 0x2
 5507 15bd 75       		.byte	0x75
 5508 15be 00       		.sleb128 0
 5509 15bf 00       		.byte	0
 5510 15c0 00       		.byte	0
 5511 15c1 28       		.uleb128 0x28
 5512 15c2 0F010000 		.4byte	.LASF185
 5513 15c6 01       		.byte	0x1
 5514 15c7 5D04     		.2byte	0x45d
 5515 15c9 63030000 		.4byte	0x363
 5516 15cd 00000000 		.4byte	.LFB42
 5517 15d1 72000000 		.4byte	.LFE42-.LFB42
 5518 15d5 01       		.uleb128 0x1
 5519 15d6 9C       		.byte	0x9c
 5520 15d7 6B160000 		.4byte	0x166b
 5521 15db 16       		.uleb128 0x16
 5522 15dc 3A050000 		.4byte	.LASF150
 5523 15e0 01       		.byte	0x1
 5524 15e1 5D04     		.2byte	0x45d
 5525 15e3 8F050000 		.4byte	0x58f
 5526 15e7 0D0D0000 		.4byte	.LLST74
 5527 15eb 23       		.uleb128 0x23
 5528 15ec 73747200 		.ascii	"str\000"
 5529 15f0 01       		.byte	0x1
 5530 15f1 5D04     		.2byte	0x45d
 5531 15f3 E0130000 		.4byte	0x13e0
 5532 15f7 2B0D0000 		.4byte	.LLST75
 5533 15fb 18       		.uleb128 0x18
 5534 15fc 6500     		.ascii	"e\000"
 5535 15fe 01       		.byte	0x1
 5536 15ff 5F04     		.2byte	0x45f
 5537 1601 AD000000 		.4byte	0xad
 5538 1605 490D0000 		.4byte	.LLST76
 5539 1609 18       		.uleb128 0x18
 5540 160a 7700     		.ascii	"w\000"
 5541 160c 01       		.byte	0x1
 5542 160d 6004     		.2byte	0x460
 5543 160f 63030000 		.4byte	0x363
 5544 1613 670D0000 		.4byte	.LLST77
 5545 1617 18       		.uleb128 0x18
 5546 1618 647800   		.ascii	"dx\000"
 5547 161b 01       		.byte	0x1
 5548 161c 6004     		.2byte	0x460
 5549 161e 63030000 		.4byte	0x363
ARM GAS  C:\Users\brian\AppData\Local\Temp\ccTYhJxe.s 			page 128


 5550 1622 D40D0000 		.4byte	.LLST78
 5551 1626 26       		.uleb128 0x26
 5552 1627 6F040000 		.4byte	.LASF186
 5553 162b 01       		.byte	0x1
 5554 162c 6204     		.2byte	0x462
 5555 162e 97000000 		.4byte	0x97
 5556 1632 F30D0000 		.4byte	.LLST79
 5557 1636 1A       		.uleb128 0x1a
 5558 1637 12000000 		.4byte	.LVL250
 5559 163b 721F0000 		.4byte	0x1f72
 5560 163f 4A160000 		.4byte	0x164a
 5561 1643 1B       		.uleb128 0x1b
 5562 1644 01       		.uleb128 0x1
 5563 1645 50       		.byte	0x50
 5564 1646 02       		.uleb128 0x2
 5565 1647 74       		.byte	0x74
 5566 1648 00       		.sleb128 0
 5567 1649 00       		.byte	0
 5568 164a 29       		.uleb128 0x29
 5569 164b 20000000 		.4byte	.LVL252
 5570 164f 5A160000 		.4byte	0x165a
 5571 1653 1B       		.uleb128 0x1b
 5572 1654 01       		.uleb128 0x1
 5573 1655 50       		.byte	0x50
 5574 1656 02       		.uleb128 0x2
 5575 1657 74       		.byte	0x74
 5576 1658 00       		.sleb128 0
 5577 1659 00       		.byte	0
 5578 165a 1C       		.uleb128 0x1c
 5579 165b 3A000000 		.4byte	.LVL255
 5580 165f 16150000 		.4byte	0x1516
 5581 1663 1B       		.uleb128 0x1b
 5582 1664 01       		.uleb128 0x1
 5583 1665 50       		.byte	0x50
 5584 1666 02       		.uleb128 0x2
 5585 1667 74       		.byte	0x74
 5586 1668 00       		.sleb128 0
 5587 1669 00       		.byte	0
 5588 166a 00       		.byte	0
 5589 166b 25       		.uleb128 0x25
 5590 166c CD030000 		.4byte	.LASF187
 5591 1670 01       		.byte	0x1
 5592 1671 FB02     		.2byte	0x2fb
 5593 1673 00000000 		.4byte	.LFB20
 5594 1677 06000000 		.4byte	.LFE20-.LFB20
 5595 167b 01       		.uleb128 0x1
 5596 167c 9C       		.byte	0x9c
 5597 167d 9E160000 		.4byte	0x169e
 5598 1681 2A       		.uleb128 0x2a
 5599 1682 3A050000 		.4byte	.LASF150
 5600 1686 01       		.byte	0x1
 5601 1687 FB02     		.2byte	0x2fb
 5602 1689 8F050000 		.4byte	0x58f
 5603 168d 01       		.uleb128 0x1
 5604 168e 50       		.byte	0x50
 5605 168f 2A       		.uleb128 0x2a
 5606 1690 12040000 		.4byte	.LASF134
ARM GAS  C:\Users\brian\AppData\Local\Temp\ccTYhJxe.s 			page 129


 5607 1694 01       		.byte	0x1
 5608 1695 FB02     		.2byte	0x2fb
 5609 1697 A2000000 		.4byte	0xa2
 5610 169b 01       		.uleb128 0x1
 5611 169c 51       		.byte	0x51
 5612 169d 00       		.byte	0
 5613 169e 15       		.uleb128 0x15
 5614 169f E7010000 		.4byte	.LASF188
 5615 16a3 01       		.byte	0x1
 5616 16a4 0003     		.2byte	0x300
 5617 16a6 63030000 		.4byte	0x363
 5618 16aa 00000000 		.4byte	.LFB21
 5619 16ae 4E000000 		.4byte	.LFE21-.LFB21
 5620 16b2 01       		.uleb128 0x1
 5621 16b3 9C       		.byte	0x9c
 5622 16b4 57170000 		.4byte	0x1757
 5623 16b8 16       		.uleb128 0x16
 5624 16b9 3A050000 		.4byte	.LASF150
 5625 16bd 01       		.byte	0x1
 5626 16be 0003     		.2byte	0x300
 5627 16c0 8F050000 		.4byte	0x58f
 5628 16c4 130E0000 		.4byte	.LLST80
 5629 16c8 23       		.uleb128 0x23
 5630 16c9 7800     		.ascii	"x\000"
 5631 16cb 01       		.byte	0x1
 5632 16cc 0003     		.2byte	0x300
 5633 16ce 63030000 		.4byte	0x363
 5634 16d2 730E0000 		.4byte	.LLST81
 5635 16d6 23       		.uleb128 0x23
 5636 16d7 7900     		.ascii	"y\000"
 5637 16d9 01       		.byte	0x1
 5638 16da 0003     		.2byte	0x300
 5639 16dc 63030000 		.4byte	0x363
 5640 16e0 F50E0000 		.4byte	.LLST82
 5641 16e4 16       		.uleb128 0x16
 5642 16e5 FE050000 		.4byte	.LASF28
 5643 16e9 01       		.byte	0x1
 5644 16ea 0003     		.2byte	0x300
 5645 16ec AD000000 		.4byte	0xad
 5646 16f0 530F0000 		.4byte	.LLST83
 5647 16f4 29       		.uleb128 0x29
 5648 16f5 1E000000 		.4byte	.LVL272
 5649 16f9 04170000 		.4byte	0x1704
 5650 16fd 1B       		.uleb128 0x1b
 5651 16fe 01       		.uleb128 0x1
 5652 16ff 50       		.byte	0x50
 5653 1700 02       		.uleb128 0x2
 5654 1701 74       		.byte	0x74
 5655 1702 00       		.sleb128 0
 5656 1703 00       		.byte	0
 5657 1704 29       		.uleb128 0x29
 5658 1705 28000000 		.4byte	.LVL275
 5659 1709 14170000 		.4byte	0x1714
 5660 170d 1B       		.uleb128 0x1b
 5661 170e 01       		.uleb128 0x1
 5662 170f 50       		.byte	0x50
 5663 1710 02       		.uleb128 0x2
ARM GAS  C:\Users\brian\AppData\Local\Temp\ccTYhJxe.s 			page 130


 5664 1711 74       		.byte	0x74
 5665 1712 00       		.sleb128 0
 5666 1713 00       		.byte	0
 5667 1714 29       		.uleb128 0x29
 5668 1715 32000000 		.4byte	.LVL278
 5669 1719 24170000 		.4byte	0x1724
 5670 171d 1B       		.uleb128 0x1b
 5671 171e 01       		.uleb128 0x1
 5672 171f 50       		.byte	0x50
 5673 1720 02       		.uleb128 0x2
 5674 1721 74       		.byte	0x74
 5675 1722 00       		.sleb128 0
 5676 1723 00       		.byte	0
 5677 1724 29       		.uleb128 0x29
 5678 1725 3C000000 		.4byte	.LVL281
 5679 1729 34170000 		.4byte	0x1734
 5680 172d 1B       		.uleb128 0x1b
 5681 172e 01       		.uleb128 0x1
 5682 172f 50       		.byte	0x50
 5683 1730 02       		.uleb128 0x2
 5684 1731 74       		.byte	0x74
 5685 1732 00       		.sleb128 0
 5686 1733 00       		.byte	0
 5687 1734 1C       		.uleb128 0x1c
 5688 1735 4C000000 		.4byte	.LVL283
 5689 1739 C9120000 		.4byte	0x12c9
 5690 173d 1B       		.uleb128 0x1b
 5691 173e 01       		.uleb128 0x1
 5692 173f 50       		.byte	0x50
 5693 1740 02       		.uleb128 0x2
 5694 1741 74       		.byte	0x74
 5695 1742 00       		.sleb128 0
 5696 1743 1B       		.uleb128 0x1b
 5697 1744 01       		.uleb128 0x1
 5698 1745 51       		.byte	0x51
 5699 1746 02       		.uleb128 0x2
 5700 1747 75       		.byte	0x75
 5701 1748 00       		.sleb128 0
 5702 1749 1B       		.uleb128 0x1b
 5703 174a 01       		.uleb128 0x1
 5704 174b 52       		.byte	0x52
 5705 174c 02       		.uleb128 0x2
 5706 174d 76       		.byte	0x76
 5707 174e 00       		.sleb128 0
 5708 174f 1B       		.uleb128 0x1b
 5709 1750 01       		.uleb128 0x1
 5710 1751 53       		.byte	0x53
 5711 1752 02       		.uleb128 0x2
 5712 1753 77       		.byte	0x77
 5713 1754 00       		.sleb128 0
 5714 1755 00       		.byte	0
 5715 1756 00       		.byte	0
 5716 1757 28       		.uleb128 0x28
 5717 1758 BC0D0000 		.4byte	.LASF189
 5718 175c 01       		.byte	0x1
 5719 175d 1903     		.2byte	0x319
 5720 175f 63030000 		.4byte	0x363
ARM GAS  C:\Users\brian\AppData\Local\Temp\ccTYhJxe.s 			page 131


 5721 1763 00000000 		.4byte	.LFB22
 5722 1767 6E000000 		.4byte	.LFE22-.LFB22
 5723 176b 01       		.uleb128 0x1
 5724 176c 9C       		.byte	0x9c
 5725 176d 1C180000 		.4byte	0x181c
 5726 1771 16       		.uleb128 0x16
 5727 1772 3A050000 		.4byte	.LASF150
 5728 1776 01       		.byte	0x1
 5729 1777 1903     		.2byte	0x319
 5730 1779 8F050000 		.4byte	0x58f
 5731 177d 740F0000 		.4byte	.LLST84
 5732 1781 23       		.uleb128 0x23
 5733 1782 7800     		.ascii	"x\000"
 5734 1784 01       		.byte	0x1
 5735 1785 1903     		.2byte	0x319
 5736 1787 63030000 		.4byte	0x363
 5737 178b 920F0000 		.4byte	.LLST85
 5738 178f 23       		.uleb128 0x23
 5739 1790 7900     		.ascii	"y\000"
 5740 1792 01       		.byte	0x1
 5741 1793 1903     		.2byte	0x319
 5742 1795 63030000 		.4byte	0x363
 5743 1799 D40F0000 		.4byte	.LLST86
 5744 179d 23       		.uleb128 0x23
 5745 179e 73747200 		.ascii	"str\000"
 5746 17a2 01       		.byte	0x1
 5747 17a3 1903     		.2byte	0x319
 5748 17a5 E0130000 		.4byte	0x13e0
 5749 17a9 16100000 		.4byte	.LLST87
 5750 17ad 18       		.uleb128 0x18
 5751 17ae 6500     		.ascii	"e\000"
 5752 17b0 01       		.byte	0x1
 5753 17b1 1B03     		.2byte	0x31b
 5754 17b3 AD000000 		.4byte	0xad
 5755 17b7 34100000 		.4byte	.LLST88
 5756 17bb 26       		.uleb128 0x26
 5757 17bc 32010000 		.4byte	.LASF190
 5758 17c0 01       		.byte	0x1
 5759 17c1 1C03     		.2byte	0x31c
 5760 17c3 63030000 		.4byte	0x363
 5761 17c7 52100000 		.4byte	.LLST89
 5762 17cb 18       		.uleb128 0x18
 5763 17cc 73756D00 		.ascii	"sum\000"
 5764 17d0 01       		.byte	0x1
 5765 17d1 1C03     		.2byte	0x31c
 5766 17d3 63030000 		.4byte	0x363
 5767 17d7 65100000 		.4byte	.LLST90
 5768 17db 1A       		.uleb128 0x1a
 5769 17dc 10000000 		.4byte	.LVL285
 5770 17e0 721F0000 		.4byte	0x1f72
 5771 17e4 EF170000 		.4byte	0x17ef
 5772 17e8 1B       		.uleb128 0x1b
 5773 17e9 01       		.uleb128 0x1
 5774 17ea 50       		.byte	0x50
 5775 17eb 02       		.uleb128 0x2
 5776 17ec 74       		.byte	0x74
 5777 17ed 00       		.sleb128 0
ARM GAS  C:\Users\brian\AppData\Local\Temp\ccTYhJxe.s 			page 132


 5778 17ee 00       		.byte	0
 5779 17ef 29       		.uleb128 0x29
 5780 17f0 1C000000 		.4byte	.LVL287
 5781 17f4 FF170000 		.4byte	0x17ff
 5782 17f8 1B       		.uleb128 0x1b
 5783 17f9 01       		.uleb128 0x1
 5784 17fa 50       		.byte	0x50
 5785 17fb 02       		.uleb128 0x2
 5786 17fc 74       		.byte	0x74
 5787 17fd 00       		.sleb128 0
 5788 17fe 00       		.byte	0
 5789 17ff 1C       		.uleb128 0x1c
 5790 1800 3A000000 		.4byte	.LVL290
 5791 1804 9E160000 		.4byte	0x169e
 5792 1808 1B       		.uleb128 0x1b
 5793 1809 01       		.uleb128 0x1
 5794 180a 50       		.byte	0x50
 5795 180b 02       		.uleb128 0x2
 5796 180c 74       		.byte	0x74
 5797 180d 00       		.sleb128 0
 5798 180e 1B       		.uleb128 0x1b
 5799 180f 01       		.uleb128 0x1
 5800 1810 51       		.byte	0x51
 5801 1811 02       		.uleb128 0x2
 5802 1812 77       		.byte	0x77
 5803 1813 00       		.sleb128 0
 5804 1814 1B       		.uleb128 0x1b
 5805 1815 01       		.uleb128 0x1
 5806 1816 52       		.byte	0x52
 5807 1817 02       		.uleb128 0x2
 5808 1818 76       		.byte	0x76
 5809 1819 00       		.sleb128 0
 5810 181a 00       		.byte	0
 5811 181b 00       		.byte	0
 5812 181c 15       		.uleb128 0x15
 5813 181d 8E000000 		.4byte	.LASF191
 5814 1821 01       		.byte	0x1
 5815 1822 4A03     		.2byte	0x34a
 5816 1824 63030000 		.4byte	0x363
 5817 1828 00000000 		.4byte	.LFB23
 5818 182c 10000000 		.4byte	.LFE23-.LFB23
 5819 1830 01       		.uleb128 0x1
 5820 1831 9C       		.byte	0x9c
 5821 1832 8B180000 		.4byte	0x188b
 5822 1836 16       		.uleb128 0x16
 5823 1837 3A050000 		.4byte	.LASF150
 5824 183b 01       		.byte	0x1
 5825 183c 4A03     		.2byte	0x34a
 5826 183e 8F050000 		.4byte	0x58f
 5827 1842 84100000 		.4byte	.LLST91
 5828 1846 23       		.uleb128 0x23
 5829 1847 7800     		.ascii	"x\000"
 5830 1849 01       		.byte	0x1
 5831 184a 4A03     		.2byte	0x34a
 5832 184c 63030000 		.4byte	0x363
 5833 1850 A5100000 		.4byte	.LLST92
 5834 1854 23       		.uleb128 0x23
ARM GAS  C:\Users\brian\AppData\Local\Temp\ccTYhJxe.s 			page 133


 5835 1855 7900     		.ascii	"y\000"
 5836 1857 01       		.byte	0x1
 5837 1858 4A03     		.2byte	0x34a
 5838 185a 63030000 		.4byte	0x363
 5839 185e C6100000 		.4byte	.LLST93
 5840 1862 23       		.uleb128 0x23
 5841 1863 73747200 		.ascii	"str\000"
 5842 1867 01       		.byte	0x1
 5843 1868 4A03     		.2byte	0x34a
 5844 186a E0130000 		.4byte	0x13e0
 5845 186e E7100000 		.4byte	.LLST94
 5846 1872 1C       		.uleb128 0x1c
 5847 1873 0A000000 		.4byte	.LVL304
 5848 1877 57170000 		.4byte	0x1757
 5849 187b 1B       		.uleb128 0x1b
 5850 187c 01       		.uleb128 0x1
 5851 187d 50       		.byte	0x50
 5852 187e 03       		.uleb128 0x3
 5853 187f F3       		.byte	0xf3
 5854 1880 01       		.uleb128 0x1
 5855 1881 50       		.byte	0x50
 5856 1882 1B       		.uleb128 0x1b
 5857 1883 01       		.uleb128 0x1
 5858 1884 53       		.byte	0x53
 5859 1885 03       		.uleb128 0x3
 5860 1886 F3       		.byte	0xf3
 5861 1887 01       		.uleb128 0x1
 5862 1888 53       		.byte	0x53
 5863 1889 00       		.byte	0
 5864 188a 00       		.byte	0
 5865 188b 15       		.uleb128 0x15
 5866 188c DF050000 		.4byte	.LASF192
 5867 1890 01       		.byte	0x1
 5868 1891 5A03     		.2byte	0x35a
 5869 1893 63030000 		.4byte	0x363
 5870 1897 00000000 		.4byte	.LFB24
 5871 189b 10000000 		.4byte	.LFE24-.LFB24
 5872 189f 01       		.uleb128 0x1
 5873 18a0 9C       		.byte	0x9c
 5874 18a1 FA180000 		.4byte	0x18fa
 5875 18a5 16       		.uleb128 0x16
 5876 18a6 3A050000 		.4byte	.LASF150
 5877 18aa 01       		.byte	0x1
 5878 18ab 5A03     		.2byte	0x35a
 5879 18ad 8F050000 		.4byte	0x58f
 5880 18b1 08110000 		.4byte	.LLST95
 5881 18b5 23       		.uleb128 0x23
 5882 18b6 7800     		.ascii	"x\000"
 5883 18b8 01       		.byte	0x1
 5884 18b9 5A03     		.2byte	0x35a
 5885 18bb 63030000 		.4byte	0x363
 5886 18bf 29110000 		.4byte	.LLST96
 5887 18c3 23       		.uleb128 0x23
 5888 18c4 7900     		.ascii	"y\000"
 5889 18c6 01       		.byte	0x1
 5890 18c7 5A03     		.2byte	0x35a
 5891 18c9 63030000 		.4byte	0x363
ARM GAS  C:\Users\brian\AppData\Local\Temp\ccTYhJxe.s 			page 134


 5892 18cd 4A110000 		.4byte	.LLST97
 5893 18d1 23       		.uleb128 0x23
 5894 18d2 73747200 		.ascii	"str\000"
 5895 18d6 01       		.byte	0x1
 5896 18d7 5A03     		.2byte	0x35a
 5897 18d9 E0130000 		.4byte	0x13e0
 5898 18dd 6B110000 		.4byte	.LLST98
 5899 18e1 1C       		.uleb128 0x1c
 5900 18e2 0A000000 		.4byte	.LVL306
 5901 18e6 57170000 		.4byte	0x1757
 5902 18ea 1B       		.uleb128 0x1b
 5903 18eb 01       		.uleb128 0x1
 5904 18ec 50       		.byte	0x50
 5905 18ed 03       		.uleb128 0x3
 5906 18ee F3       		.byte	0xf3
 5907 18ef 01       		.uleb128 0x1
 5908 18f0 50       		.byte	0x50
 5909 18f1 1B       		.uleb128 0x1b
 5910 18f2 01       		.uleb128 0x1
 5911 18f3 53       		.byte	0x53
 5912 18f4 03       		.uleb128 0x3
 5913 18f5 F3       		.byte	0xf3
 5914 18f6 01       		.uleb128 0x1
 5915 18f7 53       		.byte	0x53
 5916 18f8 00       		.byte	0
 5917 18f9 00       		.byte	0
 5918 18fa 15       		.uleb128 0x15
 5919 18fb E9060000 		.4byte	.LASF193
 5920 18ff 01       		.byte	0x1
 5921 1900 6203     		.2byte	0x362
 5922 1902 63030000 		.4byte	0x363
 5923 1906 00000000 		.4byte	.LFB25
 5924 190a B4000000 		.4byte	.LFE25-.LFB25
 5925 190e 01       		.uleb128 0x1
 5926 190f 9C       		.byte	0x9c
 5927 1910 6D1A0000 		.4byte	0x1a6d
 5928 1914 16       		.uleb128 0x16
 5929 1915 3A050000 		.4byte	.LASF150
 5930 1919 01       		.byte	0x1
 5931 191a 6203     		.2byte	0x362
 5932 191c 8F050000 		.4byte	0x58f
 5933 1920 8C110000 		.4byte	.LLST99
 5934 1924 23       		.uleb128 0x23
 5935 1925 7800     		.ascii	"x\000"
 5936 1927 01       		.byte	0x1
 5937 1928 6203     		.2byte	0x362
 5938 192a 63030000 		.4byte	0x363
 5939 192e B8110000 		.4byte	.LLST100
 5940 1932 23       		.uleb128 0x23
 5941 1933 7900     		.ascii	"y\000"
 5942 1935 01       		.byte	0x1
 5943 1936 6203     		.2byte	0x362
 5944 1938 63030000 		.4byte	0x363
 5945 193c 05120000 		.4byte	.LLST101
 5946 1940 16       		.uleb128 0x16
 5947 1941 AD0D0000 		.4byte	.LASF194
 5948 1945 01       		.byte	0x1
ARM GAS  C:\Users\brian\AppData\Local\Temp\ccTYhJxe.s 			page 135


 5949 1946 6203     		.2byte	0x362
 5950 1948 A2000000 		.4byte	0xa2
 5951 194c 26120000 		.4byte	.LLST102
 5952 1950 16       		.uleb128 0x16
 5953 1951 D5000000 		.4byte	.LASF195
 5954 1955 01       		.byte	0x1
 5955 1956 6203     		.2byte	0x362
 5956 1958 6D1A0000 		.4byte	0x1a6d
 5957 195c 47120000 		.4byte	.LLST103
 5958 1960 23       		.uleb128 0x23
 5959 1961 73747200 		.ascii	"str\000"
 5960 1965 01       		.byte	0x1
 5961 1966 6203     		.2byte	0x362
 5962 1968 E0130000 		.4byte	0x13e0
 5963 196c 67120000 		.4byte	.LLST104
 5964 1970 26       		.uleb128 0x26
 5965 1971 80040000 		.4byte	.LASF196
 5966 1975 01       		.byte	0x1
 5967 1976 6503     		.2byte	0x365
 5968 1978 AD000000 		.4byte	0xad
 5969 197c 86120000 		.4byte	.LLST105
 5970 1980 18       		.uleb128 0x18
 5971 1981 6500     		.ascii	"e\000"
 5972 1983 01       		.byte	0x1
 5973 1984 6603     		.2byte	0x366
 5974 1986 AD000000 		.4byte	0xad
 5975 198a C7120000 		.4byte	.LLST106
 5976 198e 26       		.uleb128 0x26
 5977 198f 32010000 		.4byte	.LASF190
 5978 1993 01       		.byte	0x1
 5979 1994 6703     		.2byte	0x367
 5980 1996 63030000 		.4byte	0x363
 5981 199a E5120000 		.4byte	.LLST107
 5982 199e 18       		.uleb128 0x18
 5983 199f 73756D00 		.ascii	"sum\000"
 5984 19a3 01       		.byte	0x1
 5985 19a4 6703     		.2byte	0x367
 5986 19a6 63030000 		.4byte	0x363
 5987 19aa 0E130000 		.4byte	.LLST108
 5988 19ae 18       		.uleb128 0x18
 5989 19af 6B00     		.ascii	"k\000"
 5990 19b1 01       		.byte	0x1
 5991 19b2 6703     		.2byte	0x367
 5992 19b4 63030000 		.4byte	0x363
 5993 19b8 38130000 		.4byte	.LLST109
 5994 19bc 1A       		.uleb128 0x1a
 5995 19bd 1A000000 		.4byte	.LVL310
 5996 19c1 721F0000 		.4byte	0x1f72
 5997 19c5 D0190000 		.4byte	0x19d0
 5998 19c9 1B       		.uleb128 0x1b
 5999 19ca 01       		.uleb128 0x1
 6000 19cb 50       		.byte	0x50
 6001 19cc 02       		.uleb128 0x2
 6002 19cd 79       		.byte	0x79
 6003 19ce 00       		.sleb128 0
 6004 19cf 00       		.byte	0
 6005 19d0 29       		.uleb128 0x29
ARM GAS  C:\Users\brian\AppData\Local\Temp\ccTYhJxe.s 			page 136


 6006 19d1 2C000000 		.4byte	.LVL312
 6007 19d5 E0190000 		.4byte	0x19e0
 6008 19d9 1B       		.uleb128 0x1b
 6009 19da 01       		.uleb128 0x1
 6010 19db 50       		.byte	0x50
 6011 19dc 02       		.uleb128 0x2
 6012 19dd 79       		.byte	0x79
 6013 19de 00       		.sleb128 0
 6014 19df 00       		.byte	0
 6015 19e0 1A       		.uleb128 0x1a
 6016 19e1 4A000000 		.4byte	.LVL316
 6017 19e5 16150000 		.4byte	0x1516
 6018 19e9 FA190000 		.4byte	0x19fa
 6019 19ed 1B       		.uleb128 0x1b
 6020 19ee 01       		.uleb128 0x1
 6021 19ef 50       		.byte	0x50
 6022 19f0 02       		.uleb128 0x2
 6023 19f1 79       		.byte	0x79
 6024 19f2 00       		.sleb128 0
 6025 19f3 1B       		.uleb128 0x1b
 6026 19f4 01       		.uleb128 0x1
 6027 19f5 51       		.byte	0x51
 6028 19f6 02       		.uleb128 0x2
 6029 19f7 74       		.byte	0x74
 6030 19f8 00       		.sleb128 0
 6031 19f9 00       		.byte	0
 6032 19fa 1A       		.uleb128 0x1a
 6033 19fb 5E000000 		.4byte	.LVL318
 6034 19ff 7E1F0000 		.4byte	0x1f7e
 6035 1a03 211A0000 		.4byte	0x1a21
 6036 1a07 1B       		.uleb128 0x1b
 6037 1a08 01       		.uleb128 0x1
 6038 1a09 50       		.byte	0x50
 6039 1a0a 02       		.uleb128 0x2
 6040 1a0b 79       		.byte	0x79
 6041 1a0c 00       		.sleb128 0
 6042 1a0d 1B       		.uleb128 0x1b
 6043 1a0e 01       		.uleb128 0x1
 6044 1a0f 51       		.byte	0x51
 6045 1a10 03       		.uleb128 0x3
 6046 1a11 91       		.byte	0x91
 6047 1a12 00       		.sleb128 0
 6048 1a13 06       		.byte	0x6
 6049 1a14 1B       		.uleb128 0x1b
 6050 1a15 01       		.uleb128 0x1
 6051 1a16 52       		.byte	0x52
 6052 1a17 02       		.uleb128 0x2
 6053 1a18 74       		.byte	0x74
 6054 1a19 00       		.sleb128 0
 6055 1a1a 1B       		.uleb128 0x1b
 6056 1a1b 01       		.uleb128 0x1
 6057 1a1c 53       		.byte	0x53
 6058 1a1d 02       		.uleb128 0x2
 6059 1a1e 78       		.byte	0x78
 6060 1a1f 00       		.sleb128 0
 6061 1a20 00       		.byte	0
 6062 1a21 1A       		.uleb128 0x1a
ARM GAS  C:\Users\brian\AppData\Local\Temp\ccTYhJxe.s 			page 137


 6063 1a22 7A000000 		.4byte	.LVL325
 6064 1a26 7E1F0000 		.4byte	0x1f7e
 6065 1a2a 481A0000 		.4byte	0x1a48
 6066 1a2e 1B       		.uleb128 0x1b
 6067 1a2f 01       		.uleb128 0x1
 6068 1a30 50       		.byte	0x50
 6069 1a31 02       		.uleb128 0x2
 6070 1a32 79       		.byte	0x79
 6071 1a33 00       		.sleb128 0
 6072 1a34 1B       		.uleb128 0x1b
 6073 1a35 01       		.uleb128 0x1
 6074 1a36 51       		.byte	0x51
 6075 1a37 03       		.uleb128 0x3
 6076 1a38 91       		.byte	0x91
 6077 1a39 00       		.sleb128 0
 6078 1a3a 06       		.byte	0x6
 6079 1a3b 1B       		.uleb128 0x1b
 6080 1a3c 01       		.uleb128 0x1
 6081 1a3d 52       		.byte	0x52
 6082 1a3e 02       		.uleb128 0x2
 6083 1a3f 78       		.byte	0x78
 6084 1a40 00       		.sleb128 0
 6085 1a41 1B       		.uleb128 0x1b
 6086 1a42 01       		.uleb128 0x1
 6087 1a43 53       		.byte	0x53
 6088 1a44 02       		.uleb128 0x2
 6089 1a45 74       		.byte	0x74
 6090 1a46 00       		.sleb128 0
 6091 1a47 00       		.byte	0
 6092 1a48 1C       		.uleb128 0x1c
 6093 1a49 90000000 		.4byte	.LVL329
 6094 1a4d 9E160000 		.4byte	0x169e
 6095 1a51 1B       		.uleb128 0x1b
 6096 1a52 01       		.uleb128 0x1
 6097 1a53 50       		.byte	0x50
 6098 1a54 02       		.uleb128 0x2
 6099 1a55 79       		.byte	0x79
 6100 1a56 00       		.sleb128 0
 6101 1a57 1B       		.uleb128 0x1b
 6102 1a58 01       		.uleb128 0x1
 6103 1a59 51       		.byte	0x51
 6104 1a5a 02       		.uleb128 0x2
 6105 1a5b 77       		.byte	0x77
 6106 1a5c 00       		.sleb128 0
 6107 1a5d 1B       		.uleb128 0x1b
 6108 1a5e 01       		.uleb128 0x1
 6109 1a5f 52       		.byte	0x52
 6110 1a60 04       		.uleb128 0x4
 6111 1a61 91       		.byte	0x91
 6112 1a62 54       		.sleb128 -44
 6113 1a63 94       		.byte	0x94
 6114 1a64 02       		.byte	0x2
 6115 1a65 1B       		.uleb128 0x1b
 6116 1a66 01       		.uleb128 0x1
 6117 1a67 53       		.byte	0x53
 6118 1a68 02       		.uleb128 0x2
 6119 1a69 74       		.byte	0x74
ARM GAS  C:\Users\brian\AppData\Local\Temp\ccTYhJxe.s 			page 138


 6120 1a6a 00       		.sleb128 0
 6121 1a6b 00       		.byte	0
 6122 1a6c 00       		.byte	0
 6123 1a6d 0A       		.uleb128 0xa
 6124 1a6e 04       		.byte	0x4
 6125 1a6f 02080000 		.4byte	0x802
 6126 1a73 15       		.uleb128 0x15
 6127 1a74 21010000 		.4byte	.LASF197
 6128 1a78 01       		.byte	0x1
 6129 1a79 9103     		.2byte	0x391
 6130 1a7b 63030000 		.4byte	0x363
 6131 1a7f 00000000 		.4byte	.LFB26
 6132 1a83 A8000000 		.4byte	.LFE26-.LFB26
 6133 1a87 01       		.uleb128 0x1
 6134 1a88 9C       		.byte	0x9c
 6135 1a89 E61B0000 		.4byte	0x1be6
 6136 1a8d 16       		.uleb128 0x16
 6137 1a8e 3A050000 		.4byte	.LASF150
 6138 1a92 01       		.byte	0x1
 6139 1a93 9103     		.2byte	0x391
 6140 1a95 8F050000 		.4byte	0x58f
 6141 1a99 56130000 		.4byte	.LLST110
 6142 1a9d 23       		.uleb128 0x23
 6143 1a9e 7800     		.ascii	"x\000"
 6144 1aa0 01       		.byte	0x1
 6145 1aa1 9103     		.2byte	0x391
 6146 1aa3 63030000 		.4byte	0x363
 6147 1aa7 82130000 		.4byte	.LLST111
 6148 1aab 23       		.uleb128 0x23
 6149 1aac 7900     		.ascii	"y\000"
 6150 1aae 01       		.byte	0x1
 6151 1aaf 9103     		.2byte	0x391
 6152 1ab1 63030000 		.4byte	0x363
 6153 1ab5 C4130000 		.4byte	.LLST112
 6154 1ab9 16       		.uleb128 0x16
 6155 1aba AD0D0000 		.4byte	.LASF194
 6156 1abe 01       		.byte	0x1
 6157 1abf 9103     		.2byte	0x391
 6158 1ac1 A2000000 		.4byte	0xa2
 6159 1ac5 E5130000 		.4byte	.LLST113
 6160 1ac9 16       		.uleb128 0x16
 6161 1aca 530B0000 		.4byte	.LASF198
 6162 1ace 01       		.byte	0x1
 6163 1acf 9103     		.2byte	0x391
 6164 1ad1 F7070000 		.4byte	0x7f7
 6165 1ad5 06140000 		.4byte	.LLST114
 6166 1ad9 23       		.uleb128 0x23
 6167 1ada 73747200 		.ascii	"str\000"
 6168 1ade 01       		.byte	0x1
 6169 1adf 9103     		.2byte	0x391
 6170 1ae1 E0130000 		.4byte	0x13e0
 6171 1ae5 26140000 		.4byte	.LLST115
 6172 1ae9 26       		.uleb128 0x26
 6173 1aea 80040000 		.4byte	.LASF196
 6174 1aee 01       		.byte	0x1
 6175 1aef 9403     		.2byte	0x394
 6176 1af1 AD000000 		.4byte	0xad
ARM GAS  C:\Users\brian\AppData\Local\Temp\ccTYhJxe.s 			page 139


 6177 1af5 45140000 		.4byte	.LLST116
 6178 1af9 18       		.uleb128 0x18
 6179 1afa 6500     		.ascii	"e\000"
 6180 1afc 01       		.byte	0x1
 6181 1afd 9503     		.2byte	0x395
 6182 1aff AD000000 		.4byte	0xad
 6183 1b03 7B140000 		.4byte	.LLST117
 6184 1b07 26       		.uleb128 0x26
 6185 1b08 32010000 		.4byte	.LASF190
 6186 1b0c 01       		.byte	0x1
 6187 1b0d 9603     		.2byte	0x396
 6188 1b0f 63030000 		.4byte	0x363
 6189 1b13 99140000 		.4byte	.LLST118
 6190 1b17 18       		.uleb128 0x18
 6191 1b18 73756D00 		.ascii	"sum\000"
 6192 1b1c 01       		.byte	0x1
 6193 1b1d 9603     		.2byte	0x396
 6194 1b1f 63030000 		.4byte	0x363
 6195 1b23 C2140000 		.4byte	.LLST119
 6196 1b27 18       		.uleb128 0x18
 6197 1b28 6B00     		.ascii	"k\000"
 6198 1b2a 01       		.byte	0x1
 6199 1b2b 9603     		.2byte	0x396
 6200 1b2d 63030000 		.4byte	0x363
 6201 1b31 EC140000 		.4byte	.LLST120
 6202 1b35 1A       		.uleb128 0x1a
 6203 1b36 18000000 		.4byte	.LVL343
 6204 1b3a 721F0000 		.4byte	0x1f72
 6205 1b3e 491B0000 		.4byte	0x1b49
 6206 1b42 1B       		.uleb128 0x1b
 6207 1b43 01       		.uleb128 0x1
 6208 1b44 50       		.byte	0x50
 6209 1b45 02       		.uleb128 0x2
 6210 1b46 76       		.byte	0x76
 6211 1b47 00       		.sleb128 0
 6212 1b48 00       		.byte	0
 6213 1b49 29       		.uleb128 0x29
 6214 1b4a 28000000 		.4byte	.LVL345
 6215 1b4e 591B0000 		.4byte	0x1b59
 6216 1b52 1B       		.uleb128 0x1b
 6217 1b53 01       		.uleb128 0x1
 6218 1b54 50       		.byte	0x50
 6219 1b55 02       		.uleb128 0x2
 6220 1b56 76       		.byte	0x76
 6221 1b57 00       		.sleb128 0
 6222 1b58 00       		.byte	0
 6223 1b59 1A       		.uleb128 0x1a
 6224 1b5a 44000000 		.4byte	.LVL349
 6225 1b5e 16150000 		.4byte	0x1516
 6226 1b62 731B0000 		.4byte	0x1b73
 6227 1b66 1B       		.uleb128 0x1b
 6228 1b67 01       		.uleb128 0x1
 6229 1b68 50       		.byte	0x50
 6230 1b69 02       		.uleb128 0x2
 6231 1b6a 76       		.byte	0x76
 6232 1b6b 00       		.sleb128 0
 6233 1b6c 1B       		.uleb128 0x1b
ARM GAS  C:\Users\brian\AppData\Local\Temp\ccTYhJxe.s 			page 140


 6234 1b6d 01       		.uleb128 0x1
 6235 1b6e 51       		.byte	0x51
 6236 1b6f 02       		.uleb128 0x2
 6237 1b70 74       		.byte	0x74
 6238 1b71 00       		.sleb128 0
 6239 1b72 00       		.byte	0
 6240 1b73 1A       		.uleb128 0x1a
 6241 1b74 58000000 		.4byte	.LVL351
 6242 1b78 8A1F0000 		.4byte	0x1f8a
 6243 1b7c 9A1B0000 		.4byte	0x1b9a
 6244 1b80 1B       		.uleb128 0x1b
 6245 1b81 01       		.uleb128 0x1
 6246 1b82 50       		.byte	0x50
 6247 1b83 02       		.uleb128 0x2
 6248 1b84 76       		.byte	0x76
 6249 1b85 00       		.sleb128 0
 6250 1b86 1B       		.uleb128 0x1b
 6251 1b87 01       		.uleb128 0x1
 6252 1b88 51       		.byte	0x51
 6253 1b89 03       		.uleb128 0x3
 6254 1b8a 91       		.byte	0x91
 6255 1b8b 00       		.sleb128 0
 6256 1b8c 06       		.byte	0x6
 6257 1b8d 1B       		.uleb128 0x1b
 6258 1b8e 01       		.uleb128 0x1
 6259 1b8f 52       		.byte	0x52
 6260 1b90 02       		.uleb128 0x2
 6261 1b91 74       		.byte	0x74
 6262 1b92 00       		.sleb128 0
 6263 1b93 1B       		.uleb128 0x1b
 6264 1b94 01       		.uleb128 0x1
 6265 1b95 53       		.byte	0x53
 6266 1b96 02       		.uleb128 0x2
 6267 1b97 7A       		.byte	0x7a
 6268 1b98 00       		.sleb128 0
 6269 1b99 00       		.byte	0
 6270 1b9a 1A       		.uleb128 0x1a
 6271 1b9b 74000000 		.4byte	.LVL358
 6272 1b9f 8A1F0000 		.4byte	0x1f8a
 6273 1ba3 C11B0000 		.4byte	0x1bc1
 6274 1ba7 1B       		.uleb128 0x1b
 6275 1ba8 01       		.uleb128 0x1
 6276 1ba9 50       		.byte	0x50
 6277 1baa 02       		.uleb128 0x2
 6278 1bab 76       		.byte	0x76
 6279 1bac 00       		.sleb128 0
 6280 1bad 1B       		.uleb128 0x1b
 6281 1bae 01       		.uleb128 0x1
 6282 1baf 51       		.byte	0x51
 6283 1bb0 03       		.uleb128 0x3
 6284 1bb1 91       		.byte	0x91
 6285 1bb2 00       		.sleb128 0
 6286 1bb3 06       		.byte	0x6
 6287 1bb4 1B       		.uleb128 0x1b
 6288 1bb5 01       		.uleb128 0x1
 6289 1bb6 52       		.byte	0x52
 6290 1bb7 02       		.uleb128 0x2
ARM GAS  C:\Users\brian\AppData\Local\Temp\ccTYhJxe.s 			page 141


 6291 1bb8 7A       		.byte	0x7a
 6292 1bb9 00       		.sleb128 0
 6293 1bba 1B       		.uleb128 0x1b
 6294 1bbb 01       		.uleb128 0x1
 6295 1bbc 53       		.byte	0x53
 6296 1bbd 02       		.uleb128 0x2
 6297 1bbe 74       		.byte	0x74
 6298 1bbf 00       		.sleb128 0
 6299 1bc0 00       		.byte	0
 6300 1bc1 1C       		.uleb128 0x1c
 6301 1bc2 92000000 		.4byte	.LVL365
 6302 1bc6 9E160000 		.4byte	0x169e
 6303 1bca 1B       		.uleb128 0x1b
 6304 1bcb 01       		.uleb128 0x1
 6305 1bcc 50       		.byte	0x50
 6306 1bcd 02       		.uleb128 0x2
 6307 1bce 76       		.byte	0x76
 6308 1bcf 00       		.sleb128 0
 6309 1bd0 1B       		.uleb128 0x1b
 6310 1bd1 01       		.uleb128 0x1
 6311 1bd2 51       		.byte	0x51
 6312 1bd3 02       		.uleb128 0x2
 6313 1bd4 78       		.byte	0x78
 6314 1bd5 00       		.sleb128 0
 6315 1bd6 1B       		.uleb128 0x1b
 6316 1bd7 01       		.uleb128 0x1
 6317 1bd8 52       		.byte	0x52
 6318 1bd9 04       		.uleb128 0x4
 6319 1bda 91       		.byte	0x91
 6320 1bdb 54       		.sleb128 -44
 6321 1bdc 94       		.byte	0x94
 6322 1bdd 02       		.byte	0x2
 6323 1bde 1B       		.uleb128 0x1b
 6324 1bdf 01       		.uleb128 0x1
 6325 1be0 53       		.byte	0x53
 6326 1be1 02       		.uleb128 0x2
 6327 1be2 74       		.byte	0x74
 6328 1be3 00       		.sleb128 0
 6329 1be4 00       		.byte	0
 6330 1be5 00       		.byte	0
 6331 1be6 25       		.uleb128 0x25
 6332 1be7 8C0B0000 		.4byte	.LASF199
 6333 1beb 01       		.byte	0x1
 6334 1bec CD03     		.2byte	0x3cd
 6335 1bee 00000000 		.4byte	.LFB27
 6336 1bf2 58000000 		.4byte	.LFE27-.LFB27
 6337 1bf6 01       		.uleb128 0x1
 6338 1bf7 9C       		.byte	0x9c
 6339 1bf8 0B1C0000 		.4byte	0x1c0b
 6340 1bfc 2A       		.uleb128 0x2a
 6341 1bfd 3A050000 		.4byte	.LASF150
 6342 1c01 01       		.byte	0x1
 6343 1c02 CD03     		.2byte	0x3cd
 6344 1c04 8F050000 		.4byte	0x58f
 6345 1c08 01       		.uleb128 0x1
 6346 1c09 50       		.byte	0x50
 6347 1c0a 00       		.byte	0
ARM GAS  C:\Users\brian\AppData\Local\Temp\ccTYhJxe.s 			page 142


 6348 1c0b 25       		.uleb128 0x25
 6349 1c0c 700C0000 		.4byte	.LASF200
 6350 1c10 01       		.byte	0x1
 6351 1c11 E603     		.2byte	0x3e6
 6352 1c13 00000000 		.4byte	.LFB28
 6353 1c17 0E000000 		.4byte	.LFE28-.LFB28
 6354 1c1b 01       		.uleb128 0x1
 6355 1c1c 9C       		.byte	0x9c
 6356 1c1d 431C0000 		.4byte	0x1c43
 6357 1c21 16       		.uleb128 0x16
 6358 1c22 3A050000 		.4byte	.LASF150
 6359 1c26 01       		.byte	0x1
 6360 1c27 E603     		.2byte	0x3e6
 6361 1c29 8F050000 		.4byte	0x58f
 6362 1c2d 0A150000 		.4byte	.LLST121
 6363 1c31 1C       		.uleb128 0x1c
 6364 1c32 0C000000 		.4byte	.LVL373
 6365 1c36 E61B0000 		.4byte	0x1be6
 6366 1c3a 1B       		.uleb128 0x1b
 6367 1c3b 01       		.uleb128 0x1
 6368 1c3c 50       		.byte	0x50
 6369 1c3d 03       		.uleb128 0x3
 6370 1c3e F3       		.byte	0xf3
 6371 1c3f 01       		.uleb128 0x1
 6372 1c40 50       		.byte	0x50
 6373 1c41 00       		.byte	0
 6374 1c42 00       		.byte	0
 6375 1c43 25       		.uleb128 0x25
 6376 1c44 080B0000 		.4byte	.LASF201
 6377 1c48 01       		.byte	0x1
 6378 1c49 EC03     		.2byte	0x3ec
 6379 1c4b 00000000 		.4byte	.LFB29
 6380 1c4f 0E000000 		.4byte	.LFE29-.LFB29
 6381 1c53 01       		.uleb128 0x1
 6382 1c54 9C       		.byte	0x9c
 6383 1c55 7B1C0000 		.4byte	0x1c7b
 6384 1c59 16       		.uleb128 0x16
 6385 1c5a 3A050000 		.4byte	.LASF150
 6386 1c5e 01       		.byte	0x1
 6387 1c5f EC03     		.2byte	0x3ec
 6388 1c61 8F050000 		.4byte	0x58f
 6389 1c65 2B150000 		.4byte	.LLST122
 6390 1c69 1C       		.uleb128 0x1c
 6391 1c6a 0C000000 		.4byte	.LVL375
 6392 1c6e E61B0000 		.4byte	0x1be6
 6393 1c72 1B       		.uleb128 0x1b
 6394 1c73 01       		.uleb128 0x1
 6395 1c74 50       		.byte	0x50
 6396 1c75 03       		.uleb128 0x3
 6397 1c76 F3       		.byte	0xf3
 6398 1c77 01       		.uleb128 0x1
 6399 1c78 50       		.byte	0x50
 6400 1c79 00       		.byte	0
 6401 1c7a 00       		.byte	0
 6402 1c7b 25       		.uleb128 0x25
 6403 1c7c 56040000 		.4byte	.LASF202
 6404 1c80 01       		.byte	0x1
ARM GAS  C:\Users\brian\AppData\Local\Temp\ccTYhJxe.s 			page 143


 6405 1c81 F203     		.2byte	0x3f2
 6406 1c83 00000000 		.4byte	.LFB30
 6407 1c87 0E000000 		.4byte	.LFE30-.LFB30
 6408 1c8b 01       		.uleb128 0x1
 6409 1c8c 9C       		.byte	0x9c
 6410 1c8d B31C0000 		.4byte	0x1cb3
 6411 1c91 16       		.uleb128 0x16
 6412 1c92 3A050000 		.4byte	.LASF150
 6413 1c96 01       		.byte	0x1
 6414 1c97 F203     		.2byte	0x3f2
 6415 1c99 8F050000 		.4byte	0x58f
 6416 1c9d 4C150000 		.4byte	.LLST123
 6417 1ca1 1C       		.uleb128 0x1c
 6418 1ca2 0C000000 		.4byte	.LVL377
 6419 1ca6 E61B0000 		.4byte	0x1be6
 6420 1caa 1B       		.uleb128 0x1b
 6421 1cab 01       		.uleb128 0x1
 6422 1cac 50       		.byte	0x50
 6423 1cad 03       		.uleb128 0x3
 6424 1cae F3       		.byte	0xf3
 6425 1caf 01       		.uleb128 0x1
 6426 1cb0 50       		.byte	0x50
 6427 1cb1 00       		.byte	0
 6428 1cb2 00       		.byte	0
 6429 1cb3 25       		.uleb128 0x25
 6430 1cb4 97050000 		.4byte	.LASF203
 6431 1cb8 01       		.byte	0x1
 6432 1cb9 0004     		.2byte	0x400
 6433 1cbb 00000000 		.4byte	.LFB32
 6434 1cbf 0C000000 		.4byte	.LFE32-.LFB32
 6435 1cc3 01       		.uleb128 0x1
 6436 1cc4 9C       		.byte	0x9c
 6437 1cc5 D81C0000 		.4byte	0x1cd8
 6438 1cc9 2A       		.uleb128 0x2a
 6439 1cca 3A050000 		.4byte	.LASF150
 6440 1cce 01       		.byte	0x1
 6441 1ccf 0004     		.2byte	0x400
 6442 1cd1 8F050000 		.4byte	0x58f
 6443 1cd5 01       		.uleb128 0x1
 6444 1cd6 50       		.byte	0x50
 6445 1cd7 00       		.byte	0
 6446 1cd8 25       		.uleb128 0x25
 6447 1cd9 EC0C0000 		.4byte	.LASF204
 6448 1cdd 01       		.byte	0x1
 6449 1cde 0B04     		.2byte	0x40b
 6450 1ce0 00000000 		.4byte	.LFB34
 6451 1ce4 0C000000 		.4byte	.LFE34-.LFB34
 6452 1ce8 01       		.uleb128 0x1
 6453 1ce9 9C       		.byte	0x9c
 6454 1cea FD1C0000 		.4byte	0x1cfd
 6455 1cee 2A       		.uleb128 0x2a
 6456 1cef 3A050000 		.4byte	.LASF150
 6457 1cf3 01       		.byte	0x1
 6458 1cf4 0B04     		.2byte	0x40b
 6459 1cf6 8F050000 		.4byte	0x58f
 6460 1cfa 01       		.uleb128 0x1
 6461 1cfb 50       		.byte	0x50
ARM GAS  C:\Users\brian\AppData\Local\Temp\ccTYhJxe.s 			page 144


 6462 1cfc 00       		.byte	0
 6463 1cfd 25       		.uleb128 0x25
 6464 1cfe D5070000 		.4byte	.LASF205
 6465 1d02 01       		.byte	0x1
 6466 1d03 1904     		.2byte	0x419
 6467 1d05 00000000 		.4byte	.LFB36
 6468 1d09 0C000000 		.4byte	.LFE36-.LFB36
 6469 1d0d 01       		.uleb128 0x1
 6470 1d0e 9C       		.byte	0x9c
 6471 1d0f 221D0000 		.4byte	0x1d22
 6472 1d13 2A       		.uleb128 0x2a
 6473 1d14 3A050000 		.4byte	.LASF150
 6474 1d18 01       		.byte	0x1
 6475 1d19 1904     		.2byte	0x419
 6476 1d1b 8F050000 		.4byte	0x58f
 6477 1d1f 01       		.uleb128 0x1
 6478 1d20 50       		.byte	0x50
 6479 1d21 00       		.byte	0
 6480 1d22 25       		.uleb128 0x25
 6481 1d23 03090000 		.4byte	.LASF206
 6482 1d27 01       		.byte	0x1
 6483 1d28 2804     		.2byte	0x428
 6484 1d2a 00000000 		.4byte	.LFB38
 6485 1d2e 0C000000 		.4byte	.LFE38-.LFB38
 6486 1d32 01       		.uleb128 0x1
 6487 1d33 9C       		.byte	0x9c
 6488 1d34 471D0000 		.4byte	0x1d47
 6489 1d38 2A       		.uleb128 0x2a
 6490 1d39 3A050000 		.4byte	.LASF150
 6491 1d3d 01       		.byte	0x1
 6492 1d3e 2804     		.2byte	0x428
 6493 1d40 8F050000 		.4byte	0x58f
 6494 1d44 01       		.uleb128 0x1
 6495 1d45 50       		.byte	0x50
 6496 1d46 00       		.byte	0
 6497 1d47 25       		.uleb128 0x25
 6498 1d48 2A080000 		.4byte	.LASF207
 6499 1d4c 01       		.byte	0x1
 6500 1d4d 2F04     		.2byte	0x42f
 6501 1d4f 00000000 		.4byte	.LFB39
 6502 1d53 1C000000 		.4byte	.LFE39-.LFB39
 6503 1d57 01       		.uleb128 0x1
 6504 1d58 9C       		.byte	0x9c
 6505 1d59 AA1D0000 		.4byte	0x1daa
 6506 1d5d 16       		.uleb128 0x16
 6507 1d5e 3A050000 		.4byte	.LASF150
 6508 1d62 01       		.byte	0x1
 6509 1d63 2F04     		.2byte	0x42f
 6510 1d65 8F050000 		.4byte	0x58f
 6511 1d69 6D150000 		.4byte	.LLST124
 6512 1d6d 16       		.uleb128 0x16
 6513 1d6e 8A0C0000 		.4byte	.LASF27
 6514 1d72 01       		.byte	0x1
 6515 1d73 2F04     		.2byte	0x42f
 6516 1d75 58030000 		.4byte	0x358
 6517 1d79 96150000 		.4byte	.LLST125
 6518 1d7d 1A       		.uleb128 0x1a
ARM GAS  C:\Users\brian\AppData\Local\Temp\ccTYhJxe.s 			page 145


 6519 1d7e 12000000 		.4byte	.LVL384
 6520 1d82 7F090000 		.4byte	0x97f
 6521 1d86 991D0000 		.4byte	0x1d99
 6522 1d8a 1B       		.uleb128 0x1b
 6523 1d8b 01       		.uleb128 0x1
 6524 1d8c 50       		.byte	0x50
 6525 1d8d 03       		.uleb128 0x3
 6526 1d8e 74       		.byte	0x74
 6527 1d8f F400     		.sleb128 116
 6528 1d91 1B       		.uleb128 0x1b
 6529 1d92 01       		.uleb128 0x1
 6530 1d93 51       		.byte	0x51
 6531 1d94 03       		.uleb128 0x3
 6532 1d95 F3       		.byte	0xf3
 6533 1d96 01       		.uleb128 0x1
 6534 1d97 51       		.byte	0x51
 6535 1d98 00       		.byte	0
 6536 1d99 1C       		.uleb128 0x1c
 6537 1d9a 18000000 		.4byte	.LVL385
 6538 1d9e E61B0000 		.4byte	0x1be6
 6539 1da2 1B       		.uleb128 0x1b
 6540 1da3 01       		.uleb128 0x1
 6541 1da4 50       		.byte	0x50
 6542 1da5 02       		.uleb128 0x2
 6543 1da6 74       		.byte	0x74
 6544 1da7 00       		.sleb128 0
 6545 1da8 00       		.byte	0
 6546 1da9 00       		.byte	0
 6547 1daa 15       		.uleb128 0x15
 6548 1dab 0E0D0000 		.4byte	.LASF208
 6549 1daf 01       		.byte	0x1
 6550 1db0 5404     		.2byte	0x454
 6551 1db2 A2000000 		.4byte	0xa2
 6552 1db6 00000000 		.4byte	.LFB41
 6553 1dba 10000000 		.4byte	.LFE41-.LFB41
 6554 1dbe 01       		.uleb128 0x1
 6555 1dbf 9C       		.byte	0x9c
 6556 1dc0 FD1D0000 		.4byte	0x1dfd
 6557 1dc4 16       		.uleb128 0x16
 6558 1dc5 3A050000 		.4byte	.LASF150
 6559 1dc9 01       		.byte	0x1
 6560 1dca 5404     		.2byte	0x454
 6561 1dcc 8F050000 		.4byte	0x58f
 6562 1dd0 C2150000 		.4byte	.LLST126
 6563 1dd4 23       		.uleb128 0x23
 6564 1dd5 73747200 		.ascii	"str\000"
 6565 1dd9 01       		.byte	0x1
 6566 1dda 5404     		.2byte	0x454
 6567 1ddc E0130000 		.4byte	0x13e0
 6568 1de0 E3150000 		.4byte	.LLST127
 6569 1de4 1C       		.uleb128 0x1c
 6570 1de5 0A000000 		.4byte	.LVL388
 6571 1de9 63130000 		.4byte	0x1363
 6572 1ded 1B       		.uleb128 0x1b
 6573 1dee 01       		.uleb128 0x1
 6574 1def 50       		.byte	0x50
 6575 1df0 03       		.uleb128 0x3
ARM GAS  C:\Users\brian\AppData\Local\Temp\ccTYhJxe.s 			page 146


 6576 1df1 F3       		.byte	0xf3
 6577 1df2 01       		.uleb128 0x1
 6578 1df3 50       		.byte	0x50
 6579 1df4 1B       		.uleb128 0x1b
 6580 1df5 01       		.uleb128 0x1
 6581 1df6 51       		.byte	0x51
 6582 1df7 03       		.uleb128 0x3
 6583 1df8 F3       		.byte	0xf3
 6584 1df9 01       		.uleb128 0x1
 6585 1dfa 51       		.byte	0x51
 6586 1dfb 00       		.byte	0
 6587 1dfc 00       		.byte	0
 6588 1dfd 15       		.uleb128 0x15
 6589 1dfe 1E090000 		.4byte	.LASF209
 6590 1e02 01       		.byte	0x1
 6591 1e03 A204     		.2byte	0x4a2
 6592 1e05 97000000 		.4byte	0x97
 6593 1e09 00000000 		.4byte	.LFB44
 6594 1e0d 22000000 		.4byte	.LFE44-.LFB44
 6595 1e11 01       		.uleb128 0x1
 6596 1e12 9C       		.byte	0x9c
 6597 1e13 831E0000 		.4byte	0x1e83
 6598 1e17 16       		.uleb128 0x16
 6599 1e18 3A050000 		.4byte	.LASF150
 6600 1e1c 01       		.byte	0x1
 6601 1e1d A204     		.2byte	0x4a2
 6602 1e1f 8F050000 		.4byte	0x58f
 6603 1e23 04160000 		.4byte	.LLST128
 6604 1e27 23       		.uleb128 0x23
 6605 1e28 7300     		.ascii	"s\000"
 6606 1e2a 01       		.byte	0x1
 6607 1e2b A204     		.2byte	0x4a2
 6608 1e2d E0130000 		.4byte	0x13e0
 6609 1e31 25160000 		.4byte	.LLST129
 6610 1e35 17       		.uleb128 0x17
 6611 1e36 7700     		.ascii	"w\000"
 6612 1e38 01       		.byte	0x1
 6613 1e39 A404     		.2byte	0x4a4
 6614 1e3b A2000000 		.4byte	0xa2
 6615 1e3f 02       		.uleb128 0x2
 6616 1e40 91       		.byte	0x91
 6617 1e41 77       		.sleb128 -9
 6618 1e42 17       		.uleb128 0x17
 6619 1e43 6F7800   		.ascii	"ox\000"
 6620 1e46 01       		.byte	0x1
 6621 1e47 A504     		.2byte	0x4a5
 6622 1e49 97000000 		.4byte	0x97
 6623 1e4d 02       		.uleb128 0x2
 6624 1e4e 91       		.byte	0x91
 6625 1e4f 76       		.sleb128 -10
 6626 1e50 17       		.uleb128 0x17
 6627 1e51 647800   		.ascii	"dx\000"
 6628 1e54 01       		.byte	0x1
 6629 1e55 A504     		.2byte	0x4a5
 6630 1e57 97000000 		.4byte	0x97
 6631 1e5b 02       		.uleb128 0x2
 6632 1e5c 91       		.byte	0x91
ARM GAS  C:\Users\brian\AppData\Local\Temp\ccTYhJxe.s 			page 147


 6633 1e5d 75       		.sleb128 -11
 6634 1e5e 1C       		.uleb128 0x1c
 6635 1e5f 18000000 		.4byte	.LVL391
 6636 1e63 F2130000 		.4byte	0x13f2
 6637 1e67 1B       		.uleb128 0x1b
 6638 1e68 01       		.uleb128 0x1
 6639 1e69 50       		.byte	0x50
 6640 1e6a 03       		.uleb128 0x3
 6641 1e6b F3       		.byte	0xf3
 6642 1e6c 01       		.uleb128 0x1
 6643 1e6d 50       		.byte	0x50
 6644 1e6e 1B       		.uleb128 0x1b
 6645 1e6f 01       		.uleb128 0x1
 6646 1e70 52       		.byte	0x52
 6647 1e71 02       		.uleb128 0x2
 6648 1e72 91       		.byte	0x91
 6649 1e73 77       		.sleb128 -9
 6650 1e74 1B       		.uleb128 0x1b
 6651 1e75 01       		.uleb128 0x1
 6652 1e76 53       		.byte	0x53
 6653 1e77 02       		.uleb128 0x2
 6654 1e78 91       		.byte	0x91
 6655 1e79 76       		.sleb128 -10
 6656 1e7a 1B       		.uleb128 0x1b
 6657 1e7b 02       		.uleb128 0x2
 6658 1e7c 7D       		.byte	0x7d
 6659 1e7d 00       		.sleb128 0
 6660 1e7e 02       		.uleb128 0x2
 6661 1e7f 91       		.byte	0x91
 6662 1e80 75       		.sleb128 -11
 6663 1e81 00       		.byte	0
 6664 1e82 00       		.byte	0
 6665 1e83 15       		.uleb128 0x15
 6666 1e84 01020000 		.4byte	.LASF210
 6667 1e88 01       		.byte	0x1
 6668 1e89 0D05     		.2byte	0x50d
 6669 1e8b 63030000 		.4byte	0x363
 6670 1e8f 00000000 		.4byte	.LFB45
 6671 1e93 10000000 		.4byte	.LFE45-.LFB45
 6672 1e97 01       		.uleb128 0x1
 6673 1e98 9C       		.byte	0x9c
 6674 1e99 D41E0000 		.4byte	0x1ed4
 6675 1e9d 16       		.uleb128 0x16
 6676 1e9e 3A050000 		.4byte	.LASF150
 6677 1ea2 01       		.byte	0x1
 6678 1ea3 0D05     		.2byte	0x50d
 6679 1ea5 8F050000 		.4byte	0x58f
 6680 1ea9 46160000 		.4byte	.LLST130
 6681 1ead 23       		.uleb128 0x23
 6682 1eae 7300     		.ascii	"s\000"
 6683 1eb0 01       		.byte	0x1
 6684 1eb1 0D05     		.2byte	0x50d
 6685 1eb3 E0130000 		.4byte	0x13e0
 6686 1eb7 67160000 		.4byte	.LLST131
 6687 1ebb 1C       		.uleb128 0x1c
 6688 1ebc 0A000000 		.4byte	.LVL393
 6689 1ec0 C1150000 		.4byte	0x15c1
ARM GAS  C:\Users\brian\AppData\Local\Temp\ccTYhJxe.s 			page 148


 6690 1ec4 1B       		.uleb128 0x1b
 6691 1ec5 01       		.uleb128 0x1
 6692 1ec6 50       		.byte	0x50
 6693 1ec7 03       		.uleb128 0x3
 6694 1ec8 F3       		.byte	0xf3
 6695 1ec9 01       		.uleb128 0x1
 6696 1eca 50       		.byte	0x50
 6697 1ecb 1B       		.uleb128 0x1b
 6698 1ecc 01       		.uleb128 0x1
 6699 1ecd 51       		.byte	0x51
 6700 1ece 03       		.uleb128 0x3
 6701 1ecf F3       		.byte	0xf3
 6702 1ed0 01       		.uleb128 0x1
 6703 1ed1 51       		.byte	0x51
 6704 1ed2 00       		.byte	0
 6705 1ed3 00       		.byte	0
 6706 1ed4 15       		.uleb128 0x15
 6707 1ed5 63020000 		.4byte	.LASF211
 6708 1ed9 01       		.byte	0x1
 6709 1eda 2505     		.2byte	0x525
 6710 1edc 63030000 		.4byte	0x363
 6711 1ee0 00000000 		.4byte	.LFB46
 6712 1ee4 10000000 		.4byte	.LFE46-.LFB46
 6713 1ee8 01       		.uleb128 0x1
 6714 1ee9 9C       		.byte	0x9c
 6715 1eea 271F0000 		.4byte	0x1f27
 6716 1eee 16       		.uleb128 0x16
 6717 1eef 3A050000 		.4byte	.LASF150
 6718 1ef3 01       		.byte	0x1
 6719 1ef4 2505     		.2byte	0x525
 6720 1ef6 8F050000 		.4byte	0x58f
 6721 1efa 88160000 		.4byte	.LLST132
 6722 1efe 23       		.uleb128 0x23
 6723 1eff 73747200 		.ascii	"str\000"
 6724 1f03 01       		.byte	0x1
 6725 1f04 2505     		.2byte	0x525
 6726 1f06 E0130000 		.4byte	0x13e0
 6727 1f0a A9160000 		.4byte	.LLST133
 6728 1f0e 1C       		.uleb128 0x1c
 6729 1f0f 0A000000 		.4byte	.LVL395
 6730 1f13 C1150000 		.4byte	0x15c1
 6731 1f17 1B       		.uleb128 0x1b
 6732 1f18 01       		.uleb128 0x1
 6733 1f19 50       		.byte	0x50
 6734 1f1a 03       		.uleb128 0x3
 6735 1f1b F3       		.byte	0xf3
 6736 1f1c 01       		.uleb128 0x1
 6737 1f1d 50       		.byte	0x50
 6738 1f1e 1B       		.uleb128 0x1b
 6739 1f1f 01       		.uleb128 0x1
 6740 1f20 51       		.byte	0x51
 6741 1f21 03       		.uleb128 0x3
 6742 1f22 F3       		.byte	0xf3
 6743 1f23 01       		.uleb128 0x1
 6744 1f24 51       		.byte	0x51
 6745 1f25 00       		.byte	0
 6746 1f26 00       		.byte	0
ARM GAS  C:\Users\brian\AppData\Local\Temp\ccTYhJxe.s 			page 149


 6747 1f27 25       		.uleb128 0x25
 6748 1f28 CD0D0000 		.4byte	.LASF212
 6749 1f2c 01       		.byte	0x1
 6750 1f2d 2D05     		.2byte	0x52d
 6751 1f2f 00000000 		.4byte	.LFB47
 6752 1f33 06000000 		.4byte	.LFE47-.LFB47
 6753 1f37 01       		.uleb128 0x1
 6754 1f38 9C       		.byte	0x9c
 6755 1f39 5A1F0000 		.4byte	0x1f5a
 6756 1f3d 2A       		.uleb128 0x2a
 6757 1f3e 3A050000 		.4byte	.LASF150
 6758 1f42 01       		.byte	0x1
 6759 1f43 2D05     		.2byte	0x52d
 6760 1f45 8F050000 		.4byte	0x58f
 6761 1f49 01       		.uleb128 0x1
 6762 1f4a 50       		.byte	0x50
 6763 1f4b 24       		.uleb128 0x24
 6764 1f4c 64697200 		.ascii	"dir\000"
 6765 1f50 01       		.byte	0x1
 6766 1f51 2D05     		.2byte	0x52d
 6767 1f53 A2000000 		.4byte	0xa2
 6768 1f57 01       		.uleb128 0x1
 6769 1f58 51       		.byte	0x51
 6770 1f59 00       		.byte	0
 6771 1f5a 2B       		.uleb128 0x2b
 6772 1f5b 46040000 		.4byte	.LASF213
 6773 1f5f 46040000 		.4byte	.LASF213
 6774 1f63 06       		.byte	0x6
 6775 1f64 8505     		.2byte	0x585
 6776 1f66 2B       		.uleb128 0x2b
 6777 1f67 BF060000 		.4byte	.LASF214
 6778 1f6b BF060000 		.4byte	.LASF214
 6779 1f6f 06       		.byte	0x6
 6780 1f70 9A05     		.2byte	0x59a
 6781 1f72 2B       		.uleb128 0x2b
 6782 1f73 71010000 		.4byte	.LASF215
 6783 1f77 71010000 		.4byte	.LASF215
 6784 1f7b 05       		.byte	0x5
 6785 1f7c DF03     		.2byte	0x3df
 6786 1f7e 2B       		.uleb128 0x2b
 6787 1f7f 8D060000 		.4byte	.LASF216
 6788 1f83 8D060000 		.4byte	.LASF216
 6789 1f87 06       		.byte	0x6
 6790 1f88 E205     		.2byte	0x5e2
 6791 1f8a 2B       		.uleb128 0x2b
 6792 1f8b C60A0000 		.4byte	.LASF217
 6793 1f8f C60A0000 		.4byte	.LASF217
 6794 1f93 06       		.byte	0x6
 6795 1f94 E305     		.2byte	0x5e3
 6796 1f96 00       		.byte	0
 6797              		.section	.debug_abbrev,"",%progbits
 6798              	.Ldebug_abbrev0:
 6799 0000 01       		.uleb128 0x1
 6800 0001 11       		.uleb128 0x11
 6801 0002 01       		.byte	0x1
 6802 0003 25       		.uleb128 0x25
 6803 0004 0E       		.uleb128 0xe
ARM GAS  C:\Users\brian\AppData\Local\Temp\ccTYhJxe.s 			page 150


 6804 0005 13       		.uleb128 0x13
 6805 0006 0B       		.uleb128 0xb
 6806 0007 03       		.uleb128 0x3
 6807 0008 0E       		.uleb128 0xe
 6808 0009 1B       		.uleb128 0x1b
 6809 000a 0E       		.uleb128 0xe
 6810 000b 55       		.uleb128 0x55
 6811 000c 17       		.uleb128 0x17
 6812 000d 11       		.uleb128 0x11
 6813 000e 01       		.uleb128 0x1
 6814 000f 10       		.uleb128 0x10
 6815 0010 17       		.uleb128 0x17
 6816 0011 00       		.byte	0
 6817 0012 00       		.byte	0
 6818 0013 02       		.uleb128 0x2
 6819 0014 16       		.uleb128 0x16
 6820 0015 00       		.byte	0
 6821 0016 03       		.uleb128 0x3
 6822 0017 0E       		.uleb128 0xe
 6823 0018 3A       		.uleb128 0x3a
 6824 0019 0B       		.uleb128 0xb
 6825 001a 3B       		.uleb128 0x3b
 6826 001b 0B       		.uleb128 0xb
 6827 001c 49       		.uleb128 0x49
 6828 001d 13       		.uleb128 0x13
 6829 001e 00       		.byte	0
 6830 001f 00       		.byte	0
 6831 0020 03       		.uleb128 0x3
 6832 0021 24       		.uleb128 0x24
 6833 0022 00       		.byte	0
 6834 0023 0B       		.uleb128 0xb
 6835 0024 0B       		.uleb128 0xb
 6836 0025 3E       		.uleb128 0x3e
 6837 0026 0B       		.uleb128 0xb
 6838 0027 03       		.uleb128 0x3
 6839 0028 0E       		.uleb128 0xe
 6840 0029 00       		.byte	0
 6841 002a 00       		.byte	0
 6842 002b 04       		.uleb128 0x4
 6843 002c 24       		.uleb128 0x24
 6844 002d 00       		.byte	0
 6845 002e 0B       		.uleb128 0xb
 6846 002f 0B       		.uleb128 0xb
 6847 0030 3E       		.uleb128 0x3e
 6848 0031 0B       		.uleb128 0xb
 6849 0032 03       		.uleb128 0x3
 6850 0033 08       		.uleb128 0x8
 6851 0034 00       		.byte	0
 6852 0035 00       		.byte	0
 6853 0036 05       		.uleb128 0x5
 6854 0037 0F       		.uleb128 0xf
 6855 0038 00       		.byte	0
 6856 0039 0B       		.uleb128 0xb
 6857 003a 0B       		.uleb128 0xb
 6858 003b 00       		.byte	0
 6859 003c 00       		.byte	0
 6860 003d 06       		.uleb128 0x6
ARM GAS  C:\Users\brian\AppData\Local\Temp\ccTYhJxe.s 			page 151


 6861 003e 13       		.uleb128 0x13
 6862 003f 01       		.byte	0x1
 6863 0040 03       		.uleb128 0x3
 6864 0041 0E       		.uleb128 0xe
 6865 0042 0B       		.uleb128 0xb
 6866 0043 0B       		.uleb128 0xb
 6867 0044 3A       		.uleb128 0x3a
 6868 0045 0B       		.uleb128 0xb
 6869 0046 3B       		.uleb128 0x3b
 6870 0047 05       		.uleb128 0x5
 6871 0048 01       		.uleb128 0x1
 6872 0049 13       		.uleb128 0x13
 6873 004a 00       		.byte	0
 6874 004b 00       		.byte	0
 6875 004c 07       		.uleb128 0x7
 6876 004d 0D       		.uleb128 0xd
 6877 004e 00       		.byte	0
 6878 004f 03       		.uleb128 0x3
 6879 0050 0E       		.uleb128 0xe
 6880 0051 3A       		.uleb128 0x3a
 6881 0052 0B       		.uleb128 0xb
 6882 0053 3B       		.uleb128 0x3b
 6883 0054 05       		.uleb128 0x5
 6884 0055 49       		.uleb128 0x49
 6885 0056 13       		.uleb128 0x13
 6886 0057 38       		.uleb128 0x38
 6887 0058 0B       		.uleb128 0xb
 6888 0059 00       		.byte	0
 6889 005a 00       		.byte	0
 6890 005b 08       		.uleb128 0x8
 6891 005c 13       		.uleb128 0x13
 6892 005d 01       		.byte	0x1
 6893 005e 03       		.uleb128 0x3
 6894 005f 0E       		.uleb128 0xe
 6895 0060 0B       		.uleb128 0xb
 6896 0061 0B       		.uleb128 0xb
 6897 0062 3A       		.uleb128 0x3a
 6898 0063 0B       		.uleb128 0xb
 6899 0064 3B       		.uleb128 0x3b
 6900 0065 0B       		.uleb128 0xb
 6901 0066 01       		.uleb128 0x1
 6902 0067 13       		.uleb128 0x13
 6903 0068 00       		.byte	0
 6904 0069 00       		.byte	0
 6905 006a 09       		.uleb128 0x9
 6906 006b 0D       		.uleb128 0xd
 6907 006c 00       		.byte	0
 6908 006d 03       		.uleb128 0x3
 6909 006e 0E       		.uleb128 0xe
 6910 006f 3A       		.uleb128 0x3a
 6911 0070 0B       		.uleb128 0xb
 6912 0071 3B       		.uleb128 0x3b
 6913 0072 0B       		.uleb128 0xb
 6914 0073 49       		.uleb128 0x49
 6915 0074 13       		.uleb128 0x13
 6916 0075 38       		.uleb128 0x38
 6917 0076 0B       		.uleb128 0xb
ARM GAS  C:\Users\brian\AppData\Local\Temp\ccTYhJxe.s 			page 152


 6918 0077 00       		.byte	0
 6919 0078 00       		.byte	0
 6920 0079 0A       		.uleb128 0xa
 6921 007a 0F       		.uleb128 0xf
 6922 007b 00       		.byte	0
 6923 007c 0B       		.uleb128 0xb
 6924 007d 0B       		.uleb128 0xb
 6925 007e 49       		.uleb128 0x49
 6926 007f 13       		.uleb128 0x13
 6927 0080 00       		.byte	0
 6928 0081 00       		.byte	0
 6929 0082 0B       		.uleb128 0xb
 6930 0083 15       		.uleb128 0x15
 6931 0084 01       		.byte	0x1
 6932 0085 27       		.uleb128 0x27
 6933 0086 19       		.uleb128 0x19
 6934 0087 49       		.uleb128 0x49
 6935 0088 13       		.uleb128 0x13
 6936 0089 01       		.uleb128 0x1
 6937 008a 13       		.uleb128 0x13
 6938 008b 00       		.byte	0
 6939 008c 00       		.byte	0
 6940 008d 0C       		.uleb128 0xc
 6941 008e 05       		.uleb128 0x5
 6942 008f 00       		.byte	0
 6943 0090 49       		.uleb128 0x49
 6944 0091 13       		.uleb128 0x13
 6945 0092 00       		.byte	0
 6946 0093 00       		.byte	0
 6947 0094 0D       		.uleb128 0xd
 6948 0095 26       		.uleb128 0x26
 6949 0096 00       		.byte	0
 6950 0097 49       		.uleb128 0x49
 6951 0098 13       		.uleb128 0x13
 6952 0099 00       		.byte	0
 6953 009a 00       		.byte	0
 6954 009b 0E       		.uleb128 0xe
 6955 009c 0D       		.uleb128 0xd
 6956 009d 00       		.byte	0
 6957 009e 03       		.uleb128 0x3
 6958 009f 08       		.uleb128 0x8
 6959 00a0 3A       		.uleb128 0x3a
 6960 00a1 0B       		.uleb128 0xb
 6961 00a2 3B       		.uleb128 0x3b
 6962 00a3 05       		.uleb128 0x5
 6963 00a4 49       		.uleb128 0x49
 6964 00a5 13       		.uleb128 0x13
 6965 00a6 38       		.uleb128 0x38
 6966 00a7 0B       		.uleb128 0xb
 6967 00a8 00       		.byte	0
 6968 00a9 00       		.byte	0
 6969 00aa 0F       		.uleb128 0xf
 6970 00ab 15       		.uleb128 0x15
 6971 00ac 01       		.byte	0x1
 6972 00ad 27       		.uleb128 0x27
 6973 00ae 19       		.uleb128 0x19
 6974 00af 01       		.uleb128 0x1
ARM GAS  C:\Users\brian\AppData\Local\Temp\ccTYhJxe.s 			page 153


 6975 00b0 13       		.uleb128 0x13
 6976 00b1 00       		.byte	0
 6977 00b2 00       		.byte	0
 6978 00b3 10       		.uleb128 0x10
 6979 00b4 16       		.uleb128 0x16
 6980 00b5 00       		.byte	0
 6981 00b6 03       		.uleb128 0x3
 6982 00b7 0E       		.uleb128 0xe
 6983 00b8 3A       		.uleb128 0x3a
 6984 00b9 0B       		.uleb128 0xb
 6985 00ba 3B       		.uleb128 0x3b
 6986 00bb 05       		.uleb128 0x5
 6987 00bc 49       		.uleb128 0x49
 6988 00bd 13       		.uleb128 0x13
 6989 00be 00       		.byte	0
 6990 00bf 00       		.byte	0
 6991 00c0 11       		.uleb128 0x11
 6992 00c1 2E       		.uleb128 0x2e
 6993 00c2 01       		.byte	0x1
 6994 00c3 03       		.uleb128 0x3
 6995 00c4 0E       		.uleb128 0xe
 6996 00c5 3A       		.uleb128 0x3a
 6997 00c6 0B       		.uleb128 0xb
 6998 00c7 3B       		.uleb128 0x3b
 6999 00c8 0B       		.uleb128 0xb
 7000 00c9 27       		.uleb128 0x27
 7001 00ca 19       		.uleb128 0x19
 7002 00cb 49       		.uleb128 0x49
 7003 00cc 13       		.uleb128 0x13
 7004 00cd 11       		.uleb128 0x11
 7005 00ce 01       		.uleb128 0x1
 7006 00cf 12       		.uleb128 0x12
 7007 00d0 06       		.uleb128 0x6
 7008 00d1 40       		.uleb128 0x40
 7009 00d2 18       		.uleb128 0x18
 7010 00d3 9742     		.uleb128 0x2117
 7011 00d5 19       		.uleb128 0x19
 7012 00d6 01       		.uleb128 0x1
 7013 00d7 13       		.uleb128 0x13
 7014 00d8 00       		.byte	0
 7015 00d9 00       		.byte	0
 7016 00da 12       		.uleb128 0x12
 7017 00db 05       		.uleb128 0x5
 7018 00dc 00       		.byte	0
 7019 00dd 03       		.uleb128 0x3
 7020 00de 0E       		.uleb128 0xe
 7021 00df 3A       		.uleb128 0x3a
 7022 00e0 0B       		.uleb128 0xb
 7023 00e1 3B       		.uleb128 0x3b
 7024 00e2 0B       		.uleb128 0xb
 7025 00e3 49       		.uleb128 0x49
 7026 00e4 13       		.uleb128 0x13
 7027 00e5 02       		.uleb128 0x2
 7028 00e6 17       		.uleb128 0x17
 7029 00e7 00       		.byte	0
 7030 00e8 00       		.byte	0
 7031 00e9 13       		.uleb128 0x13
ARM GAS  C:\Users\brian\AppData\Local\Temp\ccTYhJxe.s 			page 154


 7032 00ea 05       		.uleb128 0x5
 7033 00eb 00       		.byte	0
 7034 00ec 03       		.uleb128 0x3
 7035 00ed 0E       		.uleb128 0xe
 7036 00ee 3A       		.uleb128 0x3a
 7037 00ef 0B       		.uleb128 0xb
 7038 00f0 3B       		.uleb128 0x3b
 7039 00f1 0B       		.uleb128 0xb
 7040 00f2 49       		.uleb128 0x49
 7041 00f3 13       		.uleb128 0x13
 7042 00f4 02       		.uleb128 0x2
 7043 00f5 18       		.uleb128 0x18
 7044 00f6 00       		.byte	0
 7045 00f7 00       		.byte	0
 7046 00f8 14       		.uleb128 0x14
 7047 00f9 34       		.uleb128 0x34
 7048 00fa 00       		.byte	0
 7049 00fb 03       		.uleb128 0x3
 7050 00fc 08       		.uleb128 0x8
 7051 00fd 3A       		.uleb128 0x3a
 7052 00fe 0B       		.uleb128 0xb
 7053 00ff 3B       		.uleb128 0x3b
 7054 0100 0B       		.uleb128 0xb
 7055 0101 49       		.uleb128 0x49
 7056 0102 13       		.uleb128 0x13
 7057 0103 02       		.uleb128 0x2
 7058 0104 17       		.uleb128 0x17
 7059 0105 00       		.byte	0
 7060 0106 00       		.byte	0
 7061 0107 15       		.uleb128 0x15
 7062 0108 2E       		.uleb128 0x2e
 7063 0109 01       		.byte	0x1
 7064 010a 3F       		.uleb128 0x3f
 7065 010b 19       		.uleb128 0x19
 7066 010c 03       		.uleb128 0x3
 7067 010d 0E       		.uleb128 0xe
 7068 010e 3A       		.uleb128 0x3a
 7069 010f 0B       		.uleb128 0xb
 7070 0110 3B       		.uleb128 0x3b
 7071 0111 05       		.uleb128 0x5
 7072 0112 27       		.uleb128 0x27
 7073 0113 19       		.uleb128 0x19
 7074 0114 49       		.uleb128 0x49
 7075 0115 13       		.uleb128 0x13
 7076 0116 11       		.uleb128 0x11
 7077 0117 01       		.uleb128 0x1
 7078 0118 12       		.uleb128 0x12
 7079 0119 06       		.uleb128 0x6
 7080 011a 40       		.uleb128 0x40
 7081 011b 18       		.uleb128 0x18
 7082 011c 9742     		.uleb128 0x2117
 7083 011e 19       		.uleb128 0x19
 7084 011f 01       		.uleb128 0x1
 7085 0120 13       		.uleb128 0x13
 7086 0121 00       		.byte	0
 7087 0122 00       		.byte	0
 7088 0123 16       		.uleb128 0x16
ARM GAS  C:\Users\brian\AppData\Local\Temp\ccTYhJxe.s 			page 155


 7089 0124 05       		.uleb128 0x5
 7090 0125 00       		.byte	0
 7091 0126 03       		.uleb128 0x3
 7092 0127 0E       		.uleb128 0xe
 7093 0128 3A       		.uleb128 0x3a
 7094 0129 0B       		.uleb128 0xb
 7095 012a 3B       		.uleb128 0x3b
 7096 012b 05       		.uleb128 0x5
 7097 012c 49       		.uleb128 0x49
 7098 012d 13       		.uleb128 0x13
 7099 012e 02       		.uleb128 0x2
 7100 012f 17       		.uleb128 0x17
 7101 0130 00       		.byte	0
 7102 0131 00       		.byte	0
 7103 0132 17       		.uleb128 0x17
 7104 0133 34       		.uleb128 0x34
 7105 0134 00       		.byte	0
 7106 0135 03       		.uleb128 0x3
 7107 0136 08       		.uleb128 0x8
 7108 0137 3A       		.uleb128 0x3a
 7109 0138 0B       		.uleb128 0xb
 7110 0139 3B       		.uleb128 0x3b
 7111 013a 05       		.uleb128 0x5
 7112 013b 49       		.uleb128 0x49
 7113 013c 13       		.uleb128 0x13
 7114 013d 02       		.uleb128 0x2
 7115 013e 18       		.uleb128 0x18
 7116 013f 00       		.byte	0
 7117 0140 00       		.byte	0
 7118 0141 18       		.uleb128 0x18
 7119 0142 34       		.uleb128 0x34
 7120 0143 00       		.byte	0
 7121 0144 03       		.uleb128 0x3
 7122 0145 08       		.uleb128 0x8
 7123 0146 3A       		.uleb128 0x3a
 7124 0147 0B       		.uleb128 0xb
 7125 0148 3B       		.uleb128 0x3b
 7126 0149 05       		.uleb128 0x5
 7127 014a 49       		.uleb128 0x49
 7128 014b 13       		.uleb128 0x13
 7129 014c 02       		.uleb128 0x2
 7130 014d 17       		.uleb128 0x17
 7131 014e 00       		.byte	0
 7132 014f 00       		.byte	0
 7133 0150 19       		.uleb128 0x19
 7134 0151 2E       		.uleb128 0x2e
 7135 0152 01       		.byte	0x1
 7136 0153 3F       		.uleb128 0x3f
 7137 0154 19       		.uleb128 0x19
 7138 0155 03       		.uleb128 0x3
 7139 0156 0E       		.uleb128 0xe
 7140 0157 3A       		.uleb128 0x3a
 7141 0158 0B       		.uleb128 0xb
 7142 0159 3B       		.uleb128 0x3b
 7143 015a 0B       		.uleb128 0xb
 7144 015b 27       		.uleb128 0x27
 7145 015c 19       		.uleb128 0x19
ARM GAS  C:\Users\brian\AppData\Local\Temp\ccTYhJxe.s 			page 156


 7146 015d 11       		.uleb128 0x11
 7147 015e 01       		.uleb128 0x1
 7148 015f 12       		.uleb128 0x12
 7149 0160 06       		.uleb128 0x6
 7150 0161 40       		.uleb128 0x40
 7151 0162 18       		.uleb128 0x18
 7152 0163 9742     		.uleb128 0x2117
 7153 0165 19       		.uleb128 0x19
 7154 0166 01       		.uleb128 0x1
 7155 0167 13       		.uleb128 0x13
 7156 0168 00       		.byte	0
 7157 0169 00       		.byte	0
 7158 016a 1A       		.uleb128 0x1a
 7159 016b 898201   		.uleb128 0x4109
 7160 016e 01       		.byte	0x1
 7161 016f 11       		.uleb128 0x11
 7162 0170 01       		.uleb128 0x1
 7163 0171 31       		.uleb128 0x31
 7164 0172 13       		.uleb128 0x13
 7165 0173 01       		.uleb128 0x1
 7166 0174 13       		.uleb128 0x13
 7167 0175 00       		.byte	0
 7168 0176 00       		.byte	0
 7169 0177 1B       		.uleb128 0x1b
 7170 0178 8A8201   		.uleb128 0x410a
 7171 017b 00       		.byte	0
 7172 017c 02       		.uleb128 0x2
 7173 017d 18       		.uleb128 0x18
 7174 017e 9142     		.uleb128 0x2111
 7175 0180 18       		.uleb128 0x18
 7176 0181 00       		.byte	0
 7177 0182 00       		.byte	0
 7178 0183 1C       		.uleb128 0x1c
 7179 0184 898201   		.uleb128 0x4109
 7180 0187 01       		.byte	0x1
 7181 0188 11       		.uleb128 0x11
 7182 0189 01       		.uleb128 0x1
 7183 018a 31       		.uleb128 0x31
 7184 018b 13       		.uleb128 0x13
 7185 018c 00       		.byte	0
 7186 018d 00       		.byte	0
 7187 018e 1D       		.uleb128 0x1d
 7188 018f 2E       		.uleb128 0x2e
 7189 0190 01       		.byte	0x1
 7190 0191 3F       		.uleb128 0x3f
 7191 0192 19       		.uleb128 0x19
 7192 0193 03       		.uleb128 0x3
 7193 0194 0E       		.uleb128 0xe
 7194 0195 3A       		.uleb128 0x3a
 7195 0196 0B       		.uleb128 0xb
 7196 0197 3B       		.uleb128 0x3b
 7197 0198 0B       		.uleb128 0xb
 7198 0199 27       		.uleb128 0x27
 7199 019a 19       		.uleb128 0x19
 7200 019b 49       		.uleb128 0x49
 7201 019c 13       		.uleb128 0x13
 7202 019d 11       		.uleb128 0x11
ARM GAS  C:\Users\brian\AppData\Local\Temp\ccTYhJxe.s 			page 157


 7203 019e 01       		.uleb128 0x1
 7204 019f 12       		.uleb128 0x12
 7205 01a0 06       		.uleb128 0x6
 7206 01a1 40       		.uleb128 0x40
 7207 01a2 18       		.uleb128 0x18
 7208 01a3 9742     		.uleb128 0x2117
 7209 01a5 19       		.uleb128 0x19
 7210 01a6 01       		.uleb128 0x1
 7211 01a7 13       		.uleb128 0x13
 7212 01a8 00       		.byte	0
 7213 01a9 00       		.byte	0
 7214 01aa 1E       		.uleb128 0x1e
 7215 01ab 34       		.uleb128 0x34
 7216 01ac 00       		.byte	0
 7217 01ad 03       		.uleb128 0x3
 7218 01ae 0E       		.uleb128 0xe
 7219 01af 3A       		.uleb128 0x3a
 7220 01b0 0B       		.uleb128 0xb
 7221 01b1 3B       		.uleb128 0x3b
 7222 01b2 0B       		.uleb128 0xb
 7223 01b3 49       		.uleb128 0x49
 7224 01b4 13       		.uleb128 0x13
 7225 01b5 02       		.uleb128 0x2
 7226 01b6 17       		.uleb128 0x17
 7227 01b7 00       		.byte	0
 7228 01b8 00       		.byte	0
 7229 01b9 1F       		.uleb128 0x1f
 7230 01ba 05       		.uleb128 0x5
 7231 01bb 00       		.byte	0
 7232 01bc 03       		.uleb128 0x3
 7233 01bd 08       		.uleb128 0x8
 7234 01be 3A       		.uleb128 0x3a
 7235 01bf 0B       		.uleb128 0xb
 7236 01c0 3B       		.uleb128 0x3b
 7237 01c1 0B       		.uleb128 0xb
 7238 01c2 49       		.uleb128 0x49
 7239 01c3 13       		.uleb128 0x13
 7240 01c4 02       		.uleb128 0x2
 7241 01c5 17       		.uleb128 0x17
 7242 01c6 00       		.byte	0
 7243 01c7 00       		.byte	0
 7244 01c8 20       		.uleb128 0x20
 7245 01c9 0B       		.uleb128 0xb
 7246 01ca 01       		.byte	0x1
 7247 01cb 11       		.uleb128 0x11
 7248 01cc 01       		.uleb128 0x1
 7249 01cd 12       		.uleb128 0x12
 7250 01ce 06       		.uleb128 0x6
 7251 01cf 00       		.byte	0
 7252 01d0 00       		.byte	0
 7253 01d1 21       		.uleb128 0x21
 7254 01d2 2E       		.uleb128 0x2e
 7255 01d3 01       		.byte	0x1
 7256 01d4 03       		.uleb128 0x3
 7257 01d5 0E       		.uleb128 0xe
 7258 01d6 3A       		.uleb128 0x3a
 7259 01d7 0B       		.uleb128 0xb
ARM GAS  C:\Users\brian\AppData\Local\Temp\ccTYhJxe.s 			page 158


 7260 01d8 3B       		.uleb128 0x3b
 7261 01d9 05       		.uleb128 0x5
 7262 01da 27       		.uleb128 0x27
 7263 01db 19       		.uleb128 0x19
 7264 01dc 11       		.uleb128 0x11
 7265 01dd 01       		.uleb128 0x1
 7266 01de 12       		.uleb128 0x12
 7267 01df 06       		.uleb128 0x6
 7268 01e0 40       		.uleb128 0x40
 7269 01e1 18       		.uleb128 0x18
 7270 01e2 9742     		.uleb128 0x2117
 7271 01e4 19       		.uleb128 0x19
 7272 01e5 01       		.uleb128 0x1
 7273 01e6 13       		.uleb128 0x13
 7274 01e7 00       		.byte	0
 7275 01e8 00       		.byte	0
 7276 01e9 22       		.uleb128 0x22
 7277 01ea 34       		.uleb128 0x34
 7278 01eb 00       		.byte	0
 7279 01ec 03       		.uleb128 0x3
 7280 01ed 0E       		.uleb128 0xe
 7281 01ee 3A       		.uleb128 0x3a
 7282 01ef 0B       		.uleb128 0xb
 7283 01f0 3B       		.uleb128 0x3b
 7284 01f1 05       		.uleb128 0x5
 7285 01f2 49       		.uleb128 0x49
 7286 01f3 13       		.uleb128 0x13
 7287 01f4 02       		.uleb128 0x2
 7288 01f5 18       		.uleb128 0x18
 7289 01f6 00       		.byte	0
 7290 01f7 00       		.byte	0
 7291 01f8 23       		.uleb128 0x23
 7292 01f9 05       		.uleb128 0x5
 7293 01fa 00       		.byte	0
 7294 01fb 03       		.uleb128 0x3
 7295 01fc 08       		.uleb128 0x8
 7296 01fd 3A       		.uleb128 0x3a
 7297 01fe 0B       		.uleb128 0xb
 7298 01ff 3B       		.uleb128 0x3b
 7299 0200 05       		.uleb128 0x5
 7300 0201 49       		.uleb128 0x49
 7301 0202 13       		.uleb128 0x13
 7302 0203 02       		.uleb128 0x2
 7303 0204 17       		.uleb128 0x17
 7304 0205 00       		.byte	0
 7305 0206 00       		.byte	0
 7306 0207 24       		.uleb128 0x24
 7307 0208 05       		.uleb128 0x5
 7308 0209 00       		.byte	0
 7309 020a 03       		.uleb128 0x3
 7310 020b 08       		.uleb128 0x8
 7311 020c 3A       		.uleb128 0x3a
 7312 020d 0B       		.uleb128 0xb
 7313 020e 3B       		.uleb128 0x3b
 7314 020f 05       		.uleb128 0x5
 7315 0210 49       		.uleb128 0x49
 7316 0211 13       		.uleb128 0x13
ARM GAS  C:\Users\brian\AppData\Local\Temp\ccTYhJxe.s 			page 159


 7317 0212 02       		.uleb128 0x2
 7318 0213 18       		.uleb128 0x18
 7319 0214 00       		.byte	0
 7320 0215 00       		.byte	0
 7321 0216 25       		.uleb128 0x25
 7322 0217 2E       		.uleb128 0x2e
 7323 0218 01       		.byte	0x1
 7324 0219 3F       		.uleb128 0x3f
 7325 021a 19       		.uleb128 0x19
 7326 021b 03       		.uleb128 0x3
 7327 021c 0E       		.uleb128 0xe
 7328 021d 3A       		.uleb128 0x3a
 7329 021e 0B       		.uleb128 0xb
 7330 021f 3B       		.uleb128 0x3b
 7331 0220 05       		.uleb128 0x5
 7332 0221 27       		.uleb128 0x27
 7333 0222 19       		.uleb128 0x19
 7334 0223 11       		.uleb128 0x11
 7335 0224 01       		.uleb128 0x1
 7336 0225 12       		.uleb128 0x12
 7337 0226 06       		.uleb128 0x6
 7338 0227 40       		.uleb128 0x40
 7339 0228 18       		.uleb128 0x18
 7340 0229 9742     		.uleb128 0x2117
 7341 022b 19       		.uleb128 0x19
 7342 022c 01       		.uleb128 0x1
 7343 022d 13       		.uleb128 0x13
 7344 022e 00       		.byte	0
 7345 022f 00       		.byte	0
 7346 0230 26       		.uleb128 0x26
 7347 0231 34       		.uleb128 0x34
 7348 0232 00       		.byte	0
 7349 0233 03       		.uleb128 0x3
 7350 0234 0E       		.uleb128 0xe
 7351 0235 3A       		.uleb128 0x3a
 7352 0236 0B       		.uleb128 0xb
 7353 0237 3B       		.uleb128 0x3b
 7354 0238 05       		.uleb128 0x5
 7355 0239 49       		.uleb128 0x49
 7356 023a 13       		.uleb128 0x13
 7357 023b 02       		.uleb128 0x2
 7358 023c 17       		.uleb128 0x17
 7359 023d 00       		.byte	0
 7360 023e 00       		.byte	0
 7361 023f 27       		.uleb128 0x27
 7362 0240 0B       		.uleb128 0xb
 7363 0241 01       		.byte	0x1
 7364 0242 11       		.uleb128 0x11
 7365 0243 01       		.uleb128 0x1
 7366 0244 12       		.uleb128 0x12
 7367 0245 06       		.uleb128 0x6
 7368 0246 01       		.uleb128 0x1
 7369 0247 13       		.uleb128 0x13
 7370 0248 00       		.byte	0
 7371 0249 00       		.byte	0
 7372 024a 28       		.uleb128 0x28
 7373 024b 2E       		.uleb128 0x2e
ARM GAS  C:\Users\brian\AppData\Local\Temp\ccTYhJxe.s 			page 160


 7374 024c 01       		.byte	0x1
 7375 024d 03       		.uleb128 0x3
 7376 024e 0E       		.uleb128 0xe
 7377 024f 3A       		.uleb128 0x3a
 7378 0250 0B       		.uleb128 0xb
 7379 0251 3B       		.uleb128 0x3b
 7380 0252 05       		.uleb128 0x5
 7381 0253 27       		.uleb128 0x27
 7382 0254 19       		.uleb128 0x19
 7383 0255 49       		.uleb128 0x49
 7384 0256 13       		.uleb128 0x13
 7385 0257 11       		.uleb128 0x11
 7386 0258 01       		.uleb128 0x1
 7387 0259 12       		.uleb128 0x12
 7388 025a 06       		.uleb128 0x6
 7389 025b 40       		.uleb128 0x40
 7390 025c 18       		.uleb128 0x18
 7391 025d 9742     		.uleb128 0x2117
 7392 025f 19       		.uleb128 0x19
 7393 0260 01       		.uleb128 0x1
 7394 0261 13       		.uleb128 0x13
 7395 0262 00       		.byte	0
 7396 0263 00       		.byte	0
 7397 0264 29       		.uleb128 0x29
 7398 0265 898201   		.uleb128 0x4109
 7399 0268 01       		.byte	0x1
 7400 0269 11       		.uleb128 0x11
 7401 026a 01       		.uleb128 0x1
 7402 026b 01       		.uleb128 0x1
 7403 026c 13       		.uleb128 0x13
 7404 026d 00       		.byte	0
 7405 026e 00       		.byte	0
 7406 026f 2A       		.uleb128 0x2a
 7407 0270 05       		.uleb128 0x5
 7408 0271 00       		.byte	0
 7409 0272 03       		.uleb128 0x3
 7410 0273 0E       		.uleb128 0xe
 7411 0274 3A       		.uleb128 0x3a
 7412 0275 0B       		.uleb128 0xb
 7413 0276 3B       		.uleb128 0x3b
 7414 0277 05       		.uleb128 0x5
 7415 0278 49       		.uleb128 0x49
 7416 0279 13       		.uleb128 0x13
 7417 027a 02       		.uleb128 0x2
 7418 027b 18       		.uleb128 0x18
 7419 027c 00       		.byte	0
 7420 027d 00       		.byte	0
 7421 027e 2B       		.uleb128 0x2b
 7422 027f 2E       		.uleb128 0x2e
 7423 0280 00       		.byte	0
 7424 0281 3F       		.uleb128 0x3f
 7425 0282 19       		.uleb128 0x19
 7426 0283 3C       		.uleb128 0x3c
 7427 0284 19       		.uleb128 0x19
 7428 0285 6E       		.uleb128 0x6e
 7429 0286 0E       		.uleb128 0xe
 7430 0287 03       		.uleb128 0x3
ARM GAS  C:\Users\brian\AppData\Local\Temp\ccTYhJxe.s 			page 161


 7431 0288 0E       		.uleb128 0xe
 7432 0289 3A       		.uleb128 0x3a
 7433 028a 0B       		.uleb128 0xb
 7434 028b 3B       		.uleb128 0x3b
 7435 028c 05       		.uleb128 0x5
 7436 028d 00       		.byte	0
 7437 028e 00       		.byte	0
 7438 028f 00       		.byte	0
 7439              		.section	.debug_loc,"",%progbits
 7440              	.Ldebug_loc0:
 7441              	.LLST0:
 7442 0000 00000000 		.4byte	.LVL0
 7443 0004 00000000 		.4byte	.LVL0
 7444 0008 0100     		.2byte	0x1
 7445 000a 50       		.byte	0x50
 7446 000b 00000000 		.4byte	.LVL0
 7447 000f 02000000 		.4byte	.LVL1
 7448 0013 0600     		.2byte	0x6
 7449 0015 70       		.byte	0x70
 7450 0016 00       		.sleb128 0
 7451 0017 71       		.byte	0x71
 7452 0018 00       		.sleb128 0
 7453 0019 22       		.byte	0x22
 7454 001a 9F       		.byte	0x9f
 7455 001b 02000000 		.4byte	.LVL1
 7456 001f 04000000 		.4byte	.LFE0
 7457 0023 0700     		.2byte	0x7
 7458 0025 F3       		.byte	0xf3
 7459 0026 01       		.uleb128 0x1
 7460 0027 50       		.byte	0x50
 7461 0028 71       		.byte	0x71
 7462 0029 00       		.sleb128 0
 7463 002a 22       		.byte	0x22
 7464 002b 9F       		.byte	0x9f
 7465 002c 00000000 		.4byte	0
 7466 0030 00000000 		.4byte	0
 7467              	.LLST1:
 7468 0034 00000000 		.4byte	.LVL2
 7469 0038 02000000 		.4byte	.LVL3
 7470 003c 0100     		.2byte	0x1
 7471 003e 50       		.byte	0x50
 7472 003f 02000000 		.4byte	.LVL3
 7473 0043 04000000 		.4byte	.LVL4
 7474 0047 0100     		.2byte	0x1
 7475 0049 53       		.byte	0x53
 7476 004a 04000000 		.4byte	.LVL4
 7477 004e 06000000 		.4byte	.LVL5
 7478 0052 0300     		.2byte	0x3
 7479 0054 73       		.byte	0x73
 7480 0055 01       		.sleb128 1
 7481 0056 9F       		.byte	0x9f
 7482 0057 06000000 		.4byte	.LVL5
 7483 005b 0E000000 		.4byte	.LFE1
 7484 005f 0900     		.2byte	0x9
 7485 0061 F3       		.byte	0xf3
 7486 0062 01       		.uleb128 0x1
 7487 0063 50       		.byte	0x50
ARM GAS  C:\Users\brian\AppData\Local\Temp\ccTYhJxe.s 			page 162


 7488 0064 71       		.byte	0x71
 7489 0065 00       		.sleb128 0
 7490 0066 22       		.byte	0x22
 7491 0067 23       		.byte	0x23
 7492 0068 01       		.uleb128 0x1
 7493 0069 9F       		.byte	0x9f
 7494 006a 00000000 		.4byte	0
 7495 006e 00000000 		.4byte	0
 7496              	.LLST2:
 7497 0072 04000000 		.4byte	.LVL4
 7498 0076 0A000000 		.4byte	.LVL6
 7499 007a 0500     		.2byte	0x5
 7500 007c 70       		.byte	0x70
 7501 007d 00       		.sleb128 0
 7502 007e 38       		.byte	0x38
 7503 007f 24       		.byte	0x24
 7504 0080 9F       		.byte	0x9f
 7505 0081 0A000000 		.4byte	.LVL6
 7506 0085 0E000000 		.4byte	.LFE1
 7507 0089 0100     		.2byte	0x1
 7508 008b 50       		.byte	0x50
 7509 008c 00000000 		.4byte	0
 7510 0090 00000000 		.4byte	0
 7511              	.LLST3:
 7512 0094 00000000 		.4byte	.LVL7
 7513 0098 02000000 		.4byte	.LVL8
 7514 009c 0100     		.2byte	0x1
 7515 009e 50       		.byte	0x50
 7516 009f 02000000 		.4byte	.LVL8
 7517 00a3 04000000 		.4byte	.LFE31
 7518 00a7 0400     		.2byte	0x4
 7519 00a9 F3       		.byte	0xf3
 7520 00aa 01       		.uleb128 0x1
 7521 00ab 50       		.byte	0x50
 7522 00ac 9F       		.byte	0x9f
 7523 00ad 00000000 		.4byte	0
 7524 00b1 00000000 		.4byte	0
 7525              	.LLST4:
 7526 00b5 00000000 		.4byte	.LVL9
 7527 00b9 04000000 		.4byte	.LVL10
 7528 00bd 0100     		.2byte	0x1
 7529 00bf 50       		.byte	0x50
 7530 00c0 04000000 		.4byte	.LVL10
 7531 00c4 08000000 		.4byte	.LFE33
 7532 00c8 0400     		.2byte	0x4
 7533 00ca F3       		.byte	0xf3
 7534 00cb 01       		.uleb128 0x1
 7535 00cc 50       		.byte	0x50
 7536 00cd 9F       		.byte	0x9f
 7537 00ce 00000000 		.4byte	0
 7538 00d2 00000000 		.4byte	0
 7539              	.LLST5:
 7540 00d6 00000000 		.4byte	.LVL11
 7541 00da 04000000 		.4byte	.LVL12
 7542 00de 0100     		.2byte	0x1
 7543 00e0 50       		.byte	0x50
 7544 00e1 04000000 		.4byte	.LVL12
ARM GAS  C:\Users\brian\AppData\Local\Temp\ccTYhJxe.s 			page 163


 7545 00e5 0C000000 		.4byte	.LFE35
 7546 00e9 0400     		.2byte	0x4
 7547 00eb F3       		.byte	0xf3
 7548 00ec 01       		.uleb128 0x1
 7549 00ed 50       		.byte	0x50
 7550 00ee 9F       		.byte	0x9f
 7551 00ef 00000000 		.4byte	0
 7552 00f3 00000000 		.4byte	0
 7553              	.LLST6:
 7554 00f7 00000000 		.4byte	.LVL15
 7555 00fb 08000000 		.4byte	.LVL17
 7556 00ff 0100     		.2byte	0x1
 7557 0101 50       		.byte	0x50
 7558 0102 08000000 		.4byte	.LVL17
 7559 0106 1A000000 		.4byte	.LFE37
 7560 010a 0400     		.2byte	0x4
 7561 010c F3       		.byte	0xf3
 7562 010d 01       		.uleb128 0x1
 7563 010e 50       		.byte	0x50
 7564 010f 9F       		.byte	0x9f
 7565 0110 00000000 		.4byte	0
 7566 0114 00000000 		.4byte	0
 7567              	.LLST7:
 7568 0118 04000000 		.4byte	.LVL16
 7569 011c 0A000000 		.4byte	.LVL18
 7570 0120 0100     		.2byte	0x1
 7571 0122 53       		.byte	0x53
 7572 0123 0A000000 		.4byte	.LVL18
 7573 0127 0C000000 		.4byte	.LVL19
 7574 012b 0600     		.2byte	0x6
 7575 012d F3       		.byte	0xf3
 7576 012e 01       		.uleb128 0x1
 7577 012f 50       		.byte	0x50
 7578 0130 23       		.byte	0x23
 7579 0131 8E01     		.uleb128 0x8e
 7580 0133 0C000000 		.4byte	.LVL19
 7581 0137 10000000 		.4byte	.LVL20
 7582 013b 0100     		.2byte	0x1
 7583 013d 53       		.byte	0x53
 7584 013e 10000000 		.4byte	.LVL20
 7585 0142 14000000 		.4byte	.LVL21
 7586 0146 0500     		.2byte	0x5
 7587 0148 73       		.byte	0x73
 7588 0149 00       		.sleb128 0
 7589 014a 31       		.byte	0x31
 7590 014b 26       		.byte	0x26
 7591 014c 9F       		.byte	0x9f
 7592 014d 14000000 		.4byte	.LVL21
 7593 0151 16000000 		.4byte	.LVL22
 7594 0155 2C00     		.2byte	0x2c
 7595 0157 F3       		.byte	0xf3
 7596 0158 01       		.uleb128 0x1
 7597 0159 50       		.byte	0x50
 7598 015a 23       		.byte	0x23
 7599 015b 8E01     		.uleb128 0x8e
 7600 015d 94       		.byte	0x94
 7601 015e 01       		.byte	0x1
ARM GAS  C:\Users\brian\AppData\Local\Temp\ccTYhJxe.s 			page 164


 7602 015f 48       		.byte	0x48
 7603 0160 24       		.byte	0x24
 7604 0161 48       		.byte	0x48
 7605 0162 26       		.byte	0x26
 7606 0163 70       		.byte	0x70
 7607 0164 00       		.sleb128 0
 7608 0165 1C       		.byte	0x1c
 7609 0166 48       		.byte	0x48
 7610 0167 24       		.byte	0x24
 7611 0168 48       		.byte	0x48
 7612 0169 26       		.byte	0x26
 7613 016a 4F       		.byte	0x4f
 7614 016b 25       		.byte	0x25
 7615 016c F3       		.byte	0xf3
 7616 016d 01       		.uleb128 0x1
 7617 016e 50       		.byte	0x50
 7618 016f 23       		.byte	0x23
 7619 0170 8E01     		.uleb128 0x8e
 7620 0172 94       		.byte	0x94
 7621 0173 01       		.byte	0x1
 7622 0174 48       		.byte	0x48
 7623 0175 24       		.byte	0x24
 7624 0176 48       		.byte	0x48
 7625 0177 26       		.byte	0x26
 7626 0178 70       		.byte	0x70
 7627 0179 00       		.sleb128 0
 7628 017a 1C       		.byte	0x1c
 7629 017b 48       		.byte	0x48
 7630 017c 24       		.byte	0x24
 7631 017d 48       		.byte	0x48
 7632 017e 26       		.byte	0x26
 7633 017f 22       		.byte	0x22
 7634 0180 31       		.byte	0x31
 7635 0181 26       		.byte	0x26
 7636 0182 9F       		.byte	0x9f
 7637 0183 16000000 		.4byte	.LVL22
 7638 0187 18000000 		.4byte	.LVL23
 7639 018b 0100     		.2byte	0x1
 7640 018d 50       		.byte	0x50
 7641 018e 18000000 		.4byte	.LVL23
 7642 0192 1A000000 		.4byte	.LFE37
 7643 0196 0100     		.2byte	0x1
 7644 0198 53       		.byte	0x53
 7645 0199 00000000 		.4byte	0
 7646 019d 00000000 		.4byte	0
 7647              	.LLST8:
 7648 01a1 00000000 		.4byte	.LVL24
 7649 01a5 0A000000 		.4byte	.LVL26
 7650 01a9 0100     		.2byte	0x1
 7651 01ab 50       		.byte	0x50
 7652 01ac 0A000000 		.4byte	.LVL26
 7653 01b0 D0000000 		.4byte	.LFE2
 7654 01b4 0100     		.2byte	0x1
 7655 01b6 54       		.byte	0x54
 7656 01b7 00000000 		.4byte	0
 7657 01bb 00000000 		.4byte	0
 7658              	.LLST9:
ARM GAS  C:\Users\brian\AppData\Local\Temp\ccTYhJxe.s 			page 165


 7659 01bf 00000000 		.4byte	.LVL24
 7660 01c3 08000000 		.4byte	.LVL25
 7661 01c7 0100     		.2byte	0x1
 7662 01c9 51       		.byte	0x51
 7663 01ca 08000000 		.4byte	.LVL25
 7664 01ce D0000000 		.4byte	.LFE2
 7665 01d2 0100     		.2byte	0x1
 7666 01d4 55       		.byte	0x55
 7667 01d5 00000000 		.4byte	0
 7668 01d9 00000000 		.4byte	0
 7669              	.LLST10:
 7670 01dd 00000000 		.4byte	.LVL47
 7671 01e1 06000000 		.4byte	.LVL49
 7672 01e5 0100     		.2byte	0x1
 7673 01e7 50       		.byte	0x50
 7674 01e8 06000000 		.4byte	.LVL49
 7675 01ec 30000000 		.4byte	.LFE3
 7676 01f0 0100     		.2byte	0x1
 7677 01f2 55       		.byte	0x55
 7678 01f3 00000000 		.4byte	0
 7679 01f7 00000000 		.4byte	0
 7680              	.LLST11:
 7681 01fb 1C000000 		.4byte	.LVL54
 7682 01ff 1E000000 		.4byte	.LVL55
 7683 0203 0500     		.2byte	0x5
 7684 0205 72       		.byte	0x72
 7685 0206 00       		.sleb128 0
 7686 0207 38       		.byte	0x38
 7687 0208 24       		.byte	0x24
 7688 0209 9F       		.byte	0x9f
 7689 020a 1E000000 		.4byte	.LVL55
 7690 020e 22000000 		.4byte	.LVL56
 7691 0212 0800     		.2byte	0x8
 7692 0214 72       		.byte	0x72
 7693 0215 00       		.sleb128 0
 7694 0216 38       		.byte	0x38
 7695 0217 24       		.byte	0x24
 7696 0218 73       		.byte	0x73
 7697 0219 00       		.sleb128 0
 7698 021a 21       		.byte	0x21
 7699 021b 9F       		.byte	0x9f
 7700 021c 22000000 		.4byte	.LVL56
 7701 0220 28000000 		.4byte	.LVL57
 7702 0224 0D00     		.2byte	0xd
 7703 0226 72       		.byte	0x72
 7704 0227 00       		.sleb128 0
 7705 0228 38       		.byte	0x38
 7706 0229 24       		.byte	0x24
 7707 022a 70       		.byte	0x70
 7708 022b 01       		.sleb128 1
 7709 022c 94       		.byte	0x94
 7710 022d 01       		.byte	0x1
 7711 022e 08       		.byte	0x8
 7712 022f FF       		.byte	0xff
 7713 0230 1A       		.byte	0x1a
 7714 0231 21       		.byte	0x21
 7715 0232 9F       		.byte	0x9f
ARM GAS  C:\Users\brian\AppData\Local\Temp\ccTYhJxe.s 			page 166


 7716 0233 2A000000 		.4byte	.LVL58
 7717 0237 2C000000 		.4byte	.LVL59
 7718 023b 0D00     		.2byte	0xd
 7719 023d 72       		.byte	0x72
 7720 023e 00       		.sleb128 0
 7721 023f 38       		.byte	0x38
 7722 0240 24       		.byte	0x24
 7723 0241 70       		.byte	0x70
 7724 0242 01       		.sleb128 1
 7725 0243 94       		.byte	0x94
 7726 0244 01       		.byte	0x1
 7727 0245 08       		.byte	0x8
 7728 0246 FF       		.byte	0xff
 7729 0247 1A       		.byte	0x1a
 7730 0248 21       		.byte	0x21
 7731 0249 9F       		.byte	0x9f
 7732 024a 00000000 		.4byte	0
 7733 024e 00000000 		.4byte	0
 7734              	.LLST12:
 7735 0252 04000000 		.4byte	.LVL48
 7736 0256 10000000 		.4byte	.LVL51
 7737 025a 0100     		.2byte	0x1
 7738 025c 50       		.byte	0x50
 7739 025d 10000000 		.4byte	.LVL51
 7740 0261 1A000000 		.4byte	.LVL53
 7741 0265 0100     		.2byte	0x1
 7742 0267 54       		.byte	0x54
 7743 0268 1A000000 		.4byte	.LVL53
 7744 026c 2C000000 		.4byte	.LVL59
 7745 0270 0100     		.2byte	0x1
 7746 0272 50       		.byte	0x50
 7747 0273 00000000 		.4byte	0
 7748 0277 00000000 		.4byte	0
 7749              	.LLST13:
 7750 027b 00000000 		.4byte	.LVL60
 7751 027f 04000000 		.4byte	.LVL61
 7752 0283 0100     		.2byte	0x1
 7753 0285 50       		.byte	0x50
 7754 0286 04000000 		.4byte	.LVL61
 7755 028a 06000000 		.4byte	.LFE4
 7756 028e 0400     		.2byte	0x4
 7757 0290 F3       		.byte	0xf3
 7758 0291 01       		.uleb128 0x1
 7759 0292 50       		.byte	0x50
 7760 0293 9F       		.byte	0x9f
 7761 0294 00000000 		.4byte	0
 7762 0298 00000000 		.4byte	0
 7763              	.LLST14:
 7764 029c 00000000 		.4byte	.LVL62
 7765 02a0 04000000 		.4byte	.LVL63
 7766 02a4 0100     		.2byte	0x1
 7767 02a6 50       		.byte	0x50
 7768 02a7 04000000 		.4byte	.LVL63
 7769 02ab 06000000 		.4byte	.LFE5
 7770 02af 0400     		.2byte	0x4
 7771 02b1 F3       		.byte	0xf3
 7772 02b2 01       		.uleb128 0x1
ARM GAS  C:\Users\brian\AppData\Local\Temp\ccTYhJxe.s 			page 167


 7773 02b3 50       		.byte	0x50
 7774 02b4 9F       		.byte	0x9f
 7775 02b5 00000000 		.4byte	0
 7776 02b9 00000000 		.4byte	0
 7777              	.LLST15:
 7778 02bd 00000000 		.4byte	.LVL64
 7779 02c1 04000000 		.4byte	.LVL65
 7780 02c5 0100     		.2byte	0x1
 7781 02c7 50       		.byte	0x50
 7782 02c8 04000000 		.4byte	.LVL65
 7783 02cc 06000000 		.4byte	.LFE6
 7784 02d0 0400     		.2byte	0x4
 7785 02d2 F3       		.byte	0xf3
 7786 02d3 01       		.uleb128 0x1
 7787 02d4 50       		.byte	0x50
 7788 02d5 9F       		.byte	0x9f
 7789 02d6 00000000 		.4byte	0
 7790 02da 00000000 		.4byte	0
 7791              	.LLST16:
 7792 02de 00000000 		.4byte	.LVL66
 7793 02e2 04000000 		.4byte	.LVL67
 7794 02e6 0100     		.2byte	0x1
 7795 02e8 50       		.byte	0x50
 7796 02e9 04000000 		.4byte	.LVL67
 7797 02ed 06000000 		.4byte	.LFE7
 7798 02f1 0400     		.2byte	0x4
 7799 02f3 F3       		.byte	0xf3
 7800 02f4 01       		.uleb128 0x1
 7801 02f5 50       		.byte	0x50
 7802 02f6 9F       		.byte	0x9f
 7803 02f7 00000000 		.4byte	0
 7804 02fb 00000000 		.4byte	0
 7805              	.LLST17:
 7806 02ff 00000000 		.4byte	.LVL68
 7807 0303 04000000 		.4byte	.LVL69
 7808 0307 0100     		.2byte	0x1
 7809 0309 50       		.byte	0x50
 7810 030a 04000000 		.4byte	.LVL69
 7811 030e 06000000 		.4byte	.LFE8
 7812 0312 0400     		.2byte	0x4
 7813 0314 F3       		.byte	0xf3
 7814 0315 01       		.uleb128 0x1
 7815 0316 50       		.byte	0x50
 7816 0317 9F       		.byte	0x9f
 7817 0318 00000000 		.4byte	0
 7818 031c 00000000 		.4byte	0
 7819              	.LLST18:
 7820 0320 00000000 		.4byte	.LVL70
 7821 0324 3A000000 		.4byte	.LVL88
 7822 0328 0100     		.2byte	0x1
 7823 032a 50       		.byte	0x50
 7824 032b 3A000000 		.4byte	.LVL88
 7825 032f 3E000000 		.4byte	.LFE9
 7826 0333 0400     		.2byte	0x4
 7827 0335 F3       		.byte	0xf3
 7828 0336 01       		.uleb128 0x1
 7829 0337 50       		.byte	0x50
ARM GAS  C:\Users\brian\AppData\Local\Temp\ccTYhJxe.s 			page 168


 7830 0338 9F       		.byte	0x9f
 7831 0339 00000000 		.4byte	0
 7832 033d 00000000 		.4byte	0
 7833              	.LLST19:
 7834 0341 00000000 		.4byte	.LVL70
 7835 0345 32000000 		.4byte	.LVL85
 7836 0349 0100     		.2byte	0x1
 7837 034b 51       		.byte	0x51
 7838 034c 32000000 		.4byte	.LVL85
 7839 0350 3E000000 		.4byte	.LFE9
 7840 0354 0400     		.2byte	0x4
 7841 0356 F3       		.byte	0xf3
 7842 0357 01       		.uleb128 0x1
 7843 0358 51       		.byte	0x51
 7844 0359 9F       		.byte	0x9f
 7845 035a 00000000 		.4byte	0
 7846 035e 00000000 		.4byte	0
 7847              	.LLST20:
 7848 0362 08000000 		.4byte	.LVL72
 7849 0366 0A000000 		.4byte	.LVL73
 7850 036a 0100     		.2byte	0x1
 7851 036c 54       		.byte	0x54
 7852 036d 0A000000 		.4byte	.LVL73
 7853 0371 0C000000 		.4byte	.LVL74
 7854 0375 0200     		.2byte	0x2
 7855 0377 75       		.byte	0x75
 7856 0378 00       		.sleb128 0
 7857 0379 0C000000 		.4byte	.LVL74
 7858 037d 1C000000 		.4byte	.LVL79
 7859 0381 0100     		.2byte	0x1
 7860 0383 56       		.byte	0x56
 7861 0384 1C000000 		.4byte	.LVL79
 7862 0388 26000000 		.4byte	.LVL81
 7863 038c 0100     		.2byte	0x1
 7864 038e 54       		.byte	0x54
 7865 038f 28000000 		.4byte	.LVL82
 7866 0393 34000000 		.4byte	.LVL86
 7867 0397 0100     		.2byte	0x1
 7868 0399 56       		.byte	0x56
 7869 039a 34000000 		.4byte	.LVL86
 7870 039e 3C000000 		.4byte	.LVL89
 7871 03a2 0600     		.2byte	0x6
 7872 03a4 76       		.byte	0x76
 7873 03a5 00       		.sleb128 0
 7874 03a6 71       		.byte	0x71
 7875 03a7 00       		.sleb128 0
 7876 03a8 1A       		.byte	0x1a
 7877 03a9 9F       		.byte	0x9f
 7878 03aa 00000000 		.4byte	0
 7879 03ae 00000000 		.4byte	0
 7880              	.LLST21:
 7881 03b2 04000000 		.4byte	.LVL71
 7882 03b6 18000000 		.4byte	.LVL77
 7883 03ba 0100     		.2byte	0x1
 7884 03bc 52       		.byte	0x52
 7885 03bd 18000000 		.4byte	.LVL77
 7886 03c1 36000000 		.4byte	.LVL87
ARM GAS  C:\Users\brian\AppData\Local\Temp\ccTYhJxe.s 			page 169


 7887 03c5 0200     		.2byte	0x2
 7888 03c7 70       		.byte	0x70
 7889 03c8 0C       		.sleb128 12
 7890 03c9 00000000 		.4byte	0
 7891 03cd 00000000 		.4byte	0
 7892              	.LLST22:
 7893 03d1 0C000000 		.4byte	.LVL74
 7894 03d5 10000000 		.4byte	.LVL75
 7895 03d9 0100     		.2byte	0x1
 7896 03db 52       		.byte	0x52
 7897 03dc 10000000 		.4byte	.LVL75
 7898 03e0 2A000000 		.4byte	.LVL83
 7899 03e4 0100     		.2byte	0x1
 7900 03e6 53       		.byte	0x53
 7901 03e7 2A000000 		.4byte	.LVL83
 7902 03eb 2C000000 		.4byte	.LVL84
 7903 03ef 0300     		.2byte	0x3
 7904 03f1 73       		.byte	0x73
 7905 03f2 08       		.sleb128 8
 7906 03f3 9F       		.byte	0x9f
 7907 03f4 2C000000 		.4byte	.LVL84
 7908 03f8 3E000000 		.4byte	.LFE9
 7909 03fc 0100     		.2byte	0x1
 7910 03fe 53       		.byte	0x53
 7911 03ff 00000000 		.4byte	0
 7912 0403 00000000 		.4byte	0
 7913              	.LLST23:
 7914 0407 14000000 		.4byte	.LVL76
 7915 040b 1A000000 		.4byte	.LVL78
 7916 040f 0200     		.2byte	0x2
 7917 0411 38       		.byte	0x38
 7918 0412 9F       		.byte	0x9f
 7919 0413 1A000000 		.4byte	.LVL78
 7920 0417 24000000 		.4byte	.LVL80
 7921 041b 0100     		.2byte	0x1
 7922 041d 52       		.byte	0x52
 7923 041e 24000000 		.4byte	.LVL80
 7924 0422 2C000000 		.4byte	.LVL84
 7925 0426 0A00     		.2byte	0xa
 7926 0428 38       		.byte	0x38
 7927 0429 70       		.byte	0x70
 7928 042a 0C       		.sleb128 12
 7929 042b 94       		.byte	0x94
 7930 042c 01       		.byte	0x1
 7931 042d 08       		.byte	0x8
 7932 042e FF       		.byte	0xff
 7933 042f 1A       		.byte	0x1a
 7934 0430 1C       		.byte	0x1c
 7935 0431 9F       		.byte	0x9f
 7936 0432 00000000 		.4byte	0
 7937 0436 00000000 		.4byte	0
 7938              	.LLST24:
 7939 043a 00000000 		.4byte	.LVL90
 7940 043e 16000000 		.4byte	.LVL93
 7941 0442 0100     		.2byte	0x1
 7942 0444 50       		.byte	0x50
 7943 0445 16000000 		.4byte	.LVL93
ARM GAS  C:\Users\brian\AppData\Local\Temp\ccTYhJxe.s 			page 170


 7944 0449 40000000 		.4byte	.LFE14
 7945 044d 0100     		.2byte	0x1
 7946 044f 54       		.byte	0x54
 7947 0450 00000000 		.4byte	0
 7948 0454 00000000 		.4byte	0
 7949              	.LLST25:
 7950 0458 00000000 		.4byte	.LVL90
 7951 045c 14000000 		.4byte	.LVL92
 7952 0460 0100     		.2byte	0x1
 7953 0462 51       		.byte	0x51
 7954 0463 14000000 		.4byte	.LVL92
 7955 0467 19000000 		.4byte	.LVL94-1
 7956 046b 0200     		.2byte	0x2
 7957 046d 75       		.byte	0x75
 7958 046e 00       		.sleb128 0
 7959 046f 19000000 		.4byte	.LVL94-1
 7960 0473 40000000 		.4byte	.LFE14
 7961 0477 0400     		.2byte	0x4
 7962 0479 F3       		.byte	0xf3
 7963 047a 01       		.uleb128 0x1
 7964 047b 51       		.byte	0x51
 7965 047c 9F       		.byte	0x9f
 7966 047d 00000000 		.4byte	0
 7967 0481 00000000 		.4byte	0
 7968              	.LLST26:
 7969 0485 00000000 		.4byte	.LVL96
 7970 0489 07000000 		.4byte	.LVL97-1
 7971 048d 0100     		.2byte	0x1
 7972 048f 50       		.byte	0x50
 7973 0490 07000000 		.4byte	.LVL97-1
 7974 0494 16000000 		.4byte	.LFE10
 7975 0498 0400     		.2byte	0x4
 7976 049a F3       		.byte	0xf3
 7977 049b 01       		.uleb128 0x1
 7978 049c 50       		.byte	0x50
 7979 049d 9F       		.byte	0x9f
 7980 049e 00000000 		.4byte	0
 7981 04a2 00000000 		.4byte	0
 7982              	.LLST27:
 7983 04a6 00000000 		.4byte	.LVL96
 7984 04aa 07000000 		.4byte	.LVL97-1
 7985 04ae 0100     		.2byte	0x1
 7986 04b0 51       		.byte	0x51
 7987 04b1 07000000 		.4byte	.LVL97-1
 7988 04b5 0C000000 		.4byte	.LVL98
 7989 04b9 0400     		.2byte	0x4
 7990 04bb F3       		.byte	0xf3
 7991 04bc 01       		.uleb128 0x1
 7992 04bd 51       		.byte	0x51
 7993 04be 9F       		.byte	0x9f
 7994 04bf 0C000000 		.4byte	.LVL98
 7995 04c3 16000000 		.4byte	.LFE10
 7996 04c7 0100     		.2byte	0x1
 7997 04c9 54       		.byte	0x54
 7998 04ca 00000000 		.4byte	0
 7999 04ce 00000000 		.4byte	0
 8000              	.LLST28:
ARM GAS  C:\Users\brian\AppData\Local\Temp\ccTYhJxe.s 			page 171


 8001 04d2 08000000 		.4byte	.LVL97
 8002 04d6 10000000 		.4byte	.LVL99
 8003 04da 0200     		.2byte	0x2
 8004 04dc 31       		.byte	0x31
 8005 04dd 9F       		.byte	0x9f
 8006 04de 10000000 		.4byte	.LVL99
 8007 04e2 16000000 		.4byte	.LFE10
 8008 04e6 0100     		.2byte	0x1
 8009 04e8 53       		.byte	0x53
 8010 04e9 00000000 		.4byte	0
 8011 04ed 00000000 		.4byte	0
 8012              	.LLST29:
 8013 04f1 00000000 		.4byte	.LVL101
 8014 04f5 0E000000 		.4byte	.LVL102
 8015 04f9 0100     		.2byte	0x1
 8016 04fb 50       		.byte	0x50
 8017 04fc 0E000000 		.4byte	.LVL102
 8018 0500 10000000 		.4byte	.LVL103
 8019 0504 0400     		.2byte	0x4
 8020 0506 F3       		.byte	0xf3
 8021 0507 01       		.uleb128 0x1
 8022 0508 50       		.byte	0x50
 8023 0509 9F       		.byte	0x9f
 8024 050a 10000000 		.4byte	.LVL103
 8025 050e 14000000 		.4byte	.LVL104
 8026 0512 0100     		.2byte	0x1
 8027 0514 50       		.byte	0x50
 8028 0515 14000000 		.4byte	.LVL104
 8029 0519 16000000 		.4byte	.LVL105
 8030 051d 0400     		.2byte	0x4
 8031 051f F3       		.byte	0xf3
 8032 0520 01       		.uleb128 0x1
 8033 0521 50       		.byte	0x50
 8034 0522 9F       		.byte	0x9f
 8035 0523 16000000 		.4byte	.LVL105
 8036 0527 1A000000 		.4byte	.LVL106
 8037 052b 0100     		.2byte	0x1
 8038 052d 50       		.byte	0x50
 8039 052e 1A000000 		.4byte	.LVL106
 8040 0532 1C000000 		.4byte	.LVL107
 8041 0536 0400     		.2byte	0x4
 8042 0538 F3       		.byte	0xf3
 8043 0539 01       		.uleb128 0x1
 8044 053a 50       		.byte	0x50
 8045 053b 9F       		.byte	0x9f
 8046 053c 1C000000 		.4byte	.LVL107
 8047 0540 20000000 		.4byte	.LVL108
 8048 0544 0100     		.2byte	0x1
 8049 0546 50       		.byte	0x50
 8050 0547 20000000 		.4byte	.LVL108
 8051 054b 22000000 		.4byte	.LVL109
 8052 054f 0400     		.2byte	0x4
 8053 0551 F3       		.byte	0xf3
 8054 0552 01       		.uleb128 0x1
 8055 0553 50       		.byte	0x50
 8056 0554 9F       		.byte	0x9f
 8057 0555 22000000 		.4byte	.LVL109
ARM GAS  C:\Users\brian\AppData\Local\Temp\ccTYhJxe.s 			page 172


 8058 0559 24000000 		.4byte	.LFE11
 8059 055d 0100     		.2byte	0x1
 8060 055f 50       		.byte	0x50
 8061 0560 00000000 		.4byte	0
 8062 0564 00000000 		.4byte	0
 8063              	.LLST30:
 8064 0568 00000000 		.4byte	.LVL110
 8065 056c 0E000000 		.4byte	.LVL111
 8066 0570 0100     		.2byte	0x1
 8067 0572 50       		.byte	0x50
 8068 0573 0E000000 		.4byte	.LVL111
 8069 0577 10000000 		.4byte	.LVL112
 8070 057b 0400     		.2byte	0x4
 8071 057d F3       		.byte	0xf3
 8072 057e 01       		.uleb128 0x1
 8073 057f 50       		.byte	0x50
 8074 0580 9F       		.byte	0x9f
 8075 0581 10000000 		.4byte	.LVL112
 8076 0585 14000000 		.4byte	.LVL113
 8077 0589 0100     		.2byte	0x1
 8078 058b 50       		.byte	0x50
 8079 058c 14000000 		.4byte	.LVL113
 8080 0590 16000000 		.4byte	.LVL114
 8081 0594 0400     		.2byte	0x4
 8082 0596 F3       		.byte	0xf3
 8083 0597 01       		.uleb128 0x1
 8084 0598 50       		.byte	0x50
 8085 0599 9F       		.byte	0x9f
 8086 059a 16000000 		.4byte	.LVL114
 8087 059e 1A000000 		.4byte	.LVL115
 8088 05a2 0100     		.2byte	0x1
 8089 05a4 50       		.byte	0x50
 8090 05a5 1A000000 		.4byte	.LVL115
 8091 05a9 1C000000 		.4byte	.LVL116
 8092 05ad 0400     		.2byte	0x4
 8093 05af F3       		.byte	0xf3
 8094 05b0 01       		.uleb128 0x1
 8095 05b1 50       		.byte	0x50
 8096 05b2 9F       		.byte	0x9f
 8097 05b3 1C000000 		.4byte	.LVL116
 8098 05b7 20000000 		.4byte	.LVL117
 8099 05bb 0100     		.2byte	0x1
 8100 05bd 50       		.byte	0x50
 8101 05be 20000000 		.4byte	.LVL117
 8102 05c2 22000000 		.4byte	.LVL118
 8103 05c6 0400     		.2byte	0x4
 8104 05c8 F3       		.byte	0xf3
 8105 05c9 01       		.uleb128 0x1
 8106 05ca 50       		.byte	0x50
 8107 05cb 9F       		.byte	0x9f
 8108 05cc 22000000 		.4byte	.LVL118
 8109 05d0 24000000 		.4byte	.LFE12
 8110 05d4 0100     		.2byte	0x1
 8111 05d6 50       		.byte	0x50
 8112 05d7 00000000 		.4byte	0
 8113 05db 00000000 		.4byte	0
 8114              	.LLST31:
ARM GAS  C:\Users\brian\AppData\Local\Temp\ccTYhJxe.s 			page 173


 8115 05df 00000000 		.4byte	.LVL119
 8116 05e3 14000000 		.4byte	.LVL122
 8117 05e7 0100     		.2byte	0x1
 8118 05e9 50       		.byte	0x50
 8119 05ea 14000000 		.4byte	.LVL122
 8120 05ee B6000000 		.4byte	.LFE13
 8121 05f2 0100     		.2byte	0x1
 8122 05f4 56       		.byte	0x56
 8123 05f5 00000000 		.4byte	0
 8124 05f9 00000000 		.4byte	0
 8125              	.LLST32:
 8126 05fd 00000000 		.4byte	.LVL119
 8127 0601 14000000 		.4byte	.LVL122
 8128 0605 0100     		.2byte	0x1
 8129 0607 51       		.byte	0x51
 8130 0608 14000000 		.4byte	.LVL122
 8131 060c B6000000 		.4byte	.LFE13
 8132 0610 0400     		.2byte	0x4
 8133 0612 F3       		.byte	0xf3
 8134 0613 01       		.uleb128 0x1
 8135 0614 51       		.byte	0x51
 8136 0615 9F       		.byte	0x9f
 8137 0616 00000000 		.4byte	0
 8138 061a 00000000 		.4byte	0
 8139              	.LLST33:
 8140 061e 00000000 		.4byte	.LVL119
 8141 0622 14000000 		.4byte	.LVL122
 8142 0626 0100     		.2byte	0x1
 8143 0628 52       		.byte	0x52
 8144 0629 14000000 		.4byte	.LVL122
 8145 062d B6000000 		.4byte	.LFE13
 8146 0631 0400     		.2byte	0x4
 8147 0633 F3       		.byte	0xf3
 8148 0634 01       		.uleb128 0x1
 8149 0635 52       		.byte	0x52
 8150 0636 9F       		.byte	0x9f
 8151 0637 00000000 		.4byte	0
 8152 063b 00000000 		.4byte	0
 8153              	.LLST34:
 8154 063f 0C000000 		.4byte	.LVL120
 8155 0643 96000000 		.4byte	.LVL136
 8156 0647 0100     		.2byte	0x1
 8157 0649 54       		.byte	0x54
 8158 064a 98000000 		.4byte	.LVL137
 8159 064e A8000000 		.4byte	.LVL141
 8160 0652 0100     		.2byte	0x1
 8161 0654 54       		.byte	0x54
 8162 0655 00000000 		.4byte	0
 8163 0659 00000000 		.4byte	0
 8164              	.LLST35:
 8165 065d 18000000 		.4byte	.LVL123
 8166 0661 1C000000 		.4byte	.LVL124
 8167 0665 0100     		.2byte	0x1
 8168 0667 55       		.byte	0x55
 8169 0668 1C000000 		.4byte	.LVL124
 8170 066c 1E000000 		.4byte	.LVL125
 8171 0670 0300     		.2byte	0x3
ARM GAS  C:\Users\brian\AppData\Local\Temp\ccTYhJxe.s 			page 174


 8172 0672 76       		.byte	0x76
 8173 0673 EA00     		.sleb128 106
 8174 0675 1E000000 		.4byte	.LVL125
 8175 0679 B6000000 		.4byte	.LFE13
 8176 067d 0100     		.2byte	0x1
 8177 067f 55       		.byte	0x55
 8178 0680 00000000 		.4byte	0
 8179 0684 00000000 		.4byte	0
 8180              	.LLST36:
 8181 0688 1E000000 		.4byte	.LVL125
 8182 068c 28000000 		.4byte	.LVL126
 8183 0690 0100     		.2byte	0x1
 8184 0692 55       		.byte	0x55
 8185 0693 28000000 		.4byte	.LVL126
 8186 0697 B6000000 		.4byte	.LFE13
 8187 069b 0200     		.2byte	0x2
 8188 069d 91       		.byte	0x91
 8189 069e 4C       		.sleb128 -52
 8190 069f 00000000 		.4byte	0
 8191 06a3 00000000 		.4byte	0
 8192              	.LLST37:
 8193 06a7 10000000 		.4byte	.LVL121
 8194 06ab 98000000 		.4byte	.LVL137
 8195 06af 0100     		.2byte	0x1
 8196 06b1 5A       		.byte	0x5a
 8197 06b2 98000000 		.4byte	.LVL137
 8198 06b6 A6000000 		.4byte	.LVL140
 8199 06ba 0200     		.2byte	0x2
 8200 06bc 30       		.byte	0x30
 8201 06bd 9F       		.byte	0x9f
 8202 06be A6000000 		.4byte	.LVL140
 8203 06c2 A8000000 		.4byte	.LVL141
 8204 06c6 0100     		.2byte	0x1
 8205 06c8 5A       		.byte	0x5a
 8206 06c9 A8000000 		.4byte	.LVL141
 8207 06cd B6000000 		.4byte	.LFE13
 8208 06d1 0100     		.2byte	0x1
 8209 06d3 54       		.byte	0x54
 8210 06d4 00000000 		.4byte	0
 8211 06d8 00000000 		.4byte	0
 8212              	.LLST38:
 8213 06dc 14000000 		.4byte	.LVL122
 8214 06e0 9C000000 		.4byte	.LVL138
 8215 06e4 0100     		.2byte	0x1
 8216 06e6 58       		.byte	0x58
 8217 06e7 9C000000 		.4byte	.LVL138
 8218 06eb A0000000 		.4byte	.LVL139
 8219 06ef 0100     		.2byte	0x1
 8220 06f1 5B       		.byte	0x5b
 8221 06f2 A0000000 		.4byte	.LVL139
 8222 06f6 B6000000 		.4byte	.LFE13
 8223 06fa 0100     		.2byte	0x1
 8224 06fc 58       		.byte	0x58
 8225 06fd 00000000 		.4byte	0
 8226 0701 00000000 		.4byte	0
 8227              	.LLST39:
 8228 0705 28000000 		.4byte	.LVL126
ARM GAS  C:\Users\brian\AppData\Local\Temp\ccTYhJxe.s 			page 175


 8229 0709 45000000 		.4byte	.LVL128-1
 8230 070d 0300     		.2byte	0x3
 8231 070f 76       		.byte	0x76
 8232 0710 E400     		.sleb128 100
 8233 0712 48000000 		.4byte	.LVL129
 8234 0716 B6000000 		.4byte	.LFE13
 8235 071a 0200     		.2byte	0x2
 8236 071c 91       		.byte	0x91
 8237 071d 50       		.sleb128 -48
 8238 071e 00000000 		.4byte	0
 8239 0722 00000000 		.4byte	0
 8240              	.LLST40:
 8241 0726 2C000000 		.4byte	.LVL127
 8242 072a 54000000 		.4byte	.LVL130
 8243 072e 0100     		.2byte	0x1
 8244 0730 59       		.byte	0x59
 8245 0731 54000000 		.4byte	.LVL130
 8246 0735 6C000000 		.4byte	.LVL131
 8247 0739 0100     		.2byte	0x1
 8248 073b 50       		.byte	0x50
 8249 073c 72000000 		.4byte	.LVL133
 8250 0740 8C000000 		.4byte	.LVL134
 8251 0744 0100     		.2byte	0x1
 8252 0746 50       		.byte	0x50
 8253 0747 00000000 		.4byte	0
 8254 074b 00000000 		.4byte	0
 8255              	.LLST41:
 8256 074f 0C000000 		.4byte	.LVL120
 8257 0753 14000000 		.4byte	.LVL122
 8258 0757 0400     		.2byte	0x4
 8259 0759 70       		.byte	0x70
 8260 075a E000     		.sleb128 96
 8261 075c 9F       		.byte	0x9f
 8262 075d 14000000 		.4byte	.LVL122
 8263 0761 B6000000 		.4byte	.LFE13
 8264 0765 0400     		.2byte	0x4
 8265 0767 76       		.byte	0x76
 8266 0768 E000     		.sleb128 96
 8267 076a 9F       		.byte	0x9f
 8268 076b 00000000 		.4byte	0
 8269 076f 00000000 		.4byte	0
 8270              	.LLST42:
 8271 0773 00000000 		.4byte	.LVL142
 8272 0777 0F000000 		.4byte	.LVL144-1
 8273 077b 0100     		.2byte	0x1
 8274 077d 50       		.byte	0x50
 8275 077e 0F000000 		.4byte	.LVL144-1
 8276 0782 44010000 		.4byte	.LFE15
 8277 0786 0100     		.2byte	0x1
 8278 0788 54       		.byte	0x54
 8279 0789 00000000 		.4byte	0
 8280 078d 00000000 		.4byte	0
 8281              	.LLST43:
 8282 0791 00000000 		.4byte	.LVL142
 8283 0795 0F000000 		.4byte	.LVL144-1
 8284 0799 0100     		.2byte	0x1
 8285 079b 51       		.byte	0x51
ARM GAS  C:\Users\brian\AppData\Local\Temp\ccTYhJxe.s 			page 176


 8286 079c 0F000000 		.4byte	.LVL144-1
 8287 07a0 44010000 		.4byte	.LFE15
 8288 07a4 0400     		.2byte	0x4
 8289 07a6 F3       		.byte	0xf3
 8290 07a7 01       		.uleb128 0x1
 8291 07a8 51       		.byte	0x51
 8292 07a9 9F       		.byte	0x9f
 8293 07aa 00000000 		.4byte	0
 8294 07ae 00000000 		.4byte	0
 8295              	.LLST44:
 8296 07b2 00010000 		.4byte	.LVL182
 8297 07b6 3C010000 		.4byte	.LVL188
 8298 07ba 0100     		.2byte	0x1
 8299 07bc 58       		.byte	0x58
 8300 07bd 00000000 		.4byte	0
 8301 07c1 00000000 		.4byte	0
 8302              	.LLST45:
 8303 07c5 0C010000 		.4byte	.LVL184
 8304 07c9 3C010000 		.4byte	.LVL188
 8305 07cd 0100     		.2byte	0x1
 8306 07cf 57       		.byte	0x57
 8307 07d0 00000000 		.4byte	0
 8308 07d4 00000000 		.4byte	0
 8309              	.LLST46:
 8310 07d8 2C000000 		.4byte	.LVL149
 8311 07dc 44000000 		.4byte	.LVL152
 8312 07e0 0100     		.2byte	0x1
 8313 07e2 57       		.byte	0x57
 8314 07e3 00000000 		.4byte	0
 8315 07e7 00000000 		.4byte	0
 8316              	.LLST47:
 8317 07eb 74000000 		.4byte	.LVL155
 8318 07ef 94000000 		.4byte	.LVL160
 8319 07f3 0100     		.2byte	0x1
 8320 07f5 5A       		.byte	0x5a
 8321 07f6 94000000 		.4byte	.LVL160
 8322 07fa A6000000 		.4byte	.LVL165
 8323 07fe 0100     		.2byte	0x1
 8324 0800 51       		.byte	0x51
 8325 0801 A6000000 		.4byte	.LVL165
 8326 0805 AC000000 		.4byte	.LVL166
 8327 0809 0100     		.2byte	0x1
 8328 080b 5A       		.byte	0x5a
 8329 080c AC000000 		.4byte	.LVL166
 8330 0810 C6000000 		.4byte	.LVL172
 8331 0814 0100     		.2byte	0x1
 8332 0816 51       		.byte	0x51
 8333 0817 C6000000 		.4byte	.LVL172
 8334 081b 3C010000 		.4byte	.LVL188
 8335 081f 0100     		.2byte	0x1
 8336 0821 5A       		.byte	0x5a
 8337 0822 00000000 		.4byte	0
 8338 0826 00000000 		.4byte	0
 8339              	.LLST48:
 8340 082a 74000000 		.4byte	.LVL155
 8341 082e 88000000 		.4byte	.LVL156
 8342 0832 0100     		.2byte	0x1
ARM GAS  C:\Users\brian\AppData\Local\Temp\ccTYhJxe.s 			page 177


 8343 0834 5A       		.byte	0x5a
 8344 0835 88000000 		.4byte	.LVL156
 8345 0839 8E000000 		.4byte	.LVL159
 8346 083d 0100     		.2byte	0x1
 8347 083f 53       		.byte	0x53
 8348 0840 8E000000 		.4byte	.LVL159
 8349 0844 9C000000 		.4byte	.LVL162
 8350 0848 0100     		.2byte	0x1
 8351 084a 5A       		.byte	0x5a
 8352 084b 9C000000 		.4byte	.LVL162
 8353 084f A6000000 		.4byte	.LVL165
 8354 0853 0100     		.2byte	0x1
 8355 0855 53       		.byte	0x53
 8356 0856 A6000000 		.4byte	.LVL165
 8357 085a B4000000 		.4byte	.LVL168
 8358 085e 0100     		.2byte	0x1
 8359 0860 5A       		.byte	0x5a
 8360 0861 B4000000 		.4byte	.LVL168
 8361 0865 C6000000 		.4byte	.LVL172
 8362 0869 0100     		.2byte	0x1
 8363 086b 53       		.byte	0x53
 8364 086c C6000000 		.4byte	.LVL172
 8365 0870 CC000000 		.4byte	.LVL173
 8366 0874 0100     		.2byte	0x1
 8367 0876 5A       		.byte	0x5a
 8368 0877 CC000000 		.4byte	.LVL173
 8369 087b DC000000 		.4byte	.LVL177
 8370 087f 0100     		.2byte	0x1
 8371 0881 53       		.byte	0x53
 8372 0882 DC000000 		.4byte	.LVL177
 8373 0886 DE000000 		.4byte	.LVL178
 8374 088a 0100     		.2byte	0x1
 8375 088c 5A       		.byte	0x5a
 8376 088d DE000000 		.4byte	.LVL178
 8377 0891 E7000000 		.4byte	.LVL180-1
 8378 0895 0100     		.2byte	0x1
 8379 0897 53       		.byte	0x53
 8380 0898 00000000 		.4byte	0
 8381 089c 00000000 		.4byte	0
 8382              	.LLST49:
 8383 08a0 74000000 		.4byte	.LVL155
 8384 08a4 8A000000 		.4byte	.LVL157
 8385 08a8 0100     		.2byte	0x1
 8386 08aa 50       		.byte	0x50
 8387 08ab 8A000000 		.4byte	.LVL157
 8388 08af 8E000000 		.4byte	.LVL159
 8389 08b3 0300     		.2byte	0x3
 8390 08b5 74       		.byte	0x74
 8391 08b6 E600     		.sleb128 102
 8392 08b8 8E000000 		.4byte	.LVL159
 8393 08bc 9E000000 		.4byte	.LVL163
 8394 08c0 0100     		.2byte	0x1
 8395 08c2 50       		.byte	0x50
 8396 08c3 9E000000 		.4byte	.LVL163
 8397 08c7 A6000000 		.4byte	.LVL165
 8398 08cb 0300     		.2byte	0x3
 8399 08cd 74       		.byte	0x74
ARM GAS  C:\Users\brian\AppData\Local\Temp\ccTYhJxe.s 			page 178


 8400 08ce E600     		.sleb128 102
 8401 08d0 A6000000 		.4byte	.LVL165
 8402 08d4 B8000000 		.4byte	.LVL169
 8403 08d8 0100     		.2byte	0x1
 8404 08da 50       		.byte	0x50
 8405 08db B8000000 		.4byte	.LVL169
 8406 08df C6000000 		.4byte	.LVL172
 8407 08e3 0100     		.2byte	0x1
 8408 08e5 57       		.byte	0x57
 8409 08e6 C6000000 		.4byte	.LVL172
 8410 08ea D2000000 		.4byte	.LVL174
 8411 08ee 0100     		.2byte	0x1
 8412 08f0 50       		.byte	0x50
 8413 08f1 D2000000 		.4byte	.LVL174
 8414 08f5 DC000000 		.4byte	.LVL177
 8415 08f9 0100     		.2byte	0x1
 8416 08fb 51       		.byte	0x51
 8417 08fc DC000000 		.4byte	.LVL177
 8418 0900 DE000000 		.4byte	.LVL178
 8419 0904 0100     		.2byte	0x1
 8420 0906 50       		.byte	0x50
 8421 0907 DE000000 		.4byte	.LVL178
 8422 090b E7000000 		.4byte	.LVL180-1
 8423 090f 0100     		.2byte	0x1
 8424 0911 52       		.byte	0x52
 8425 0912 00000000 		.4byte	0
 8426 0916 00000000 		.4byte	0
 8427              	.LLST50:
 8428 091a 74000000 		.4byte	.LVL155
 8429 091e 8A000000 		.4byte	.LVL157
 8430 0922 0100     		.2byte	0x1
 8431 0924 50       		.byte	0x50
 8432 0925 8A000000 		.4byte	.LVL157
 8433 0929 8C000000 		.4byte	.LVL158
 8434 092d 0300     		.2byte	0x3
 8435 092f 74       		.byte	0x74
 8436 0930 E600     		.sleb128 102
 8437 0932 8C000000 		.4byte	.LVL158
 8438 0936 9E000000 		.4byte	.LVL163
 8439 093a 0100     		.2byte	0x1
 8440 093c 50       		.byte	0x50
 8441 093d 9E000000 		.4byte	.LVL163
 8442 0941 A0000000 		.4byte	.LVL164
 8443 0945 0300     		.2byte	0x3
 8444 0947 74       		.byte	0x74
 8445 0948 E600     		.sleb128 102
 8446 094a A0000000 		.4byte	.LVL164
 8447 094e E4000000 		.4byte	.LVL179
 8448 0952 0100     		.2byte	0x1
 8449 0954 50       		.byte	0x50
 8450 0955 00000000 		.4byte	0
 8451 0959 00000000 		.4byte	0
 8452              	.LLST51:
 8453 095d 00000000 		.4byte	.LVL189
 8454 0961 2C000000 		.4byte	.LVL194
 8455 0965 0100     		.2byte	0x1
 8456 0967 50       		.byte	0x50
ARM GAS  C:\Users\brian\AppData\Local\Temp\ccTYhJxe.s 			page 179


 8457 0968 2C000000 		.4byte	.LVL194
 8458 096c 2E000000 		.4byte	.LVL195
 8459 0970 0400     		.2byte	0x4
 8460 0972 F3       		.byte	0xf3
 8461 0973 01       		.uleb128 0x1
 8462 0974 50       		.byte	0x50
 8463 0975 9F       		.byte	0x9f
 8464 0976 2E000000 		.4byte	.LVL195
 8465 097a 3C000000 		.4byte	.LVL198
 8466 097e 0100     		.2byte	0x1
 8467 0980 50       		.byte	0x50
 8468 0981 3C000000 		.4byte	.LVL198
 8469 0985 6C000000 		.4byte	.LVL209
 8470 0989 0400     		.2byte	0x4
 8471 098b F3       		.byte	0xf3
 8472 098c 01       		.uleb128 0x1
 8473 098d 50       		.byte	0x50
 8474 098e 9F       		.byte	0x9f
 8475 098f 6C000000 		.4byte	.LVL209
 8476 0993 6E000000 		.4byte	.LVL210
 8477 0997 0100     		.2byte	0x1
 8478 0999 50       		.byte	0x50
 8479 099a 6E000000 		.4byte	.LVL210
 8480 099e 74000000 		.4byte	.LFE16
 8481 09a2 0400     		.2byte	0x4
 8482 09a4 F3       		.byte	0xf3
 8483 09a5 01       		.uleb128 0x1
 8484 09a6 50       		.byte	0x50
 8485 09a7 9F       		.byte	0x9f
 8486 09a8 00000000 		.4byte	0
 8487 09ac 00000000 		.4byte	0
 8488              	.LLST52:
 8489 09b0 00000000 		.4byte	.LVL189
 8490 09b4 3C000000 		.4byte	.LVL198
 8491 09b8 0100     		.2byte	0x1
 8492 09ba 51       		.byte	0x51
 8493 09bb 3C000000 		.4byte	.LVL198
 8494 09bf 6C000000 		.4byte	.LVL209
 8495 09c3 0400     		.2byte	0x4
 8496 09c5 F3       		.byte	0xf3
 8497 09c6 01       		.uleb128 0x1
 8498 09c7 51       		.byte	0x51
 8499 09c8 9F       		.byte	0x9f
 8500 09c9 6C000000 		.4byte	.LVL209
 8501 09cd 70000000 		.4byte	.LVL211
 8502 09d1 0100     		.2byte	0x1
 8503 09d3 51       		.byte	0x51
 8504 09d4 70000000 		.4byte	.LVL211
 8505 09d8 74000000 		.4byte	.LFE16
 8506 09dc 0400     		.2byte	0x4
 8507 09de F3       		.byte	0xf3
 8508 09df 01       		.uleb128 0x1
 8509 09e0 51       		.byte	0x51
 8510 09e1 9F       		.byte	0x9f
 8511 09e2 00000000 		.4byte	0
 8512 09e6 00000000 		.4byte	0
 8513              	.LLST53:
ARM GAS  C:\Users\brian\AppData\Local\Temp\ccTYhJxe.s 			page 180


 8514 09ea 4E000000 		.4byte	.LVL201
 8515 09ee 54000000 		.4byte	.LVL203
 8516 09f2 0100     		.2byte	0x1
 8517 09f4 50       		.byte	0x50
 8518 09f5 56000000 		.4byte	.LVL204
 8519 09f9 58000000 		.4byte	.LVL205
 8520 09fd 0500     		.2byte	0x5
 8521 09ff 72       		.byte	0x72
 8522 0a00 00       		.sleb128 0
 8523 0a01 38       		.byte	0x38
 8524 0a02 24       		.byte	0x24
 8525 0a03 9F       		.byte	0x9f
 8526 0a04 58000000 		.4byte	.LVL205
 8527 0a08 5C000000 		.4byte	.LVL206
 8528 0a0c 0800     		.2byte	0x8
 8529 0a0e 72       		.byte	0x72
 8530 0a0f 00       		.sleb128 0
 8531 0a10 38       		.byte	0x38
 8532 0a11 24       		.byte	0x24
 8533 0a12 73       		.byte	0x73
 8534 0a13 00       		.sleb128 0
 8535 0a14 21       		.byte	0x21
 8536 0a15 9F       		.byte	0x9f
 8537 0a16 5C000000 		.4byte	.LVL206
 8538 0a1a 6A000000 		.4byte	.LVL208
 8539 0a1e 0D00     		.2byte	0xd
 8540 0a20 72       		.byte	0x72
 8541 0a21 00       		.sleb128 0
 8542 0a22 38       		.byte	0x38
 8543 0a23 24       		.byte	0x24
 8544 0a24 74       		.byte	0x74
 8545 0a25 01       		.sleb128 1
 8546 0a26 94       		.byte	0x94
 8547 0a27 01       		.byte	0x1
 8548 0a28 08       		.byte	0x8
 8549 0a29 FF       		.byte	0xff
 8550 0a2a 1A       		.byte	0x1a
 8551 0a2b 21       		.byte	0x21
 8552 0a2c 9F       		.byte	0x9f
 8553 0a2d 70000000 		.4byte	.LVL211
 8554 0a31 74000000 		.4byte	.LFE16
 8555 0a35 0D00     		.2byte	0xd
 8556 0a37 72       		.byte	0x72
 8557 0a38 00       		.sleb128 0
 8558 0a39 38       		.byte	0x38
 8559 0a3a 24       		.byte	0x24
 8560 0a3b 74       		.byte	0x74
 8561 0a3c 01       		.sleb128 1
 8562 0a3d 94       		.byte	0x94
 8563 0a3e 01       		.byte	0x1
 8564 0a3f 08       		.byte	0x8
 8565 0a40 FF       		.byte	0xff
 8566 0a41 1A       		.byte	0x1a
 8567 0a42 21       		.byte	0x21
 8568 0a43 9F       		.byte	0x9f
 8569 0a44 00000000 		.4byte	0
 8570 0a48 00000000 		.4byte	0
ARM GAS  C:\Users\brian\AppData\Local\Temp\ccTYhJxe.s 			page 181


 8571              	.LLST54:
 8572 0a4c 3A000000 		.4byte	.LVL197
 8573 0a50 3C000000 		.4byte	.LVL198
 8574 0a54 0100     		.2byte	0x1
 8575 0a56 54       		.byte	0x54
 8576 0a57 3C000000 		.4byte	.LVL198
 8577 0a5b 6C000000 		.4byte	.LVL209
 8578 0a5f 0100     		.2byte	0x1
 8579 0a61 55       		.byte	0x55
 8580 0a62 70000000 		.4byte	.LVL211
 8581 0a66 74000000 		.4byte	.LFE16
 8582 0a6a 0100     		.2byte	0x1
 8583 0a6c 55       		.byte	0x55
 8584 0a6d 00000000 		.4byte	0
 8585 0a71 00000000 		.4byte	0
 8586              	.LLST55:
 8587 0a75 00000000 		.4byte	.LVL212
 8588 0a79 11000000 		.4byte	.LVL215-1
 8589 0a7d 0100     		.2byte	0x1
 8590 0a7f 50       		.byte	0x50
 8591 0a80 11000000 		.4byte	.LVL215-1
 8592 0a84 24000000 		.4byte	.LFE17
 8593 0a88 0100     		.2byte	0x1
 8594 0a8a 54       		.byte	0x54
 8595 0a8b 00000000 		.4byte	0
 8596 0a8f 00000000 		.4byte	0
 8597              	.LLST56:
 8598 0a93 00000000 		.4byte	.LVL212
 8599 0a97 0E000000 		.4byte	.LVL214
 8600 0a9b 0100     		.2byte	0x1
 8601 0a9d 51       		.byte	0x51
 8602 0a9e 0E000000 		.4byte	.LVL214
 8603 0aa2 11000000 		.4byte	.LVL215-1
 8604 0aa6 0300     		.2byte	0x3
 8605 0aa8 70       		.byte	0x70
 8606 0aa9 E400     		.sleb128 100
 8607 0aab 11000000 		.4byte	.LVL215-1
 8608 0aaf 24000000 		.4byte	.LFE17
 8609 0ab3 0400     		.2byte	0x4
 8610 0ab5 F3       		.byte	0xf3
 8611 0ab6 01       		.uleb128 0x1
 8612 0ab7 51       		.byte	0x51
 8613 0ab8 9F       		.byte	0x9f
 8614 0ab9 00000000 		.4byte	0
 8615 0abd 00000000 		.4byte	0
 8616              	.LLST57:
 8617 0ac1 00000000 		.4byte	.LVL212
 8618 0ac5 11000000 		.4byte	.LVL215-1
 8619 0ac9 0100     		.2byte	0x1
 8620 0acb 52       		.byte	0x52
 8621 0acc 11000000 		.4byte	.LVL215-1
 8622 0ad0 24000000 		.4byte	.LFE17
 8623 0ad4 0400     		.2byte	0x4
 8624 0ad6 F3       		.byte	0xf3
 8625 0ad7 01       		.uleb128 0x1
 8626 0ad8 52       		.byte	0x52
 8627 0ad9 9F       		.byte	0x9f
ARM GAS  C:\Users\brian\AppData\Local\Temp\ccTYhJxe.s 			page 182


 8628 0ada 00000000 		.4byte	0
 8629 0ade 00000000 		.4byte	0
 8630              	.LLST58:
 8631 0ae2 00000000 		.4byte	.LVL212
 8632 0ae6 11000000 		.4byte	.LVL215-1
 8633 0aea 0100     		.2byte	0x1
 8634 0aec 53       		.byte	0x53
 8635 0aed 11000000 		.4byte	.LVL215-1
 8636 0af1 24000000 		.4byte	.LFE17
 8637 0af5 0400     		.2byte	0x4
 8638 0af7 F3       		.byte	0xf3
 8639 0af8 01       		.uleb128 0x1
 8640 0af9 53       		.byte	0x53
 8641 0afa 9F       		.byte	0x9f
 8642 0afb 00000000 		.4byte	0
 8643 0aff 00000000 		.4byte	0
 8644              	.LLST59:
 8645 0b03 04000000 		.4byte	.LVL213
 8646 0b07 1E000000 		.4byte	.LVL218
 8647 0b0b 0200     		.2byte	0x2
 8648 0b0d 30       		.byte	0x30
 8649 0b0e 9F       		.byte	0x9f
 8650 0b0f 1E000000 		.4byte	.LVL218
 8651 0b13 20000000 		.4byte	.LVL219
 8652 0b17 0100     		.2byte	0x1
 8653 0b19 50       		.byte	0x50
 8654 0b1a 20000000 		.4byte	.LVL219
 8655 0b1e 22000000 		.4byte	.LVL220
 8656 0b22 0200     		.2byte	0x2
 8657 0b24 30       		.byte	0x30
 8658 0b25 9F       		.byte	0x9f
 8659 0b26 22000000 		.4byte	.LVL220
 8660 0b2a 24000000 		.4byte	.LFE17
 8661 0b2e 0100     		.2byte	0x1
 8662 0b30 50       		.byte	0x50
 8663 0b31 00000000 		.4byte	0
 8664 0b35 00000000 		.4byte	0
 8665              	.LLST60:
 8666 0b39 12000000 		.4byte	.LVL215
 8667 0b3d 18000000 		.4byte	.LVL216
 8668 0b41 0100     		.2byte	0x1
 8669 0b43 50       		.byte	0x50
 8670 0b44 18000000 		.4byte	.LVL216
 8671 0b48 1B000000 		.4byte	.LVL217-1
 8672 0b4c 0100     		.2byte	0x1
 8673 0b4e 51       		.byte	0x51
 8674 0b4f 20000000 		.4byte	.LVL219
 8675 0b53 22000000 		.4byte	.LVL220
 8676 0b57 0100     		.2byte	0x1
 8677 0b59 50       		.byte	0x50
 8678 0b5a 00000000 		.4byte	0
 8679 0b5e 00000000 		.4byte	0
 8680              	.LLST61:
 8681 0b62 00000000 		.4byte	.LVL221
 8682 0b66 09000000 		.4byte	.LVL222-1
 8683 0b6a 0100     		.2byte	0x1
 8684 0b6c 50       		.byte	0x50
ARM GAS  C:\Users\brian\AppData\Local\Temp\ccTYhJxe.s 			page 183


 8685 0b6d 09000000 		.4byte	.LVL222-1
 8686 0b71 36000000 		.4byte	.LFE40
 8687 0b75 0100     		.2byte	0x1
 8688 0b77 55       		.byte	0x55
 8689 0b78 00000000 		.4byte	0
 8690 0b7c 00000000 		.4byte	0
 8691              	.LLST62:
 8692 0b80 00000000 		.4byte	.LVL221
 8693 0b84 09000000 		.4byte	.LVL222-1
 8694 0b88 0100     		.2byte	0x1
 8695 0b8a 51       		.byte	0x51
 8696 0b8b 09000000 		.4byte	.LVL222-1
 8697 0b8f 36000000 		.4byte	.LFE40
 8698 0b93 0100     		.2byte	0x1
 8699 0b95 54       		.byte	0x54
 8700 0b96 00000000 		.4byte	0
 8701 0b9a 00000000 		.4byte	0
 8702              	.LLST63:
 8703 0b9e 12000000 		.4byte	.LVL223
 8704 0ba2 28000000 		.4byte	.LVL225
 8705 0ba6 0100     		.2byte	0x1
 8706 0ba8 50       		.byte	0x50
 8707 0ba9 32000000 		.4byte	.LVL227
 8708 0bad 34000000 		.4byte	.LVL228
 8709 0bb1 0100     		.2byte	0x1
 8710 0bb3 50       		.byte	0x50
 8711 0bb4 00000000 		.4byte	0
 8712 0bb8 00000000 		.4byte	0
 8713              	.LLST64:
 8714 0bbc 00000000 		.4byte	.LVL229
 8715 0bc0 0B000000 		.4byte	.LVL230-1
 8716 0bc4 0100     		.2byte	0x1
 8717 0bc6 50       		.byte	0x50
 8718 0bc7 0B000000 		.4byte	.LVL230-1
 8719 0bcb 46000000 		.4byte	.LFE43
 8720 0bcf 0100     		.2byte	0x1
 8721 0bd1 54       		.byte	0x54
 8722 0bd2 00000000 		.4byte	0
 8723 0bd6 00000000 		.4byte	0
 8724              	.LLST65:
 8725 0bda 00000000 		.4byte	.LVL229
 8726 0bde 0B000000 		.4byte	.LVL230-1
 8727 0be2 0100     		.2byte	0x1
 8728 0be4 51       		.byte	0x51
 8729 0be5 0B000000 		.4byte	.LVL230-1
 8730 0be9 46000000 		.4byte	.LFE43
 8731 0bed 0400     		.2byte	0x4
 8732 0bef F3       		.byte	0xf3
 8733 0bf0 01       		.uleb128 0x1
 8734 0bf1 51       		.byte	0x51
 8735 0bf2 9F       		.byte	0x9f
 8736 0bf3 00000000 		.4byte	0
 8737 0bf7 00000000 		.4byte	0
 8738              	.LLST66:
 8739 0bfb 00000000 		.4byte	.LVL229
 8740 0bff 0B000000 		.4byte	.LVL230-1
 8741 0c03 0100     		.2byte	0x1
ARM GAS  C:\Users\brian\AppData\Local\Temp\ccTYhJxe.s 			page 184


 8742 0c05 52       		.byte	0x52
 8743 0c06 0B000000 		.4byte	.LVL230-1
 8744 0c0a 20000000 		.4byte	.LVL233
 8745 0c0e 0100     		.2byte	0x1
 8746 0c10 55       		.byte	0x55
 8747 0c11 20000000 		.4byte	.LVL233
 8748 0c15 46000000 		.4byte	.LFE43
 8749 0c19 0400     		.2byte	0x4
 8750 0c1b F3       		.byte	0xf3
 8751 0c1c 01       		.uleb128 0x1
 8752 0c1d 52       		.byte	0x52
 8753 0c1e 9F       		.byte	0x9f
 8754 0c1f 00000000 		.4byte	0
 8755 0c23 00000000 		.4byte	0
 8756              	.LLST67:
 8757 0c27 00000000 		.4byte	.LVL229
 8758 0c2b 0B000000 		.4byte	.LVL230-1
 8759 0c2f 0100     		.2byte	0x1
 8760 0c31 53       		.byte	0x53
 8761 0c32 0B000000 		.4byte	.LVL230-1
 8762 0c36 46000000 		.4byte	.LFE43
 8763 0c3a 0100     		.2byte	0x1
 8764 0c3c 56       		.byte	0x56
 8765 0c3d 00000000 		.4byte	0
 8766 0c41 00000000 		.4byte	0
 8767              	.LLST68:
 8768 0c45 0C000000 		.4byte	.LVL230
 8769 0c49 12000000 		.4byte	.LVL231
 8770 0c4d 0100     		.2byte	0x1
 8771 0c4f 50       		.byte	0x50
 8772 0c50 12000000 		.4byte	.LVL231
 8773 0c54 15000000 		.4byte	.LVL232-1
 8774 0c58 0100     		.2byte	0x1
 8775 0c5a 51       		.byte	0x51
 8776 0c5b 00000000 		.4byte	0
 8777 0c5f 00000000 		.4byte	0
 8778              	.LLST69:
 8779 0c63 00000000 		.4byte	.LVL237
 8780 0c67 05000000 		.4byte	.LVL238-1
 8781 0c6b 0100     		.2byte	0x1
 8782 0c6d 50       		.byte	0x50
 8783 0c6e 05000000 		.4byte	.LVL238-1
 8784 0c72 10000000 		.4byte	.LFE18
 8785 0c76 0400     		.2byte	0x4
 8786 0c78 F3       		.byte	0xf3
 8787 0c79 01       		.uleb128 0x1
 8788 0c7a 50       		.byte	0x50
 8789 0c7b 9F       		.byte	0x9f
 8790 0c7c 00000000 		.4byte	0
 8791 0c80 00000000 		.4byte	0
 8792              	.LLST70:
 8793 0c84 00000000 		.4byte	.LVL237
 8794 0c88 05000000 		.4byte	.LVL238-1
 8795 0c8c 0100     		.2byte	0x1
 8796 0c8e 51       		.byte	0x51
 8797 0c8f 05000000 		.4byte	.LVL238-1
 8798 0c93 10000000 		.4byte	.LFE18
ARM GAS  C:\Users\brian\AppData\Local\Temp\ccTYhJxe.s 			page 185


 8799 0c97 0400     		.2byte	0x4
 8800 0c99 F3       		.byte	0xf3
 8801 0c9a 01       		.uleb128 0x1
 8802 0c9b 51       		.byte	0x51
 8803 0c9c 9F       		.byte	0x9f
 8804 0c9d 00000000 		.4byte	0
 8805 0ca1 00000000 		.4byte	0
 8806              	.LLST71:
 8807 0ca5 00000000 		.4byte	.LVL239
 8808 0ca9 07000000 		.4byte	.LVL240-1
 8809 0cad 0100     		.2byte	0x1
 8810 0caf 50       		.byte	0x50
 8811 0cb0 07000000 		.4byte	.LVL240-1
 8812 0cb4 3E000000 		.4byte	.LFE19
 8813 0cb8 0100     		.2byte	0x1
 8814 0cba 54       		.byte	0x54
 8815 0cbb 00000000 		.4byte	0
 8816 0cbf 00000000 		.4byte	0
 8817              	.LLST72:
 8818 0cc3 00000000 		.4byte	.LVL239
 8819 0cc7 07000000 		.4byte	.LVL240-1
 8820 0ccb 0100     		.2byte	0x1
 8821 0ccd 51       		.byte	0x51
 8822 0cce 07000000 		.4byte	.LVL240-1
 8823 0cd2 3E000000 		.4byte	.LFE19
 8824 0cd6 0400     		.2byte	0x4
 8825 0cd8 F3       		.byte	0xf3
 8826 0cd9 01       		.uleb128 0x1
 8827 0cda 51       		.byte	0x51
 8828 0cdb 9F       		.byte	0x9f
 8829 0cdc 00000000 		.4byte	0
 8830 0ce0 00000000 		.4byte	0
 8831              	.LLST73:
 8832 0ce4 08000000 		.4byte	.LVL240
 8833 0ce8 0E000000 		.4byte	.LVL241
 8834 0cec 0100     		.2byte	0x1
 8835 0cee 50       		.byte	0x50
 8836 0cef 0E000000 		.4byte	.LVL241
 8837 0cf3 11000000 		.4byte	.LVL242-1
 8838 0cf7 0100     		.2byte	0x1
 8839 0cf9 51       		.byte	0x51
 8840 0cfa 3A000000 		.4byte	.LVL246
 8841 0cfe 3C000000 		.4byte	.LVL247
 8842 0d02 0100     		.2byte	0x1
 8843 0d04 50       		.byte	0x50
 8844 0d05 00000000 		.4byte	0
 8845 0d09 00000000 		.4byte	0
 8846              	.LLST74:
 8847 0d0d 00000000 		.4byte	.LVL248
 8848 0d11 11000000 		.4byte	.LVL250-1
 8849 0d15 0100     		.2byte	0x1
 8850 0d17 50       		.byte	0x50
 8851 0d18 11000000 		.4byte	.LVL250-1
 8852 0d1c 72000000 		.4byte	.LFE42
 8853 0d20 0100     		.2byte	0x1
 8854 0d22 54       		.byte	0x54
 8855 0d23 00000000 		.4byte	0
ARM GAS  C:\Users\brian\AppData\Local\Temp\ccTYhJxe.s 			page 186


 8856 0d27 00000000 		.4byte	0
 8857              	.LLST75:
 8858 0d2b 00000000 		.4byte	.LVL248
 8859 0d2f 11000000 		.4byte	.LVL250-1
 8860 0d33 0100     		.2byte	0x1
 8861 0d35 51       		.byte	0x51
 8862 0d36 11000000 		.4byte	.LVL250-1
 8863 0d3a 72000000 		.4byte	.LFE42
 8864 0d3e 0100     		.2byte	0x1
 8865 0d40 55       		.byte	0x55
 8866 0d41 00000000 		.4byte	0
 8867 0d45 00000000 		.4byte	0
 8868              	.LLST76:
 8869 0d49 20000000 		.4byte	.LVL252
 8870 0d4d 36000000 		.4byte	.LVL254
 8871 0d51 0100     		.2byte	0x1
 8872 0d53 50       		.byte	0x50
 8873 0d54 4C000000 		.4byte	.LVL260
 8874 0d58 6E000000 		.4byte	.LVL267
 8875 0d5c 0100     		.2byte	0x1
 8876 0d5e 50       		.byte	0x50
 8877 0d5f 00000000 		.4byte	0
 8878 0d63 00000000 		.4byte	0
 8879              	.LLST77:
 8880 0d67 12000000 		.4byte	.LVL250
 8881 0d6b 18000000 		.4byte	.LVL251
 8882 0d6f 0200     		.2byte	0x2
 8883 0d71 30       		.byte	0x30
 8884 0d72 9F       		.byte	0x9f
 8885 0d73 18000000 		.4byte	.LVL251
 8886 0d77 48000000 		.4byte	.LVL258
 8887 0d7b 0100     		.2byte	0x1
 8888 0d7d 56       		.byte	0x56
 8889 0d7e 4A000000 		.4byte	.LVL259
 8890 0d82 54000000 		.4byte	.LVL261
 8891 0d86 0100     		.2byte	0x1
 8892 0d88 56       		.byte	0x56
 8893 0d89 56000000 		.4byte	.LVL262
 8894 0d8d 5A000000 		.4byte	.LVL263
 8895 0d91 0100     		.2byte	0x1
 8896 0d93 56       		.byte	0x56
 8897 0d94 5A000000 		.4byte	.LVL263
 8898 0d98 62000000 		.4byte	.LVL264
 8899 0d9c 0100     		.2byte	0x1
 8900 0d9e 53       		.byte	0x53
 8901 0d9f 62000000 		.4byte	.LVL264
 8902 0da3 6A000000 		.4byte	.LVL265
 8903 0da7 0100     		.2byte	0x1
 8904 0da9 56       		.byte	0x56
 8905 0daa 6A000000 		.4byte	.LVL265
 8906 0dae 6C000000 		.4byte	.LVL266
 8907 0db2 0D00     		.2byte	0xd
 8908 0db4 74       		.byte	0x74
 8909 0db5 9001     		.sleb128 144
 8910 0db7 94       		.byte	0x94
 8911 0db8 01       		.byte	0x1
 8912 0db9 48       		.byte	0x48
ARM GAS  C:\Users\brian\AppData\Local\Temp\ccTYhJxe.s 			page 187


 8913 0dba 24       		.byte	0x24
 8914 0dbb 48       		.byte	0x48
 8915 0dbc 26       		.byte	0x26
 8916 0dbd 73       		.byte	0x73
 8917 0dbe 00       		.sleb128 0
 8918 0dbf 22       		.byte	0x22
 8919 0dc0 9F       		.byte	0x9f
 8920 0dc1 6C000000 		.4byte	.LVL266
 8921 0dc5 72000000 		.4byte	.LFE42
 8922 0dc9 0100     		.2byte	0x1
 8923 0dcb 56       		.byte	0x56
 8924 0dcc 00000000 		.4byte	0
 8925 0dd0 00000000 		.4byte	0
 8926              	.LLST78:
 8927 0dd4 12000000 		.4byte	.LVL250
 8928 0dd8 18000000 		.4byte	.LVL251
 8929 0ddc 0200     		.2byte	0x2
 8930 0dde 30       		.byte	0x30
 8931 0ddf 9F       		.byte	0x9f
 8932 0de0 18000000 		.4byte	.LVL251
 8933 0de4 72000000 		.4byte	.LFE42
 8934 0de8 0100     		.2byte	0x1
 8935 0dea 57       		.byte	0x57
 8936 0deb 00000000 		.4byte	0
 8937 0def 00000000 		.4byte	0
 8938              	.LLST79:
 8939 0df3 08000000 		.4byte	.LVL249
 8940 0df7 18000000 		.4byte	.LVL251
 8941 0dfb 0300     		.2byte	0x3
 8942 0dfd 09       		.byte	0x9
 8943 0dfe C0       		.byte	0xc0
 8944 0dff 9F       		.byte	0x9f
 8945 0e00 18000000 		.4byte	.LVL251
 8946 0e04 72000000 		.4byte	.LFE42
 8947 0e08 0100     		.2byte	0x1
 8948 0e0a 58       		.byte	0x58
 8949 0e0b 00000000 		.4byte	0
 8950 0e0f 00000000 		.4byte	0
 8951              	.LLST80:
 8952 0e13 00000000 		.4byte	.LVL269
 8953 0e17 1D000000 		.4byte	.LVL272-1
 8954 0e1b 0100     		.2byte	0x1
 8955 0e1d 50       		.byte	0x50
 8956 0e1e 1D000000 		.4byte	.LVL272-1
 8957 0e22 24000000 		.4byte	.LVL274
 8958 0e26 0100     		.2byte	0x1
 8959 0e28 54       		.byte	0x54
 8960 0e29 24000000 		.4byte	.LVL274
 8961 0e2d 27000000 		.4byte	.LVL275-1
 8962 0e31 0100     		.2byte	0x1
 8963 0e33 50       		.byte	0x50
 8964 0e34 27000000 		.4byte	.LVL275-1
 8965 0e38 2E000000 		.4byte	.LVL277
 8966 0e3c 0100     		.2byte	0x1
 8967 0e3e 54       		.byte	0x54
 8968 0e3f 2E000000 		.4byte	.LVL277
 8969 0e43 31000000 		.4byte	.LVL278-1
ARM GAS  C:\Users\brian\AppData\Local\Temp\ccTYhJxe.s 			page 188


 8970 0e47 0100     		.2byte	0x1
 8971 0e49 50       		.byte	0x50
 8972 0e4a 31000000 		.4byte	.LVL278-1
 8973 0e4e 38000000 		.4byte	.LVL280
 8974 0e52 0100     		.2byte	0x1
 8975 0e54 54       		.byte	0x54
 8976 0e55 38000000 		.4byte	.LVL280
 8977 0e59 3B000000 		.4byte	.LVL281-1
 8978 0e5d 0100     		.2byte	0x1
 8979 0e5f 50       		.byte	0x50
 8980 0e60 3B000000 		.4byte	.LVL281-1
 8981 0e64 4E000000 		.4byte	.LFE21
 8982 0e68 0100     		.2byte	0x1
 8983 0e6a 54       		.byte	0x54
 8984 0e6b 00000000 		.4byte	0
 8985 0e6f 00000000 		.4byte	0
 8986              	.LLST81:
 8987 0e73 00000000 		.4byte	.LVL269
 8988 0e77 1D000000 		.4byte	.LVL272-1
 8989 0e7b 0100     		.2byte	0x1
 8990 0e7d 51       		.byte	0x51
 8991 0e7e 1D000000 		.4byte	.LVL272-1
 8992 0e82 24000000 		.4byte	.LVL274
 8993 0e86 0400     		.2byte	0x4
 8994 0e88 F3       		.byte	0xf3
 8995 0e89 01       		.uleb128 0x1
 8996 0e8a 51       		.byte	0x51
 8997 0e8b 9F       		.byte	0x9f
 8998 0e8c 24000000 		.4byte	.LVL274
 8999 0e90 27000000 		.4byte	.LVL275-1
 9000 0e94 0100     		.2byte	0x1
 9001 0e96 51       		.byte	0x51
 9002 0e97 27000000 		.4byte	.LVL275-1
 9003 0e9b 2C000000 		.4byte	.LVL276
 9004 0e9f 0400     		.2byte	0x4
 9005 0ea1 F3       		.byte	0xf3
 9006 0ea2 01       		.uleb128 0x1
 9007 0ea3 51       		.byte	0x51
 9008 0ea4 9F       		.byte	0x9f
 9009 0ea5 2C000000 		.4byte	.LVL276
 9010 0ea9 2E000000 		.4byte	.LVL277
 9011 0ead 0100     		.2byte	0x1
 9012 0eaf 55       		.byte	0x55
 9013 0eb0 2E000000 		.4byte	.LVL277
 9014 0eb4 31000000 		.4byte	.LVL278-1
 9015 0eb8 0100     		.2byte	0x1
 9016 0eba 51       		.byte	0x51
 9017 0ebb 31000000 		.4byte	.LVL278-1
 9018 0ebf 38000000 		.4byte	.LVL280
 9019 0ec3 0400     		.2byte	0x4
 9020 0ec5 F3       		.byte	0xf3
 9021 0ec6 01       		.uleb128 0x1
 9022 0ec7 51       		.byte	0x51
 9023 0ec8 9F       		.byte	0x9f
 9024 0ec9 38000000 		.4byte	.LVL280
 9025 0ecd 3B000000 		.4byte	.LVL281-1
 9026 0ed1 0100     		.2byte	0x1
ARM GAS  C:\Users\brian\AppData\Local\Temp\ccTYhJxe.s 			page 189


 9027 0ed3 51       		.byte	0x51
 9028 0ed4 3B000000 		.4byte	.LVL281-1
 9029 0ed8 40000000 		.4byte	.LVL282
 9030 0edc 0400     		.2byte	0x4
 9031 0ede F3       		.byte	0xf3
 9032 0edf 01       		.uleb128 0x1
 9033 0ee0 51       		.byte	0x51
 9034 0ee1 9F       		.byte	0x9f
 9035 0ee2 40000000 		.4byte	.LVL282
 9036 0ee6 4E000000 		.4byte	.LFE21
 9037 0eea 0100     		.2byte	0x1
 9038 0eec 55       		.byte	0x55
 9039 0eed 00000000 		.4byte	0
 9040 0ef1 00000000 		.4byte	0
 9041              	.LLST82:
 9042 0ef5 00000000 		.4byte	.LVL269
 9043 0ef9 16000000 		.4byte	.LVL271
 9044 0efd 0100     		.2byte	0x1
 9045 0eff 52       		.byte	0x52
 9046 0f00 16000000 		.4byte	.LVL271
 9047 0f04 22000000 		.4byte	.LVL273
 9048 0f08 0400     		.2byte	0x4
 9049 0f0a F3       		.byte	0xf3
 9050 0f0b 01       		.uleb128 0x1
 9051 0f0c 52       		.byte	0x52
 9052 0f0d 9F       		.byte	0x9f
 9053 0f0e 22000000 		.4byte	.LVL273
 9054 0f12 24000000 		.4byte	.LVL274
 9055 0f16 0100     		.2byte	0x1
 9056 0f18 56       		.byte	0x56
 9057 0f19 24000000 		.4byte	.LVL274
 9058 0f1d 36000000 		.4byte	.LVL279
 9059 0f21 0400     		.2byte	0x4
 9060 0f23 F3       		.byte	0xf3
 9061 0f24 01       		.uleb128 0x1
 9062 0f25 52       		.byte	0x52
 9063 0f26 9F       		.byte	0x9f
 9064 0f27 36000000 		.4byte	.LVL279
 9065 0f2b 38000000 		.4byte	.LVL280
 9066 0f2f 0100     		.2byte	0x1
 9067 0f31 56       		.byte	0x56
 9068 0f32 38000000 		.4byte	.LVL280
 9069 0f36 40000000 		.4byte	.LVL282
 9070 0f3a 0400     		.2byte	0x4
 9071 0f3c F3       		.byte	0xf3
 9072 0f3d 01       		.uleb128 0x1
 9073 0f3e 52       		.byte	0x52
 9074 0f3f 9F       		.byte	0x9f
 9075 0f40 40000000 		.4byte	.LVL282
 9076 0f44 4E000000 		.4byte	.LFE21
 9077 0f48 0100     		.2byte	0x1
 9078 0f4a 56       		.byte	0x56
 9079 0f4b 00000000 		.4byte	0
 9080 0f4f 00000000 		.4byte	0
 9081              	.LLST83:
 9082 0f53 00000000 		.4byte	.LVL269
 9083 0f57 0E000000 		.4byte	.LVL270
ARM GAS  C:\Users\brian\AppData\Local\Temp\ccTYhJxe.s 			page 190


 9084 0f5b 0100     		.2byte	0x1
 9085 0f5d 53       		.byte	0x53
 9086 0f5e 0E000000 		.4byte	.LVL270
 9087 0f62 4E000000 		.4byte	.LFE21
 9088 0f66 0400     		.2byte	0x4
 9089 0f68 F3       		.byte	0xf3
 9090 0f69 01       		.uleb128 0x1
 9091 0f6a 53       		.byte	0x53
 9092 0f6b 9F       		.byte	0x9f
 9093 0f6c 00000000 		.4byte	0
 9094 0f70 00000000 		.4byte	0
 9095              	.LLST84:
 9096 0f74 00000000 		.4byte	.LVL284
 9097 0f78 0F000000 		.4byte	.LVL285-1
 9098 0f7c 0100     		.2byte	0x1
 9099 0f7e 50       		.byte	0x50
 9100 0f7f 0F000000 		.4byte	.LVL285-1
 9101 0f83 6E000000 		.4byte	.LFE22
 9102 0f87 0100     		.2byte	0x1
 9103 0f89 54       		.byte	0x54
 9104 0f8a 00000000 		.4byte	0
 9105 0f8e 00000000 		.4byte	0
 9106              	.LLST85:
 9107 0f92 00000000 		.4byte	.LVL284
 9108 0f96 0F000000 		.4byte	.LVL285-1
 9109 0f9a 0100     		.2byte	0x1
 9110 0f9c 51       		.byte	0x51
 9111 0f9d 0F000000 		.4byte	.LVL285-1
 9112 0fa1 14000000 		.4byte	.LVL286
 9113 0fa5 0400     		.2byte	0x4
 9114 0fa7 F3       		.byte	0xf3
 9115 0fa8 01       		.uleb128 0x1
 9116 0fa9 51       		.byte	0x51
 9117 0faa 9F       		.byte	0x9f
 9118 0fab 14000000 		.4byte	.LVL286
 9119 0faf 4C000000 		.4byte	.LVL291
 9120 0fb3 0100     		.2byte	0x1
 9121 0fb5 57       		.byte	0x57
 9122 0fb6 4E000000 		.4byte	.LVL292
 9123 0fba 58000000 		.4byte	.LVL295
 9124 0fbe 0100     		.2byte	0x1
 9125 0fc0 57       		.byte	0x57
 9126 0fc1 5A000000 		.4byte	.LVL296
 9127 0fc5 6E000000 		.4byte	.LFE22
 9128 0fc9 0100     		.2byte	0x1
 9129 0fcb 57       		.byte	0x57
 9130 0fcc 00000000 		.4byte	0
 9131 0fd0 00000000 		.4byte	0
 9132              	.LLST86:
 9133 0fd4 00000000 		.4byte	.LVL284
 9134 0fd8 0F000000 		.4byte	.LVL285-1
 9135 0fdc 0100     		.2byte	0x1
 9136 0fde 52       		.byte	0x52
 9137 0fdf 0F000000 		.4byte	.LVL285-1
 9138 0fe3 14000000 		.4byte	.LVL286
 9139 0fe7 0400     		.2byte	0x4
 9140 0fe9 F3       		.byte	0xf3
ARM GAS  C:\Users\brian\AppData\Local\Temp\ccTYhJxe.s 			page 191


 9141 0fea 01       		.uleb128 0x1
 9142 0feb 52       		.byte	0x52
 9143 0fec 9F       		.byte	0x9f
 9144 0fed 14000000 		.4byte	.LVL286
 9145 0ff1 52000000 		.4byte	.LVL293
 9146 0ff5 0100     		.2byte	0x1
 9147 0ff7 56       		.byte	0x56
 9148 0ff8 54000000 		.4byte	.LVL294
 9149 0ffc 5E000000 		.4byte	.LVL297
 9150 1000 0100     		.2byte	0x1
 9151 1002 56       		.byte	0x56
 9152 1003 60000000 		.4byte	.LVL298
 9153 1007 6E000000 		.4byte	.LFE22
 9154 100b 0100     		.2byte	0x1
 9155 100d 56       		.byte	0x56
 9156 100e 00000000 		.4byte	0
 9157 1012 00000000 		.4byte	0
 9158              	.LLST87:
 9159 1016 00000000 		.4byte	.LVL284
 9160 101a 0F000000 		.4byte	.LVL285-1
 9161 101e 0100     		.2byte	0x1
 9162 1020 53       		.byte	0x53
 9163 1021 0F000000 		.4byte	.LVL285-1
 9164 1025 6E000000 		.4byte	.LFE22
 9165 1029 0100     		.2byte	0x1
 9166 102b 55       		.byte	0x55
 9167 102c 00000000 		.4byte	0
 9168 1030 00000000 		.4byte	0
 9169              	.LLST88:
 9170 1034 1C000000 		.4byte	.LVL287
 9171 1038 36000000 		.4byte	.LVL289
 9172 103c 0100     		.2byte	0x1
 9173 103e 50       		.byte	0x50
 9174 103f 68000000 		.4byte	.LVL301
 9175 1043 6A000000 		.4byte	.LVL302
 9176 1047 0100     		.2byte	0x1
 9177 1049 50       		.byte	0x50
 9178 104a 00000000 		.4byte	0
 9179 104e 00000000 		.4byte	0
 9180              	.LLST89:
 9181 1052 3A000000 		.4byte	.LVL290
 9182 1056 62000000 		.4byte	.LVL299
 9183 105a 0100     		.2byte	0x1
 9184 105c 50       		.byte	0x50
 9185 105d 00000000 		.4byte	0
 9186 1061 00000000 		.4byte	0
 9187              	.LLST90:
 9188 1065 10000000 		.4byte	.LVL285
 9189 1069 14000000 		.4byte	.LVL286
 9190 106d 0200     		.2byte	0x2
 9191 106f 30       		.byte	0x30
 9192 1070 9F       		.byte	0x9f
 9193 1071 14000000 		.4byte	.LVL286
 9194 1075 6E000000 		.4byte	.LFE22
 9195 1079 0100     		.2byte	0x1
 9196 107b 58       		.byte	0x58
 9197 107c 00000000 		.4byte	0
ARM GAS  C:\Users\brian\AppData\Local\Temp\ccTYhJxe.s 			page 192


 9198 1080 00000000 		.4byte	0
 9199              	.LLST91:
 9200 1084 00000000 		.4byte	.LVL303
 9201 1088 09000000 		.4byte	.LVL304-1
 9202 108c 0100     		.2byte	0x1
 9203 108e 50       		.byte	0x50
 9204 108f 09000000 		.4byte	.LVL304-1
 9205 1093 10000000 		.4byte	.LFE23
 9206 1097 0400     		.2byte	0x4
 9207 1099 F3       		.byte	0xf3
 9208 109a 01       		.uleb128 0x1
 9209 109b 50       		.byte	0x50
 9210 109c 9F       		.byte	0x9f
 9211 109d 00000000 		.4byte	0
 9212 10a1 00000000 		.4byte	0
 9213              	.LLST92:
 9214 10a5 00000000 		.4byte	.LVL303
 9215 10a9 09000000 		.4byte	.LVL304-1
 9216 10ad 0100     		.2byte	0x1
 9217 10af 51       		.byte	0x51
 9218 10b0 09000000 		.4byte	.LVL304-1
 9219 10b4 10000000 		.4byte	.LFE23
 9220 10b8 0400     		.2byte	0x4
 9221 10ba F3       		.byte	0xf3
 9222 10bb 01       		.uleb128 0x1
 9223 10bc 51       		.byte	0x51
 9224 10bd 9F       		.byte	0x9f
 9225 10be 00000000 		.4byte	0
 9226 10c2 00000000 		.4byte	0
 9227              	.LLST93:
 9228 10c6 00000000 		.4byte	.LVL303
 9229 10ca 09000000 		.4byte	.LVL304-1
 9230 10ce 0100     		.2byte	0x1
 9231 10d0 52       		.byte	0x52
 9232 10d1 09000000 		.4byte	.LVL304-1
 9233 10d5 10000000 		.4byte	.LFE23
 9234 10d9 0400     		.2byte	0x4
 9235 10db F3       		.byte	0xf3
 9236 10dc 01       		.uleb128 0x1
 9237 10dd 52       		.byte	0x52
 9238 10de 9F       		.byte	0x9f
 9239 10df 00000000 		.4byte	0
 9240 10e3 00000000 		.4byte	0
 9241              	.LLST94:
 9242 10e7 00000000 		.4byte	.LVL303
 9243 10eb 09000000 		.4byte	.LVL304-1
 9244 10ef 0100     		.2byte	0x1
 9245 10f1 53       		.byte	0x53
 9246 10f2 09000000 		.4byte	.LVL304-1
 9247 10f6 10000000 		.4byte	.LFE23
 9248 10fa 0400     		.2byte	0x4
 9249 10fc F3       		.byte	0xf3
 9250 10fd 01       		.uleb128 0x1
 9251 10fe 53       		.byte	0x53
 9252 10ff 9F       		.byte	0x9f
 9253 1100 00000000 		.4byte	0
 9254 1104 00000000 		.4byte	0
ARM GAS  C:\Users\brian\AppData\Local\Temp\ccTYhJxe.s 			page 193


 9255              	.LLST95:
 9256 1108 00000000 		.4byte	.LVL305
 9257 110c 09000000 		.4byte	.LVL306-1
 9258 1110 0100     		.2byte	0x1
 9259 1112 50       		.byte	0x50
 9260 1113 09000000 		.4byte	.LVL306-1
 9261 1117 10000000 		.4byte	.LFE24
 9262 111b 0400     		.2byte	0x4
 9263 111d F3       		.byte	0xf3
 9264 111e 01       		.uleb128 0x1
 9265 111f 50       		.byte	0x50
 9266 1120 9F       		.byte	0x9f
 9267 1121 00000000 		.4byte	0
 9268 1125 00000000 		.4byte	0
 9269              	.LLST96:
 9270 1129 00000000 		.4byte	.LVL305
 9271 112d 09000000 		.4byte	.LVL306-1
 9272 1131 0100     		.2byte	0x1
 9273 1133 51       		.byte	0x51
 9274 1134 09000000 		.4byte	.LVL306-1
 9275 1138 10000000 		.4byte	.LFE24
 9276 113c 0400     		.2byte	0x4
 9277 113e F3       		.byte	0xf3
 9278 113f 01       		.uleb128 0x1
 9279 1140 51       		.byte	0x51
 9280 1141 9F       		.byte	0x9f
 9281 1142 00000000 		.4byte	0
 9282 1146 00000000 		.4byte	0
 9283              	.LLST97:
 9284 114a 00000000 		.4byte	.LVL305
 9285 114e 09000000 		.4byte	.LVL306-1
 9286 1152 0100     		.2byte	0x1
 9287 1154 52       		.byte	0x52
 9288 1155 09000000 		.4byte	.LVL306-1
 9289 1159 10000000 		.4byte	.LFE24
 9290 115d 0400     		.2byte	0x4
 9291 115f F3       		.byte	0xf3
 9292 1160 01       		.uleb128 0x1
 9293 1161 52       		.byte	0x52
 9294 1162 9F       		.byte	0x9f
 9295 1163 00000000 		.4byte	0
 9296 1167 00000000 		.4byte	0
 9297              	.LLST98:
 9298 116b 00000000 		.4byte	.LVL305
 9299 116f 09000000 		.4byte	.LVL306-1
 9300 1173 0100     		.2byte	0x1
 9301 1175 53       		.byte	0x53
 9302 1176 09000000 		.4byte	.LVL306-1
 9303 117a 10000000 		.4byte	.LFE24
 9304 117e 0400     		.2byte	0x4
 9305 1180 F3       		.byte	0xf3
 9306 1181 01       		.uleb128 0x1
 9307 1182 53       		.byte	0x53
 9308 1183 9F       		.byte	0x9f
 9309 1184 00000000 		.4byte	0
 9310 1188 00000000 		.4byte	0
 9311              	.LLST99:
ARM GAS  C:\Users\brian\AppData\Local\Temp\ccTYhJxe.s 			page 194


 9312 118c 00000000 		.4byte	.LVL307
 9313 1190 19000000 		.4byte	.LVL310-1
 9314 1194 0100     		.2byte	0x1
 9315 1196 50       		.byte	0x50
 9316 1197 19000000 		.4byte	.LVL310-1
 9317 119b B0000000 		.4byte	.LVL339
 9318 119f 0100     		.2byte	0x1
 9319 11a1 59       		.byte	0x59
 9320 11a2 B0000000 		.4byte	.LVL339
 9321 11a6 B4000000 		.4byte	.LFE25
 9322 11aa 0400     		.2byte	0x4
 9323 11ac F3       		.byte	0xf3
 9324 11ad 01       		.uleb128 0x1
 9325 11ae 50       		.byte	0x50
 9326 11af 9F       		.byte	0x9f
 9327 11b0 00000000 		.4byte	0
 9328 11b4 00000000 		.4byte	0
 9329              	.LLST100:
 9330 11b8 00000000 		.4byte	.LVL307
 9331 11bc 19000000 		.4byte	.LVL310-1
 9332 11c0 0100     		.2byte	0x1
 9333 11c2 51       		.byte	0x51
 9334 11c3 19000000 		.4byte	.LVL310-1
 9335 11c7 20000000 		.4byte	.LVL311
 9336 11cb 0400     		.2byte	0x4
 9337 11cd F3       		.byte	0xf3
 9338 11ce 01       		.uleb128 0x1
 9339 11cf 51       		.byte	0x51
 9340 11d0 9F       		.byte	0x9f
 9341 11d1 20000000 		.4byte	.LVL311
 9342 11d5 6A000000 		.4byte	.LVL322
 9343 11d9 0100     		.2byte	0x1
 9344 11db 57       		.byte	0x57
 9345 11dc 6C000000 		.4byte	.LVL323
 9346 11e0 98000000 		.4byte	.LVL330
 9347 11e4 0100     		.2byte	0x1
 9348 11e6 57       		.byte	0x57
 9349 11e7 9A000000 		.4byte	.LVL331
 9350 11eb 9E000000 		.4byte	.LVL332
 9351 11ef 0100     		.2byte	0x1
 9352 11f1 57       		.byte	0x57
 9353 11f2 A0000000 		.4byte	.LVL333
 9354 11f6 B0000000 		.4byte	.LVL339
 9355 11fa 0100     		.2byte	0x1
 9356 11fc 57       		.byte	0x57
 9357 11fd 00000000 		.4byte	0
 9358 1201 00000000 		.4byte	0
 9359              	.LLST101:
 9360 1205 00000000 		.4byte	.LVL307
 9361 1209 19000000 		.4byte	.LVL310-1
 9362 120d 0100     		.2byte	0x1
 9363 120f 52       		.byte	0x52
 9364 1210 19000000 		.4byte	.LVL310-1
 9365 1214 B4000000 		.4byte	.LFE25
 9366 1218 0400     		.2byte	0x4
 9367 121a F3       		.byte	0xf3
 9368 121b 01       		.uleb128 0x1
ARM GAS  C:\Users\brian\AppData\Local\Temp\ccTYhJxe.s 			page 195


 9369 121c 52       		.byte	0x52
 9370 121d 9F       		.byte	0x9f
 9371 121e 00000000 		.4byte	0
 9372 1222 00000000 		.4byte	0
 9373              	.LLST102:
 9374 1226 00000000 		.4byte	.LVL307
 9375 122a 14000000 		.4byte	.LVL308
 9376 122e 0100     		.2byte	0x1
 9377 1230 53       		.byte	0x53
 9378 1231 14000000 		.4byte	.LVL308
 9379 1235 B4000000 		.4byte	.LFE25
 9380 1239 0400     		.2byte	0x4
 9381 123b F3       		.byte	0xf3
 9382 123c 01       		.uleb128 0x1
 9383 123d 53       		.byte	0x53
 9384 123e 9F       		.byte	0x9f
 9385 123f 00000000 		.4byte	0
 9386 1243 00000000 		.4byte	0
 9387              	.LLST103:
 9388 1247 00000000 		.4byte	.LVL307
 9389 124b B0000000 		.4byte	.LVL339
 9390 124f 0200     		.2byte	0x2
 9391 1251 91       		.byte	0x91
 9392 1252 00       		.sleb128 0
 9393 1253 B0000000 		.4byte	.LVL339
 9394 1257 B4000000 		.4byte	.LFE25
 9395 125b 0200     		.2byte	0x2
 9396 125d 7D       		.byte	0x7d
 9397 125e 00       		.sleb128 0
 9398 125f 00000000 		.4byte	0
 9399 1263 00000000 		.4byte	0
 9400              	.LLST104:
 9401 1267 00000000 		.4byte	.LVL307
 9402 126b 20000000 		.4byte	.LVL311
 9403 126f 0200     		.2byte	0x2
 9404 1271 91       		.byte	0x91
 9405 1272 04       		.sleb128 4
 9406 1273 20000000 		.4byte	.LVL311
 9407 1277 B0000000 		.4byte	.LVL339
 9408 127b 0100     		.2byte	0x1
 9409 127d 5A       		.byte	0x5a
 9410 127e 00000000 		.4byte	0
 9411 1282 00000000 		.4byte	0
 9412              	.LLST105:
 9413 1286 16000000 		.4byte	.LVL309
 9414 128a 20000000 		.4byte	.LVL311
 9415 128e 0300     		.2byte	0x3
 9416 1290 09       		.byte	0x9
 9417 1291 FF       		.byte	0xff
 9418 1292 9F       		.byte	0x9f
 9419 1293 20000000 		.4byte	.LVL311
 9420 1297 62000000 		.4byte	.LVL319
 9421 129b 0100     		.2byte	0x1
 9422 129d 58       		.byte	0x58
 9423 129e 6E000000 		.4byte	.LVL324
 9424 12a2 7E000000 		.4byte	.LVL326
 9425 12a6 0100     		.2byte	0x1
ARM GAS  C:\Users\brian\AppData\Local\Temp\ccTYhJxe.s 			page 196


 9426 12a8 58       		.byte	0x58
 9427 12a9 84000000 		.4byte	.LVL328
 9428 12ad A8000000 		.4byte	.LVL337
 9429 12b1 0100     		.2byte	0x1
 9430 12b3 54       		.byte	0x54
 9431 12b4 A8000000 		.4byte	.LVL337
 9432 12b8 B0000000 		.4byte	.LVL339
 9433 12bc 0100     		.2byte	0x1
 9434 12be 58       		.byte	0x58
 9435 12bf 00000000 		.4byte	0
 9436 12c3 00000000 		.4byte	0
 9437              	.LLST106:
 9438 12c7 2E000000 		.4byte	.LVL313
 9439 12cb 46000000 		.4byte	.LVL315
 9440 12cf 0100     		.2byte	0x1
 9441 12d1 50       		.byte	0x50
 9442 12d2 A8000000 		.4byte	.LVL337
 9443 12d6 AA000000 		.4byte	.LVL338
 9444 12da 0100     		.2byte	0x1
 9445 12dc 50       		.byte	0x50
 9446 12dd 00000000 		.4byte	0
 9447 12e1 00000000 		.4byte	0
 9448              	.LLST107:
 9449 12e5 4C000000 		.4byte	.LVL317
 9450 12e9 66000000 		.4byte	.LVL320
 9451 12ed 0100     		.2byte	0x1
 9452 12ef 56       		.byte	0x56
 9453 12f0 68000000 		.4byte	.LVL321
 9454 12f4 82000000 		.4byte	.LVL327
 9455 12f8 0100     		.2byte	0x1
 9456 12fa 56       		.byte	0x56
 9457 12fb 84000000 		.4byte	.LVL328
 9458 12ff A8000000 		.4byte	.LVL337
 9459 1303 0100     		.2byte	0x1
 9460 1305 56       		.byte	0x56
 9461 1306 00000000 		.4byte	0
 9462 130a 00000000 		.4byte	0
 9463              	.LLST108:
 9464 130e 1A000000 		.4byte	.LVL310
 9465 1312 20000000 		.4byte	.LVL311
 9466 1316 0200     		.2byte	0x2
 9467 1318 30       		.byte	0x30
 9468 1319 9F       		.byte	0x9f
 9469 131a 20000000 		.4byte	.LVL311
 9470 131e A2000000 		.4byte	.LVL334
 9471 1322 0100     		.2byte	0x1
 9472 1324 55       		.byte	0x55
 9473 1325 A4000000 		.4byte	.LVL335
 9474 1329 B0000000 		.4byte	.LVL339
 9475 132d 0100     		.2byte	0x1
 9476 132f 55       		.byte	0x55
 9477 1330 00000000 		.4byte	0
 9478 1334 00000000 		.4byte	0
 9479              	.LLST109:
 9480 1338 62000000 		.4byte	.LVL319
 9481 133c 6E000000 		.4byte	.LVL324
 9482 1340 0100     		.2byte	0x1
ARM GAS  C:\Users\brian\AppData\Local\Temp\ccTYhJxe.s 			page 197


 9483 1342 58       		.byte	0x58
 9484 1343 7E000000 		.4byte	.LVL326
 9485 1347 A6000000 		.4byte	.LVL336
 9486 134b 0100     		.2byte	0x1
 9487 134d 58       		.byte	0x58
 9488 134e 00000000 		.4byte	0
 9489 1352 00000000 		.4byte	0
 9490              	.LLST110:
 9491 1356 00000000 		.4byte	.LVL340
 9492 135a 17000000 		.4byte	.LVL343-1
 9493 135e 0100     		.2byte	0x1
 9494 1360 50       		.byte	0x50
 9495 1361 17000000 		.4byte	.LVL343-1
 9496 1365 A4000000 		.4byte	.LVL370
 9497 1369 0100     		.2byte	0x1
 9498 136b 56       		.byte	0x56
 9499 136c A4000000 		.4byte	.LVL370
 9500 1370 A8000000 		.4byte	.LFE26
 9501 1374 0400     		.2byte	0x4
 9502 1376 F3       		.byte	0xf3
 9503 1377 01       		.uleb128 0x1
 9504 1378 50       		.byte	0x50
 9505 1379 9F       		.byte	0x9f
 9506 137a 00000000 		.4byte	0
 9507 137e 00000000 		.4byte	0
 9508              	.LLST111:
 9509 1382 00000000 		.4byte	.LVL340
 9510 1386 17000000 		.4byte	.LVL343-1
 9511 138a 0100     		.2byte	0x1
 9512 138c 51       		.byte	0x51
 9513 138d 17000000 		.4byte	.LVL343-1
 9514 1391 20000000 		.4byte	.LVL344
 9515 1395 0400     		.2byte	0x4
 9516 1397 F3       		.byte	0xf3
 9517 1398 01       		.uleb128 0x1
 9518 1399 51       		.byte	0x51
 9519 139a 9F       		.byte	0x9f
 9520 139b 20000000 		.4byte	.LVL344
 9521 139f 62000000 		.4byte	.LVL355
 9522 13a3 0100     		.2byte	0x1
 9523 13a5 58       		.byte	0x58
 9524 13a6 66000000 		.4byte	.LVL356
 9525 13aa 82000000 		.4byte	.LVL362
 9526 13ae 0100     		.2byte	0x1
 9527 13b0 58       		.byte	0x58
 9528 13b1 86000000 		.4byte	.LVL363
 9529 13b5 A4000000 		.4byte	.LVL370
 9530 13b9 0100     		.2byte	0x1
 9531 13bb 58       		.byte	0x58
 9532 13bc 00000000 		.4byte	0
 9533 13c0 00000000 		.4byte	0
 9534              	.LLST112:
 9535 13c4 00000000 		.4byte	.LVL340
 9536 13c8 17000000 		.4byte	.LVL343-1
 9537 13cc 0100     		.2byte	0x1
 9538 13ce 52       		.byte	0x52
 9539 13cf 17000000 		.4byte	.LVL343-1
ARM GAS  C:\Users\brian\AppData\Local\Temp\ccTYhJxe.s 			page 198


 9540 13d3 A8000000 		.4byte	.LFE26
 9541 13d7 0400     		.2byte	0x4
 9542 13d9 F3       		.byte	0xf3
 9543 13da 01       		.uleb128 0x1
 9544 13db 52       		.byte	0x52
 9545 13dc 9F       		.byte	0x9f
 9546 13dd 00000000 		.4byte	0
 9547 13e1 00000000 		.4byte	0
 9548              	.LLST113:
 9549 13e5 00000000 		.4byte	.LVL340
 9550 13e9 12000000 		.4byte	.LVL341
 9551 13ed 0100     		.2byte	0x1
 9552 13ef 53       		.byte	0x53
 9553 13f0 12000000 		.4byte	.LVL341
 9554 13f4 A8000000 		.4byte	.LFE26
 9555 13f8 0400     		.2byte	0x4
 9556 13fa F3       		.byte	0xf3
 9557 13fb 01       		.uleb128 0x1
 9558 13fc 53       		.byte	0x53
 9559 13fd 9F       		.byte	0x9f
 9560 13fe 00000000 		.4byte	0
 9561 1402 00000000 		.4byte	0
 9562              	.LLST114:
 9563 1406 00000000 		.4byte	.LVL340
 9564 140a A4000000 		.4byte	.LVL370
 9565 140e 0200     		.2byte	0x2
 9566 1410 91       		.byte	0x91
 9567 1411 00       		.sleb128 0
 9568 1412 A4000000 		.4byte	.LVL370
 9569 1416 A8000000 		.4byte	.LFE26
 9570 141a 0200     		.2byte	0x2
 9571 141c 7D       		.byte	0x7d
 9572 141d 00       		.sleb128 0
 9573 141e 00000000 		.4byte	0
 9574 1422 00000000 		.4byte	0
 9575              	.LLST115:
 9576 1426 00000000 		.4byte	.LVL340
 9577 142a 20000000 		.4byte	.LVL344
 9578 142e 0200     		.2byte	0x2
 9579 1430 91       		.byte	0x91
 9580 1431 04       		.sleb128 4
 9581 1432 20000000 		.4byte	.LVL344
 9582 1436 A4000000 		.4byte	.LVL370
 9583 143a 0100     		.2byte	0x1
 9584 143c 57       		.byte	0x57
 9585 143d 00000000 		.4byte	0
 9586 1441 00000000 		.4byte	0
 9587              	.LLST116:
 9588 1445 14000000 		.4byte	.LVL342
 9589 1449 20000000 		.4byte	.LVL344
 9590 144d 0300     		.2byte	0x3
 9591 144f 09       		.byte	0x9
 9592 1450 FF       		.byte	0xff
 9593 1451 9F       		.byte	0x9f
 9594 1452 20000000 		.4byte	.LVL344
 9595 1456 7A000000 		.4byte	.LVL361
 9596 145a 0100     		.2byte	0x1
ARM GAS  C:\Users\brian\AppData\Local\Temp\ccTYhJxe.s 			page 199


 9597 145c 5A       		.byte	0x5a
 9598 145d 7A000000 		.4byte	.LVL361
 9599 1461 9C000000 		.4byte	.LVL368
 9600 1465 0100     		.2byte	0x1
 9601 1467 54       		.byte	0x54
 9602 1468 9C000000 		.4byte	.LVL368
 9603 146c A4000000 		.4byte	.LVL370
 9604 1470 0100     		.2byte	0x1
 9605 1472 5A       		.byte	0x5a
 9606 1473 00000000 		.4byte	0
 9607 1477 00000000 		.4byte	0
 9608              	.LLST117:
 9609 147b 2A000000 		.4byte	.LVL346
 9610 147f 40000000 		.4byte	.LVL348
 9611 1483 0100     		.2byte	0x1
 9612 1485 50       		.byte	0x50
 9613 1486 9C000000 		.4byte	.LVL368
 9614 148a 9E000000 		.4byte	.LVL369
 9615 148e 0100     		.2byte	0x1
 9616 1490 50       		.byte	0x50
 9617 1491 00000000 		.4byte	0
 9618 1495 00000000 		.4byte	0
 9619              	.LLST118:
 9620 1499 46000000 		.4byte	.LVL350
 9621 149d 5C000000 		.4byte	.LVL353
 9622 14a1 0100     		.2byte	0x1
 9623 14a3 55       		.byte	0x55
 9624 14a4 5E000000 		.4byte	.LVL354
 9625 14a8 78000000 		.4byte	.LVL360
 9626 14ac 0100     		.2byte	0x1
 9627 14ae 55       		.byte	0x55
 9628 14af 7A000000 		.4byte	.LVL361
 9629 14b3 9C000000 		.4byte	.LVL368
 9630 14b7 0100     		.2byte	0x1
 9631 14b9 55       		.byte	0x55
 9632 14ba 00000000 		.4byte	0
 9633 14be 00000000 		.4byte	0
 9634              	.LLST119:
 9635 14c2 18000000 		.4byte	.LVL343
 9636 14c6 20000000 		.4byte	.LVL344
 9637 14ca 0200     		.2byte	0x2
 9638 14cc 30       		.byte	0x30
 9639 14cd 9F       		.byte	0x9f
 9640 14ce 20000000 		.4byte	.LVL344
 9641 14d2 94000000 		.4byte	.LVL366
 9642 14d6 0100     		.2byte	0x1
 9643 14d8 59       		.byte	0x59
 9644 14d9 98000000 		.4byte	.LVL367
 9645 14dd A4000000 		.4byte	.LVL370
 9646 14e1 0100     		.2byte	0x1
 9647 14e3 59       		.byte	0x59
 9648 14e4 00000000 		.4byte	0
 9649 14e8 00000000 		.4byte	0
 9650              	.LLST120:
 9651 14ec 5A000000 		.4byte	.LVL352
 9652 14f0 68000000 		.4byte	.LVL357
 9653 14f4 0100     		.2byte	0x1
ARM GAS  C:\Users\brian\AppData\Local\Temp\ccTYhJxe.s 			page 200


 9654 14f6 50       		.byte	0x50
 9655 14f7 76000000 		.4byte	.LVL359
 9656 14fb 8E000000 		.4byte	.LVL364
 9657 14ff 0100     		.2byte	0x1
 9658 1501 50       		.byte	0x50
 9659 1502 00000000 		.4byte	0
 9660 1506 00000000 		.4byte	0
 9661              	.LLST121:
 9662 150a 00000000 		.4byte	.LVL372
 9663 150e 0B000000 		.4byte	.LVL373-1
 9664 1512 0100     		.2byte	0x1
 9665 1514 50       		.byte	0x50
 9666 1515 0B000000 		.4byte	.LVL373-1
 9667 1519 0E000000 		.4byte	.LFE28
 9668 151d 0400     		.2byte	0x4
 9669 151f F3       		.byte	0xf3
 9670 1520 01       		.uleb128 0x1
 9671 1521 50       		.byte	0x50
 9672 1522 9F       		.byte	0x9f
 9673 1523 00000000 		.4byte	0
 9674 1527 00000000 		.4byte	0
 9675              	.LLST122:
 9676 152b 00000000 		.4byte	.LVL374
 9677 152f 0B000000 		.4byte	.LVL375-1
 9678 1533 0100     		.2byte	0x1
 9679 1535 50       		.byte	0x50
 9680 1536 0B000000 		.4byte	.LVL375-1
 9681 153a 0E000000 		.4byte	.LFE29
 9682 153e 0400     		.2byte	0x4
 9683 1540 F3       		.byte	0xf3
 9684 1541 01       		.uleb128 0x1
 9685 1542 50       		.byte	0x50
 9686 1543 9F       		.byte	0x9f
 9687 1544 00000000 		.4byte	0
 9688 1548 00000000 		.4byte	0
 9689              	.LLST123:
 9690 154c 00000000 		.4byte	.LVL376
 9691 1550 0B000000 		.4byte	.LVL377-1
 9692 1554 0100     		.2byte	0x1
 9693 1556 50       		.byte	0x50
 9694 1557 0B000000 		.4byte	.LVL377-1
 9695 155b 0E000000 		.4byte	.LFE30
 9696 155f 0400     		.2byte	0x4
 9697 1561 F3       		.byte	0xf3
 9698 1562 01       		.uleb128 0x1
 9699 1563 50       		.byte	0x50
 9700 1564 9F       		.byte	0x9f
 9701 1565 00000000 		.4byte	0
 9702 1569 00000000 		.4byte	0
 9703              	.LLST124:
 9704 156d 00000000 		.4byte	.LVL382
 9705 1571 0E000000 		.4byte	.LVL383
 9706 1575 0100     		.2byte	0x1
 9707 1577 50       		.byte	0x50
 9708 1578 0E000000 		.4byte	.LVL383
 9709 157c 1A000000 		.4byte	.LVL386
 9710 1580 0100     		.2byte	0x1
ARM GAS  C:\Users\brian\AppData\Local\Temp\ccTYhJxe.s 			page 201


 9711 1582 54       		.byte	0x54
 9712 1583 1A000000 		.4byte	.LVL386
 9713 1587 1C000000 		.4byte	.LFE39
 9714 158b 0100     		.2byte	0x1
 9715 158d 50       		.byte	0x50
 9716 158e 00000000 		.4byte	0
 9717 1592 00000000 		.4byte	0
 9718              	.LLST125:
 9719 1596 00000000 		.4byte	.LVL382
 9720 159a 11000000 		.4byte	.LVL384-1
 9721 159e 0100     		.2byte	0x1
 9722 15a0 51       		.byte	0x51
 9723 15a1 11000000 		.4byte	.LVL384-1
 9724 15a5 1A000000 		.4byte	.LVL386
 9725 15a9 0400     		.2byte	0x4
 9726 15ab F3       		.byte	0xf3
 9727 15ac 01       		.uleb128 0x1
 9728 15ad 51       		.byte	0x51
 9729 15ae 9F       		.byte	0x9f
 9730 15af 1A000000 		.4byte	.LVL386
 9731 15b3 1C000000 		.4byte	.LFE39
 9732 15b7 0100     		.2byte	0x1
 9733 15b9 51       		.byte	0x51
 9734 15ba 00000000 		.4byte	0
 9735 15be 00000000 		.4byte	0
 9736              	.LLST126:
 9737 15c2 00000000 		.4byte	.LVL387
 9738 15c6 09000000 		.4byte	.LVL388-1
 9739 15ca 0100     		.2byte	0x1
 9740 15cc 50       		.byte	0x50
 9741 15cd 09000000 		.4byte	.LVL388-1
 9742 15d1 10000000 		.4byte	.LFE41
 9743 15d5 0400     		.2byte	0x4
 9744 15d7 F3       		.byte	0xf3
 9745 15d8 01       		.uleb128 0x1
 9746 15d9 50       		.byte	0x50
 9747 15da 9F       		.byte	0x9f
 9748 15db 00000000 		.4byte	0
 9749 15df 00000000 		.4byte	0
 9750              	.LLST127:
 9751 15e3 00000000 		.4byte	.LVL387
 9752 15e7 09000000 		.4byte	.LVL388-1
 9753 15eb 0100     		.2byte	0x1
 9754 15ed 51       		.byte	0x51
 9755 15ee 09000000 		.4byte	.LVL388-1
 9756 15f2 10000000 		.4byte	.LFE41
 9757 15f6 0400     		.2byte	0x4
 9758 15f8 F3       		.byte	0xf3
 9759 15f9 01       		.uleb128 0x1
 9760 15fa 51       		.byte	0x51
 9761 15fb 9F       		.byte	0x9f
 9762 15fc 00000000 		.4byte	0
 9763 1600 00000000 		.4byte	0
 9764              	.LLST128:
 9765 1604 00000000 		.4byte	.LVL389
 9766 1608 17000000 		.4byte	.LVL391-1
 9767 160c 0100     		.2byte	0x1
ARM GAS  C:\Users\brian\AppData\Local\Temp\ccTYhJxe.s 			page 202


 9768 160e 50       		.byte	0x50
 9769 160f 17000000 		.4byte	.LVL391-1
 9770 1613 22000000 		.4byte	.LFE44
 9771 1617 0400     		.2byte	0x4
 9772 1619 F3       		.byte	0xf3
 9773 161a 01       		.uleb128 0x1
 9774 161b 50       		.byte	0x50
 9775 161c 9F       		.byte	0x9f
 9776 161d 00000000 		.4byte	0
 9777 1621 00000000 		.4byte	0
 9778              	.LLST129:
 9779 1625 00000000 		.4byte	.LVL389
 9780 1629 06000000 		.4byte	.LVL390
 9781 162d 0100     		.2byte	0x1
 9782 162f 51       		.byte	0x51
 9783 1630 06000000 		.4byte	.LVL390
 9784 1634 22000000 		.4byte	.LFE44
 9785 1638 0400     		.2byte	0x4
 9786 163a F3       		.byte	0xf3
 9787 163b 01       		.uleb128 0x1
 9788 163c 51       		.byte	0x51
 9789 163d 9F       		.byte	0x9f
 9790 163e 00000000 		.4byte	0
 9791 1642 00000000 		.4byte	0
 9792              	.LLST130:
 9793 1646 00000000 		.4byte	.LVL392
 9794 164a 09000000 		.4byte	.LVL393-1
 9795 164e 0100     		.2byte	0x1
 9796 1650 50       		.byte	0x50
 9797 1651 09000000 		.4byte	.LVL393-1
 9798 1655 10000000 		.4byte	.LFE45
 9799 1659 0400     		.2byte	0x4
 9800 165b F3       		.byte	0xf3
 9801 165c 01       		.uleb128 0x1
 9802 165d 50       		.byte	0x50
 9803 165e 9F       		.byte	0x9f
 9804 165f 00000000 		.4byte	0
 9805 1663 00000000 		.4byte	0
 9806              	.LLST131:
 9807 1667 00000000 		.4byte	.LVL392
 9808 166b 09000000 		.4byte	.LVL393-1
 9809 166f 0100     		.2byte	0x1
 9810 1671 51       		.byte	0x51
 9811 1672 09000000 		.4byte	.LVL393-1
 9812 1676 10000000 		.4byte	.LFE45
 9813 167a 0400     		.2byte	0x4
 9814 167c F3       		.byte	0xf3
 9815 167d 01       		.uleb128 0x1
 9816 167e 51       		.byte	0x51
 9817 167f 9F       		.byte	0x9f
 9818 1680 00000000 		.4byte	0
 9819 1684 00000000 		.4byte	0
 9820              	.LLST132:
 9821 1688 00000000 		.4byte	.LVL394
 9822 168c 09000000 		.4byte	.LVL395-1
 9823 1690 0100     		.2byte	0x1
 9824 1692 50       		.byte	0x50
ARM GAS  C:\Users\brian\AppData\Local\Temp\ccTYhJxe.s 			page 203


 9825 1693 09000000 		.4byte	.LVL395-1
 9826 1697 10000000 		.4byte	.LFE46
 9827 169b 0400     		.2byte	0x4
 9828 169d F3       		.byte	0xf3
 9829 169e 01       		.uleb128 0x1
 9830 169f 50       		.byte	0x50
 9831 16a0 9F       		.byte	0x9f
 9832 16a1 00000000 		.4byte	0
 9833 16a5 00000000 		.4byte	0
 9834              	.LLST133:
 9835 16a9 00000000 		.4byte	.LVL394
 9836 16ad 09000000 		.4byte	.LVL395-1
 9837 16b1 0100     		.2byte	0x1
 9838 16b3 51       		.byte	0x51
 9839 16b4 09000000 		.4byte	.LVL395-1
 9840 16b8 10000000 		.4byte	.LFE46
 9841 16bc 0400     		.2byte	0x4
 9842 16be F3       		.byte	0xf3
 9843 16bf 01       		.uleb128 0x1
 9844 16c0 51       		.byte	0x51
 9845 16c1 9F       		.byte	0x9f
 9846 16c2 00000000 		.4byte	0
 9847 16c6 00000000 		.4byte	0
 9848              		.section	.debug_aranges,"",%progbits
 9849 0000 94010000 		.4byte	0x194
 9850 0004 0200     		.2byte	0x2
 9851 0006 00000000 		.4byte	.Ldebug_info0
 9852 000a 04       		.byte	0x4
 9853 000b 00       		.byte	0
 9854 000c 0000     		.2byte	0
 9855 000e 0000     		.2byte	0
 9856 0010 00000000 		.4byte	.LFB0
 9857 0014 04000000 		.4byte	.LFE0-.LFB0
 9858 0018 00000000 		.4byte	.LFB1
 9859 001c 0E000000 		.4byte	.LFE1-.LFB1
 9860 0020 00000000 		.4byte	.LFB31
 9861 0024 04000000 		.4byte	.LFE31-.LFB31
 9862 0028 00000000 		.4byte	.LFB33
 9863 002c 08000000 		.4byte	.LFE33-.LFB33
 9864 0030 00000000 		.4byte	.LFB35
 9865 0034 0C000000 		.4byte	.LFE35-.LFB35
 9866 0038 00000000 		.4byte	.LFB37
 9867 003c 1A000000 		.4byte	.LFE37-.LFB37
 9868 0040 00000000 		.4byte	.LFB2
 9869 0044 D0000000 		.4byte	.LFE2-.LFB2
 9870 0048 00000000 		.4byte	.LFB3
 9871 004c 30000000 		.4byte	.LFE3-.LFB3
 9872 0050 00000000 		.4byte	.LFB4
 9873 0054 06000000 		.4byte	.LFE4-.LFB4
 9874 0058 00000000 		.4byte	.LFB5
 9875 005c 06000000 		.4byte	.LFE5-.LFB5
 9876 0060 00000000 		.4byte	.LFB6
 9877 0064 06000000 		.4byte	.LFE6-.LFB6
 9878 0068 00000000 		.4byte	.LFB7
 9879 006c 06000000 		.4byte	.LFE7-.LFB7
 9880 0070 00000000 		.4byte	.LFB8
 9881 0074 06000000 		.4byte	.LFE8-.LFB8
ARM GAS  C:\Users\brian\AppData\Local\Temp\ccTYhJxe.s 			page 204


 9882 0078 00000000 		.4byte	.LFB9
 9883 007c 3E000000 		.4byte	.LFE9-.LFB9
 9884 0080 00000000 		.4byte	.LFB14
 9885 0084 40000000 		.4byte	.LFE14-.LFB14
 9886 0088 00000000 		.4byte	.LFB10
 9887 008c 16000000 		.4byte	.LFE10-.LFB10
 9888 0090 00000000 		.4byte	.LFB11
 9889 0094 24000000 		.4byte	.LFE11-.LFB11
 9890 0098 00000000 		.4byte	.LFB12
 9891 009c 24000000 		.4byte	.LFE12-.LFB12
 9892 00a0 00000000 		.4byte	.LFB13
 9893 00a4 B6000000 		.4byte	.LFE13-.LFB13
 9894 00a8 00000000 		.4byte	.LFB15
 9895 00ac 44010000 		.4byte	.LFE15-.LFB15
 9896 00b0 00000000 		.4byte	.LFB16
 9897 00b4 74000000 		.4byte	.LFE16-.LFB16
 9898 00b8 00000000 		.4byte	.LFB17
 9899 00bc 24000000 		.4byte	.LFE17-.LFB17
 9900 00c0 00000000 		.4byte	.LFB40
 9901 00c4 36000000 		.4byte	.LFE40-.LFB40
 9902 00c8 00000000 		.4byte	.LFB43
 9903 00cc 46000000 		.4byte	.LFE43-.LFB43
 9904 00d0 00000000 		.4byte	.LFB18
 9905 00d4 10000000 		.4byte	.LFE18-.LFB18
 9906 00d8 00000000 		.4byte	.LFB19
 9907 00dc 3E000000 		.4byte	.LFE19-.LFB19
 9908 00e0 00000000 		.4byte	.LFB42
 9909 00e4 72000000 		.4byte	.LFE42-.LFB42
 9910 00e8 00000000 		.4byte	.LFB20
 9911 00ec 06000000 		.4byte	.LFE20-.LFB20
 9912 00f0 00000000 		.4byte	.LFB21
 9913 00f4 4E000000 		.4byte	.LFE21-.LFB21
 9914 00f8 00000000 		.4byte	.LFB22
 9915 00fc 6E000000 		.4byte	.LFE22-.LFB22
 9916 0100 00000000 		.4byte	.LFB23
 9917 0104 10000000 		.4byte	.LFE23-.LFB23
 9918 0108 00000000 		.4byte	.LFB24
 9919 010c 10000000 		.4byte	.LFE24-.LFB24
 9920 0110 00000000 		.4byte	.LFB25
 9921 0114 B4000000 		.4byte	.LFE25-.LFB25
 9922 0118 00000000 		.4byte	.LFB26
 9923 011c A8000000 		.4byte	.LFE26-.LFB26
 9924 0120 00000000 		.4byte	.LFB27
 9925 0124 58000000 		.4byte	.LFE27-.LFB27
 9926 0128 00000000 		.4byte	.LFB28
 9927 012c 0E000000 		.4byte	.LFE28-.LFB28
 9928 0130 00000000 		.4byte	.LFB29
 9929 0134 0E000000 		.4byte	.LFE29-.LFB29
 9930 0138 00000000 		.4byte	.LFB30
 9931 013c 0E000000 		.4byte	.LFE30-.LFB30
 9932 0140 00000000 		.4byte	.LFB32
 9933 0144 0C000000 		.4byte	.LFE32-.LFB32
 9934 0148 00000000 		.4byte	.LFB34
 9935 014c 0C000000 		.4byte	.LFE34-.LFB34
 9936 0150 00000000 		.4byte	.LFB36
 9937 0154 0C000000 		.4byte	.LFE36-.LFB36
 9938 0158 00000000 		.4byte	.LFB38
ARM GAS  C:\Users\brian\AppData\Local\Temp\ccTYhJxe.s 			page 205


 9939 015c 0C000000 		.4byte	.LFE38-.LFB38
 9940 0160 00000000 		.4byte	.LFB39
 9941 0164 1C000000 		.4byte	.LFE39-.LFB39
 9942 0168 00000000 		.4byte	.LFB41
 9943 016c 10000000 		.4byte	.LFE41-.LFB41
 9944 0170 00000000 		.4byte	.LFB44
 9945 0174 22000000 		.4byte	.LFE44-.LFB44
 9946 0178 00000000 		.4byte	.LFB45
 9947 017c 10000000 		.4byte	.LFE45-.LFB45
 9948 0180 00000000 		.4byte	.LFB46
 9949 0184 10000000 		.4byte	.LFE46-.LFB46
 9950 0188 00000000 		.4byte	.LFB47
 9951 018c 06000000 		.4byte	.LFE47-.LFB47
 9952 0190 00000000 		.4byte	0
 9953 0194 00000000 		.4byte	0
 9954              		.section	.debug_ranges,"",%progbits
 9955              	.Ldebug_ranges0:
 9956 0000 00000000 		.4byte	.LFB0
 9957 0004 04000000 		.4byte	.LFE0
 9958 0008 00000000 		.4byte	.LFB1
 9959 000c 0E000000 		.4byte	.LFE1
 9960 0010 00000000 		.4byte	.LFB31
 9961 0014 04000000 		.4byte	.LFE31
 9962 0018 00000000 		.4byte	.LFB33
 9963 001c 08000000 		.4byte	.LFE33
 9964 0020 00000000 		.4byte	.LFB35
 9965 0024 0C000000 		.4byte	.LFE35
 9966 0028 00000000 		.4byte	.LFB37
 9967 002c 1A000000 		.4byte	.LFE37
 9968 0030 00000000 		.4byte	.LFB2
 9969 0034 D0000000 		.4byte	.LFE2
 9970 0038 00000000 		.4byte	.LFB3
 9971 003c 30000000 		.4byte	.LFE3
 9972 0040 00000000 		.4byte	.LFB4
 9973 0044 06000000 		.4byte	.LFE4
 9974 0048 00000000 		.4byte	.LFB5
 9975 004c 06000000 		.4byte	.LFE5
 9976 0050 00000000 		.4byte	.LFB6
 9977 0054 06000000 		.4byte	.LFE6
 9978 0058 00000000 		.4byte	.LFB7
 9979 005c 06000000 		.4byte	.LFE7
 9980 0060 00000000 		.4byte	.LFB8
 9981 0064 06000000 		.4byte	.LFE8
 9982 0068 00000000 		.4byte	.LFB9
 9983 006c 3E000000 		.4byte	.LFE9
 9984 0070 00000000 		.4byte	.LFB14
 9985 0074 40000000 		.4byte	.LFE14
 9986 0078 00000000 		.4byte	.LFB10
 9987 007c 16000000 		.4byte	.LFE10
 9988 0080 00000000 		.4byte	.LFB11
 9989 0084 24000000 		.4byte	.LFE11
 9990 0088 00000000 		.4byte	.LFB12
 9991 008c 24000000 		.4byte	.LFE12
 9992 0090 00000000 		.4byte	.LFB13
 9993 0094 B6000000 		.4byte	.LFE13
 9994 0098 00000000 		.4byte	.LFB15
 9995 009c 44010000 		.4byte	.LFE15
ARM GAS  C:\Users\brian\AppData\Local\Temp\ccTYhJxe.s 			page 206


 9996 00a0 00000000 		.4byte	.LFB16
 9997 00a4 74000000 		.4byte	.LFE16
 9998 00a8 00000000 		.4byte	.LFB17
 9999 00ac 24000000 		.4byte	.LFE17
 10000 00b0 00000000 		.4byte	.LFB40
 10001 00b4 36000000 		.4byte	.LFE40
 10002 00b8 00000000 		.4byte	.LFB43
 10003 00bc 46000000 		.4byte	.LFE43
 10004 00c0 00000000 		.4byte	.LFB18
 10005 00c4 10000000 		.4byte	.LFE18
 10006 00c8 00000000 		.4byte	.LFB19
 10007 00cc 3E000000 		.4byte	.LFE19
 10008 00d0 00000000 		.4byte	.LFB42
 10009 00d4 72000000 		.4byte	.LFE42
 10010 00d8 00000000 		.4byte	.LFB20
 10011 00dc 06000000 		.4byte	.LFE20
 10012 00e0 00000000 		.4byte	.LFB21
 10013 00e4 4E000000 		.4byte	.LFE21
 10014 00e8 00000000 		.4byte	.LFB22
 10015 00ec 6E000000 		.4byte	.LFE22
 10016 00f0 00000000 		.4byte	.LFB23
 10017 00f4 10000000 		.4byte	.LFE23
 10018 00f8 00000000 		.4byte	.LFB24
 10019 00fc 10000000 		.4byte	.LFE24
 10020 0100 00000000 		.4byte	.LFB25
 10021 0104 B4000000 		.4byte	.LFE25
 10022 0108 00000000 		.4byte	.LFB26
 10023 010c A8000000 		.4byte	.LFE26
 10024 0110 00000000 		.4byte	.LFB27
 10025 0114 58000000 		.4byte	.LFE27
 10026 0118 00000000 		.4byte	.LFB28
 10027 011c 0E000000 		.4byte	.LFE28
 10028 0120 00000000 		.4byte	.LFB29
 10029 0124 0E000000 		.4byte	.LFE29
 10030 0128 00000000 		.4byte	.LFB30
 10031 012c 0E000000 		.4byte	.LFE30
 10032 0130 00000000 		.4byte	.LFB32
 10033 0134 0C000000 		.4byte	.LFE32
 10034 0138 00000000 		.4byte	.LFB34
 10035 013c 0C000000 		.4byte	.LFE34
 10036 0140 00000000 		.4byte	.LFB36
 10037 0144 0C000000 		.4byte	.LFE36
 10038 0148 00000000 		.4byte	.LFB38
 10039 014c 0C000000 		.4byte	.LFE38
 10040 0150 00000000 		.4byte	.LFB39
 10041 0154 1C000000 		.4byte	.LFE39
 10042 0158 00000000 		.4byte	.LFB41
 10043 015c 10000000 		.4byte	.LFE41
 10044 0160 00000000 		.4byte	.LFB44
 10045 0164 22000000 		.4byte	.LFE44
 10046 0168 00000000 		.4byte	.LFB45
 10047 016c 10000000 		.4byte	.LFE45
 10048 0170 00000000 		.4byte	.LFB46
 10049 0174 10000000 		.4byte	.LFE46
 10050 0178 00000000 		.4byte	.LFB47
 10051 017c 06000000 		.4byte	.LFE47
 10052 0180 00000000 		.4byte	0
ARM GAS  C:\Users\brian\AppData\Local\Temp\ccTYhJxe.s 			page 207


 10053 0184 00000000 		.4byte	0
 10054              		.section	.debug_line,"",%progbits
 10055              	.Ldebug_line0:
 10056 0000 7A060000 		.section	.debug_str,"MS",%progbits,1
 10056      0200C201 
 10056      00000201 
 10056      FB0E0D00 
 10056      01010101 
 10057              	.LASF180:
 10058 0000 75386732 		.ascii	"u8g2_font_setup_decode\000"
 10058      5F666F6E 
 10058      745F7365 
 10058      7475705F 
 10058      6465636F 
 10059              	.LASF160:
 10060 0017 75386732 		.ascii	"u8g2_GetFontBBXOffY\000"
 10060      5F476574 
 10060      466F6E74 
 10060      4242584F 
 10060      66665900 
 10061              	.LASF125:
 10062 002b 73746172 		.ascii	"start_pos_unicode\000"
 10062      745F706F 
 10062      735F756E 
 10062      69636F64 
 10062      6500
 10063              	.LASF46:
 10064 003d 72657365 		.ascii	"reset_pulse_width_ms\000"
 10064      745F7075 
 10064      6C73655F 
 10064      77696474 
 10064      685F6D73 
 10065              	.LASF17:
 10066 0052 73697A65 		.ascii	"size_t\000"
 10066      5F7400
 10067              	.LASF139:
 10068 0059 66697273 		.ascii	"first_table_cnt\000"
 10068      745F7461 
 10068      626C655F 
 10068      636E7400 
 10069              	.LASF103:
 10070 0069 75386732 		.ascii	"u8g2_update_page_win_cb\000"
 10070      5F757064 
 10070      6174655F 
 10070      70616765 
 10070      5F77696E 
 10071              	.LASF68:
 10072 0081 74696C65 		.ascii	"tile_buf_ptr\000"
 10072      5F627566 
 10072      5F707472 
 10072      00
 10073              	.LASF191:
 10074 008e 75386732 		.ascii	"u8g2_DrawStr\000"
 10074      5F447261 
 10074      77537472 
 10074      00
 10075              	.LASF1:
ARM GAS  C:\Users\brian\AppData\Local\Temp\ccTYhJxe.s 			page 208


 10076 009b 5F5F7569 		.ascii	"__uint8_t\000"
 10076      6E74385F 
 10076      7400
 10077              	.LASF24:
 10078 00a5 62797465 		.ascii	"byte_cb\000"
 10078      5F636200 
 10079              	.LASF177:
 10080 00ad 75386732 		.ascii	"u8g2_font_draw_glyph\000"
 10080      5F666F6E 
 10080      745F6472 
 10080      61775F67 
 10080      6C797068 
 10081              	.LASF137:
 10082 00c2 75386732 		.ascii	"u8g2_font_decode_t\000"
 10082      5F666F6E 
 10082      745F6465 
 10082      636F6465 
 10082      5F7400
 10083              	.LASF195:
 10084 00d5 6B65726E 		.ascii	"kerning\000"
 10084      696E6700 
 10085              	.LASF107:
 10086 00dd 676C7970 		.ascii	"glyph_cnt\000"
 10086      685F636E 
 10086      7400
 10087              	.LASF99:
 10088 00e7 75706461 		.ascii	"update_dimension\000"
 10088      74655F64 
 10088      696D656E 
 10088      73696F6E 
 10088      00
 10089              	.LASF11:
 10090 00f8 6C6F6E67 		.ascii	"long long unsigned int\000"
 10090      206C6F6E 
 10090      6720756E 
 10090      7369676E 
 10090      65642069 
 10091              	.LASF185:
 10092 010f 75386732 		.ascii	"u8g2_string_width\000"
 10092      5F737472 
 10092      696E675F 
 10092      77696474 
 10092      6800
 10093              	.LASF197:
 10094 0121 75386732 		.ascii	"u8g2_DrawExtUTF8\000"
 10094      5F447261 
 10094      77457874 
 10094      55544638 
 10094      00
 10095              	.LASF190:
 10096 0132 64656C74 		.ascii	"delta\000"
 10096      6100
 10097              	.LASF0:
 10098 0138 5F5F696E 		.ascii	"__int8_t\000"
 10098      74385F74 
 10098      00
 10099              	.LASF47:
ARM GAS  C:\Users\brian\AppData\Local\Temp\ccTYhJxe.s 			page 209


 10100 0141 706F7374 		.ascii	"post_reset_wait_ms\000"
 10100      5F726573 
 10100      65745F77 
 10100      6169745F 
 10100      6D7300
 10101              	.LASF108:
 10102 0154 6262785F 		.ascii	"bbx_mode\000"
 10102      6D6F6465 
 10102      00
 10103              	.LASF33:
 10104 015d 75746638 		.ascii	"utf8_state\000"
 10104      5F737461 
 10104      746500
 10105              	.LASF118:
 10106 0168 795F6F66 		.ascii	"y_offset\000"
 10106      66736574 
 10106      00
 10107              	.LASF215:
 10108 0171 75387838 		.ascii	"u8x8_utf8_init\000"
 10108      5F757466 
 10108      385F696E 
 10108      697400
 10109              	.LASF34:
 10110 0180 6770696F 		.ascii	"gpio_result\000"
 10110      5F726573 
 10110      756C7400 
 10111              	.LASF113:
 10112 018c 62697473 		.ascii	"bits_per_char_x\000"
 10112      5F706572 
 10112      5F636861 
 10112      725F7800 
 10113              	.LASF114:
 10114 019c 62697473 		.ascii	"bits_per_char_y\000"
 10114      5F706572 
 10114      5F636861 
 10114      725F7900 
 10115              	.LASF10:
 10116 01ac 6C6F6E67 		.ascii	"long long int\000"
 10116      206C6F6E 
 10116      6720696E 
 10116      7400
 10117              	.LASF2:
 10118 01ba 7369676E 		.ascii	"signed char\000"
 10118      65642063 
 10118      68617200 
 10119              	.LASF63:
 10120 01c6 75386732 		.ascii	"u8g2_uint_t\000"
 10120      5F75696E 
 10120      745F7400 
 10121              	.LASF30:
 10122 01d2 69735F66 		.ascii	"is_font_inverse_mode\000"
 10122      6F6E745F 
 10122      696E7665 
 10122      7273655F 
 10122      6D6F6465 
 10123              	.LASF188:
 10124 01e7 75386732 		.ascii	"u8g2_DrawGlyph\000"
ARM GAS  C:\Users\brian\AppData\Local\Temp\ccTYhJxe.s 			page 210


 10124      5F447261 
 10124      77476C79 
 10124      706800
 10125              	.LASF22:
 10126 01f6 64697370 		.ascii	"display_cb\000"
 10126      6C61795F 
 10126      636200
 10127              	.LASF210:
 10128 0201 75386732 		.ascii	"u8g2_GetStrWidth\000"
 10128      5F476574 
 10128      53747257 
 10128      69647468 
 10128      00
 10129              	.LASF121:
 10130 0212 61736365 		.ascii	"ascent_para\000"
 10130      6E745F70 
 10130      61726100 
 10131              	.LASF93:
 10132 021e 676C7970 		.ascii	"glyph_x_offset\000"
 10132      685F785F 
 10132      6F666673 
 10132      657400
 10133              	.LASF45:
 10134 022d 7072655F 		.ascii	"pre_chip_disable_wait_ns\000"
 10134      63686970 
 10134      5F646973 
 10134      61626C65 
 10134      5F776169 
 10135              	.LASF170:
 10136 0246 75386732 		.ascii	"u8g2_read_font_info\000"
 10136      5F726561 
 10136      645F666F 
 10136      6E745F69 
 10136      6E666F00 
 10137              	.LASF7:
 10138 025a 6C6F6E67 		.ascii	"long int\000"
 10138      20696E74 
 10138      00
 10139              	.LASF211:
 10140 0263 75386732 		.ascii	"u8g2_GetUTF8Width\000"
 10140      5F476574 
 10140      55544638 
 10140      57696474 
 10140      6800
 10141              	.LASF141:
 10142 0275 66697273 		.ascii	"first_encoding_table\000"
 10142      745F656E 
 10142      636F6469 
 10142      6E675F74 
 10142      61626C65 
 10143              	.LASF100:
 10144 028a 75706461 		.ascii	"update_page_win\000"
 10144      74655F70 
 10144      6167655F 
 10144      77696E00 
 10145              	.LASF117:
 10146 029a 6D61785F 		.ascii	"max_char_height\000"
ARM GAS  C:\Users\brian\AppData\Local\Temp\ccTYhJxe.s 			page 211


 10146      63686172 
 10146      5F686569 
 10146      67687400 
 10147              	.LASF15:
 10148 02aa 75696E74 		.ascii	"uint16_t\000"
 10148      31365F74 
 10148      00
 10149              	.LASF21:
 10150 02b3 6E657874 		.ascii	"next_cb\000"
 10150      5F636200 
 10151              	.LASF62:
 10152 02bb 75387838 		.ascii	"u8x8_char_cb\000"
 10152      5F636861 
 10152      725F6362 
 10152      00
 10153              	.LASF25:
 10154 02c8 6770696F 		.ascii	"gpio_and_delay_cb\000"
 10154      5F616E64 
 10154      5F64656C 
 10154      61795F63 
 10154      6200
 10155              	.LASF126:
 10156 02da 75386732 		.ascii	"u8g2_font_info_t\000"
 10156      5F666F6E 
 10156      745F696E 
 10156      666F5F74 
 10156      00
 10157              	.LASF151:
 10158 02eb 75386732 		.ascii	"u8g2_font_calc_vref_font\000"
 10158      5F666F6E 
 10158      745F6361 
 10158      6C635F76 
 10158      7265665F 
 10159              	.LASF92:
 10160 0304 666F6E74 		.ascii	"font_ref_descent\000"
 10160      5F726566 
 10160      5F646573 
 10160      63656E74 
 10160      00
 10161              	.LASF39:
 10162 0315 75387838 		.ascii	"u8x8_display_info_t\000"
 10162      5F646973 
 10162      706C6179 
 10162      5F696E66 
 10162      6F5F7400 
 10163              	.LASF8:
 10164 0329 5F5F7569 		.ascii	"__uint32_t\000"
 10164      6E743332 
 10164      5F7400
 10165              	.LASF109:
 10166 0334 62697473 		.ascii	"bits_per_0\000"
 10166      5F706572 
 10166      5F3000
 10167              	.LASF86:
 10168 033f 666F6E74 		.ascii	"font_calc_vref\000"
 10168      5F63616C 
 10168      635F7672 
ARM GAS  C:\Users\brian\AppData\Local\Temp\ccTYhJxe.s 			page 212


 10168      656600
 10169              	.LASF91:
 10170 034e 666F6E74 		.ascii	"font_ref_ascent\000"
 10170      5F726566 
 10170      5F617363 
 10170      656E7400 
 10171              	.LASF147:
 10172 035e 6F666673 		.ascii	"offset\000"
 10172      657400
 10173              	.LASF48:
 10174 0365 7364615F 		.ascii	"sda_setup_time_ns\000"
 10174      73657475 
 10174      705F7469 
 10174      6D655F6E 
 10174      7300
 10175              	.LASF105:
 10176 0377 75386732 		.ascii	"u8g2_draw_ll_hvline_cb\000"
 10176      5F647261 
 10176      775F6C6C 
 10176      5F68766C 
 10176      696E655F 
 10177              	.LASF120:
 10178 038e 64657363 		.ascii	"descent_g\000"
 10178      656E745F 
 10178      6700
 10179              	.LASF111:
 10180 0398 62697473 		.ascii	"bits_per_char_width\000"
 10180      5F706572 
 10180      5F636861 
 10180      725F7769 
 10180      64746800 
 10181              	.LASF38:
 10182 03ac 6465626F 		.ascii	"debounce_result_msg\000"
 10182      756E6365 
 10182      5F726573 
 10182      756C745F 
 10182      6D736700 
 10183              	.LASF12:
 10184 03c0 756E7369 		.ascii	"unsigned int\000"
 10184      676E6564 
 10184      20696E74 
 10184      00
 10185              	.LASF187:
 10186 03cd 75386732 		.ascii	"u8g2_SetFontMode\000"
 10186      5F536574 
 10186      466F6E74 
 10186      4D6F6465 
 10186      00
 10187              	.LASF72:
 10188 03de 70697865 		.ascii	"pixel_buf_height\000"
 10188      6C5F6275 
 10188      665F6865 
 10188      69676874 
 10188      00
 10189              	.LASF162:
 10190 03ef 75386732 		.ascii	"u8g2_font_decode_get_unsigned_bits\000"
 10190      5F666F6E 
ARM GAS  C:\Users\brian\AppData\Local\Temp\ccTYhJxe.s 			page 213


 10190      745F6465 
 10190      636F6465 
 10190      5F676574 
 10191              	.LASF134:
 10192 0412 69735F74 		.ascii	"is_transparent\000"
 10192      72616E73 
 10192      70617265 
 10192      6E7400
 10193              	.LASF31:
 10194 0421 6932635F 		.ascii	"i2c_address\000"
 10194      61646472 
 10194      65737300 
 10195              	.LASF9:
 10196 042d 6C6F6E67 		.ascii	"long unsigned int\000"
 10196      20756E73 
 10196      69676E65 
 10196      6420696E 
 10196      7400
 10197              	.LASF64:
 10198 043f 75386732 		.ascii	"u8g2_t\000"
 10198      5F7400
 10199              	.LASF213:
 10200 0446 75386732 		.ascii	"u8g2_DrawHVLine\000"
 10200      5F447261 
 10200      7748564C 
 10200      696E6500 
 10201              	.LASF202:
 10202 0456 75386732 		.ascii	"u8g2_SetFontRefHeightAll\000"
 10202      5F536574 
 10202      466F6E74 
 10202      52656648 
 10202      65696768 
 10203              	.LASF186:
 10204 046f 696E6974 		.ascii	"initial_x_offset\000"
 10204      69616C5F 
 10204      785F6F66 
 10204      66736574 
 10204      00
 10205              	.LASF196:
 10206 0480 655F7072 		.ascii	"e_prev\000"
 10206      657600
 10207              	.LASF128:
 10208 0487 6465636F 		.ascii	"decode_ptr\000"
 10208      64655F70 
 10208      747200
 10209              	.LASF76:
 10210 0492 77696474 		.ascii	"width\000"
 10210      6800
 10211              	.LASF69:
 10212 0498 74696C65 		.ascii	"tile_buf_height\000"
 10212      5F627566 
 10212      5F686569 
 10212      67687400 
 10213              	.LASF6:
 10214 04a8 73686F72 		.ascii	"short unsigned int\000"
 10214      7420756E 
 10214      7369676E 
ARM GAS  C:\Users\brian\AppData\Local\Temp\ccTYhJxe.s 			page 214


 10214      65642069 
 10214      6E7400
 10215              	.LASF89:
 10216 04bb 69735F70 		.ascii	"is_page_clip_window_intersection\000"
 10216      6167655F 
 10216      636C6970 
 10216      5F77696E 
 10216      646F775F 
 10217              	.LASF94:
 10218 04dc 6269746D 		.ascii	"bitmap_transparency\000"
 10218      61705F74 
 10218      72616E73 
 10218      70617265 
 10218      6E637900 
 10219              	.LASF219:
 10220 04f0 2E2E5C75 		.ascii	"..\\u8g2\\csrc\\u8g2_font.c\000"
 10220      3867325C 
 10220      63737263 
 10220      5C753867 
 10220      325F666F 
 10221              	.LASF82:
 10222 0509 636C6970 		.ascii	"clip_x0\000"
 10222      5F783000 
 10223              	.LASF83:
 10224 0511 636C6970 		.ascii	"clip_x1\000"
 10224      5F783100 
 10225              	.LASF101:
 10226 0519 64726177 		.ascii	"draw_l90\000"
 10226      5F6C3930 
 10226      00
 10227              	.LASF36:
 10228 0522 6465626F 		.ascii	"debounce_last_pin_state\000"
 10228      756E6365 
 10228      5F6C6173 
 10228      745F7069 
 10228      6E5F7374 
 10229              	.LASF150:
 10230 053a 75386732 		.ascii	"u8g2\000"
 10230      00
 10231              	.LASF122:
 10232 053f 64657363 		.ascii	"descent_para\000"
 10232      656E745F 
 10232      70617261 
 10232      00
 10233              	.LASF20:
 10234 054c 64697370 		.ascii	"display_info\000"
 10234      6C61795F 
 10234      696E666F 
 10234      00
 10235              	.LASF88:
 10236 0559 666F6E74 		.ascii	"font_info\000"
 10236      5F696E66 
 10236      6F00
 10237              	.LASF49:
 10238 0563 73636B5F 		.ascii	"sck_pulse_width_ns\000"
 10238      70756C73 
 10238      655F7769 
ARM GAS  C:\Users\brian\AppData\Local\Temp\ccTYhJxe.s 			page 215


 10238      6474685F 
 10238      6E7300
 10239              	.LASF157:
 10240 0576 75386732 		.ascii	"u8g2_GetFontBBXWidth\000"
 10240      5F476574 
 10240      466F6E74 
 10240      42425857 
 10240      69647468 
 10241              	.LASF40:
 10242 058b 75387838 		.ascii	"u8x8_struct\000"
 10242      5F737472 
 10242      75637400 
 10243              	.LASF203:
 10244 0597 75386732 		.ascii	"u8g2_SetFontPosBaseline\000"
 10244      5F536574 
 10244      466F6E74 
 10244      506F7342 
 10244      6173656C 
 10245              	.LASF140:
 10246 05af 7365636F 		.ascii	"second_table_cnt\000"
 10246      6E645F74 
 10246      61626C65 
 10246      5F636E74 
 10246      00
 10247              	.LASF183:
 10248 05c0 75386732 		.ascii	"u8g2_IsGlyph\000"
 10248      5F497347 
 10248      6C797068 
 10248      00
 10249              	.LASF178:
 10250 05cd 75386732 		.ascii	"u8g2_is_all_valid\000"
 10250      5F69735F 
 10250      616C6C5F 
 10250      76616C69 
 10250      6400
 10251              	.LASF192:
 10252 05df 75386732 		.ascii	"u8g2_DrawUTF8\000"
 10252      5F447261 
 10252      77555446 
 10252      3800
 10253              	.LASF57:
 10254 05ed 64656661 		.ascii	"default_x_offset\000"
 10254      756C745F 
 10254      785F6F66 
 10254      66736574 
 10254      00
 10255              	.LASF28:
 10256 05fe 656E636F 		.ascii	"encoding\000"
 10256      64696E67 
 10256      00
 10257              	.LASF90:
 10258 0607 666F6E74 		.ascii	"font_height_mode\000"
 10258      5F686569 
 10258      6768745F 
 10258      6D6F6465 
 10258      00
 10259              	.LASF175:
ARM GAS  C:\Users\brian\AppData\Local\Temp\ccTYhJxe.s 			page 216


 10260 0618 75386732 		.ascii	"u8g2_font_get_glyph_data\000"
 10260      5F666F6E 
 10260      745F6765 
 10260      745F676C 
 10260      7970685F 
 10261              	.LASF123:
 10262 0631 73746172 		.ascii	"start_pos_upper_A\000"
 10262      745F706F 
 10262      735F7570 
 10262      7065725F 
 10262      4100
 10263              	.LASF58:
 10264 0643 666C6970 		.ascii	"flipmode_x_offset\000"
 10264      6D6F6465 
 10264      5F785F6F 
 10264      66667365 
 10264      7400
 10265              	.LASF110:
 10266 0655 62697473 		.ascii	"bits_per_1\000"
 10266      5F706572 
 10266      5F3100
 10267              	.LASF115:
 10268 0660 62697473 		.ascii	"bits_per_delta_x\000"
 10268      5F706572 
 10268      5F64656C 
 10268      74615F78 
 10268      00
 10269              	.LASF133:
 10270 0671 6465636F 		.ascii	"decode_bit_pos\000"
 10270      64655F62 
 10270      69745F70 
 10270      6F7300
 10271              	.LASF132:
 10272 0680 676C7970 		.ascii	"glyph_height\000"
 10272      685F6865 
 10272      69676874 
 10272      00
 10273              	.LASF216:
 10274 068d 75386732 		.ascii	"u8g2_GetKerning\000"
 10274      5F476574 
 10274      4B65726E 
 10274      696E6700 
 10275              	.LASF18:
 10276 069d 6C6F6E67 		.ascii	"long double\000"
 10276      20646F75 
 10276      626C6500 
 10277              	.LASF142:
 10278 06a9 696E6465 		.ascii	"index_to_second_table\000"
 10278      785F746F 
 10278      5F736563 
 10278      6F6E645F 
 10278      7461626C 
 10279              	.LASF214:
 10280 06bf 75386732 		.ascii	"u8g2_IsIntersection\000"
 10280      5F497349 
 10280      6E746572 
 10280      73656374 
ARM GAS  C:\Users\brian\AppData\Local\Temp\ccTYhJxe.s 			page 217


 10280      696F6E00 
 10281              	.LASF73:
 10282 06d3 70697865 		.ascii	"pixel_curr_row\000"
 10282      6C5F6375 
 10282      72725F72 
 10282      6F7700
 10283              	.LASF166:
 10284 06e2 6465636F 		.ascii	"decode\000"
 10284      646500
 10285              	.LASF193:
 10286 06e9 75386732 		.ascii	"u8g2_DrawExtendedUTF8\000"
 10286      5F447261 
 10286      77457874 
 10286      656E6465 
 10286      64555446 
 10287              	.LASF23:
 10288 06ff 6361645F 		.ascii	"cad_cb\000"
 10288      636200
 10289              	.LASF84:
 10290 0706 636C6970 		.ascii	"clip_y0\000"
 10290      5F793000 
 10291              	.LASF85:
 10292 070e 636C6970 		.ascii	"clip_y1\000"
 10292      5F793100 
 10293              	.LASF144:
 10294 0716 6B65726E 		.ascii	"kerning_values\000"
 10294      696E675F 
 10294      76616C75 
 10294      657300
 10295              	.LASF116:
 10296 0725 6D61785F 		.ascii	"max_char_width\000"
 10296      63686172 
 10296      5F776964 
 10296      746800
 10297              	.LASF80:
 10298 0734 75736572 		.ascii	"user_y0\000"
 10298      5F793000 
 10299              	.LASF164:
 10300 073c 6269745F 		.ascii	"bit_pos_plus_cnt\000"
 10300      706F735F 
 10300      706C7573 
 10300      5F636E74 
 10300      00
 10301              	.LASF54:
 10302 074d 77726974 		.ascii	"write_pulse_width_ns\000"
 10302      655F7075 
 10302      6C73655F 
 10302      77696474 
 10302      685F6E73 
 10303              	.LASF74:
 10304 0762 6275665F 		.ascii	"buf_y0\000"
 10304      793000
 10305              	.LASF75:
 10306 0769 6275665F 		.ascii	"buf_y1\000"
 10306      793100
 10307              	.LASF168:
 10308 0770 75386732 		.ascii	"u8g2_add_vector_y\000"
ARM GAS  C:\Users\brian\AppData\Local\Temp\ccTYhJxe.s 			page 218


 10308      5F616464 
 10308      5F766563 
 10308      746F725F 
 10308      7900
 10309              	.LASF29:
 10310 0782 785F6F66 		.ascii	"x_offset\000"
 10310      66736574 
 10310      00
 10311              	.LASF173:
 10312 078b 63757272 		.ascii	"current\000"
 10312      656E7400 
 10313              	.LASF56:
 10314 0793 74696C65 		.ascii	"tile_height\000"
 10314      5F686569 
 10314      67687400 
 10315              	.LASF220:
 10316 079f 433A5C55 		.ascii	"C:\\Users\\brian\\Documents\\PSoC Creator\\Lab7\\La"
 10316      73657273 
 10316      5C627269 
 10316      616E5C44 
 10316      6F63756D 
 10317 07cc 62372E63 		.ascii	"b7.cydsn\000"
 10317      7964736E 
 10317      00
 10318              	.LASF205:
 10319 07d5 75386732 		.ascii	"u8g2_SetFontPosTop\000"
 10319      5F536574 
 10319      466F6E74 
 10319      506F7354 
 10319      6F7000
 10320              	.LASF176:
 10321 07e8 756E6963 		.ascii	"unicode_lookup_table\000"
 10321      6F64655F 
 10321      6C6F6F6B 
 10321      75705F74 
 10321      61626C65 
 10322              	.LASF152:
 10323 07fd 75386732 		.ascii	"u8g2_font_calc_vref_bottom\000"
 10323      5F666F6E 
 10323      745F6361 
 10323      6C635F76 
 10323      7265665F 
 10324              	.LASF163:
 10325 0818 6269745F 		.ascii	"bit_pos\000"
 10325      706F7300 
 10326              	.LASF67:
 10327 0820 6C6C5F68 		.ascii	"ll_hvline\000"
 10327      766C696E 
 10327      6500
 10328              	.LASF207:
 10329 082a 75386732 		.ascii	"u8g2_SetFont\000"
 10329      5F536574 
 10329      466F6E74 
 10329      00
 10330              	.LASF135:
 10331 0837 66675F63 		.ascii	"fg_color\000"
 10331      6F6C6F72 
ARM GAS  C:\Users\brian\AppData\Local\Temp\ccTYhJxe.s 			page 219


 10331      00
 10332              	.LASF143:
 10333 0840 7365636F 		.ascii	"second_encoding_table\000"
 10333      6E645F65 
 10333      6E636F64 
 10333      696E675F 
 10333      7461626C 
 10334              	.LASF61:
 10335 0856 75387838 		.ascii	"u8x8_msg_cb\000"
 10335      5F6D7367 
 10335      5F636200 
 10336              	.LASF98:
 10337 0862 75386732 		.ascii	"u8g2_cb_struct\000"
 10337      5F63625F 
 10337      73747275 
 10337      637400
 10338              	.LASF131:
 10339 0871 676C7970 		.ascii	"glyph_width\000"
 10339      685F7769 
 10339      64746800 
 10340              	.LASF3:
 10341 087d 756E7369 		.ascii	"unsigned char\000"
 10341      676E6564 
 10341      20636861 
 10341      7200
 10342              	.LASF158:
 10343 088b 75386732 		.ascii	"u8g2_GetFontBBXHeight\000"
 10343      5F476574 
 10343      466F6E74 
 10343      42425848 
 10343      65696768 
 10344              	.LASF119:
 10345 08a1 61736365 		.ascii	"ascent_A\000"
 10345      6E745F41 
 10345      00
 10346              	.LASF96:
 10347 08aa 69735F61 		.ascii	"is_auto_page_clear\000"
 10347      75746F5F 
 10347      70616765 
 10347      5F636C65 
 10347      617200
 10348              	.LASF71:
 10349 08bd 70697865 		.ascii	"pixel_buf_width\000"
 10349      6C5F6275 
 10349      665F7769 
 10349      64746800 
 10350              	.LASF155:
 10351 08cd 75386732 		.ascii	"u8g2_GetFontSize\000"
 10351      5F476574 
 10351      466F6E74 
 10351      53697A65 
 10351      00
 10352              	.LASF4:
 10353 08de 73686F72 		.ascii	"short int\000"
 10353      7420696E 
 10353      7400
 10354              	.LASF154:
ARM GAS  C:\Users\brian\AppData\Local\Temp\ccTYhJxe.s 			page 220


 10355 08e8 75386732 		.ascii	"u8g2_font_calc_vref_center\000"
 10355      5F666F6E 
 10355      745F6361 
 10355      6C635F76 
 10355      7265665F 
 10356              	.LASF206:
 10357 0903 75386732 		.ascii	"u8g2_SetFontPosCenter\000"
 10357      5F536574 
 10357      466F6E74 
 10357      506F7343 
 10357      656E7465 
 10358              	.LASF66:
 10359 0919 75387838 		.ascii	"u8x8\000"
 10359      00
 10360              	.LASF209:
 10361 091e 75386732 		.ascii	"u8g2_GetStrX\000"
 10361      5F476574 
 10361      53747258 
 10361      00
 10362              	.LASF184:
 10363 092b 75386732 		.ascii	"u8g2_GetGlyphWidth\000"
 10363      5F476574 
 10363      476C7970 
 10363      68576964 
 10363      746800
 10364              	.LASF78:
 10365 093e 75736572 		.ascii	"user_x0\000"
 10365      5F783000 
 10366              	.LASF79:
 10367 0946 75736572 		.ascii	"user_x1\000"
 10367      5F783100 
 10368              	.LASF218:
 10369 094e 474E5520 		.ascii	"GNU C11 5.4.1 20160609 (release) [ARM/embedded-5-br"
 10369      43313120 
 10369      352E342E 
 10369      31203230 
 10369      31363036 
 10370 0981 616E6368 		.ascii	"anch revision 237715] -mcpu=cortex-m3 -mthumb -g -O"
 10370      20726576 
 10370      6973696F 
 10370      6E203233 
 10370      37373135 
 10371 09b4 67202D66 		.ascii	"g -ffunction-sections -ffat-lto-objects\000"
 10371      66756E63 
 10371      74696F6E 
 10371      2D736563 
 10371      74696F6E 
 10372              	.LASF167:
 10373 09dc 75386732 		.ascii	"u8g2_font_decode_get_signed_bits\000"
 10373      5F666F6E 
 10373      745F6465 
 10373      636F6465 
 10373      5F676574 
 10374              	.LASF53:
 10375 09fd 64617461 		.ascii	"data_setup_time_ns\000"
 10375      5F736574 
 10375      75705F74 
ARM GAS  C:\Users\brian\AppData\Local\Temp\ccTYhJxe.s 			page 221


 10375      696D655F 
 10375      6E7300
 10376              	.LASF172:
 10377 0a10 69735F66 		.ascii	"is_foreground\000"
 10377      6F726567 
 10377      726F756E 
 10377      6400
 10378              	.LASF65:
 10379 0a1e 75386732 		.ascii	"u8g2_struct\000"
 10379      5F737472 
 10379      75637400 
 10380              	.LASF104:
 10381 0a2a 75386732 		.ascii	"u8g2_draw_l90_cb\000"
 10381      5F647261 
 10381      775F6C39 
 10381      305F6362 
 10381      00
 10382              	.LASF52:
 10383 0a3b 6932635F 		.ascii	"i2c_bus_clock_100kHz\000"
 10383      6275735F 
 10383      636C6F63 
 10383      6B5F3130 
 10383      306B487A 
 10384              	.LASF16:
 10385 0a50 75696E74 		.ascii	"uint32_t\000"
 10385      33325F74 
 10385      00
 10386              	.LASF106:
 10387 0a59 5F753867 		.ascii	"_u8g2_font_info_t\000"
 10387      325F666F 
 10387      6E745F69 
 10387      6E666F5F 
 10387      7400
 10388              	.LASF70:
 10389 0a6b 74696C65 		.ascii	"tile_curr_row\000"
 10389      5F637572 
 10389      725F726F 
 10389      7700
 10390              	.LASF179:
 10391 0a79 63686172 		.ascii	"char\000"
 10391      00
 10392              	.LASF97:
 10393 0a7e 75386732 		.ascii	"u8g2_cb_t\000"
 10393      5F63625F 
 10393      7400
 10394              	.LASF51:
 10395 0a88 7370695F 		.ascii	"spi_mode\000"
 10395      6D6F6465 
 10395      00
 10396              	.LASF42:
 10397 0a91 63686970 		.ascii	"chip_enable_level\000"
 10397      5F656E61 
 10397      626C655F 
 10397      6C657665 
 10397      6C00
 10398              	.LASF174:
 10399 0aa3 75386732 		.ascii	"u8g2_font_decode_glyph\000"
ARM GAS  C:\Users\brian\AppData\Local\Temp\ccTYhJxe.s 			page 222


 10399      5F666F6E 
 10399      745F6465 
 10399      636F6465 
 10399      5F676C79 
 10400              	.LASF87:
 10401 0aba 666F6E74 		.ascii	"font_decode\000"
 10401      5F646563 
 10401      6F646500 
 10402              	.LASF217:
 10403 0ac6 75386732 		.ascii	"u8g2_GetKerningByTable\000"
 10403      5F476574 
 10403      4B65726E 
 10403      696E6742 
 10403      79546162 
 10404              	.LASF112:
 10405 0add 62697473 		.ascii	"bits_per_char_height\000"
 10405      5F706572 
 10405      5F636861 
 10405      725F6865 
 10405      69676874 
 10406              	.LASF5:
 10407 0af2 5F5F7569 		.ascii	"__uint16_t\000"
 10407      6E743136 
 10407      5F7400
 10408              	.LASF95:
 10409 0afd 64726177 		.ascii	"draw_color\000"
 10409      5F636F6C 
 10409      6F7200
 10410              	.LASF201:
 10411 0b08 75386732 		.ascii	"u8g2_SetFontRefHeightExtendedText\000"
 10411      5F536574 
 10411      466F6E74 
 10411      52656648 
 10411      65696768 
 10412              	.LASF44:
 10413 0b2a 706F7374 		.ascii	"post_chip_enable_wait_ns\000"
 10413      5F636869 
 10413      705F656E 
 10413      61626C65 
 10413      5F776169 
 10414              	.LASF138:
 10415 0b43 5F753867 		.ascii	"_u8g2_kerning_t\000"
 10415      325F6B65 
 10415      726E696E 
 10415      675F7400 
 10416              	.LASF198:
 10417 0b53 6B65726E 		.ascii	"kerning_table\000"
 10417      696E675F 
 10417      7461626C 
 10417      6500
 10418              	.LASF102:
 10419 0b61 75386732 		.ascii	"u8g2_update_dimension_cb\000"
 10419      5F757064 
 10419      6174655F 
 10419      64696D65 
 10419      6E73696F 
 10420              	.LASF129:
ARM GAS  C:\Users\brian\AppData\Local\Temp\ccTYhJxe.s 			page 223


 10421 0b7a 74617267 		.ascii	"target_x\000"
 10421      65745F78 
 10421      00
 10422              	.LASF130:
 10423 0b83 74617267 		.ascii	"target_y\000"
 10423      65745F79 
 10423      00
 10424              	.LASF199:
 10425 0b8c 75386732 		.ascii	"u8g2_UpdateRefHeight\000"
 10425      5F557064 
 10425      61746552 
 10425      65664865 
 10425      69676874 
 10426              	.LASF19:
 10427 0ba1 75387838 		.ascii	"u8x8_t\000"
 10427      5F7400
 10428              	.LASF161:
 10429 0ba8 75386732 		.ascii	"u8g2_GetFontCapitalAHeight\000"
 10429      5F476574 
 10429      466F6E74 
 10429      43617069 
 10429      74616C41 
 10430              	.LASF26:
 10431 0bc3 6275735F 		.ascii	"bus_clock\000"
 10431      636C6F63 
 10431      6B00
 10432              	.LASF81:
 10433 0bcd 75736572 		.ascii	"user_y1\000"
 10433      5F793100 
 10434              	.LASF127:
 10435 0bd5 5F753867 		.ascii	"_u8g2_font_decode_t\000"
 10435      325F666F 
 10435      6E745F64 
 10435      65636F64 
 10435      655F7400 
 10436              	.LASF13:
 10437 0be9 696E7438 		.ascii	"int8_t\000"
 10437      5F7400
 10438              	.LASF171:
 10439 0bf0 75386732 		.ascii	"u8g2_font_decode_len\000"
 10439      5F666F6E 
 10439      745F6465 
 10439      636F6465 
 10439      5F6C656E 
 10440              	.LASF37:
 10441 0c05 6465626F 		.ascii	"debounce_state\000"
 10441      756E6365 
 10441      5F737461 
 10441      746500
 10442              	.LASF181:
 10443 0c14 75386732 		.ascii	"u8g2_GetGlyphHorizontalProperties\000"
 10443      5F476574 
 10443      476C7970 
 10443      68486F72 
 10443      697A6F6E 
 10444              	.LASF153:
 10445 0c36 75386732 		.ascii	"u8g2_font_calc_vref_top\000"
ARM GAS  C:\Users\brian\AppData\Local\Temp\ccTYhJxe.s 			page 224


 10445      5F666F6E 
 10445      745F6361 
 10445      6C635F76 
 10445      7265665F 
 10446              	.LASF145:
 10447 0c4e 75386732 		.ascii	"u8g2_kerning_t\000"
 10447      5F6B6572 
 10447      6E696E67 
 10447      5F7400
 10448              	.LASF43:
 10449 0c5d 63686970 		.ascii	"chip_disable_level\000"
 10449      5F646973 
 10449      61626C65 
 10449      5F6C6576 
 10449      656C00
 10450              	.LASF200:
 10451 0c70 75386732 		.ascii	"u8g2_SetFontRefHeightText\000"
 10451      5F536574 
 10451      466F6E74 
 10451      52656648 
 10451      65696768 
 10452              	.LASF27:
 10453 0c8a 666F6E74 		.ascii	"font\000"
 10453      00
 10454              	.LASF159:
 10455 0c8f 75386732 		.ascii	"u8g2_GetFontBBXOffX\000"
 10455      5F476574 
 10455      466F6E74 
 10455      4242584F 
 10455      66665800 
 10456              	.LASF124:
 10457 0ca3 73746172 		.ascii	"start_pos_lower_a\000"
 10457      745F706F 
 10457      735F6C6F 
 10457      7765725F 
 10457      6100
 10458              	.LASF156:
 10459 0cb5 666F6E74 		.ascii	"font_arg\000"
 10459      5F617267 
 10459      00
 10460              	.LASF14:
 10461 0cbe 75696E74 		.ascii	"uint8_t\000"
 10461      385F7400 
 10462              	.LASF146:
 10463 0cc6 75386732 		.ascii	"u8g2_font_calc_vref_fnptr\000"
 10463      5F666F6E 
 10463      745F6361 
 10463      6C635F76 
 10463      7265665F 
 10464              	.LASF32:
 10465 0ce0 6932635F 		.ascii	"i2c_started\000"
 10465      73746172 
 10465      74656400 
 10466              	.LASF204:
 10467 0cec 75386732 		.ascii	"u8g2_SetFontPosBottom\000"
 10467      5F536574 
 10467      466F6E74 
ARM GAS  C:\Users\brian\AppData\Local\Temp\ccTYhJxe.s 			page 225


 10467      506F7342 
 10467      6F74746F 
 10468              	.LASF59:
 10469 0d02 70697865 		.ascii	"pixel_width\000"
 10469      6C5F7769 
 10469      64746800 
 10470              	.LASF208:
 10471 0d0e 75386732 		.ascii	"u8g2_IsAllValidUTF8\000"
 10471      5F497341 
 10471      6C6C5661 
 10471      6C696455 
 10471      54463800 
 10472              	.LASF148:
 10473 0d22 75386732 		.ascii	"u8g2_font_get_byte\000"
 10473      5F666F6E 
 10473      745F6765 
 10473      745F6279 
 10473      746500
 10474              	.LASF136:
 10475 0d35 62675F63 		.ascii	"bg_color\000"
 10475      6F6C6F72 
 10475      00
 10476              	.LASF55:
 10477 0d3e 74696C65 		.ascii	"tile_width\000"
 10477      5F776964 
 10477      746800
 10478              	.LASF169:
 10479 0d49 75386732 		.ascii	"u8g2_add_vector_x\000"
 10479      5F616464 
 10479      5F766563 
 10479      746F725F 
 10479      7800
 10480              	.LASF35:
 10481 0d5b 6465626F 		.ascii	"debounce_default_pin_state\000"
 10481      756E6365 
 10481      5F646566 
 10481      61756C74 
 10481      5F70696E 
 10482              	.LASF165:
 10483 0d76 676C7970 		.ascii	"glyph_data\000"
 10483      685F6461 
 10483      746100
 10484              	.LASF41:
 10485 0d81 75387838 		.ascii	"u8x8_display_info_struct\000"
 10485      5F646973 
 10485      706C6179 
 10485      5F696E66 
 10485      6F5F7374 
 10486              	.LASF182:
 10487 0d9a 72657175 		.ascii	"requested_encoding\000"
 10487      65737465 
 10487      645F656E 
 10487      636F6469 
 10487      6E6700
 10488              	.LASF194:
 10489 0dad 746F5F6C 		.ascii	"to_left\000"
 10489      65667400 
ARM GAS  C:\Users\brian\AppData\Local\Temp\ccTYhJxe.s 			page 226


 10490              	.LASF77:
 10491 0db5 68656967 		.ascii	"height\000"
 10491      687400
 10492              	.LASF189:
 10493 0dbc 75386732 		.ascii	"u8g2_draw_string\000"
 10493      5F647261 
 10493      775F7374 
 10493      72696E67 
 10493      00
 10494              	.LASF212:
 10495 0dcd 75386732 		.ascii	"u8g2_SetFontDirection\000"
 10495      5F536574 
 10495      466F6E74 
 10495      44697265 
 10495      6374696F 
 10496              	.LASF149:
 10497 0de3 75386732 		.ascii	"u8g2_font_get_word\000"
 10497      5F666F6E 
 10497      745F6765 
 10497      745F776F 
 10497      726400
 10498              	.LASF60:
 10499 0df6 70697865 		.ascii	"pixel_height\000"
 10499      6C5F6865 
 10499      69676874 
 10499      00
 10500              	.LASF50:
 10501 0e03 73636B5F 		.ascii	"sck_clock_hz\000"
 10501      636C6F63 
 10501      6B5F687A 
 10501      00
 10502              		.ident	"GCC: (GNU Tools for ARM Embedded Processors) 5.4.1 20160609 (release) [ARM/embedded-5-bran
