ARM GAS  C:\Users\brian\AppData\Local\Temp\cc2QkwvP.s 			page 1


   1              		.syntax unified
   2              		.cpu cortex-m3
   3              		.fpu softvfp
   4              		.eabi_attribute 20, 1
   5              		.eabi_attribute 21, 1
   6              		.eabi_attribute 23, 3
   7              		.eabi_attribute 24, 1
   8              		.eabi_attribute 25, 1
   9              		.eabi_attribute 26, 1
  10              		.eabi_attribute 30, 1
  11              		.eabi_attribute 34, 1
  12              		.eabi_attribute 18, 4
  13              		.thumb
  14              		.syntax unified
  15              		.file	"u8log.c"
  16              		.text
  17              	.Ltext0:
  18              		.cfi_sections	.debug_frame
  19              		.section	.text.u8log_clear_screen,"ax",%progbits
  20              		.align	2
  21              		.thumb
  22              		.thumb_func
  23              		.type	u8log_clear_screen, %function
  24              	u8log_clear_screen:
  25              	.LFB0:
  26              		.file 1 "..\\u8g2\\csrc\\u8log.c"
   1:..\u8g2\csrc/u8log.c **** /*
   2:..\u8g2\csrc/u8log.c **** 
   3:..\u8g2\csrc/u8log.c ****   u8log.c
   4:..\u8g2\csrc/u8log.c ****   
   5:..\u8g2\csrc/u8log.c **** 
   6:..\u8g2\csrc/u8log.c ****   Universal 8bit Graphics Library (https://github.com/olikraus/u8g2/)
   7:..\u8g2\csrc/u8log.c **** 
   8:..\u8g2\csrc/u8log.c ****   Copyright (c) 2018, olikraus@gmail.com
   9:..\u8g2\csrc/u8log.c ****   All rights reserved.
  10:..\u8g2\csrc/u8log.c **** 
  11:..\u8g2\csrc/u8log.c ****   Redistribution and use in source and binary forms, with or without modification, 
  12:..\u8g2\csrc/u8log.c ****   are permitted provided that the following conditions are met:
  13:..\u8g2\csrc/u8log.c **** 
  14:..\u8g2\csrc/u8log.c ****   * Redistributions of source code must retain the above copyright notice, this list 
  15:..\u8g2\csrc/u8log.c ****     of conditions and the following disclaimer.
  16:..\u8g2\csrc/u8log.c ****     
  17:..\u8g2\csrc/u8log.c ****   * Redistributions in binary form must reproduce the above copyright notice, this 
  18:..\u8g2\csrc/u8log.c ****     list of conditions and the following disclaimer in the documentation and/or other 
  19:..\u8g2\csrc/u8log.c ****     materials provided with the distribution.
  20:..\u8g2\csrc/u8log.c **** 
  21:..\u8g2\csrc/u8log.c ****   THIS SOFTWARE IS PROVIDED BY THE COPYRIGHT HOLDERS AND 
  22:..\u8g2\csrc/u8log.c ****   CONTRIBUTORS "AS IS" AND ANY EXPRESS OR IMPLIED WARRANTIES, 
  23:..\u8g2\csrc/u8log.c ****   INCLUDING, BUT NOT LIMITED TO, THE IMPLIED WARRANTIES OF 
  24:..\u8g2\csrc/u8log.c ****   MERCHANTABILITY AND FITNESS FOR A PARTICULAR PURPOSE ARE 
  25:..\u8g2\csrc/u8log.c ****   DISCLAIMED. IN NO EVENT SHALL THE COPYRIGHT HOLDER OR 
  26:..\u8g2\csrc/u8log.c ****   CONTRIBUTORS BE LIABLE FOR ANY DIRECT, INDIRECT, INCIDENTAL, 
  27:..\u8g2\csrc/u8log.c ****   SPECIAL, EXEMPLARY, OR CONSEQUENTIAL DAMAGES (INCLUDING, BUT 
  28:..\u8g2\csrc/u8log.c ****   NOT LIMITED TO, PROCUREMENT OF SUBSTITUTE GOODS OR SERVICES; 
  29:..\u8g2\csrc/u8log.c ****   LOSS OF USE, DATA, OR PROFITS; OR BUSINESS INTERRUPTION) HOWEVER 
  30:..\u8g2\csrc/u8log.c ****   CAUSED AND ON ANY THEORY OF LIABILITY, WHETHER IN CONTRACT, 
  31:..\u8g2\csrc/u8log.c ****   STRICT LIABILITY, OR TORT (INCLUDING NEGLIGENCE OR OTHERWISE) 
ARM GAS  C:\Users\brian\AppData\Local\Temp\cc2QkwvP.s 			page 2


  32:..\u8g2\csrc/u8log.c ****   ARISING IN ANY WAY OUT OF THE USE OF THIS SOFTWARE, EVEN IF 
  33:..\u8g2\csrc/u8log.c ****   ADVISED OF THE POSSIBILITY OF SUCH DAMAGE.  
  34:..\u8g2\csrc/u8log.c **** 
  35:..\u8g2\csrc/u8log.c **** */
  36:..\u8g2\csrc/u8log.c **** 
  37:..\u8g2\csrc/u8log.c **** #include <stdint.h>
  38:..\u8g2\csrc/u8log.c **** #include <string.h>
  39:..\u8g2\csrc/u8log.c **** #include "u8x8.h"
  40:..\u8g2\csrc/u8log.c **** 
  41:..\u8g2\csrc/u8log.c **** 
  42:..\u8g2\csrc/u8log.c **** /*
  43:..\u8g2\csrc/u8log.c **** static uint8_t u8log_is_on_screen(u8log_t *u8log, uint8_t x, uint8_t y)
  44:..\u8g2\csrc/u8log.c **** {
  45:..\u8g2\csrc/u8log.c ****   if ( x >= u8log->width )
  46:..\u8g2\csrc/u8log.c ****     return 0;
  47:..\u8g2\csrc/u8log.c ****   if ( y >= u8log->height )
  48:..\u8g2\csrc/u8log.c ****     return 0;
  49:..\u8g2\csrc/u8log.c ****   return 1;
  50:..\u8g2\csrc/u8log.c **** }
  51:..\u8g2\csrc/u8log.c **** */
  52:..\u8g2\csrc/u8log.c **** 
  53:..\u8g2\csrc/u8log.c **** static void u8log_clear_screen(u8log_t *u8log)
  54:..\u8g2\csrc/u8log.c **** {
  27              		.loc 1 54 0
  28              		.cfi_startproc
  29              		@ args = 0, pretend = 0, frame = 0
  30              		@ frame_needed = 0, uses_anonymous_args = 0
  31              		@ link register save eliminated.
  32              	.LVL0:
  55:..\u8g2\csrc/u8log.c ****   uint8_t *dest = u8log->screen_buffer;
  33              		.loc 1 55 0
  34 0000 C268     		ldr	r2, [r0, #12]
  35              	.LVL1:
  56:..\u8g2\csrc/u8log.c ****   uint16_t cnt = u8log->height;
  36              		.loc 1 56 0
  37 0002 4179     		ldrb	r1, [r0, #5]	@ zero_extendqisi2
  38              	.LVL2:
  57:..\u8g2\csrc/u8log.c ****   cnt *= u8log->width;
  39              		.loc 1 57 0
  40 0004 0379     		ldrb	r3, [r0, #4]	@ zero_extendqisi2
  41 0006 03FB01F3 		mul	r3, r3, r1
  42              	.LVL3:
  43              	.L2:
  58:..\u8g2\csrc/u8log.c ****   do
  59:..\u8g2\csrc/u8log.c ****   {
  60:..\u8g2\csrc/u8log.c ****     *dest++ = ' ';
  44              		.loc 1 60 0 discriminator 1
  45 000a 2021     		movs	r1, #32
  46 000c 1170     		strb	r1, [r2]
  61:..\u8g2\csrc/u8log.c ****     cnt--;
  47              		.loc 1 61 0 discriminator 1
  48 000e 013B     		subs	r3, r3, #1
  49              	.LVL4:
  50 0010 9BB2     		uxth	r3, r3
  51              	.LVL5:
  60:..\u8g2\csrc/u8log.c ****     cnt--;
  52              		.loc 1 60 0 discriminator 1
ARM GAS  C:\Users\brian\AppData\Local\Temp\cc2QkwvP.s 			page 3


  53 0012 0132     		adds	r2, r2, #1
  54              	.LVL6:
  62:..\u8g2\csrc/u8log.c ****   } while( cnt > 0 );
  55              		.loc 1 62 0 discriminator 1
  56 0014 002B     		cmp	r3, #0
  57 0016 F8D1     		bne	.L2
  63:..\u8g2\csrc/u8log.c ****   
  64:..\u8g2\csrc/u8log.c **** }
  58              		.loc 1 64 0
  59 0018 7047     		bx	lr
  60              		.cfi_endproc
  61              	.LFE0:
  62              		.size	u8log_clear_screen, .-u8log_clear_screen
  63              		.section	.text.u8log_scroll_up,"ax",%progbits
  64              		.align	2
  65              		.thumb
  66              		.thumb_func
  67              		.type	u8log_scroll_up, %function
  68              	u8log_scroll_up:
  69              	.LFB1:
  65:..\u8g2\csrc/u8log.c **** 
  66:..\u8g2\csrc/u8log.c **** 
  67:..\u8g2\csrc/u8log.c **** /* scroll the content of the complete buffer, set redraw_line to 255 */
  68:..\u8g2\csrc/u8log.c **** static void u8log_scroll_up(u8log_t *u8log)
  69:..\u8g2\csrc/u8log.c **** {
  70              		.loc 1 69 0
  71              		.cfi_startproc
  72              		@ args = 0, pretend = 0, frame = 0
  73              		@ frame_needed = 0, uses_anonymous_args = 0
  74              		@ link register save eliminated.
  75              	.LVL7:
  76 0000 30B4     		push	{r4, r5}
  77              		.cfi_def_cfa_offset 8
  78              		.cfi_offset 4, -8
  79              		.cfi_offset 5, -4
  70:..\u8g2\csrc/u8log.c ****   uint8_t *dest = u8log->screen_buffer;
  80              		.loc 1 70 0
  81 0002 C168     		ldr	r1, [r0, #12]
  82              	.LVL8:
  71:..\u8g2\csrc/u8log.c ****   uint8_t *src = dest+u8log->width;
  83              		.loc 1 71 0
  84 0004 0279     		ldrb	r2, [r0, #4]	@ zero_extendqisi2
  85 0006 8C18     		adds	r4, r1, r2
  86              	.LVL9:
  72:..\u8g2\csrc/u8log.c ****   uint16_t cnt = u8log->height;
  87              		.loc 1 72 0
  88 0008 4379     		ldrb	r3, [r0, #5]	@ zero_extendqisi2
  89              	.LVL10:
  73:..\u8g2\csrc/u8log.c ****   cnt--;
  90              		.loc 1 73 0
  91 000a 013B     		subs	r3, r3, #1
  92              	.LVL11:
  93 000c 9BB2     		uxth	r3, r3
  94              	.LVL12:
  74:..\u8g2\csrc/u8log.c ****   cnt *= u8log->width;
  95              		.loc 1 74 0
  96 000e 02FB03F3 		mul	r3, r2, r3
ARM GAS  C:\Users\brian\AppData\Local\Temp\cc2QkwvP.s 			page 4


  97              	.LVL13:
  98 0012 9BB2     		uxth	r3, r3
  99              	.LVL14:
 100              	.L4:
  75:..\u8g2\csrc/u8log.c ****   do
  76:..\u8g2\csrc/u8log.c ****   {
  77:..\u8g2\csrc/u8log.c ****     *dest++ = *src++;
 101              		.loc 1 77 0 discriminator 1
 102 0014 4A1C     		adds	r2, r1, #1
 103              	.LVL15:
 104 0016 2578     		ldrb	r5, [r4]	@ zero_extendqisi2
 105 0018 0D70     		strb	r5, [r1]
  78:..\u8g2\csrc/u8log.c ****     cnt--;
 106              		.loc 1 78 0 discriminator 1
 107 001a 013B     		subs	r3, r3, #1
 108              	.LVL16:
 109 001c 9BB2     		uxth	r3, r3
 110              	.LVL17:
  77:..\u8g2\csrc/u8log.c ****     cnt--;
 111              		.loc 1 77 0 discriminator 1
 112 001e 1146     		mov	r1, r2
 113 0020 0134     		adds	r4, r4, #1
 114              	.LVL18:
  79:..\u8g2\csrc/u8log.c ****   } while( cnt > 0 );
 115              		.loc 1 79 0 discriminator 1
 116 0022 002B     		cmp	r3, #0
 117 0024 F6D1     		bne	.L4
  80:..\u8g2\csrc/u8log.c ****   cnt = u8log->width;
 118              		.loc 1 80 0
 119 0026 0379     		ldrb	r3, [r0, #4]	@ zero_extendqisi2
 120              	.LVL19:
 121              	.L5:
  81:..\u8g2\csrc/u8log.c ****   do
  82:..\u8g2\csrc/u8log.c ****   {
  83:..\u8g2\csrc/u8log.c ****     *dest++ = ' ';
 122              		.loc 1 83 0 discriminator 1
 123 0028 2021     		movs	r1, #32
 124 002a 1170     		strb	r1, [r2]
  84:..\u8g2\csrc/u8log.c ****     cnt--;
 125              		.loc 1 84 0 discriminator 1
 126 002c 013B     		subs	r3, r3, #1
 127              	.LVL20:
 128 002e 9BB2     		uxth	r3, r3
 129              	.LVL21:
  83:..\u8g2\csrc/u8log.c ****     cnt--;
 130              		.loc 1 83 0 discriminator 1
 131 0030 0132     		adds	r2, r2, #1
 132              	.LVL22:
  85:..\u8g2\csrc/u8log.c ****   } while(cnt > 0);
 133              		.loc 1 85 0 discriminator 1
 134 0032 002B     		cmp	r3, #0
 135 0034 F8D1     		bne	.L5
  86:..\u8g2\csrc/u8log.c ****   
  87:..\u8g2\csrc/u8log.c ****   if ( u8log->is_redraw_line_for_each_char )
 136              		.loc 1 87 0
 137 0036 037C     		ldrb	r3, [r0, #16]	@ zero_extendqisi2
 138              	.LVL23:
ARM GAS  C:\Users\brian\AppData\Local\Temp\cc2QkwvP.s 			page 5


 139 0038 13B1     		cbz	r3, .L6
  88:..\u8g2\csrc/u8log.c ****     u8log->is_redraw_all = 1;
 140              		.loc 1 88 0
 141 003a 0123     		movs	r3, #1
 142 003c 8375     		strb	r3, [r0, #22]
 143 003e 01E0     		b	.L3
 144              	.L6:
  89:..\u8g2\csrc/u8log.c ****   else
  90:..\u8g2\csrc/u8log.c ****     u8log->is_redraw_all_required_for_next_nl = 1;
 145              		.loc 1 90 0
 146 0040 0123     		movs	r3, #1
 147 0042 C375     		strb	r3, [r0, #23]
 148              	.L3:
  91:..\u8g2\csrc/u8log.c **** }
 149              		.loc 1 91 0
 150 0044 30BC     		pop	{r4, r5}
 151              		.cfi_restore 5
 152              		.cfi_restore 4
 153              		.cfi_def_cfa_offset 0
 154              	.LVL24:
 155 0046 7047     		bx	lr
 156              		.cfi_endproc
 157              	.LFE1:
 158              		.size	u8log_scroll_up, .-u8log_scroll_up
 159              		.section	.text.u8log_cursor_on_screen,"ax",%progbits
 160              		.align	2
 161              		.thumb
 162              		.thumb_func
 163              		.type	u8log_cursor_on_screen, %function
 164              	u8log_cursor_on_screen:
 165              	.LFB2:
  92:..\u8g2\csrc/u8log.c **** 
  93:..\u8g2\csrc/u8log.c **** /*
  94:..\u8g2\csrc/u8log.c ****   Place the cursor on the screen. This will also scroll, if required 
  95:..\u8g2\csrc/u8log.c **** */
  96:..\u8g2\csrc/u8log.c **** static void u8log_cursor_on_screen(u8log_t *u8log)
  97:..\u8g2\csrc/u8log.c **** {
 166              		.loc 1 97 0
 167              		.cfi_startproc
 168              		@ args = 0, pretend = 0, frame = 0
 169              		@ frame_needed = 0, uses_anonymous_args = 0
 170              	.LVL25:
 171 0000 10B5     		push	{r4, lr}
 172              		.cfi_def_cfa_offset 8
 173              		.cfi_offset 4, -8
 174              		.cfi_offset 14, -4
 175 0002 0446     		mov	r4, r0
  98:..\u8g2\csrc/u8log.c ****   //printf("u8log_cursor_on_screen, cursor_y=%d\n", u8log->cursor_y);
  99:..\u8g2\csrc/u8log.c ****   if ( u8log->cursor_x >= u8log->width )
 176              		.loc 1 99 0
 177 0004 827C     		ldrb	r2, [r0, #18]	@ zero_extendqisi2
 178 0006 0379     		ldrb	r3, [r0, #4]	@ zero_extendqisi2
 179 0008 9A42     		cmp	r2, r3
 180 000a 0BD3     		bcc	.L11
 100:..\u8g2\csrc/u8log.c ****   {
 101:..\u8g2\csrc/u8log.c ****     u8log->cursor_x = 0;
 181              		.loc 1 101 0
ARM GAS  C:\Users\brian\AppData\Local\Temp\cc2QkwvP.s 			page 6


 182 000c 0023     		movs	r3, #0
 183 000e 8374     		strb	r3, [r0, #18]
 102:..\u8g2\csrc/u8log.c ****     u8log->cursor_y++;
 184              		.loc 1 102 0
 185 0010 C37C     		ldrb	r3, [r0, #19]	@ zero_extendqisi2
 186 0012 0133     		adds	r3, r3, #1
 187 0014 C374     		strb	r3, [r0, #19]
 188 0016 05E0     		b	.L11
 189              	.LVL26:
 190              	.L12:
 103:..\u8g2\csrc/u8log.c ****   }
 104:..\u8g2\csrc/u8log.c ****   while ( u8log->cursor_y >= u8log->height )
 105:..\u8g2\csrc/u8log.c ****   {
 106:..\u8g2\csrc/u8log.c ****     u8log_scroll_up(u8log);
 191              		.loc 1 106 0
 192 0018 2046     		mov	r0, r4
 193 001a FFF7FEFF 		bl	u8log_scroll_up
 194              	.LVL27:
 107:..\u8g2\csrc/u8log.c ****     u8log->cursor_y--;
 195              		.loc 1 107 0
 196 001e E37C     		ldrb	r3, [r4, #19]	@ zero_extendqisi2
 197 0020 013B     		subs	r3, r3, #1
 198 0022 E374     		strb	r3, [r4, #19]
 199              	.L11:
 104:..\u8g2\csrc/u8log.c ****   {
 200              		.loc 1 104 0
 201 0024 E27C     		ldrb	r2, [r4, #19]	@ zero_extendqisi2
 202 0026 6379     		ldrb	r3, [r4, #5]	@ zero_extendqisi2
 203 0028 9A42     		cmp	r2, r3
 204 002a F5D2     		bcs	.L12
 108:..\u8g2\csrc/u8log.c ****   }
 109:..\u8g2\csrc/u8log.c **** }
 205              		.loc 1 109 0
 206 002c 10BD     		pop	{r4, pc}
 207              		.cfi_endproc
 208              	.LFE2:
 209              		.size	u8log_cursor_on_screen, .-u8log_cursor_on_screen
 210 002e 00BF     		.section	.text.u8log_write_to_screen,"ax",%progbits
 211              		.align	2
 212              		.thumb
 213              		.thumb_func
 214              		.type	u8log_write_to_screen, %function
 215              	u8log_write_to_screen:
 216              	.LFB3:
 110:..\u8g2\csrc/u8log.c **** 
 111:..\u8g2\csrc/u8log.c **** /*
 112:..\u8g2\csrc/u8log.c ****   Write a printable, single char on the screen, do any kind of scrolling
 113:..\u8g2\csrc/u8log.c **** */
 114:..\u8g2\csrc/u8log.c **** static void u8log_write_to_screen(u8log_t *u8log, uint8_t c)
 115:..\u8g2\csrc/u8log.c **** {
 217              		.loc 1 115 0
 218              		.cfi_startproc
 219              		@ args = 0, pretend = 0, frame = 0
 220              		@ frame_needed = 0, uses_anonymous_args = 0
 221              	.LVL28:
 222 0000 38B5     		push	{r3, r4, r5, lr}
 223              		.cfi_def_cfa_offset 16
ARM GAS  C:\Users\brian\AppData\Local\Temp\cc2QkwvP.s 			page 7


 224              		.cfi_offset 3, -16
 225              		.cfi_offset 4, -12
 226              		.cfi_offset 5, -8
 227              		.cfi_offset 14, -4
 228 0002 0446     		mov	r4, r0
 229 0004 0D46     		mov	r5, r1
 116:..\u8g2\csrc/u8log.c ****   u8log_cursor_on_screen(u8log);
 230              		.loc 1 116 0
 231 0006 FFF7FEFF 		bl	u8log_cursor_on_screen
 232              	.LVL29:
 117:..\u8g2\csrc/u8log.c ****   u8log->screen_buffer[u8log->cursor_y * u8log->width + u8log->cursor_x] = c;
 233              		.loc 1 117 0
 234 000a E168     		ldr	r1, [r4, #12]
 235 000c E27C     		ldrb	r2, [r4, #19]	@ zero_extendqisi2
 236 000e 2079     		ldrb	r0, [r4, #4]	@ zero_extendqisi2
 237 0010 A37C     		ldrb	r3, [r4, #18]	@ zero_extendqisi2
 238 0012 00FB0233 		mla	r3, r0, r2, r3
 239 0016 CD54     		strb	r5, [r1, r3]
 118:..\u8g2\csrc/u8log.c ****   u8log->cursor_x++;
 240              		.loc 1 118 0
 241 0018 A37C     		ldrb	r3, [r4, #18]	@ zero_extendqisi2
 242 001a 0133     		adds	r3, r3, #1
 243 001c A374     		strb	r3, [r4, #18]
 119:..\u8g2\csrc/u8log.c ****   
 120:..\u8g2\csrc/u8log.c ****   if ( u8log->is_redraw_line_for_each_char )
 244              		.loc 1 120 0
 245 001e 237C     		ldrb	r3, [r4, #16]	@ zero_extendqisi2
 246 0020 1BB1     		cbz	r3, .L14
 121:..\u8g2\csrc/u8log.c ****   {
 122:..\u8g2\csrc/u8log.c ****     u8log->is_redraw_line = 1;
 247              		.loc 1 122 0
 248 0022 0123     		movs	r3, #1
 249 0024 6375     		strb	r3, [r4, #21]
 123:..\u8g2\csrc/u8log.c ****     u8log->redraw_line = u8log->cursor_y;
 250              		.loc 1 123 0
 251 0026 E37C     		ldrb	r3, [r4, #19]	@ zero_extendqisi2
 252 0028 2375     		strb	r3, [r4, #20]
 253              	.L14:
 254 002a 38BD     		pop	{r3, r4, r5, pc}
 255              		.cfi_endproc
 256              	.LFE3:
 257              		.size	u8log_write_to_screen, .-u8log_write_to_screen
 258              		.section	.text.u8log_write_char,"ax",%progbits
 259              		.align	2
 260              		.global	u8log_write_char
 261              		.thumb
 262              		.thumb_func
 263              		.type	u8log_write_char, %function
 264              	u8log_write_char:
 265              	.LFB4:
 124:..\u8g2\csrc/u8log.c ****   }
 125:..\u8g2\csrc/u8log.c **** }
 126:..\u8g2\csrc/u8log.c **** 
 127:..\u8g2\csrc/u8log.c **** /*
 128:..\u8g2\csrc/u8log.c ****   Handle control codes or write the char to the screen.
 129:..\u8g2\csrc/u8log.c ****   Supported control codes are:
 130:..\u8g2\csrc/u8log.c ****   
ARM GAS  C:\Users\brian\AppData\Local\Temp\cc2QkwvP.s 			page 8


 131:..\u8g2\csrc/u8log.c ****     \n		10		Goto first position of the next line. Line is marked for redraw.
 132:..\u8g2\csrc/u8log.c ****     \r		13		Goto first position in the same line. Line is marked for redraw.
 133:..\u8g2\csrc/u8log.c ****     \t		9		Jump to the next tab position
 134:..\u8g2\csrc/u8log.c ****     \f		12		Clear the screen and mark redraw for whole screen
 135:..\u8g2\csrc/u8log.c ****     any other char	Write char to screen. Line redraw mark depends on 
 136:..\u8g2\csrc/u8log.c **** 				is_redraw_line_for_each_char flag.
 137:..\u8g2\csrc/u8log.c **** */
 138:..\u8g2\csrc/u8log.c **** void u8log_write_char(u8log_t *u8log, uint8_t c)
 139:..\u8g2\csrc/u8log.c **** {
 266              		.loc 1 139 0
 267              		.cfi_startproc
 268              		@ args = 0, pretend = 0, frame = 0
 269              		@ frame_needed = 0, uses_anonymous_args = 0
 270              	.LVL30:
 271 0000 10B5     		push	{r4, lr}
 272              		.cfi_def_cfa_offset 8
 273              		.cfi_offset 4, -8
 274              		.cfi_offset 14, -4
 275 0002 0446     		mov	r4, r0
 140:..\u8g2\csrc/u8log.c ****   switch(c)
 276              		.loc 1 140 0
 277 0004 A1F10903 		sub	r3, r1, #9
 278 0008 042B     		cmp	r3, #4
 279 000a 27D8     		bhi	.L18
 280 000c DFE803F0 		tbb	[pc, r3]
 281              	.L20:
 282 0010 18       		.byte	(.L19-.L20)/2
 283 0011 03       		.byte	(.L21-.L20)/2
 284 0012 26       		.byte	(.L18-.L20)/2
 285 0013 1E       		.byte	(.L22-.L20)/2
 286 0014 11       		.byte	(.L23-.L20)/2
 287 0015 00       		.p2align 1
 288              	.L21:
 141:..\u8g2\csrc/u8log.c ****   {
 142:..\u8g2\csrc/u8log.c ****     case '\n':	// 10
 143:..\u8g2\csrc/u8log.c ****       u8log->is_redraw_line = 1;
 289              		.loc 1 143 0
 290 0016 0123     		movs	r3, #1
 291 0018 4375     		strb	r3, [r0, #21]
 144:..\u8g2\csrc/u8log.c ****       u8log->redraw_line = u8log->cursor_y;
 292              		.loc 1 144 0
 293 001a C37C     		ldrb	r3, [r0, #19]	@ zero_extendqisi2
 294 001c 0375     		strb	r3, [r0, #20]
 145:..\u8g2\csrc/u8log.c ****       if ( u8log->is_redraw_all_required_for_next_nl )
 295              		.loc 1 145 0
 296 001e C27D     		ldrb	r2, [r0, #23]	@ zero_extendqisi2
 297 0020 0AB1     		cbz	r2, .L24
 146:..\u8g2\csrc/u8log.c **** 	u8log->is_redraw_all = 1;
 298              		.loc 1 146 0
 299 0022 0122     		movs	r2, #1
 300 0024 8275     		strb	r2, [r0, #22]
 301              	.L24:
 147:..\u8g2\csrc/u8log.c ****       u8log->is_redraw_all_required_for_next_nl = 0;
 302              		.loc 1 147 0
 303 0026 0022     		movs	r2, #0
 304 0028 E275     		strb	r2, [r4, #23]
 148:..\u8g2\csrc/u8log.c ****       u8log->cursor_y++;
ARM GAS  C:\Users\brian\AppData\Local\Temp\cc2QkwvP.s 			page 9


 305              		.loc 1 148 0
 306 002a 0133     		adds	r3, r3, #1
 307 002c E374     		strb	r3, [r4, #19]
 149:..\u8g2\csrc/u8log.c ****       u8log->cursor_x = 0;
 308              		.loc 1 149 0
 309 002e A274     		strb	r2, [r4, #18]
 150:..\u8g2\csrc/u8log.c ****       break;	
 310              		.loc 1 150 0
 311 0030 10BD     		pop	{r4, pc}
 312              	.L23:
 151:..\u8g2\csrc/u8log.c ****     case '\r':	// 13
 152:..\u8g2\csrc/u8log.c ****       u8log->is_redraw_line = 1;
 313              		.loc 1 152 0
 314 0032 0123     		movs	r3, #1
 315 0034 4375     		strb	r3, [r0, #21]
 153:..\u8g2\csrc/u8log.c ****       u8log->redraw_line = u8log->cursor_y;
 316              		.loc 1 153 0
 317 0036 C37C     		ldrb	r3, [r0, #19]	@ zero_extendqisi2
 318 0038 0375     		strb	r3, [r0, #20]
 154:..\u8g2\csrc/u8log.c ****       u8log->cursor_x = 0;
 319              		.loc 1 154 0
 320 003a 0023     		movs	r3, #0
 321 003c 8374     		strb	r3, [r0, #18]
 155:..\u8g2\csrc/u8log.c ****       break;
 322              		.loc 1 155 0
 323 003e 10BD     		pop	{r4, pc}
 324              	.L19:
 156:..\u8g2\csrc/u8log.c ****     case '\t':	// 9
 157:..\u8g2\csrc/u8log.c ****       u8log->cursor_x = (u8log->cursor_x + 8) & 0xf8;
 325              		.loc 1 157 0
 326 0040 837C     		ldrb	r3, [r0, #18]	@ zero_extendqisi2
 327 0042 0833     		adds	r3, r3, #8
 328 0044 23F00703 		bic	r3, r3, #7
 329 0048 8374     		strb	r3, [r0, #18]
 158:..\u8g2\csrc/u8log.c ****       break;
 330              		.loc 1 158 0
 331 004a 10BD     		pop	{r4, pc}
 332              	.L22:
 159:..\u8g2\csrc/u8log.c ****     case '\f':	// 12
 160:..\u8g2\csrc/u8log.c ****       u8log_clear_screen(u8log);
 333              		.loc 1 160 0
 334 004c FFF7FEFF 		bl	u8log_clear_screen
 335              	.LVL31:
 161:..\u8g2\csrc/u8log.c ****       u8log->is_redraw_all = 1;
 336              		.loc 1 161 0
 337 0050 0123     		movs	r3, #1
 338 0052 A375     		strb	r3, [r4, #22]
 162:..\u8g2\csrc/u8log.c ****       u8log->cursor_x = 0;
 339              		.loc 1 162 0
 340 0054 0023     		movs	r3, #0
 341 0056 A374     		strb	r3, [r4, #18]
 163:..\u8g2\csrc/u8log.c ****       u8log->cursor_y = 0;
 342              		.loc 1 163 0
 343 0058 E374     		strb	r3, [r4, #19]
 164:..\u8g2\csrc/u8log.c ****       break;
 344              		.loc 1 164 0
 345 005a 10BD     		pop	{r4, pc}
ARM GAS  C:\Users\brian\AppData\Local\Temp\cc2QkwvP.s 			page 10


 346              	.LVL32:
 347              	.L18:
 165:..\u8g2\csrc/u8log.c ****     default:
 166:..\u8g2\csrc/u8log.c ****       u8log_write_to_screen(u8log, c);
 348              		.loc 1 166 0
 349 005c FFF7FEFF 		bl	u8log_write_to_screen
 350              	.LVL33:
 351 0060 10BD     		pop	{r4, pc}
 352              		.cfi_endproc
 353              	.LFE4:
 354              		.size	u8log_write_char, .-u8log_write_char
 355 0062 00BF     		.section	.text.u8log_Init,"ax",%progbits
 356              		.align	2
 357              		.global	u8log_Init
 358              		.thumb
 359              		.thumb_func
 360              		.type	u8log_Init, %function
 361              	u8log_Init:
 362              	.LFB5:
 167:..\u8g2\csrc/u8log.c ****       break;
 168:..\u8g2\csrc/u8log.c ****   }
 169:..\u8g2\csrc/u8log.c **** }
 170:..\u8g2\csrc/u8log.c **** 
 171:..\u8g2\csrc/u8log.c **** void u8log_Init(u8log_t *u8log, uint8_t width, uint8_t height, uint8_t *buf)
 172:..\u8g2\csrc/u8log.c **** {
 363              		.loc 1 172 0
 364              		.cfi_startproc
 365              		@ args = 0, pretend = 0, frame = 0
 366              		@ frame_needed = 0, uses_anonymous_args = 0
 367              	.LVL34:
 368 0000 38B5     		push	{r3, r4, r5, lr}
 369              		.cfi_def_cfa_offset 16
 370              		.cfi_offset 3, -16
 371              		.cfi_offset 4, -12
 372              		.cfi_offset 5, -8
 373              		.cfi_offset 14, -4
 173:..\u8g2\csrc/u8log.c ****   memset(u8log, 0, sizeof(u8log_t));
 374              		.loc 1 173 0
 375 0002 0025     		movs	r5, #0
 376 0004 0560     		str	r5, [r0]	@ unaligned
 377 0006 4560     		str	r5, [r0, #4]	@ unaligned
 378 0008 8560     		str	r5, [r0, #8]	@ unaligned
 379 000a 0561     		str	r5, [r0, #16]	@ unaligned
 380 000c 4561     		str	r5, [r0, #20]	@ unaligned
 174:..\u8g2\csrc/u8log.c ****   u8log->width = width;
 381              		.loc 1 174 0
 382 000e 0171     		strb	r1, [r0, #4]
 175:..\u8g2\csrc/u8log.c ****   u8log->height = height;
 383              		.loc 1 175 0
 384 0010 4271     		strb	r2, [r0, #5]
 176:..\u8g2\csrc/u8log.c ****   u8log->screen_buffer = buf;
 385              		.loc 1 176 0
 386 0012 C360     		str	r3, [r0, #12]
 177:..\u8g2\csrc/u8log.c ****   u8log_clear_screen(u8log);
 387              		.loc 1 177 0
 388 0014 FFF7FEFF 		bl	u8log_clear_screen
 389              	.LVL35:
ARM GAS  C:\Users\brian\AppData\Local\Temp\cc2QkwvP.s 			page 11


 390 0018 38BD     		pop	{r3, r4, r5, pc}
 391              		.cfi_endproc
 392              	.LFE5:
 393              		.size	u8log_Init, .-u8log_Init
 394 001a 00BF     		.section	.text.u8log_SetCallback,"ax",%progbits
 395              		.align	2
 396              		.global	u8log_SetCallback
 397              		.thumb
 398              		.thumb_func
 399              		.type	u8log_SetCallback, %function
 400              	u8log_SetCallback:
 401              	.LFB6:
 178:..\u8g2\csrc/u8log.c **** }
 179:..\u8g2\csrc/u8log.c **** 
 180:..\u8g2\csrc/u8log.c **** void u8log_SetCallback(u8log_t *u8log, u8log_cb cb, void *aux_data)
 181:..\u8g2\csrc/u8log.c **** {
 402              		.loc 1 181 0
 403              		.cfi_startproc
 404              		@ args = 0, pretend = 0, frame = 0
 405              		@ frame_needed = 0, uses_anonymous_args = 0
 406              		@ link register save eliminated.
 407              	.LVL36:
 182:..\u8g2\csrc/u8log.c ****   u8log->cb = cb;
 408              		.loc 1 182 0
 409 0000 8160     		str	r1, [r0, #8]
 183:..\u8g2\csrc/u8log.c ****   u8log->aux_data = aux_data;
 410              		.loc 1 183 0
 411 0002 0260     		str	r2, [r0]
 412 0004 7047     		bx	lr
 413              		.cfi_endproc
 414              	.LFE6:
 415              		.size	u8log_SetCallback, .-u8log_SetCallback
 416 0006 00BF     		.section	.text.u8log_SetRedrawMode,"ax",%progbits
 417              		.align	2
 418              		.global	u8log_SetRedrawMode
 419              		.thumb
 420              		.thumb_func
 421              		.type	u8log_SetRedrawMode, %function
 422              	u8log_SetRedrawMode:
 423              	.LFB7:
 184:..\u8g2\csrc/u8log.c **** }
 185:..\u8g2\csrc/u8log.c **** 
 186:..\u8g2\csrc/u8log.c **** void u8log_SetRedrawMode(u8log_t *u8log, uint8_t is_redraw_line_for_each_char)
 187:..\u8g2\csrc/u8log.c **** {
 424              		.loc 1 187 0
 425              		.cfi_startproc
 426              		@ args = 0, pretend = 0, frame = 0
 427              		@ frame_needed = 0, uses_anonymous_args = 0
 428              		@ link register save eliminated.
 429              	.LVL37:
 188:..\u8g2\csrc/u8log.c ****   u8log->is_redraw_line_for_each_char = is_redraw_line_for_each_char;
 430              		.loc 1 188 0
 431 0000 0174     		strb	r1, [r0, #16]
 432 0002 7047     		bx	lr
 433              		.cfi_endproc
 434              	.LFE7:
 435              		.size	u8log_SetRedrawMode, .-u8log_SetRedrawMode
ARM GAS  C:\Users\brian\AppData\Local\Temp\cc2QkwvP.s 			page 12


 436              		.section	.text.u8log_SetLineHeightOffset,"ax",%progbits
 437              		.align	2
 438              		.global	u8log_SetLineHeightOffset
 439              		.thumb
 440              		.thumb_func
 441              		.type	u8log_SetLineHeightOffset, %function
 442              	u8log_SetLineHeightOffset:
 443              	.LFB8:
 189:..\u8g2\csrc/u8log.c **** }
 190:..\u8g2\csrc/u8log.c **** 
 191:..\u8g2\csrc/u8log.c **** /* offset can be negative or positive, it is 0 by default */
 192:..\u8g2\csrc/u8log.c **** void u8log_SetLineHeightOffset(u8log_t *u8log, int8_t line_height_offset)
 193:..\u8g2\csrc/u8log.c **** {
 444              		.loc 1 193 0
 445              		.cfi_startproc
 446              		@ args = 0, pretend = 0, frame = 0
 447              		@ frame_needed = 0, uses_anonymous_args = 0
 448              		@ link register save eliminated.
 449              	.LVL38:
 194:..\u8g2\csrc/u8log.c ****   u8log->line_height_offset = line_height_offset;
 450              		.loc 1 194 0
 451 0000 4174     		strb	r1, [r0, #17]
 452 0002 7047     		bx	lr
 453              		.cfi_endproc
 454              	.LFE8:
 455              		.size	u8log_SetLineHeightOffset, .-u8log_SetLineHeightOffset
 456              		.section	.text.u8log_WriteChar,"ax",%progbits
 457              		.align	2
 458              		.global	u8log_WriteChar
 459              		.thumb
 460              		.thumb_func
 461              		.type	u8log_WriteChar, %function
 462              	u8log_WriteChar:
 463              	.LFB9:
 195:..\u8g2\csrc/u8log.c **** }
 196:..\u8g2\csrc/u8log.c **** 
 197:..\u8g2\csrc/u8log.c **** 
 198:..\u8g2\csrc/u8log.c **** 
 199:..\u8g2\csrc/u8log.c **** void u8log_WriteChar(u8log_t *u8log, uint8_t c)
 200:..\u8g2\csrc/u8log.c **** {
 464              		.loc 1 200 0
 465              		.cfi_startproc
 466              		@ args = 0, pretend = 0, frame = 0
 467              		@ frame_needed = 0, uses_anonymous_args = 0
 468              	.LVL39:
 469 0000 10B5     		push	{r4, lr}
 470              		.cfi_def_cfa_offset 8
 471              		.cfi_offset 4, -8
 472              		.cfi_offset 14, -4
 473 0002 0446     		mov	r4, r0
 201:..\u8g2\csrc/u8log.c ****   u8log_write_char(u8log, c);
 474              		.loc 1 201 0
 475 0004 FFF7FEFF 		bl	u8log_write_char
 476              	.LVL40:
 202:..\u8g2\csrc/u8log.c ****   if ( u8log->is_redraw_line || u8log->is_redraw_all )
 477              		.loc 1 202 0
 478 0008 6369     		ldr	r3, [r4, #20]
ARM GAS  C:\Users\brian\AppData\Local\Temp\cc2QkwvP.s 			page 13


 479 000a 23F07F43 		bic	r3, r3, #-16777216
 480 000e 23F0FF03 		bic	r3, r3, #255
 481 0012 33B1     		cbz	r3, .L32
 203:..\u8g2\csrc/u8log.c ****   {
 204:..\u8g2\csrc/u8log.c ****     if ( u8log->cb != 0 )
 482              		.loc 1 204 0
 483 0014 A368     		ldr	r3, [r4, #8]
 484 0016 0BB1     		cbz	r3, .L34
 205:..\u8g2\csrc/u8log.c ****     {
 206:..\u8g2\csrc/u8log.c ****       u8log->cb(u8log);
 485              		.loc 1 206 0
 486 0018 2046     		mov	r0, r4
 487 001a 9847     		blx	r3
 488              	.LVL41:
 489              	.L34:
 207:..\u8g2\csrc/u8log.c ****     }
 208:..\u8g2\csrc/u8log.c ****     u8log->is_redraw_line = 0;
 490              		.loc 1 208 0
 491 001c 0023     		movs	r3, #0
 492 001e 6375     		strb	r3, [r4, #21]
 209:..\u8g2\csrc/u8log.c ****     u8log->is_redraw_all = 0;
 493              		.loc 1 209 0
 494 0020 A375     		strb	r3, [r4, #22]
 495              	.L32:
 496 0022 10BD     		pop	{r4, pc}
 497              		.cfi_endproc
 498              	.LFE9:
 499              		.size	u8log_WriteChar, .-u8log_WriteChar
 500              		.section	.text.u8log_WriteHexHalfByte,"ax",%progbits
 501              		.align	2
 502              		.thumb
 503              		.thumb_func
 504              		.type	u8log_WriteHexHalfByte, %function
 505              	u8log_WriteHexHalfByte:
 506              	.LFB11:
 210:..\u8g2\csrc/u8log.c ****   }
 211:..\u8g2\csrc/u8log.c **** }
 212:..\u8g2\csrc/u8log.c **** 
 213:..\u8g2\csrc/u8log.c **** void u8log_WriteString(u8log_t *u8log, const char *s)
 214:..\u8g2\csrc/u8log.c **** {
 215:..\u8g2\csrc/u8log.c ****   while( *s != '\0' )
 216:..\u8g2\csrc/u8log.c ****   {
 217:..\u8g2\csrc/u8log.c ****     u8log_WriteChar(u8log, *s);
 218:..\u8g2\csrc/u8log.c ****     s++;
 219:..\u8g2\csrc/u8log.c ****   }
 220:..\u8g2\csrc/u8log.c **** }
 221:..\u8g2\csrc/u8log.c **** 
 222:..\u8g2\csrc/u8log.c **** static void u8log_WriteHexHalfByte(u8log_t *u8log, uint8_t b) U8X8_NOINLINE;
 223:..\u8g2\csrc/u8log.c **** static void u8log_WriteHexHalfByte(u8log_t *u8log, uint8_t b)
 224:..\u8g2\csrc/u8log.c **** {
 507              		.loc 1 224 0
 508              		.cfi_startproc
 509              		@ args = 0, pretend = 0, frame = 0
 510              		@ frame_needed = 0, uses_anonymous_args = 0
 511              	.LVL42:
 512 0000 08B5     		push	{r3, lr}
 513              		.cfi_def_cfa_offset 8
ARM GAS  C:\Users\brian\AppData\Local\Temp\cc2QkwvP.s 			page 14


 514              		.cfi_offset 3, -8
 515              		.cfi_offset 14, -4
 225:..\u8g2\csrc/u8log.c ****   b &= 0x0f;
 516              		.loc 1 225 0
 517 0002 01F00F01 		and	r1, r1, #15
 518              	.LVL43:
 226:..\u8g2\csrc/u8log.c ****   if ( b < 10 )
 519              		.loc 1 226 0
 520 0006 0929     		cmp	r1, #9
 521 0008 03D8     		bhi	.L37
 227:..\u8g2\csrc/u8log.c ****     u8log_WriteChar(u8log, b+'0');
 522              		.loc 1 227 0
 523 000a 3031     		adds	r1, r1, #48
 524              	.LVL44:
 525 000c FFF7FEFF 		bl	u8log_WriteChar
 526              	.LVL45:
 527 0010 08BD     		pop	{r3, pc}
 528              	.LVL46:
 529              	.L37:
 228:..\u8g2\csrc/u8log.c ****   else
 229:..\u8g2\csrc/u8log.c ****     u8log_WriteChar(u8log, b+'a'-10);
 530              		.loc 1 229 0
 531 0012 5731     		adds	r1, r1, #87
 532              	.LVL47:
 533 0014 FFF7FEFF 		bl	u8log_WriteChar
 534              	.LVL48:
 535 0018 08BD     		pop	{r3, pc}
 536              		.cfi_endproc
 537              	.LFE11:
 538              		.size	u8log_WriteHexHalfByte, .-u8log_WriteHexHalfByte
 539 001a 00BF     		.section	.text.u8log_WriteString,"ax",%progbits
 540              		.align	2
 541              		.global	u8log_WriteString
 542              		.thumb
 543              		.thumb_func
 544              		.type	u8log_WriteString, %function
 545              	u8log_WriteString:
 546              	.LFB10:
 214:..\u8g2\csrc/u8log.c ****   while( *s != '\0' )
 547              		.loc 1 214 0
 548              		.cfi_startproc
 549              		@ args = 0, pretend = 0, frame = 0
 550              		@ frame_needed = 0, uses_anonymous_args = 0
 551              	.LVL49:
 552 0000 38B5     		push	{r3, r4, r5, lr}
 553              		.cfi_def_cfa_offset 16
 554              		.cfi_offset 3, -16
 555              		.cfi_offset 4, -12
 556              		.cfi_offset 5, -8
 557              		.cfi_offset 14, -4
 558 0002 0546     		mov	r5, r0
 559 0004 0C46     		mov	r4, r1
 215:..\u8g2\csrc/u8log.c ****   {
 560              		.loc 1 215 0
 561 0006 03E0     		b	.L41
 562              	.LVL50:
 563              	.L42:
ARM GAS  C:\Users\brian\AppData\Local\Temp\cc2QkwvP.s 			page 15


 217:..\u8g2\csrc/u8log.c ****     s++;
 564              		.loc 1 217 0
 565 0008 2846     		mov	r0, r5
 566 000a FFF7FEFF 		bl	u8log_WriteChar
 567              	.LVL51:
 218:..\u8g2\csrc/u8log.c ****   }
 568              		.loc 1 218 0
 569 000e 0134     		adds	r4, r4, #1
 570              	.LVL52:
 571              	.L41:
 215:..\u8g2\csrc/u8log.c ****   {
 572              		.loc 1 215 0
 573 0010 2178     		ldrb	r1, [r4]	@ zero_extendqisi2
 574 0012 0029     		cmp	r1, #0
 575 0014 F8D1     		bne	.L42
 220:..\u8g2\csrc/u8log.c **** 
 576              		.loc 1 220 0
 577 0016 38BD     		pop	{r3, r4, r5, pc}
 578              		.cfi_endproc
 579              	.LFE10:
 580              		.size	u8log_WriteString, .-u8log_WriteString
 581              		.section	.text.u8log_WriteHex8,"ax",%progbits
 582              		.align	2
 583              		.global	u8log_WriteHex8
 584              		.thumb
 585              		.thumb_func
 586              		.type	u8log_WriteHex8, %function
 587              	u8log_WriteHex8:
 588              	.LFB12:
 230:..\u8g2\csrc/u8log.c **** }
 231:..\u8g2\csrc/u8log.c **** 
 232:..\u8g2\csrc/u8log.c **** void u8log_WriteHex8(u8log_t *u8log, uint8_t b)
 233:..\u8g2\csrc/u8log.c **** {
 589              		.loc 1 233 0
 590              		.cfi_startproc
 591              		@ args = 0, pretend = 0, frame = 0
 592              		@ frame_needed = 0, uses_anonymous_args = 0
 593              	.LVL53:
 594 0000 38B5     		push	{r3, r4, r5, lr}
 595              		.cfi_def_cfa_offset 16
 596              		.cfi_offset 3, -16
 597              		.cfi_offset 4, -12
 598              		.cfi_offset 5, -8
 599              		.cfi_offset 14, -4
 600 0002 0546     		mov	r5, r0
 601 0004 0C46     		mov	r4, r1
 234:..\u8g2\csrc/u8log.c ****   u8log_WriteHexHalfByte(u8log, b >> 4);
 602              		.loc 1 234 0
 603 0006 0909     		lsrs	r1, r1, #4
 604              	.LVL54:
 605 0008 FFF7FEFF 		bl	u8log_WriteHexHalfByte
 606              	.LVL55:
 235:..\u8g2\csrc/u8log.c ****   u8log_WriteHexHalfByte(u8log, b);
 607              		.loc 1 235 0
 608 000c 2146     		mov	r1, r4
 609 000e 2846     		mov	r0, r5
 610 0010 FFF7FEFF 		bl	u8log_WriteHexHalfByte
ARM GAS  C:\Users\brian\AppData\Local\Temp\cc2QkwvP.s 			page 16


 611              	.LVL56:
 612 0014 38BD     		pop	{r3, r4, r5, pc}
 613              		.cfi_endproc
 614              	.LFE12:
 615              		.size	u8log_WriteHex8, .-u8log_WriteHex8
 616 0016 00BF     		.section	.text.u8log_WriteHex16,"ax",%progbits
 617              		.align	2
 618              		.global	u8log_WriteHex16
 619              		.thumb
 620              		.thumb_func
 621              		.type	u8log_WriteHex16, %function
 622              	u8log_WriteHex16:
 623              	.LFB13:
 236:..\u8g2\csrc/u8log.c **** }
 237:..\u8g2\csrc/u8log.c **** 
 238:..\u8g2\csrc/u8log.c **** void u8log_WriteHex16(u8log_t *u8log, uint16_t v)
 239:..\u8g2\csrc/u8log.c **** {
 624              		.loc 1 239 0
 625              		.cfi_startproc
 626              		@ args = 0, pretend = 0, frame = 0
 627              		@ frame_needed = 0, uses_anonymous_args = 0
 628              	.LVL57:
 629 0000 38B5     		push	{r3, r4, r5, lr}
 630              		.cfi_def_cfa_offset 16
 631              		.cfi_offset 3, -16
 632              		.cfi_offset 4, -12
 633              		.cfi_offset 5, -8
 634              		.cfi_offset 14, -4
 635 0002 0546     		mov	r5, r0
 636 0004 0C46     		mov	r4, r1
 240:..\u8g2\csrc/u8log.c ****   u8log_WriteHex8(u8log, v>>8);
 637              		.loc 1 240 0
 638 0006 090A     		lsrs	r1, r1, #8
 639              	.LVL58:
 640 0008 FFF7FEFF 		bl	u8log_WriteHex8
 641              	.LVL59:
 241:..\u8g2\csrc/u8log.c ****   u8log_WriteHex8(u8log, v);
 642              		.loc 1 241 0
 643 000c E1B2     		uxtb	r1, r4
 644 000e 2846     		mov	r0, r5
 645 0010 FFF7FEFF 		bl	u8log_WriteHex8
 646              	.LVL60:
 647 0014 38BD     		pop	{r3, r4, r5, pc}
 648              		.cfi_endproc
 649              	.LFE13:
 650              		.size	u8log_WriteHex16, .-u8log_WriteHex16
 651 0016 00BF     		.section	.text.u8log_WriteHex32,"ax",%progbits
 652              		.align	2
 653              		.global	u8log_WriteHex32
 654              		.thumb
 655              		.thumb_func
 656              		.type	u8log_WriteHex32, %function
 657              	u8log_WriteHex32:
 658              	.LFB14:
 242:..\u8g2\csrc/u8log.c **** }
 243:..\u8g2\csrc/u8log.c **** 
 244:..\u8g2\csrc/u8log.c **** void u8log_WriteHex32(u8log_t *u8log, uint32_t v)
ARM GAS  C:\Users\brian\AppData\Local\Temp\cc2QkwvP.s 			page 17


 245:..\u8g2\csrc/u8log.c **** {
 659              		.loc 1 245 0
 660              		.cfi_startproc
 661              		@ args = 0, pretend = 0, frame = 0
 662              		@ frame_needed = 0, uses_anonymous_args = 0
 663              	.LVL61:
 664 0000 38B5     		push	{r3, r4, r5, lr}
 665              		.cfi_def_cfa_offset 16
 666              		.cfi_offset 3, -16
 667              		.cfi_offset 4, -12
 668              		.cfi_offset 5, -8
 669              		.cfi_offset 14, -4
 670 0002 0546     		mov	r5, r0
 671 0004 0C46     		mov	r4, r1
 246:..\u8g2\csrc/u8log.c ****   u8log_WriteHex16(u8log, v>>16);
 672              		.loc 1 246 0
 673 0006 090C     		lsrs	r1, r1, #16
 674              	.LVL62:
 675 0008 FFF7FEFF 		bl	u8log_WriteHex16
 676              	.LVL63:
 247:..\u8g2\csrc/u8log.c ****   u8log_WriteHex16(u8log, v);
 677              		.loc 1 247 0
 678 000c A1B2     		uxth	r1, r4
 679 000e 2846     		mov	r0, r5
 680 0010 FFF7FEFF 		bl	u8log_WriteHex16
 681              	.LVL64:
 682 0014 38BD     		pop	{r3, r4, r5, pc}
 683              		.cfi_endproc
 684              	.LFE14:
 685              		.size	u8log_WriteHex32, .-u8log_WriteHex32
 686 0016 00BF     		.section	.text.u8log_WriteDec8,"ax",%progbits
 687              		.align	2
 688              		.global	u8log_WriteDec8
 689              		.thumb
 690              		.thumb_func
 691              		.type	u8log_WriteDec8, %function
 692              	u8log_WriteDec8:
 693              	.LFB15:
 248:..\u8g2\csrc/u8log.c **** }
 249:..\u8g2\csrc/u8log.c **** 
 250:..\u8g2\csrc/u8log.c **** /* v = value, d = number of digits (1..3) */
 251:..\u8g2\csrc/u8log.c **** void u8log_WriteDec8(u8log_t *u8log, uint8_t v, uint8_t d)
 252:..\u8g2\csrc/u8log.c **** {
 694              		.loc 1 252 0
 695              		.cfi_startproc
 696              		@ args = 0, pretend = 0, frame = 0
 697              		@ frame_needed = 0, uses_anonymous_args = 0
 698              	.LVL65:
 699 0000 10B5     		push	{r4, lr}
 700              		.cfi_def_cfa_offset 8
 701              		.cfi_offset 4, -8
 702              		.cfi_offset 14, -4
 703 0002 0446     		mov	r4, r0
 704 0004 0846     		mov	r0, r1
 705              	.LVL66:
 253:..\u8g2\csrc/u8log.c ****   u8log_WriteString(u8log, u8x8_u8toa(v, d));
 706              		.loc 1 253 0
ARM GAS  C:\Users\brian\AppData\Local\Temp\cc2QkwvP.s 			page 18


 707 0006 1146     		mov	r1, r2
 708              	.LVL67:
 709 0008 FFF7FEFF 		bl	u8x8_u8toa
 710              	.LVL68:
 711 000c 0146     		mov	r1, r0
 712 000e 2046     		mov	r0, r4
 713 0010 FFF7FEFF 		bl	u8log_WriteString
 714              	.LVL69:
 715 0014 10BD     		pop	{r4, pc}
 716              		.cfi_endproc
 717              	.LFE15:
 718              		.size	u8log_WriteDec8, .-u8log_WriteDec8
 719 0016 00BF     		.section	.text.u8log_WriteDec16,"ax",%progbits
 720              		.align	2
 721              		.global	u8log_WriteDec16
 722              		.thumb
 723              		.thumb_func
 724              		.type	u8log_WriteDec16, %function
 725              	u8log_WriteDec16:
 726              	.LFB16:
 254:..\u8g2\csrc/u8log.c **** }
 255:..\u8g2\csrc/u8log.c **** 
 256:..\u8g2\csrc/u8log.c **** /* v = value, d = number of digits (1..5) */
 257:..\u8g2\csrc/u8log.c **** void u8log_WriteDec16(u8log_t *u8log, uint16_t v, uint8_t d)
 258:..\u8g2\csrc/u8log.c **** {
 727              		.loc 1 258 0
 728              		.cfi_startproc
 729              		@ args = 0, pretend = 0, frame = 0
 730              		@ frame_needed = 0, uses_anonymous_args = 0
 731              	.LVL70:
 732 0000 10B5     		push	{r4, lr}
 733              		.cfi_def_cfa_offset 8
 734              		.cfi_offset 4, -8
 735              		.cfi_offset 14, -4
 736 0002 0446     		mov	r4, r0
 737 0004 0846     		mov	r0, r1
 738              	.LVL71:
 259:..\u8g2\csrc/u8log.c ****   u8log_WriteString(u8log, u8x8_u16toa(v, d));
 739              		.loc 1 259 0
 740 0006 1146     		mov	r1, r2
 741              	.LVL72:
 742 0008 FFF7FEFF 		bl	u8x8_u16toa
 743              	.LVL73:
 744 000c 0146     		mov	r1, r0
 745 000e 2046     		mov	r0, r4
 746 0010 FFF7FEFF 		bl	u8log_WriteString
 747              	.LVL74:
 748 0014 10BD     		pop	{r4, pc}
 749              		.cfi_endproc
 750              	.LFE16:
 751              		.size	u8log_WriteDec16, .-u8log_WriteDec16
 752 0016 00BF     		.text
 753              	.Letext0:
 754              		.file 2 "c:\\program files (x86)\\cypress\\psoc creator\\4.4\\psoc creator\\import\\gnu\\arm\\5.4.
 755              		.file 3 "c:\\program files (x86)\\cypress\\psoc creator\\4.4\\psoc creator\\import\\gnu\\arm\\5.4.
 756              		.file 4 "..\\u8g2\\csrc\\u8x8.h"