ARM GAS  C:\Users\brian\AppData\Local\Temp\ccYN07u6.s 			page 1


   1              		.syntax unified
   2              		.cpu cortex-m3
   3              		.fpu softvfp
   4              		.eabi_attribute 20, 1
   5              		.eabi_attribute 21, 1
   6              		.eabi_attribute 23, 3
   7              		.eabi_attribute 24, 1
   8              		.eabi_attribute 25, 1
   9              		.eabi_attribute 26, 1
  10              		.eabi_attribute 30, 1
  11              		.eabi_attribute 34, 1
  12              		.eabi_attribute 18, 4
  13              		.thumb
  14              		.syntax unified
  15              		.file	"u8x8_d_s1d15e06.c"
  16              		.text
  17              	.Ltext0:
  18              		.cfi_sections	.debug_frame
  19              		.section	.text.u8x8_d_s1d15e06_common,"ax",%progbits
  20              		.align	2
  21              		.global	u8x8_d_s1d15e06_common
  22              		.thumb
  23              		.thumb_func
  24              		.type	u8x8_d_s1d15e06_common, %function
  25              	u8x8_d_s1d15e06_common:
  26              	.LFB0:
  27              		.file 1 "..\\u8g2\\csrc\\u8x8_d_s1d15e06.c"
   1:..\u8g2\csrc/u8x8_d_s1d15e06.c **** /*
   2:..\u8g2\csrc/u8x8_d_s1d15e06.c **** 
   3:..\u8g2\csrc/u8x8_d_s1d15e06.c ****   u8x8_d_s1d15e06.c
   4:..\u8g2\csrc/u8x8_d_s1d15e06.c ****   
   5:..\u8g2\csrc/u8x8_d_s1d15e06.c ****   https://github.com/olikraus/u8g2/pull/1190
   6:..\u8g2\csrc/u8x8_d_s1d15e06.c ****   https://github.com/olikraus/u8g2/issues/1172
   7:..\u8g2\csrc/u8x8_d_s1d15e06.c ****   
   8:..\u8g2\csrc/u8x8_d_s1d15e06.c ****   Universal 8bit Graphics Library (https://github.com/olikraus/u8g2/)
   9:..\u8g2\csrc/u8x8_d_s1d15e06.c ****   
  10:..\u8g2\csrc/u8x8_d_s1d15e06.c ****   Copyright (c) 2020, olikraus@gmail.com
  11:..\u8g2\csrc/u8x8_d_s1d15e06.c ****   
  12:..\u8g2\csrc/u8x8_d_s1d15e06.c ****   All rights reserved.
  13:..\u8g2\csrc/u8x8_d_s1d15e06.c ****   
  14:..\u8g2\csrc/u8x8_d_s1d15e06.c ****   Redistribution and use in source and binary forms, with or without modification, 
  15:..\u8g2\csrc/u8x8_d_s1d15e06.c ****   are permitted provided that the following conditions are met:
  16:..\u8g2\csrc/u8x8_d_s1d15e06.c ****   * Redistributions of source code must retain the above copyright notice, this list 
  17:..\u8g2\csrc/u8x8_d_s1d15e06.c ****     of conditions and the following disclaimer.
  18:..\u8g2\csrc/u8x8_d_s1d15e06.c ****     
  19:..\u8g2\csrc/u8x8_d_s1d15e06.c ****   * Redistributions in binary form must reproduce the above copyright notice, this 
  20:..\u8g2\csrc/u8x8_d_s1d15e06.c ****     list of conditions and the following disclaimer in the documentation and/or other 
  21:..\u8g2\csrc/u8x8_d_s1d15e06.c ****     materials provided with the distribution.
  22:..\u8g2\csrc/u8x8_d_s1d15e06.c ****     
  23:..\u8g2\csrc/u8x8_d_s1d15e06.c ****   THIS SOFTWARE IS PROVIDED BY THE COPYRIGHT HOLDERS AND 
  24:..\u8g2\csrc/u8x8_d_s1d15e06.c ****   CONTRIBUTORS "AS IS" AND ANY EXPRESS OR IMPLIED WARRANTIES, 
  25:..\u8g2\csrc/u8x8_d_s1d15e06.c ****   INCLUDING, BUT NOT LIMITED TO, THE IMPLIED WARRANTIES OF 
  26:..\u8g2\csrc/u8x8_d_s1d15e06.c ****   MERCHANTABILITY AND FITNESS FOR A PARTICULAR PURPOSE ARE 
  27:..\u8g2\csrc/u8x8_d_s1d15e06.c ****   DISCLAIMED. IN NO EVENT SHALL THE COPYRIGHT HOLDER OR 
  28:..\u8g2\csrc/u8x8_d_s1d15e06.c ****   CONTRIBUTORS BE LIABLE FOR ANY DIRECT, INDIRECT, INCIDENTAL, 
  29:..\u8g2\csrc/u8x8_d_s1d15e06.c ****   SPECIAL, EXEMPLARY, OR CONSEQUENTIAL DAMAGES (INCLUDING, BUT 
  30:..\u8g2\csrc/u8x8_d_s1d15e06.c ****   NOT LIMITED TO, PROCUREMENT OF SUBSTITUTE GOODS OR SERVICES; 
ARM GAS  C:\Users\brian\AppData\Local\Temp\ccYN07u6.s 			page 2


  31:..\u8g2\csrc/u8x8_d_s1d15e06.c ****   LOSS OF USE, DATA, OR PROFITS; OR BUSINESS INTERRUPTION) HOWEVER 
  32:..\u8g2\csrc/u8x8_d_s1d15e06.c ****   CAUSED AND ON ANY THEORY OF LIABILITY, WHETHER IN CONTRACT, 
  33:..\u8g2\csrc/u8x8_d_s1d15e06.c ****   STRICT LIABILITY, OR TORT (INCLUDING NEGLIGENCE OR OTHERWISE) 
  34:..\u8g2\csrc/u8x8_d_s1d15e06.c ****   ARISING IN ANY WAY OUT OF THE USE OF THIS SOFTWARE, EVEN IF 
  35:..\u8g2\csrc/u8x8_d_s1d15e06.c ****   ADVISED OF THE POSSIBILITY OF SUCH DAMAGE.  
  36:..\u8g2\csrc/u8x8_d_s1d15e06.c ****   
  37:..\u8g2\csrc/u8x8_d_s1d15e06.c **** */
  38:..\u8g2\csrc/u8x8_d_s1d15e06.c **** #include "u8x8.h"
  39:..\u8g2\csrc/u8x8_d_s1d15e06.c **** 
  40:..\u8g2\csrc/u8x8_d_s1d15e06.c **** static const uint8_t u8x8_d_s1d15e06_powersave0_seq[] = {
  41:..\u8g2\csrc/u8x8_d_s1d15e06.c ****   U8X8_START_TRANSFER(),             	/* enable chip, delay is part of the transfer start */
  42:..\u8g2\csrc/u8x8_d_s1d15e06.c ****   U8X8_C(0xA8),		                /* display on */
  43:..\u8g2\csrc/u8x8_d_s1d15e06.c ****   U8X8_END_TRANSFER(),             	/* disable chip */
  44:..\u8g2\csrc/u8x8_d_s1d15e06.c ****   U8X8_END()             			/* end of sequence */
  45:..\u8g2\csrc/u8x8_d_s1d15e06.c **** };
  46:..\u8g2\csrc/u8x8_d_s1d15e06.c **** 
  47:..\u8g2\csrc/u8x8_d_s1d15e06.c **** static const uint8_t u8x8_d_s1d15e06_powersave1_seq[] = {
  48:..\u8g2\csrc/u8x8_d_s1d15e06.c ****   U8X8_START_TRANSFER(),             	/* enable chip, delay is part of the transfer start */
  49:..\u8g2\csrc/u8x8_d_s1d15e06.c ****   U8X8_C(0xA8|1),		                /* display off, enter sleep mode */
  50:..\u8g2\csrc/u8x8_d_s1d15e06.c ****   U8X8_END_TRANSFER(),             	/* disable chip */
  51:..\u8g2\csrc/u8x8_d_s1d15e06.c ****   U8X8_END()             			/* end of sequence */
  52:..\u8g2\csrc/u8x8_d_s1d15e06.c **** };
  53:..\u8g2\csrc/u8x8_d_s1d15e06.c **** 
  54:..\u8g2\csrc/u8x8_d_s1d15e06.c **** static const uint8_t u8x8_d_s1d15e06_flip0_seq[] = {
  55:..\u8g2\csrc/u8x8_d_s1d15e06.c ****   U8X8_START_TRANSFER(),            /* enable chip, delay is part of the transfer start */
  56:..\u8g2\csrc/u8x8_d_s1d15e06.c ****   U8X8_C(0xA6),            			/* LCD Mapping */
  57:..\u8g2\csrc/u8x8_d_s1d15e06.c ****   U8X8_END_TRANSFER(),             	/* disable chip */
  58:..\u8g2\csrc/u8x8_d_s1d15e06.c ****   U8X8_END()             			/* end of sequence */
  59:..\u8g2\csrc/u8x8_d_s1d15e06.c **** };
  60:..\u8g2\csrc/u8x8_d_s1d15e06.c **** 
  61:..\u8g2\csrc/u8x8_d_s1d15e06.c **** static const uint8_t u8x8_d_s1d15e06_flip1_seq[] = {
  62:..\u8g2\csrc/u8x8_d_s1d15e06.c ****   U8X8_START_TRANSFER(),            /* enable chip, delay is part of the transfer start */
  63:..\u8g2\csrc/u8x8_d_s1d15e06.c ****   U8X8_C(0xA7),            			/* LCD Mapping */
  64:..\u8g2\csrc/u8x8_d_s1d15e06.c ****   U8X8_END_TRANSFER(),             	/* disable chip */
  65:..\u8g2\csrc/u8x8_d_s1d15e06.c ****   U8X8_END()             			/* end of sequence */
  66:..\u8g2\csrc/u8x8_d_s1d15e06.c **** };
  67:..\u8g2\csrc/u8x8_d_s1d15e06.c **** 
  68:..\u8g2\csrc/u8x8_d_s1d15e06.c **** uint8_t u8x8_d_s1d15e06_common(u8x8_t *u8x8, uint8_t msg, uint8_t arg_int, void *arg_ptr)
  69:..\u8g2\csrc/u8x8_d_s1d15e06.c **** {
  28              		.loc 1 69 0
  29              		.cfi_startproc
  30              		@ args = 0, pretend = 0, frame = 0
  31              		@ frame_needed = 0, uses_anonymous_args = 0
  32              	.LVL0:
  33 0000 F8B5     		push	{r3, r4, r5, r6, r7, lr}
  34              		.cfi_def_cfa_offset 24
  35              		.cfi_offset 3, -24
  36              		.cfi_offset 4, -20
  37              		.cfi_offset 5, -16
  38              		.cfi_offset 6, -12
  39              		.cfi_offset 7, -8
  40              		.cfi_offset 14, -4
  41 0002 0546     		mov	r5, r0
  42 0004 1446     		mov	r4, r2
  43 0006 1F46     		mov	r7, r3
  70:..\u8g2\csrc/u8x8_d_s1d15e06.c ****   uint8_t x, y, c;
  71:..\u8g2\csrc/u8x8_d_s1d15e06.c ****   uint8_t *ptr;
ARM GAS  C:\Users\brian\AppData\Local\Temp\ccYN07u6.s 			page 3


  72:..\u8g2\csrc/u8x8_d_s1d15e06.c ****   switch(msg)
  44              		.loc 1 72 0
  45 0008 0B39     		subs	r1, r1, #11
  46              	.LVL1:
  47 000a 0429     		cmp	r1, #4
  48 000c 04D8     		bhi	.L2
  49 000e DFE801F0 		tbb	[pc, r1]
  50              	.LVL2:
  51              	.L4:
  52 0012 30       		.byte	(.L3-.L4)/2
  53 0013 03       		.byte	(.L2-.L4)/2
  54 0014 3B       		.byte	(.L5-.L4)/2
  55 0015 4E       		.byte	(.L11-.L4)/2
  56 0016 05       		.byte	(.L7-.L4)/2
  57 0017 00       		.p2align 1
  58              	.L2:
  73:..\u8g2\csrc/u8x8_d_s1d15e06.c ****   {
  74:..\u8g2\csrc/u8x8_d_s1d15e06.c ****     case U8X8_MSG_DISPLAY_DRAW_TILE:
  75:..\u8g2\csrc/u8x8_d_s1d15e06.c ****       u8x8_cad_StartTransfer(u8x8);
  76:..\u8g2\csrc/u8x8_d_s1d15e06.c **** 
  77:..\u8g2\csrc/u8x8_d_s1d15e06.c ****       x = ((u8x8_tile_t *)arg_ptr)->x_pos;
  78:..\u8g2\csrc/u8x8_d_s1d15e06.c ****       x *= 8;
  79:..\u8g2\csrc/u8x8_d_s1d15e06.c **** 
  80:..\u8g2\csrc/u8x8_d_s1d15e06.c **** 	  u8x8_cad_SendCmd(u8x8, 0xB1);	//Page Address - Row
  81:..\u8g2\csrc/u8x8_d_s1d15e06.c **** 	  u8x8_cad_SendArg(u8x8, (((u8x8_tile_t *)arg_ptr)->y_pos));
  82:..\u8g2\csrc/u8x8_d_s1d15e06.c **** 
  83:..\u8g2\csrc/u8x8_d_s1d15e06.c ****       y = ((u8x8_tile_t *)arg_ptr)->y_pos;
  84:..\u8g2\csrc/u8x8_d_s1d15e06.c ****       y += u8x8->x_offset;
  85:..\u8g2\csrc/u8x8_d_s1d15e06.c **** 
  86:..\u8g2\csrc/u8x8_d_s1d15e06.c ****       u8x8_cad_SendCmd(u8x8, 0x13);	/* col */
  87:..\u8g2\csrc/u8x8_d_s1d15e06.c ****       u8x8_cad_SendArg(u8x8, x);
  88:..\u8g2\csrc/u8x8_d_s1d15e06.c **** 
  89:..\u8g2\csrc/u8x8_d_s1d15e06.c **** 	  u8x8_cad_SendCmd(u8x8, 0x1D );	//Data Write
  90:..\u8g2\csrc/u8x8_d_s1d15e06.c **** 
  91:..\u8g2\csrc/u8x8_d_s1d15e06.c ****       c = ((u8x8_tile_t *)arg_ptr)->cnt;
  92:..\u8g2\csrc/u8x8_d_s1d15e06.c ****       c *= 8;
  93:..\u8g2\csrc/u8x8_d_s1d15e06.c ****       ptr = ((u8x8_tile_t *)arg_ptr)->tile_ptr;
  94:..\u8g2\csrc/u8x8_d_s1d15e06.c ****       do
  95:..\u8g2\csrc/u8x8_d_s1d15e06.c ****       {
  96:..\u8g2\csrc/u8x8_d_s1d15e06.c **** 		u8x8_cad_SendData(u8x8, c, ptr);	/* note: SendData can not handle more than 255 bytes */
  97:..\u8g2\csrc/u8x8_d_s1d15e06.c **** 		arg_int--;
  98:..\u8g2\csrc/u8x8_d_s1d15e06.c ****       } while( arg_int > 0 );
  99:..\u8g2\csrc/u8x8_d_s1d15e06.c **** 
 100:..\u8g2\csrc/u8x8_d_s1d15e06.c ****       u8x8_cad_EndTransfer(u8x8);
 101:..\u8g2\csrc/u8x8_d_s1d15e06.c ****       break;
 102:..\u8g2\csrc/u8x8_d_s1d15e06.c ****     /*	handled in the calling procedure 
 103:..\u8g2\csrc/u8x8_d_s1d15e06.c ****     case U8X8_MSG_DISPLAY_SETUP_MEMORY:
 104:..\u8g2\csrc/u8x8_d_s1d15e06.c ****       u8x8_d_helper_display_setup_memory(u8x8, &u8x8_uc1608_128x64_display_info);
 105:..\u8g2\csrc/u8x8_d_s1d15e06.c ****       break;
 106:..\u8g2\csrc/u8x8_d_s1d15e06.c ****     case U8X8_MSG_DISPLAY_INIT:
 107:..\u8g2\csrc/u8x8_d_s1d15e06.c ****       u8x8_d_helper_display_init(u8x8);
 108:..\u8g2\csrc/u8x8_d_s1d15e06.c ****       u8x8_cad_SendSequence(u8x8, u8x8_d_uc1701_dogs102_init_seq);
 109:..\u8g2\csrc/u8x8_d_s1d15e06.c ****       break;
 110:..\u8g2\csrc/u8x8_d_s1d15e06.c ****     */
 111:..\u8g2\csrc/u8x8_d_s1d15e06.c ****     case U8X8_MSG_DISPLAY_SET_POWER_SAVE:
 112:..\u8g2\csrc/u8x8_d_s1d15e06.c ****       if ( arg_int == 0 )
 113:..\u8g2\csrc/u8x8_d_s1d15e06.c **** 	u8x8_cad_SendSequence(u8x8, u8x8_d_s1d15e06_powersave0_seq);
ARM GAS  C:\Users\brian\AppData\Local\Temp\ccYN07u6.s 			page 4


 114:..\u8g2\csrc/u8x8_d_s1d15e06.c ****       else
 115:..\u8g2\csrc/u8x8_d_s1d15e06.c **** 	u8x8_cad_SendSequence(u8x8, u8x8_d_s1d15e06_powersave1_seq);
 116:..\u8g2\csrc/u8x8_d_s1d15e06.c ****       break;
 117:..\u8g2\csrc/u8x8_d_s1d15e06.c ****     case U8X8_MSG_DISPLAY_SET_FLIP_MODE:
 118:..\u8g2\csrc/u8x8_d_s1d15e06.c ****       if ( arg_int == 0 )
 119:..\u8g2\csrc/u8x8_d_s1d15e06.c ****       {
 120:..\u8g2\csrc/u8x8_d_s1d15e06.c **** 	u8x8_cad_SendSequence(u8x8, u8x8_d_s1d15e06_flip0_seq);
 121:..\u8g2\csrc/u8x8_d_s1d15e06.c **** 	u8x8->x_offset = u8x8->display_info->default_x_offset;
 122:..\u8g2\csrc/u8x8_d_s1d15e06.c ****       }
 123:..\u8g2\csrc/u8x8_d_s1d15e06.c ****       else
 124:..\u8g2\csrc/u8x8_d_s1d15e06.c ****       {
 125:..\u8g2\csrc/u8x8_d_s1d15e06.c **** 	u8x8_cad_SendSequence(u8x8, u8x8_d_s1d15e06_flip1_seq);
 126:..\u8g2\csrc/u8x8_d_s1d15e06.c **** 	u8x8->x_offset = u8x8->display_info->flipmode_x_offset;
 127:..\u8g2\csrc/u8x8_d_s1d15e06.c ****       }	
 128:..\u8g2\csrc/u8x8_d_s1d15e06.c ****       break;
 129:..\u8g2\csrc/u8x8_d_s1d15e06.c **** #ifdef U8X8_WITH_SET_CONTRAST
 130:..\u8g2\csrc/u8x8_d_s1d15e06.c ****     case U8X8_MSG_DISPLAY_SET_CONTRAST:
 131:..\u8g2\csrc/u8x8_d_s1d15e06.c ****       break;
 132:..\u8g2\csrc/u8x8_d_s1d15e06.c **** #endif
 133:..\u8g2\csrc/u8x8_d_s1d15e06.c ****     default:
 134:..\u8g2\csrc/u8x8_d_s1d15e06.c ****       return 0;
  59              		.loc 1 134 0
  60 0018 0020     		movs	r0, #0
  61              	.LVL3:
  62 001a F8BD     		pop	{r3, r4, r5, r6, r7, pc}
  63              	.LVL4:
  64              	.L7:
  75:..\u8g2\csrc/u8x8_d_s1d15e06.c **** 
  65              		.loc 1 75 0
  66 001c FFF7FEFF 		bl	u8x8_cad_StartTransfer
  67              	.LVL5:
  77:..\u8g2\csrc/u8x8_d_s1d15e06.c ****       x *= 8;
  68              		.loc 1 77 0
  69 0020 7E79     		ldrb	r6, [r7, #5]	@ zero_extendqisi2
  70              	.LVL6:
  78:..\u8g2\csrc/u8x8_d_s1d15e06.c **** 
  71              		.loc 1 78 0
  72 0022 F600     		lsls	r6, r6, #3
  73              	.LVL7:
  74 0024 F6B2     		uxtb	r6, r6
  75              	.LVL8:
  80:..\u8g2\csrc/u8x8_d_s1d15e06.c **** 	  u8x8_cad_SendArg(u8x8, (((u8x8_tile_t *)arg_ptr)->y_pos));
  76              		.loc 1 80 0
  77 0026 B121     		movs	r1, #177
  78 0028 2846     		mov	r0, r5
  79 002a FFF7FEFF 		bl	u8x8_cad_SendCmd
  80              	.LVL9:
  81:..\u8g2\csrc/u8x8_d_s1d15e06.c **** 
  81              		.loc 1 81 0
  82 002e B979     		ldrb	r1, [r7, #6]	@ zero_extendqisi2
  83 0030 2846     		mov	r0, r5
  84 0032 FFF7FEFF 		bl	u8x8_cad_SendArg
  85              	.LVL10:
  86:..\u8g2\csrc/u8x8_d_s1d15e06.c ****       u8x8_cad_SendArg(u8x8, x);
  86              		.loc 1 86 0
  87 0036 1321     		movs	r1, #19
  88 0038 2846     		mov	r0, r5
ARM GAS  C:\Users\brian\AppData\Local\Temp\ccYN07u6.s 			page 5


  89 003a FFF7FEFF 		bl	u8x8_cad_SendCmd
  90              	.LVL11:
  87:..\u8g2\csrc/u8x8_d_s1d15e06.c **** 
  91              		.loc 1 87 0
  92 003e 3146     		mov	r1, r6
  93 0040 2846     		mov	r0, r5
  94 0042 FFF7FEFF 		bl	u8x8_cad_SendArg
  95              	.LVL12:
  89:..\u8g2\csrc/u8x8_d_s1d15e06.c **** 
  96              		.loc 1 89 0
  97 0046 1D21     		movs	r1, #29
  98 0048 2846     		mov	r0, r5
  99 004a FFF7FEFF 		bl	u8x8_cad_SendCmd
 100              	.LVL13:
  91:..\u8g2\csrc/u8x8_d_s1d15e06.c ****       c *= 8;
 101              		.loc 1 91 0
 102 004e 3E79     		ldrb	r6, [r7, #4]	@ zero_extendqisi2
 103              	.LVL14:
  92:..\u8g2\csrc/u8x8_d_s1d15e06.c ****       ptr = ((u8x8_tile_t *)arg_ptr)->tile_ptr;
 104              		.loc 1 92 0
 105 0050 F600     		lsls	r6, r6, #3
 106              	.LVL15:
 107 0052 F6B2     		uxtb	r6, r6
 108              	.LVL16:
  93:..\u8g2\csrc/u8x8_d_s1d15e06.c ****       do
 109              		.loc 1 93 0
 110 0054 3F68     		ldr	r7, [r7]
 111              	.LVL17:
 112              	.L8:
  96:..\u8g2\csrc/u8x8_d_s1d15e06.c **** 		arg_int--;
 113              		.loc 1 96 0 discriminator 1
 114 0056 3A46     		mov	r2, r7
 115 0058 3146     		mov	r1, r6
 116 005a 2846     		mov	r0, r5
 117 005c FFF7FEFF 		bl	u8x8_cad_SendData
 118              	.LVL18:
  97:..\u8g2\csrc/u8x8_d_s1d15e06.c ****       } while( arg_int > 0 );
 119              		.loc 1 97 0 discriminator 1
 120 0060 621E     		subs	r2, r4, #1
 121              	.LVL19:
  98:..\u8g2\csrc/u8x8_d_s1d15e06.c **** 
 122              		.loc 1 98 0 discriminator 1
 123 0062 12F0FF04 		ands	r4, r2, #255
 124 0066 F6D1     		bne	.L8
 100:..\u8g2\csrc/u8x8_d_s1d15e06.c ****       break;
 125              		.loc 1 100 0
 126 0068 2846     		mov	r0, r5
 127 006a FFF7FEFF 		bl	u8x8_cad_EndTransfer
 128              	.LVL20:
 135:..\u8g2\csrc/u8x8_d_s1d15e06.c ****   }
 136:..\u8g2\csrc/u8x8_d_s1d15e06.c ****   return 1;
 129              		.loc 1 136 0
 130 006e 0120     		movs	r0, #1
 101:..\u8g2\csrc/u8x8_d_s1d15e06.c ****     /*	handled in the calling procedure 
 131              		.loc 1 101 0
 132 0070 F8BD     		pop	{r3, r4, r5, r6, r7, pc}
 133              	.LVL21:
ARM GAS  C:\Users\brian\AppData\Local\Temp\ccYN07u6.s 			page 6


 134              	.L3:
 112:..\u8g2\csrc/u8x8_d_s1d15e06.c **** 	u8x8_cad_SendSequence(u8x8, u8x8_d_s1d15e06_powersave0_seq);
 135              		.loc 1 112 0
 136 0072 22B9     		cbnz	r2, .L9
 113:..\u8g2\csrc/u8x8_d_s1d15e06.c ****       else
 137              		.loc 1 113 0
 138 0074 0F49     		ldr	r1, .L13
 139 0076 FFF7FEFF 		bl	u8x8_cad_SendSequence
 140              	.LVL22:
 141              		.loc 1 136 0
 142 007a 0120     		movs	r0, #1
 143 007c F8BD     		pop	{r3, r4, r5, r6, r7, pc}
 144              	.LVL23:
 145              	.L9:
 115:..\u8g2\csrc/u8x8_d_s1d15e06.c ****       break;
 146              		.loc 1 115 0
 147 007e 0E49     		ldr	r1, .L13+4
 148 0080 FFF7FEFF 		bl	u8x8_cad_SendSequence
 149              	.LVL24:
 150              		.loc 1 136 0
 151 0084 0120     		movs	r0, #1
 152 0086 F8BD     		pop	{r3, r4, r5, r6, r7, pc}
 153              	.LVL25:
 154              	.L5:
 118:..\u8g2\csrc/u8x8_d_s1d15e06.c ****       {
 155              		.loc 1 118 0
 156 0088 42B9     		cbnz	r2, .L10
 120:..\u8g2\csrc/u8x8_d_s1d15e06.c **** 	u8x8->x_offset = u8x8->display_info->default_x_offset;
 157              		.loc 1 120 0
 158 008a 0C49     		ldr	r1, .L13+8
 159 008c FFF7FEFF 		bl	u8x8_cad_SendSequence
 160              	.LVL26:
 121:..\u8g2\csrc/u8x8_d_s1d15e06.c ****       }
 161              		.loc 1 121 0
 162 0090 2B68     		ldr	r3, [r5]
 163 0092 9B7C     		ldrb	r3, [r3, #18]	@ zero_extendqisi2
 164 0094 85F82230 		strb	r3, [r5, #34]
 165              		.loc 1 136 0
 166 0098 0120     		movs	r0, #1
 167 009a F8BD     		pop	{r3, r4, r5, r6, r7, pc}
 168              	.LVL27:
 169              	.L10:
 125:..\u8g2\csrc/u8x8_d_s1d15e06.c **** 	u8x8->x_offset = u8x8->display_info->flipmode_x_offset;
 170              		.loc 1 125 0
 171 009c 0849     		ldr	r1, .L13+12
 172 009e FFF7FEFF 		bl	u8x8_cad_SendSequence
 173              	.LVL28:
 126:..\u8g2\csrc/u8x8_d_s1d15e06.c ****       }	
 174              		.loc 1 126 0
 175 00a2 2B68     		ldr	r3, [r5]
 176 00a4 DB7C     		ldrb	r3, [r3, #19]	@ zero_extendqisi2
 177 00a6 85F82230 		strb	r3, [r5, #34]
 178              		.loc 1 136 0
 179 00aa 0120     		movs	r0, #1
 180 00ac F8BD     		pop	{r3, r4, r5, r6, r7, pc}
 181              	.LVL29:
 182              	.L11:
ARM GAS  C:\Users\brian\AppData\Local\Temp\ccYN07u6.s 			page 7


 183 00ae 0120     		movs	r0, #1
 184              	.LVL30:
 137:..\u8g2\csrc/u8x8_d_s1d15e06.c **** }
 185              		.loc 1 137 0
 186 00b0 F8BD     		pop	{r3, r4, r5, r6, r7, pc}
 187              	.LVL31:
 188              	.L14:
 189 00b2 00BF     		.align	2
 190              	.L13:
 191 00b4 00000000 		.word	.LANCHOR0
 192 00b8 08000000 		.word	.LANCHOR0+8
 193 00bc 10000000 		.word	.LANCHOR0+16
 194 00c0 18000000 		.word	.LANCHOR0+24
 195              		.cfi_endproc
 196              	.LFE0:
 197              		.size	u8x8_d_s1d15e06_common, .-u8x8_d_s1d15e06_common
 198              		.section	.text.u8x8_d_s1d15e06_160100,"ax",%progbits
 199              		.align	2
 200              		.global	u8x8_d_s1d15e06_160100
 201              		.thumb
 202              		.thumb_func
 203              		.type	u8x8_d_s1d15e06_160100, %function
 204              	u8x8_d_s1d15e06_160100:
 205              	.LFB1:
 138:..\u8g2\csrc/u8x8_d_s1d15e06.c **** 
 139:..\u8g2\csrc/u8x8_d_s1d15e06.c **** /*================================================*/
 140:..\u8g2\csrc/u8x8_d_s1d15e06.c **** /* s1d15e06 160x100 */
 141:..\u8g2\csrc/u8x8_d_s1d15e06.c **** 
 142:..\u8g2\csrc/u8x8_d_s1d15e06.c **** 
 143:..\u8g2\csrc/u8x8_d_s1d15e06.c **** static const u8x8_display_info_t u8x8_s1d15e06_160100_display_info =
 144:..\u8g2\csrc/u8x8_d_s1d15e06.c **** {
 145:..\u8g2\csrc/u8x8_d_s1d15e06.c ****   /* chip_enable_level = */ 0,	/* s1d15e06 has low active CS */
 146:..\u8g2\csrc/u8x8_d_s1d15e06.c ****   /* chip_disable_level = */ 1,
 147:..\u8g2\csrc/u8x8_d_s1d15e06.c **** 
 148:..\u8g2\csrc/u8x8_d_s1d15e06.c ****   /* post_chip_enable_wait_ns = */ 10,	/* uc1608 datasheet, page 39, actually 0 */
 149:..\u8g2\csrc/u8x8_d_s1d15e06.c ****   /* pre_chip_disable_wait_ns = */ 20,	/* uc1608 datasheet, page 39 */
 150:..\u8g2\csrc/u8x8_d_s1d15e06.c ****   /* reset_pulse_width_ms = */ 1, 	/* uc1608 datasheet, page 42 */
 151:..\u8g2\csrc/u8x8_d_s1d15e06.c ****   /* post_reset_wait_ms = */ 10, 	
 152:..\u8g2\csrc/u8x8_d_s1d15e06.c ****   /* sda_setup_time_ns = */ 30,		/* uc1608 datasheet, page 41 */
 153:..\u8g2\csrc/u8x8_d_s1d15e06.c ****   /* sck_pulse_width_ns = */ 65,	/* half of cycle time  */
 154:..\u8g2\csrc/u8x8_d_s1d15e06.c ****   /* sck_clock_hz = */ 8000000UL,	/* since Arduino 1.6.0, the SPI bus speed in Hz. Should be  10000
 155:..\u8g2\csrc/u8x8_d_s1d15e06.c ****   /* spi_mode = */ 0,		/* active high, rising edge */
 156:..\u8g2\csrc/u8x8_d_s1d15e06.c ****   /* i2c_bus_clock_100kHz = */ 4,
 157:..\u8g2\csrc/u8x8_d_s1d15e06.c ****   /* data_setup_time_ns = */ 30,	/* uc1608 datasheet, page 39 */
 158:..\u8g2\csrc/u8x8_d_s1d15e06.c ****   /* write_pulse_width_ns = */ 65,	/* uc1608 datasheet, page 39 */
 159:..\u8g2\csrc/u8x8_d_s1d15e06.c ****   /* tile_width = */ 20,		/* width of 20*8=160 pixel */
 160:..\u8g2\csrc/u8x8_d_s1d15e06.c ****   /* tile_hight = */ 13,
 161:..\u8g2\csrc/u8x8_d_s1d15e06.c ****   /* default_x_offset = */ 0,	/* reused as y page offset */
 162:..\u8g2\csrc/u8x8_d_s1d15e06.c ****   /* flipmode_x_offset = */ 0,	/* reused as y page offset */
 163:..\u8g2\csrc/u8x8_d_s1d15e06.c ****   /* pixel_width = */ 160,
 164:..\u8g2\csrc/u8x8_d_s1d15e06.c ****   /* pixel_height = */ 100
 165:..\u8g2\csrc/u8x8_d_s1d15e06.c **** };
 166:..\u8g2\csrc/u8x8_d_s1d15e06.c **** 
 167:..\u8g2\csrc/u8x8_d_s1d15e06.c **** static const uint8_t u8x8_d_s1d15e06_160100_init_seq[] = {
 168:..\u8g2\csrc/u8x8_d_s1d15e06.c **** 
 169:..\u8g2\csrc/u8x8_d_s1d15e06.c ****   U8X8_START_TRANSFER(),           	/* enable chip, delay is part of the transfer start */
 170:..\u8g2\csrc/u8x8_d_s1d15e06.c **** 
ARM GAS  C:\Users\brian\AppData\Local\Temp\ccYN07u6.s 			page 8


 171:..\u8g2\csrc/u8x8_d_s1d15e06.c **** 									/* (Command no in datasheet) Description */
 172:..\u8g2\csrc/u8x8_d_s1d15e06.c ****   U8X8_C(0xA0|1),           		/* (12) Column Address Direction (Reverse) */
 173:..\u8g2\csrc/u8x8_d_s1d15e06.c **** 
 174:..\u8g2\csrc/u8x8_d_s1d15e06.c ****   U8X8_C(0xC4|1),       	    	/* (5) Common Output Status (Reverse) */
 175:..\u8g2\csrc/u8x8_d_s1d15e06.c ****   U8X8_C(0x84),            			/* (11) Display Data In. Direction (Normal) */
 176:..\u8g2\csrc/u8x8_d_s1d15e06.c **** 
 177:..\u8g2\csrc/u8x8_d_s1d15e06.c ****   U8X8_C(0xA6),            			/* (3) Display Normal Reverse (Normal) */
 178:..\u8g2\csrc/u8x8_d_s1d15e06.c ****   U8X8_C(0xA4), 	           		/* (4) Display All Light (Normal) */
 179:..\u8g2\csrc/u8x8_d_s1d15e06.c **** 
 180:..\u8g2\csrc/u8x8_d_s1d15e06.c **** 
 181:..\u8g2\csrc/u8x8_d_s1d15e06.c ****   U8X8_CAA(0x6D,0x18,0x04), 		/* (18) Duty Set Command, 
 182:..\u8g2\csrc/u8x8_d_s1d15e06.c **** 										Parameter "Duty Set" 1/96 ,
 183:..\u8g2\csrc/u8x8_d_s1d15e06.c **** 										Parameter "Start Point Set" */
 184:..\u8g2\csrc/u8x8_d_s1d15e06.c **** 
 185:..\u8g2\csrc/u8x8_d_s1d15e06.c ****   U8X8_CA(0x66, 0x01),           	/* (15) Display Mode, Parameter 0 (4 Gray Scale) 1 (Binary) */
 186:..\u8g2\csrc/u8x8_d_s1d15e06.c ****   U8X8_CA(0x39, 0x43),            	/* (16) Gray Scale Pattern Set, Pattern */
 187:..\u8g2\csrc/u8x8_d_s1d15e06.c ****   U8X8_C(0xBE|1),          	  		/* (2) Display Off Mode (0 VSS / 1 Vcc) */
 188:..\u8g2\csrc/u8x8_d_s1d15e06.c **** 
 189:..\u8g2\csrc/u8x8_d_s1d15e06.c ****   U8X8_CA(0x2B, 0x03),				/* (27) LCD Drive Mode Voltage Select, Parameter */
 190:..\u8g2\csrc/u8x8_d_s1d15e06.c **** 
 191:..\u8g2\csrc/u8x8_d_s1d15e06.c ****   U8X8_CA(0x81, 0x32),		        /* (28) Electronic Volume, Parameter */
 192:..\u8g2\csrc/u8x8_d_s1d15e06.c ****   U8X8_C(0xE4|1),			        /* (14) N-Line On Off (On) */  
 193:..\u8g2\csrc/u8x8_d_s1d15e06.c ****   U8X8_CA(0x36, 0x05),		        /* (13) N-Line Inversion Drive, Parameter (6x4)  */
 194:..\u8g2\csrc/u8x8_d_s1d15e06.c **** 
 195:..\u8g2\csrc/u8x8_d_s1d15e06.c ****   U8X8_CA(0x41, 0x03),		        /* (13) (26) Step-up CK Frequency Select, fosc/8  */
 196:..\u8g2\csrc/u8x8_d_s1d15e06.c ****   U8X8_CA(0x5F, 0x04),		        /* (24) Built-in Oscillator Frequency, Parameter  */
 197:..\u8g2\csrc/u8x8_d_s1d15e06.c ****   U8X8_C(0xAA|1),			        /* (23) Built-in OSC On */  
 198:..\u8g2\csrc/u8x8_d_s1d15e06.c **** 
 199:..\u8g2\csrc/u8x8_d_s1d15e06.c ****   U8X8_CA(0x25, 0x1F),		        /* (25) Power Control Set, Parameter  */
 200:..\u8g2\csrc/u8x8_d_s1d15e06.c **** 
 201:..\u8g2\csrc/u8x8_d_s1d15e06.c ****   U8X8_CA(0x8A, 0x00),		        /* (6) Start Line Setup, Parameter  */
 202:..\u8g2\csrc/u8x8_d_s1d15e06.c ****   U8X8_CA(0xB1, 0x00),		        /* (7) Page Address Set, Parameter  */
 203:..\u8g2\csrc/u8x8_d_s1d15e06.c ****   U8X8_CA(0x13, 0x00),		        /* (8) Column Address Set  */
 204:..\u8g2\csrc/u8x8_d_s1d15e06.c **** 
 205:..\u8g2\csrc/u8x8_d_s1d15e06.c ****   U8X8_C(0xAE|1),			        /* (1) Display ON/OFF */  
 206:..\u8g2\csrc/u8x8_d_s1d15e06.c **** 
 207:..\u8g2\csrc/u8x8_d_s1d15e06.c ****   U8X8_END_TRANSFER(),             	/* disable chip */
 208:..\u8g2\csrc/u8x8_d_s1d15e06.c ****   U8X8_END()             			/* end of sequence */
 209:..\u8g2\csrc/u8x8_d_s1d15e06.c **** };
 210:..\u8g2\csrc/u8x8_d_s1d15e06.c **** 
 211:..\u8g2\csrc/u8x8_d_s1d15e06.c **** uint8_t u8x8_d_s1d15e06_160100(u8x8_t *u8x8, uint8_t msg, uint8_t arg_int, void *arg_ptr)
 212:..\u8g2\csrc/u8x8_d_s1d15e06.c **** {
 206              		.loc 1 212 0
 207              		.cfi_startproc
 208              		@ args = 0, pretend = 0, frame = 0
 209              		@ frame_needed = 0, uses_anonymous_args = 0
 210              	.LVL32:
 211 0000 38B5     		push	{r3, r4, r5, lr}
 212              		.cfi_def_cfa_offset 16
 213              		.cfi_offset 3, -16
 214              		.cfi_offset 4, -12
 215              		.cfi_offset 5, -8
 216              		.cfi_offset 14, -4
 217 0002 0446     		mov	r4, r0
 213:..\u8g2\csrc/u8x8_d_s1d15e06.c **** 
 214:..\u8g2\csrc/u8x8_d_s1d15e06.c ****   /* checking for the flip mode cmd first */
 215:..\u8g2\csrc/u8x8_d_s1d15e06.c ****   if ( msg == U8X8_MSG_DISPLAY_SET_FLIP_MODE )
ARM GAS  C:\Users\brian\AppData\Local\Temp\ccYN07u6.s 			page 9


 218              		.loc 1 215 0
 219 0004 0D29     		cmp	r1, #13
 220 0006 12D1     		bne	.L16
 216:..\u8g2\csrc/u8x8_d_s1d15e06.c ****   {
 217:..\u8g2\csrc/u8x8_d_s1d15e06.c ****       if ( arg_int == 0 )
 221              		.loc 1 217 0
 222 0008 42B9     		cbnz	r2, .L17
 218:..\u8g2\csrc/u8x8_d_s1d15e06.c ****       {
 219:..\u8g2\csrc/u8x8_d_s1d15e06.c **** 	u8x8_cad_SendSequence(u8x8, u8x8_d_s1d15e06_flip0_seq);
 223              		.loc 1 219 0
 224 000a 1749     		ldr	r1, .L23
 225              	.LVL33:
 226 000c FFF7FEFF 		bl	u8x8_cad_SendSequence
 227              	.LVL34:
 220:..\u8g2\csrc/u8x8_d_s1d15e06.c **** 	u8x8->x_offset = u8x8->display_info->default_x_offset;
 228              		.loc 1 220 0
 229 0010 2368     		ldr	r3, [r4]
 230 0012 9B7C     		ldrb	r3, [r3, #18]	@ zero_extendqisi2
 231 0014 84F82230 		strb	r3, [r4, #34]
 221:..\u8g2\csrc/u8x8_d_s1d15e06.c ****       }
 222:..\u8g2\csrc/u8x8_d_s1d15e06.c ****       else
 223:..\u8g2\csrc/u8x8_d_s1d15e06.c ****       {
 224:..\u8g2\csrc/u8x8_d_s1d15e06.c **** 	u8x8_cad_SendSequence(u8x8, u8x8_d_s1d15e06_flip1_seq);
 225:..\u8g2\csrc/u8x8_d_s1d15e06.c **** 	u8x8->x_offset = u8x8->display_info->flipmode_x_offset;
 226:..\u8g2\csrc/u8x8_d_s1d15e06.c ****       }	
 227:..\u8g2\csrc/u8x8_d_s1d15e06.c ****       return 1;
 232              		.loc 1 227 0
 233 0018 0123     		movs	r3, #1
 234 001a 22E0     		b	.L18
 235              	.LVL35:
 236              	.L17:
 224:..\u8g2\csrc/u8x8_d_s1d15e06.c **** 	u8x8->x_offset = u8x8->display_info->flipmode_x_offset;
 237              		.loc 1 224 0
 238 001c 1349     		ldr	r1, .L23+4
 239              	.LVL36:
 240 001e FFF7FEFF 		bl	u8x8_cad_SendSequence
 241              	.LVL37:
 225:..\u8g2\csrc/u8x8_d_s1d15e06.c ****       }	
 242              		.loc 1 225 0
 243 0022 2368     		ldr	r3, [r4]
 244 0024 DB7C     		ldrb	r3, [r3, #19]	@ zero_extendqisi2
 245 0026 84F82230 		strb	r3, [r4, #34]
 246              		.loc 1 227 0
 247 002a 0123     		movs	r3, #1
 248 002c 19E0     		b	.L18
 249              	.LVL38:
 250              	.L16:
 251 002e 0D46     		mov	r5, r1
 228:..\u8g2\csrc/u8x8_d_s1d15e06.c ****   }
 229:..\u8g2\csrc/u8x8_d_s1d15e06.c ****   /* call the common procedure, this now leads to the effect, that the flip code is executed again 
 230:..\u8g2\csrc/u8x8_d_s1d15e06.c ****   /* maybe we should paste the common code here to avoid this */
 231:..\u8g2\csrc/u8x8_d_s1d15e06.c **** 
 232:..\u8g2\csrc/u8x8_d_s1d15e06.c **** 
 233:..\u8g2\csrc/u8x8_d_s1d15e06.c ****   if ( u8x8_d_s1d15e06_common(u8x8, msg, arg_int, arg_ptr) == 0 )
 252              		.loc 1 233 0
 253 0030 FFF7FEFF 		bl	u8x8_d_s1d15e06_common
 254              	.LVL39:
ARM GAS  C:\Users\brian\AppData\Local\Temp\ccYN07u6.s 			page 10


 255 0034 0346     		mov	r3, r0
 256 0036 98B9     		cbnz	r0, .L21
 234:..\u8g2\csrc/u8x8_d_s1d15e06.c ****   {
 235:..\u8g2\csrc/u8x8_d_s1d15e06.c ****     /* msg not handled, then try here */
 236:..\u8g2\csrc/u8x8_d_s1d15e06.c ****     switch(msg)
 257              		.loc 1 236 0
 258 0038 092D     		cmp	r5, #9
 259 003a 02D0     		beq	.L19
 260 003c 0A2D     		cmp	r5, #10
 261 003e 06D0     		beq	.L20
 262 0040 0FE0     		b	.L18
 263              	.L19:
 237:..\u8g2\csrc/u8x8_d_s1d15e06.c ****     {
 238:..\u8g2\csrc/u8x8_d_s1d15e06.c ****       case U8X8_MSG_DISPLAY_SETUP_MEMORY:
 239:..\u8g2\csrc/u8x8_d_s1d15e06.c **** 	u8x8_d_helper_display_setup_memory(u8x8, &u8x8_s1d15e06_160100_display_info);
 264              		.loc 1 239 0
 265 0042 0B49     		ldr	r1, .L23+8
 266 0044 2046     		mov	r0, r4
 267 0046 FFF7FEFF 		bl	u8x8_d_helper_display_setup_memory
 268              	.LVL40:
 240:..\u8g2\csrc/u8x8_d_s1d15e06.c **** 	break;
 241:..\u8g2\csrc/u8x8_d_s1d15e06.c ****       case U8X8_MSG_DISPLAY_INIT:
 242:..\u8g2\csrc/u8x8_d_s1d15e06.c **** 	u8x8_d_helper_display_init(u8x8);
 243:..\u8g2\csrc/u8x8_d_s1d15e06.c **** 	u8x8_cad_SendSequence(u8x8, u8x8_d_s1d15e06_160100_init_seq);
 244:..\u8g2\csrc/u8x8_d_s1d15e06.c **** 	break;
 245:..\u8g2\csrc/u8x8_d_s1d15e06.c ****       default:
 246:..\u8g2\csrc/u8x8_d_s1d15e06.c **** 	return 0;		/* msg unknown */
 247:..\u8g2\csrc/u8x8_d_s1d15e06.c ****     }
 248:..\u8g2\csrc/u8x8_d_s1d15e06.c ****   }
 249:..\u8g2\csrc/u8x8_d_s1d15e06.c ****   return 1;
 269              		.loc 1 249 0
 270 004a 0123     		movs	r3, #1
 240:..\u8g2\csrc/u8x8_d_s1d15e06.c **** 	break;
 271              		.loc 1 240 0
 272 004c 09E0     		b	.L18
 273              	.L20:
 242:..\u8g2\csrc/u8x8_d_s1d15e06.c **** 	u8x8_cad_SendSequence(u8x8, u8x8_d_s1d15e06_160100_init_seq);
 274              		.loc 1 242 0
 275 004e 2046     		mov	r0, r4
 276 0050 FFF7FEFF 		bl	u8x8_d_helper_display_init
 277              	.LVL41:
 243:..\u8g2\csrc/u8x8_d_s1d15e06.c **** 	break;
 278              		.loc 1 243 0
 279 0054 0749     		ldr	r1, .L23+12
 280 0056 2046     		mov	r0, r4
 281 0058 FFF7FEFF 		bl	u8x8_cad_SendSequence
 282              	.LVL42:
 283              		.loc 1 249 0
 284 005c 0123     		movs	r3, #1
 244:..\u8g2\csrc/u8x8_d_s1d15e06.c ****       default:
 285              		.loc 1 244 0
 286 005e 00E0     		b	.L18
 287              	.L21:
 288              		.loc 1 249 0
 289 0060 0123     		movs	r3, #1
 290              	.L18:
 250:..\u8g2\csrc/u8x8_d_s1d15e06.c **** }
ARM GAS  C:\Users\brian\AppData\Local\Temp\ccYN07u6.s 			page 11


 291              		.loc 1 250 0
 292 0062 1846     		mov	r0, r3
 293 0064 38BD     		pop	{r3, r4, r5, pc}
 294              	.LVL43:
 295              	.L24:
 296 0066 00BF     		.align	2
 297              	.L23:
 298 0068 10000000 		.word	.LANCHOR0+16
 299 006c 18000000 		.word	.LANCHOR0+24
 300 0070 20000000 		.word	.LANCHOR0+32
 301 0074 38000000 		.word	.LANCHOR0+56
 302              		.cfi_endproc
 303              	.LFE1:
 304              		.size	u8x8_d_s1d15e06_160100, .-u8x8_d_s1d15e06_160100
 305              		.section	.rodata
 306              		.align	2
 307              		.set	.LANCHOR0,. + 0
 308              		.type	u8x8_d_s1d15e06_powersave0_seq, %object
 309              		.size	u8x8_d_s1d15e06_powersave0_seq, 5
 310              	u8x8_d_s1d15e06_powersave0_seq:
 311 0000 18       		.byte	24
 312 0001 15       		.byte	21
 313 0002 A8       		.byte	-88
 314 0003 19       		.byte	25
 315 0004 FF       		.byte	-1
 316 0005 000000   		.space	3
 317              		.type	u8x8_d_s1d15e06_powersave1_seq, %object
 318              		.size	u8x8_d_s1d15e06_powersave1_seq, 5
 319              	u8x8_d_s1d15e06_powersave1_seq:
 320 0008 18       		.byte	24
 321 0009 15       		.byte	21
 322 000a A9       		.byte	-87
 323 000b 19       		.byte	25
 324 000c FF       		.byte	-1
 325 000d 000000   		.space	3
 326              		.type	u8x8_d_s1d15e06_flip0_seq, %object
 327              		.size	u8x8_d_s1d15e06_flip0_seq, 5
 328              	u8x8_d_s1d15e06_flip0_seq:
 329 0010 18       		.byte	24
 330 0011 15       		.byte	21
 331 0012 A6       		.byte	-90
 332 0013 19       		.byte	25
 333 0014 FF       		.byte	-1
 334 0015 000000   		.space	3
 335              		.type	u8x8_d_s1d15e06_flip1_seq, %object
 336              		.size	u8x8_d_s1d15e06_flip1_seq, 5
 337              	u8x8_d_s1d15e06_flip1_seq:
 338 0018 18       		.byte	24
 339 0019 15       		.byte	21
 340 001a A7       		.byte	-89
 341 001b 19       		.byte	25
 342 001c FF       		.byte	-1
 343 001d 000000   		.space	3
 344              		.type	u8x8_s1d15e06_160100_display_info, %object
 345              		.size	u8x8_s1d15e06_160100_display_info, 24
 346              	u8x8_s1d15e06_160100_display_info:
 347 0020 00       		.byte	0
ARM GAS  C:\Users\brian\AppData\Local\Temp\ccYN07u6.s 			page 12


 348 0021 01       		.byte	1
 349 0022 0A       		.byte	10
 350 0023 14       		.byte	20
 351 0024 01       		.byte	1
 352 0025 0A       		.byte	10
 353 0026 1E       		.byte	30
 354 0027 41       		.byte	65
 355 0028 00127A00 		.word	8000000
 356 002c 00       		.byte	0
 357 002d 04       		.byte	4
 358 002e 1E       		.byte	30
 359 002f 41       		.byte	65
 360 0030 14       		.byte	20
 361 0031 0D       		.byte	13
 362 0032 00       		.byte	0
 363 0033 00       		.byte	0
 364 0034 A000     		.short	160
 365 0036 6400     		.short	100
 366              		.type	u8x8_d_s1d15e06_160100_init_seq, %object
 367              		.size	u8x8_d_s1d15e06_160100_init_seq, 71
 368              	u8x8_d_s1d15e06_160100_init_seq:
 369 0038 18       		.byte	24
 370 0039 15       		.byte	21
 371 003a A1       		.byte	-95
 372 003b 15       		.byte	21
 373 003c C5       		.byte	-59
 374 003d 15       		.byte	21
 375 003e 84       		.byte	-124
 376 003f 15       		.byte	21
 377 0040 A6       		.byte	-90
 378 0041 15       		.byte	21
 379 0042 A4       		.byte	-92
 380 0043 15       		.byte	21
 381 0044 6D       		.byte	109
 382 0045 16       		.byte	22
 383 0046 18       		.byte	24
 384 0047 16       		.byte	22
 385 0048 04       		.byte	4
 386 0049 15       		.byte	21
 387 004a 66       		.byte	102
 388 004b 16       		.byte	22
 389 004c 01       		.byte	1
 390 004d 15       		.byte	21
 391 004e 39       		.byte	57
 392 004f 16       		.byte	22
 393 0050 43       		.byte	67
 394 0051 15       		.byte	21
 395 0052 BF       		.byte	-65
 396 0053 15       		.byte	21
 397 0054 2B       		.byte	43
 398 0055 16       		.byte	22
 399 0056 03       		.byte	3
 400 0057 15       		.byte	21
 401 0058 81       		.byte	-127
 402 0059 16       		.byte	22
 403 005a 32       		.byte	50
 404 005b 15       		.byte	21
ARM GAS  C:\Users\brian\AppData\Local\Temp\ccYN07u6.s 			page 13


 405 005c E5       		.byte	-27
 406 005d 15       		.byte	21
 407 005e 36       		.byte	54
 408 005f 16       		.byte	22
 409 0060 05       		.byte	5
 410 0061 15       		.byte	21
 411 0062 41       		.byte	65
 412 0063 16       		.byte	22
 413 0064 03       		.byte	3
 414 0065 15       		.byte	21
 415 0066 5F       		.byte	95
 416 0067 16       		.byte	22
 417 0068 04       		.byte	4
 418 0069 15       		.byte	21
 419 006a AB       		.byte	-85
 420 006b 15       		.byte	21
 421 006c 25       		.byte	37
 422 006d 16       		.byte	22
 423 006e 1F       		.byte	31
 424 006f 15       		.byte	21
 425 0070 8A       		.byte	-118
 426 0071 16       		.byte	22
 427 0072 00       		.byte	0
 428 0073 15       		.byte	21
 429 0074 B1       		.byte	-79
 430 0075 16       		.byte	22
 431 0076 00       		.byte	0
 432 0077 15       		.byte	21
 433 0078 13       		.byte	19
 434 0079 16       		.byte	22
 435 007a 00       		.byte	0
 436 007b 15       		.byte	21
 437 007c AF       		.byte	-81
 438 007d 19       		.byte	25
 439 007e FF       		.byte	-1
 440              		.text
 441              	.Letext0:
 442              		.file 2 "c:\\program files (x86)\\cypress\\psoc creator\\4.4\\psoc creator\\import\\gnu\\arm\\5.4.
 443              		.file 3 "c:\\program files (x86)\\cypress\\psoc creator\\4.4\\psoc creator\\import\\gnu\\arm\\5.4.
 444              		.file 4 "..\\u8g2\\csrc\\u8x8.h"