ARM GAS  C:\Users\brian\AppData\Local\Temp\cc59emSn.s 			page 1


   1              		.syntax unified
   2              		.cpu cortex-m3
   3              		.fpu softvfp
   4              		.eabi_attribute 20, 1
   5              		.eabi_attribute 21, 1
   6              		.eabi_attribute 23, 3
   7              		.eabi_attribute 24, 1
   8              		.eabi_attribute 25, 1
   9              		.eabi_attribute 26, 1
  10              		.eabi_attribute 30, 1
  11              		.eabi_attribute 34, 1
  12              		.eabi_attribute 18, 4
  13              		.thumb
  14              		.syntax unified
  15              		.file	"u8x8_d_ssd1326.c"
  16              		.text
  17              	.Ltext0:
  18              		.cfi_sections	.debug_frame
  19              		.section	.text.u8x8_ssd1326_8to32,"ax",%progbits
  20              		.align	2
  21              		.thumb
  22              		.thumb_func
  23              		.type	u8x8_ssd1326_8to32, %function
  24              	u8x8_ssd1326_8to32:
  25              	.LFB0:
  26              		.file 1 "..\\u8g2\\csrc\\u8x8_d_ssd1326.c"
   1:..\u8g2\csrc/u8x8_d_ssd1326.c **** /*
   2:..\u8g2\csrc/u8x8_d_ssd1326.c **** 
   3:..\u8g2\csrc/u8x8_d_ssd1326.c ****   u8x8_d_ssd1326.c
   4:..\u8g2\csrc/u8x8_d_ssd1326.c **** 
   5:..\u8g2\csrc/u8x8_d_ssd1326.c ****   Universal 8bit Graphics Library (https://github.com/olikraus/u8g2/)
   6:..\u8g2\csrc/u8x8_d_ssd1326.c **** 
   7:..\u8g2\csrc/u8x8_d_ssd1326.c ****   Copyright (c) 2016, olikraus@gmail.com
   8:..\u8g2\csrc/u8x8_d_ssd1326.c ****   All rights reserved.
   9:..\u8g2\csrc/u8x8_d_ssd1326.c **** 
  10:..\u8g2\csrc/u8x8_d_ssd1326.c ****   Redistribution and use in source and binary forms, with or without modification, 
  11:..\u8g2\csrc/u8x8_d_ssd1326.c ****   are permitted provided that the following conditions are met:
  12:..\u8g2\csrc/u8x8_d_ssd1326.c **** 
  13:..\u8g2\csrc/u8x8_d_ssd1326.c ****   * Redistributions of source code must retain the above copyright notice, this list 
  14:..\u8g2\csrc/u8x8_d_ssd1326.c ****     of conditions and the following disclaimer.
  15:..\u8g2\csrc/u8x8_d_ssd1326.c ****     
  16:..\u8g2\csrc/u8x8_d_ssd1326.c ****   * Redistributions in binary form must reproduce the above copyright notice, this 
  17:..\u8g2\csrc/u8x8_d_ssd1326.c ****     list of conditions and the following disclaimer in the documentation and/or other 
  18:..\u8g2\csrc/u8x8_d_ssd1326.c ****     materials provided with the distribution.
  19:..\u8g2\csrc/u8x8_d_ssd1326.c **** 
  20:..\u8g2\csrc/u8x8_d_ssd1326.c ****   THIS SOFTWARE IS PROVIDED BY THE COPYRIGHT HOLDERS AND 
  21:..\u8g2\csrc/u8x8_d_ssd1326.c ****   CONTRIBUTORS "AS IS" AND ANY EXPRESS OR IMPLIED WARRANTIES, 
  22:..\u8g2\csrc/u8x8_d_ssd1326.c ****   INCLUDING, BUT NOT LIMITED TO, THE IMPLIED WARRANTIES OF 
  23:..\u8g2\csrc/u8x8_d_ssd1326.c ****   MERCHANTABILITY AND FITNESS FOR A PARTICULAR PURPOSE ARE 
  24:..\u8g2\csrc/u8x8_d_ssd1326.c ****   DISCLAIMED. IN NO EVENT SHALL THE COPYRIGHT HOLDER OR 
  25:..\u8g2\csrc/u8x8_d_ssd1326.c ****   CONTRIBUTORS BE LIABLE FOR ANY DIRECT, INDIRECT, INCIDENTAL, 
  26:..\u8g2\csrc/u8x8_d_ssd1326.c ****   SPECIAL, EXEMPLARY, OR CONSEQUENTIAL DAMAGES (INCLUDING, BUT 
  27:..\u8g2\csrc/u8x8_d_ssd1326.c ****   NOT LIMITED TO, PROCUREMENT OF SUBSTITUTE GOODS OR SERVICES; 
  28:..\u8g2\csrc/u8x8_d_ssd1326.c ****   LOSS OF USE, DATA, OR PROFITS; OR BUSINESS INTERRUPTION) HOWEVER 
  29:..\u8g2\csrc/u8x8_d_ssd1326.c ****   CAUSED AND ON ANY THEORY OF LIABILITY, WHETHER IN CONTRACT, 
  30:..\u8g2\csrc/u8x8_d_ssd1326.c ****   STRICT LIABILITY, OR TORT (INCLUDING NEGLIGENCE OR OTHERWISE) 
  31:..\u8g2\csrc/u8x8_d_ssd1326.c ****   ARISING IN ANY WAY OUT OF THE USE OF THIS SOFTWARE, EVEN IF 
ARM GAS  C:\Users\brian\AppData\Local\Temp\cc59emSn.s 			page 2


  32:..\u8g2\csrc/u8x8_d_ssd1326.c ****   ADVISED OF THE POSSIBILITY OF SUCH DAMAGE.  
  33:..\u8g2\csrc/u8x8_d_ssd1326.c ****   
  34:..\u8g2\csrc/u8x8_d_ssd1326.c **** */
  35:..\u8g2\csrc/u8x8_d_ssd1326.c **** 
  36:..\u8g2\csrc/u8x8_d_ssd1326.c **** 
  37:..\u8g2\csrc/u8x8_d_ssd1326.c **** #include "u8x8.h"
  38:..\u8g2\csrc/u8x8_d_ssd1326.c **** 
  39:..\u8g2\csrc/u8x8_d_ssd1326.c **** 
  40:..\u8g2\csrc/u8x8_d_ssd1326.c **** /* ER OLED */
  41:..\u8g2\csrc/u8x8_d_ssd1326.c **** static const uint8_t u8x8_d_ssd1326_er_256x32_init_seq[] = {
  42:..\u8g2\csrc/u8x8_d_ssd1326.c ****     
  43:..\u8g2\csrc/u8x8_d_ssd1326.c ****   U8X8_START_TRANSFER(),             	/* enable chip, delay is part of the transfer start */
  44:..\u8g2\csrc/u8x8_d_ssd1326.c **** 
  45:..\u8g2\csrc/u8x8_d_ssd1326.c ****   U8X8_CA(0x0fd, 0x012),		/* unlock (not required, this is default by reset) */
  46:..\u8g2\csrc/u8x8_d_ssd1326.c ****   
  47:..\u8g2\csrc/u8x8_d_ssd1326.c ****   
  48:..\u8g2\csrc/u8x8_d_ssd1326.c ****   U8X8_C(0x0ae),		                /* display off */
  49:..\u8g2\csrc/u8x8_d_ssd1326.c ****   U8X8_CA(0x0a8, 0x01f),		/* multiplex ratio: 0x03f * 1/64 duty - changed by CREESOO, acc. to datas
  50:..\u8g2\csrc/u8x8_d_ssd1326.c ****   U8X8_CA(0x0a1, 0x000),		/* display start line */
  51:..\u8g2\csrc/u8x8_d_ssd1326.c ****   U8X8_CA(0x0a2, 0x000),		/* display offset, shift mapping ram counter */
  52:..\u8g2\csrc/u8x8_d_ssd1326.c ****   U8X8_CA(0x0ad, 0x002),		/* master configuration: disable embedded DC-DC, enable internal VCOMH */
  53:..\u8g2\csrc/u8x8_d_ssd1326.c ****   /*
  54:..\u8g2\csrc/u8x8_d_ssd1326.c ****     a0 command: 0x0a0 ***abcde
  55:..\u8g2\csrc/u8x8_d_ssd1326.c ****       a: 1: mono mode
  56:..\u8g2\csrc/u8x8_d_ssd1326.c ****       b: 0: horizontal (1: vertical) address increment
  57:..\u8g2\csrc/u8x8_d_ssd1326.c ****       c: 1: enable bit remap
  58:..\u8g2\csrc/u8x8_d_ssd1326.c ****       d: 1: COM remap
  59:..\u8g2\csrc/u8x8_d_ssd1326.c ****       e: 1: Column remap
  60:..\u8g2\csrc/u8x8_d_ssd1326.c ****   */
  61:..\u8g2\csrc/u8x8_d_ssd1326.c ****   U8X8_CA(0x0a0, 0x006),		/* remap configuration, see above */
  62:..\u8g2\csrc/u8x8_d_ssd1326.c ****   U8X8_C(0x086),				/* full current range (0x084, 0x085, 0x086) */
  63:..\u8g2\csrc/u8x8_d_ssd1326.c **** 
  64:..\u8g2\csrc/u8x8_d_ssd1326.c ****   U8X8_C(0x0b7),				/* set default gray scale table */
  65:..\u8g2\csrc/u8x8_d_ssd1326.c ****     
  66:..\u8g2\csrc/u8x8_d_ssd1326.c ****   U8X8_CA(0x081, 0x027),		/* contrast, brightness, 0..128 */
  67:..\u8g2\csrc/u8x8_d_ssd1326.c ****   U8X8_CA(0x0b1, 0x071),                    /* phase length */
  68:..\u8g2\csrc/u8x8_d_ssd1326.c ****   //U8X8_CA(0x0b2, 0x051),		/* frame frequency (row period) */
  69:..\u8g2\csrc/u8x8_d_ssd1326.c ****   U8X8_CA(0x0b3, 0x0f0),		/* set display clock divide ratio/oscillator frequency (set clock as 135 
  70:..\u8g2\csrc/u8x8_d_ssd1326.c ****   //U8X8_CA(0x0b4, 0x002),                    /* set pre-charge compensation level (not documented 
  71:..\u8g2\csrc/u8x8_d_ssd1326.c ****   //U8X8_CA(0x0b0, 0x028),                    /* enable pre-charge compensation (not documented in 
  72:..\u8g2\csrc/u8x8_d_ssd1326.c ****   U8X8_CAA(0x0bb, 0x035, 0x0ff),                     /* set precharge */
  73:..\u8g2\csrc/u8x8_d_ssd1326.c ****   U8X8_CA(0x0bc, 0x01f),                    /* pre-charge voltage level */
  74:..\u8g2\csrc/u8x8_d_ssd1326.c ****   U8X8_CA(0x0be, 0x00f),                     /* VCOMH voltage */
  75:..\u8g2\csrc/u8x8_d_ssd1326.c ****   U8X8_CA(0x0bf, 0x002|0x00d),           /* VSL voltage level (not documented in the SDD1325 datash
  76:..\u8g2\csrc/u8x8_d_ssd1326.c ****   U8X8_C(0x0a4),				/* normal display mode */
  77:..\u8g2\csrc/u8x8_d_ssd1326.c ****     
  78:..\u8g2\csrc/u8x8_d_ssd1326.c ****   //U8X8_CA(0x023, 0x003),		/* graphics accelleration: fill pixel */
  79:..\u8g2\csrc/u8x8_d_ssd1326.c ****     
  80:..\u8g2\csrc/u8x8_d_ssd1326.c ****   U8X8_END_TRANSFER(),             	/* disable chip */
  81:..\u8g2\csrc/u8x8_d_ssd1326.c ****   U8X8_END()             			/* end of sequence */
  82:..\u8g2\csrc/u8x8_d_ssd1326.c **** };
  83:..\u8g2\csrc/u8x8_d_ssd1326.c **** 
  84:..\u8g2\csrc/u8x8_d_ssd1326.c **** static const uint8_t u8x8_d_ssd1326_256x32_nhd_powersave0_seq[] = {
  85:..\u8g2\csrc/u8x8_d_ssd1326.c ****   U8X8_START_TRANSFER(),             	/* enable chip, delay is part of the transfer start */
  86:..\u8g2\csrc/u8x8_d_ssd1326.c ****   U8X8_C(0x0af),		                /* display on */
  87:..\u8g2\csrc/u8x8_d_ssd1326.c ****   U8X8_END_TRANSFER(),             	/* disable chip */
  88:..\u8g2\csrc/u8x8_d_ssd1326.c ****   U8X8_END()             			/* end of sequence */
ARM GAS  C:\Users\brian\AppData\Local\Temp\cc59emSn.s 			page 3


  89:..\u8g2\csrc/u8x8_d_ssd1326.c **** };
  90:..\u8g2\csrc/u8x8_d_ssd1326.c **** 
  91:..\u8g2\csrc/u8x8_d_ssd1326.c **** static const uint8_t u8x8_d_ssd1326_256x32_nhd_powersave1_seq[] = {
  92:..\u8g2\csrc/u8x8_d_ssd1326.c ****   U8X8_START_TRANSFER(),             	/* enable chip, delay is part of the transfer start */
  93:..\u8g2\csrc/u8x8_d_ssd1326.c ****   U8X8_C(0x0ae),		                /* display off */
  94:..\u8g2\csrc/u8x8_d_ssd1326.c ****   U8X8_END_TRANSFER(),             	/* disable chip */
  95:..\u8g2\csrc/u8x8_d_ssd1326.c ****   U8X8_END()             			/* end of sequence */
  96:..\u8g2\csrc/u8x8_d_ssd1326.c **** };
  97:..\u8g2\csrc/u8x8_d_ssd1326.c **** 
  98:..\u8g2\csrc/u8x8_d_ssd1326.c **** static const uint8_t u8x8_d_ssd1326_256x32_nhd_flip0_seq[] = {
  99:..\u8g2\csrc/u8x8_d_ssd1326.c ****   U8X8_START_TRANSFER(),             	/* enable chip, delay is part of the transfer start */
 100:..\u8g2\csrc/u8x8_d_ssd1326.c ****   U8X8_CA(0x0a0, 0x006),		/* remap 00110 */
 101:..\u8g2\csrc/u8x8_d_ssd1326.c ****   U8X8_END_TRANSFER(),             	/* disable chip */
 102:..\u8g2\csrc/u8x8_d_ssd1326.c ****   U8X8_END()             			/* end of sequence */
 103:..\u8g2\csrc/u8x8_d_ssd1326.c **** };
 104:..\u8g2\csrc/u8x8_d_ssd1326.c **** 
 105:..\u8g2\csrc/u8x8_d_ssd1326.c **** static const uint8_t u8x8_d_ssd1326_256x32_nhd_flip1_seq[] = {
 106:..\u8g2\csrc/u8x8_d_ssd1326.c ****   U8X8_START_TRANSFER(),             	/* enable chip, delay is part of the transfer start */
 107:..\u8g2\csrc/u8x8_d_ssd1326.c ****   //U8X8_CA(0x0a0, 0x005),		/* remap 00101 */
 108:..\u8g2\csrc/u8x8_d_ssd1326.c ****   U8X8_CA(0x0a0, 0x001),		/* remap 00001 */
 109:..\u8g2\csrc/u8x8_d_ssd1326.c ****   U8X8_END_TRANSFER(),             	/* disable chip */
 110:..\u8g2\csrc/u8x8_d_ssd1326.c ****   U8X8_END()             			/* end of sequence */
 111:..\u8g2\csrc/u8x8_d_ssd1326.c **** };
 112:..\u8g2\csrc/u8x8_d_ssd1326.c **** 
 113:..\u8g2\csrc/u8x8_d_ssd1326.c **** 
 114:..\u8g2\csrc/u8x8_d_ssd1326.c **** /*
 115:..\u8g2\csrc/u8x8_d_ssd1326.c ****   input:
 116:..\u8g2\csrc/u8x8_d_ssd1326.c ****     one tile (8 Bytes)
 117:..\u8g2\csrc/u8x8_d_ssd1326.c ****   output:
 118:..\u8g2\csrc/u8x8_d_ssd1326.c ****     Tile for ssd1326 (32 Bytes)
 119:..\u8g2\csrc/u8x8_d_ssd1326.c **** */
 120:..\u8g2\csrc/u8x8_d_ssd1326.c **** 
 121:..\u8g2\csrc/u8x8_d_ssd1326.c **** static uint8_t u8x8_ssd1326_8to32_dest_buf[32];
 122:..\u8g2\csrc/u8x8_d_ssd1326.c **** 
 123:..\u8g2\csrc/u8x8_d_ssd1326.c **** static uint8_t *u8x8_ssd1326_8to32(U8X8_UNUSED u8x8_t *u8x8, uint8_t *ptr)
 124:..\u8g2\csrc/u8x8_d_ssd1326.c **** {
  27              		.loc 1 124 0
  28              		.cfi_startproc
  29              		@ args = 0, pretend = 0, frame = 0
  30              		@ frame_needed = 0, uses_anonymous_args = 0
  31              		@ link register save eliminated.
  32              	.LVL0:
  33 0000 70B4     		push	{r4, r5, r6}
  34              		.cfi_def_cfa_offset 12
  35              		.cfi_offset 4, -12
  36              		.cfi_offset 5, -8
  37              		.cfi_offset 6, -4
  38              	.LVL1:
 125:..\u8g2\csrc/u8x8_d_ssd1326.c ****   uint8_t v;
 126:..\u8g2\csrc/u8x8_d_ssd1326.c ****   uint8_t a,b;
 127:..\u8g2\csrc/u8x8_d_ssd1326.c ****   uint8_t i, j;
 128:..\u8g2\csrc/u8x8_d_ssd1326.c ****   uint8_t *dest;
 129:..\u8g2\csrc/u8x8_d_ssd1326.c ****   
 130:..\u8g2\csrc/u8x8_d_ssd1326.c ****   for( j = 0; j < 4; j++ )
  39              		.loc 1 130 0
  40 0002 0026     		movs	r6, #0
  41 0004 1BE0     		b	.L2
ARM GAS  C:\Users\brian\AppData\Local\Temp\cc59emSn.s 			page 4


  42              	.LVL2:
  43              	.L7:
 131:..\u8g2\csrc/u8x8_d_ssd1326.c ****   {
 132:..\u8g2\csrc/u8x8_d_ssd1326.c ****     dest = u8x8_ssd1326_8to32_dest_buf;
 133:..\u8g2\csrc/u8x8_d_ssd1326.c ****     dest += j;
  44              		.loc 1 133 0
  45 0006 104D     		ldr	r5, .L10
  46 0008 3544     		add	r5, r5, r6
  47              	.LVL3:
 134:..\u8g2\csrc/u8x8_d_ssd1326.c ****     a =*ptr;
  48              		.loc 1 134 0
  49 000a 0878     		ldrb	r0, [r1]	@ zero_extendqisi2
  50              	.LVL4:
 135:..\u8g2\csrc/u8x8_d_ssd1326.c ****     ptr++;
 136:..\u8g2\csrc/u8x8_d_ssd1326.c ****     b = *ptr;
  51              		.loc 1 136 0
  52 000c 4A78     		ldrb	r2, [r1, #1]	@ zero_extendqisi2
  53              	.LVL5:
 137:..\u8g2\csrc/u8x8_d_ssd1326.c ****     ptr++;
  54              		.loc 1 137 0
  55 000e 0231     		adds	r1, r1, #2
  56              	.LVL6:
 138:..\u8g2\csrc/u8x8_d_ssd1326.c ****     for( i = 0; i < 8; i++ )
  57              		.loc 1 138 0
  58 0010 0023     		movs	r3, #0
  59 0012 10E0     		b	.L3
  60              	.LVL7:
  61              	.L6:
 139:..\u8g2\csrc/u8x8_d_ssd1326.c ****     {
 140:..\u8g2\csrc/u8x8_d_ssd1326.c ****       v = 0;
 141:..\u8g2\csrc/u8x8_d_ssd1326.c ****       if ( a&1 ) v |= 0xf0;
  62              		.loc 1 141 0
  63 0014 10F0010F 		tst	r0, #1
  64 0018 01D1     		bne	.L8
 140:..\u8g2\csrc/u8x8_d_ssd1326.c ****       if ( a&1 ) v |= 0xf0;
  65              		.loc 1 140 0
  66 001a 0024     		movs	r4, #0
  67 001c 00E0     		b	.L4
  68              	.L8:
  69              		.loc 1 141 0
  70 001e F024     		movs	r4, #240
  71              	.L4:
  72              	.LVL8:
 142:..\u8g2\csrc/u8x8_d_ssd1326.c ****       if ( b&1 ) v |= 0x0f;
  73              		.loc 1 142 0
  74 0020 12F0010F 		tst	r2, #1
  75 0024 01D0     		beq	.L5
  76              		.loc 1 142 0 is_stmt 0 discriminator 1
  77 0026 44F00F04 		orr	r4, r4, #15
  78              	.LVL9:
  79              	.L5:
 143:..\u8g2\csrc/u8x8_d_ssd1326.c ****       *dest = v;
  80              		.loc 1 143 0 is_stmt 1 discriminator 2
  81 002a 05F8044B 		strb	r4, [r5], #4
  82              	.LVL10:
 144:..\u8g2\csrc/u8x8_d_ssd1326.c ****       dest+=4;
 145:..\u8g2\csrc/u8x8_d_ssd1326.c ****       a >>= 1;
ARM GAS  C:\Users\brian\AppData\Local\Temp\cc59emSn.s 			page 5


  83              		.loc 1 145 0 discriminator 2
  84 002e 4008     		lsrs	r0, r0, #1
  85              	.LVL11:
 146:..\u8g2\csrc/u8x8_d_ssd1326.c ****       b >>= 1;
  86              		.loc 1 146 0 discriminator 2
  87 0030 5208     		lsrs	r2, r2, #1
  88              	.LVL12:
 138:..\u8g2\csrc/u8x8_d_ssd1326.c ****     {
  89              		.loc 1 138 0 discriminator 2
  90 0032 0133     		adds	r3, r3, #1
  91              	.LVL13:
  92 0034 DBB2     		uxtb	r3, r3
  93              	.LVL14:
  94              	.L3:
 138:..\u8g2\csrc/u8x8_d_ssd1326.c ****     {
  95              		.loc 1 138 0 is_stmt 0 discriminator 1
  96 0036 072B     		cmp	r3, #7
  97 0038 ECD9     		bls	.L6
 130:..\u8g2\csrc/u8x8_d_ssd1326.c ****   {
  98              		.loc 1 130 0 is_stmt 1 discriminator 2
  99 003a 0136     		adds	r6, r6, #1
 100              	.LVL15:
 101 003c F6B2     		uxtb	r6, r6
 102              	.LVL16:
 103              	.L2:
 130:..\u8g2\csrc/u8x8_d_ssd1326.c ****   {
 104              		.loc 1 130 0 is_stmt 0 discriminator 1
 105 003e 032E     		cmp	r6, #3
 106 0040 E1D9     		bls	.L7
 147:..\u8g2\csrc/u8x8_d_ssd1326.c ****     }
 148:..\u8g2\csrc/u8x8_d_ssd1326.c ****   }
 149:..\u8g2\csrc/u8x8_d_ssd1326.c ****   
 150:..\u8g2\csrc/u8x8_d_ssd1326.c ****   return u8x8_ssd1326_8to32_dest_buf;
 151:..\u8g2\csrc/u8x8_d_ssd1326.c **** }
 107              		.loc 1 151 0 is_stmt 1
 108 0042 0148     		ldr	r0, .L10
 109 0044 70BC     		pop	{r4, r5, r6}
 110              		.cfi_restore 6
 111              		.cfi_restore 5
 112              		.cfi_restore 4
 113              		.cfi_def_cfa_offset 0
 114              	.LVL17:
 115 0046 7047     		bx	lr
 116              	.L11:
 117              		.align	2
 118              	.L10:
 119 0048 00000000 		.word	.LANCHOR0
 120              		.cfi_endproc
 121              	.LFE0:
 122              		.size	u8x8_ssd1326_8to32, .-u8x8_ssd1326_8to32
 123              		.section	.text.u8x8_d_ssd1326_256x32_generic,"ax",%progbits
 124              		.align	2
 125              		.thumb
 126              		.thumb_func
 127              		.type	u8x8_d_ssd1326_256x32_generic, %function
 128              	u8x8_d_ssd1326_256x32_generic:
 129              	.LFB1:
ARM GAS  C:\Users\brian\AppData\Local\Temp\cc59emSn.s 			page 6


 152:..\u8g2\csrc/u8x8_d_ssd1326.c **** 
 153:..\u8g2\csrc/u8x8_d_ssd1326.c **** 
 154:..\u8g2\csrc/u8x8_d_ssd1326.c **** 
 155:..\u8g2\csrc/u8x8_d_ssd1326.c **** 
 156:..\u8g2\csrc/u8x8_d_ssd1326.c **** static uint8_t u8x8_d_ssd1326_256x32_generic(u8x8_t *u8x8, uint8_t msg, uint8_t arg_int, void *arg_
 157:..\u8g2\csrc/u8x8_d_ssd1326.c **** {
 130              		.loc 1 157 0
 131              		.cfi_startproc
 132              		@ args = 0, pretend = 0, frame = 0
 133              		@ frame_needed = 0, uses_anonymous_args = 0
 134              	.LVL18:
 135 0000 2DE9F047 		push	{r4, r5, r6, r7, r8, r9, r10, lr}
 136              		.cfi_def_cfa_offset 32
 137              		.cfi_offset 4, -32
 138              		.cfi_offset 5, -28
 139              		.cfi_offset 6, -24
 140              		.cfi_offset 7, -20
 141              		.cfi_offset 8, -16
 142              		.cfi_offset 9, -12
 143              		.cfi_offset 10, -8
 144              		.cfi_offset 14, -4
 145 0004 0446     		mov	r4, r0
 146 0006 9046     		mov	r8, r2
 147 0008 9946     		mov	r9, r3
 158:..\u8g2\csrc/u8x8_d_ssd1326.c ****   uint8_t x, y, c;
 159:..\u8g2\csrc/u8x8_d_ssd1326.c ****   uint8_t *ptr;
 160:..\u8g2\csrc/u8x8_d_ssd1326.c ****   switch(msg)
 148              		.loc 1 160 0
 149 000a 0A39     		subs	r1, r1, #10
 150              	.LVL19:
 151 000c 0529     		cmp	r1, #5
 152 000e 00F28880 		bhi	.L24
 153 0012 DFE801F0 		tbb	[pc, r1]
 154              	.LVL20:
 155              	.L15:
 156 0016 03       		.byte	(.L14-.L15)/2
 157 0017 0C       		.byte	(.L16-.L15)/2
 158 0018 86       		.byte	(.L24-.L15)/2
 159 0019 19       		.byte	(.L17-.L15)/2
 160 001a 2E       		.byte	(.L18-.L15)/2
 161 001b 3E       		.byte	(.L19-.L15)/2
 162              		.p2align 1
 163              	.L14:
 161:..\u8g2\csrc/u8x8_d_ssd1326.c ****   {
 162:..\u8g2\csrc/u8x8_d_ssd1326.c ****     /* handled by the calling function
 163:..\u8g2\csrc/u8x8_d_ssd1326.c ****     case U8X8_MSG_DISPLAY_SETUP_MEMORY:
 164:..\u8g2\csrc/u8x8_d_ssd1326.c ****       u8x8_d_helper_display_setup_memory(u8x8, &u8x8_ssd1326_256x32_nhd_display_info);
 165:..\u8g2\csrc/u8x8_d_ssd1326.c ****       break;
 166:..\u8g2\csrc/u8x8_d_ssd1326.c ****     */
 167:..\u8g2\csrc/u8x8_d_ssd1326.c ****     case U8X8_MSG_DISPLAY_INIT:
 168:..\u8g2\csrc/u8x8_d_ssd1326.c ****       u8x8_d_helper_display_init(u8x8);
 164              		.loc 1 168 0
 165 001c FFF7FEFF 		bl	u8x8_d_helper_display_init
 166              	.LVL21:
 169:..\u8g2\csrc/u8x8_d_ssd1326.c ****       u8x8_cad_SendSequence(u8x8, u8x8_d_ssd1326_er_256x32_init_seq);    
 167              		.loc 1 169 0
 168 0020 4149     		ldr	r1, .L26
ARM GAS  C:\Users\brian\AppData\Local\Temp\cc59emSn.s 			page 7


 169 0022 2046     		mov	r0, r4
 170 0024 FFF7FEFF 		bl	u8x8_cad_SendSequence
 171              	.LVL22:
 170:..\u8g2\csrc/u8x8_d_ssd1326.c ****       break;
 171:..\u8g2\csrc/u8x8_d_ssd1326.c ****     case U8X8_MSG_DISPLAY_SET_POWER_SAVE:
 172:..\u8g2\csrc/u8x8_d_ssd1326.c ****       if ( arg_int == 0 )
 173:..\u8g2\csrc/u8x8_d_ssd1326.c **** 	u8x8_cad_SendSequence(u8x8, u8x8_d_ssd1326_256x32_nhd_powersave0_seq);
 174:..\u8g2\csrc/u8x8_d_ssd1326.c ****       else
 175:..\u8g2\csrc/u8x8_d_ssd1326.c **** 	u8x8_cad_SendSequence(u8x8, u8x8_d_ssd1326_256x32_nhd_powersave1_seq);
 176:..\u8g2\csrc/u8x8_d_ssd1326.c ****       break;
 177:..\u8g2\csrc/u8x8_d_ssd1326.c ****     case U8X8_MSG_DISPLAY_SET_FLIP_MODE:
 178:..\u8g2\csrc/u8x8_d_ssd1326.c ****       if ( arg_int == 0 )
 179:..\u8g2\csrc/u8x8_d_ssd1326.c ****       {
 180:..\u8g2\csrc/u8x8_d_ssd1326.c **** 	u8x8_cad_SendSequence(u8x8, u8x8_d_ssd1326_256x32_nhd_flip0_seq);
 181:..\u8g2\csrc/u8x8_d_ssd1326.c **** 	u8x8->x_offset = u8x8->display_info->default_x_offset;
 182:..\u8g2\csrc/u8x8_d_ssd1326.c ****       }
 183:..\u8g2\csrc/u8x8_d_ssd1326.c ****       else
 184:..\u8g2\csrc/u8x8_d_ssd1326.c ****       {
 185:..\u8g2\csrc/u8x8_d_ssd1326.c **** 	u8x8_cad_SendSequence(u8x8, u8x8_d_ssd1326_256x32_nhd_flip1_seq);
 186:..\u8g2\csrc/u8x8_d_ssd1326.c **** 	u8x8->x_offset = u8x8->display_info->flipmode_x_offset;
 187:..\u8g2\csrc/u8x8_d_ssd1326.c ****       }
 188:..\u8g2\csrc/u8x8_d_ssd1326.c ****       break;
 189:..\u8g2\csrc/u8x8_d_ssd1326.c **** #ifdef U8X8_WITH_SET_CONTRAST
 190:..\u8g2\csrc/u8x8_d_ssd1326.c ****     case U8X8_MSG_DISPLAY_SET_CONTRAST:
 191:..\u8g2\csrc/u8x8_d_ssd1326.c ****       u8x8_cad_StartTransfer(u8x8);
 192:..\u8g2\csrc/u8x8_d_ssd1326.c ****       u8x8_cad_SendCmd(u8x8, 0x081 );
 193:..\u8g2\csrc/u8x8_d_ssd1326.c ****       u8x8_cad_SendArg(u8x8, arg_int );	/* ssd1326 has range from 0 to 255 */
 194:..\u8g2\csrc/u8x8_d_ssd1326.c ****       u8x8_cad_EndTransfer(u8x8);
 195:..\u8g2\csrc/u8x8_d_ssd1326.c ****       break;
 196:..\u8g2\csrc/u8x8_d_ssd1326.c **** #endif
 197:..\u8g2\csrc/u8x8_d_ssd1326.c ****     case U8X8_MSG_DISPLAY_DRAW_TILE:
 198:..\u8g2\csrc/u8x8_d_ssd1326.c ****       u8x8_cad_StartTransfer(u8x8);
 199:..\u8g2\csrc/u8x8_d_ssd1326.c ****       x = ((u8x8_tile_t *)arg_ptr)->x_pos;
 200:..\u8g2\csrc/u8x8_d_ssd1326.c ****       x *= 4;
 201:..\u8g2\csrc/u8x8_d_ssd1326.c ****       
 202:..\u8g2\csrc/u8x8_d_ssd1326.c ****       y = (((u8x8_tile_t *)arg_ptr)->y_pos);
 203:..\u8g2\csrc/u8x8_d_ssd1326.c ****       
 204:..\u8g2\csrc/u8x8_d_ssd1326.c ****       y *= 8;
 205:..\u8g2\csrc/u8x8_d_ssd1326.c ****       y += u8x8->x_offset;		/* x_offset is used as y offset for the ssd1326 */
 206:..\u8g2\csrc/u8x8_d_ssd1326.c ****     
 207:..\u8g2\csrc/u8x8_d_ssd1326.c ****       
 208:..\u8g2\csrc/u8x8_d_ssd1326.c ****       do
 209:..\u8g2\csrc/u8x8_d_ssd1326.c ****       {
 210:..\u8g2\csrc/u8x8_d_ssd1326.c **** 	c = ((u8x8_tile_t *)arg_ptr)->cnt;
 211:..\u8g2\csrc/u8x8_d_ssd1326.c **** 	ptr = ((u8x8_tile_t *)arg_ptr)->tile_ptr;
 212:..\u8g2\csrc/u8x8_d_ssd1326.c **** 
 213:..\u8g2\csrc/u8x8_d_ssd1326.c **** 	do
 214:..\u8g2\csrc/u8x8_d_ssd1326.c **** 	{
 215:..\u8g2\csrc/u8x8_d_ssd1326.c ****           u8x8_cad_SendCmd(u8x8, 0x015 );	/* set column address */
 216:..\u8g2\csrc/u8x8_d_ssd1326.c ****           u8x8_cad_SendArg(u8x8, x );	/* start */
 217:..\u8g2\csrc/u8x8_d_ssd1326.c ****           u8x8_cad_SendArg(u8x8, x+3 );	/* end */
 218:..\u8g2\csrc/u8x8_d_ssd1326.c **** 
 219:..\u8g2\csrc/u8x8_d_ssd1326.c ****           u8x8_cad_SendCmd(u8x8, 0x075 );	/* set row address */
 220:..\u8g2\csrc/u8x8_d_ssd1326.c ****           u8x8_cad_SendArg(u8x8, y);
 221:..\u8g2\csrc/u8x8_d_ssd1326.c ****           u8x8_cad_SendArg(u8x8, y+7);
 222:..\u8g2\csrc/u8x8_d_ssd1326.c ****           
 223:..\u8g2\csrc/u8x8_d_ssd1326.c ****           u8x8_cad_SendData(u8x8, 32, u8x8_ssd1326_8to32(u8x8, ptr));
ARM GAS  C:\Users\brian\AppData\Local\Temp\cc59emSn.s 			page 8


 224:..\u8g2\csrc/u8x8_d_ssd1326.c ****           
 225:..\u8g2\csrc/u8x8_d_ssd1326.c **** 	  ptr += 8;
 226:..\u8g2\csrc/u8x8_d_ssd1326.c **** 	  x += 4;
 227:..\u8g2\csrc/u8x8_d_ssd1326.c **** 	  c--;
 228:..\u8g2\csrc/u8x8_d_ssd1326.c **** 	} while( c > 0 );
 229:..\u8g2\csrc/u8x8_d_ssd1326.c **** 	
 230:..\u8g2\csrc/u8x8_d_ssd1326.c **** 	//x += 4;
 231:..\u8g2\csrc/u8x8_d_ssd1326.c **** 	arg_int--;
 232:..\u8g2\csrc/u8x8_d_ssd1326.c ****       } while( arg_int > 0 );
 233:..\u8g2\csrc/u8x8_d_ssd1326.c ****       
 234:..\u8g2\csrc/u8x8_d_ssd1326.c ****       u8x8_cad_EndTransfer(u8x8);
 235:..\u8g2\csrc/u8x8_d_ssd1326.c ****       break;
 236:..\u8g2\csrc/u8x8_d_ssd1326.c ****     default:
 237:..\u8g2\csrc/u8x8_d_ssd1326.c ****       return 0;
 238:..\u8g2\csrc/u8x8_d_ssd1326.c ****   }
 239:..\u8g2\csrc/u8x8_d_ssd1326.c ****   return 1;
 172              		.loc 1 239 0
 173 0028 0120     		movs	r0, #1
 170:..\u8g2\csrc/u8x8_d_ssd1326.c ****       break;
 174              		.loc 1 170 0
 175 002a BDE8F087 		pop	{r4, r5, r6, r7, r8, r9, r10, pc}
 176              	.LVL23:
 177              	.L16:
 172:..\u8g2\csrc/u8x8_d_ssd1326.c **** 	u8x8_cad_SendSequence(u8x8, u8x8_d_ssd1326_256x32_nhd_powersave0_seq);
 178              		.loc 1 172 0
 179 002e 2AB9     		cbnz	r2, .L20
 173:..\u8g2\csrc/u8x8_d_ssd1326.c ****       else
 180              		.loc 1 173 0
 181 0030 3E49     		ldr	r1, .L26+4
 182 0032 FFF7FEFF 		bl	u8x8_cad_SendSequence
 183              	.LVL24:
 184              		.loc 1 239 0
 185 0036 0120     		movs	r0, #1
 186 0038 BDE8F087 		pop	{r4, r5, r6, r7, r8, r9, r10, pc}
 187              	.LVL25:
 188              	.L20:
 175:..\u8g2\csrc/u8x8_d_ssd1326.c ****       break;
 189              		.loc 1 175 0
 190 003c 3C49     		ldr	r1, .L26+8
 191 003e FFF7FEFF 		bl	u8x8_cad_SendSequence
 192              	.LVL26:
 193              		.loc 1 239 0
 194 0042 0120     		movs	r0, #1
 195 0044 BDE8F087 		pop	{r4, r5, r6, r7, r8, r9, r10, pc}
 196              	.LVL27:
 197              	.L17:
 178:..\u8g2\csrc/u8x8_d_ssd1326.c ****       {
 198              		.loc 1 178 0
 199 0048 4AB9     		cbnz	r2, .L21
 180:..\u8g2\csrc/u8x8_d_ssd1326.c **** 	u8x8->x_offset = u8x8->display_info->default_x_offset;
 200              		.loc 1 180 0
 201 004a 3A49     		ldr	r1, .L26+12
 202 004c FFF7FEFF 		bl	u8x8_cad_SendSequence
 203              	.LVL28:
 181:..\u8g2\csrc/u8x8_d_ssd1326.c ****       }
 204              		.loc 1 181 0
 205 0050 2368     		ldr	r3, [r4]
ARM GAS  C:\Users\brian\AppData\Local\Temp\cc59emSn.s 			page 9


 206 0052 9B7C     		ldrb	r3, [r3, #18]	@ zero_extendqisi2
 207 0054 84F82230 		strb	r3, [r4, #34]
 208              		.loc 1 239 0
 209 0058 0120     		movs	r0, #1
 210 005a BDE8F087 		pop	{r4, r5, r6, r7, r8, r9, r10, pc}
 211              	.LVL29:
 212              	.L21:
 185:..\u8g2\csrc/u8x8_d_ssd1326.c **** 	u8x8->x_offset = u8x8->display_info->flipmode_x_offset;
 213              		.loc 1 185 0
 214 005e 3649     		ldr	r1, .L26+16
 215 0060 FFF7FEFF 		bl	u8x8_cad_SendSequence
 216              	.LVL30:
 186:..\u8g2\csrc/u8x8_d_ssd1326.c ****       }
 217              		.loc 1 186 0
 218 0064 2368     		ldr	r3, [r4]
 219 0066 DB7C     		ldrb	r3, [r3, #19]	@ zero_extendqisi2
 220 0068 84F82230 		strb	r3, [r4, #34]
 221              		.loc 1 239 0
 222 006c 0120     		movs	r0, #1
 223 006e BDE8F087 		pop	{r4, r5, r6, r7, r8, r9, r10, pc}
 224              	.LVL31:
 225              	.L18:
 191:..\u8g2\csrc/u8x8_d_ssd1326.c ****       u8x8_cad_SendCmd(u8x8, 0x081 );
 226              		.loc 1 191 0
 227 0072 FFF7FEFF 		bl	u8x8_cad_StartTransfer
 228              	.LVL32:
 192:..\u8g2\csrc/u8x8_d_ssd1326.c ****       u8x8_cad_SendArg(u8x8, arg_int );	/* ssd1326 has range from 0 to 255 */
 229              		.loc 1 192 0
 230 0076 8121     		movs	r1, #129
 231 0078 2046     		mov	r0, r4
 232 007a FFF7FEFF 		bl	u8x8_cad_SendCmd
 233              	.LVL33:
 193:..\u8g2\csrc/u8x8_d_ssd1326.c ****       u8x8_cad_EndTransfer(u8x8);
 234              		.loc 1 193 0
 235 007e 4146     		mov	r1, r8
 236 0080 2046     		mov	r0, r4
 237 0082 FFF7FEFF 		bl	u8x8_cad_SendArg
 238              	.LVL34:
 194:..\u8g2\csrc/u8x8_d_ssd1326.c ****       break;
 239              		.loc 1 194 0
 240 0086 2046     		mov	r0, r4
 241 0088 FFF7FEFF 		bl	u8x8_cad_EndTransfer
 242              	.LVL35:
 243              		.loc 1 239 0
 244 008c 0120     		movs	r0, #1
 195:..\u8g2\csrc/u8x8_d_ssd1326.c **** #endif
 245              		.loc 1 195 0
 246 008e BDE8F087 		pop	{r4, r5, r6, r7, r8, r9, r10, pc}
 247              	.LVL36:
 248              	.L19:
 198:..\u8g2\csrc/u8x8_d_ssd1326.c ****       x = ((u8x8_tile_t *)arg_ptr)->x_pos;
 249              		.loc 1 198 0
 250 0092 FFF7FEFF 		bl	u8x8_cad_StartTransfer
 251              	.LVL37:
 199:..\u8g2\csrc/u8x8_d_ssd1326.c ****       x *= 4;
 252              		.loc 1 199 0
 253 0096 99F80550 		ldrb	r5, [r9, #5]	@ zero_extendqisi2
ARM GAS  C:\Users\brian\AppData\Local\Temp\cc59emSn.s 			page 10


 254              	.LVL38:
 200:..\u8g2\csrc/u8x8_d_ssd1326.c ****       
 255              		.loc 1 200 0
 256 009a AD00     		lsls	r5, r5, #2
 257              	.LVL39:
 258 009c EDB2     		uxtb	r5, r5
 259              	.LVL40:
 202:..\u8g2\csrc/u8x8_d_ssd1326.c ****       
 260              		.loc 1 202 0
 261 009e 99F80630 		ldrb	r3, [r9, #6]	@ zero_extendqisi2
 262              	.LVL41:
 204:..\u8g2\csrc/u8x8_d_ssd1326.c ****       y += u8x8->x_offset;		/* x_offset is used as y offset for the ssd1326 */
 263              		.loc 1 204 0
 264 00a2 DB00     		lsls	r3, r3, #3
 265              	.LVL42:
 266 00a4 DBB2     		uxtb	r3, r3
 267              	.LVL43:
 205:..\u8g2\csrc/u8x8_d_ssd1326.c ****     
 268              		.loc 1 205 0
 269 00a6 94F82270 		ldrb	r7, [r4, #34]	@ zero_extendqisi2
 270 00aa 3B44     		add	r3, r3, r7
 271              	.LVL44:
 272 00ac DFB2     		uxtb	r7, r3
 273              	.LVL45:
 274              	.L23:
 210:..\u8g2\csrc/u8x8_d_ssd1326.c **** 	ptr = ((u8x8_tile_t *)arg_ptr)->tile_ptr;
 275              		.loc 1 210 0
 276 00ae 99F804A0 		ldrb	r10, [r9, #4]	@ zero_extendqisi2
 277              	.LVL46:
 211:..\u8g2\csrc/u8x8_d_ssd1326.c **** 
 278              		.loc 1 211 0
 279 00b2 D9F80060 		ldr	r6, [r9]
 280              	.LVL47:
 281              	.L22:
 215:..\u8g2\csrc/u8x8_d_ssd1326.c ****           u8x8_cad_SendArg(u8x8, x );	/* start */
 282              		.loc 1 215 0 discriminator 1
 283 00b6 1521     		movs	r1, #21
 284 00b8 2046     		mov	r0, r4
 285 00ba FFF7FEFF 		bl	u8x8_cad_SendCmd
 286              	.LVL48:
 216:..\u8g2\csrc/u8x8_d_ssd1326.c ****           u8x8_cad_SendArg(u8x8, x+3 );	/* end */
 287              		.loc 1 216 0 discriminator 1
 288 00be 2946     		mov	r1, r5
 289 00c0 2046     		mov	r0, r4
 290 00c2 FFF7FEFF 		bl	u8x8_cad_SendArg
 291              	.LVL49:
 217:..\u8g2\csrc/u8x8_d_ssd1326.c **** 
 292              		.loc 1 217 0 discriminator 1
 293 00c6 E91C     		adds	r1, r5, #3
 294 00c8 C9B2     		uxtb	r1, r1
 295 00ca 2046     		mov	r0, r4
 296 00cc FFF7FEFF 		bl	u8x8_cad_SendArg
 297              	.LVL50:
 219:..\u8g2\csrc/u8x8_d_ssd1326.c ****           u8x8_cad_SendArg(u8x8, y);
 298              		.loc 1 219 0 discriminator 1
 299 00d0 7521     		movs	r1, #117
 300 00d2 2046     		mov	r0, r4
ARM GAS  C:\Users\brian\AppData\Local\Temp\cc59emSn.s 			page 11


 301 00d4 FFF7FEFF 		bl	u8x8_cad_SendCmd
 302              	.LVL51:
 220:..\u8g2\csrc/u8x8_d_ssd1326.c ****           u8x8_cad_SendArg(u8x8, y+7);
 303              		.loc 1 220 0 discriminator 1
 304 00d8 3946     		mov	r1, r7
 305 00da 2046     		mov	r0, r4
 306 00dc FFF7FEFF 		bl	u8x8_cad_SendArg
 307              	.LVL52:
 221:..\u8g2\csrc/u8x8_d_ssd1326.c ****           
 308              		.loc 1 221 0 discriminator 1
 309 00e0 F91D     		adds	r1, r7, #7
 310 00e2 C9B2     		uxtb	r1, r1
 311 00e4 2046     		mov	r0, r4
 312 00e6 FFF7FEFF 		bl	u8x8_cad_SendArg
 313              	.LVL53:
 223:..\u8g2\csrc/u8x8_d_ssd1326.c ****           
 314              		.loc 1 223 0 discriminator 1
 315 00ea 3146     		mov	r1, r6
 316 00ec 2046     		mov	r0, r4
 317 00ee FFF7FEFF 		bl	u8x8_ssd1326_8to32
 318              	.LVL54:
 319 00f2 0246     		mov	r2, r0
 320 00f4 2021     		movs	r1, #32
 321 00f6 2046     		mov	r0, r4
 322 00f8 FFF7FEFF 		bl	u8x8_cad_SendData
 323              	.LVL55:
 225:..\u8g2\csrc/u8x8_d_ssd1326.c **** 	  x += 4;
 324              		.loc 1 225 0 discriminator 1
 325 00fc 0836     		adds	r6, r6, #8
 326              	.LVL56:
 226:..\u8g2\csrc/u8x8_d_ssd1326.c **** 	  c--;
 327              		.loc 1 226 0 discriminator 1
 328 00fe 0435     		adds	r5, r5, #4
 329              	.LVL57:
 330 0100 EDB2     		uxtb	r5, r5
 331              	.LVL58:
 227:..\u8g2\csrc/u8x8_d_ssd1326.c **** 	} while( c > 0 );
 332              		.loc 1 227 0 discriminator 1
 333 0102 0AF1FF33 		add	r3, r10, #-1
 334              	.LVL59:
 228:..\u8g2\csrc/u8x8_d_ssd1326.c **** 	
 335              		.loc 1 228 0 discriminator 1
 336 0106 13F0FF0A 		ands	r10, r3, #255
 337 010a D4D1     		bne	.L22
 231:..\u8g2\csrc/u8x8_d_ssd1326.c ****       } while( arg_int > 0 );
 338              		.loc 1 231 0
 339 010c 08F1FF38 		add	r8, r8, #-1
 340              	.LVL60:
 232:..\u8g2\csrc/u8x8_d_ssd1326.c ****       
 341              		.loc 1 232 0
 342 0110 18F0FF08 		ands	r8, r8, #255
 343              	.LVL61:
 344 0114 CBD1     		bne	.L23
 234:..\u8g2\csrc/u8x8_d_ssd1326.c ****       break;
 345              		.loc 1 234 0
 346 0116 2046     		mov	r0, r4
 347 0118 FFF7FEFF 		bl	u8x8_cad_EndTransfer
ARM GAS  C:\Users\brian\AppData\Local\Temp\cc59emSn.s 			page 12


 348              	.LVL62:
 349              		.loc 1 239 0
 350 011c 0120     		movs	r0, #1
 235:..\u8g2\csrc/u8x8_d_ssd1326.c ****     default:
 351              		.loc 1 235 0
 352 011e BDE8F087 		pop	{r4, r5, r6, r7, r8, r9, r10, pc}
 353              	.LVL63:
 354              	.L24:
 237:..\u8g2\csrc/u8x8_d_ssd1326.c ****   }
 355              		.loc 1 237 0
 356 0122 0020     		movs	r0, #0
 357              	.LVL64:
 240:..\u8g2\csrc/u8x8_d_ssd1326.c **** }
 358              		.loc 1 240 0
 359 0124 BDE8F087 		pop	{r4, r5, r6, r7, r8, r9, r10, pc}
 360              	.LVL65:
 361              	.L27:
 362              		.align	2
 363              	.L26:
 364 0128 00000000 		.word	.LANCHOR1
 365 012c 44000000 		.word	.LANCHOR1+68
 366 0130 4C000000 		.word	.LANCHOR1+76
 367 0134 54000000 		.word	.LANCHOR1+84
 368 0138 5C000000 		.word	.LANCHOR1+92
 369              		.cfi_endproc
 370              	.LFE1:
 371              		.size	u8x8_d_ssd1326_256x32_generic, .-u8x8_d_ssd1326_256x32_generic
 372              		.section	.text.u8x8_d_ssd1326_er_256x32,"ax",%progbits
 373              		.align	2
 374              		.global	u8x8_d_ssd1326_er_256x32
 375              		.thumb
 376              		.thumb_func
 377              		.type	u8x8_d_ssd1326_er_256x32, %function
 378              	u8x8_d_ssd1326_er_256x32:
 379              	.LFB2:
 241:..\u8g2\csrc/u8x8_d_ssd1326.c **** 
 242:..\u8g2\csrc/u8x8_d_ssd1326.c **** 
 243:..\u8g2\csrc/u8x8_d_ssd1326.c **** static const u8x8_display_info_t u8x8_ssd1326_256x32_display_info =
 244:..\u8g2\csrc/u8x8_d_ssd1326.c **** {
 245:..\u8g2\csrc/u8x8_d_ssd1326.c ****   /* chip_enable_level = */ 0,
 246:..\u8g2\csrc/u8x8_d_ssd1326.c ****   /* chip_disable_level = */ 1,
 247:..\u8g2\csrc/u8x8_d_ssd1326.c ****   
 248:..\u8g2\csrc/u8x8_d_ssd1326.c ****   /* post_chip_enable_wait_ns = */ 20,
 249:..\u8g2\csrc/u8x8_d_ssd1326.c ****   /* pre_chip_disable_wait_ns = */ 15,
 250:..\u8g2\csrc/u8x8_d_ssd1326.c ****   /* reset_pulse_width_ms = */ 100, 	
 251:..\u8g2\csrc/u8x8_d_ssd1326.c ****   /* post_reset_wait_ms = */ 100, 		/**/
 252:..\u8g2\csrc/u8x8_d_ssd1326.c ****   /* sda_setup_time_ns = */ 100,		/* ssd1326  */
 253:..\u8g2\csrc/u8x8_d_ssd1326.c ****   /* sck_pulse_width_ns = */ 100,	/* ssd1326  */
 254:..\u8g2\csrc/u8x8_d_ssd1326.c ****   /* sck_clock_hz = */ 4000000UL,	/* since Arduino 1.6.0, the SPI bus speed in Hz. Should be  10000
 255:..\u8g2\csrc/u8x8_d_ssd1326.c ****   /* spi_mode = */ 0,		/* active high, rising edge */
 256:..\u8g2\csrc/u8x8_d_ssd1326.c ****   /* i2c_bus_clock_100kHz = */ 4,
 257:..\u8g2\csrc/u8x8_d_ssd1326.c ****   /* data_setup_time_ns = */ 40,
 258:..\u8g2\csrc/u8x8_d_ssd1326.c ****   /* write_pulse_width_ns = */ 60,	/* ssd1326 */
 259:..\u8g2\csrc/u8x8_d_ssd1326.c ****   /* tile_width = */ 32,
 260:..\u8g2\csrc/u8x8_d_ssd1326.c ****   /* tile_hight = */ 4,
 261:..\u8g2\csrc/u8x8_d_ssd1326.c ****   /* default_x_offset = */ 0,		/* x_offset is used as y offset for the ssd1326 */
 262:..\u8g2\csrc/u8x8_d_ssd1326.c ****   /* flipmode_x_offset = */ 0,		/* x_offset is used as y offset for the ssd1326 */
ARM GAS  C:\Users\brian\AppData\Local\Temp\cc59emSn.s 			page 13


 263:..\u8g2\csrc/u8x8_d_ssd1326.c ****   /* pixel_width = */ 256,
 264:..\u8g2\csrc/u8x8_d_ssd1326.c ****   /* pixel_height = */ 32
 265:..\u8g2\csrc/u8x8_d_ssd1326.c **** };
 266:..\u8g2\csrc/u8x8_d_ssd1326.c **** 
 267:..\u8g2\csrc/u8x8_d_ssd1326.c **** uint8_t u8x8_d_ssd1326_er_256x32(u8x8_t *u8x8, uint8_t msg, uint8_t arg_int, void *arg_ptr)
 268:..\u8g2\csrc/u8x8_d_ssd1326.c **** {
 380              		.loc 1 268 0
 381              		.cfi_startproc
 382              		@ args = 0, pretend = 0, frame = 0
 383              		@ frame_needed = 0, uses_anonymous_args = 0
 384              	.LVL66:
 385 0000 08B5     		push	{r3, lr}
 386              		.cfi_def_cfa_offset 8
 387              		.cfi_offset 3, -8
 388              		.cfi_offset 14, -4
 269:..\u8g2\csrc/u8x8_d_ssd1326.c ****     if ( msg == U8X8_MSG_DISPLAY_SETUP_MEMORY )
 389              		.loc 1 269 0
 390 0002 0929     		cmp	r1, #9
 391 0004 04D1     		bne	.L29
 270:..\u8g2\csrc/u8x8_d_ssd1326.c ****     {
 271:..\u8g2\csrc/u8x8_d_ssd1326.c ****       u8x8_d_helper_display_setup_memory(u8x8, &u8x8_ssd1326_256x32_display_info);
 392              		.loc 1 271 0
 393 0006 0449     		ldr	r1, .L32
 394              	.LVL67:
 395 0008 FFF7FEFF 		bl	u8x8_d_helper_display_setup_memory
 396              	.LVL68:
 272:..\u8g2\csrc/u8x8_d_ssd1326.c ****       return 1;
 397              		.loc 1 272 0
 398 000c 0120     		movs	r0, #1
 399 000e 08BD     		pop	{r3, pc}
 400              	.LVL69:
 401              	.L29:
 273:..\u8g2\csrc/u8x8_d_ssd1326.c ****     }
 274:..\u8g2\csrc/u8x8_d_ssd1326.c ****     return u8x8_d_ssd1326_256x32_generic(u8x8, msg, arg_int, arg_ptr);
 402              		.loc 1 274 0
 403 0010 FFF7FEFF 		bl	u8x8_d_ssd1326_256x32_generic
 404              	.LVL70:
 275:..\u8g2\csrc/u8x8_d_ssd1326.c **** }
 405              		.loc 1 275 0
 406 0014 08BD     		pop	{r3, pc}
 407              	.L33:
 408 0016 00BF     		.align	2
 409              	.L32:
 410 0018 64000000 		.word	.LANCHOR1+100
 411              		.cfi_endproc
 412              	.LFE2:
 413              		.size	u8x8_d_ssd1326_er_256x32, .-u8x8_d_ssd1326_er_256x32
 414              		.section	.rodata
 415              		.align	2
 416              		.set	.LANCHOR1,. + 0
 417              		.type	u8x8_d_ssd1326_er_256x32_init_seq, %object
 418              		.size	u8x8_d_ssd1326_er_256x32_init_seq, 65
 419              	u8x8_d_ssd1326_er_256x32_init_seq:
 420 0000 18       		.byte	24
 421 0001 15       		.byte	21
 422 0002 FD       		.byte	-3
 423 0003 16       		.byte	22
ARM GAS  C:\Users\brian\AppData\Local\Temp\cc59emSn.s 			page 14


 424 0004 12       		.byte	18
 425 0005 15       		.byte	21
 426 0006 AE       		.byte	-82
 427 0007 15       		.byte	21
 428 0008 A8       		.byte	-88
 429 0009 16       		.byte	22
 430 000a 1F       		.byte	31
 431 000b 15       		.byte	21
 432 000c A1       		.byte	-95
 433 000d 16       		.byte	22
 434 000e 00       		.byte	0
 435 000f 15       		.byte	21
 436 0010 A2       		.byte	-94
 437 0011 16       		.byte	22
 438 0012 00       		.byte	0
 439 0013 15       		.byte	21
 440 0014 AD       		.byte	-83
 441 0015 16       		.byte	22
 442 0016 02       		.byte	2
 443 0017 15       		.byte	21
 444 0018 A0       		.byte	-96
 445 0019 16       		.byte	22
 446 001a 06       		.byte	6
 447 001b 15       		.byte	21
 448 001c 86       		.byte	-122
 449 001d 15       		.byte	21
 450 001e B7       		.byte	-73
 451 001f 15       		.byte	21
 452 0020 81       		.byte	-127
 453 0021 16       		.byte	22
 454 0022 27       		.byte	39
 455 0023 15       		.byte	21
 456 0024 B1       		.byte	-79
 457 0025 16       		.byte	22
 458 0026 71       		.byte	113
 459 0027 15       		.byte	21
 460 0028 B3       		.byte	-77
 461 0029 16       		.byte	22
 462 002a F0       		.byte	-16
 463 002b 15       		.byte	21
 464 002c BB       		.byte	-69
 465 002d 16       		.byte	22
 466 002e 35       		.byte	53
 467 002f 16       		.byte	22
 468 0030 FF       		.byte	-1
 469 0031 15       		.byte	21
 470 0032 BC       		.byte	-68
 471 0033 16       		.byte	22
 472 0034 1F       		.byte	31
 473 0035 15       		.byte	21
 474 0036 BE       		.byte	-66
 475 0037 16       		.byte	22
 476 0038 0F       		.byte	15
 477 0039 15       		.byte	21
 478 003a BF       		.byte	-65
 479 003b 16       		.byte	22
 480 003c 0F       		.byte	15
ARM GAS  C:\Users\brian\AppData\Local\Temp\cc59emSn.s 			page 15


 481 003d 15       		.byte	21
 482 003e A4       		.byte	-92
 483 003f 19       		.byte	25
 484 0040 FF       		.byte	-1
 485 0041 000000   		.space	3
 486              		.type	u8x8_d_ssd1326_256x32_nhd_powersave0_seq, %object
 487              		.size	u8x8_d_ssd1326_256x32_nhd_powersave0_seq, 5
 488              	u8x8_d_ssd1326_256x32_nhd_powersave0_seq:
 489 0044 18       		.byte	24
 490 0045 15       		.byte	21
 491 0046 AF       		.byte	-81
 492 0047 19       		.byte	25
 493 0048 FF       		.byte	-1
 494 0049 000000   		.space	3
 495              		.type	u8x8_d_ssd1326_256x32_nhd_powersave1_seq, %object
 496              		.size	u8x8_d_ssd1326_256x32_nhd_powersave1_seq, 5
 497              	u8x8_d_ssd1326_256x32_nhd_powersave1_seq:
 498 004c 18       		.byte	24
 499 004d 15       		.byte	21
 500 004e AE       		.byte	-82
 501 004f 19       		.byte	25
 502 0050 FF       		.byte	-1
 503 0051 000000   		.space	3
 504              		.type	u8x8_d_ssd1326_256x32_nhd_flip0_seq, %object
 505              		.size	u8x8_d_ssd1326_256x32_nhd_flip0_seq, 7
 506              	u8x8_d_ssd1326_256x32_nhd_flip0_seq:
 507 0054 18       		.byte	24
 508 0055 15       		.byte	21
 509 0056 A0       		.byte	-96
 510 0057 16       		.byte	22
 511 0058 06       		.byte	6
 512 0059 19       		.byte	25
 513 005a FF       		.byte	-1
 514 005b 00       		.space	1
 515              		.type	u8x8_d_ssd1326_256x32_nhd_flip1_seq, %object
 516              		.size	u8x8_d_ssd1326_256x32_nhd_flip1_seq, 7
 517              	u8x8_d_ssd1326_256x32_nhd_flip1_seq:
 518 005c 18       		.byte	24
 519 005d 15       		.byte	21
 520 005e A0       		.byte	-96
 521 005f 16       		.byte	22
 522 0060 01       		.byte	1
 523 0061 19       		.byte	25
 524 0062 FF       		.byte	-1
 525 0063 00       		.space	1
 526              		.type	u8x8_ssd1326_256x32_display_info, %object
 527              		.size	u8x8_ssd1326_256x32_display_info, 24
 528              	u8x8_ssd1326_256x32_display_info:
 529 0064 00       		.byte	0
 530 0065 01       		.byte	1
 531 0066 14       		.byte	20
 532 0067 0F       		.byte	15
 533 0068 64       		.byte	100
 534 0069 64       		.byte	100
 535 006a 64       		.byte	100
 536 006b 64       		.byte	100
 537 006c 00093D00 		.word	4000000
ARM GAS  C:\Users\brian\AppData\Local\Temp\cc59emSn.s 			page 16


 538 0070 00       		.byte	0
 539 0071 04       		.byte	4
 540 0072 28       		.byte	40
 541 0073 3C       		.byte	60
 542 0074 20       		.byte	32
 543 0075 04       		.byte	4
 544 0076 00       		.byte	0
 545 0077 00       		.byte	0
 546 0078 0001     		.short	256
 547 007a 2000     		.short	32
 548              		.bss
 549              		.align	2
 550              		.set	.LANCHOR0,. + 0
 551              		.type	u8x8_ssd1326_8to32_dest_buf, %object
 552              		.size	u8x8_ssd1326_8to32_dest_buf, 32
 553              	u8x8_ssd1326_8to32_dest_buf:
 554 0000 00000000 		.space	32
 554      00000000 
 554      00000000 
 554      00000000 
 554      00000000 
 555              		.text
 556              	.Letext0:
 557              		.file 2 "c:\\program files (x86)\\cypress\\psoc creator\\4.4\\psoc creator\\import\\gnu\\arm\\5.4.
 558              		.file 3 "c:\\program files (x86)\\cypress\\psoc creator\\4.4\\psoc creator\\import\\gnu\\arm\\5.4.
 559              		.file 4 "..\\u8g2\\csrc\\u8x8.h"