ARM GAS  C:\Users\brian\AppData\Local\Temp\ccSLidFV.s 			page 1


   1              		.syntax unified
   2              		.cpu cortex-m3
   3              		.fpu softvfp
   4              		.eabi_attribute 20, 1
   5              		.eabi_attribute 21, 1
   6              		.eabi_attribute 23, 3
   7              		.eabi_attribute 24, 1
   8              		.eabi_attribute 25, 1
   9              		.eabi_attribute 26, 1
  10              		.eabi_attribute 30, 1
  11              		.eabi_attribute 34, 1
  12              		.eabi_attribute 18, 4
  13              		.thumb
  14              		.syntax unified
  15              		.file	"u8x8_d_ssd1317.c"
  16              		.text
  17              	.Ltext0:
  18              		.cfi_sections	.debug_frame
  19              		.section	.text.u8x8_d_ssd1317_generic,"ax",%progbits
  20              		.align	2
  21              		.thumb
  22              		.thumb_func
  23              		.type	u8x8_d_ssd1317_generic, %function
  24              	u8x8_d_ssd1317_generic:
  25              	.LFB0:
  26              		.file 1 "..\\u8g2\\csrc\\u8x8_d_ssd1317.c"
   1:..\u8g2\csrc/u8x8_d_ssd1317.c **** /*
   2:..\u8g2\csrc/u8x8_d_ssd1317.c **** 
   3:..\u8g2\csrc/u8x8_d_ssd1317.c ****   u8x8_d_ssd1317.c
   4:..\u8g2\csrc/u8x8_d_ssd1317.c **** 
   5:..\u8g2\csrc/u8x8_d_ssd1317.c ****   Universal 8bit Graphics Library (https://github.com/olikraus/u8g2/)
   6:..\u8g2\csrc/u8x8_d_ssd1317.c **** 
   7:..\u8g2\csrc/u8x8_d_ssd1317.c ****   Copyright (c) 2018, olikraus@gmail.com
   8:..\u8g2\csrc/u8x8_d_ssd1317.c ****   All rights reserved.
   9:..\u8g2\csrc/u8x8_d_ssd1317.c **** 
  10:..\u8g2\csrc/u8x8_d_ssd1317.c ****   Redistribution and use in source and binary forms, with or without modification, 
  11:..\u8g2\csrc/u8x8_d_ssd1317.c ****   are permitted provided that the following conditions are met:
  12:..\u8g2\csrc/u8x8_d_ssd1317.c **** 
  13:..\u8g2\csrc/u8x8_d_ssd1317.c ****   * Redistributions of source code must retain the above copyright notice, this list 
  14:..\u8g2\csrc/u8x8_d_ssd1317.c ****     of conditions and the following disclaimer.
  15:..\u8g2\csrc/u8x8_d_ssd1317.c ****     
  16:..\u8g2\csrc/u8x8_d_ssd1317.c ****   * Redistributions in binary form must reproduce the above copyright notice, this 
  17:..\u8g2\csrc/u8x8_d_ssd1317.c ****     list of conditions and the following disclaimer in the documentation and/or other 
  18:..\u8g2\csrc/u8x8_d_ssd1317.c ****     materials provided with the distribution.
  19:..\u8g2\csrc/u8x8_d_ssd1317.c **** 
  20:..\u8g2\csrc/u8x8_d_ssd1317.c ****   THIS SOFTWARE IS PROVIDED BY THE COPYRIGHT HOLDERS AND 
  21:..\u8g2\csrc/u8x8_d_ssd1317.c ****   CONTRIBUTORS "AS IS" AND ANY EXPRESS OR IMPLIED WARRANTIES, 
  22:..\u8g2\csrc/u8x8_d_ssd1317.c ****   INCLUDING, BUT NOT LIMITED TO, THE IMPLIED WARRANTIES OF 
  23:..\u8g2\csrc/u8x8_d_ssd1317.c ****   MERCHANTABILITY AND FITNESS FOR A PARTICULAR PURPOSE ARE 
  24:..\u8g2\csrc/u8x8_d_ssd1317.c ****   DISCLAIMED. IN NO EVENT SHALL THE COPYRIGHT HOLDER OR 
  25:..\u8g2\csrc/u8x8_d_ssd1317.c ****   CONTRIBUTORS BE LIABLE FOR ANY DIRECT, INDIRECT, INCIDENTAL, 
  26:..\u8g2\csrc/u8x8_d_ssd1317.c ****   SPECIAL, EXEMPLARY, OR CONSEQUENTIAL DAMAGES (INCLUDING, BUT 
  27:..\u8g2\csrc/u8x8_d_ssd1317.c ****   NOT LIMITED TO, PROCUREMENT OF SUBSTITUTE GOODS OR SERVICES; 
  28:..\u8g2\csrc/u8x8_d_ssd1317.c ****   LOSS OF USE, DATA, OR PROFITS; OR BUSINESS INTERRUPTION) HOWEVER 
  29:..\u8g2\csrc/u8x8_d_ssd1317.c ****   CAUSED AND ON ANY THEORY OF LIABILITY, WHETHER IN CONTRACT, 
  30:..\u8g2\csrc/u8x8_d_ssd1317.c ****   STRICT LIABILITY, OR TORT (INCLUDING NEGLIGENCE OR OTHERWISE) 
  31:..\u8g2\csrc/u8x8_d_ssd1317.c ****   ARISING IN ANY WAY OUT OF THE USE OF THIS SOFTWARE, EVEN IF 
ARM GAS  C:\Users\brian\AppData\Local\Temp\ccSLidFV.s 			page 2


  32:..\u8g2\csrc/u8x8_d_ssd1317.c ****   ADVISED OF THE POSSIBILITY OF SUCH DAMAGE.  
  33:..\u8g2\csrc/u8x8_d_ssd1317.c **** 
  34:..\u8g2\csrc/u8x8_d_ssd1317.c **** 
  35:..\u8g2\csrc/u8x8_d_ssd1317.c ****   SSD1317: 128x96 OLED
  36:..\u8g2\csrc/u8x8_d_ssd1317.c ****   
  37:..\u8g2\csrc/u8x8_d_ssd1317.c ****   https://github.com/olikraus/u8g2/issues/663
  38:..\u8g2\csrc/u8x8_d_ssd1317.c **** 
  39:..\u8g2\csrc/u8x8_d_ssd1317.c **** */
  40:..\u8g2\csrc/u8x8_d_ssd1317.c **** 
  41:..\u8g2\csrc/u8x8_d_ssd1317.c **** 
  42:..\u8g2\csrc/u8x8_d_ssd1317.c **** #include "u8x8.h"
  43:..\u8g2\csrc/u8x8_d_ssd1317.c **** 
  44:..\u8g2\csrc/u8x8_d_ssd1317.c **** 
  45:..\u8g2\csrc/u8x8_d_ssd1317.c **** 
  46:..\u8g2\csrc/u8x8_d_ssd1317.c **** /* more or less generic setup of all these small OLEDs */
  47:..\u8g2\csrc/u8x8_d_ssd1317.c **** static const uint8_t u8x8_d_ssd1317_96x96_init_seq[] = {
  48:..\u8g2\csrc/u8x8_d_ssd1317.c ****     
  49:..\u8g2\csrc/u8x8_d_ssd1317.c ****   U8X8_START_TRANSFER(),             	/* enable chip, delay is part of the transfer start */
  50:..\u8g2\csrc/u8x8_d_ssd1317.c ****   
  51:..\u8g2\csrc/u8x8_d_ssd1317.c ****   
  52:..\u8g2\csrc/u8x8_d_ssd1317.c ****   U8X8_C(0x0ae),		        /* display off */
  53:..\u8g2\csrc/u8x8_d_ssd1317.c ****   U8X8_CA(0x0d5, 0x0d1),		/* clock divide ratio (0x00=1) and oscillator frequency (0x8) */
  54:..\u8g2\csrc/u8x8_d_ssd1317.c ****   U8X8_CA(0x0a8, 0x05f),		/* multiplex ratio */
  55:..\u8g2\csrc/u8x8_d_ssd1317.c ****   U8X8_CA(0x0d3, 0x000),		/* display offset */
  56:..\u8g2\csrc/u8x8_d_ssd1317.c ****   U8X8_CA(0x0a2, 0x000),		/* set display start line to 0 */
  57:..\u8g2\csrc/u8x8_d_ssd1317.c ****   U8X8_CA(0x08d, 0x014),		/* [2] charge pump setting (p62): 0x014 enable, 0x010 disable, SSD1306 on
  58:..\u8g2\csrc/u8x8_d_ssd1317.c ****   U8X8_CA(0x020, 0x000),		/* horizontal addressing mode */
  59:..\u8g2\csrc/u8x8_d_ssd1317.c ****   
  60:..\u8g2\csrc/u8x8_d_ssd1317.c ****   U8X8_C(0x0a0),			/* segment remap a0/a1*/
  61:..\u8g2\csrc/u8x8_d_ssd1317.c ****   U8X8_C(0x0c8),			/* c0: scan dir normal, c8: reverse */
  62:..\u8g2\csrc/u8x8_d_ssd1317.c ****   
  63:..\u8g2\csrc/u8x8_d_ssd1317.c ****   // Flipmode
  64:..\u8g2\csrc/u8x8_d_ssd1317.c ****   //U8X8_C(0x0a1),			/* segment remap a0/a1*/
  65:..\u8g2\csrc/u8x8_d_ssd1317.c ****   //U8X8_C(0x0c0),			/* c0: scan dir normal, c8: reverse */
  66:..\u8g2\csrc/u8x8_d_ssd1317.c ****   
  67:..\u8g2\csrc/u8x8_d_ssd1317.c ****   U8X8_CA(0x0da, 0x012),		/* com pin HW config, sequential com pin config (bit 4), disable left/rig
  68:..\u8g2\csrc/u8x8_d_ssd1317.c **** 
  69:..\u8g2\csrc/u8x8_d_ssd1317.c ****   U8X8_CA(0x081, 0x09f), 		/* [2] set contrast control */
  70:..\u8g2\csrc/u8x8_d_ssd1317.c ****   U8X8_CA(0x0d9, 0x0f1), 		/* [2] pre-charge period 0x022/f1*/
  71:..\u8g2\csrc/u8x8_d_ssd1317.c ****   U8X8_CA(0x0db, 0x0ff), 		/* vcomh deselect level */  
  72:..\u8g2\csrc/u8x8_d_ssd1317.c ****   
  73:..\u8g2\csrc/u8x8_d_ssd1317.c ****   // if vcomh is 0, then this will give the biggest range for contrast control issue #98
  74:..\u8g2\csrc/u8x8_d_ssd1317.c ****   // restored the old values for the noname constructor, because vcomh=0 will not work for all OLED
  75:..\u8g2\csrc/u8x8_d_ssd1317.c ****   
  76:..\u8g2\csrc/u8x8_d_ssd1317.c ****   U8X8_C(0x02e),			/* Deactivate scroll */ 
  77:..\u8g2\csrc/u8x8_d_ssd1317.c ****   U8X8_C(0x0a4),			/* output ram to display */
  78:..\u8g2\csrc/u8x8_d_ssd1317.c ****   U8X8_C(0x0a6),			/* none inverted normal display mode */
  79:..\u8g2\csrc/u8x8_d_ssd1317.c ****     
  80:..\u8g2\csrc/u8x8_d_ssd1317.c ****   U8X8_END_TRANSFER(),             	/* disable chip */
  81:..\u8g2\csrc/u8x8_d_ssd1317.c ****   U8X8_END()           			/* end of sequence */
  82:..\u8g2\csrc/u8x8_d_ssd1317.c **** };
  83:..\u8g2\csrc/u8x8_d_ssd1317.c **** 
  84:..\u8g2\csrc/u8x8_d_ssd1317.c **** 
  85:..\u8g2\csrc/u8x8_d_ssd1317.c **** 
  86:..\u8g2\csrc/u8x8_d_ssd1317.c **** static const uint8_t u8x8_d_ssd1317_96x96_powersave0_seq[] = {
  87:..\u8g2\csrc/u8x8_d_ssd1317.c ****   U8X8_START_TRANSFER(),             	/* enable chip, delay is part of the transfer start */
  88:..\u8g2\csrc/u8x8_d_ssd1317.c ****   U8X8_C(0x0af),		                /* display on */
ARM GAS  C:\Users\brian\AppData\Local\Temp\ccSLidFV.s 			page 3


  89:..\u8g2\csrc/u8x8_d_ssd1317.c ****   U8X8_END_TRANSFER(),             	/* disable chip */
  90:..\u8g2\csrc/u8x8_d_ssd1317.c ****   U8X8_END()             			/* end of sequence */
  91:..\u8g2\csrc/u8x8_d_ssd1317.c **** };
  92:..\u8g2\csrc/u8x8_d_ssd1317.c **** 
  93:..\u8g2\csrc/u8x8_d_ssd1317.c **** static const uint8_t u8x8_d_ssd1317_96x96_powersave1_seq[] = {
  94:..\u8g2\csrc/u8x8_d_ssd1317.c ****   U8X8_START_TRANSFER(),             	/* enable chip, delay is part of the transfer start */
  95:..\u8g2\csrc/u8x8_d_ssd1317.c ****   U8X8_C(0x0ae),		                /* display off */
  96:..\u8g2\csrc/u8x8_d_ssd1317.c ****   U8X8_END_TRANSFER(),             	/* disable chip */
  97:..\u8g2\csrc/u8x8_d_ssd1317.c ****   U8X8_END()             			/* end of sequence */
  98:..\u8g2\csrc/u8x8_d_ssd1317.c **** };
  99:..\u8g2\csrc/u8x8_d_ssd1317.c **** 
 100:..\u8g2\csrc/u8x8_d_ssd1317.c **** static const uint8_t u8x8_d_ssd1317_96x96_flip0_seq[] = {
 101:..\u8g2\csrc/u8x8_d_ssd1317.c ****   U8X8_START_TRANSFER(),             	/* enable chip, delay is part of the transfer start */
 102:..\u8g2\csrc/u8x8_d_ssd1317.c ****   U8X8_C(0x0a1),				/* segment remap a0/a1*/
 103:..\u8g2\csrc/u8x8_d_ssd1317.c ****   U8X8_C(0x0c8),				/* c0: scan dir normal, c8: reverse */
 104:..\u8g2\csrc/u8x8_d_ssd1317.c ****   U8X8_END_TRANSFER(),             	/* disable chip */
 105:..\u8g2\csrc/u8x8_d_ssd1317.c ****   U8X8_END()             			/* end of sequence */
 106:..\u8g2\csrc/u8x8_d_ssd1317.c **** };
 107:..\u8g2\csrc/u8x8_d_ssd1317.c **** 
 108:..\u8g2\csrc/u8x8_d_ssd1317.c **** static const uint8_t u8x8_d_ssd1317_96x96_flip1_seq[] = {
 109:..\u8g2\csrc/u8x8_d_ssd1317.c ****   U8X8_START_TRANSFER(),             	/* enable chip, delay is part of the transfer start */
 110:..\u8g2\csrc/u8x8_d_ssd1317.c ****   U8X8_C(0x0a0),				/* segment remap a0/a1*/
 111:..\u8g2\csrc/u8x8_d_ssd1317.c ****   U8X8_C(0x0c8),				/* c0: scan dir normal, c8: reverse */
 112:..\u8g2\csrc/u8x8_d_ssd1317.c ****   U8X8_END_TRANSFER(),             	/* disable chip */
 113:..\u8g2\csrc/u8x8_d_ssd1317.c ****   U8X8_END()             			/* end of sequence */
 114:..\u8g2\csrc/u8x8_d_ssd1317.c **** };
 115:..\u8g2\csrc/u8x8_d_ssd1317.c **** 
 116:..\u8g2\csrc/u8x8_d_ssd1317.c **** 
 117:..\u8g2\csrc/u8x8_d_ssd1317.c **** static uint8_t u8x8_d_ssd1317_generic(u8x8_t *u8x8, uint8_t msg, uint8_t arg_int, void *arg_ptr)
 118:..\u8g2\csrc/u8x8_d_ssd1317.c **** {
  27              		.loc 1 118 0
  28              		.cfi_startproc
  29              		@ args = 0, pretend = 0, frame = 0
  30              		@ frame_needed = 0, uses_anonymous_args = 0
  31              	.LVL0:
  32 0000 F8B5     		push	{r3, r4, r5, r6, r7, lr}
  33              		.cfi_def_cfa_offset 24
  34              		.cfi_offset 3, -24
  35              		.cfi_offset 4, -20
  36              		.cfi_offset 5, -16
  37              		.cfi_offset 6, -12
  38              		.cfi_offset 7, -8
  39              		.cfi_offset 14, -4
  40 0002 0546     		mov	r5, r0
  41 0004 1446     		mov	r4, r2
  42 0006 1E46     		mov	r6, r3
 119:..\u8g2\csrc/u8x8_d_ssd1317.c ****   uint8_t x, c;
 120:..\u8g2\csrc/u8x8_d_ssd1317.c ****   uint8_t *ptr;
 121:..\u8g2\csrc/u8x8_d_ssd1317.c ****   switch(msg)
  43              		.loc 1 121 0
  44 0008 0B39     		subs	r1, r1, #11
  45              	.LVL1:
  46 000a 0429     		cmp	r1, #4
  47 000c 60D8     		bhi	.L11
  48 000e DFE801F0 		tbb	[pc, r1]
  49              	.LVL2:
  50              	.L4:
ARM GAS  C:\Users\brian\AppData\Local\Temp\ccSLidFV.s 			page 4


  51 0012 03       		.byte	(.L3-.L4)/2
  52 0013 5F       		.byte	(.L11-.L4)/2
  53 0014 0E       		.byte	(.L5-.L4)/2
  54 0015 21       		.byte	(.L6-.L4)/2
  55 0016 30       		.byte	(.L7-.L4)/2
  56 0017 00       		.p2align 1
  57              	.L3:
 122:..\u8g2\csrc/u8x8_d_ssd1317.c ****   {
 123:..\u8g2\csrc/u8x8_d_ssd1317.c ****     /* handled by the calling function
 124:..\u8g2\csrc/u8x8_d_ssd1317.c ****     case U8X8_MSG_DISPLAY_SETUP_MEMORY:
 125:..\u8g2\csrc/u8x8_d_ssd1317.c ****       u8x8_d_helper_display_setup_memory(u8x8, &u8x8_ssd1317_96x96_display_info);
 126:..\u8g2\csrc/u8x8_d_ssd1317.c ****       break;
 127:..\u8g2\csrc/u8x8_d_ssd1317.c ****     */
 128:..\u8g2\csrc/u8x8_d_ssd1317.c ****     /* handled by the calling function
 129:..\u8g2\csrc/u8x8_d_ssd1317.c ****     case U8X8_MSG_DISPLAY_INIT:
 130:..\u8g2\csrc/u8x8_d_ssd1317.c ****       u8x8_d_helper_display_init(u8x8);
 131:..\u8g2\csrc/u8x8_d_ssd1317.c ****       u8x8_cad_SendSequence(u8x8, u8x8_d_ssd1317_96x96_init_seq);    
 132:..\u8g2\csrc/u8x8_d_ssd1317.c ****       break;
 133:..\u8g2\csrc/u8x8_d_ssd1317.c ****     */
 134:..\u8g2\csrc/u8x8_d_ssd1317.c ****     case U8X8_MSG_DISPLAY_SET_POWER_SAVE:
 135:..\u8g2\csrc/u8x8_d_ssd1317.c ****       if ( arg_int == 0 )
  58              		.loc 1 135 0
  59 0018 22B9     		cbnz	r2, .L8
 136:..\u8g2\csrc/u8x8_d_ssd1317.c **** 	u8x8_cad_SendSequence(u8x8, u8x8_d_ssd1317_96x96_powersave0_seq);
  60              		.loc 1 136 0
  61 001a 2E49     		ldr	r1, .L13
  62 001c FFF7FEFF 		bl	u8x8_cad_SendSequence
  63              	.LVL3:
 137:..\u8g2\csrc/u8x8_d_ssd1317.c ****       else
 138:..\u8g2\csrc/u8x8_d_ssd1317.c **** 	u8x8_cad_SendSequence(u8x8, u8x8_d_ssd1317_96x96_powersave1_seq);
 139:..\u8g2\csrc/u8x8_d_ssd1317.c ****       break;
 140:..\u8g2\csrc/u8x8_d_ssd1317.c ****     case U8X8_MSG_DISPLAY_SET_FLIP_MODE:
 141:..\u8g2\csrc/u8x8_d_ssd1317.c ****       if ( arg_int == 0 )
 142:..\u8g2\csrc/u8x8_d_ssd1317.c ****       {
 143:..\u8g2\csrc/u8x8_d_ssd1317.c **** 	u8x8_cad_SendSequence(u8x8, u8x8_d_ssd1317_96x96_flip0_seq);
 144:..\u8g2\csrc/u8x8_d_ssd1317.c **** 	u8x8->x_offset = u8x8->display_info->default_x_offset;
 145:..\u8g2\csrc/u8x8_d_ssd1317.c ****       }
 146:..\u8g2\csrc/u8x8_d_ssd1317.c ****       else
 147:..\u8g2\csrc/u8x8_d_ssd1317.c ****       {
 148:..\u8g2\csrc/u8x8_d_ssd1317.c **** 	u8x8_cad_SendSequence(u8x8, u8x8_d_ssd1317_96x96_flip1_seq);
 149:..\u8g2\csrc/u8x8_d_ssd1317.c **** 	u8x8->x_offset = u8x8->display_info->flipmode_x_offset;
 150:..\u8g2\csrc/u8x8_d_ssd1317.c ****       }
 151:..\u8g2\csrc/u8x8_d_ssd1317.c ****       break;
 152:..\u8g2\csrc/u8x8_d_ssd1317.c **** #ifdef U8X8_WITH_SET_CONTRAST
 153:..\u8g2\csrc/u8x8_d_ssd1317.c ****     case U8X8_MSG_DISPLAY_SET_CONTRAST:
 154:..\u8g2\csrc/u8x8_d_ssd1317.c ****       u8x8_cad_StartTransfer(u8x8);
 155:..\u8g2\csrc/u8x8_d_ssd1317.c ****       u8x8_cad_SendCmd(u8x8, 0x081 );
 156:..\u8g2\csrc/u8x8_d_ssd1317.c ****       u8x8_cad_SendArg(u8x8, arg_int );	/* ssd1306 has range from 0 to 255 */
 157:..\u8g2\csrc/u8x8_d_ssd1317.c ****       u8x8_cad_EndTransfer(u8x8);
 158:..\u8g2\csrc/u8x8_d_ssd1317.c ****       break;
 159:..\u8g2\csrc/u8x8_d_ssd1317.c **** #endif
 160:..\u8g2\csrc/u8x8_d_ssd1317.c ****   case U8X8_MSG_DISPLAY_DRAW_TILE:
 161:..\u8g2\csrc/u8x8_d_ssd1317.c ****    u8x8_cad_StartTransfer(u8x8);
 162:..\u8g2\csrc/u8x8_d_ssd1317.c ****    x = ((u8x8_tile_t *)arg_ptr)->x_pos;    
 163:..\u8g2\csrc/u8x8_d_ssd1317.c ****    x *= 8;
 164:..\u8g2\csrc/u8x8_d_ssd1317.c ****    x += u8x8->x_offset;
 165:..\u8g2\csrc/u8x8_d_ssd1317.c ****   
ARM GAS  C:\Users\brian\AppData\Local\Temp\ccSLidFV.s 			page 5


 166:..\u8g2\csrc/u8x8_d_ssd1317.c ****    u8x8_cad_SendCmd(u8x8, 0x040 );	/* set line offset to 0 */
 167:..\u8g2\csrc/u8x8_d_ssd1317.c ****    
 168:..\u8g2\csrc/u8x8_d_ssd1317.c ****    u8x8_cad_SendCmd(u8x8, 0x010 | (x>>4) );
 169:..\u8g2\csrc/u8x8_d_ssd1317.c ****    u8x8_cad_SendArg(u8x8, 0x000 | ((x&15)));	/* probably wrong, should be SendCmd */
 170:..\u8g2\csrc/u8x8_d_ssd1317.c ****    u8x8_cad_SendArg(u8x8, 0x0b0 | (((u8x8_tile_t *)arg_ptr)->y_pos)); /* probably wrong, should be 
 171:..\u8g2\csrc/u8x8_d_ssd1317.c **** 
 172:..\u8g2\csrc/u8x8_d_ssd1317.c ****     
 173:..\u8g2\csrc/u8x8_d_ssd1317.c ****    do
 174:..\u8g2\csrc/u8x8_d_ssd1317.c ****    {
 175:..\u8g2\csrc/u8x8_d_ssd1317.c ****     c = ((u8x8_tile_t *)arg_ptr)->cnt;
 176:..\u8g2\csrc/u8x8_d_ssd1317.c ****     ptr = ((u8x8_tile_t *)arg_ptr)->tile_ptr;
 177:..\u8g2\csrc/u8x8_d_ssd1317.c ****     u8x8_cad_SendData(u8x8, c*8, ptr); 	/* note: SendData can not handle more than 255 bytes */
 178:..\u8g2\csrc/u8x8_d_ssd1317.c ****     /*
 179:..\u8g2\csrc/u8x8_d_ssd1317.c **** 	do
 180:..\u8g2\csrc/u8x8_d_ssd1317.c **** 	{
 181:..\u8g2\csrc/u8x8_d_ssd1317.c **** 	  u8x8_cad_SendData(u8x8, 8, ptr);
 182:..\u8g2\csrc/u8x8_d_ssd1317.c **** 	  ptr += 8;
 183:..\u8g2\csrc/u8x8_d_ssd1317.c **** 	  c--;
 184:..\u8g2\csrc/u8x8_d_ssd1317.c **** 	} while( c > 0 );
 185:..\u8g2\csrc/u8x8_d_ssd1317.c **** 	*/
 186:..\u8g2\csrc/u8x8_d_ssd1317.c **** 	arg_int--;
 187:..\u8g2\csrc/u8x8_d_ssd1317.c ****       } while( arg_int > 0 );
 188:..\u8g2\csrc/u8x8_d_ssd1317.c ****       
 189:..\u8g2\csrc/u8x8_d_ssd1317.c ****       u8x8_cad_EndTransfer(u8x8);
 190:..\u8g2\csrc/u8x8_d_ssd1317.c ****       break;
 191:..\u8g2\csrc/u8x8_d_ssd1317.c ****     default:
 192:..\u8g2\csrc/u8x8_d_ssd1317.c ****       return 0;
 193:..\u8g2\csrc/u8x8_d_ssd1317.c ****   }
 194:..\u8g2\csrc/u8x8_d_ssd1317.c ****   return 1;
  64              		.loc 1 194 0
  65 0020 0120     		movs	r0, #1
  66 0022 F8BD     		pop	{r3, r4, r5, r6, r7, pc}
  67              	.LVL4:
  68              	.L8:
 138:..\u8g2\csrc/u8x8_d_ssd1317.c ****       break;
  69              		.loc 1 138 0
  70 0024 2C49     		ldr	r1, .L13+4
  71 0026 FFF7FEFF 		bl	u8x8_cad_SendSequence
  72              	.LVL5:
  73              		.loc 1 194 0
  74 002a 0120     		movs	r0, #1
  75 002c F8BD     		pop	{r3, r4, r5, r6, r7, pc}
  76              	.LVL6:
  77              	.L5:
 141:..\u8g2\csrc/u8x8_d_ssd1317.c ****       {
  78              		.loc 1 141 0
  79 002e 42B9     		cbnz	r2, .L9
 143:..\u8g2\csrc/u8x8_d_ssd1317.c **** 	u8x8->x_offset = u8x8->display_info->default_x_offset;
  80              		.loc 1 143 0
  81 0030 2A49     		ldr	r1, .L13+8
  82 0032 FFF7FEFF 		bl	u8x8_cad_SendSequence
  83              	.LVL7:
 144:..\u8g2\csrc/u8x8_d_ssd1317.c ****       }
  84              		.loc 1 144 0
  85 0036 2B68     		ldr	r3, [r5]
  86 0038 9B7C     		ldrb	r3, [r3, #18]	@ zero_extendqisi2
  87 003a 85F82230 		strb	r3, [r5, #34]
ARM GAS  C:\Users\brian\AppData\Local\Temp\ccSLidFV.s 			page 6


  88              		.loc 1 194 0
  89 003e 0120     		movs	r0, #1
  90 0040 F8BD     		pop	{r3, r4, r5, r6, r7, pc}
  91              	.LVL8:
  92              	.L9:
 148:..\u8g2\csrc/u8x8_d_ssd1317.c **** 	u8x8->x_offset = u8x8->display_info->flipmode_x_offset;
  93              		.loc 1 148 0
  94 0042 2749     		ldr	r1, .L13+12
  95 0044 FFF7FEFF 		bl	u8x8_cad_SendSequence
  96              	.LVL9:
 149:..\u8g2\csrc/u8x8_d_ssd1317.c ****       }
  97              		.loc 1 149 0
  98 0048 2B68     		ldr	r3, [r5]
  99 004a DB7C     		ldrb	r3, [r3, #19]	@ zero_extendqisi2
 100 004c 85F82230 		strb	r3, [r5, #34]
 101              		.loc 1 194 0
 102 0050 0120     		movs	r0, #1
 103 0052 F8BD     		pop	{r3, r4, r5, r6, r7, pc}
 104              	.LVL10:
 105              	.L6:
 154:..\u8g2\csrc/u8x8_d_ssd1317.c ****       u8x8_cad_SendCmd(u8x8, 0x081 );
 106              		.loc 1 154 0
 107 0054 FFF7FEFF 		bl	u8x8_cad_StartTransfer
 108              	.LVL11:
 155:..\u8g2\csrc/u8x8_d_ssd1317.c ****       u8x8_cad_SendArg(u8x8, arg_int );	/* ssd1306 has range from 0 to 255 */
 109              		.loc 1 155 0
 110 0058 8121     		movs	r1, #129
 111 005a 2846     		mov	r0, r5
 112 005c FFF7FEFF 		bl	u8x8_cad_SendCmd
 113              	.LVL12:
 156:..\u8g2\csrc/u8x8_d_ssd1317.c ****       u8x8_cad_EndTransfer(u8x8);
 114              		.loc 1 156 0
 115 0060 2146     		mov	r1, r4
 116 0062 2846     		mov	r0, r5
 117 0064 FFF7FEFF 		bl	u8x8_cad_SendArg
 118              	.LVL13:
 157:..\u8g2\csrc/u8x8_d_ssd1317.c ****       break;
 119              		.loc 1 157 0
 120 0068 2846     		mov	r0, r5
 121 006a FFF7FEFF 		bl	u8x8_cad_EndTransfer
 122              	.LVL14:
 123              		.loc 1 194 0
 124 006e 0120     		movs	r0, #1
 158:..\u8g2\csrc/u8x8_d_ssd1317.c **** #endif
 125              		.loc 1 158 0
 126 0070 F8BD     		pop	{r3, r4, r5, r6, r7, pc}
 127              	.LVL15:
 128              	.L7:
 161:..\u8g2\csrc/u8x8_d_ssd1317.c ****    x = ((u8x8_tile_t *)arg_ptr)->x_pos;    
 129              		.loc 1 161 0
 130 0072 FFF7FEFF 		bl	u8x8_cad_StartTransfer
 131              	.LVL16:
 162:..\u8g2\csrc/u8x8_d_ssd1317.c ****    x *= 8;
 132              		.loc 1 162 0
 133 0076 7779     		ldrb	r7, [r6, #5]	@ zero_extendqisi2
 134              	.LVL17:
 163:..\u8g2\csrc/u8x8_d_ssd1317.c ****    x += u8x8->x_offset;
ARM GAS  C:\Users\brian\AppData\Local\Temp\ccSLidFV.s 			page 7


 135              		.loc 1 163 0
 136 0078 FF00     		lsls	r7, r7, #3
 137              	.LVL18:
 138 007a FFB2     		uxtb	r7, r7
 139              	.LVL19:
 164:..\u8g2\csrc/u8x8_d_ssd1317.c ****   
 140              		.loc 1 164 0
 141 007c 95F82230 		ldrb	r3, [r5, #34]	@ zero_extendqisi2
 142 0080 1F44     		add	r7, r7, r3
 143              	.LVL20:
 144 0082 FFB2     		uxtb	r7, r7
 145              	.LVL21:
 166:..\u8g2\csrc/u8x8_d_ssd1317.c ****    
 146              		.loc 1 166 0
 147 0084 4021     		movs	r1, #64
 148 0086 2846     		mov	r0, r5
 149 0088 FFF7FEFF 		bl	u8x8_cad_SendCmd
 150              	.LVL22:
 168:..\u8g2\csrc/u8x8_d_ssd1317.c ****    u8x8_cad_SendArg(u8x8, 0x000 | ((x&15)));	/* probably wrong, should be SendCmd */
 151              		.loc 1 168 0
 152 008c 3909     		lsrs	r1, r7, #4
 153 008e 41F01001 		orr	r1, r1, #16
 154 0092 2846     		mov	r0, r5
 155 0094 FFF7FEFF 		bl	u8x8_cad_SendCmd
 156              	.LVL23:
 169:..\u8g2\csrc/u8x8_d_ssd1317.c ****    u8x8_cad_SendArg(u8x8, 0x0b0 | (((u8x8_tile_t *)arg_ptr)->y_pos)); /* probably wrong, should be 
 157              		.loc 1 169 0
 158 0098 07F00F01 		and	r1, r7, #15
 159 009c 2846     		mov	r0, r5
 160 009e FFF7FEFF 		bl	u8x8_cad_SendArg
 161              	.LVL24:
 170:..\u8g2\csrc/u8x8_d_ssd1317.c **** 
 162              		.loc 1 170 0
 163 00a2 B179     		ldrb	r1, [r6, #6]	@ zero_extendqisi2
 164 00a4 41F0B001 		orr	r1, r1, #176
 165 00a8 2846     		mov	r0, r5
 166 00aa FFF7FEFF 		bl	u8x8_cad_SendArg
 167              	.LVL25:
 168              	.L10:
 175:..\u8g2\csrc/u8x8_d_ssd1317.c ****     ptr = ((u8x8_tile_t *)arg_ptr)->tile_ptr;
 169              		.loc 1 175 0 discriminator 1
 170 00ae 3179     		ldrb	r1, [r6, #4]	@ zero_extendqisi2
 171              	.LVL26:
 177:..\u8g2\csrc/u8x8_d_ssd1317.c ****     /*
 172              		.loc 1 177 0 discriminator 1
 173 00b0 C900     		lsls	r1, r1, #3
 174              	.LVL27:
 175 00b2 3268     		ldr	r2, [r6]
 176 00b4 01F0F801 		and	r1, r1, #248
 177 00b8 2846     		mov	r0, r5
 178 00ba FFF7FEFF 		bl	u8x8_cad_SendData
 179              	.LVL28:
 186:..\u8g2\csrc/u8x8_d_ssd1317.c ****       } while( arg_int > 0 );
 180              		.loc 1 186 0 discriminator 1
 181 00be 621E     		subs	r2, r4, #1
 182              	.LVL29:
 187:..\u8g2\csrc/u8x8_d_ssd1317.c ****       
ARM GAS  C:\Users\brian\AppData\Local\Temp\ccSLidFV.s 			page 8


 183              		.loc 1 187 0 discriminator 1
 184 00c0 12F0FF04 		ands	r4, r2, #255
 185 00c4 F3D1     		bne	.L10
 189:..\u8g2\csrc/u8x8_d_ssd1317.c ****       break;
 186              		.loc 1 189 0
 187 00c6 2846     		mov	r0, r5
 188 00c8 FFF7FEFF 		bl	u8x8_cad_EndTransfer
 189              	.LVL30:
 190              		.loc 1 194 0
 191 00cc 0120     		movs	r0, #1
 190:..\u8g2\csrc/u8x8_d_ssd1317.c ****     default:
 192              		.loc 1 190 0
 193 00ce F8BD     		pop	{r3, r4, r5, r6, r7, pc}
 194              	.LVL31:
 195              	.L11:
 192:..\u8g2\csrc/u8x8_d_ssd1317.c ****   }
 196              		.loc 1 192 0
 197 00d0 0020     		movs	r0, #0
 198              	.LVL32:
 195:..\u8g2\csrc/u8x8_d_ssd1317.c **** }
 199              		.loc 1 195 0
 200 00d2 F8BD     		pop	{r3, r4, r5, r6, r7, pc}
 201              	.LVL33:
 202              	.L14:
 203              		.align	2
 204              	.L13:
 205 00d4 00000000 		.word	.LANCHOR0
 206 00d8 08000000 		.word	.LANCHOR0+8
 207 00dc 10000000 		.word	.LANCHOR0+16
 208 00e0 18000000 		.word	.LANCHOR0+24
 209              		.cfi_endproc
 210              	.LFE0:
 211              		.size	u8x8_d_ssd1317_generic, .-u8x8_d_ssd1317_generic
 212              		.section	.text.u8x8_d_ssd1317_96x96,"ax",%progbits
 213              		.align	2
 214              		.global	u8x8_d_ssd1317_96x96
 215              		.thumb
 216              		.thumb_func
 217              		.type	u8x8_d_ssd1317_96x96, %function
 218              	u8x8_d_ssd1317_96x96:
 219              	.LFB1:
 196:..\u8g2\csrc/u8x8_d_ssd1317.c **** 
 197:..\u8g2\csrc/u8x8_d_ssd1317.c **** 
 198:..\u8g2\csrc/u8x8_d_ssd1317.c **** static const u8x8_display_info_t u8x8_ssd1317_96x96_display_info =
 199:..\u8g2\csrc/u8x8_d_ssd1317.c **** {
 200:..\u8g2\csrc/u8x8_d_ssd1317.c ****   /* chip_enable_level = */ 0,
 201:..\u8g2\csrc/u8x8_d_ssd1317.c ****   /* chip_disable_level = */ 1,
 202:..\u8g2\csrc/u8x8_d_ssd1317.c ****   
 203:..\u8g2\csrc/u8x8_d_ssd1317.c ****   /* post_chip_enable_wait_ns = */ 20,
 204:..\u8g2\csrc/u8x8_d_ssd1317.c ****   /* pre_chip_disable_wait_ns = */ 10,
 205:..\u8g2\csrc/u8x8_d_ssd1317.c ****   /* reset_pulse_width_ms = */ 100, 	/* SSD1306: 3 us */
 206:..\u8g2\csrc/u8x8_d_ssd1317.c ****   /* post_reset_wait_ms = */ 100, /* far east OLEDs need much longer setup time */
 207:..\u8g2\csrc/u8x8_d_ssd1317.c ****   /* sda_setup_time_ns = */ 50,		/* SSD1306: 15ns, but cycle time is 100ns, so use 100/2 */
 208:..\u8g2\csrc/u8x8_d_ssd1317.c ****   /* sck_pulse_width_ns = */ 50,	/* SSD1306: 20ns, but cycle time is 100ns, so use 100/2, AVR: belo
 209:..\u8g2\csrc/u8x8_d_ssd1317.c ****   /* sck_clock_hz = */ 8000000UL,	/* since Arduino 1.6.0, the SPI bus speed in Hz. Should be  10000
 210:..\u8g2\csrc/u8x8_d_ssd1317.c ****   /* spi_mode = */ 0,		/* active high, rising edge */
 211:..\u8g2\csrc/u8x8_d_ssd1317.c ****   /* i2c_bus_clock_100kHz = */ 4,
ARM GAS  C:\Users\brian\AppData\Local\Temp\ccSLidFV.s 			page 9


 212:..\u8g2\csrc/u8x8_d_ssd1317.c ****   /* data_setup_time_ns = */ 40,
 213:..\u8g2\csrc/u8x8_d_ssd1317.c ****   /* write_pulse_width_ns = */ 150,	/* SSD1306: cycle time is 300ns, so use 300/2 = 150 */
 214:..\u8g2\csrc/u8x8_d_ssd1317.c ****   /* tile_width = */ 12,
 215:..\u8g2\csrc/u8x8_d_ssd1317.c ****   /* tile_hight = */ 12,
 216:..\u8g2\csrc/u8x8_d_ssd1317.c ****   /* default_x_offset = */ 16,
 217:..\u8g2\csrc/u8x8_d_ssd1317.c ****   /* flipmode_x_offset = */ 16,
 218:..\u8g2\csrc/u8x8_d_ssd1317.c ****   /* pixel_width = */ 96,
 219:..\u8g2\csrc/u8x8_d_ssd1317.c ****   /* pixel_height = */ 96
 220:..\u8g2\csrc/u8x8_d_ssd1317.c **** };
 221:..\u8g2\csrc/u8x8_d_ssd1317.c **** 
 222:..\u8g2\csrc/u8x8_d_ssd1317.c **** uint8_t u8x8_d_ssd1317_96x96(u8x8_t *u8x8, uint8_t msg, uint8_t arg_int, void *arg_ptr)
 223:..\u8g2\csrc/u8x8_d_ssd1317.c **** {
 220              		.loc 1 223 0
 221              		.cfi_startproc
 222              		@ args = 0, pretend = 0, frame = 0
 223              		@ frame_needed = 0, uses_anonymous_args = 0
 224              	.LVL34:
 225 0000 38B5     		push	{r3, r4, r5, lr}
 226              		.cfi_def_cfa_offset 16
 227              		.cfi_offset 3, -16
 228              		.cfi_offset 4, -12
 229              		.cfi_offset 5, -8
 230              		.cfi_offset 14, -4
 231 0002 0546     		mov	r5, r0
 232 0004 0C46     		mov	r4, r1
 224:..\u8g2\csrc/u8x8_d_ssd1317.c ****     
 225:..\u8g2\csrc/u8x8_d_ssd1317.c ****   if ( u8x8_d_ssd1317_generic(u8x8, msg, arg_int, arg_ptr) != 0 )
 233              		.loc 1 225 0
 234 0006 FFF7FEFF 		bl	u8x8_d_ssd1317_generic
 235              	.LVL35:
 236 000a 98B9     		cbnz	r0, .L19
 237 000c 0346     		mov	r3, r0
 226:..\u8g2\csrc/u8x8_d_ssd1317.c ****     return 1;
 227:..\u8g2\csrc/u8x8_d_ssd1317.c ****   
 228:..\u8g2\csrc/u8x8_d_ssd1317.c ****   switch(msg)
 238              		.loc 1 228 0
 239 000e 092C     		cmp	r4, #9
 240 0010 0AD0     		beq	.L17
 241 0012 0A2C     		cmp	r4, #10
 242 0014 0FD1     		bne	.L16
 229:..\u8g2\csrc/u8x8_d_ssd1317.c ****   {
 230:..\u8g2\csrc/u8x8_d_ssd1317.c ****     case U8X8_MSG_DISPLAY_INIT:
 231:..\u8g2\csrc/u8x8_d_ssd1317.c ****       u8x8_d_helper_display_init(u8x8);
 243              		.loc 1 231 0
 244 0016 2846     		mov	r0, r5
 245 0018 FFF7FEFF 		bl	u8x8_d_helper_display_init
 246              	.LVL36:
 232:..\u8g2\csrc/u8x8_d_ssd1317.c ****       u8x8_cad_SendSequence(u8x8, u8x8_d_ssd1317_96x96_init_seq);    
 247              		.loc 1 232 0
 248 001c 0749     		ldr	r1, .L21
 249 001e 2846     		mov	r0, r5
 250 0020 FFF7FEFF 		bl	u8x8_cad_SendSequence
 251              	.LVL37:
 233:..\u8g2\csrc/u8x8_d_ssd1317.c ****       break;
 234:..\u8g2\csrc/u8x8_d_ssd1317.c ****     case U8X8_MSG_DISPLAY_SETUP_MEMORY:
 235:..\u8g2\csrc/u8x8_d_ssd1317.c ****       u8x8_d_helper_display_setup_memory(u8x8, &u8x8_ssd1317_96x96_display_info);
 236:..\u8g2\csrc/u8x8_d_ssd1317.c ****       break;
ARM GAS  C:\Users\brian\AppData\Local\Temp\ccSLidFV.s 			page 10


 237:..\u8g2\csrc/u8x8_d_ssd1317.c ****     default:
 238:..\u8g2\csrc/u8x8_d_ssd1317.c ****       return 0;
 239:..\u8g2\csrc/u8x8_d_ssd1317.c ****   }
 240:..\u8g2\csrc/u8x8_d_ssd1317.c ****   return 1;
 252              		.loc 1 240 0
 253 0024 0123     		movs	r3, #1
 233:..\u8g2\csrc/u8x8_d_ssd1317.c ****       break;
 254              		.loc 1 233 0
 255 0026 06E0     		b	.L16
 256              	.L17:
 235:..\u8g2\csrc/u8x8_d_ssd1317.c ****       break;
 257              		.loc 1 235 0
 258 0028 0549     		ldr	r1, .L21+4
 259 002a 2846     		mov	r0, r5
 260 002c FFF7FEFF 		bl	u8x8_d_helper_display_setup_memory
 261              	.LVL38:
 262              		.loc 1 240 0
 263 0030 0123     		movs	r3, #1
 236:..\u8g2\csrc/u8x8_d_ssd1317.c ****     default:
 264              		.loc 1 236 0
 265 0032 00E0     		b	.L16
 266              	.L19:
 226:..\u8g2\csrc/u8x8_d_ssd1317.c ****   
 267              		.loc 1 226 0
 268 0034 0123     		movs	r3, #1
 269              	.L16:
 241:..\u8g2\csrc/u8x8_d_ssd1317.c **** }
 270              		.loc 1 241 0
 271 0036 1846     		mov	r0, r3
 272 0038 38BD     		pop	{r3, r4, r5, pc}
 273              	.LVL39:
 274              	.L22:
 275 003a 00BF     		.align	2
 276              	.L21:
 277 003c 20000000 		.word	.LANCHOR0+32
 278 0040 58000000 		.word	.LANCHOR0+88
 279              		.cfi_endproc
 280              	.LFE1:
 281              		.size	u8x8_d_ssd1317_96x96, .-u8x8_d_ssd1317_96x96
 282              		.section	.rodata
 283              		.align	2
 284              		.set	.LANCHOR0,. + 0
 285              		.type	u8x8_d_ssd1317_96x96_powersave0_seq, %object
 286              		.size	u8x8_d_ssd1317_96x96_powersave0_seq, 5
 287              	u8x8_d_ssd1317_96x96_powersave0_seq:
 288 0000 18       		.byte	24
 289 0001 15       		.byte	21
 290 0002 AF       		.byte	-81
 291 0003 19       		.byte	25
 292 0004 FF       		.byte	-1
 293 0005 000000   		.space	3
 294              		.type	u8x8_d_ssd1317_96x96_powersave1_seq, %object
 295              		.size	u8x8_d_ssd1317_96x96_powersave1_seq, 5
 296              	u8x8_d_ssd1317_96x96_powersave1_seq:
 297 0008 18       		.byte	24
 298 0009 15       		.byte	21
 299 000a AE       		.byte	-82
ARM GAS  C:\Users\brian\AppData\Local\Temp\ccSLidFV.s 			page 11


 300 000b 19       		.byte	25
 301 000c FF       		.byte	-1
 302 000d 000000   		.space	3
 303              		.type	u8x8_d_ssd1317_96x96_flip0_seq, %object
 304              		.size	u8x8_d_ssd1317_96x96_flip0_seq, 7
 305              	u8x8_d_ssd1317_96x96_flip0_seq:
 306 0010 18       		.byte	24
 307 0011 15       		.byte	21
 308 0012 A1       		.byte	-95
 309 0013 15       		.byte	21
 310 0014 C8       		.byte	-56
 311 0015 19       		.byte	25
 312 0016 FF       		.byte	-1
 313 0017 00       		.space	1
 314              		.type	u8x8_d_ssd1317_96x96_flip1_seq, %object
 315              		.size	u8x8_d_ssd1317_96x96_flip1_seq, 7
 316              	u8x8_d_ssd1317_96x96_flip1_seq:
 317 0018 18       		.byte	24
 318 0019 15       		.byte	21
 319 001a A0       		.byte	-96
 320 001b 15       		.byte	21
 321 001c C8       		.byte	-56
 322 001d 19       		.byte	25
 323 001e FF       		.byte	-1
 324 001f 00       		.space	1
 325              		.type	u8x8_d_ssd1317_96x96_init_seq, %object
 326              		.size	u8x8_d_ssd1317_96x96_init_seq, 55
 327              	u8x8_d_ssd1317_96x96_init_seq:
 328 0020 18       		.byte	24
 329 0021 15       		.byte	21
 330 0022 AE       		.byte	-82
 331 0023 15       		.byte	21
 332 0024 D5       		.byte	-43
 333 0025 16       		.byte	22
 334 0026 D1       		.byte	-47
 335 0027 15       		.byte	21
 336 0028 A8       		.byte	-88
 337 0029 16       		.byte	22
 338 002a 5F       		.byte	95
 339 002b 15       		.byte	21
 340 002c D3       		.byte	-45
 341 002d 16       		.byte	22
 342 002e 00       		.byte	0
 343 002f 15       		.byte	21
 344 0030 A2       		.byte	-94
 345 0031 16       		.byte	22
 346 0032 00       		.byte	0
 347 0033 15       		.byte	21
 348 0034 8D       		.byte	-115
 349 0035 16       		.byte	22
 350 0036 14       		.byte	20
 351 0037 15       		.byte	21
 352 0038 20       		.byte	32
 353 0039 16       		.byte	22
 354 003a 00       		.byte	0
 355 003b 15       		.byte	21
 356 003c A0       		.byte	-96
ARM GAS  C:\Users\brian\AppData\Local\Temp\ccSLidFV.s 			page 12


 357 003d 15       		.byte	21
 358 003e C8       		.byte	-56
 359 003f 15       		.byte	21
 360 0040 DA       		.byte	-38
 361 0041 16       		.byte	22
 362 0042 12       		.byte	18
 363 0043 15       		.byte	21
 364 0044 81       		.byte	-127
 365 0045 16       		.byte	22
 366 0046 9F       		.byte	-97
 367 0047 15       		.byte	21
 368 0048 D9       		.byte	-39
 369 0049 16       		.byte	22
 370 004a F1       		.byte	-15
 371 004b 15       		.byte	21
 372 004c DB       		.byte	-37
 373 004d 16       		.byte	22
 374 004e FF       		.byte	-1
 375 004f 15       		.byte	21
 376 0050 2E       		.byte	46
 377 0051 15       		.byte	21
 378 0052 A4       		.byte	-92
 379 0053 15       		.byte	21
 380 0054 A6       		.byte	-90
 381 0055 19       		.byte	25
 382 0056 FF       		.byte	-1
 383 0057 00       		.space	1
 384              		.type	u8x8_ssd1317_96x96_display_info, %object
 385              		.size	u8x8_ssd1317_96x96_display_info, 24
 386              	u8x8_ssd1317_96x96_display_info:
 387 0058 00       		.byte	0
 388 0059 01       		.byte	1
 389 005a 14       		.byte	20
 390 005b 0A       		.byte	10
 391 005c 64       		.byte	100
 392 005d 64       		.byte	100
 393 005e 32       		.byte	50
 394 005f 32       		.byte	50
 395 0060 00127A00 		.word	8000000
 396 0064 00       		.byte	0
 397 0065 04       		.byte	4
 398 0066 28       		.byte	40
 399 0067 96       		.byte	-106
 400 0068 0C       		.byte	12
 401 0069 0C       		.byte	12
 402 006a 10       		.byte	16
 403 006b 10       		.byte	16
 404 006c 6000     		.short	96
 405 006e 6000     		.short	96
 406              		.text
 407              	.Letext0:
 408              		.file 2 "c:\\program files (x86)\\cypress\\psoc creator\\4.4\\psoc creator\\import\\gnu\\arm\\5.4.
 409              		.file 3 "c:\\program files (x86)\\cypress\\psoc creator\\4.4\\psoc creator\\import\\gnu\\arm\\5.4.
 410              		.file 4 "..\\u8g2\\csrc\\u8x8.h"