ARM GAS  C:\Users\brian\AppData\Local\Temp\ccwFV3ea.s 			page 1


   1              		.syntax unified
   2              		.cpu cortex-m3
   3              		.fpu softvfp
   4              		.eabi_attribute 20, 1
   5              		.eabi_attribute 21, 1
   6              		.eabi_attribute 23, 3
   7              		.eabi_attribute 24, 1
   8              		.eabi_attribute 25, 1
   9              		.eabi_attribute 26, 1
  10              		.eabi_attribute 30, 1
  11              		.eabi_attribute 34, 1
  12              		.eabi_attribute 18, 4
  13              		.thumb
  14              		.syntax unified
  15              		.file	"u8x8_d_st7567.c"
  16              		.text
  17              	.Ltext0:
  18              		.cfi_sections	.debug_frame
  19              		.section	.text.u8x8_d_st7567_enh_dg128064_generic,"ax",%progbits
  20              		.align	2
  21              		.thumb
  22              		.thumb_func
  23              		.type	u8x8_d_st7567_enh_dg128064_generic, %function
  24              	u8x8_d_st7567_enh_dg128064_generic:
  25              	.LFB2:
  26              		.file 1 "..\\u8g2\\csrc\\u8x8_d_st7567.c"
   1:..\u8g2\csrc/u8x8_d_st7567.c **** /*
   2:..\u8g2\csrc/u8x8_d_st7567.c **** 
   3:..\u8g2\csrc/u8x8_d_st7567.c ****   u8x8_d_st7567.c
   4:..\u8g2\csrc/u8x8_d_st7567.c ****   
   5:..\u8g2\csrc/u8x8_d_st7567.c ****   Universal 8bit Graphics Library (https://github.com/olikraus/u8g2/)
   6:..\u8g2\csrc/u8x8_d_st7567.c **** 
   7:..\u8g2\csrc/u8x8_d_st7567.c ****   Copyright (c) 2016, olikraus@gmail.com
   8:..\u8g2\csrc/u8x8_d_st7567.c ****   All rights reserved.
   9:..\u8g2\csrc/u8x8_d_st7567.c **** 
  10:..\u8g2\csrc/u8x8_d_st7567.c ****   Redistribution and use in source and binary forms, with or without modification, 
  11:..\u8g2\csrc/u8x8_d_st7567.c ****   are permitted provided that the following conditions are met:
  12:..\u8g2\csrc/u8x8_d_st7567.c **** 
  13:..\u8g2\csrc/u8x8_d_st7567.c ****   * Redistributions of source code must retain the above copyright notice, this list 
  14:..\u8g2\csrc/u8x8_d_st7567.c ****     of conditions and the following disclaimer.
  15:..\u8g2\csrc/u8x8_d_st7567.c ****     
  16:..\u8g2\csrc/u8x8_d_st7567.c ****   * Redistributions in binary form must reproduce the above copyright notice, this 
  17:..\u8g2\csrc/u8x8_d_st7567.c ****     list of conditions and the following disclaimer in the documentation and/or other 
  18:..\u8g2\csrc/u8x8_d_st7567.c ****     materials provided with the distribution.
  19:..\u8g2\csrc/u8x8_d_st7567.c **** 
  20:..\u8g2\csrc/u8x8_d_st7567.c ****   THIS SOFTWARE IS PROVIDED BY THE COPYRIGHT HOLDERS AND 
  21:..\u8g2\csrc/u8x8_d_st7567.c ****   CONTRIBUTORS "AS IS" AND ANY EXPRESS OR IMPLIED WARRANTIES, 
  22:..\u8g2\csrc/u8x8_d_st7567.c ****   INCLUDING, BUT NOT LIMITED TO, THE IMPLIED WARRANTIES OF 
  23:..\u8g2\csrc/u8x8_d_st7567.c ****   MERCHANTABILITY AND FITNESS FOR A PARTICULAR PURPOSE ARE 
  24:..\u8g2\csrc/u8x8_d_st7567.c ****   DISCLAIMED. IN NO EVENT SHALL THE COPYRIGHT HOLDER OR 
  25:..\u8g2\csrc/u8x8_d_st7567.c ****   CONTRIBUTORS BE LIABLE FOR ANY DIRECT, INDIRECT, INCIDENTAL, 
  26:..\u8g2\csrc/u8x8_d_st7567.c ****   SPECIAL, EXEMPLARY, OR CONSEQUENTIAL DAMAGES (INCLUDING, BUT 
  27:..\u8g2\csrc/u8x8_d_st7567.c ****   NOT LIMITED TO, PROCUREMENT OF SUBSTITUTE GOODS OR SERVICES; 
  28:..\u8g2\csrc/u8x8_d_st7567.c ****   LOSS OF USE, DATA, OR PROFITS; OR BUSINESS INTERRUPTION) HOWEVER 
  29:..\u8g2\csrc/u8x8_d_st7567.c ****   CAUSED AND ON ANY THEORY OF LIABILITY, WHETHER IN CONTRACT, 
  30:..\u8g2\csrc/u8x8_d_st7567.c ****   STRICT LIABILITY, OR TORT (INCLUDING NEGLIGENCE OR OTHERWISE) 
  31:..\u8g2\csrc/u8x8_d_st7567.c ****   ARISING IN ANY WAY OUT OF THE USE OF THIS SOFTWARE, EVEN IF 
ARM GAS  C:\Users\brian\AppData\Local\Temp\ccwFV3ea.s 			page 2


  32:..\u8g2\csrc/u8x8_d_st7567.c ****   ADVISED OF THE POSSIBILITY OF SUCH DAMAGE.  
  33:..\u8g2\csrc/u8x8_d_st7567.c **** 
  34:..\u8g2\csrc/u8x8_d_st7567.c ****   
  35:..\u8g2\csrc/u8x8_d_st7567.c **** */
  36:..\u8g2\csrc/u8x8_d_st7567.c **** #include "u8x8.h"
  37:..\u8g2\csrc/u8x8_d_st7567.c **** 
  38:..\u8g2\csrc/u8x8_d_st7567.c **** 
  39:..\u8g2\csrc/u8x8_d_st7567.c **** 
  40:..\u8g2\csrc/u8x8_d_st7567.c **** 
  41:..\u8g2\csrc/u8x8_d_st7567.c **** static const uint8_t u8x8_d_st7567_132x64_powersave0_seq[] = {
  42:..\u8g2\csrc/u8x8_d_st7567.c ****   U8X8_START_TRANSFER(),             	/* enable chip, delay is part of the transfer start */
  43:..\u8g2\csrc/u8x8_d_st7567.c ****   U8X8_C(0x0a4),		                /* all pixel off, issue 142 */
  44:..\u8g2\csrc/u8x8_d_st7567.c ****   U8X8_C(0x0af),		                /* display on */
  45:..\u8g2\csrc/u8x8_d_st7567.c ****   U8X8_END_TRANSFER(),             	/* disable chip */
  46:..\u8g2\csrc/u8x8_d_st7567.c ****   U8X8_END()             			/* end of sequence */
  47:..\u8g2\csrc/u8x8_d_st7567.c **** };
  48:..\u8g2\csrc/u8x8_d_st7567.c **** 
  49:..\u8g2\csrc/u8x8_d_st7567.c **** static const uint8_t u8x8_d_st7567_132x64_powersave1_seq[] = {
  50:..\u8g2\csrc/u8x8_d_st7567.c ****   U8X8_START_TRANSFER(),             	/* enable chip, delay is part of the transfer start */
  51:..\u8g2\csrc/u8x8_d_st7567.c ****   U8X8_C(0x0ae),		                /* display off */
  52:..\u8g2\csrc/u8x8_d_st7567.c ****   U8X8_C(0x0a5),		                /* enter powersafe: all pixel on, issue 142 */
  53:..\u8g2\csrc/u8x8_d_st7567.c ****   U8X8_END_TRANSFER(),             	/* disable chip */
  54:..\u8g2\csrc/u8x8_d_st7567.c ****   U8X8_END()             			/* end of sequence */
  55:..\u8g2\csrc/u8x8_d_st7567.c **** };
  56:..\u8g2\csrc/u8x8_d_st7567.c **** 
  57:..\u8g2\csrc/u8x8_d_st7567.c **** static const uint8_t u8x8_d_st7567_132x64_flip0_seq[] = {
  58:..\u8g2\csrc/u8x8_d_st7567.c ****   U8X8_START_TRANSFER(),             	/* enable chip, delay is part of the transfer start */
  59:..\u8g2\csrc/u8x8_d_st7567.c ****   U8X8_C(0x0a1),				/* segment remap a0/a1*/
  60:..\u8g2\csrc/u8x8_d_st7567.c ****   U8X8_C(0x0c0),				/* c0: scan dir normal, c8: reverse */
  61:..\u8g2\csrc/u8x8_d_st7567.c ****   U8X8_END_TRANSFER(),             	/* disable chip */
  62:..\u8g2\csrc/u8x8_d_st7567.c ****   U8X8_END()             			/* end of sequence */
  63:..\u8g2\csrc/u8x8_d_st7567.c **** };
  64:..\u8g2\csrc/u8x8_d_st7567.c **** 
  65:..\u8g2\csrc/u8x8_d_st7567.c **** static const uint8_t u8x8_d_st7567_132x64_flip1_seq[] = {
  66:..\u8g2\csrc/u8x8_d_st7567.c ****   U8X8_START_TRANSFER(),             	/* enable chip, delay is part of the transfer start */
  67:..\u8g2\csrc/u8x8_d_st7567.c ****   U8X8_C(0x0a0),				/* segment remap a0/a1*/
  68:..\u8g2\csrc/u8x8_d_st7567.c ****   U8X8_C(0x0c8),				/* c0: scan dir normal, c8: reverse */
  69:..\u8g2\csrc/u8x8_d_st7567.c ****   U8X8_END_TRANSFER(),             	/* disable chip */
  70:..\u8g2\csrc/u8x8_d_st7567.c ****   U8X8_END()             			/* end of sequence */
  71:..\u8g2\csrc/u8x8_d_st7567.c **** };
  72:..\u8g2\csrc/u8x8_d_st7567.c **** 
  73:..\u8g2\csrc/u8x8_d_st7567.c **** static const uint8_t u8x8_d_st7567_n_flip0_seq[] = {
  74:..\u8g2\csrc/u8x8_d_st7567.c ****   U8X8_START_TRANSFER(),             	/* enable chip, delay is part of the transfer start */
  75:..\u8g2\csrc/u8x8_d_st7567.c ****   U8X8_C(0x0a0),				/* segment remap a0/a1*/
  76:..\u8g2\csrc/u8x8_d_st7567.c ****   U8X8_C(0x0c0),				/* c0: scan dir normal, c8: reverse */
  77:..\u8g2\csrc/u8x8_d_st7567.c ****   U8X8_END_TRANSFER(),             	/* disable chip */
  78:..\u8g2\csrc/u8x8_d_st7567.c ****   U8X8_END()             			/* end of sequence */
  79:..\u8g2\csrc/u8x8_d_st7567.c **** };
  80:..\u8g2\csrc/u8x8_d_st7567.c **** 
  81:..\u8g2\csrc/u8x8_d_st7567.c **** static const uint8_t u8x8_d_st7567_n_flip1_seq[] = {
  82:..\u8g2\csrc/u8x8_d_st7567.c ****   U8X8_START_TRANSFER(),             	/* enable chip, delay is part of the transfer start */
  83:..\u8g2\csrc/u8x8_d_st7567.c ****   U8X8_C(0x0a1),				/* segment remap a0/a1*/
  84:..\u8g2\csrc/u8x8_d_st7567.c ****   U8X8_C(0x0c8),				/* c0: scan dir normal, c8: reverse */
  85:..\u8g2\csrc/u8x8_d_st7567.c ****   U8X8_END_TRANSFER(),             	/* disable chip */
  86:..\u8g2\csrc/u8x8_d_st7567.c ****   U8X8_END()             			/* end of sequence */
  87:..\u8g2\csrc/u8x8_d_st7567.c **** };
  88:..\u8g2\csrc/u8x8_d_st7567.c **** 
ARM GAS  C:\Users\brian\AppData\Local\Temp\ccwFV3ea.s 			page 3


  89:..\u8g2\csrc/u8x8_d_st7567.c **** 
  90:..\u8g2\csrc/u8x8_d_st7567.c **** 
  91:..\u8g2\csrc/u8x8_d_st7567.c **** /*=====================================================*/
  92:..\u8g2\csrc/u8x8_d_st7567.c **** 
  93:..\u8g2\csrc/u8x8_d_st7567.c **** 
  94:..\u8g2\csrc/u8x8_d_st7567.c **** static const u8x8_display_info_t u8x8_st7567_132x64_display_info =
  95:..\u8g2\csrc/u8x8_d_st7567.c **** {
  96:..\u8g2\csrc/u8x8_d_st7567.c ****   /* chip_enable_level = */ 0,
  97:..\u8g2\csrc/u8x8_d_st7567.c ****   /* chip_disable_level = */ 1,
  98:..\u8g2\csrc/u8x8_d_st7567.c ****   
  99:..\u8g2\csrc/u8x8_d_st7567.c ****   /* post_chip_enable_wait_ns = */ 150,	/* */
 100:..\u8g2\csrc/u8x8_d_st7567.c ****   /* pre_chip_disable_wait_ns = */ 50,	/* */
 101:..\u8g2\csrc/u8x8_d_st7567.c ****   /* reset_pulse_width_ms = */ 1, 
 102:..\u8g2\csrc/u8x8_d_st7567.c ****   /* post_reset_wait_ms = */ 1, 
 103:..\u8g2\csrc/u8x8_d_st7567.c ****   /* sda_setup_time_ns = */ 50,		/* */
 104:..\u8g2\csrc/u8x8_d_st7567.c ****   /* sck_pulse_width_ns = */ 120,	/* */
 105:..\u8g2\csrc/u8x8_d_st7567.c ****   /* sck_clock_hz = */ 4000000UL,	/* */
 106:..\u8g2\csrc/u8x8_d_st7567.c ****   /* spi_mode = */ 0,		/* active high, rising edge */
 107:..\u8g2\csrc/u8x8_d_st7567.c ****   /* i2c_bus_clock_100kHz = */ 4,
 108:..\u8g2\csrc/u8x8_d_st7567.c ****   /* data_setup_time_ns = */ 40,	/* */
 109:..\u8g2\csrc/u8x8_d_st7567.c ****   /* write_pulse_width_ns = */ 80,	/* */
 110:..\u8g2\csrc/u8x8_d_st7567.c ****   /* tile_width = */ 17,		/* width of 17*8=136 pixel */
 111:..\u8g2\csrc/u8x8_d_st7567.c ****   /* tile_hight = */ 8,
 112:..\u8g2\csrc/u8x8_d_st7567.c ****   /* default_x_offset = */ 0,
 113:..\u8g2\csrc/u8x8_d_st7567.c ****   /* flipmode_x_offset = */ 0,
 114:..\u8g2\csrc/u8x8_d_st7567.c ****   /* pixel_width = */ 132,
 115:..\u8g2\csrc/u8x8_d_st7567.c ****   /* pixel_height = */ 64
 116:..\u8g2\csrc/u8x8_d_st7567.c **** };
 117:..\u8g2\csrc/u8x8_d_st7567.c **** 
 118:..\u8g2\csrc/u8x8_d_st7567.c **** static const uint8_t u8x8_d_st7567_132x64_init_seq[] = {
 119:..\u8g2\csrc/u8x8_d_st7567.c ****     
 120:..\u8g2\csrc/u8x8_d_st7567.c ****   U8X8_START_TRANSFER(),             	/* enable chip, delay is part of the transfer start */
 121:..\u8g2\csrc/u8x8_d_st7567.c ****   
 122:..\u8g2\csrc/u8x8_d_st7567.c ****   U8X8_C(0x0e2),            			/* soft reset */
 123:..\u8g2\csrc/u8x8_d_st7567.c ****   U8X8_C(0x0ae),		                /* display off */
 124:..\u8g2\csrc/u8x8_d_st7567.c ****   U8X8_C(0x040),		                /* set display start line to 0 */
 125:..\u8g2\csrc/u8x8_d_st7567.c ****   
 126:..\u8g2\csrc/u8x8_d_st7567.c ****   U8X8_C(0x0a1),		                /* ADC set to reverse */
 127:..\u8g2\csrc/u8x8_d_st7567.c ****   U8X8_C(0x0c0),		                /* common output mode */
 128:..\u8g2\csrc/u8x8_d_st7567.c ****   // Flipmode
 129:..\u8g2\csrc/u8x8_d_st7567.c ****   //U8X8_C(0x0a0),		                /* ADC set to reverse */
 130:..\u8g2\csrc/u8x8_d_st7567.c ****   //U8X8_C(0x0c8),		                /* common output mode */
 131:..\u8g2\csrc/u8x8_d_st7567.c ****   
 132:..\u8g2\csrc/u8x8_d_st7567.c ****   U8X8_C(0x0a6),		                /* display normal, bit val 0: LCD pixel off. */
 133:..\u8g2\csrc/u8x8_d_st7567.c ****   U8X8_C(0x0a3),		                /* LCD bias 1/7 */
 134:..\u8g2\csrc/u8x8_d_st7567.c ****   /* power on sequence from paxinstruments */
 135:..\u8g2\csrc/u8x8_d_st7567.c ****   U8X8_C(0x028|4),		                /* all power  control circuits on */
 136:..\u8g2\csrc/u8x8_d_st7567.c ****   U8X8_DLY(50),
 137:..\u8g2\csrc/u8x8_d_st7567.c ****   U8X8_C(0x028|6),		                /* all power  control circuits on */
 138:..\u8g2\csrc/u8x8_d_st7567.c ****   U8X8_DLY(50),
 139:..\u8g2\csrc/u8x8_d_st7567.c ****   U8X8_C(0x028|7),		                /* all power  control circuits on */
 140:..\u8g2\csrc/u8x8_d_st7567.c ****   U8X8_DLY(50),
 141:..\u8g2\csrc/u8x8_d_st7567.c ****   
 142:..\u8g2\csrc/u8x8_d_st7567.c ****   U8X8_C(0x026),		                /* v0 voltage resistor ratio */
 143:..\u8g2\csrc/u8x8_d_st7567.c ****   U8X8_CA(0x081, 0x027),		/* set contrast, contrast value*/
 144:..\u8g2\csrc/u8x8_d_st7567.c ****   
 145:..\u8g2\csrc/u8x8_d_st7567.c ****   U8X8_C(0x0ae),		                /* display off */
ARM GAS  C:\Users\brian\AppData\Local\Temp\ccwFV3ea.s 			page 4


 146:..\u8g2\csrc/u8x8_d_st7567.c ****   U8X8_C(0x0a5),		                /* enter powersafe: all pixel on, issue 142 */
 147:..\u8g2\csrc/u8x8_d_st7567.c ****    
 148:..\u8g2\csrc/u8x8_d_st7567.c ****   U8X8_END_TRANSFER(),             	/* disable chip */
 149:..\u8g2\csrc/u8x8_d_st7567.c ****   U8X8_END()             			/* end of sequence */
 150:..\u8g2\csrc/u8x8_d_st7567.c **** };
 151:..\u8g2\csrc/u8x8_d_st7567.c **** 
 152:..\u8g2\csrc/u8x8_d_st7567.c **** /* pax instruments 132x64 display */
 153:..\u8g2\csrc/u8x8_d_st7567.c **** uint8_t u8x8_d_st7567_pi_132x64(u8x8_t *u8x8, uint8_t msg, uint8_t arg_int, void *arg_ptr)
 154:..\u8g2\csrc/u8x8_d_st7567.c **** {
 155:..\u8g2\csrc/u8x8_d_st7567.c ****   uint8_t x, c;
 156:..\u8g2\csrc/u8x8_d_st7567.c ****   uint8_t *ptr;
 157:..\u8g2\csrc/u8x8_d_st7567.c ****   switch(msg)
 158:..\u8g2\csrc/u8x8_d_st7567.c ****   {
 159:..\u8g2\csrc/u8x8_d_st7567.c ****     case U8X8_MSG_DISPLAY_SETUP_MEMORY:
 160:..\u8g2\csrc/u8x8_d_st7567.c ****       u8x8_d_helper_display_setup_memory(u8x8, &u8x8_st7567_132x64_display_info);
 161:..\u8g2\csrc/u8x8_d_st7567.c ****       break;
 162:..\u8g2\csrc/u8x8_d_st7567.c ****     case U8X8_MSG_DISPLAY_INIT:
 163:..\u8g2\csrc/u8x8_d_st7567.c ****       u8x8_d_helper_display_init(u8x8);
 164:..\u8g2\csrc/u8x8_d_st7567.c ****       u8x8_cad_SendSequence(u8x8, u8x8_d_st7567_132x64_init_seq);
 165:..\u8g2\csrc/u8x8_d_st7567.c ****       break;
 166:..\u8g2\csrc/u8x8_d_st7567.c ****     case U8X8_MSG_DISPLAY_SET_POWER_SAVE:
 167:..\u8g2\csrc/u8x8_d_st7567.c ****       if ( arg_int == 0 )
 168:..\u8g2\csrc/u8x8_d_st7567.c **** 	u8x8_cad_SendSequence(u8x8, u8x8_d_st7567_132x64_powersave0_seq);
 169:..\u8g2\csrc/u8x8_d_st7567.c ****       else
 170:..\u8g2\csrc/u8x8_d_st7567.c **** 	u8x8_cad_SendSequence(u8x8, u8x8_d_st7567_132x64_powersave1_seq);
 171:..\u8g2\csrc/u8x8_d_st7567.c ****       break;
 172:..\u8g2\csrc/u8x8_d_st7567.c ****     case U8X8_MSG_DISPLAY_SET_FLIP_MODE:
 173:..\u8g2\csrc/u8x8_d_st7567.c ****       if ( arg_int == 0 )
 174:..\u8g2\csrc/u8x8_d_st7567.c ****       {
 175:..\u8g2\csrc/u8x8_d_st7567.c **** 	u8x8_cad_SendSequence(u8x8, u8x8_d_st7567_132x64_flip0_seq);
 176:..\u8g2\csrc/u8x8_d_st7567.c **** 	u8x8->x_offset = u8x8->display_info->default_x_offset;
 177:..\u8g2\csrc/u8x8_d_st7567.c ****       }
 178:..\u8g2\csrc/u8x8_d_st7567.c ****       else
 179:..\u8g2\csrc/u8x8_d_st7567.c ****       {
 180:..\u8g2\csrc/u8x8_d_st7567.c **** 	u8x8_cad_SendSequence(u8x8, u8x8_d_st7567_132x64_flip1_seq);
 181:..\u8g2\csrc/u8x8_d_st7567.c **** 	u8x8->x_offset = u8x8->display_info->flipmode_x_offset;
 182:..\u8g2\csrc/u8x8_d_st7567.c ****       }	
 183:..\u8g2\csrc/u8x8_d_st7567.c ****       break;
 184:..\u8g2\csrc/u8x8_d_st7567.c **** #ifdef U8X8_WITH_SET_CONTRAST
 185:..\u8g2\csrc/u8x8_d_st7567.c ****     case U8X8_MSG_DISPLAY_SET_CONTRAST:
 186:..\u8g2\csrc/u8x8_d_st7567.c ****       u8x8_cad_StartTransfer(u8x8);
 187:..\u8g2\csrc/u8x8_d_st7567.c ****       u8x8_cad_SendCmd(u8x8, 0x081 );
 188:..\u8g2\csrc/u8x8_d_st7567.c ****       u8x8_cad_SendArg(u8x8, arg_int >> 2 );	/* st7567 has range from 0 to 63 */
 189:..\u8g2\csrc/u8x8_d_st7567.c ****       u8x8_cad_EndTransfer(u8x8);
 190:..\u8g2\csrc/u8x8_d_st7567.c ****       break;
 191:..\u8g2\csrc/u8x8_d_st7567.c **** #endif
 192:..\u8g2\csrc/u8x8_d_st7567.c ****     case U8X8_MSG_DISPLAY_DRAW_TILE:
 193:..\u8g2\csrc/u8x8_d_st7567.c ****       u8x8_cad_StartTransfer(u8x8);
 194:..\u8g2\csrc/u8x8_d_st7567.c ****     
 195:..\u8g2\csrc/u8x8_d_st7567.c ****       x = ((u8x8_tile_t *)arg_ptr)->x_pos;
 196:..\u8g2\csrc/u8x8_d_st7567.c ****       x *= 8;
 197:..\u8g2\csrc/u8x8_d_st7567.c ****       x += u8x8->x_offset;
 198:..\u8g2\csrc/u8x8_d_st7567.c ****       u8x8_cad_SendCmd(u8x8, 0x010 | (x>>4) );
 199:..\u8g2\csrc/u8x8_d_st7567.c ****       u8x8_cad_SendCmd(u8x8, 0x000 | ((x&15)));
 200:..\u8g2\csrc/u8x8_d_st7567.c ****       u8x8_cad_SendCmd(u8x8, 0x0b0 | (((u8x8_tile_t *)arg_ptr)->y_pos));
 201:..\u8g2\csrc/u8x8_d_st7567.c ****     
 202:..\u8g2\csrc/u8x8_d_st7567.c ****       c = ((u8x8_tile_t *)arg_ptr)->cnt;
ARM GAS  C:\Users\brian\AppData\Local\Temp\ccwFV3ea.s 			page 5


 203:..\u8g2\csrc/u8x8_d_st7567.c ****       c *= 8;
 204:..\u8g2\csrc/u8x8_d_st7567.c ****       ptr = ((u8x8_tile_t *)arg_ptr)->tile_ptr;
 205:..\u8g2\csrc/u8x8_d_st7567.c ****       /* 
 206:..\u8g2\csrc/u8x8_d_st7567.c **** 	The following if condition checks the hardware limits of the st7567 
 207:..\u8g2\csrc/u8x8_d_st7567.c **** 	controller: It is not allowed to write beyond the display limits.
 208:..\u8g2\csrc/u8x8_d_st7567.c **** 	This is in fact an issue within flip mode.
 209:..\u8g2\csrc/u8x8_d_st7567.c ****       */
 210:..\u8g2\csrc/u8x8_d_st7567.c ****       if ( c + x > 132u )
 211:..\u8g2\csrc/u8x8_d_st7567.c ****       {
 212:..\u8g2\csrc/u8x8_d_st7567.c **** 	c = 132u;
 213:..\u8g2\csrc/u8x8_d_st7567.c **** 	c -= x;
 214:..\u8g2\csrc/u8x8_d_st7567.c ****       }
 215:..\u8g2\csrc/u8x8_d_st7567.c ****       do
 216:..\u8g2\csrc/u8x8_d_st7567.c ****       {
 217:..\u8g2\csrc/u8x8_d_st7567.c **** 	u8x8_cad_SendData(u8x8, c, ptr);	/* note: SendData can not handle more than 255 bytes */
 218:..\u8g2\csrc/u8x8_d_st7567.c **** 	arg_int--;
 219:..\u8g2\csrc/u8x8_d_st7567.c ****       } while( arg_int > 0 );
 220:..\u8g2\csrc/u8x8_d_st7567.c ****       
 221:..\u8g2\csrc/u8x8_d_st7567.c ****       u8x8_cad_EndTransfer(u8x8);
 222:..\u8g2\csrc/u8x8_d_st7567.c ****       break;
 223:..\u8g2\csrc/u8x8_d_st7567.c ****     default:
 224:..\u8g2\csrc/u8x8_d_st7567.c ****       return 0;
 225:..\u8g2\csrc/u8x8_d_st7567.c ****   }
 226:..\u8g2\csrc/u8x8_d_st7567.c ****   return 1;
 227:..\u8g2\csrc/u8x8_d_st7567.c **** }
 228:..\u8g2\csrc/u8x8_d_st7567.c **** 
 229:..\u8g2\csrc/u8x8_d_st7567.c **** 
 230:..\u8g2\csrc/u8x8_d_st7567.c **** 
 231:..\u8g2\csrc/u8x8_d_st7567.c **** 
 232:..\u8g2\csrc/u8x8_d_st7567.c **** /*=====================================================*/
 233:..\u8g2\csrc/u8x8_d_st7567.c **** 
 234:..\u8g2\csrc/u8x8_d_st7567.c **** 
 235:..\u8g2\csrc/u8x8_d_st7567.c **** 
 236:..\u8g2\csrc/u8x8_d_st7567.c **** 
 237:..\u8g2\csrc/u8x8_d_st7567.c **** 
 238:..\u8g2\csrc/u8x8_d_st7567.c **** static const u8x8_display_info_t u8x8_st7567_jlx12864_display_info =
 239:..\u8g2\csrc/u8x8_d_st7567.c **** {
 240:..\u8g2\csrc/u8x8_d_st7567.c ****   /* chip_enable_level = */ 0,
 241:..\u8g2\csrc/u8x8_d_st7567.c ****   /* chip_disable_level = */ 1,
 242:..\u8g2\csrc/u8x8_d_st7567.c ****   
 243:..\u8g2\csrc/u8x8_d_st7567.c ****   /* post_chip_enable_wait_ns = */ 150,	/* */
 244:..\u8g2\csrc/u8x8_d_st7567.c ****   /* pre_chip_disable_wait_ns = */ 50,	/* */
 245:..\u8g2\csrc/u8x8_d_st7567.c ****   /* reset_pulse_width_ms = */ 1, 
 246:..\u8g2\csrc/u8x8_d_st7567.c ****   /* post_reset_wait_ms = */ 1, 
 247:..\u8g2\csrc/u8x8_d_st7567.c ****   /* sda_setup_time_ns = */ 50,		/* */
 248:..\u8g2\csrc/u8x8_d_st7567.c ****   /* sck_pulse_width_ns = */ 120,	/* */
 249:..\u8g2\csrc/u8x8_d_st7567.c ****   /* sck_clock_hz = */ 4000000UL,	/* */
 250:..\u8g2\csrc/u8x8_d_st7567.c ****   /* spi_mode = */ 0,		/* active high, rising edge */
 251:..\u8g2\csrc/u8x8_d_st7567.c ****   /* i2c_bus_clock_100kHz = */ 4,
 252:..\u8g2\csrc/u8x8_d_st7567.c ****   /* data_setup_time_ns = */ 40,	/* */
 253:..\u8g2\csrc/u8x8_d_st7567.c ****   /* write_pulse_width_ns = */ 80,	/* */
 254:..\u8g2\csrc/u8x8_d_st7567.c ****   /* tile_width = */ 16,		/* width of 16*8=128 pixel */
 255:..\u8g2\csrc/u8x8_d_st7567.c ****   /* tile_hight = */ 8,
 256:..\u8g2\csrc/u8x8_d_st7567.c ****   /* default_x_offset = */ 4,
 257:..\u8g2\csrc/u8x8_d_st7567.c ****   /* flipmode_x_offset = */ 0,
 258:..\u8g2\csrc/u8x8_d_st7567.c ****   /* pixel_width = */ 128,
 259:..\u8g2\csrc/u8x8_d_st7567.c ****   /* pixel_height = */ 64
ARM GAS  C:\Users\brian\AppData\Local\Temp\ccwFV3ea.s 			page 6


 260:..\u8g2\csrc/u8x8_d_st7567.c **** };
 261:..\u8g2\csrc/u8x8_d_st7567.c **** 
 262:..\u8g2\csrc/u8x8_d_st7567.c **** static const uint8_t u8x8_st7567_jlx12864_init_seq[] = {
 263:..\u8g2\csrc/u8x8_d_st7567.c ****     
 264:..\u8g2\csrc/u8x8_d_st7567.c ****   U8X8_START_TRANSFER(),             	/* enable chip, delay is part of the transfer start */
 265:..\u8g2\csrc/u8x8_d_st7567.c ****   
 266:..\u8g2\csrc/u8x8_d_st7567.c ****   U8X8_C(0x0e2),            			/* soft reset */
 267:..\u8g2\csrc/u8x8_d_st7567.c ****   U8X8_C(0x0ae),		                /* display off */
 268:..\u8g2\csrc/u8x8_d_st7567.c ****   U8X8_C(0x040),		                /* set display start line to 0 */
 269:..\u8g2\csrc/u8x8_d_st7567.c ****   
 270:..\u8g2\csrc/u8x8_d_st7567.c ****   U8X8_C(0x0a1),		                /* ADC set to reverse */
 271:..\u8g2\csrc/u8x8_d_st7567.c ****   U8X8_C(0x0c0),		                /* common output mode */
 272:..\u8g2\csrc/u8x8_d_st7567.c ****   // Flipmode
 273:..\u8g2\csrc/u8x8_d_st7567.c ****   //U8X8_C(0x0a0),		                /* ADC set to reverse */
 274:..\u8g2\csrc/u8x8_d_st7567.c ****   //U8X8_C(0x0c8),		                /* common output mode */
 275:..\u8g2\csrc/u8x8_d_st7567.c ****   
 276:..\u8g2\csrc/u8x8_d_st7567.c ****   U8X8_C(0x0a6),		                /* display normal, bit val 0: LCD pixel off. */
 277:..\u8g2\csrc/u8x8_d_st7567.c ****   U8X8_C(0x0a3),		                /* LCD bias 1/7 */
 278:..\u8g2\csrc/u8x8_d_st7567.c ****   /* power on sequence from paxinstruments */
 279:..\u8g2\csrc/u8x8_d_st7567.c ****   U8X8_C(0x028|4),		                /* all power  control circuits on */
 280:..\u8g2\csrc/u8x8_d_st7567.c ****   U8X8_DLY(50),
 281:..\u8g2\csrc/u8x8_d_st7567.c ****   U8X8_C(0x028|6),		                /* all power  control circuits on */
 282:..\u8g2\csrc/u8x8_d_st7567.c ****   U8X8_DLY(50),
 283:..\u8g2\csrc/u8x8_d_st7567.c ****   U8X8_C(0x028|7),		                /* all power  control circuits on */
 284:..\u8g2\csrc/u8x8_d_st7567.c ****   U8X8_DLY(50),
 285:..\u8g2\csrc/u8x8_d_st7567.c ****   
 286:..\u8g2\csrc/u8x8_d_st7567.c ****   U8X8_C(0x023),		                /* v0 voltage resistor ratio */
 287:..\u8g2\csrc/u8x8_d_st7567.c ****   U8X8_CA(0x081, 42>>2),		/* set contrast, contrast value*/
 288:..\u8g2\csrc/u8x8_d_st7567.c ****   
 289:..\u8g2\csrc/u8x8_d_st7567.c ****   U8X8_C(0x0ae),		                /* display off */
 290:..\u8g2\csrc/u8x8_d_st7567.c ****   U8X8_C(0x0a5),		                /* enter powersafe: all pixel on, issue 142 */
 291:..\u8g2\csrc/u8x8_d_st7567.c ****    
 292:..\u8g2\csrc/u8x8_d_st7567.c ****   U8X8_END_TRANSFER(),             	/* disable chip */
 293:..\u8g2\csrc/u8x8_d_st7567.c ****   U8X8_END()             			/* end of sequence */
 294:..\u8g2\csrc/u8x8_d_st7567.c **** };
 295:..\u8g2\csrc/u8x8_d_st7567.c **** 
 296:..\u8g2\csrc/u8x8_d_st7567.c **** /* JLX12864 display */
 297:..\u8g2\csrc/u8x8_d_st7567.c **** uint8_t u8x8_d_st7567_jlx12864(u8x8_t *u8x8, uint8_t msg, uint8_t arg_int, void *arg_ptr)
 298:..\u8g2\csrc/u8x8_d_st7567.c **** {
 299:..\u8g2\csrc/u8x8_d_st7567.c ****   uint8_t x, c;
 300:..\u8g2\csrc/u8x8_d_st7567.c ****   uint8_t *ptr;
 301:..\u8g2\csrc/u8x8_d_st7567.c ****   switch(msg)
 302:..\u8g2\csrc/u8x8_d_st7567.c ****   {
 303:..\u8g2\csrc/u8x8_d_st7567.c ****     case U8X8_MSG_DISPLAY_SETUP_MEMORY:
 304:..\u8g2\csrc/u8x8_d_st7567.c ****       u8x8_d_helper_display_setup_memory(u8x8, &u8x8_st7567_jlx12864_display_info);
 305:..\u8g2\csrc/u8x8_d_st7567.c ****       break;
 306:..\u8g2\csrc/u8x8_d_st7567.c ****     case U8X8_MSG_DISPLAY_INIT:
 307:..\u8g2\csrc/u8x8_d_st7567.c ****       u8x8_d_helper_display_init(u8x8);
 308:..\u8g2\csrc/u8x8_d_st7567.c ****       u8x8_cad_SendSequence(u8x8, u8x8_st7567_jlx12864_init_seq);
 309:..\u8g2\csrc/u8x8_d_st7567.c ****       break;
 310:..\u8g2\csrc/u8x8_d_st7567.c ****     case U8X8_MSG_DISPLAY_SET_POWER_SAVE:
 311:..\u8g2\csrc/u8x8_d_st7567.c ****       if ( arg_int == 0 )
 312:..\u8g2\csrc/u8x8_d_st7567.c **** 	u8x8_cad_SendSequence(u8x8, u8x8_d_st7567_132x64_powersave0_seq);
 313:..\u8g2\csrc/u8x8_d_st7567.c ****       else
 314:..\u8g2\csrc/u8x8_d_st7567.c **** 	u8x8_cad_SendSequence(u8x8, u8x8_d_st7567_132x64_powersave1_seq);
 315:..\u8g2\csrc/u8x8_d_st7567.c ****       break;
 316:..\u8g2\csrc/u8x8_d_st7567.c ****     case U8X8_MSG_DISPLAY_SET_FLIP_MODE:
ARM GAS  C:\Users\brian\AppData\Local\Temp\ccwFV3ea.s 			page 7


 317:..\u8g2\csrc/u8x8_d_st7567.c ****       if ( arg_int == 0 )
 318:..\u8g2\csrc/u8x8_d_st7567.c ****       {
 319:..\u8g2\csrc/u8x8_d_st7567.c **** 	u8x8_cad_SendSequence(u8x8, u8x8_d_st7567_132x64_flip0_seq);
 320:..\u8g2\csrc/u8x8_d_st7567.c **** 	u8x8->x_offset = u8x8->display_info->default_x_offset;
 321:..\u8g2\csrc/u8x8_d_st7567.c ****       }
 322:..\u8g2\csrc/u8x8_d_st7567.c ****       else
 323:..\u8g2\csrc/u8x8_d_st7567.c ****       {
 324:..\u8g2\csrc/u8x8_d_st7567.c **** 	u8x8_cad_SendSequence(u8x8, u8x8_d_st7567_132x64_flip1_seq);
 325:..\u8g2\csrc/u8x8_d_st7567.c **** 	u8x8->x_offset = u8x8->display_info->flipmode_x_offset;
 326:..\u8g2\csrc/u8x8_d_st7567.c ****       }	
 327:..\u8g2\csrc/u8x8_d_st7567.c ****       break;
 328:..\u8g2\csrc/u8x8_d_st7567.c **** #ifdef U8X8_WITH_SET_CONTRAST
 329:..\u8g2\csrc/u8x8_d_st7567.c ****     case U8X8_MSG_DISPLAY_SET_CONTRAST:
 330:..\u8g2\csrc/u8x8_d_st7567.c ****       u8x8_cad_StartTransfer(u8x8);
 331:..\u8g2\csrc/u8x8_d_st7567.c ****       u8x8_cad_SendCmd(u8x8, 0x081 );
 332:..\u8g2\csrc/u8x8_d_st7567.c ****       u8x8_cad_SendArg(u8x8, arg_int >> 2 );	/* st7567 has range from 0 to 63 */
 333:..\u8g2\csrc/u8x8_d_st7567.c ****       u8x8_cad_EndTransfer(u8x8);
 334:..\u8g2\csrc/u8x8_d_st7567.c ****       break;
 335:..\u8g2\csrc/u8x8_d_st7567.c **** #endif
 336:..\u8g2\csrc/u8x8_d_st7567.c ****     case U8X8_MSG_DISPLAY_DRAW_TILE:
 337:..\u8g2\csrc/u8x8_d_st7567.c ****       u8x8_cad_StartTransfer(u8x8);
 338:..\u8g2\csrc/u8x8_d_st7567.c ****     
 339:..\u8g2\csrc/u8x8_d_st7567.c ****       x = ((u8x8_tile_t *)arg_ptr)->x_pos;
 340:..\u8g2\csrc/u8x8_d_st7567.c ****       x *= 8;
 341:..\u8g2\csrc/u8x8_d_st7567.c ****       x += u8x8->x_offset;
 342:..\u8g2\csrc/u8x8_d_st7567.c ****       u8x8_cad_SendCmd(u8x8, 0x010 | (x>>4) );
 343:..\u8g2\csrc/u8x8_d_st7567.c ****       u8x8_cad_SendCmd(u8x8, 0x000 | ((x&15)));
 344:..\u8g2\csrc/u8x8_d_st7567.c ****       u8x8_cad_SendCmd(u8x8, 0x0b0 | (((u8x8_tile_t *)arg_ptr)->y_pos));
 345:..\u8g2\csrc/u8x8_d_st7567.c ****     
 346:..\u8g2\csrc/u8x8_d_st7567.c ****       c = ((u8x8_tile_t *)arg_ptr)->cnt;
 347:..\u8g2\csrc/u8x8_d_st7567.c ****       c *= 8;
 348:..\u8g2\csrc/u8x8_d_st7567.c ****       ptr = ((u8x8_tile_t *)arg_ptr)->tile_ptr;
 349:..\u8g2\csrc/u8x8_d_st7567.c ****       /* 
 350:..\u8g2\csrc/u8x8_d_st7567.c **** 	The following if condition checks the hardware limits of the st7567 
 351:..\u8g2\csrc/u8x8_d_st7567.c **** 	controller: It is not allowed to write beyond the display limits.
 352:..\u8g2\csrc/u8x8_d_st7567.c **** 	This is in fact an issue within flip mode.
 353:..\u8g2\csrc/u8x8_d_st7567.c ****       */
 354:..\u8g2\csrc/u8x8_d_st7567.c ****       if ( c + x > 132u )
 355:..\u8g2\csrc/u8x8_d_st7567.c ****       {
 356:..\u8g2\csrc/u8x8_d_st7567.c **** 	c = 132u;
 357:..\u8g2\csrc/u8x8_d_st7567.c **** 	c -= x;
 358:..\u8g2\csrc/u8x8_d_st7567.c ****       }
 359:..\u8g2\csrc/u8x8_d_st7567.c ****       do
 360:..\u8g2\csrc/u8x8_d_st7567.c ****       {
 361:..\u8g2\csrc/u8x8_d_st7567.c **** 	u8x8_cad_SendData(u8x8, c, ptr);	/* note: SendData can not handle more than 255 bytes */
 362:..\u8g2\csrc/u8x8_d_st7567.c **** 	arg_int--;
 363:..\u8g2\csrc/u8x8_d_st7567.c ****       } while( arg_int > 0 );
 364:..\u8g2\csrc/u8x8_d_st7567.c ****       
 365:..\u8g2\csrc/u8x8_d_st7567.c ****       u8x8_cad_EndTransfer(u8x8);
 366:..\u8g2\csrc/u8x8_d_st7567.c ****       break;
 367:..\u8g2\csrc/u8x8_d_st7567.c ****     default:
 368:..\u8g2\csrc/u8x8_d_st7567.c ****       return 0;
 369:..\u8g2\csrc/u8x8_d_st7567.c ****   }
 370:..\u8g2\csrc/u8x8_d_st7567.c ****   return 1;
 371:..\u8g2\csrc/u8x8_d_st7567.c **** }
 372:..\u8g2\csrc/u8x8_d_st7567.c **** 
 373:..\u8g2\csrc/u8x8_d_st7567.c **** 
ARM GAS  C:\Users\brian\AppData\Local\Temp\ccwFV3ea.s 			page 8


 374:..\u8g2\csrc/u8x8_d_st7567.c **** /*=====================================================*/
 375:..\u8g2\csrc/u8x8_d_st7567.c **** 
 376:..\u8g2\csrc/u8x8_d_st7567.c **** 
 377:..\u8g2\csrc/u8x8_d_st7567.c **** 
 378:..\u8g2\csrc/u8x8_d_st7567.c **** static const u8x8_display_info_t u8x8_st7567_enh_dg128064_display_info =
 379:..\u8g2\csrc/u8x8_d_st7567.c **** {
 380:..\u8g2\csrc/u8x8_d_st7567.c ****   /* chip_enable_level = */ 0,
 381:..\u8g2\csrc/u8x8_d_st7567.c ****   /* chip_disable_level = */ 1,
 382:..\u8g2\csrc/u8x8_d_st7567.c ****   
 383:..\u8g2\csrc/u8x8_d_st7567.c ****   /* post_chip_enable_wait_ns = */ 150,	/* */
 384:..\u8g2\csrc/u8x8_d_st7567.c ****   /* pre_chip_disable_wait_ns = */ 50,	/* */
 385:..\u8g2\csrc/u8x8_d_st7567.c ****   /* reset_pulse_width_ms = */ 1, 
 386:..\u8g2\csrc/u8x8_d_st7567.c ****   /* post_reset_wait_ms = */ 1, 
 387:..\u8g2\csrc/u8x8_d_st7567.c ****   /* sda_setup_time_ns = */ 50,		/* */
 388:..\u8g2\csrc/u8x8_d_st7567.c ****   /* sck_pulse_width_ns = */ 120,	/* */
 389:..\u8g2\csrc/u8x8_d_st7567.c ****   /* sck_clock_hz = */ 4000000UL,	/* */
 390:..\u8g2\csrc/u8x8_d_st7567.c ****   /* spi_mode = */ 0,		/* active high, rising edge */
 391:..\u8g2\csrc/u8x8_d_st7567.c ****   /* i2c_bus_clock_100kHz = */ 4,
 392:..\u8g2\csrc/u8x8_d_st7567.c ****   /* data_setup_time_ns = */ 40,	/* */
 393:..\u8g2\csrc/u8x8_d_st7567.c ****   /* write_pulse_width_ns = */ 80,	/* */
 394:..\u8g2\csrc/u8x8_d_st7567.c ****   /* tile_width = */ 16,		/* width of 16*8=128 pixel */
 395:..\u8g2\csrc/u8x8_d_st7567.c ****   /* tile_hight = */ 8,
 396:..\u8g2\csrc/u8x8_d_st7567.c ****   /* default_x_offset = */ 0,
 397:..\u8g2\csrc/u8x8_d_st7567.c ****   /* flipmode_x_offset = */ 4,
 398:..\u8g2\csrc/u8x8_d_st7567.c ****   /* pixel_width = */ 128,
 399:..\u8g2\csrc/u8x8_d_st7567.c ****   /* pixel_height = */ 64
 400:..\u8g2\csrc/u8x8_d_st7567.c **** };
 401:..\u8g2\csrc/u8x8_d_st7567.c **** 
 402:..\u8g2\csrc/u8x8_d_st7567.c **** static const u8x8_display_info_t u8x8_st7567_enh_dg128064i_display_info =
 403:..\u8g2\csrc/u8x8_d_st7567.c **** {
 404:..\u8g2\csrc/u8x8_d_st7567.c ****   /* chip_enable_level = */ 0,
 405:..\u8g2\csrc/u8x8_d_st7567.c ****   /* chip_disable_level = */ 1,
 406:..\u8g2\csrc/u8x8_d_st7567.c ****   
 407:..\u8g2\csrc/u8x8_d_st7567.c ****   /* post_chip_enable_wait_ns = */ 150,	/* */
 408:..\u8g2\csrc/u8x8_d_st7567.c ****   /* pre_chip_disable_wait_ns = */ 50,	/* */
 409:..\u8g2\csrc/u8x8_d_st7567.c ****   /* reset_pulse_width_ms = */ 1, 
 410:..\u8g2\csrc/u8x8_d_st7567.c ****   /* post_reset_wait_ms = */ 1, 
 411:..\u8g2\csrc/u8x8_d_st7567.c ****   /* sda_setup_time_ns = */ 50,		/* */
 412:..\u8g2\csrc/u8x8_d_st7567.c ****   /* sck_pulse_width_ns = */ 120,	/* */
 413:..\u8g2\csrc/u8x8_d_st7567.c ****   /* sck_clock_hz = */ 4000000UL,	/* */
 414:..\u8g2\csrc/u8x8_d_st7567.c ****   /* spi_mode = */ 0,		/* active high, rising edge */
 415:..\u8g2\csrc/u8x8_d_st7567.c ****   /* i2c_bus_clock_100kHz = */ 4,
 416:..\u8g2\csrc/u8x8_d_st7567.c ****   /* data_setup_time_ns = */ 40,	/* */
 417:..\u8g2\csrc/u8x8_d_st7567.c ****   /* write_pulse_width_ns = */ 80,	/* */
 418:..\u8g2\csrc/u8x8_d_st7567.c ****   /* tile_width = */ 16,		/* width of 16*8=128 pixel */
 419:..\u8g2\csrc/u8x8_d_st7567.c ****   /* tile_hight = */ 8,
 420:..\u8g2\csrc/u8x8_d_st7567.c ****   /* default_x_offset = */ 4,
 421:..\u8g2\csrc/u8x8_d_st7567.c ****   /* flipmode_x_offset = */ 0,
 422:..\u8g2\csrc/u8x8_d_st7567.c ****   /* pixel_width = */ 128,
 423:..\u8g2\csrc/u8x8_d_st7567.c ****   /* pixel_height = */ 64
 424:..\u8g2\csrc/u8x8_d_st7567.c **** };
 425:..\u8g2\csrc/u8x8_d_st7567.c **** 
 426:..\u8g2\csrc/u8x8_d_st7567.c **** static const uint8_t u8x8_st7567_enh_dg128064_init_seq[] = {
 427:..\u8g2\csrc/u8x8_d_st7567.c ****     
 428:..\u8g2\csrc/u8x8_d_st7567.c ****   U8X8_START_TRANSFER(),             	/* enable chip, delay is part of the transfer start */
 429:..\u8g2\csrc/u8x8_d_st7567.c ****   
 430:..\u8g2\csrc/u8x8_d_st7567.c ****   U8X8_C(0x0e2),            			/* soft reset */
ARM GAS  C:\Users\brian\AppData\Local\Temp\ccwFV3ea.s 			page 9


 431:..\u8g2\csrc/u8x8_d_st7567.c ****   U8X8_C(0x0ae),		                /* display off */
 432:..\u8g2\csrc/u8x8_d_st7567.c ****   U8X8_C(0x040),		                /* set display start line to 0 */
 433:..\u8g2\csrc/u8x8_d_st7567.c ****   
 434:..\u8g2\csrc/u8x8_d_st7567.c ****   U8X8_C(0x0a1),		                /* ADC set to reverse */
 435:..\u8g2\csrc/u8x8_d_st7567.c ****   U8X8_C(0x0c0),		                /* common output mode */
 436:..\u8g2\csrc/u8x8_d_st7567.c ****   // Flipmode
 437:..\u8g2\csrc/u8x8_d_st7567.c ****   //U8X8_C(0x0a0),		                /* ADC set to reverse */
 438:..\u8g2\csrc/u8x8_d_st7567.c ****   //U8X8_C(0x0c8),		                /* common output mode */
 439:..\u8g2\csrc/u8x8_d_st7567.c ****   
 440:..\u8g2\csrc/u8x8_d_st7567.c ****   U8X8_C(0x0a6),		                /* display normal, bit val 0: LCD pixel off. */
 441:..\u8g2\csrc/u8x8_d_st7567.c ****   U8X8_C(0x0a2),		                /* LCD bias 1/9 */
 442:..\u8g2\csrc/u8x8_d_st7567.c ****   /* power on sequence from paxinstruments */
 443:..\u8g2\csrc/u8x8_d_st7567.c ****   U8X8_C(0x028|4),		                /* all power  control circuits on */
 444:..\u8g2\csrc/u8x8_d_st7567.c ****   U8X8_DLY(50),
 445:..\u8g2\csrc/u8x8_d_st7567.c ****   U8X8_C(0x028|6),		                /* all power  control circuits on */
 446:..\u8g2\csrc/u8x8_d_st7567.c ****   U8X8_DLY(50),
 447:..\u8g2\csrc/u8x8_d_st7567.c ****   U8X8_C(0x028|7),		                /* all power  control circuits on */
 448:..\u8g2\csrc/u8x8_d_st7567.c ****   U8X8_DLY(50),
 449:..\u8g2\csrc/u8x8_d_st7567.c ****   
 450:..\u8g2\csrc/u8x8_d_st7567.c ****   U8X8_C(0x023),		                /* v0 voltage resistor ratio */
 451:..\u8g2\csrc/u8x8_d_st7567.c ****   U8X8_CA(0x081, 200>>2),		/* set contrast, contrast value*/
 452:..\u8g2\csrc/u8x8_d_st7567.c ****   
 453:..\u8g2\csrc/u8x8_d_st7567.c ****   U8X8_C(0x0ae),		                /* display off */
 454:..\u8g2\csrc/u8x8_d_st7567.c ****   U8X8_C(0x0a5),		                /* enter powersafe: all pixel on, issue 142 */
 455:..\u8g2\csrc/u8x8_d_st7567.c ****    
 456:..\u8g2\csrc/u8x8_d_st7567.c ****   U8X8_END_TRANSFER(),             	/* disable chip */
 457:..\u8g2\csrc/u8x8_d_st7567.c ****   U8X8_END()             			/* end of sequence */
 458:..\u8g2\csrc/u8x8_d_st7567.c **** };
 459:..\u8g2\csrc/u8x8_d_st7567.c **** 
 460:..\u8g2\csrc/u8x8_d_st7567.c **** /* ENH-DG128064 transparent display */
 461:..\u8g2\csrc/u8x8_d_st7567.c **** static uint8_t u8x8_d_st7567_enh_dg128064_generic(u8x8_t *u8x8, uint8_t msg, uint8_t arg_int, void 
 462:..\u8g2\csrc/u8x8_d_st7567.c **** {
  27              		.loc 1 462 0
  28              		.cfi_startproc
  29              		@ args = 0, pretend = 0, frame = 0
  30              		@ frame_needed = 0, uses_anonymous_args = 0
  31              	.LVL0:
  32 0000 2DE9F041 		push	{r4, r5, r6, r7, r8, lr}
  33              		.cfi_def_cfa_offset 24
  34              		.cfi_offset 4, -24
  35              		.cfi_offset 5, -20
  36              		.cfi_offset 6, -16
  37              		.cfi_offset 7, -12
  38              		.cfi_offset 8, -8
  39              		.cfi_offset 14, -4
  40 0004 0546     		mov	r5, r0
  41 0006 1446     		mov	r4, r2
  42 0008 1F46     		mov	r7, r3
 463:..\u8g2\csrc/u8x8_d_st7567.c ****   uint8_t x, c;
 464:..\u8g2\csrc/u8x8_d_st7567.c ****   uint8_t *ptr;
 465:..\u8g2\csrc/u8x8_d_st7567.c ****   switch(msg)
  43              		.loc 1 465 0
  44 000a 0939     		subs	r1, r1, #9
  45              	.LVL1:
  46 000c 0629     		cmp	r1, #6
  47 000e 67D8     		bhi	.L12
  48 0010 DFE801F0 		tbb	[pc, r1]
ARM GAS  C:\Users\brian\AppData\Local\Temp\ccwFV3ea.s 			page 10


  49              	.LVL2:
  50              	.L4:
  51 0014 04       		.byte	(.L3-.L4)/2
  52 0015 0A       		.byte	(.L5-.L4)/2
  53 0016 13       		.byte	(.L6-.L4)/2
  54 0017 66       		.byte	(.L12-.L4)/2
  55 0018 66       		.byte	(.L12-.L4)/2
  56 0019 20       		.byte	(.L7-.L4)/2
  57 001a 30       		.byte	(.L8-.L4)/2
  58 001b 00       		.p2align 1
  59              	.L3:
 466:..\u8g2\csrc/u8x8_d_st7567.c ****   {
 467:..\u8g2\csrc/u8x8_d_st7567.c ****     case U8X8_MSG_DISPLAY_SETUP_MEMORY:
 468:..\u8g2\csrc/u8x8_d_st7567.c ****       u8x8_d_helper_display_setup_memory(u8x8, &u8x8_st7567_enh_dg128064_display_info);
  60              		.loc 1 468 0
  61 001c 3249     		ldr	r1, .L14
  62 001e FFF7FEFF 		bl	u8x8_d_helper_display_setup_memory
  63              	.LVL3:
 469:..\u8g2\csrc/u8x8_d_st7567.c ****       break;
 470:..\u8g2\csrc/u8x8_d_st7567.c ****     case U8X8_MSG_DISPLAY_INIT:
 471:..\u8g2\csrc/u8x8_d_st7567.c ****       u8x8_d_helper_display_init(u8x8);
 472:..\u8g2\csrc/u8x8_d_st7567.c ****       u8x8_cad_SendSequence(u8x8, u8x8_st7567_enh_dg128064_init_seq);
 473:..\u8g2\csrc/u8x8_d_st7567.c ****       break;
 474:..\u8g2\csrc/u8x8_d_st7567.c ****     case U8X8_MSG_DISPLAY_SET_POWER_SAVE:
 475:..\u8g2\csrc/u8x8_d_st7567.c ****       if ( arg_int == 0 )
 476:..\u8g2\csrc/u8x8_d_st7567.c **** 	u8x8_cad_SendSequence(u8x8, u8x8_d_st7567_132x64_powersave0_seq);
 477:..\u8g2\csrc/u8x8_d_st7567.c ****       else
 478:..\u8g2\csrc/u8x8_d_st7567.c **** 	u8x8_cad_SendSequence(u8x8, u8x8_d_st7567_132x64_powersave1_seq);
 479:..\u8g2\csrc/u8x8_d_st7567.c ****       break;
 480:..\u8g2\csrc/u8x8_d_st7567.c **** #ifdef U8X8_WITH_SET_CONTRAST
 481:..\u8g2\csrc/u8x8_d_st7567.c ****     case U8X8_MSG_DISPLAY_SET_CONTRAST:
 482:..\u8g2\csrc/u8x8_d_st7567.c ****       u8x8_cad_StartTransfer(u8x8);
 483:..\u8g2\csrc/u8x8_d_st7567.c ****       u8x8_cad_SendCmd(u8x8, 0x081 );
 484:..\u8g2\csrc/u8x8_d_st7567.c ****       u8x8_cad_SendArg(u8x8, arg_int >> 2 );	/* st7567 has range from 0 to 63 */
 485:..\u8g2\csrc/u8x8_d_st7567.c ****       u8x8_cad_EndTransfer(u8x8);
 486:..\u8g2\csrc/u8x8_d_st7567.c ****       break;
 487:..\u8g2\csrc/u8x8_d_st7567.c **** #endif
 488:..\u8g2\csrc/u8x8_d_st7567.c ****     case U8X8_MSG_DISPLAY_DRAW_TILE:
 489:..\u8g2\csrc/u8x8_d_st7567.c ****       u8x8_cad_StartTransfer(u8x8);
 490:..\u8g2\csrc/u8x8_d_st7567.c ****     
 491:..\u8g2\csrc/u8x8_d_st7567.c ****       x = ((u8x8_tile_t *)arg_ptr)->x_pos;
 492:..\u8g2\csrc/u8x8_d_st7567.c ****       x *= 8;
 493:..\u8g2\csrc/u8x8_d_st7567.c ****       x += u8x8->x_offset;
 494:..\u8g2\csrc/u8x8_d_st7567.c ****       u8x8_cad_SendCmd(u8x8, 0x010 | (x>>4) );
 495:..\u8g2\csrc/u8x8_d_st7567.c ****       u8x8_cad_SendCmd(u8x8, 0x000 | ((x&15)));
 496:..\u8g2\csrc/u8x8_d_st7567.c ****       u8x8_cad_SendCmd(u8x8, 0x0b0 | (((u8x8_tile_t *)arg_ptr)->y_pos));
 497:..\u8g2\csrc/u8x8_d_st7567.c ****     
 498:..\u8g2\csrc/u8x8_d_st7567.c ****       c = ((u8x8_tile_t *)arg_ptr)->cnt;
 499:..\u8g2\csrc/u8x8_d_st7567.c ****       c *= 8;
 500:..\u8g2\csrc/u8x8_d_st7567.c ****       ptr = ((u8x8_tile_t *)arg_ptr)->tile_ptr;
 501:..\u8g2\csrc/u8x8_d_st7567.c ****       /* 
 502:..\u8g2\csrc/u8x8_d_st7567.c **** 	The following if condition checks the hardware limits of the st7567 
 503:..\u8g2\csrc/u8x8_d_st7567.c **** 	controller: It is not allowed to write beyond the display limits.
 504:..\u8g2\csrc/u8x8_d_st7567.c **** 	This is in fact an issue within flip mode.
 505:..\u8g2\csrc/u8x8_d_st7567.c ****       */
 506:..\u8g2\csrc/u8x8_d_st7567.c ****       if ( c + x > 132u )
 507:..\u8g2\csrc/u8x8_d_st7567.c ****       {
ARM GAS  C:\Users\brian\AppData\Local\Temp\ccwFV3ea.s 			page 11


 508:..\u8g2\csrc/u8x8_d_st7567.c **** 	c = 132u;
 509:..\u8g2\csrc/u8x8_d_st7567.c **** 	c -= x;
 510:..\u8g2\csrc/u8x8_d_st7567.c ****       }
 511:..\u8g2\csrc/u8x8_d_st7567.c ****       do
 512:..\u8g2\csrc/u8x8_d_st7567.c ****       {
 513:..\u8g2\csrc/u8x8_d_st7567.c **** 	u8x8_cad_SendData(u8x8, c, ptr);	/* note: SendData can not handle more than 255 bytes */
 514:..\u8g2\csrc/u8x8_d_st7567.c **** 	arg_int--;
 515:..\u8g2\csrc/u8x8_d_st7567.c ****       } while( arg_int > 0 );
 516:..\u8g2\csrc/u8x8_d_st7567.c ****       
 517:..\u8g2\csrc/u8x8_d_st7567.c ****       u8x8_cad_EndTransfer(u8x8);
 518:..\u8g2\csrc/u8x8_d_st7567.c ****       break;
 519:..\u8g2\csrc/u8x8_d_st7567.c ****     default:
 520:..\u8g2\csrc/u8x8_d_st7567.c ****       return 0;
 521:..\u8g2\csrc/u8x8_d_st7567.c ****   }
 522:..\u8g2\csrc/u8x8_d_st7567.c ****   return 1;
  64              		.loc 1 522 0
  65 0022 0120     		movs	r0, #1
 469:..\u8g2\csrc/u8x8_d_st7567.c ****       break;
  66              		.loc 1 469 0
  67 0024 BDE8F081 		pop	{r4, r5, r6, r7, r8, pc}
  68              	.LVL4:
  69              	.L5:
 471:..\u8g2\csrc/u8x8_d_st7567.c ****       u8x8_cad_SendSequence(u8x8, u8x8_st7567_enh_dg128064_init_seq);
  70              		.loc 1 471 0
  71 0028 FFF7FEFF 		bl	u8x8_d_helper_display_init
  72              	.LVL5:
 472:..\u8g2\csrc/u8x8_d_st7567.c ****       break;
  73              		.loc 1 472 0
  74 002c 2F49     		ldr	r1, .L14+4
  75 002e 2846     		mov	r0, r5
  76 0030 FFF7FEFF 		bl	u8x8_cad_SendSequence
  77              	.LVL6:
  78              		.loc 1 522 0
  79 0034 0120     		movs	r0, #1
 473:..\u8g2\csrc/u8x8_d_st7567.c ****     case U8X8_MSG_DISPLAY_SET_POWER_SAVE:
  80              		.loc 1 473 0
  81 0036 BDE8F081 		pop	{r4, r5, r6, r7, r8, pc}
  82              	.LVL7:
  83              	.L6:
 475:..\u8g2\csrc/u8x8_d_st7567.c **** 	u8x8_cad_SendSequence(u8x8, u8x8_d_st7567_132x64_powersave0_seq);
  84              		.loc 1 475 0
  85 003a 2AB9     		cbnz	r2, .L9
 476:..\u8g2\csrc/u8x8_d_st7567.c ****       else
  86              		.loc 1 476 0
  87 003c 2C49     		ldr	r1, .L14+8
  88 003e FFF7FEFF 		bl	u8x8_cad_SendSequence
  89              	.LVL8:
  90              		.loc 1 522 0
  91 0042 0120     		movs	r0, #1
  92 0044 BDE8F081 		pop	{r4, r5, r6, r7, r8, pc}
  93              	.LVL9:
  94              	.L9:
 478:..\u8g2\csrc/u8x8_d_st7567.c ****       break;
  95              		.loc 1 478 0
  96 0048 2A49     		ldr	r1, .L14+12
  97 004a FFF7FEFF 		bl	u8x8_cad_SendSequence
  98              	.LVL10:
ARM GAS  C:\Users\brian\AppData\Local\Temp\ccwFV3ea.s 			page 12


  99              		.loc 1 522 0
 100 004e 0120     		movs	r0, #1
 101 0050 BDE8F081 		pop	{r4, r5, r6, r7, r8, pc}
 102              	.LVL11:
 103              	.L7:
 482:..\u8g2\csrc/u8x8_d_st7567.c ****       u8x8_cad_SendCmd(u8x8, 0x081 );
 104              		.loc 1 482 0
 105 0054 FFF7FEFF 		bl	u8x8_cad_StartTransfer
 106              	.LVL12:
 483:..\u8g2\csrc/u8x8_d_st7567.c ****       u8x8_cad_SendArg(u8x8, arg_int >> 2 );	/* st7567 has range from 0 to 63 */
 107              		.loc 1 483 0
 108 0058 8121     		movs	r1, #129
 109 005a 2846     		mov	r0, r5
 110 005c FFF7FEFF 		bl	u8x8_cad_SendCmd
 111              	.LVL13:
 484:..\u8g2\csrc/u8x8_d_st7567.c ****       u8x8_cad_EndTransfer(u8x8);
 112              		.loc 1 484 0
 113 0060 A108     		lsrs	r1, r4, #2
 114 0062 2846     		mov	r0, r5
 115 0064 FFF7FEFF 		bl	u8x8_cad_SendArg
 116              	.LVL14:
 485:..\u8g2\csrc/u8x8_d_st7567.c ****       break;
 117              		.loc 1 485 0
 118 0068 2846     		mov	r0, r5
 119 006a FFF7FEFF 		bl	u8x8_cad_EndTransfer
 120              	.LVL15:
 121              		.loc 1 522 0
 122 006e 0120     		movs	r0, #1
 486:..\u8g2\csrc/u8x8_d_st7567.c **** #endif
 123              		.loc 1 486 0
 124 0070 BDE8F081 		pop	{r4, r5, r6, r7, r8, pc}
 125              	.LVL16:
 126              	.L8:
 489:..\u8g2\csrc/u8x8_d_st7567.c ****     
 127              		.loc 1 489 0
 128 0074 FFF7FEFF 		bl	u8x8_cad_StartTransfer
 129              	.LVL17:
 491:..\u8g2\csrc/u8x8_d_st7567.c ****       x *= 8;
 130              		.loc 1 491 0
 131 0078 7B79     		ldrb	r3, [r7, #5]	@ zero_extendqisi2
 132              	.LVL18:
 492:..\u8g2\csrc/u8x8_d_st7567.c ****       x += u8x8->x_offset;
 133              		.loc 1 492 0
 134 007a DB00     		lsls	r3, r3, #3
 135              	.LVL19:
 136 007c DBB2     		uxtb	r3, r3
 137              	.LVL20:
 493:..\u8g2\csrc/u8x8_d_st7567.c ****       u8x8_cad_SendCmd(u8x8, 0x010 | (x>>4) );
 138              		.loc 1 493 0
 139 007e 95F82280 		ldrb	r8, [r5, #34]	@ zero_extendqisi2
 140 0082 9844     		add	r8, r8, r3
 141 0084 5FFA88F8 		uxtb	r8, r8
 142              	.LVL21:
 494:..\u8g2\csrc/u8x8_d_st7567.c ****       u8x8_cad_SendCmd(u8x8, 0x000 | ((x&15)));
 143              		.loc 1 494 0
 144 0088 4FEA1811 		lsr	r1, r8, #4
 145 008c 41F01001 		orr	r1, r1, #16
ARM GAS  C:\Users\brian\AppData\Local\Temp\ccwFV3ea.s 			page 13


 146 0090 2846     		mov	r0, r5
 147 0092 FFF7FEFF 		bl	u8x8_cad_SendCmd
 148              	.LVL22:
 495:..\u8g2\csrc/u8x8_d_st7567.c ****       u8x8_cad_SendCmd(u8x8, 0x0b0 | (((u8x8_tile_t *)arg_ptr)->y_pos));
 149              		.loc 1 495 0
 150 0096 08F00F01 		and	r1, r8, #15
 151 009a 2846     		mov	r0, r5
 152 009c FFF7FEFF 		bl	u8x8_cad_SendCmd
 153              	.LVL23:
 496:..\u8g2\csrc/u8x8_d_st7567.c ****     
 154              		.loc 1 496 0
 155 00a0 B979     		ldrb	r1, [r7, #6]	@ zero_extendqisi2
 156 00a2 41F0B001 		orr	r1, r1, #176
 157 00a6 2846     		mov	r0, r5
 158 00a8 FFF7FEFF 		bl	u8x8_cad_SendCmd
 159              	.LVL24:
 498:..\u8g2\csrc/u8x8_d_st7567.c ****       c *= 8;
 160              		.loc 1 498 0
 161 00ac 3E79     		ldrb	r6, [r7, #4]	@ zero_extendqisi2
 162              	.LVL25:
 499:..\u8g2\csrc/u8x8_d_st7567.c ****       ptr = ((u8x8_tile_t *)arg_ptr)->tile_ptr;
 163              		.loc 1 499 0
 164 00ae F600     		lsls	r6, r6, #3
 165              	.LVL26:
 166 00b0 F6B2     		uxtb	r6, r6
 167              	.LVL27:
 500:..\u8g2\csrc/u8x8_d_st7567.c ****       /* 
 168              		.loc 1 500 0
 169 00b2 3F68     		ldr	r7, [r7]
 170              	.LVL28:
 506:..\u8g2\csrc/u8x8_d_st7567.c ****       {
 171              		.loc 1 506 0
 172 00b4 06EB0803 		add	r3, r6, r8
 173 00b8 842B     		cmp	r3, #132
 174 00ba 02D9     		bls	.L11
 175              	.LVL29:
 509:..\u8g2\csrc/u8x8_d_st7567.c ****       }
 176              		.loc 1 509 0
 177 00bc C8F18406 		rsb	r6, r8, #132
 178 00c0 F6B2     		uxtb	r6, r6
 179              	.LVL30:
 180              	.L11:
 513:..\u8g2\csrc/u8x8_d_st7567.c **** 	arg_int--;
 181              		.loc 1 513 0 discriminator 1
 182 00c2 3A46     		mov	r2, r7
 183 00c4 3146     		mov	r1, r6
 184 00c6 2846     		mov	r0, r5
 185 00c8 FFF7FEFF 		bl	u8x8_cad_SendData
 186              	.LVL31:
 514:..\u8g2\csrc/u8x8_d_st7567.c ****       } while( arg_int > 0 );
 187              		.loc 1 514 0 discriminator 1
 188 00cc 621E     		subs	r2, r4, #1
 189              	.LVL32:
 515:..\u8g2\csrc/u8x8_d_st7567.c ****       
 190              		.loc 1 515 0 discriminator 1
 191 00ce 12F0FF04 		ands	r4, r2, #255
 192 00d2 F6D1     		bne	.L11
ARM GAS  C:\Users\brian\AppData\Local\Temp\ccwFV3ea.s 			page 14


 517:..\u8g2\csrc/u8x8_d_st7567.c ****       break;
 193              		.loc 1 517 0
 194 00d4 2846     		mov	r0, r5
 195 00d6 FFF7FEFF 		bl	u8x8_cad_EndTransfer
 196              	.LVL33:
 197              		.loc 1 522 0
 198 00da 0120     		movs	r0, #1
 518:..\u8g2\csrc/u8x8_d_st7567.c ****     default:
 199              		.loc 1 518 0
 200 00dc BDE8F081 		pop	{r4, r5, r6, r7, r8, pc}
 201              	.LVL34:
 202              	.L12:
 520:..\u8g2\csrc/u8x8_d_st7567.c ****   }
 203              		.loc 1 520 0
 204 00e0 0020     		movs	r0, #0
 205              	.LVL35:
 523:..\u8g2\csrc/u8x8_d_st7567.c **** }
 206              		.loc 1 523 0
 207 00e2 BDE8F081 		pop	{r4, r5, r6, r7, r8, pc}
 208              	.LVL36:
 209              	.L15:
 210 00e6 00BF     		.align	2
 211              	.L14:
 212 00e8 00000000 		.word	.LANCHOR0
 213 00ec 18000000 		.word	.LANCHOR0+24
 214 00f0 40000000 		.word	.LANCHOR0+64
 215 00f4 48000000 		.word	.LANCHOR0+72
 216              		.cfi_endproc
 217              	.LFE2:
 218              		.size	u8x8_d_st7567_enh_dg128064_generic, .-u8x8_d_st7567_enh_dg128064_generic
 219              		.section	.text.u8x8_d_st7567_pi_132x64,"ax",%progbits
 220              		.align	2
 221              		.global	u8x8_d_st7567_pi_132x64
 222              		.thumb
 223              		.thumb_func
 224              		.type	u8x8_d_st7567_pi_132x64, %function
 225              	u8x8_d_st7567_pi_132x64:
 226              	.LFB0:
 154:..\u8g2\csrc/u8x8_d_st7567.c ****   uint8_t x, c;
 227              		.loc 1 154 0
 228              		.cfi_startproc
 229              		@ args = 0, pretend = 0, frame = 0
 230              		@ frame_needed = 0, uses_anonymous_args = 0
 231              	.LVL37:
 232 0000 2DE9F041 		push	{r4, r5, r6, r7, r8, lr}
 233              		.cfi_def_cfa_offset 24
 234              		.cfi_offset 4, -24
 235              		.cfi_offset 5, -20
 236              		.cfi_offset 6, -16
 237              		.cfi_offset 7, -12
 238              		.cfi_offset 8, -8
 239              		.cfi_offset 14, -4
 240 0004 0546     		mov	r5, r0
 241 0006 1446     		mov	r4, r2
 242 0008 1F46     		mov	r7, r3
 157:..\u8g2\csrc/u8x8_d_st7567.c ****   {
 243              		.loc 1 157 0
ARM GAS  C:\Users\brian\AppData\Local\Temp\ccwFV3ea.s 			page 15


 244 000a 0939     		subs	r1, r1, #9
 245              	.LVL38:
 246 000c 0629     		cmp	r1, #6
 247 000e 7CD8     		bhi	.L29
 248 0010 DFE801F0 		tbb	[pc, r1]
 249              	.LVL39:
 250              	.L19:
 251 0014 04       		.byte	(.L18-.L19)/2
 252 0015 0A       		.byte	(.L20-.L19)/2
 253 0016 13       		.byte	(.L21-.L19)/2
 254 0017 7B       		.byte	(.L29-.L19)/2
 255 0018 20       		.byte	(.L22-.L19)/2
 256 0019 35       		.byte	(.L23-.L19)/2
 257 001a 45       		.byte	(.L24-.L19)/2
 258 001b 00       		.p2align 1
 259              	.L18:
 160:..\u8g2\csrc/u8x8_d_st7567.c ****       break;
 260              		.loc 1 160 0
 261 001c 3C49     		ldr	r1, .L31
 262 001e FFF7FEFF 		bl	u8x8_d_helper_display_setup_memory
 263              	.LVL40:
 226:..\u8g2\csrc/u8x8_d_st7567.c **** }
 264              		.loc 1 226 0
 265 0022 0120     		movs	r0, #1
 161:..\u8g2\csrc/u8x8_d_st7567.c ****     case U8X8_MSG_DISPLAY_INIT:
 266              		.loc 1 161 0
 267 0024 BDE8F081 		pop	{r4, r5, r6, r7, r8, pc}
 268              	.LVL41:
 269              	.L20:
 163:..\u8g2\csrc/u8x8_d_st7567.c ****       u8x8_cad_SendSequence(u8x8, u8x8_d_st7567_132x64_init_seq);
 270              		.loc 1 163 0
 271 0028 FFF7FEFF 		bl	u8x8_d_helper_display_init
 272              	.LVL42:
 164:..\u8g2\csrc/u8x8_d_st7567.c ****       break;
 273              		.loc 1 164 0
 274 002c 3949     		ldr	r1, .L31+4
 275 002e 2846     		mov	r0, r5
 276 0030 FFF7FEFF 		bl	u8x8_cad_SendSequence
 277              	.LVL43:
 226:..\u8g2\csrc/u8x8_d_st7567.c **** }
 278              		.loc 1 226 0
 279 0034 0120     		movs	r0, #1
 165:..\u8g2\csrc/u8x8_d_st7567.c ****     case U8X8_MSG_DISPLAY_SET_POWER_SAVE:
 280              		.loc 1 165 0
 281 0036 BDE8F081 		pop	{r4, r5, r6, r7, r8, pc}
 282              	.LVL44:
 283              	.L21:
 167:..\u8g2\csrc/u8x8_d_st7567.c **** 	u8x8_cad_SendSequence(u8x8, u8x8_d_st7567_132x64_powersave0_seq);
 284              		.loc 1 167 0
 285 003a 2AB9     		cbnz	r2, .L25
 168:..\u8g2\csrc/u8x8_d_st7567.c ****       else
 286              		.loc 1 168 0
 287 003c 3649     		ldr	r1, .L31+8
 288 003e FFF7FEFF 		bl	u8x8_cad_SendSequence
 289              	.LVL45:
 226:..\u8g2\csrc/u8x8_d_st7567.c **** }
 290              		.loc 1 226 0
ARM GAS  C:\Users\brian\AppData\Local\Temp\ccwFV3ea.s 			page 16


 291 0042 0120     		movs	r0, #1
 292 0044 BDE8F081 		pop	{r4, r5, r6, r7, r8, pc}
 293              	.LVL46:
 294              	.L25:
 170:..\u8g2\csrc/u8x8_d_st7567.c ****       break;
 295              		.loc 1 170 0
 296 0048 3449     		ldr	r1, .L31+12
 297 004a FFF7FEFF 		bl	u8x8_cad_SendSequence
 298              	.LVL47:
 226:..\u8g2\csrc/u8x8_d_st7567.c **** }
 299              		.loc 1 226 0
 300 004e 0120     		movs	r0, #1
 301 0050 BDE8F081 		pop	{r4, r5, r6, r7, r8, pc}
 302              	.LVL48:
 303              	.L22:
 173:..\u8g2\csrc/u8x8_d_st7567.c ****       {
 304              		.loc 1 173 0
 305 0054 4AB9     		cbnz	r2, .L26
 175:..\u8g2\csrc/u8x8_d_st7567.c **** 	u8x8->x_offset = u8x8->display_info->default_x_offset;
 306              		.loc 1 175 0
 307 0056 3249     		ldr	r1, .L31+16
 308 0058 FFF7FEFF 		bl	u8x8_cad_SendSequence
 309              	.LVL49:
 176:..\u8g2\csrc/u8x8_d_st7567.c ****       }
 310              		.loc 1 176 0
 311 005c 2B68     		ldr	r3, [r5]
 312 005e 9B7C     		ldrb	r3, [r3, #18]	@ zero_extendqisi2
 313 0060 85F82230 		strb	r3, [r5, #34]
 226:..\u8g2\csrc/u8x8_d_st7567.c **** }
 314              		.loc 1 226 0
 315 0064 0120     		movs	r0, #1
 316 0066 BDE8F081 		pop	{r4, r5, r6, r7, r8, pc}
 317              	.LVL50:
 318              	.L26:
 180:..\u8g2\csrc/u8x8_d_st7567.c **** 	u8x8->x_offset = u8x8->display_info->flipmode_x_offset;
 319              		.loc 1 180 0
 320 006a 2E49     		ldr	r1, .L31+20
 321 006c FFF7FEFF 		bl	u8x8_cad_SendSequence
 322              	.LVL51:
 181:..\u8g2\csrc/u8x8_d_st7567.c ****       }	
 323              		.loc 1 181 0
 324 0070 2B68     		ldr	r3, [r5]
 325 0072 DB7C     		ldrb	r3, [r3, #19]	@ zero_extendqisi2
 326 0074 85F82230 		strb	r3, [r5, #34]
 226:..\u8g2\csrc/u8x8_d_st7567.c **** }
 327              		.loc 1 226 0
 328 0078 0120     		movs	r0, #1
 329 007a BDE8F081 		pop	{r4, r5, r6, r7, r8, pc}
 330              	.LVL52:
 331              	.L23:
 186:..\u8g2\csrc/u8x8_d_st7567.c ****       u8x8_cad_SendCmd(u8x8, 0x081 );
 332              		.loc 1 186 0
 333 007e FFF7FEFF 		bl	u8x8_cad_StartTransfer
 334              	.LVL53:
 187:..\u8g2\csrc/u8x8_d_st7567.c ****       u8x8_cad_SendArg(u8x8, arg_int >> 2 );	/* st7567 has range from 0 to 63 */
 335              		.loc 1 187 0
 336 0082 8121     		movs	r1, #129
ARM GAS  C:\Users\brian\AppData\Local\Temp\ccwFV3ea.s 			page 17


 337 0084 2846     		mov	r0, r5
 338 0086 FFF7FEFF 		bl	u8x8_cad_SendCmd
 339              	.LVL54:
 188:..\u8g2\csrc/u8x8_d_st7567.c ****       u8x8_cad_EndTransfer(u8x8);
 340              		.loc 1 188 0
 341 008a A108     		lsrs	r1, r4, #2
 342 008c 2846     		mov	r0, r5
 343 008e FFF7FEFF 		bl	u8x8_cad_SendArg
 344              	.LVL55:
 189:..\u8g2\csrc/u8x8_d_st7567.c ****       break;
 345              		.loc 1 189 0
 346 0092 2846     		mov	r0, r5
 347 0094 FFF7FEFF 		bl	u8x8_cad_EndTransfer
 348              	.LVL56:
 226:..\u8g2\csrc/u8x8_d_st7567.c **** }
 349              		.loc 1 226 0
 350 0098 0120     		movs	r0, #1
 190:..\u8g2\csrc/u8x8_d_st7567.c **** #endif
 351              		.loc 1 190 0
 352 009a BDE8F081 		pop	{r4, r5, r6, r7, r8, pc}
 353              	.LVL57:
 354              	.L24:
 193:..\u8g2\csrc/u8x8_d_st7567.c ****     
 355              		.loc 1 193 0
 356 009e FFF7FEFF 		bl	u8x8_cad_StartTransfer
 357              	.LVL58:
 195:..\u8g2\csrc/u8x8_d_st7567.c ****       x *= 8;
 358              		.loc 1 195 0
 359 00a2 7B79     		ldrb	r3, [r7, #5]	@ zero_extendqisi2
 360              	.LVL59:
 196:..\u8g2\csrc/u8x8_d_st7567.c ****       x += u8x8->x_offset;
 361              		.loc 1 196 0
 362 00a4 DB00     		lsls	r3, r3, #3
 363              	.LVL60:
 364 00a6 DBB2     		uxtb	r3, r3
 365              	.LVL61:
 197:..\u8g2\csrc/u8x8_d_st7567.c ****       u8x8_cad_SendCmd(u8x8, 0x010 | (x>>4) );
 366              		.loc 1 197 0
 367 00a8 95F82280 		ldrb	r8, [r5, #34]	@ zero_extendqisi2
 368 00ac 9844     		add	r8, r8, r3
 369 00ae 5FFA88F8 		uxtb	r8, r8
 370              	.LVL62:
 198:..\u8g2\csrc/u8x8_d_st7567.c ****       u8x8_cad_SendCmd(u8x8, 0x000 | ((x&15)));
 371              		.loc 1 198 0
 372 00b2 4FEA1811 		lsr	r1, r8, #4
 373 00b6 41F01001 		orr	r1, r1, #16
 374 00ba 2846     		mov	r0, r5
 375 00bc FFF7FEFF 		bl	u8x8_cad_SendCmd
 376              	.LVL63:
 199:..\u8g2\csrc/u8x8_d_st7567.c ****       u8x8_cad_SendCmd(u8x8, 0x0b0 | (((u8x8_tile_t *)arg_ptr)->y_pos));
 377              		.loc 1 199 0
 378 00c0 08F00F01 		and	r1, r8, #15
 379 00c4 2846     		mov	r0, r5
 380 00c6 FFF7FEFF 		bl	u8x8_cad_SendCmd
 381              	.LVL64:
 200:..\u8g2\csrc/u8x8_d_st7567.c ****     
 382              		.loc 1 200 0
ARM GAS  C:\Users\brian\AppData\Local\Temp\ccwFV3ea.s 			page 18


 383 00ca B979     		ldrb	r1, [r7, #6]	@ zero_extendqisi2
 384 00cc 41F0B001 		orr	r1, r1, #176
 385 00d0 2846     		mov	r0, r5
 386 00d2 FFF7FEFF 		bl	u8x8_cad_SendCmd
 387              	.LVL65:
 202:..\u8g2\csrc/u8x8_d_st7567.c ****       c *= 8;
 388              		.loc 1 202 0
 389 00d6 3E79     		ldrb	r6, [r7, #4]	@ zero_extendqisi2
 390              	.LVL66:
 203:..\u8g2\csrc/u8x8_d_st7567.c ****       ptr = ((u8x8_tile_t *)arg_ptr)->tile_ptr;
 391              		.loc 1 203 0
 392 00d8 F600     		lsls	r6, r6, #3
 393              	.LVL67:
 394 00da F6B2     		uxtb	r6, r6
 395              	.LVL68:
 204:..\u8g2\csrc/u8x8_d_st7567.c ****       /* 
 396              		.loc 1 204 0
 397 00dc 3F68     		ldr	r7, [r7]
 398              	.LVL69:
 210:..\u8g2\csrc/u8x8_d_st7567.c ****       {
 399              		.loc 1 210 0
 400 00de 06EB0803 		add	r3, r6, r8
 401 00e2 842B     		cmp	r3, #132
 402 00e4 02D9     		bls	.L28
 403              	.LVL70:
 213:..\u8g2\csrc/u8x8_d_st7567.c ****       }
 404              		.loc 1 213 0
 405 00e6 C8F18406 		rsb	r6, r8, #132
 406 00ea F6B2     		uxtb	r6, r6
 407              	.LVL71:
 408              	.L28:
 217:..\u8g2\csrc/u8x8_d_st7567.c **** 	arg_int--;
 409              		.loc 1 217 0 discriminator 1
 410 00ec 3A46     		mov	r2, r7
 411 00ee 3146     		mov	r1, r6
 412 00f0 2846     		mov	r0, r5
 413 00f2 FFF7FEFF 		bl	u8x8_cad_SendData
 414              	.LVL72:
 218:..\u8g2\csrc/u8x8_d_st7567.c ****       } while( arg_int > 0 );
 415              		.loc 1 218 0 discriminator 1
 416 00f6 621E     		subs	r2, r4, #1
 417              	.LVL73:
 219:..\u8g2\csrc/u8x8_d_st7567.c ****       
 418              		.loc 1 219 0 discriminator 1
 419 00f8 12F0FF04 		ands	r4, r2, #255
 420 00fc F6D1     		bne	.L28
 221:..\u8g2\csrc/u8x8_d_st7567.c ****       break;
 421              		.loc 1 221 0
 422 00fe 2846     		mov	r0, r5
 423 0100 FFF7FEFF 		bl	u8x8_cad_EndTransfer
 424              	.LVL74:
 226:..\u8g2\csrc/u8x8_d_st7567.c **** }
 425              		.loc 1 226 0
 426 0104 0120     		movs	r0, #1
 222:..\u8g2\csrc/u8x8_d_st7567.c ****     default:
 427              		.loc 1 222 0
 428 0106 BDE8F081 		pop	{r4, r5, r6, r7, r8, pc}
ARM GAS  C:\Users\brian\AppData\Local\Temp\ccwFV3ea.s 			page 19


 429              	.LVL75:
 430              	.L29:
 224:..\u8g2\csrc/u8x8_d_st7567.c ****   }
 431              		.loc 1 224 0
 432 010a 0020     		movs	r0, #0
 433              	.LVL76:
 227:..\u8g2\csrc/u8x8_d_st7567.c **** 
 434              		.loc 1 227 0
 435 010c BDE8F081 		pop	{r4, r5, r6, r7, r8, pc}
 436              	.LVL77:
 437              	.L32:
 438              		.align	2
 439              	.L31:
 440 0110 50000000 		.word	.LANCHOR0+80
 441 0114 68000000 		.word	.LANCHOR0+104
 442 0118 40000000 		.word	.LANCHOR0+64
 443 011c 48000000 		.word	.LANCHOR0+72
 444 0120 90000000 		.word	.LANCHOR0+144
 445 0124 98000000 		.word	.LANCHOR0+152
 446              		.cfi_endproc
 447              	.LFE0:
 448              		.size	u8x8_d_st7567_pi_132x64, .-u8x8_d_st7567_pi_132x64
 449              		.section	.text.u8x8_d_st7567_jlx12864,"ax",%progbits
 450              		.align	2
 451              		.global	u8x8_d_st7567_jlx12864
 452              		.thumb
 453              		.thumb_func
 454              		.type	u8x8_d_st7567_jlx12864, %function
 455              	u8x8_d_st7567_jlx12864:
 456              	.LFB1:
 298:..\u8g2\csrc/u8x8_d_st7567.c ****   uint8_t x, c;
 457              		.loc 1 298 0
 458              		.cfi_startproc
 459              		@ args = 0, pretend = 0, frame = 0
 460              		@ frame_needed = 0, uses_anonymous_args = 0
 461              	.LVL78:
 462 0000 2DE9F041 		push	{r4, r5, r6, r7, r8, lr}
 463              		.cfi_def_cfa_offset 24
 464              		.cfi_offset 4, -24
 465              		.cfi_offset 5, -20
 466              		.cfi_offset 6, -16
 467              		.cfi_offset 7, -12
 468              		.cfi_offset 8, -8
 469              		.cfi_offset 14, -4
 470 0004 0546     		mov	r5, r0
 471 0006 1446     		mov	r4, r2
 472 0008 1F46     		mov	r7, r3
 301:..\u8g2\csrc/u8x8_d_st7567.c ****   {
 473              		.loc 1 301 0
 474 000a 0939     		subs	r1, r1, #9
 475              	.LVL79:
 476 000c 0629     		cmp	r1, #6
 477 000e 7CD8     		bhi	.L46
 478 0010 DFE801F0 		tbb	[pc, r1]
 479              	.LVL80:
 480              	.L36:
 481 0014 04       		.byte	(.L35-.L36)/2
ARM GAS  C:\Users\brian\AppData\Local\Temp\ccwFV3ea.s 			page 20


 482 0015 0A       		.byte	(.L37-.L36)/2
 483 0016 13       		.byte	(.L38-.L36)/2
 484 0017 7B       		.byte	(.L46-.L36)/2
 485 0018 20       		.byte	(.L39-.L36)/2
 486 0019 35       		.byte	(.L40-.L36)/2
 487 001a 45       		.byte	(.L41-.L36)/2
 488 001b 00       		.p2align 1
 489              	.L35:
 304:..\u8g2\csrc/u8x8_d_st7567.c ****       break;
 490              		.loc 1 304 0
 491 001c 3C49     		ldr	r1, .L48
 492 001e FFF7FEFF 		bl	u8x8_d_helper_display_setup_memory
 493              	.LVL81:
 370:..\u8g2\csrc/u8x8_d_st7567.c **** }
 494              		.loc 1 370 0
 495 0022 0120     		movs	r0, #1
 305:..\u8g2\csrc/u8x8_d_st7567.c ****     case U8X8_MSG_DISPLAY_INIT:
 496              		.loc 1 305 0
 497 0024 BDE8F081 		pop	{r4, r5, r6, r7, r8, pc}
 498              	.LVL82:
 499              	.L37:
 307:..\u8g2\csrc/u8x8_d_st7567.c ****       u8x8_cad_SendSequence(u8x8, u8x8_st7567_jlx12864_init_seq);
 500              		.loc 1 307 0
 501 0028 FFF7FEFF 		bl	u8x8_d_helper_display_init
 502              	.LVL83:
 308:..\u8g2\csrc/u8x8_d_st7567.c ****       break;
 503              		.loc 1 308 0
 504 002c 3949     		ldr	r1, .L48+4
 505 002e 2846     		mov	r0, r5
 506 0030 FFF7FEFF 		bl	u8x8_cad_SendSequence
 507              	.LVL84:
 370:..\u8g2\csrc/u8x8_d_st7567.c **** }
 508              		.loc 1 370 0
 509 0034 0120     		movs	r0, #1
 309:..\u8g2\csrc/u8x8_d_st7567.c ****     case U8X8_MSG_DISPLAY_SET_POWER_SAVE:
 510              		.loc 1 309 0
 511 0036 BDE8F081 		pop	{r4, r5, r6, r7, r8, pc}
 512              	.LVL85:
 513              	.L38:
 311:..\u8g2\csrc/u8x8_d_st7567.c **** 	u8x8_cad_SendSequence(u8x8, u8x8_d_st7567_132x64_powersave0_seq);
 514              		.loc 1 311 0
 515 003a 2AB9     		cbnz	r2, .L42
 312:..\u8g2\csrc/u8x8_d_st7567.c ****       else
 516              		.loc 1 312 0
 517 003c 3649     		ldr	r1, .L48+8
 518 003e FFF7FEFF 		bl	u8x8_cad_SendSequence
 519              	.LVL86:
 370:..\u8g2\csrc/u8x8_d_st7567.c **** }
 520              		.loc 1 370 0
 521 0042 0120     		movs	r0, #1
 522 0044 BDE8F081 		pop	{r4, r5, r6, r7, r8, pc}
 523              	.LVL87:
 524              	.L42:
 314:..\u8g2\csrc/u8x8_d_st7567.c ****       break;
 525              		.loc 1 314 0
 526 0048 3449     		ldr	r1, .L48+12
 527 004a FFF7FEFF 		bl	u8x8_cad_SendSequence
ARM GAS  C:\Users\brian\AppData\Local\Temp\ccwFV3ea.s 			page 21


 528              	.LVL88:
 370:..\u8g2\csrc/u8x8_d_st7567.c **** }
 529              		.loc 1 370 0
 530 004e 0120     		movs	r0, #1
 531 0050 BDE8F081 		pop	{r4, r5, r6, r7, r8, pc}
 532              	.LVL89:
 533              	.L39:
 317:..\u8g2\csrc/u8x8_d_st7567.c ****       {
 534              		.loc 1 317 0
 535 0054 4AB9     		cbnz	r2, .L43
 319:..\u8g2\csrc/u8x8_d_st7567.c **** 	u8x8->x_offset = u8x8->display_info->default_x_offset;
 536              		.loc 1 319 0
 537 0056 3249     		ldr	r1, .L48+16
 538 0058 FFF7FEFF 		bl	u8x8_cad_SendSequence
 539              	.LVL90:
 320:..\u8g2\csrc/u8x8_d_st7567.c ****       }
 540              		.loc 1 320 0
 541 005c 2B68     		ldr	r3, [r5]
 542 005e 9B7C     		ldrb	r3, [r3, #18]	@ zero_extendqisi2
 543 0060 85F82230 		strb	r3, [r5, #34]
 370:..\u8g2\csrc/u8x8_d_st7567.c **** }
 544              		.loc 1 370 0
 545 0064 0120     		movs	r0, #1
 546 0066 BDE8F081 		pop	{r4, r5, r6, r7, r8, pc}
 547              	.LVL91:
 548              	.L43:
 324:..\u8g2\csrc/u8x8_d_st7567.c **** 	u8x8->x_offset = u8x8->display_info->flipmode_x_offset;
 549              		.loc 1 324 0
 550 006a 2E49     		ldr	r1, .L48+20
 551 006c FFF7FEFF 		bl	u8x8_cad_SendSequence
 552              	.LVL92:
 325:..\u8g2\csrc/u8x8_d_st7567.c ****       }	
 553              		.loc 1 325 0
 554 0070 2B68     		ldr	r3, [r5]
 555 0072 DB7C     		ldrb	r3, [r3, #19]	@ zero_extendqisi2
 556 0074 85F82230 		strb	r3, [r5, #34]
 370:..\u8g2\csrc/u8x8_d_st7567.c **** }
 557              		.loc 1 370 0
 558 0078 0120     		movs	r0, #1
 559 007a BDE8F081 		pop	{r4, r5, r6, r7, r8, pc}
 560              	.LVL93:
 561              	.L40:
 330:..\u8g2\csrc/u8x8_d_st7567.c ****       u8x8_cad_SendCmd(u8x8, 0x081 );
 562              		.loc 1 330 0
 563 007e FFF7FEFF 		bl	u8x8_cad_StartTransfer
 564              	.LVL94:
 331:..\u8g2\csrc/u8x8_d_st7567.c ****       u8x8_cad_SendArg(u8x8, arg_int >> 2 );	/* st7567 has range from 0 to 63 */
 565              		.loc 1 331 0
 566 0082 8121     		movs	r1, #129
 567 0084 2846     		mov	r0, r5
 568 0086 FFF7FEFF 		bl	u8x8_cad_SendCmd
 569              	.LVL95:
 332:..\u8g2\csrc/u8x8_d_st7567.c ****       u8x8_cad_EndTransfer(u8x8);
 570              		.loc 1 332 0
 571 008a A108     		lsrs	r1, r4, #2
 572 008c 2846     		mov	r0, r5
 573 008e FFF7FEFF 		bl	u8x8_cad_SendArg
ARM GAS  C:\Users\brian\AppData\Local\Temp\ccwFV3ea.s 			page 22


 574              	.LVL96:
 333:..\u8g2\csrc/u8x8_d_st7567.c ****       break;
 575              		.loc 1 333 0
 576 0092 2846     		mov	r0, r5
 577 0094 FFF7FEFF 		bl	u8x8_cad_EndTransfer
 578              	.LVL97:
 370:..\u8g2\csrc/u8x8_d_st7567.c **** }
 579              		.loc 1 370 0
 580 0098 0120     		movs	r0, #1
 334:..\u8g2\csrc/u8x8_d_st7567.c **** #endif
 581              		.loc 1 334 0
 582 009a BDE8F081 		pop	{r4, r5, r6, r7, r8, pc}
 583              	.LVL98:
 584              	.L41:
 337:..\u8g2\csrc/u8x8_d_st7567.c ****     
 585              		.loc 1 337 0
 586 009e FFF7FEFF 		bl	u8x8_cad_StartTransfer
 587              	.LVL99:
 339:..\u8g2\csrc/u8x8_d_st7567.c ****       x *= 8;
 588              		.loc 1 339 0
 589 00a2 7B79     		ldrb	r3, [r7, #5]	@ zero_extendqisi2
 590              	.LVL100:
 340:..\u8g2\csrc/u8x8_d_st7567.c ****       x += u8x8->x_offset;
 591              		.loc 1 340 0
 592 00a4 DB00     		lsls	r3, r3, #3
 593              	.LVL101:
 594 00a6 DBB2     		uxtb	r3, r3
 595              	.LVL102:
 341:..\u8g2\csrc/u8x8_d_st7567.c ****       u8x8_cad_SendCmd(u8x8, 0x010 | (x>>4) );
 596              		.loc 1 341 0
 597 00a8 95F82280 		ldrb	r8, [r5, #34]	@ zero_extendqisi2
 598 00ac 9844     		add	r8, r8, r3
 599 00ae 5FFA88F8 		uxtb	r8, r8
 600              	.LVL103:
 342:..\u8g2\csrc/u8x8_d_st7567.c ****       u8x8_cad_SendCmd(u8x8, 0x000 | ((x&15)));
 601              		.loc 1 342 0
 602 00b2 4FEA1811 		lsr	r1, r8, #4
 603 00b6 41F01001 		orr	r1, r1, #16
 604 00ba 2846     		mov	r0, r5
 605 00bc FFF7FEFF 		bl	u8x8_cad_SendCmd
 606              	.LVL104:
 343:..\u8g2\csrc/u8x8_d_st7567.c ****       u8x8_cad_SendCmd(u8x8, 0x0b0 | (((u8x8_tile_t *)arg_ptr)->y_pos));
 607              		.loc 1 343 0
 608 00c0 08F00F01 		and	r1, r8, #15
 609 00c4 2846     		mov	r0, r5
 610 00c6 FFF7FEFF 		bl	u8x8_cad_SendCmd
 611              	.LVL105:
 344:..\u8g2\csrc/u8x8_d_st7567.c ****     
 612              		.loc 1 344 0
 613 00ca B979     		ldrb	r1, [r7, #6]	@ zero_extendqisi2
 614 00cc 41F0B001 		orr	r1, r1, #176
 615 00d0 2846     		mov	r0, r5
 616 00d2 FFF7FEFF 		bl	u8x8_cad_SendCmd
 617              	.LVL106:
 346:..\u8g2\csrc/u8x8_d_st7567.c ****       c *= 8;
 618              		.loc 1 346 0
 619 00d6 3E79     		ldrb	r6, [r7, #4]	@ zero_extendqisi2
ARM GAS  C:\Users\brian\AppData\Local\Temp\ccwFV3ea.s 			page 23


 620              	.LVL107:
 347:..\u8g2\csrc/u8x8_d_st7567.c ****       ptr = ((u8x8_tile_t *)arg_ptr)->tile_ptr;
 621              		.loc 1 347 0
 622 00d8 F600     		lsls	r6, r6, #3
 623              	.LVL108:
 624 00da F6B2     		uxtb	r6, r6
 625              	.LVL109:
 348:..\u8g2\csrc/u8x8_d_st7567.c ****       /* 
 626              		.loc 1 348 0
 627 00dc 3F68     		ldr	r7, [r7]
 628              	.LVL110:
 354:..\u8g2\csrc/u8x8_d_st7567.c ****       {
 629              		.loc 1 354 0
 630 00de 06EB0803 		add	r3, r6, r8
 631 00e2 842B     		cmp	r3, #132
 632 00e4 02D9     		bls	.L45
 633              	.LVL111:
 357:..\u8g2\csrc/u8x8_d_st7567.c ****       }
 634              		.loc 1 357 0
 635 00e6 C8F18406 		rsb	r6, r8, #132
 636 00ea F6B2     		uxtb	r6, r6
 637              	.LVL112:
 638              	.L45:
 361:..\u8g2\csrc/u8x8_d_st7567.c **** 	arg_int--;
 639              		.loc 1 361 0 discriminator 1
 640 00ec 3A46     		mov	r2, r7
 641 00ee 3146     		mov	r1, r6
 642 00f0 2846     		mov	r0, r5
 643 00f2 FFF7FEFF 		bl	u8x8_cad_SendData
 644              	.LVL113:
 362:..\u8g2\csrc/u8x8_d_st7567.c ****       } while( arg_int > 0 );
 645              		.loc 1 362 0 discriminator 1
 646 00f6 621E     		subs	r2, r4, #1
 647              	.LVL114:
 363:..\u8g2\csrc/u8x8_d_st7567.c ****       
 648              		.loc 1 363 0 discriminator 1
 649 00f8 12F0FF04 		ands	r4, r2, #255
 650 00fc F6D1     		bne	.L45
 365:..\u8g2\csrc/u8x8_d_st7567.c ****       break;
 651              		.loc 1 365 0
 652 00fe 2846     		mov	r0, r5
 653 0100 FFF7FEFF 		bl	u8x8_cad_EndTransfer
 654              	.LVL115:
 370:..\u8g2\csrc/u8x8_d_st7567.c **** }
 655              		.loc 1 370 0
 656 0104 0120     		movs	r0, #1
 366:..\u8g2\csrc/u8x8_d_st7567.c ****     default:
 657              		.loc 1 366 0
 658 0106 BDE8F081 		pop	{r4, r5, r6, r7, r8, pc}
 659              	.LVL116:
 660              	.L46:
 368:..\u8g2\csrc/u8x8_d_st7567.c ****   }
 661              		.loc 1 368 0
 662 010a 0020     		movs	r0, #0
 663              	.LVL117:
 371:..\u8g2\csrc/u8x8_d_st7567.c **** 
 664              		.loc 1 371 0
ARM GAS  C:\Users\brian\AppData\Local\Temp\ccwFV3ea.s 			page 24


 665 010c BDE8F081 		pop	{r4, r5, r6, r7, r8, pc}
 666              	.LVL118:
 667              	.L49:
 668              		.align	2
 669              	.L48:
 670 0110 A0000000 		.word	.LANCHOR0+160
 671 0114 B8000000 		.word	.LANCHOR0+184
 672 0118 40000000 		.word	.LANCHOR0+64
 673 011c 48000000 		.word	.LANCHOR0+72
 674 0120 90000000 		.word	.LANCHOR0+144
 675 0124 98000000 		.word	.LANCHOR0+152
 676              		.cfi_endproc
 677              	.LFE1:
 678              		.size	u8x8_d_st7567_jlx12864, .-u8x8_d_st7567_jlx12864
 679              		.section	.text.u8x8_d_st7567_enh_dg128064,"ax",%progbits
 680              		.align	2
 681              		.global	u8x8_d_st7567_enh_dg128064
 682              		.thumb
 683              		.thumb_func
 684              		.type	u8x8_d_st7567_enh_dg128064, %function
 685              	u8x8_d_st7567_enh_dg128064:
 686              	.LFB3:
 524:..\u8g2\csrc/u8x8_d_st7567.c **** 
 525:..\u8g2\csrc/u8x8_d_st7567.c **** uint8_t u8x8_d_st7567_enh_dg128064(u8x8_t *u8x8, uint8_t msg, uint8_t arg_int, void *arg_ptr)
 526:..\u8g2\csrc/u8x8_d_st7567.c **** {
 687              		.loc 1 526 0
 688              		.cfi_startproc
 689              		@ args = 0, pretend = 0, frame = 0
 690              		@ frame_needed = 0, uses_anonymous_args = 0
 691              	.LVL119:
 692 0000 10B5     		push	{r4, lr}
 693              		.cfi_def_cfa_offset 8
 694              		.cfi_offset 4, -8
 695              		.cfi_offset 14, -4
 696 0002 0446     		mov	r4, r0
 527:..\u8g2\csrc/u8x8_d_st7567.c ****   switch(msg)
 697              		.loc 1 527 0
 698 0004 0929     		cmp	r1, #9
 699 0006 02D0     		beq	.L52
 700 0008 0D29     		cmp	r1, #13
 701 000a 05D0     		beq	.L53
 702 000c 17E0     		b	.L56
 703              	.L52:
 528:..\u8g2\csrc/u8x8_d_st7567.c ****   {
 529:..\u8g2\csrc/u8x8_d_st7567.c ****     case U8X8_MSG_DISPLAY_SETUP_MEMORY:
 530:..\u8g2\csrc/u8x8_d_st7567.c ****       u8x8_d_helper_display_setup_memory(u8x8, &u8x8_st7567_enh_dg128064_display_info);
 704              		.loc 1 530 0
 705 000e 0D49     		ldr	r1, .L58
 706              	.LVL120:
 707 0010 FFF7FEFF 		bl	u8x8_d_helper_display_setup_memory
 708              	.LVL121:
 531:..\u8g2\csrc/u8x8_d_st7567.c ****       break;
 532:..\u8g2\csrc/u8x8_d_st7567.c ****     case U8X8_MSG_DISPLAY_SET_FLIP_MODE:
 533:..\u8g2\csrc/u8x8_d_st7567.c ****       if ( arg_int == 0 )
 534:..\u8g2\csrc/u8x8_d_st7567.c ****       {
 535:..\u8g2\csrc/u8x8_d_st7567.c **** 	u8x8_cad_SendSequence(u8x8, u8x8_d_st7567_n_flip0_seq);
 536:..\u8g2\csrc/u8x8_d_st7567.c **** 	u8x8->x_offset = u8x8->display_info->default_x_offset;
ARM GAS  C:\Users\brian\AppData\Local\Temp\ccwFV3ea.s 			page 25


 537:..\u8g2\csrc/u8x8_d_st7567.c ****       }
 538:..\u8g2\csrc/u8x8_d_st7567.c ****       else
 539:..\u8g2\csrc/u8x8_d_st7567.c ****       {
 540:..\u8g2\csrc/u8x8_d_st7567.c **** 	u8x8_cad_SendSequence(u8x8, u8x8_d_st7567_n_flip1_seq);
 541:..\u8g2\csrc/u8x8_d_st7567.c **** 	u8x8->x_offset = u8x8->display_info->flipmode_x_offset;
 542:..\u8g2\csrc/u8x8_d_st7567.c ****       }	
 543:..\u8g2\csrc/u8x8_d_st7567.c ****       break;
 544:..\u8g2\csrc/u8x8_d_st7567.c ****     default:
 545:..\u8g2\csrc/u8x8_d_st7567.c ****       return u8x8_d_st7567_enh_dg128064_generic(u8x8, msg, arg_int, arg_ptr);
 546:..\u8g2\csrc/u8x8_d_st7567.c ****   }
 547:..\u8g2\csrc/u8x8_d_st7567.c ****   return 1;
 709              		.loc 1 547 0
 710 0014 0120     		movs	r0, #1
 531:..\u8g2\csrc/u8x8_d_st7567.c ****       break;
 711              		.loc 1 531 0
 712 0016 10BD     		pop	{r4, pc}
 713              	.LVL122:
 714              	.L53:
 533:..\u8g2\csrc/u8x8_d_st7567.c ****       {
 715              		.loc 1 533 0
 716 0018 42B9     		cbnz	r2, .L55
 535:..\u8g2\csrc/u8x8_d_st7567.c **** 	u8x8->x_offset = u8x8->display_info->default_x_offset;
 717              		.loc 1 535 0
 718 001a 0B49     		ldr	r1, .L58+4
 719              	.LVL123:
 720 001c FFF7FEFF 		bl	u8x8_cad_SendSequence
 721              	.LVL124:
 536:..\u8g2\csrc/u8x8_d_st7567.c ****       }
 722              		.loc 1 536 0
 723 0020 2368     		ldr	r3, [r4]
 724 0022 9B7C     		ldrb	r3, [r3, #18]	@ zero_extendqisi2
 725 0024 84F82230 		strb	r3, [r4, #34]
 726              		.loc 1 547 0
 727 0028 0120     		movs	r0, #1
 728 002a 10BD     		pop	{r4, pc}
 729              	.LVL125:
 730              	.L55:
 540:..\u8g2\csrc/u8x8_d_st7567.c **** 	u8x8->x_offset = u8x8->display_info->flipmode_x_offset;
 731              		.loc 1 540 0
 732 002c 0749     		ldr	r1, .L58+8
 733              	.LVL126:
 734 002e FFF7FEFF 		bl	u8x8_cad_SendSequence
 735              	.LVL127:
 541:..\u8g2\csrc/u8x8_d_st7567.c ****       }	
 736              		.loc 1 541 0
 737 0032 2368     		ldr	r3, [r4]
 738 0034 DB7C     		ldrb	r3, [r3, #19]	@ zero_extendqisi2
 739 0036 84F82230 		strb	r3, [r4, #34]
 740              		.loc 1 547 0
 741 003a 0120     		movs	r0, #1
 742 003c 10BD     		pop	{r4, pc}
 743              	.LVL128:
 744              	.L56:
 545:..\u8g2\csrc/u8x8_d_st7567.c ****   }
 745              		.loc 1 545 0
 746 003e FFF7FEFF 		bl	u8x8_d_st7567_enh_dg128064_generic
 747              	.LVL129:
ARM GAS  C:\Users\brian\AppData\Local\Temp\ccwFV3ea.s 			page 26


 548:..\u8g2\csrc/u8x8_d_st7567.c **** }
 748              		.loc 1 548 0
 749 0042 10BD     		pop	{r4, pc}
 750              	.LVL130:
 751              	.L59:
 752              		.align	2
 753              	.L58:
 754 0044 00000000 		.word	.LANCHOR0
 755 0048 E0000000 		.word	.LANCHOR0+224
 756 004c E8000000 		.word	.LANCHOR0+232
 757              		.cfi_endproc
 758              	.LFE3:
 759              		.size	u8x8_d_st7567_enh_dg128064, .-u8x8_d_st7567_enh_dg128064
 760              		.section	.text.u8x8_d_st7567_enh_dg128064i,"ax",%progbits
 761              		.align	2
 762              		.global	u8x8_d_st7567_enh_dg128064i
 763              		.thumb
 764              		.thumb_func
 765              		.type	u8x8_d_st7567_enh_dg128064i, %function
 766              	u8x8_d_st7567_enh_dg128064i:
 767              	.LFB4:
 549:..\u8g2\csrc/u8x8_d_st7567.c **** 
 550:..\u8g2\csrc/u8x8_d_st7567.c **** uint8_t u8x8_d_st7567_enh_dg128064i(u8x8_t *u8x8, uint8_t msg, uint8_t arg_int, void *arg_ptr)
 551:..\u8g2\csrc/u8x8_d_st7567.c **** {
 768              		.loc 1 551 0
 769              		.cfi_startproc
 770              		@ args = 0, pretend = 0, frame = 0
 771              		@ frame_needed = 0, uses_anonymous_args = 0
 772              	.LVL131:
 773 0000 10B5     		push	{r4, lr}
 774              		.cfi_def_cfa_offset 8
 775              		.cfi_offset 4, -8
 776              		.cfi_offset 14, -4
 777 0002 0446     		mov	r4, r0
 552:..\u8g2\csrc/u8x8_d_st7567.c ****   switch(msg)
 778              		.loc 1 552 0
 779 0004 0929     		cmp	r1, #9
 780 0006 02D0     		beq	.L62
 781 0008 0D29     		cmp	r1, #13
 782 000a 05D0     		beq	.L63
 783 000c 17E0     		b	.L66
 784              	.L62:
 553:..\u8g2\csrc/u8x8_d_st7567.c ****   {
 554:..\u8g2\csrc/u8x8_d_st7567.c ****     case U8X8_MSG_DISPLAY_SETUP_MEMORY:
 555:..\u8g2\csrc/u8x8_d_st7567.c ****       u8x8_d_helper_display_setup_memory(u8x8, &u8x8_st7567_enh_dg128064i_display_info);
 785              		.loc 1 555 0
 786 000e 0D49     		ldr	r1, .L68
 787              	.LVL132:
 788 0010 FFF7FEFF 		bl	u8x8_d_helper_display_setup_memory
 789              	.LVL133:
 556:..\u8g2\csrc/u8x8_d_st7567.c ****       break;
 557:..\u8g2\csrc/u8x8_d_st7567.c ****     case U8X8_MSG_DISPLAY_SET_FLIP_MODE:
 558:..\u8g2\csrc/u8x8_d_st7567.c ****       if ( arg_int == 0 )
 559:..\u8g2\csrc/u8x8_d_st7567.c ****       {
 560:..\u8g2\csrc/u8x8_d_st7567.c **** 	u8x8_cad_SendSequence(u8x8, u8x8_d_st7567_132x64_flip0_seq);
 561:..\u8g2\csrc/u8x8_d_st7567.c **** 	u8x8->x_offset = u8x8->display_info->default_x_offset;
 562:..\u8g2\csrc/u8x8_d_st7567.c ****       }
ARM GAS  C:\Users\brian\AppData\Local\Temp\ccwFV3ea.s 			page 27


 563:..\u8g2\csrc/u8x8_d_st7567.c ****       else
 564:..\u8g2\csrc/u8x8_d_st7567.c ****       {
 565:..\u8g2\csrc/u8x8_d_st7567.c **** 	u8x8_cad_SendSequence(u8x8, u8x8_d_st7567_132x64_flip1_seq);
 566:..\u8g2\csrc/u8x8_d_st7567.c **** 	u8x8->x_offset = u8x8->display_info->flipmode_x_offset;
 567:..\u8g2\csrc/u8x8_d_st7567.c ****       }	
 568:..\u8g2\csrc/u8x8_d_st7567.c ****       break;
 569:..\u8g2\csrc/u8x8_d_st7567.c ****     default:
 570:..\u8g2\csrc/u8x8_d_st7567.c ****       return u8x8_d_st7567_enh_dg128064_generic(u8x8, msg, arg_int, arg_ptr);
 571:..\u8g2\csrc/u8x8_d_st7567.c ****   }
 572:..\u8g2\csrc/u8x8_d_st7567.c ****   return 1;
 790              		.loc 1 572 0
 791 0014 0120     		movs	r0, #1
 556:..\u8g2\csrc/u8x8_d_st7567.c ****       break;
 792              		.loc 1 556 0
 793 0016 10BD     		pop	{r4, pc}
 794              	.LVL134:
 795              	.L63:
 558:..\u8g2\csrc/u8x8_d_st7567.c ****       {
 796              		.loc 1 558 0
 797 0018 42B9     		cbnz	r2, .L65
 560:..\u8g2\csrc/u8x8_d_st7567.c **** 	u8x8->x_offset = u8x8->display_info->default_x_offset;
 798              		.loc 1 560 0
 799 001a 0B49     		ldr	r1, .L68+4
 800              	.LVL135:
 801 001c FFF7FEFF 		bl	u8x8_cad_SendSequence
 802              	.LVL136:
 561:..\u8g2\csrc/u8x8_d_st7567.c ****       }
 803              		.loc 1 561 0
 804 0020 2368     		ldr	r3, [r4]
 805 0022 9B7C     		ldrb	r3, [r3, #18]	@ zero_extendqisi2
 806 0024 84F82230 		strb	r3, [r4, #34]
 807              		.loc 1 572 0
 808 0028 0120     		movs	r0, #1
 809 002a 10BD     		pop	{r4, pc}
 810              	.LVL137:
 811              	.L65:
 565:..\u8g2\csrc/u8x8_d_st7567.c **** 	u8x8->x_offset = u8x8->display_info->flipmode_x_offset;
 812              		.loc 1 565 0
 813 002c 0749     		ldr	r1, .L68+8
 814              	.LVL138:
 815 002e FFF7FEFF 		bl	u8x8_cad_SendSequence
 816              	.LVL139:
 566:..\u8g2\csrc/u8x8_d_st7567.c ****       }	
 817              		.loc 1 566 0
 818 0032 2368     		ldr	r3, [r4]
 819 0034 DB7C     		ldrb	r3, [r3, #19]	@ zero_extendqisi2
 820 0036 84F82230 		strb	r3, [r4, #34]
 821              		.loc 1 572 0
 822 003a 0120     		movs	r0, #1
 823 003c 10BD     		pop	{r4, pc}
 824              	.LVL140:
 825              	.L66:
 570:..\u8g2\csrc/u8x8_d_st7567.c ****   }
 826              		.loc 1 570 0
 827 003e FFF7FEFF 		bl	u8x8_d_st7567_enh_dg128064_generic
 828              	.LVL141:
 573:..\u8g2\csrc/u8x8_d_st7567.c **** }
ARM GAS  C:\Users\brian\AppData\Local\Temp\ccwFV3ea.s 			page 28


 829              		.loc 1 573 0
 830 0042 10BD     		pop	{r4, pc}
 831              	.LVL142:
 832              	.L69:
 833              		.align	2
 834              	.L68:
 835 0044 F0000000 		.word	.LANCHOR0+240
 836 0048 90000000 		.word	.LANCHOR0+144
 837 004c 98000000 		.word	.LANCHOR0+152
 838              		.cfi_endproc
 839              	.LFE4:
 840              		.size	u8x8_d_st7567_enh_dg128064i, .-u8x8_d_st7567_enh_dg128064i
 841              		.section	.text.u8x8_d_st7567_64x32,"ax",%progbits
 842              		.align	2
 843              		.global	u8x8_d_st7567_64x32
 844              		.thumb
 845              		.thumb_func
 846              		.type	u8x8_d_st7567_64x32, %function
 847              	u8x8_d_st7567_64x32:
 848              	.LFB5:
 574:..\u8g2\csrc/u8x8_d_st7567.c **** 
 575:..\u8g2\csrc/u8x8_d_st7567.c **** 
 576:..\u8g2\csrc/u8x8_d_st7567.c **** /*=====================================================*/
 577:..\u8g2\csrc/u8x8_d_st7567.c **** /* issue 657 */
 578:..\u8g2\csrc/u8x8_d_st7567.c **** 
 579:..\u8g2\csrc/u8x8_d_st7567.c **** static const u8x8_display_info_t u8x8_st7567_64x32_display_info =
 580:..\u8g2\csrc/u8x8_d_st7567.c **** {
 581:..\u8g2\csrc/u8x8_d_st7567.c ****   /* chip_enable_level = */ 0,
 582:..\u8g2\csrc/u8x8_d_st7567.c ****   /* chip_disable_level = */ 1,
 583:..\u8g2\csrc/u8x8_d_st7567.c ****   
 584:..\u8g2\csrc/u8x8_d_st7567.c ****   /* post_chip_enable_wait_ns = */ 150,	/* */
 585:..\u8g2\csrc/u8x8_d_st7567.c ****   /* pre_chip_disable_wait_ns = */ 50,	/* */
 586:..\u8g2\csrc/u8x8_d_st7567.c ****   /* reset_pulse_width_ms = */ 1, 
 587:..\u8g2\csrc/u8x8_d_st7567.c ****   /* post_reset_wait_ms = */ 1, 
 588:..\u8g2\csrc/u8x8_d_st7567.c ****   /* sda_setup_time_ns = */ 50,		/* */
 589:..\u8g2\csrc/u8x8_d_st7567.c ****   /* sck_pulse_width_ns = */ 120,	/* */
 590:..\u8g2\csrc/u8x8_d_st7567.c ****   /* sck_clock_hz = */ 4000000UL,	/* */
 591:..\u8g2\csrc/u8x8_d_st7567.c ****   /* spi_mode = */ 0,		/* active high, rising edge */
 592:..\u8g2\csrc/u8x8_d_st7567.c ****   /* i2c_bus_clock_100kHz = */ 4,
 593:..\u8g2\csrc/u8x8_d_st7567.c ****   /* data_setup_time_ns = */ 40,	/* */
 594:..\u8g2\csrc/u8x8_d_st7567.c ****   /* write_pulse_width_ns = */ 80,	/* */
 595:..\u8g2\csrc/u8x8_d_st7567.c ****   /* tile_width = */ 8,		
 596:..\u8g2\csrc/u8x8_d_st7567.c ****   /* tile_hight = */ 4,
 597:..\u8g2\csrc/u8x8_d_st7567.c ****   /* default_x_offset = */ 32,
 598:..\u8g2\csrc/u8x8_d_st7567.c ****   /* flipmode_x_offset = */ 32,
 599:..\u8g2\csrc/u8x8_d_st7567.c ****   /* pixel_width = */ 64,
 600:..\u8g2\csrc/u8x8_d_st7567.c ****   /* pixel_height = */ 32
 601:..\u8g2\csrc/u8x8_d_st7567.c **** };
 602:..\u8g2\csrc/u8x8_d_st7567.c **** 
 603:..\u8g2\csrc/u8x8_d_st7567.c **** static const uint8_t u8x8_st7567_64x32_init_seq[] = {
 604:..\u8g2\csrc/u8x8_d_st7567.c ****     
 605:..\u8g2\csrc/u8x8_d_st7567.c ****   U8X8_START_TRANSFER(),             	/* enable chip, delay is part of the transfer start */
 606:..\u8g2\csrc/u8x8_d_st7567.c ****   
 607:..\u8g2\csrc/u8x8_d_st7567.c ****   U8X8_C(0x0e2),            			/* soft reset */
 608:..\u8g2\csrc/u8x8_d_st7567.c ****   U8X8_C(0x0ae),		                /* display off */
 609:..\u8g2\csrc/u8x8_d_st7567.c ****   U8X8_C(0x040),		                /* set display start line to 0 */
 610:..\u8g2\csrc/u8x8_d_st7567.c ****   
ARM GAS  C:\Users\brian\AppData\Local\Temp\ccwFV3ea.s 			page 29


 611:..\u8g2\csrc/u8x8_d_st7567.c ****   U8X8_C(0x0a1),		                /* ADC */
 612:..\u8g2\csrc/u8x8_d_st7567.c ****   U8X8_C(0x0c0),		                /* common output mode */
 613:..\u8g2\csrc/u8x8_d_st7567.c ****   // Flipmode
 614:..\u8g2\csrc/u8x8_d_st7567.c ****   //U8X8_C(0x0a0),		                /* ADC  */
 615:..\u8g2\csrc/u8x8_d_st7567.c ****   //U8X8_C(0x0c8),		                /* common output mode */
 616:..\u8g2\csrc/u8x8_d_st7567.c ****   
 617:..\u8g2\csrc/u8x8_d_st7567.c ****   U8X8_C(0x0a6),		                /* display normal, bit val 0: LCD pixel off. */
 618:..\u8g2\csrc/u8x8_d_st7567.c ****   U8X8_C(0x0a2),		                /* LCD bias 1/9 */
 619:..\u8g2\csrc/u8x8_d_st7567.c ****   U8X8_C(0x028|4),		                /* all power  control circuits on */
 620:..\u8g2\csrc/u8x8_d_st7567.c ****   U8X8_DLY(50),
 621:..\u8g2\csrc/u8x8_d_st7567.c ****   U8X8_C(0x028|6),		                /* all power  control circuits on */
 622:..\u8g2\csrc/u8x8_d_st7567.c ****   U8X8_DLY(50),
 623:..\u8g2\csrc/u8x8_d_st7567.c ****   U8X8_C(0x028|7),		                /* all power  control circuits on */
 624:..\u8g2\csrc/u8x8_d_st7567.c ****   U8X8_DLY(50),
 625:..\u8g2\csrc/u8x8_d_st7567.c ****   
 626:..\u8g2\csrc/u8x8_d_st7567.c ****   U8X8_C(0x024),		                /* v0 voltage resistor ratio, taken from issue 657 */
 627:..\u8g2\csrc/u8x8_d_st7567.c ****   U8X8_CA(0x081, 0x020),		/* set contrast, contrast value*/
 628:..\u8g2\csrc/u8x8_d_st7567.c ****   /* 18 Apr 2020: the value 0x080 does not make sense, only 6 bit are supported
 629:..\u8g2\csrc/u8x8_d_st7567.c ****   for contrast, changed to 0x040 */
 630:..\u8g2\csrc/u8x8_d_st7567.c ****   
 631:..\u8g2\csrc/u8x8_d_st7567.c ****   U8X8_C(0x0ae),		                /* display off */
 632:..\u8g2\csrc/u8x8_d_st7567.c ****   U8X8_C(0x0a5),		                /* enter powersafe: all pixel on, issue 142 */
 633:..\u8g2\csrc/u8x8_d_st7567.c ****    
 634:..\u8g2\csrc/u8x8_d_st7567.c ****   U8X8_END_TRANSFER(),             	/* disable chip */
 635:..\u8g2\csrc/u8x8_d_st7567.c ****   U8X8_END()             			/* end of sequence */
 636:..\u8g2\csrc/u8x8_d_st7567.c **** };
 637:..\u8g2\csrc/u8x8_d_st7567.c **** 
 638:..\u8g2\csrc/u8x8_d_st7567.c **** 
 639:..\u8g2\csrc/u8x8_d_st7567.c **** uint8_t u8x8_d_st7567_64x32(u8x8_t *u8x8, uint8_t msg, uint8_t arg_int, void *arg_ptr)
 640:..\u8g2\csrc/u8x8_d_st7567.c **** {
 849              		.loc 1 640 0
 850              		.cfi_startproc
 851              		@ args = 0, pretend = 0, frame = 0
 852              		@ frame_needed = 0, uses_anonymous_args = 0
 853              	.LVL143:
 854 0000 2DE9F041 		push	{r4, r5, r6, r7, r8, lr}
 855              		.cfi_def_cfa_offset 24
 856              		.cfi_offset 4, -24
 857              		.cfi_offset 5, -20
 858              		.cfi_offset 6, -16
 859              		.cfi_offset 7, -12
 860              		.cfi_offset 8, -8
 861              		.cfi_offset 14, -4
 862 0004 0546     		mov	r5, r0
 863 0006 1446     		mov	r4, r2
 864 0008 1F46     		mov	r7, r3
 641:..\u8g2\csrc/u8x8_d_st7567.c ****   uint8_t x, c;
 642:..\u8g2\csrc/u8x8_d_st7567.c ****   uint8_t *ptr;
 643:..\u8g2\csrc/u8x8_d_st7567.c ****   switch(msg)
 865              		.loc 1 643 0
 866 000a 0939     		subs	r1, r1, #9
 867              	.LVL144:
 868 000c 0629     		cmp	r1, #6
 869 000e 7CD8     		bhi	.L83
 870 0010 DFE801F0 		tbb	[pc, r1]
 871              	.LVL145:
 872              	.L73:
ARM GAS  C:\Users\brian\AppData\Local\Temp\ccwFV3ea.s 			page 30


 873 0014 04       		.byte	(.L72-.L73)/2
 874 0015 0A       		.byte	(.L74-.L73)/2
 875 0016 13       		.byte	(.L75-.L73)/2
 876 0017 7B       		.byte	(.L83-.L73)/2
 877 0018 20       		.byte	(.L76-.L73)/2
 878 0019 35       		.byte	(.L77-.L73)/2
 879 001a 45       		.byte	(.L78-.L73)/2
 880 001b 00       		.p2align 1
 881              	.L72:
 644:..\u8g2\csrc/u8x8_d_st7567.c ****   {
 645:..\u8g2\csrc/u8x8_d_st7567.c ****     case U8X8_MSG_DISPLAY_SETUP_MEMORY:
 646:..\u8g2\csrc/u8x8_d_st7567.c ****       u8x8_d_helper_display_setup_memory(u8x8, &u8x8_st7567_64x32_display_info);
 882              		.loc 1 646 0
 883 001c 3C49     		ldr	r1, .L85
 884 001e FFF7FEFF 		bl	u8x8_d_helper_display_setup_memory
 885              	.LVL146:
 647:..\u8g2\csrc/u8x8_d_st7567.c ****       break;
 648:..\u8g2\csrc/u8x8_d_st7567.c ****     case U8X8_MSG_DISPLAY_INIT:
 649:..\u8g2\csrc/u8x8_d_st7567.c ****       u8x8_d_helper_display_init(u8x8);
 650:..\u8g2\csrc/u8x8_d_st7567.c ****       u8x8_cad_SendSequence(u8x8, u8x8_st7567_64x32_init_seq);
 651:..\u8g2\csrc/u8x8_d_st7567.c ****       break;
 652:..\u8g2\csrc/u8x8_d_st7567.c ****     case U8X8_MSG_DISPLAY_SET_POWER_SAVE:
 653:..\u8g2\csrc/u8x8_d_st7567.c ****       if ( arg_int == 0 )
 654:..\u8g2\csrc/u8x8_d_st7567.c **** 	u8x8_cad_SendSequence(u8x8, u8x8_d_st7567_132x64_powersave0_seq);
 655:..\u8g2\csrc/u8x8_d_st7567.c ****       else
 656:..\u8g2\csrc/u8x8_d_st7567.c **** 	u8x8_cad_SendSequence(u8x8, u8x8_d_st7567_132x64_powersave1_seq);
 657:..\u8g2\csrc/u8x8_d_st7567.c ****       break;
 658:..\u8g2\csrc/u8x8_d_st7567.c ****     case U8X8_MSG_DISPLAY_SET_FLIP_MODE:
 659:..\u8g2\csrc/u8x8_d_st7567.c ****       if ( arg_int == 0 )
 660:..\u8g2\csrc/u8x8_d_st7567.c ****       {
 661:..\u8g2\csrc/u8x8_d_st7567.c **** 	u8x8_cad_SendSequence(u8x8, u8x8_d_st7567_132x64_flip0_seq);
 662:..\u8g2\csrc/u8x8_d_st7567.c **** 	u8x8->x_offset = u8x8->display_info->default_x_offset;
 663:..\u8g2\csrc/u8x8_d_st7567.c ****       }
 664:..\u8g2\csrc/u8x8_d_st7567.c ****       else
 665:..\u8g2\csrc/u8x8_d_st7567.c ****       {
 666:..\u8g2\csrc/u8x8_d_st7567.c **** 	u8x8_cad_SendSequence(u8x8, u8x8_d_st7567_132x64_flip1_seq);
 667:..\u8g2\csrc/u8x8_d_st7567.c **** 	u8x8->x_offset = u8x8->display_info->flipmode_x_offset;
 668:..\u8g2\csrc/u8x8_d_st7567.c ****       }	
 669:..\u8g2\csrc/u8x8_d_st7567.c ****       break;
 670:..\u8g2\csrc/u8x8_d_st7567.c **** #ifdef U8X8_WITH_SET_CONTRAST
 671:..\u8g2\csrc/u8x8_d_st7567.c ****     case U8X8_MSG_DISPLAY_SET_CONTRAST:
 672:..\u8g2\csrc/u8x8_d_st7567.c ****       u8x8_cad_StartTransfer(u8x8);
 673:..\u8g2\csrc/u8x8_d_st7567.c ****       u8x8_cad_SendCmd(u8x8, 0x081 );
 674:..\u8g2\csrc/u8x8_d_st7567.c ****       u8x8_cad_SendArg(u8x8, arg_int >> 2 );	/* st7567 has range from 0 to 63 */
 675:..\u8g2\csrc/u8x8_d_st7567.c ****       u8x8_cad_EndTransfer(u8x8);
 676:..\u8g2\csrc/u8x8_d_st7567.c ****       break;
 677:..\u8g2\csrc/u8x8_d_st7567.c **** #endif
 678:..\u8g2\csrc/u8x8_d_st7567.c ****     case U8X8_MSG_DISPLAY_DRAW_TILE:
 679:..\u8g2\csrc/u8x8_d_st7567.c ****       u8x8_cad_StartTransfer(u8x8);
 680:..\u8g2\csrc/u8x8_d_st7567.c ****     
 681:..\u8g2\csrc/u8x8_d_st7567.c ****       x = ((u8x8_tile_t *)arg_ptr)->x_pos;
 682:..\u8g2\csrc/u8x8_d_st7567.c ****       x *= 8;
 683:..\u8g2\csrc/u8x8_d_st7567.c ****       x += u8x8->x_offset;
 684:..\u8g2\csrc/u8x8_d_st7567.c ****       u8x8_cad_SendCmd(u8x8, 0x010 | (x>>4) );
 685:..\u8g2\csrc/u8x8_d_st7567.c ****       u8x8_cad_SendCmd(u8x8, 0x000 | ((x&15)));
 686:..\u8g2\csrc/u8x8_d_st7567.c ****       u8x8_cad_SendCmd(u8x8, 0x0b0 | (((u8x8_tile_t *)arg_ptr)->y_pos));
 687:..\u8g2\csrc/u8x8_d_st7567.c ****     
ARM GAS  C:\Users\brian\AppData\Local\Temp\ccwFV3ea.s 			page 31


 688:..\u8g2\csrc/u8x8_d_st7567.c ****       c = ((u8x8_tile_t *)arg_ptr)->cnt;
 689:..\u8g2\csrc/u8x8_d_st7567.c ****       c *= 8;
 690:..\u8g2\csrc/u8x8_d_st7567.c ****       ptr = ((u8x8_tile_t *)arg_ptr)->tile_ptr;
 691:..\u8g2\csrc/u8x8_d_st7567.c ****       /* 
 692:..\u8g2\csrc/u8x8_d_st7567.c **** 	The following if condition checks the hardware limits of the st7567 
 693:..\u8g2\csrc/u8x8_d_st7567.c **** 	controller: It is not allowed to write beyond the display limits.
 694:..\u8g2\csrc/u8x8_d_st7567.c **** 	This is in fact an issue within flip mode.
 695:..\u8g2\csrc/u8x8_d_st7567.c ****       */
 696:..\u8g2\csrc/u8x8_d_st7567.c ****       if ( c + x > 132u )
 697:..\u8g2\csrc/u8x8_d_st7567.c ****       {
 698:..\u8g2\csrc/u8x8_d_st7567.c **** 	c = 132u;
 699:..\u8g2\csrc/u8x8_d_st7567.c **** 	c -= x;
 700:..\u8g2\csrc/u8x8_d_st7567.c ****       }
 701:..\u8g2\csrc/u8x8_d_st7567.c ****       do
 702:..\u8g2\csrc/u8x8_d_st7567.c ****       {
 703:..\u8g2\csrc/u8x8_d_st7567.c **** 	u8x8_cad_SendData(u8x8, c, ptr);	/* note: SendData can not handle more than 255 bytes */
 704:..\u8g2\csrc/u8x8_d_st7567.c **** 	arg_int--;
 705:..\u8g2\csrc/u8x8_d_st7567.c ****       } while( arg_int > 0 );
 706:..\u8g2\csrc/u8x8_d_st7567.c ****       
 707:..\u8g2\csrc/u8x8_d_st7567.c ****       u8x8_cad_EndTransfer(u8x8);
 708:..\u8g2\csrc/u8x8_d_st7567.c ****       break;
 709:..\u8g2\csrc/u8x8_d_st7567.c ****     default:
 710:..\u8g2\csrc/u8x8_d_st7567.c ****       return 0;
 711:..\u8g2\csrc/u8x8_d_st7567.c ****   }
 712:..\u8g2\csrc/u8x8_d_st7567.c ****   return 1;
 886              		.loc 1 712 0
 887 0022 0120     		movs	r0, #1
 647:..\u8g2\csrc/u8x8_d_st7567.c ****       break;
 888              		.loc 1 647 0
 889 0024 BDE8F081 		pop	{r4, r5, r6, r7, r8, pc}
 890              	.LVL147:
 891              	.L74:
 649:..\u8g2\csrc/u8x8_d_st7567.c ****       u8x8_cad_SendSequence(u8x8, u8x8_st7567_64x32_init_seq);
 892              		.loc 1 649 0
 893 0028 FFF7FEFF 		bl	u8x8_d_helper_display_init
 894              	.LVL148:
 650:..\u8g2\csrc/u8x8_d_st7567.c ****       break;
 895              		.loc 1 650 0
 896 002c 3949     		ldr	r1, .L85+4
 897 002e 2846     		mov	r0, r5
 898 0030 FFF7FEFF 		bl	u8x8_cad_SendSequence
 899              	.LVL149:
 900              		.loc 1 712 0
 901 0034 0120     		movs	r0, #1
 651:..\u8g2\csrc/u8x8_d_st7567.c ****     case U8X8_MSG_DISPLAY_SET_POWER_SAVE:
 902              		.loc 1 651 0
 903 0036 BDE8F081 		pop	{r4, r5, r6, r7, r8, pc}
 904              	.LVL150:
 905              	.L75:
 653:..\u8g2\csrc/u8x8_d_st7567.c **** 	u8x8_cad_SendSequence(u8x8, u8x8_d_st7567_132x64_powersave0_seq);
 906              		.loc 1 653 0
 907 003a 2AB9     		cbnz	r2, .L79
 654:..\u8g2\csrc/u8x8_d_st7567.c ****       else
 908              		.loc 1 654 0
 909 003c 3649     		ldr	r1, .L85+8
 910 003e FFF7FEFF 		bl	u8x8_cad_SendSequence
 911              	.LVL151:
ARM GAS  C:\Users\brian\AppData\Local\Temp\ccwFV3ea.s 			page 32


 912              		.loc 1 712 0
 913 0042 0120     		movs	r0, #1
 914 0044 BDE8F081 		pop	{r4, r5, r6, r7, r8, pc}
 915              	.LVL152:
 916              	.L79:
 656:..\u8g2\csrc/u8x8_d_st7567.c ****       break;
 917              		.loc 1 656 0
 918 0048 3449     		ldr	r1, .L85+12
 919 004a FFF7FEFF 		bl	u8x8_cad_SendSequence
 920              	.LVL153:
 921              		.loc 1 712 0
 922 004e 0120     		movs	r0, #1
 923 0050 BDE8F081 		pop	{r4, r5, r6, r7, r8, pc}
 924              	.LVL154:
 925              	.L76:
 659:..\u8g2\csrc/u8x8_d_st7567.c ****       {
 926              		.loc 1 659 0
 927 0054 4AB9     		cbnz	r2, .L80
 661:..\u8g2\csrc/u8x8_d_st7567.c **** 	u8x8->x_offset = u8x8->display_info->default_x_offset;
 928              		.loc 1 661 0
 929 0056 3249     		ldr	r1, .L85+16
 930 0058 FFF7FEFF 		bl	u8x8_cad_SendSequence
 931              	.LVL155:
 662:..\u8g2\csrc/u8x8_d_st7567.c ****       }
 932              		.loc 1 662 0
 933 005c 2B68     		ldr	r3, [r5]
 934 005e 9B7C     		ldrb	r3, [r3, #18]	@ zero_extendqisi2
 935 0060 85F82230 		strb	r3, [r5, #34]
 936              		.loc 1 712 0
 937 0064 0120     		movs	r0, #1
 938 0066 BDE8F081 		pop	{r4, r5, r6, r7, r8, pc}
 939              	.LVL156:
 940              	.L80:
 666:..\u8g2\csrc/u8x8_d_st7567.c **** 	u8x8->x_offset = u8x8->display_info->flipmode_x_offset;
 941              		.loc 1 666 0
 942 006a 2E49     		ldr	r1, .L85+20
 943 006c FFF7FEFF 		bl	u8x8_cad_SendSequence
 944              	.LVL157:
 667:..\u8g2\csrc/u8x8_d_st7567.c ****       }	
 945              		.loc 1 667 0
 946 0070 2B68     		ldr	r3, [r5]
 947 0072 DB7C     		ldrb	r3, [r3, #19]	@ zero_extendqisi2
 948 0074 85F82230 		strb	r3, [r5, #34]
 949              		.loc 1 712 0
 950 0078 0120     		movs	r0, #1
 951 007a BDE8F081 		pop	{r4, r5, r6, r7, r8, pc}
 952              	.LVL158:
 953              	.L77:
 672:..\u8g2\csrc/u8x8_d_st7567.c ****       u8x8_cad_SendCmd(u8x8, 0x081 );
 954              		.loc 1 672 0
 955 007e FFF7FEFF 		bl	u8x8_cad_StartTransfer
 956              	.LVL159:
 673:..\u8g2\csrc/u8x8_d_st7567.c ****       u8x8_cad_SendArg(u8x8, arg_int >> 2 );	/* st7567 has range from 0 to 63 */
 957              		.loc 1 673 0
 958 0082 8121     		movs	r1, #129
 959 0084 2846     		mov	r0, r5
 960 0086 FFF7FEFF 		bl	u8x8_cad_SendCmd
ARM GAS  C:\Users\brian\AppData\Local\Temp\ccwFV3ea.s 			page 33


 961              	.LVL160:
 674:..\u8g2\csrc/u8x8_d_st7567.c ****       u8x8_cad_EndTransfer(u8x8);
 962              		.loc 1 674 0
 963 008a A108     		lsrs	r1, r4, #2
 964 008c 2846     		mov	r0, r5
 965 008e FFF7FEFF 		bl	u8x8_cad_SendArg
 966              	.LVL161:
 675:..\u8g2\csrc/u8x8_d_st7567.c ****       break;
 967              		.loc 1 675 0
 968 0092 2846     		mov	r0, r5
 969 0094 FFF7FEFF 		bl	u8x8_cad_EndTransfer
 970              	.LVL162:
 971              		.loc 1 712 0
 972 0098 0120     		movs	r0, #1
 676:..\u8g2\csrc/u8x8_d_st7567.c **** #endif
 973              		.loc 1 676 0
 974 009a BDE8F081 		pop	{r4, r5, r6, r7, r8, pc}
 975              	.LVL163:
 976              	.L78:
 679:..\u8g2\csrc/u8x8_d_st7567.c ****     
 977              		.loc 1 679 0
 978 009e FFF7FEFF 		bl	u8x8_cad_StartTransfer
 979              	.LVL164:
 681:..\u8g2\csrc/u8x8_d_st7567.c ****       x *= 8;
 980              		.loc 1 681 0
 981 00a2 7B79     		ldrb	r3, [r7, #5]	@ zero_extendqisi2
 982              	.LVL165:
 682:..\u8g2\csrc/u8x8_d_st7567.c ****       x += u8x8->x_offset;
 983              		.loc 1 682 0
 984 00a4 DB00     		lsls	r3, r3, #3
 985              	.LVL166:
 986 00a6 DBB2     		uxtb	r3, r3
 987              	.LVL167:
 683:..\u8g2\csrc/u8x8_d_st7567.c ****       u8x8_cad_SendCmd(u8x8, 0x010 | (x>>4) );
 988              		.loc 1 683 0
 989 00a8 95F82280 		ldrb	r8, [r5, #34]	@ zero_extendqisi2
 990 00ac 9844     		add	r8, r8, r3
 991 00ae 5FFA88F8 		uxtb	r8, r8
 992              	.LVL168:
 684:..\u8g2\csrc/u8x8_d_st7567.c ****       u8x8_cad_SendCmd(u8x8, 0x000 | ((x&15)));
 993              		.loc 1 684 0
 994 00b2 4FEA1811 		lsr	r1, r8, #4
 995 00b6 41F01001 		orr	r1, r1, #16
 996 00ba 2846     		mov	r0, r5
 997 00bc FFF7FEFF 		bl	u8x8_cad_SendCmd
 998              	.LVL169:
 685:..\u8g2\csrc/u8x8_d_st7567.c ****       u8x8_cad_SendCmd(u8x8, 0x0b0 | (((u8x8_tile_t *)arg_ptr)->y_pos));
 999              		.loc 1 685 0
 1000 00c0 08F00F01 		and	r1, r8, #15
 1001 00c4 2846     		mov	r0, r5
 1002 00c6 FFF7FEFF 		bl	u8x8_cad_SendCmd
 1003              	.LVL170:
 686:..\u8g2\csrc/u8x8_d_st7567.c ****     
 1004              		.loc 1 686 0
 1005 00ca B979     		ldrb	r1, [r7, #6]	@ zero_extendqisi2
 1006 00cc 41F0B001 		orr	r1, r1, #176
 1007 00d0 2846     		mov	r0, r5
ARM GAS  C:\Users\brian\AppData\Local\Temp\ccwFV3ea.s 			page 34


 1008 00d2 FFF7FEFF 		bl	u8x8_cad_SendCmd
 1009              	.LVL171:
 688:..\u8g2\csrc/u8x8_d_st7567.c ****       c *= 8;
 1010              		.loc 1 688 0
 1011 00d6 3E79     		ldrb	r6, [r7, #4]	@ zero_extendqisi2
 1012              	.LVL172:
 689:..\u8g2\csrc/u8x8_d_st7567.c ****       ptr = ((u8x8_tile_t *)arg_ptr)->tile_ptr;
 1013              		.loc 1 689 0
 1014 00d8 F600     		lsls	r6, r6, #3
 1015              	.LVL173:
 1016 00da F6B2     		uxtb	r6, r6
 1017              	.LVL174:
 690:..\u8g2\csrc/u8x8_d_st7567.c ****       /* 
 1018              		.loc 1 690 0
 1019 00dc 3F68     		ldr	r7, [r7]
 1020              	.LVL175:
 696:..\u8g2\csrc/u8x8_d_st7567.c ****       {
 1021              		.loc 1 696 0
 1022 00de 06EB0803 		add	r3, r6, r8
 1023 00e2 842B     		cmp	r3, #132
 1024 00e4 02D9     		bls	.L82
 1025              	.LVL176:
 699:..\u8g2\csrc/u8x8_d_st7567.c ****       }
 1026              		.loc 1 699 0
 1027 00e6 C8F18406 		rsb	r6, r8, #132
 1028 00ea F6B2     		uxtb	r6, r6
 1029              	.LVL177:
 1030              	.L82:
 703:..\u8g2\csrc/u8x8_d_st7567.c **** 	arg_int--;
 1031              		.loc 1 703 0 discriminator 1
 1032 00ec 3A46     		mov	r2, r7
 1033 00ee 3146     		mov	r1, r6
 1034 00f0 2846     		mov	r0, r5
 1035 00f2 FFF7FEFF 		bl	u8x8_cad_SendData
 1036              	.LVL178:
 704:..\u8g2\csrc/u8x8_d_st7567.c ****       } while( arg_int > 0 );
 1037              		.loc 1 704 0 discriminator 1
 1038 00f6 621E     		subs	r2, r4, #1
 1039              	.LVL179:
 705:..\u8g2\csrc/u8x8_d_st7567.c ****       
 1040              		.loc 1 705 0 discriminator 1
 1041 00f8 12F0FF04 		ands	r4, r2, #255
 1042 00fc F6D1     		bne	.L82
 707:..\u8g2\csrc/u8x8_d_st7567.c ****       break;
 1043              		.loc 1 707 0
 1044 00fe 2846     		mov	r0, r5
 1045 0100 FFF7FEFF 		bl	u8x8_cad_EndTransfer
 1046              	.LVL180:
 1047              		.loc 1 712 0
 1048 0104 0120     		movs	r0, #1
 708:..\u8g2\csrc/u8x8_d_st7567.c ****     default:
 1049              		.loc 1 708 0
 1050 0106 BDE8F081 		pop	{r4, r5, r6, r7, r8, pc}
 1051              	.LVL181:
 1052              	.L83:
 710:..\u8g2\csrc/u8x8_d_st7567.c ****   }
 1053              		.loc 1 710 0
ARM GAS  C:\Users\brian\AppData\Local\Temp\ccwFV3ea.s 			page 35


 1054 010a 0020     		movs	r0, #0
 1055              	.LVL182:
 713:..\u8g2\csrc/u8x8_d_st7567.c **** }
 1056              		.loc 1 713 0
 1057 010c BDE8F081 		pop	{r4, r5, r6, r7, r8, pc}
 1058              	.LVL183:
 1059              	.L86:
 1060              		.align	2
 1061              	.L85:
 1062 0110 08010000 		.word	.LANCHOR0+264
 1063 0114 20010000 		.word	.LANCHOR0+288
 1064 0118 40000000 		.word	.LANCHOR0+64
 1065 011c 48000000 		.word	.LANCHOR0+72
 1066 0120 90000000 		.word	.LANCHOR0+144
 1067 0124 98000000 		.word	.LANCHOR0+152
 1068              		.cfi_endproc
 1069              	.LFE5:
 1070              		.size	u8x8_d_st7567_64x32, .-u8x8_d_st7567_64x32
 1071              		.section	.text.u8x8_d_st7567_hem6432,"ax",%progbits
 1072              		.align	2
 1073              		.global	u8x8_d_st7567_hem6432
 1074              		.thumb
 1075              		.thumb_func
 1076              		.type	u8x8_d_st7567_hem6432, %function
 1077              	u8x8_d_st7567_hem6432:
 1078              	.LFB6:
 714:..\u8g2\csrc/u8x8_d_st7567.c **** 
 715:..\u8g2\csrc/u8x8_d_st7567.c **** /*=====================================================*/
 716:..\u8g2\csrc/u8x8_d_st7567.c **** /* issue 1159, Lummax HEM6432-03 */
 717:..\u8g2\csrc/u8x8_d_st7567.c **** 
 718:..\u8g2\csrc/u8x8_d_st7567.c **** 
 719:..\u8g2\csrc/u8x8_d_st7567.c **** static const u8x8_display_info_t u8x8_st7567_hem6432_display_info =
 720:..\u8g2\csrc/u8x8_d_st7567.c **** {
 721:..\u8g2\csrc/u8x8_d_st7567.c ****   /* chip_enable_level = */ 0,
 722:..\u8g2\csrc/u8x8_d_st7567.c ****   /* chip_disable_level = */ 1,
 723:..\u8g2\csrc/u8x8_d_st7567.c ****   
 724:..\u8g2\csrc/u8x8_d_st7567.c ****   /* post_chip_enable_wait_ns = */ 150,	/* */
 725:..\u8g2\csrc/u8x8_d_st7567.c ****   /* pre_chip_disable_wait_ns = */ 50,	/* */
 726:..\u8g2\csrc/u8x8_d_st7567.c ****   /* reset_pulse_width_ms = */ 1, 
 727:..\u8g2\csrc/u8x8_d_st7567.c ****   /* post_reset_wait_ms = */ 1, 
 728:..\u8g2\csrc/u8x8_d_st7567.c ****   /* sda_setup_time_ns = */ 50,		/* */
 729:..\u8g2\csrc/u8x8_d_st7567.c ****   /* sck_pulse_width_ns = */ 120,	/* */
 730:..\u8g2\csrc/u8x8_d_st7567.c ****   /* sck_clock_hz = */ 4000000UL,	/* */
 731:..\u8g2\csrc/u8x8_d_st7567.c ****   /* spi_mode = */ 0,		/* active high, rising edge */
 732:..\u8g2\csrc/u8x8_d_st7567.c ****   /* i2c_bus_clock_100kHz = */ 4,
 733:..\u8g2\csrc/u8x8_d_st7567.c ****   /* data_setup_time_ns = */ 40,	/* */
 734:..\u8g2\csrc/u8x8_d_st7567.c ****   /* write_pulse_width_ns = */ 80,	/* */
 735:..\u8g2\csrc/u8x8_d_st7567.c ****   /* tile_width = */ 8,		
 736:..\u8g2\csrc/u8x8_d_st7567.c ****   /* tile_hight = */ 4,
 737:..\u8g2\csrc/u8x8_d_st7567.c ****   /* default_x_offset = */ 36,		/* issue 1159 */
 738:..\u8g2\csrc/u8x8_d_st7567.c ****   /* flipmode_x_offset = */ 32,		/* issue 1159 */
 739:..\u8g2\csrc/u8x8_d_st7567.c ****   /* pixel_width = */ 64,
 740:..\u8g2\csrc/u8x8_d_st7567.c ****   /* pixel_height = */ 32
 741:..\u8g2\csrc/u8x8_d_st7567.c **** };
 742:..\u8g2\csrc/u8x8_d_st7567.c **** 
 743:..\u8g2\csrc/u8x8_d_st7567.c **** static const uint8_t u8x8_st7567_hem6432_init_seq[] = {
 744:..\u8g2\csrc/u8x8_d_st7567.c ****     
ARM GAS  C:\Users\brian\AppData\Local\Temp\ccwFV3ea.s 			page 36


 745:..\u8g2\csrc/u8x8_d_st7567.c ****   U8X8_START_TRANSFER(),             	/* enable chip, delay is part of the transfer start */
 746:..\u8g2\csrc/u8x8_d_st7567.c ****   
 747:..\u8g2\csrc/u8x8_d_st7567.c ****   U8X8_C(0x0e2),            			/* soft reset */
 748:..\u8g2\csrc/u8x8_d_st7567.c ****   U8X8_C(0x0ae),		                /* display off */
 749:..\u8g2\csrc/u8x8_d_st7567.c ****   U8X8_C(0x040),		                /* set display start line to 0 */
 750:..\u8g2\csrc/u8x8_d_st7567.c ****   
 751:..\u8g2\csrc/u8x8_d_st7567.c ****   U8X8_C(0x0a1),		                /* ADC */
 752:..\u8g2\csrc/u8x8_d_st7567.c ****   U8X8_C(0x0c0),		                /* common output mode */
 753:..\u8g2\csrc/u8x8_d_st7567.c ****   // Flipmode
 754:..\u8g2\csrc/u8x8_d_st7567.c ****   //U8X8_C(0x0a0),		                /* ADC  */
 755:..\u8g2\csrc/u8x8_d_st7567.c ****   //U8X8_C(0x0c8),		                /* common output mode */
 756:..\u8g2\csrc/u8x8_d_st7567.c ****   
 757:..\u8g2\csrc/u8x8_d_st7567.c ****   U8X8_C(0x0a6),		                /* display normal, bit val 0: LCD pixel off. */
 758:..\u8g2\csrc/u8x8_d_st7567.c ****   U8X8_C(0x0a2),		                /* LCD bias 1/9 */
 759:..\u8g2\csrc/u8x8_d_st7567.c ****   U8X8_C(0x028|4),		                /* all power  control circuits on */
 760:..\u8g2\csrc/u8x8_d_st7567.c ****   U8X8_DLY(50),
 761:..\u8g2\csrc/u8x8_d_st7567.c ****   U8X8_C(0x028|6),		                /* all power  control circuits on */
 762:..\u8g2\csrc/u8x8_d_st7567.c ****   U8X8_DLY(50),
 763:..\u8g2\csrc/u8x8_d_st7567.c ****   U8X8_C(0x028|7),		                /* all power  control circuits on */
 764:..\u8g2\csrc/u8x8_d_st7567.c ****   U8X8_DLY(50),
 765:..\u8g2\csrc/u8x8_d_st7567.c ****   
 766:..\u8g2\csrc/u8x8_d_st7567.c ****   U8X8_C(0x024),		                /* v0 voltage resistor ratio, taken from issue 657 */
 767:..\u8g2\csrc/u8x8_d_st7567.c ****   U8X8_CA(0x081, 225/4),		/* set contrast, contrast value as suggested inissue 1159 */
 768:..\u8g2\csrc/u8x8_d_st7567.c ****   
 769:..\u8g2\csrc/u8x8_d_st7567.c ****   U8X8_C(0x0ae),		                /* display off */
 770:..\u8g2\csrc/u8x8_d_st7567.c ****   U8X8_C(0x0a5),		                /* enter powersafe: all pixel on, issue 142 */
 771:..\u8g2\csrc/u8x8_d_st7567.c ****    
 772:..\u8g2\csrc/u8x8_d_st7567.c ****   U8X8_END_TRANSFER(),             	/* disable chip */
 773:..\u8g2\csrc/u8x8_d_st7567.c ****   U8X8_END()             			/* end of sequence */
 774:..\u8g2\csrc/u8x8_d_st7567.c **** };
 775:..\u8g2\csrc/u8x8_d_st7567.c **** 
 776:..\u8g2\csrc/u8x8_d_st7567.c **** 
 777:..\u8g2\csrc/u8x8_d_st7567.c **** uint8_t u8x8_d_st7567_hem6432(u8x8_t *u8x8, uint8_t msg, uint8_t arg_int, void *arg_ptr)
 778:..\u8g2\csrc/u8x8_d_st7567.c **** {
 1079              		.loc 1 778 0
 1080              		.cfi_startproc
 1081              		@ args = 0, pretend = 0, frame = 0
 1082              		@ frame_needed = 0, uses_anonymous_args = 0
 1083              	.LVL184:
 1084 0000 2DE9F041 		push	{r4, r5, r6, r7, r8, lr}
 1085              		.cfi_def_cfa_offset 24
 1086              		.cfi_offset 4, -24
 1087              		.cfi_offset 5, -20
 1088              		.cfi_offset 6, -16
 1089              		.cfi_offset 7, -12
 1090              		.cfi_offset 8, -8
 1091              		.cfi_offset 14, -4
 1092 0004 0546     		mov	r5, r0
 1093 0006 1446     		mov	r4, r2
 1094 0008 1F46     		mov	r7, r3
 779:..\u8g2\csrc/u8x8_d_st7567.c ****   uint8_t x, c;
 780:..\u8g2\csrc/u8x8_d_st7567.c ****   uint8_t *ptr;
 781:..\u8g2\csrc/u8x8_d_st7567.c ****   switch(msg)
 1095              		.loc 1 781 0
 1096 000a 0939     		subs	r1, r1, #9
 1097              	.LVL185:
 1098 000c 0629     		cmp	r1, #6
ARM GAS  C:\Users\brian\AppData\Local\Temp\ccwFV3ea.s 			page 37


 1099 000e 7FD8     		bhi	.L100
 1100 0010 DFE801F0 		tbb	[pc, r1]
 1101              	.LVL186:
 1102              	.L90:
 1103 0014 04       		.byte	(.L89-.L90)/2
 1104 0015 0D       		.byte	(.L91-.L90)/2
 1105 0016 16       		.byte	(.L92-.L90)/2
 1106 0017 7E       		.byte	(.L100-.L90)/2
 1107 0018 23       		.byte	(.L93-.L90)/2
 1108 0019 38       		.byte	(.L94-.L90)/2
 1109 001a 48       		.byte	(.L95-.L90)/2
 1110 001b 00       		.p2align 1
 1111              	.L89:
 782:..\u8g2\csrc/u8x8_d_st7567.c ****   {
 783:..\u8g2\csrc/u8x8_d_st7567.c ****     case U8X8_MSG_DISPLAY_SETUP_MEMORY:
 784:..\u8g2\csrc/u8x8_d_st7567.c ****       u8x8_d_helper_display_setup_memory(u8x8, &u8x8_st7567_hem6432_display_info);
 1112              		.loc 1 784 0
 1113 001c 3E49     		ldr	r1, .L102
 1114 001e FFF7FEFF 		bl	u8x8_d_helper_display_setup_memory
 1115              	.LVL187:
 785:..\u8g2\csrc/u8x8_d_st7567.c ****       u8x8->i2c_address = 0x07e;  /* issue 1159, use different i2c address */
 1116              		.loc 1 785 0
 1117 0022 7E23     		movs	r3, #126
 1118 0024 85F82430 		strb	r3, [r5, #36]
 786:..\u8g2\csrc/u8x8_d_st7567.c ****       break;
 787:..\u8g2\csrc/u8x8_d_st7567.c ****     case U8X8_MSG_DISPLAY_INIT:
 788:..\u8g2\csrc/u8x8_d_st7567.c ****       u8x8_d_helper_display_init(u8x8);
 789:..\u8g2\csrc/u8x8_d_st7567.c ****       u8x8_cad_SendSequence(u8x8, u8x8_st7567_hem6432_init_seq);
 790:..\u8g2\csrc/u8x8_d_st7567.c ****       break;
 791:..\u8g2\csrc/u8x8_d_st7567.c ****     case U8X8_MSG_DISPLAY_SET_POWER_SAVE:
 792:..\u8g2\csrc/u8x8_d_st7567.c ****       if ( arg_int == 0 )
 793:..\u8g2\csrc/u8x8_d_st7567.c **** 	u8x8_cad_SendSequence(u8x8, u8x8_d_st7567_132x64_powersave0_seq);
 794:..\u8g2\csrc/u8x8_d_st7567.c ****       else
 795:..\u8g2\csrc/u8x8_d_st7567.c **** 	u8x8_cad_SendSequence(u8x8, u8x8_d_st7567_132x64_powersave1_seq);
 796:..\u8g2\csrc/u8x8_d_st7567.c ****       break;
 797:..\u8g2\csrc/u8x8_d_st7567.c ****     case U8X8_MSG_DISPLAY_SET_FLIP_MODE:
 798:..\u8g2\csrc/u8x8_d_st7567.c ****       if ( arg_int == 0 )
 799:..\u8g2\csrc/u8x8_d_st7567.c ****       {
 800:..\u8g2\csrc/u8x8_d_st7567.c **** 	u8x8_cad_SendSequence(u8x8, u8x8_d_st7567_132x64_flip0_seq);
 801:..\u8g2\csrc/u8x8_d_st7567.c **** 	u8x8->x_offset = u8x8->display_info->default_x_offset;
 802:..\u8g2\csrc/u8x8_d_st7567.c ****       }
 803:..\u8g2\csrc/u8x8_d_st7567.c ****       else
 804:..\u8g2\csrc/u8x8_d_st7567.c ****       {
 805:..\u8g2\csrc/u8x8_d_st7567.c **** 	u8x8_cad_SendSequence(u8x8, u8x8_d_st7567_132x64_flip1_seq);
 806:..\u8g2\csrc/u8x8_d_st7567.c **** 	u8x8->x_offset = u8x8->display_info->flipmode_x_offset;
 807:..\u8g2\csrc/u8x8_d_st7567.c ****       }	
 808:..\u8g2\csrc/u8x8_d_st7567.c ****       break;
 809:..\u8g2\csrc/u8x8_d_st7567.c **** #ifdef U8X8_WITH_SET_CONTRAST
 810:..\u8g2\csrc/u8x8_d_st7567.c ****     case U8X8_MSG_DISPLAY_SET_CONTRAST:
 811:..\u8g2\csrc/u8x8_d_st7567.c ****       u8x8_cad_StartTransfer(u8x8);
 812:..\u8g2\csrc/u8x8_d_st7567.c ****       u8x8_cad_SendCmd(u8x8, 0x081 );
 813:..\u8g2\csrc/u8x8_d_st7567.c ****       u8x8_cad_SendArg(u8x8, arg_int >> 2 );	/* st7567 has range from 0 to 63 */
 814:..\u8g2\csrc/u8x8_d_st7567.c ****       u8x8_cad_EndTransfer(u8x8);
 815:..\u8g2\csrc/u8x8_d_st7567.c ****       break;
 816:..\u8g2\csrc/u8x8_d_st7567.c **** #endif
 817:..\u8g2\csrc/u8x8_d_st7567.c ****     case U8X8_MSG_DISPLAY_DRAW_TILE:
 818:..\u8g2\csrc/u8x8_d_st7567.c ****       u8x8_cad_StartTransfer(u8x8);
ARM GAS  C:\Users\brian\AppData\Local\Temp\ccwFV3ea.s 			page 38


 819:..\u8g2\csrc/u8x8_d_st7567.c ****     
 820:..\u8g2\csrc/u8x8_d_st7567.c ****       x = ((u8x8_tile_t *)arg_ptr)->x_pos;
 821:..\u8g2\csrc/u8x8_d_st7567.c ****       x *= 8;
 822:..\u8g2\csrc/u8x8_d_st7567.c ****       x += u8x8->x_offset;
 823:..\u8g2\csrc/u8x8_d_st7567.c ****       u8x8_cad_SendCmd(u8x8, 0x010 | (x>>4) );
 824:..\u8g2\csrc/u8x8_d_st7567.c ****       u8x8_cad_SendCmd(u8x8, 0x000 | ((x&15)));
 825:..\u8g2\csrc/u8x8_d_st7567.c ****       u8x8_cad_SendCmd(u8x8, 0x0b0 | (((u8x8_tile_t *)arg_ptr)->y_pos));
 826:..\u8g2\csrc/u8x8_d_st7567.c ****     
 827:..\u8g2\csrc/u8x8_d_st7567.c ****       c = ((u8x8_tile_t *)arg_ptr)->cnt;
 828:..\u8g2\csrc/u8x8_d_st7567.c ****       c *= 8;
 829:..\u8g2\csrc/u8x8_d_st7567.c ****       ptr = ((u8x8_tile_t *)arg_ptr)->tile_ptr;
 830:..\u8g2\csrc/u8x8_d_st7567.c ****       /* 
 831:..\u8g2\csrc/u8x8_d_st7567.c **** 	The following if condition checks the hardware limits of the st7567 
 832:..\u8g2\csrc/u8x8_d_st7567.c **** 	controller: It is not allowed to write beyond the display limits.
 833:..\u8g2\csrc/u8x8_d_st7567.c **** 	This is in fact an issue within flip mode.
 834:..\u8g2\csrc/u8x8_d_st7567.c ****       */
 835:..\u8g2\csrc/u8x8_d_st7567.c ****       if ( c + x > 132u )
 836:..\u8g2\csrc/u8x8_d_st7567.c ****       {
 837:..\u8g2\csrc/u8x8_d_st7567.c **** 	c = 132u;
 838:..\u8g2\csrc/u8x8_d_st7567.c **** 	c -= x;
 839:..\u8g2\csrc/u8x8_d_st7567.c ****       }
 840:..\u8g2\csrc/u8x8_d_st7567.c ****       do
 841:..\u8g2\csrc/u8x8_d_st7567.c ****       {
 842:..\u8g2\csrc/u8x8_d_st7567.c **** 	u8x8_cad_SendData(u8x8, c, ptr);	/* note: SendData can not handle more than 255 bytes */
 843:..\u8g2\csrc/u8x8_d_st7567.c **** 	arg_int--;
 844:..\u8g2\csrc/u8x8_d_st7567.c ****       } while( arg_int > 0 );
 845:..\u8g2\csrc/u8x8_d_st7567.c ****       
 846:..\u8g2\csrc/u8x8_d_st7567.c ****       u8x8_cad_EndTransfer(u8x8);
 847:..\u8g2\csrc/u8x8_d_st7567.c ****       break;
 848:..\u8g2\csrc/u8x8_d_st7567.c ****     default:
 849:..\u8g2\csrc/u8x8_d_st7567.c ****       return 0;
 850:..\u8g2\csrc/u8x8_d_st7567.c ****   }
 851:..\u8g2\csrc/u8x8_d_st7567.c ****   return 1;
 1119              		.loc 1 851 0
 1120 0028 0120     		movs	r0, #1
 786:..\u8g2\csrc/u8x8_d_st7567.c ****       break;
 1121              		.loc 1 786 0
 1122 002a BDE8F081 		pop	{r4, r5, r6, r7, r8, pc}
 1123              	.LVL188:
 1124              	.L91:
 788:..\u8g2\csrc/u8x8_d_st7567.c ****       u8x8_cad_SendSequence(u8x8, u8x8_st7567_hem6432_init_seq);
 1125              		.loc 1 788 0
 1126 002e FFF7FEFF 		bl	u8x8_d_helper_display_init
 1127              	.LVL189:
 789:..\u8g2\csrc/u8x8_d_st7567.c ****       break;
 1128              		.loc 1 789 0
 1129 0032 3A49     		ldr	r1, .L102+4
 1130 0034 2846     		mov	r0, r5
 1131 0036 FFF7FEFF 		bl	u8x8_cad_SendSequence
 1132              	.LVL190:
 1133              		.loc 1 851 0
 1134 003a 0120     		movs	r0, #1
 790:..\u8g2\csrc/u8x8_d_st7567.c ****     case U8X8_MSG_DISPLAY_SET_POWER_SAVE:
 1135              		.loc 1 790 0
 1136 003c BDE8F081 		pop	{r4, r5, r6, r7, r8, pc}
 1137              	.LVL191:
 1138              	.L92:
ARM GAS  C:\Users\brian\AppData\Local\Temp\ccwFV3ea.s 			page 39


 792:..\u8g2\csrc/u8x8_d_st7567.c **** 	u8x8_cad_SendSequence(u8x8, u8x8_d_st7567_132x64_powersave0_seq);
 1139              		.loc 1 792 0
 1140 0040 2AB9     		cbnz	r2, .L96
 793:..\u8g2\csrc/u8x8_d_st7567.c ****       else
 1141              		.loc 1 793 0
 1142 0042 3749     		ldr	r1, .L102+8
 1143 0044 FFF7FEFF 		bl	u8x8_cad_SendSequence
 1144              	.LVL192:
 1145              		.loc 1 851 0
 1146 0048 0120     		movs	r0, #1
 1147 004a BDE8F081 		pop	{r4, r5, r6, r7, r8, pc}
 1148              	.LVL193:
 1149              	.L96:
 795:..\u8g2\csrc/u8x8_d_st7567.c ****       break;
 1150              		.loc 1 795 0
 1151 004e 3549     		ldr	r1, .L102+12
 1152 0050 FFF7FEFF 		bl	u8x8_cad_SendSequence
 1153              	.LVL194:
 1154              		.loc 1 851 0
 1155 0054 0120     		movs	r0, #1
 1156 0056 BDE8F081 		pop	{r4, r5, r6, r7, r8, pc}
 1157              	.LVL195:
 1158              	.L93:
 798:..\u8g2\csrc/u8x8_d_st7567.c ****       {
 1159              		.loc 1 798 0
 1160 005a 4AB9     		cbnz	r2, .L97
 800:..\u8g2\csrc/u8x8_d_st7567.c **** 	u8x8->x_offset = u8x8->display_info->default_x_offset;
 1161              		.loc 1 800 0
 1162 005c 3249     		ldr	r1, .L102+16
 1163 005e FFF7FEFF 		bl	u8x8_cad_SendSequence
 1164              	.LVL196:
 801:..\u8g2\csrc/u8x8_d_st7567.c ****       }
 1165              		.loc 1 801 0
 1166 0062 2B68     		ldr	r3, [r5]
 1167 0064 9B7C     		ldrb	r3, [r3, #18]	@ zero_extendqisi2
 1168 0066 85F82230 		strb	r3, [r5, #34]
 1169              		.loc 1 851 0
 1170 006a 0120     		movs	r0, #1
 1171 006c BDE8F081 		pop	{r4, r5, r6, r7, r8, pc}
 1172              	.LVL197:
 1173              	.L97:
 805:..\u8g2\csrc/u8x8_d_st7567.c **** 	u8x8->x_offset = u8x8->display_info->flipmode_x_offset;
 1174              		.loc 1 805 0
 1175 0070 2E49     		ldr	r1, .L102+20
 1176 0072 FFF7FEFF 		bl	u8x8_cad_SendSequence
 1177              	.LVL198:
 806:..\u8g2\csrc/u8x8_d_st7567.c ****       }	
 1178              		.loc 1 806 0
 1179 0076 2B68     		ldr	r3, [r5]
 1180 0078 DB7C     		ldrb	r3, [r3, #19]	@ zero_extendqisi2
 1181 007a 85F82230 		strb	r3, [r5, #34]
 1182              		.loc 1 851 0
 1183 007e 0120     		movs	r0, #1
 1184 0080 BDE8F081 		pop	{r4, r5, r6, r7, r8, pc}
 1185              	.LVL199:
 1186              	.L94:
 811:..\u8g2\csrc/u8x8_d_st7567.c ****       u8x8_cad_SendCmd(u8x8, 0x081 );
ARM GAS  C:\Users\brian\AppData\Local\Temp\ccwFV3ea.s 			page 40


 1187              		.loc 1 811 0
 1188 0084 FFF7FEFF 		bl	u8x8_cad_StartTransfer
 1189              	.LVL200:
 812:..\u8g2\csrc/u8x8_d_st7567.c ****       u8x8_cad_SendArg(u8x8, arg_int >> 2 );	/* st7567 has range from 0 to 63 */
 1190              		.loc 1 812 0
 1191 0088 8121     		movs	r1, #129
 1192 008a 2846     		mov	r0, r5
 1193 008c FFF7FEFF 		bl	u8x8_cad_SendCmd
 1194              	.LVL201:
 813:..\u8g2\csrc/u8x8_d_st7567.c ****       u8x8_cad_EndTransfer(u8x8);
 1195              		.loc 1 813 0
 1196 0090 A108     		lsrs	r1, r4, #2
 1197 0092 2846     		mov	r0, r5
 1198 0094 FFF7FEFF 		bl	u8x8_cad_SendArg
 1199              	.LVL202:
 814:..\u8g2\csrc/u8x8_d_st7567.c ****       break;
 1200              		.loc 1 814 0
 1201 0098 2846     		mov	r0, r5
 1202 009a FFF7FEFF 		bl	u8x8_cad_EndTransfer
 1203              	.LVL203:
 1204              		.loc 1 851 0
 1205 009e 0120     		movs	r0, #1
 815:..\u8g2\csrc/u8x8_d_st7567.c **** #endif
 1206              		.loc 1 815 0
 1207 00a0 BDE8F081 		pop	{r4, r5, r6, r7, r8, pc}
 1208              	.LVL204:
 1209              	.L95:
 818:..\u8g2\csrc/u8x8_d_st7567.c ****     
 1210              		.loc 1 818 0
 1211 00a4 FFF7FEFF 		bl	u8x8_cad_StartTransfer
 1212              	.LVL205:
 820:..\u8g2\csrc/u8x8_d_st7567.c ****       x *= 8;
 1213              		.loc 1 820 0
 1214 00a8 7B79     		ldrb	r3, [r7, #5]	@ zero_extendqisi2
 1215              	.LVL206:
 821:..\u8g2\csrc/u8x8_d_st7567.c ****       x += u8x8->x_offset;
 1216              		.loc 1 821 0
 1217 00aa DB00     		lsls	r3, r3, #3
 1218              	.LVL207:
 1219 00ac DBB2     		uxtb	r3, r3
 1220              	.LVL208:
 822:..\u8g2\csrc/u8x8_d_st7567.c ****       u8x8_cad_SendCmd(u8x8, 0x010 | (x>>4) );
 1221              		.loc 1 822 0
 1222 00ae 95F82280 		ldrb	r8, [r5, #34]	@ zero_extendqisi2
 1223 00b2 9844     		add	r8, r8, r3
 1224 00b4 5FFA88F8 		uxtb	r8, r8
 1225              	.LVL209:
 823:..\u8g2\csrc/u8x8_d_st7567.c ****       u8x8_cad_SendCmd(u8x8, 0x000 | ((x&15)));
 1226              		.loc 1 823 0
 1227 00b8 4FEA1811 		lsr	r1, r8, #4
 1228 00bc 41F01001 		orr	r1, r1, #16
 1229 00c0 2846     		mov	r0, r5
 1230 00c2 FFF7FEFF 		bl	u8x8_cad_SendCmd
 1231              	.LVL210:
 824:..\u8g2\csrc/u8x8_d_st7567.c ****       u8x8_cad_SendCmd(u8x8, 0x0b0 | (((u8x8_tile_t *)arg_ptr)->y_pos));
 1232              		.loc 1 824 0
 1233 00c6 08F00F01 		and	r1, r8, #15
ARM GAS  C:\Users\brian\AppData\Local\Temp\ccwFV3ea.s 			page 41


 1234 00ca 2846     		mov	r0, r5
 1235 00cc FFF7FEFF 		bl	u8x8_cad_SendCmd
 1236              	.LVL211:
 825:..\u8g2\csrc/u8x8_d_st7567.c ****     
 1237              		.loc 1 825 0
 1238 00d0 B979     		ldrb	r1, [r7, #6]	@ zero_extendqisi2
 1239 00d2 41F0B001 		orr	r1, r1, #176
 1240 00d6 2846     		mov	r0, r5
 1241 00d8 FFF7FEFF 		bl	u8x8_cad_SendCmd
 1242              	.LVL212:
 827:..\u8g2\csrc/u8x8_d_st7567.c ****       c *= 8;
 1243              		.loc 1 827 0
 1244 00dc 3E79     		ldrb	r6, [r7, #4]	@ zero_extendqisi2
 1245              	.LVL213:
 828:..\u8g2\csrc/u8x8_d_st7567.c ****       ptr = ((u8x8_tile_t *)arg_ptr)->tile_ptr;
 1246              		.loc 1 828 0
 1247 00de F600     		lsls	r6, r6, #3
 1248              	.LVL214:
 1249 00e0 F6B2     		uxtb	r6, r6
 1250              	.LVL215:
 829:..\u8g2\csrc/u8x8_d_st7567.c ****       /* 
 1251              		.loc 1 829 0
 1252 00e2 3F68     		ldr	r7, [r7]
 1253              	.LVL216:
 835:..\u8g2\csrc/u8x8_d_st7567.c ****       {
 1254              		.loc 1 835 0
 1255 00e4 06EB0803 		add	r3, r6, r8
 1256 00e8 842B     		cmp	r3, #132
 1257 00ea 02D9     		bls	.L99
 1258              	.LVL217:
 838:..\u8g2\csrc/u8x8_d_st7567.c ****       }
 1259              		.loc 1 838 0
 1260 00ec C8F18406 		rsb	r6, r8, #132
 1261 00f0 F6B2     		uxtb	r6, r6
 1262              	.LVL218:
 1263              	.L99:
 842:..\u8g2\csrc/u8x8_d_st7567.c **** 	arg_int--;
 1264              		.loc 1 842 0 discriminator 1
 1265 00f2 3A46     		mov	r2, r7
 1266 00f4 3146     		mov	r1, r6
 1267 00f6 2846     		mov	r0, r5
 1268 00f8 FFF7FEFF 		bl	u8x8_cad_SendData
 1269              	.LVL219:
 843:..\u8g2\csrc/u8x8_d_st7567.c ****       } while( arg_int > 0 );
 1270              		.loc 1 843 0 discriminator 1
 1271 00fc 621E     		subs	r2, r4, #1
 1272              	.LVL220:
 844:..\u8g2\csrc/u8x8_d_st7567.c ****       
 1273              		.loc 1 844 0 discriminator 1
 1274 00fe 12F0FF04 		ands	r4, r2, #255
 1275 0102 F6D1     		bne	.L99
 846:..\u8g2\csrc/u8x8_d_st7567.c ****       break;
 1276              		.loc 1 846 0
 1277 0104 2846     		mov	r0, r5
 1278 0106 FFF7FEFF 		bl	u8x8_cad_EndTransfer
 1279              	.LVL221:
 1280              		.loc 1 851 0
ARM GAS  C:\Users\brian\AppData\Local\Temp\ccwFV3ea.s 			page 42


 1281 010a 0120     		movs	r0, #1
 847:..\u8g2\csrc/u8x8_d_st7567.c ****     default:
 1282              		.loc 1 847 0
 1283 010c BDE8F081 		pop	{r4, r5, r6, r7, r8, pc}
 1284              	.LVL222:
 1285              	.L100:
 849:..\u8g2\csrc/u8x8_d_st7567.c ****   }
 1286              		.loc 1 849 0
 1287 0110 0020     		movs	r0, #0
 1288              	.LVL223:
 852:..\u8g2\csrc/u8x8_d_st7567.c **** }
 1289              		.loc 1 852 0
 1290 0112 BDE8F081 		pop	{r4, r5, r6, r7, r8, pc}
 1291              	.LVL224:
 1292              	.L103:
 1293 0116 00BF     		.align	2
 1294              	.L102:
 1295 0118 48010000 		.word	.LANCHOR0+328
 1296 011c 60010000 		.word	.LANCHOR0+352
 1297 0120 40000000 		.word	.LANCHOR0+64
 1298 0124 48000000 		.word	.LANCHOR0+72
 1299 0128 90000000 		.word	.LANCHOR0+144
 1300 012c 98000000 		.word	.LANCHOR0+152
 1301              		.cfi_endproc
 1302              	.LFE6:
 1303              		.size	u8x8_d_st7567_hem6432, .-u8x8_d_st7567_hem6432
 1304              		.section	.text.u8x8_d_st7567_os12864,"ax",%progbits
 1305              		.align	2
 1306              		.global	u8x8_d_st7567_os12864
 1307              		.thumb
 1308              		.thumb_func
 1309              		.type	u8x8_d_st7567_os12864, %function
 1310              	u8x8_d_st7567_os12864:
 1311              	.LFB7:
 853:..\u8g2\csrc/u8x8_d_st7567.c **** 
 854:..\u8g2\csrc/u8x8_d_st7567.c **** 
 855:..\u8g2\csrc/u8x8_d_st7567.c **** /*=====================================================*/
 856:..\u8g2\csrc/u8x8_d_st7567.c **** /*
 857:..\u8g2\csrc/u8x8_d_st7567.c ****   https://github.com/olikraus/u8g2/issues/1088 
 858:..\u8g2\csrc/u8x8_d_st7567.c ****   https://www.dx.com/p/opensmart-33v-26-inch-128x64-serial-spi-monochrome-lcd-breakout-board-module
 859:..\u8g2\csrc/u8x8_d_st7567.c **** */
 860:..\u8g2\csrc/u8x8_d_st7567.c **** 
 861:..\u8g2\csrc/u8x8_d_st7567.c **** 
 862:..\u8g2\csrc/u8x8_d_st7567.c **** 
 863:..\u8g2\csrc/u8x8_d_st7567.c **** 
 864:..\u8g2\csrc/u8x8_d_st7567.c **** 
 865:..\u8g2\csrc/u8x8_d_st7567.c **** static const u8x8_display_info_t u8x8_st7567_os12864_display_info =
 866:..\u8g2\csrc/u8x8_d_st7567.c **** {
 867:..\u8g2\csrc/u8x8_d_st7567.c ****   /* chip_enable_level = */ 0,
 868:..\u8g2\csrc/u8x8_d_st7567.c ****   /* chip_disable_level = */ 1,
 869:..\u8g2\csrc/u8x8_d_st7567.c ****   
 870:..\u8g2\csrc/u8x8_d_st7567.c ****   /* post_chip_enable_wait_ns = */ 150,	/* */
 871:..\u8g2\csrc/u8x8_d_st7567.c ****   /* pre_chip_disable_wait_ns = */ 50,	/* */
 872:..\u8g2\csrc/u8x8_d_st7567.c ****   /* reset_pulse_width_ms = */ 1, 
 873:..\u8g2\csrc/u8x8_d_st7567.c ****   /* post_reset_wait_ms = */ 1, 
 874:..\u8g2\csrc/u8x8_d_st7567.c ****   /* sda_setup_time_ns = */ 50,		/* */
 875:..\u8g2\csrc/u8x8_d_st7567.c ****   /* sck_pulse_width_ns = */ 120,	/* */
ARM GAS  C:\Users\brian\AppData\Local\Temp\ccwFV3ea.s 			page 43


 876:..\u8g2\csrc/u8x8_d_st7567.c ****   /* sck_clock_hz = */ 4000000UL,	/* */
 877:..\u8g2\csrc/u8x8_d_st7567.c ****   /* spi_mode = */ 0,		/* active high, rising edge */
 878:..\u8g2\csrc/u8x8_d_st7567.c ****   /* i2c_bus_clock_100kHz = */ 4,
 879:..\u8g2\csrc/u8x8_d_st7567.c ****   /* data_setup_time_ns = */ 40,	/* */
 880:..\u8g2\csrc/u8x8_d_st7567.c ****   /* write_pulse_width_ns = */ 80,	/* */
 881:..\u8g2\csrc/u8x8_d_st7567.c ****   /* tile_width = */ 16,		/* width of 16*8=128 pixel */
 882:..\u8g2\csrc/u8x8_d_st7567.c ****   /* tile_hight = */ 8,
 883:..\u8g2\csrc/u8x8_d_st7567.c ****   /* default_x_offset = */ 4,
 884:..\u8g2\csrc/u8x8_d_st7567.c ****   /* flipmode_x_offset = */ 0,
 885:..\u8g2\csrc/u8x8_d_st7567.c ****   /* pixel_width = */ 128,
 886:..\u8g2\csrc/u8x8_d_st7567.c ****   /* pixel_height = */ 64
 887:..\u8g2\csrc/u8x8_d_st7567.c **** };
 888:..\u8g2\csrc/u8x8_d_st7567.c **** 
 889:..\u8g2\csrc/u8x8_d_st7567.c **** static const uint8_t u8x8_st7567_os12864_init_seq[] = {
 890:..\u8g2\csrc/u8x8_d_st7567.c ****     
 891:..\u8g2\csrc/u8x8_d_st7567.c ****   U8X8_START_TRANSFER(),             	/* enable chip, delay is part of the transfer start */
 892:..\u8g2\csrc/u8x8_d_st7567.c ****   
 893:..\u8g2\csrc/u8x8_d_st7567.c ****   U8X8_C(0x0e2),            			/* soft reset */
 894:..\u8g2\csrc/u8x8_d_st7567.c ****   U8X8_C(0x0ae),		                /* display off */
 895:..\u8g2\csrc/u8x8_d_st7567.c ****   U8X8_C(0x040),		                /* set display start line to 0 */
 896:..\u8g2\csrc/u8x8_d_st7567.c ****   
 897:..\u8g2\csrc/u8x8_d_st7567.c ****   U8X8_C(0x0a1),		                /* ADC set to reverse */
 898:..\u8g2\csrc/u8x8_d_st7567.c ****   U8X8_C(0x0c0),		                /* common output mode */
 899:..\u8g2\csrc/u8x8_d_st7567.c ****   // Flipmode
 900:..\u8g2\csrc/u8x8_d_st7567.c ****   //U8X8_C(0x0a0),		                /* ADC set to reverse */
 901:..\u8g2\csrc/u8x8_d_st7567.c ****   //U8X8_C(0x0c8),		                /* common output mode */
 902:..\u8g2\csrc/u8x8_d_st7567.c ****   
 903:..\u8g2\csrc/u8x8_d_st7567.c ****   U8X8_C(0x0a6),		                /* display normal, bit val 0: LCD pixel off. */
 904:..\u8g2\csrc/u8x8_d_st7567.c ****   U8X8_C(0x0a3),		                /* LCD bias 1/7 */
 905:..\u8g2\csrc/u8x8_d_st7567.c ****   /* power on sequence from paxinstruments */
 906:..\u8g2\csrc/u8x8_d_st7567.c ****   U8X8_C(0x028|4),		                /* all power  control circuits on */
 907:..\u8g2\csrc/u8x8_d_st7567.c ****   U8X8_DLY(50),
 908:..\u8g2\csrc/u8x8_d_st7567.c ****   U8X8_C(0x028|6),		                /* all power  control circuits on */
 909:..\u8g2\csrc/u8x8_d_st7567.c ****   U8X8_DLY(50),
 910:..\u8g2\csrc/u8x8_d_st7567.c ****   U8X8_C(0x028|7),		                /* all power  control circuits on */
 911:..\u8g2\csrc/u8x8_d_st7567.c ****   U8X8_DLY(50),
 912:..\u8g2\csrc/u8x8_d_st7567.c ****   
 913:..\u8g2\csrc/u8x8_d_st7567.c ****   U8X8_C(0x026),		                /* v0 voltage resistor ratio */
 914:..\u8g2\csrc/u8x8_d_st7567.c ****   U8X8_CA(0x081, 50>>2),		/* set contrast, contrast value*/
 915:..\u8g2\csrc/u8x8_d_st7567.c ****   
 916:..\u8g2\csrc/u8x8_d_st7567.c ****   U8X8_C(0x0ae),		                /* display off */
 917:..\u8g2\csrc/u8x8_d_st7567.c ****   U8X8_C(0x0a5),		                /* enter powersafe: all pixel on, issue 142 */
 918:..\u8g2\csrc/u8x8_d_st7567.c ****    
 919:..\u8g2\csrc/u8x8_d_st7567.c ****   U8X8_END_TRANSFER(),             	/* disable chip */
 920:..\u8g2\csrc/u8x8_d_st7567.c ****   U8X8_END()             			/* end of sequence */
 921:..\u8g2\csrc/u8x8_d_st7567.c **** };
 922:..\u8g2\csrc/u8x8_d_st7567.c **** 
 923:..\u8g2\csrc/u8x8_d_st7567.c **** /* open-smart 12864 display */
 924:..\u8g2\csrc/u8x8_d_st7567.c **** uint8_t u8x8_d_st7567_os12864(u8x8_t *u8x8, uint8_t msg, uint8_t arg_int, void *arg_ptr)
 925:..\u8g2\csrc/u8x8_d_st7567.c **** {
 1312              		.loc 1 925 0
 1313              		.cfi_startproc
 1314              		@ args = 0, pretend = 0, frame = 0
 1315              		@ frame_needed = 0, uses_anonymous_args = 0
 1316              	.LVL225:
 1317 0000 2DE9F041 		push	{r4, r5, r6, r7, r8, lr}
 1318              		.cfi_def_cfa_offset 24
ARM GAS  C:\Users\brian\AppData\Local\Temp\ccwFV3ea.s 			page 44


 1319              		.cfi_offset 4, -24
 1320              		.cfi_offset 5, -20
 1321              		.cfi_offset 6, -16
 1322              		.cfi_offset 7, -12
 1323              		.cfi_offset 8, -8
 1324              		.cfi_offset 14, -4
 1325 0004 0546     		mov	r5, r0
 1326 0006 1446     		mov	r4, r2
 1327 0008 1F46     		mov	r7, r3
 926:..\u8g2\csrc/u8x8_d_st7567.c ****   uint8_t x, c;
 927:..\u8g2\csrc/u8x8_d_st7567.c ****   uint8_t *ptr;
 928:..\u8g2\csrc/u8x8_d_st7567.c ****   switch(msg)
 1328              		.loc 1 928 0
 1329 000a 0939     		subs	r1, r1, #9
 1330              	.LVL226:
 1331 000c 0629     		cmp	r1, #6
 1332 000e 7CD8     		bhi	.L117
 1333 0010 DFE801F0 		tbb	[pc, r1]
 1334              	.LVL227:
 1335              	.L107:
 1336 0014 04       		.byte	(.L106-.L107)/2
 1337 0015 0A       		.byte	(.L108-.L107)/2
 1338 0016 13       		.byte	(.L109-.L107)/2
 1339 0017 7B       		.byte	(.L117-.L107)/2
 1340 0018 20       		.byte	(.L110-.L107)/2
 1341 0019 35       		.byte	(.L111-.L107)/2
 1342 001a 45       		.byte	(.L112-.L107)/2
 1343 001b 00       		.p2align 1
 1344              	.L106:
 929:..\u8g2\csrc/u8x8_d_st7567.c ****   {
 930:..\u8g2\csrc/u8x8_d_st7567.c ****     case U8X8_MSG_DISPLAY_SETUP_MEMORY:
 931:..\u8g2\csrc/u8x8_d_st7567.c ****       u8x8_d_helper_display_setup_memory(u8x8, &u8x8_st7567_os12864_display_info);
 1345              		.loc 1 931 0
 1346 001c 3C49     		ldr	r1, .L119
 1347 001e FFF7FEFF 		bl	u8x8_d_helper_display_setup_memory
 1348              	.LVL228:
 932:..\u8g2\csrc/u8x8_d_st7567.c ****       break;
 933:..\u8g2\csrc/u8x8_d_st7567.c ****     case U8X8_MSG_DISPLAY_INIT:
 934:..\u8g2\csrc/u8x8_d_st7567.c ****       u8x8_d_helper_display_init(u8x8);
 935:..\u8g2\csrc/u8x8_d_st7567.c ****       u8x8_cad_SendSequence(u8x8, u8x8_st7567_os12864_init_seq);
 936:..\u8g2\csrc/u8x8_d_st7567.c ****       break;
 937:..\u8g2\csrc/u8x8_d_st7567.c ****     case U8X8_MSG_DISPLAY_SET_POWER_SAVE:
 938:..\u8g2\csrc/u8x8_d_st7567.c ****       if ( arg_int == 0 )
 939:..\u8g2\csrc/u8x8_d_st7567.c **** 	u8x8_cad_SendSequence(u8x8, u8x8_d_st7567_132x64_powersave0_seq);
 940:..\u8g2\csrc/u8x8_d_st7567.c ****       else
 941:..\u8g2\csrc/u8x8_d_st7567.c **** 	u8x8_cad_SendSequence(u8x8, u8x8_d_st7567_132x64_powersave1_seq);
 942:..\u8g2\csrc/u8x8_d_st7567.c ****       break;
 943:..\u8g2\csrc/u8x8_d_st7567.c ****     case U8X8_MSG_DISPLAY_SET_FLIP_MODE:
 944:..\u8g2\csrc/u8x8_d_st7567.c ****       if ( arg_int == 0 )
 945:..\u8g2\csrc/u8x8_d_st7567.c ****       {
 946:..\u8g2\csrc/u8x8_d_st7567.c **** 	u8x8_cad_SendSequence(u8x8, u8x8_d_st7567_132x64_flip0_seq);
 947:..\u8g2\csrc/u8x8_d_st7567.c **** 	u8x8->x_offset = u8x8->display_info->default_x_offset;
 948:..\u8g2\csrc/u8x8_d_st7567.c ****       }
 949:..\u8g2\csrc/u8x8_d_st7567.c ****       else
 950:..\u8g2\csrc/u8x8_d_st7567.c ****       {
 951:..\u8g2\csrc/u8x8_d_st7567.c **** 	u8x8_cad_SendSequence(u8x8, u8x8_d_st7567_132x64_flip1_seq);
 952:..\u8g2\csrc/u8x8_d_st7567.c **** 	u8x8->x_offset = u8x8->display_info->flipmode_x_offset;
ARM GAS  C:\Users\brian\AppData\Local\Temp\ccwFV3ea.s 			page 45


 953:..\u8g2\csrc/u8x8_d_st7567.c ****       }	
 954:..\u8g2\csrc/u8x8_d_st7567.c ****       break;
 955:..\u8g2\csrc/u8x8_d_st7567.c **** #ifdef U8X8_WITH_SET_CONTRAST
 956:..\u8g2\csrc/u8x8_d_st7567.c ****     case U8X8_MSG_DISPLAY_SET_CONTRAST:
 957:..\u8g2\csrc/u8x8_d_st7567.c ****       u8x8_cad_StartTransfer(u8x8);
 958:..\u8g2\csrc/u8x8_d_st7567.c ****       u8x8_cad_SendCmd(u8x8, 0x081 );
 959:..\u8g2\csrc/u8x8_d_st7567.c ****       u8x8_cad_SendArg(u8x8, arg_int >> 2 );	/* st7567 has range from 0 to 63 */
 960:..\u8g2\csrc/u8x8_d_st7567.c ****       u8x8_cad_EndTransfer(u8x8);
 961:..\u8g2\csrc/u8x8_d_st7567.c ****       break;
 962:..\u8g2\csrc/u8x8_d_st7567.c **** #endif
 963:..\u8g2\csrc/u8x8_d_st7567.c ****     case U8X8_MSG_DISPLAY_DRAW_TILE:
 964:..\u8g2\csrc/u8x8_d_st7567.c ****       u8x8_cad_StartTransfer(u8x8);
 965:..\u8g2\csrc/u8x8_d_st7567.c ****     
 966:..\u8g2\csrc/u8x8_d_st7567.c ****       x = ((u8x8_tile_t *)arg_ptr)->x_pos;
 967:..\u8g2\csrc/u8x8_d_st7567.c ****       x *= 8;
 968:..\u8g2\csrc/u8x8_d_st7567.c ****       x += u8x8->x_offset;
 969:..\u8g2\csrc/u8x8_d_st7567.c ****       u8x8_cad_SendCmd(u8x8, 0x010 | (x>>4) );
 970:..\u8g2\csrc/u8x8_d_st7567.c ****       u8x8_cad_SendCmd(u8x8, 0x000 | ((x&15)));
 971:..\u8g2\csrc/u8x8_d_st7567.c ****       u8x8_cad_SendCmd(u8x8, 0x0b0 | (((u8x8_tile_t *)arg_ptr)->y_pos));
 972:..\u8g2\csrc/u8x8_d_st7567.c ****     
 973:..\u8g2\csrc/u8x8_d_st7567.c ****       c = ((u8x8_tile_t *)arg_ptr)->cnt;
 974:..\u8g2\csrc/u8x8_d_st7567.c ****       c *= 8;
 975:..\u8g2\csrc/u8x8_d_st7567.c ****       ptr = ((u8x8_tile_t *)arg_ptr)->tile_ptr;
 976:..\u8g2\csrc/u8x8_d_st7567.c ****       /* 
 977:..\u8g2\csrc/u8x8_d_st7567.c **** 	The following if condition checks the hardware limits of the st7567 
 978:..\u8g2\csrc/u8x8_d_st7567.c **** 	controller: It is not allowed to write beyond the display limits.
 979:..\u8g2\csrc/u8x8_d_st7567.c **** 	This is in fact an issue within flip mode.
 980:..\u8g2\csrc/u8x8_d_st7567.c ****       */
 981:..\u8g2\csrc/u8x8_d_st7567.c ****       if ( c + x > 132u )
 982:..\u8g2\csrc/u8x8_d_st7567.c ****       {
 983:..\u8g2\csrc/u8x8_d_st7567.c **** 	c = 132u;
 984:..\u8g2\csrc/u8x8_d_st7567.c **** 	c -= x;
 985:..\u8g2\csrc/u8x8_d_st7567.c ****       }
 986:..\u8g2\csrc/u8x8_d_st7567.c ****       do
 987:..\u8g2\csrc/u8x8_d_st7567.c ****       {
 988:..\u8g2\csrc/u8x8_d_st7567.c **** 	u8x8_cad_SendData(u8x8, c, ptr);	/* note: SendData can not handle more than 255 bytes */
 989:..\u8g2\csrc/u8x8_d_st7567.c **** 	arg_int--;
 990:..\u8g2\csrc/u8x8_d_st7567.c ****       } while( arg_int > 0 );
 991:..\u8g2\csrc/u8x8_d_st7567.c ****       
 992:..\u8g2\csrc/u8x8_d_st7567.c ****       u8x8_cad_EndTransfer(u8x8);
 993:..\u8g2\csrc/u8x8_d_st7567.c ****       break;
 994:..\u8g2\csrc/u8x8_d_st7567.c ****     default:
 995:..\u8g2\csrc/u8x8_d_st7567.c ****       return 0;
 996:..\u8g2\csrc/u8x8_d_st7567.c ****   }
 997:..\u8g2\csrc/u8x8_d_st7567.c ****   return 1;
 1349              		.loc 1 997 0
 1350 0022 0120     		movs	r0, #1
 932:..\u8g2\csrc/u8x8_d_st7567.c ****       break;
 1351              		.loc 1 932 0
 1352 0024 BDE8F081 		pop	{r4, r5, r6, r7, r8, pc}
 1353              	.LVL229:
 1354              	.L108:
 934:..\u8g2\csrc/u8x8_d_st7567.c ****       u8x8_cad_SendSequence(u8x8, u8x8_st7567_os12864_init_seq);
 1355              		.loc 1 934 0
 1356 0028 FFF7FEFF 		bl	u8x8_d_helper_display_init
 1357              	.LVL230:
 935:..\u8g2\csrc/u8x8_d_st7567.c ****       break;
ARM GAS  C:\Users\brian\AppData\Local\Temp\ccwFV3ea.s 			page 46


 1358              		.loc 1 935 0
 1359 002c 3949     		ldr	r1, .L119+4
 1360 002e 2846     		mov	r0, r5
 1361 0030 FFF7FEFF 		bl	u8x8_cad_SendSequence
 1362              	.LVL231:
 1363              		.loc 1 997 0
 1364 0034 0120     		movs	r0, #1
 936:..\u8g2\csrc/u8x8_d_st7567.c ****     case U8X8_MSG_DISPLAY_SET_POWER_SAVE:
 1365              		.loc 1 936 0
 1366 0036 BDE8F081 		pop	{r4, r5, r6, r7, r8, pc}
 1367              	.LVL232:
 1368              	.L109:
 938:..\u8g2\csrc/u8x8_d_st7567.c **** 	u8x8_cad_SendSequence(u8x8, u8x8_d_st7567_132x64_powersave0_seq);
 1369              		.loc 1 938 0
 1370 003a 2AB9     		cbnz	r2, .L113
 939:..\u8g2\csrc/u8x8_d_st7567.c ****       else
 1371              		.loc 1 939 0
 1372 003c 3649     		ldr	r1, .L119+8
 1373 003e FFF7FEFF 		bl	u8x8_cad_SendSequence
 1374              	.LVL233:
 1375              		.loc 1 997 0
 1376 0042 0120     		movs	r0, #1
 1377 0044 BDE8F081 		pop	{r4, r5, r6, r7, r8, pc}
 1378              	.LVL234:
 1379              	.L113:
 941:..\u8g2\csrc/u8x8_d_st7567.c ****       break;
 1380              		.loc 1 941 0
 1381 0048 3449     		ldr	r1, .L119+12
 1382 004a FFF7FEFF 		bl	u8x8_cad_SendSequence
 1383              	.LVL235:
 1384              		.loc 1 997 0
 1385 004e 0120     		movs	r0, #1
 1386 0050 BDE8F081 		pop	{r4, r5, r6, r7, r8, pc}
 1387              	.LVL236:
 1388              	.L110:
 944:..\u8g2\csrc/u8x8_d_st7567.c ****       {
 1389              		.loc 1 944 0
 1390 0054 4AB9     		cbnz	r2, .L114
 946:..\u8g2\csrc/u8x8_d_st7567.c **** 	u8x8->x_offset = u8x8->display_info->default_x_offset;
 1391              		.loc 1 946 0
 1392 0056 3249     		ldr	r1, .L119+16
 1393 0058 FFF7FEFF 		bl	u8x8_cad_SendSequence
 1394              	.LVL237:
 947:..\u8g2\csrc/u8x8_d_st7567.c ****       }
 1395              		.loc 1 947 0
 1396 005c 2B68     		ldr	r3, [r5]
 1397 005e 9B7C     		ldrb	r3, [r3, #18]	@ zero_extendqisi2
 1398 0060 85F82230 		strb	r3, [r5, #34]
 1399              		.loc 1 997 0
 1400 0064 0120     		movs	r0, #1
 1401 0066 BDE8F081 		pop	{r4, r5, r6, r7, r8, pc}
 1402              	.LVL238:
 1403              	.L114:
 951:..\u8g2\csrc/u8x8_d_st7567.c **** 	u8x8->x_offset = u8x8->display_info->flipmode_x_offset;
 1404              		.loc 1 951 0
 1405 006a 2E49     		ldr	r1, .L119+20
 1406 006c FFF7FEFF 		bl	u8x8_cad_SendSequence
ARM GAS  C:\Users\brian\AppData\Local\Temp\ccwFV3ea.s 			page 47


 1407              	.LVL239:
 952:..\u8g2\csrc/u8x8_d_st7567.c ****       }	
 1408              		.loc 1 952 0
 1409 0070 2B68     		ldr	r3, [r5]
 1410 0072 DB7C     		ldrb	r3, [r3, #19]	@ zero_extendqisi2
 1411 0074 85F82230 		strb	r3, [r5, #34]
 1412              		.loc 1 997 0
 1413 0078 0120     		movs	r0, #1
 1414 007a BDE8F081 		pop	{r4, r5, r6, r7, r8, pc}
 1415              	.LVL240:
 1416              	.L111:
 957:..\u8g2\csrc/u8x8_d_st7567.c ****       u8x8_cad_SendCmd(u8x8, 0x081 );
 1417              		.loc 1 957 0
 1418 007e FFF7FEFF 		bl	u8x8_cad_StartTransfer
 1419              	.LVL241:
 958:..\u8g2\csrc/u8x8_d_st7567.c ****       u8x8_cad_SendArg(u8x8, arg_int >> 2 );	/* st7567 has range from 0 to 63 */
 1420              		.loc 1 958 0
 1421 0082 8121     		movs	r1, #129
 1422 0084 2846     		mov	r0, r5
 1423 0086 FFF7FEFF 		bl	u8x8_cad_SendCmd
 1424              	.LVL242:
 959:..\u8g2\csrc/u8x8_d_st7567.c ****       u8x8_cad_EndTransfer(u8x8);
 1425              		.loc 1 959 0
 1426 008a A108     		lsrs	r1, r4, #2
 1427 008c 2846     		mov	r0, r5
 1428 008e FFF7FEFF 		bl	u8x8_cad_SendArg
 1429              	.LVL243:
 960:..\u8g2\csrc/u8x8_d_st7567.c ****       break;
 1430              		.loc 1 960 0
 1431 0092 2846     		mov	r0, r5
 1432 0094 FFF7FEFF 		bl	u8x8_cad_EndTransfer
 1433              	.LVL244:
 1434              		.loc 1 997 0
 1435 0098 0120     		movs	r0, #1
 961:..\u8g2\csrc/u8x8_d_st7567.c **** #endif
 1436              		.loc 1 961 0
 1437 009a BDE8F081 		pop	{r4, r5, r6, r7, r8, pc}
 1438              	.LVL245:
 1439              	.L112:
 964:..\u8g2\csrc/u8x8_d_st7567.c ****     
 1440              		.loc 1 964 0
 1441 009e FFF7FEFF 		bl	u8x8_cad_StartTransfer
 1442              	.LVL246:
 966:..\u8g2\csrc/u8x8_d_st7567.c ****       x *= 8;
 1443              		.loc 1 966 0
 1444 00a2 7B79     		ldrb	r3, [r7, #5]	@ zero_extendqisi2
 1445              	.LVL247:
 967:..\u8g2\csrc/u8x8_d_st7567.c ****       x += u8x8->x_offset;
 1446              		.loc 1 967 0
 1447 00a4 DB00     		lsls	r3, r3, #3
 1448              	.LVL248:
 1449 00a6 DBB2     		uxtb	r3, r3
 1450              	.LVL249:
 968:..\u8g2\csrc/u8x8_d_st7567.c ****       u8x8_cad_SendCmd(u8x8, 0x010 | (x>>4) );
 1451              		.loc 1 968 0
 1452 00a8 95F82280 		ldrb	r8, [r5, #34]	@ zero_extendqisi2
 1453 00ac 9844     		add	r8, r8, r3
ARM GAS  C:\Users\brian\AppData\Local\Temp\ccwFV3ea.s 			page 48


 1454 00ae 5FFA88F8 		uxtb	r8, r8
 1455              	.LVL250:
 969:..\u8g2\csrc/u8x8_d_st7567.c ****       u8x8_cad_SendCmd(u8x8, 0x000 | ((x&15)));
 1456              		.loc 1 969 0
 1457 00b2 4FEA1811 		lsr	r1, r8, #4
 1458 00b6 41F01001 		orr	r1, r1, #16
 1459 00ba 2846     		mov	r0, r5
 1460 00bc FFF7FEFF 		bl	u8x8_cad_SendCmd
 1461              	.LVL251:
 970:..\u8g2\csrc/u8x8_d_st7567.c ****       u8x8_cad_SendCmd(u8x8, 0x0b0 | (((u8x8_tile_t *)arg_ptr)->y_pos));
 1462              		.loc 1 970 0
 1463 00c0 08F00F01 		and	r1, r8, #15
 1464 00c4 2846     		mov	r0, r5
 1465 00c6 FFF7FEFF 		bl	u8x8_cad_SendCmd
 1466              	.LVL252:
 971:..\u8g2\csrc/u8x8_d_st7567.c ****     
 1467              		.loc 1 971 0
 1468 00ca B979     		ldrb	r1, [r7, #6]	@ zero_extendqisi2
 1469 00cc 41F0B001 		orr	r1, r1, #176
 1470 00d0 2846     		mov	r0, r5
 1471 00d2 FFF7FEFF 		bl	u8x8_cad_SendCmd
 1472              	.LVL253:
 973:..\u8g2\csrc/u8x8_d_st7567.c ****       c *= 8;
 1473              		.loc 1 973 0
 1474 00d6 3E79     		ldrb	r6, [r7, #4]	@ zero_extendqisi2
 1475              	.LVL254:
 974:..\u8g2\csrc/u8x8_d_st7567.c ****       ptr = ((u8x8_tile_t *)arg_ptr)->tile_ptr;
 1476              		.loc 1 974 0
 1477 00d8 F600     		lsls	r6, r6, #3
 1478              	.LVL255:
 1479 00da F6B2     		uxtb	r6, r6
 1480              	.LVL256:
 975:..\u8g2\csrc/u8x8_d_st7567.c ****       /* 
 1481              		.loc 1 975 0
 1482 00dc 3F68     		ldr	r7, [r7]
 1483              	.LVL257:
 981:..\u8g2\csrc/u8x8_d_st7567.c ****       {
 1484              		.loc 1 981 0
 1485 00de 06EB0803 		add	r3, r6, r8
 1486 00e2 842B     		cmp	r3, #132
 1487 00e4 02D9     		bls	.L116
 1488              	.LVL258:
 984:..\u8g2\csrc/u8x8_d_st7567.c ****       }
 1489              		.loc 1 984 0
 1490 00e6 C8F18406 		rsb	r6, r8, #132
 1491 00ea F6B2     		uxtb	r6, r6
 1492              	.LVL259:
 1493              	.L116:
 988:..\u8g2\csrc/u8x8_d_st7567.c **** 	arg_int--;
 1494              		.loc 1 988 0 discriminator 1
 1495 00ec 3A46     		mov	r2, r7
 1496 00ee 3146     		mov	r1, r6
 1497 00f0 2846     		mov	r0, r5
 1498 00f2 FFF7FEFF 		bl	u8x8_cad_SendData
 1499              	.LVL260:
 989:..\u8g2\csrc/u8x8_d_st7567.c ****       } while( arg_int > 0 );
 1500              		.loc 1 989 0 discriminator 1
ARM GAS  C:\Users\brian\AppData\Local\Temp\ccwFV3ea.s 			page 49


 1501 00f6 621E     		subs	r2, r4, #1
 1502              	.LVL261:
 990:..\u8g2\csrc/u8x8_d_st7567.c ****       
 1503              		.loc 1 990 0 discriminator 1
 1504 00f8 12F0FF04 		ands	r4, r2, #255
 1505 00fc F6D1     		bne	.L116
 992:..\u8g2\csrc/u8x8_d_st7567.c ****       break;
 1506              		.loc 1 992 0
 1507 00fe 2846     		mov	r0, r5
 1508 0100 FFF7FEFF 		bl	u8x8_cad_EndTransfer
 1509              	.LVL262:
 1510              		.loc 1 997 0
 1511 0104 0120     		movs	r0, #1
 993:..\u8g2\csrc/u8x8_d_st7567.c ****     default:
 1512              		.loc 1 993 0
 1513 0106 BDE8F081 		pop	{r4, r5, r6, r7, r8, pc}
 1514              	.LVL263:
 1515              	.L117:
 995:..\u8g2\csrc/u8x8_d_st7567.c ****   }
 1516              		.loc 1 995 0
 1517 010a 0020     		movs	r0, #0
 1518              	.LVL264:
 998:..\u8g2\csrc/u8x8_d_st7567.c **** }
 1519              		.loc 1 998 0
 1520 010c BDE8F081 		pop	{r4, r5, r6, r7, r8, pc}
 1521              	.LVL265:
 1522              	.L120:
 1523              		.align	2
 1524              	.L119:
 1525 0110 88010000 		.word	.LANCHOR0+392
 1526 0114 A0010000 		.word	.LANCHOR0+416
 1527 0118 40000000 		.word	.LANCHOR0+64
 1528 011c 48000000 		.word	.LANCHOR0+72
 1529 0120 90000000 		.word	.LANCHOR0+144
 1530 0124 98000000 		.word	.LANCHOR0+152
 1531              		.cfi_endproc
 1532              	.LFE7:
 1533              		.size	u8x8_d_st7567_os12864, .-u8x8_d_st7567_os12864
 1534              		.section	.rodata
 1535              		.align	2
 1536              		.set	.LANCHOR0,. + 0
 1537              		.type	u8x8_st7567_enh_dg128064_display_info, %object
 1538              		.size	u8x8_st7567_enh_dg128064_display_info, 24
 1539              	u8x8_st7567_enh_dg128064_display_info:
 1540 0000 00       		.byte	0
 1541 0001 01       		.byte	1
 1542 0002 96       		.byte	-106
 1543 0003 32       		.byte	50
 1544 0004 01       		.byte	1
 1545 0005 01       		.byte	1
 1546 0006 32       		.byte	50
 1547 0007 78       		.byte	120
 1548 0008 00093D00 		.word	4000000
 1549 000c 00       		.byte	0
 1550 000d 04       		.byte	4
 1551 000e 28       		.byte	40
 1552 000f 50       		.byte	80
ARM GAS  C:\Users\brian\AppData\Local\Temp\ccwFV3ea.s 			page 50


 1553 0010 10       		.byte	16
 1554 0011 08       		.byte	8
 1555 0012 00       		.byte	0
 1556 0013 04       		.byte	4
 1557 0014 8000     		.short	128
 1558 0016 4000     		.short	64
 1559              		.type	u8x8_st7567_enh_dg128064_init_seq, %object
 1560              		.size	u8x8_st7567_enh_dg128064_init_seq, 39
 1561              	u8x8_st7567_enh_dg128064_init_seq:
 1562 0018 18       		.byte	24
 1563 0019 15       		.byte	21
 1564 001a E2       		.byte	-30
 1565 001b 15       		.byte	21
 1566 001c AE       		.byte	-82
 1567 001d 15       		.byte	21
 1568 001e 40       		.byte	64
 1569 001f 15       		.byte	21
 1570 0020 A1       		.byte	-95
 1571 0021 15       		.byte	21
 1572 0022 C0       		.byte	-64
 1573 0023 15       		.byte	21
 1574 0024 A6       		.byte	-90
 1575 0025 15       		.byte	21
 1576 0026 A2       		.byte	-94
 1577 0027 15       		.byte	21
 1578 0028 2C       		.byte	44
 1579 0029 FE       		.byte	-2
 1580 002a 32       		.byte	50
 1581 002b 15       		.byte	21
 1582 002c 2E       		.byte	46
 1583 002d FE       		.byte	-2
 1584 002e 32       		.byte	50
 1585 002f 15       		.byte	21
 1586 0030 2F       		.byte	47
 1587 0031 FE       		.byte	-2
 1588 0032 32       		.byte	50
 1589 0033 15       		.byte	21
 1590 0034 23       		.byte	35
 1591 0035 15       		.byte	21
 1592 0036 81       		.byte	-127
 1593 0037 16       		.byte	22
 1594 0038 32       		.byte	50
 1595 0039 15       		.byte	21
 1596 003a AE       		.byte	-82
 1597 003b 15       		.byte	21
 1598 003c A5       		.byte	-91
 1599 003d 19       		.byte	25
 1600 003e FF       		.byte	-1
 1601 003f 00       		.space	1
 1602              		.type	u8x8_d_st7567_132x64_powersave0_seq, %object
 1603              		.size	u8x8_d_st7567_132x64_powersave0_seq, 7
 1604              	u8x8_d_st7567_132x64_powersave0_seq:
 1605 0040 18       		.byte	24
 1606 0041 15       		.byte	21
 1607 0042 A4       		.byte	-92
 1608 0043 15       		.byte	21
 1609 0044 AF       		.byte	-81
ARM GAS  C:\Users\brian\AppData\Local\Temp\ccwFV3ea.s 			page 51


 1610 0045 19       		.byte	25
 1611 0046 FF       		.byte	-1
 1612 0047 00       		.space	1
 1613              		.type	u8x8_d_st7567_132x64_powersave1_seq, %object
 1614              		.size	u8x8_d_st7567_132x64_powersave1_seq, 7
 1615              	u8x8_d_st7567_132x64_powersave1_seq:
 1616 0048 18       		.byte	24
 1617 0049 15       		.byte	21
 1618 004a AE       		.byte	-82
 1619 004b 15       		.byte	21
 1620 004c A5       		.byte	-91
 1621 004d 19       		.byte	25
 1622 004e FF       		.byte	-1
 1623 004f 00       		.space	1
 1624              		.type	u8x8_st7567_132x64_display_info, %object
 1625              		.size	u8x8_st7567_132x64_display_info, 24
 1626              	u8x8_st7567_132x64_display_info:
 1627 0050 00       		.byte	0
 1628 0051 01       		.byte	1
 1629 0052 96       		.byte	-106
 1630 0053 32       		.byte	50
 1631 0054 01       		.byte	1
 1632 0055 01       		.byte	1
 1633 0056 32       		.byte	50
 1634 0057 78       		.byte	120
 1635 0058 00093D00 		.word	4000000
 1636 005c 00       		.byte	0
 1637 005d 04       		.byte	4
 1638 005e 28       		.byte	40
 1639 005f 50       		.byte	80
 1640 0060 11       		.byte	17
 1641 0061 08       		.byte	8
 1642 0062 00       		.byte	0
 1643 0063 00       		.byte	0
 1644 0064 8400     		.short	132
 1645 0066 4000     		.short	64
 1646              		.type	u8x8_d_st7567_132x64_init_seq, %object
 1647              		.size	u8x8_d_st7567_132x64_init_seq, 39
 1648              	u8x8_d_st7567_132x64_init_seq:
 1649 0068 18       		.byte	24
 1650 0069 15       		.byte	21
 1651 006a E2       		.byte	-30
 1652 006b 15       		.byte	21
 1653 006c AE       		.byte	-82
 1654 006d 15       		.byte	21
 1655 006e 40       		.byte	64
 1656 006f 15       		.byte	21
 1657 0070 A1       		.byte	-95
 1658 0071 15       		.byte	21
 1659 0072 C0       		.byte	-64
 1660 0073 15       		.byte	21
 1661 0074 A6       		.byte	-90
 1662 0075 15       		.byte	21
 1663 0076 A3       		.byte	-93
 1664 0077 15       		.byte	21
 1665 0078 2C       		.byte	44
 1666 0079 FE       		.byte	-2
ARM GAS  C:\Users\brian\AppData\Local\Temp\ccwFV3ea.s 			page 52


 1667 007a 32       		.byte	50
 1668 007b 15       		.byte	21
 1669 007c 2E       		.byte	46
 1670 007d FE       		.byte	-2
 1671 007e 32       		.byte	50
 1672 007f 15       		.byte	21
 1673 0080 2F       		.byte	47
 1674 0081 FE       		.byte	-2
 1675 0082 32       		.byte	50
 1676 0083 15       		.byte	21
 1677 0084 26       		.byte	38
 1678 0085 15       		.byte	21
 1679 0086 81       		.byte	-127
 1680 0087 16       		.byte	22
 1681 0088 27       		.byte	39
 1682 0089 15       		.byte	21
 1683 008a AE       		.byte	-82
 1684 008b 15       		.byte	21
 1685 008c A5       		.byte	-91
 1686 008d 19       		.byte	25
 1687 008e FF       		.byte	-1
 1688 008f 00       		.space	1
 1689              		.type	u8x8_d_st7567_132x64_flip0_seq, %object
 1690              		.size	u8x8_d_st7567_132x64_flip0_seq, 7
 1691              	u8x8_d_st7567_132x64_flip0_seq:
 1692 0090 18       		.byte	24
 1693 0091 15       		.byte	21
 1694 0092 A1       		.byte	-95
 1695 0093 15       		.byte	21
 1696 0094 C0       		.byte	-64
 1697 0095 19       		.byte	25
 1698 0096 FF       		.byte	-1
 1699 0097 00       		.space	1
 1700              		.type	u8x8_d_st7567_132x64_flip1_seq, %object
 1701              		.size	u8x8_d_st7567_132x64_flip1_seq, 7
 1702              	u8x8_d_st7567_132x64_flip1_seq:
 1703 0098 18       		.byte	24
 1704 0099 15       		.byte	21
 1705 009a A0       		.byte	-96
 1706 009b 15       		.byte	21
 1707 009c C8       		.byte	-56
 1708 009d 19       		.byte	25
 1709 009e FF       		.byte	-1
 1710 009f 00       		.space	1
 1711              		.type	u8x8_st7567_jlx12864_display_info, %object
 1712              		.size	u8x8_st7567_jlx12864_display_info, 24
 1713              	u8x8_st7567_jlx12864_display_info:
 1714 00a0 00       		.byte	0
 1715 00a1 01       		.byte	1
 1716 00a2 96       		.byte	-106
 1717 00a3 32       		.byte	50
 1718 00a4 01       		.byte	1
 1719 00a5 01       		.byte	1
 1720 00a6 32       		.byte	50
 1721 00a7 78       		.byte	120
 1722 00a8 00093D00 		.word	4000000
 1723 00ac 00       		.byte	0
ARM GAS  C:\Users\brian\AppData\Local\Temp\ccwFV3ea.s 			page 53


 1724 00ad 04       		.byte	4
 1725 00ae 28       		.byte	40
 1726 00af 50       		.byte	80
 1727 00b0 10       		.byte	16
 1728 00b1 08       		.byte	8
 1729 00b2 04       		.byte	4
 1730 00b3 00       		.byte	0
 1731 00b4 8000     		.short	128
 1732 00b6 4000     		.short	64
 1733              		.type	u8x8_st7567_jlx12864_init_seq, %object
 1734              		.size	u8x8_st7567_jlx12864_init_seq, 39
 1735              	u8x8_st7567_jlx12864_init_seq:
 1736 00b8 18       		.byte	24
 1737 00b9 15       		.byte	21
 1738 00ba E2       		.byte	-30
 1739 00bb 15       		.byte	21
 1740 00bc AE       		.byte	-82
 1741 00bd 15       		.byte	21
 1742 00be 40       		.byte	64
 1743 00bf 15       		.byte	21
 1744 00c0 A1       		.byte	-95
 1745 00c1 15       		.byte	21
 1746 00c2 C0       		.byte	-64
 1747 00c3 15       		.byte	21
 1748 00c4 A6       		.byte	-90
 1749 00c5 15       		.byte	21
 1750 00c6 A3       		.byte	-93
 1751 00c7 15       		.byte	21
 1752 00c8 2C       		.byte	44
 1753 00c9 FE       		.byte	-2
 1754 00ca 32       		.byte	50
 1755 00cb 15       		.byte	21
 1756 00cc 2E       		.byte	46
 1757 00cd FE       		.byte	-2
 1758 00ce 32       		.byte	50
 1759 00cf 15       		.byte	21
 1760 00d0 2F       		.byte	47
 1761 00d1 FE       		.byte	-2
 1762 00d2 32       		.byte	50
 1763 00d3 15       		.byte	21
 1764 00d4 23       		.byte	35
 1765 00d5 15       		.byte	21
 1766 00d6 81       		.byte	-127
 1767 00d7 16       		.byte	22
 1768 00d8 0A       		.byte	10
 1769 00d9 15       		.byte	21
 1770 00da AE       		.byte	-82
 1771 00db 15       		.byte	21
 1772 00dc A5       		.byte	-91
 1773 00dd 19       		.byte	25
 1774 00de FF       		.byte	-1
 1775 00df 00       		.space	1
 1776              		.type	u8x8_d_st7567_n_flip0_seq, %object
 1777              		.size	u8x8_d_st7567_n_flip0_seq, 7
 1778              	u8x8_d_st7567_n_flip0_seq:
 1779 00e0 18       		.byte	24
 1780 00e1 15       		.byte	21
ARM GAS  C:\Users\brian\AppData\Local\Temp\ccwFV3ea.s 			page 54


 1781 00e2 A0       		.byte	-96
 1782 00e3 15       		.byte	21
 1783 00e4 C0       		.byte	-64
 1784 00e5 19       		.byte	25
 1785 00e6 FF       		.byte	-1
 1786 00e7 00       		.space	1
 1787              		.type	u8x8_d_st7567_n_flip1_seq, %object
 1788              		.size	u8x8_d_st7567_n_flip1_seq, 7
 1789              	u8x8_d_st7567_n_flip1_seq:
 1790 00e8 18       		.byte	24
 1791 00e9 15       		.byte	21
 1792 00ea A1       		.byte	-95
 1793 00eb 15       		.byte	21
 1794 00ec C8       		.byte	-56
 1795 00ed 19       		.byte	25
 1796 00ee FF       		.byte	-1
 1797 00ef 00       		.space	1
 1798              		.type	u8x8_st7567_enh_dg128064i_display_info, %object
 1799              		.size	u8x8_st7567_enh_dg128064i_display_info, 24
 1800              	u8x8_st7567_enh_dg128064i_display_info:
 1801 00f0 00       		.byte	0
 1802 00f1 01       		.byte	1
 1803 00f2 96       		.byte	-106
 1804 00f3 32       		.byte	50
 1805 00f4 01       		.byte	1
 1806 00f5 01       		.byte	1
 1807 00f6 32       		.byte	50
 1808 00f7 78       		.byte	120
 1809 00f8 00093D00 		.word	4000000
 1810 00fc 00       		.byte	0
 1811 00fd 04       		.byte	4
 1812 00fe 28       		.byte	40
 1813 00ff 50       		.byte	80
 1814 0100 10       		.byte	16
 1815 0101 08       		.byte	8
 1816 0102 04       		.byte	4
 1817 0103 00       		.byte	0
 1818 0104 8000     		.short	128
 1819 0106 4000     		.short	64
 1820              		.type	u8x8_st7567_64x32_display_info, %object
 1821              		.size	u8x8_st7567_64x32_display_info, 24
 1822              	u8x8_st7567_64x32_display_info:
 1823 0108 00       		.byte	0
 1824 0109 01       		.byte	1
 1825 010a 96       		.byte	-106
 1826 010b 32       		.byte	50
 1827 010c 01       		.byte	1
 1828 010d 01       		.byte	1
 1829 010e 32       		.byte	50
 1830 010f 78       		.byte	120
 1831 0110 00093D00 		.word	4000000
 1832 0114 00       		.byte	0
 1833 0115 04       		.byte	4
 1834 0116 28       		.byte	40
 1835 0117 50       		.byte	80
 1836 0118 08       		.byte	8
 1837 0119 04       		.byte	4
ARM GAS  C:\Users\brian\AppData\Local\Temp\ccwFV3ea.s 			page 55


 1838 011a 20       		.byte	32
 1839 011b 20       		.byte	32
 1840 011c 4000     		.short	64
 1841 011e 2000     		.short	32
 1842              		.type	u8x8_st7567_64x32_init_seq, %object
 1843              		.size	u8x8_st7567_64x32_init_seq, 39
 1844              	u8x8_st7567_64x32_init_seq:
 1845 0120 18       		.byte	24
 1846 0121 15       		.byte	21
 1847 0122 E2       		.byte	-30
 1848 0123 15       		.byte	21
 1849 0124 AE       		.byte	-82
 1850 0125 15       		.byte	21
 1851 0126 40       		.byte	64
 1852 0127 15       		.byte	21
 1853 0128 A1       		.byte	-95
 1854 0129 15       		.byte	21
 1855 012a C0       		.byte	-64
 1856 012b 15       		.byte	21
 1857 012c A6       		.byte	-90
 1858 012d 15       		.byte	21
 1859 012e A2       		.byte	-94
 1860 012f 15       		.byte	21
 1861 0130 2C       		.byte	44
 1862 0131 FE       		.byte	-2
 1863 0132 32       		.byte	50
 1864 0133 15       		.byte	21
 1865 0134 2E       		.byte	46
 1866 0135 FE       		.byte	-2
 1867 0136 32       		.byte	50
 1868 0137 15       		.byte	21
 1869 0138 2F       		.byte	47
 1870 0139 FE       		.byte	-2
 1871 013a 32       		.byte	50
 1872 013b 15       		.byte	21
 1873 013c 24       		.byte	36
 1874 013d 15       		.byte	21
 1875 013e 81       		.byte	-127
 1876 013f 16       		.byte	22
 1877 0140 20       		.byte	32
 1878 0141 15       		.byte	21
 1879 0142 AE       		.byte	-82
 1880 0143 15       		.byte	21
 1881 0144 A5       		.byte	-91
 1882 0145 19       		.byte	25
 1883 0146 FF       		.byte	-1
 1884 0147 00       		.space	1
 1885              		.type	u8x8_st7567_hem6432_display_info, %object
 1886              		.size	u8x8_st7567_hem6432_display_info, 24
 1887              	u8x8_st7567_hem6432_display_info:
 1888 0148 00       		.byte	0
 1889 0149 01       		.byte	1
 1890 014a 96       		.byte	-106
 1891 014b 32       		.byte	50
 1892 014c 01       		.byte	1
 1893 014d 01       		.byte	1
 1894 014e 32       		.byte	50
ARM GAS  C:\Users\brian\AppData\Local\Temp\ccwFV3ea.s 			page 56


 1895 014f 78       		.byte	120
 1896 0150 00093D00 		.word	4000000
 1897 0154 00       		.byte	0
 1898 0155 04       		.byte	4
 1899 0156 28       		.byte	40
 1900 0157 50       		.byte	80
 1901 0158 08       		.byte	8
 1902 0159 04       		.byte	4
 1903 015a 24       		.byte	36
 1904 015b 20       		.byte	32
 1905 015c 4000     		.short	64
 1906 015e 2000     		.short	32
 1907              		.type	u8x8_st7567_hem6432_init_seq, %object
 1908              		.size	u8x8_st7567_hem6432_init_seq, 39
 1909              	u8x8_st7567_hem6432_init_seq:
 1910 0160 18       		.byte	24
 1911 0161 15       		.byte	21
 1912 0162 E2       		.byte	-30
 1913 0163 15       		.byte	21
 1914 0164 AE       		.byte	-82
 1915 0165 15       		.byte	21
 1916 0166 40       		.byte	64
 1917 0167 15       		.byte	21
 1918 0168 A1       		.byte	-95
 1919 0169 15       		.byte	21
 1920 016a C0       		.byte	-64
 1921 016b 15       		.byte	21
 1922 016c A6       		.byte	-90
 1923 016d 15       		.byte	21
 1924 016e A2       		.byte	-94
 1925 016f 15       		.byte	21
 1926 0170 2C       		.byte	44
 1927 0171 FE       		.byte	-2
 1928 0172 32       		.byte	50
 1929 0173 15       		.byte	21
 1930 0174 2E       		.byte	46
 1931 0175 FE       		.byte	-2
 1932 0176 32       		.byte	50
 1933 0177 15       		.byte	21
 1934 0178 2F       		.byte	47
 1935 0179 FE       		.byte	-2
 1936 017a 32       		.byte	50
 1937 017b 15       		.byte	21
 1938 017c 24       		.byte	36
 1939 017d 15       		.byte	21
 1940 017e 81       		.byte	-127
 1941 017f 16       		.byte	22
 1942 0180 38       		.byte	56
 1943 0181 15       		.byte	21
 1944 0182 AE       		.byte	-82
 1945 0183 15       		.byte	21
 1946 0184 A5       		.byte	-91
 1947 0185 19       		.byte	25
 1948 0186 FF       		.byte	-1
 1949 0187 00       		.space	1
 1950              		.type	u8x8_st7567_os12864_display_info, %object
 1951              		.size	u8x8_st7567_os12864_display_info, 24
ARM GAS  C:\Users\brian\AppData\Local\Temp\ccwFV3ea.s 			page 57


 1952              	u8x8_st7567_os12864_display_info:
 1953 0188 00       		.byte	0
 1954 0189 01       		.byte	1
 1955 018a 96       		.byte	-106
 1956 018b 32       		.byte	50
 1957 018c 01       		.byte	1
 1958 018d 01       		.byte	1
 1959 018e 32       		.byte	50
 1960 018f 78       		.byte	120
 1961 0190 00093D00 		.word	4000000
 1962 0194 00       		.byte	0
 1963 0195 04       		.byte	4
 1964 0196 28       		.byte	40
 1965 0197 50       		.byte	80
 1966 0198 10       		.byte	16
 1967 0199 08       		.byte	8
 1968 019a 04       		.byte	4
 1969 019b 00       		.byte	0
 1970 019c 8000     		.short	128
 1971 019e 4000     		.short	64
 1972              		.type	u8x8_st7567_os12864_init_seq, %object
 1973              		.size	u8x8_st7567_os12864_init_seq, 39
 1974              	u8x8_st7567_os12864_init_seq:
 1975 01a0 18       		.byte	24
 1976 01a1 15       		.byte	21
 1977 01a2 E2       		.byte	-30
 1978 01a3 15       		.byte	21
 1979 01a4 AE       		.byte	-82
 1980 01a5 15       		.byte	21
 1981 01a6 40       		.byte	64
 1982 01a7 15       		.byte	21
 1983 01a8 A1       		.byte	-95
 1984 01a9 15       		.byte	21
 1985 01aa C0       		.byte	-64
 1986 01ab 15       		.byte	21
 1987 01ac A6       		.byte	-90
 1988 01ad 15       		.byte	21
 1989 01ae A3       		.byte	-93
 1990 01af 15       		.byte	21
 1991 01b0 2C       		.byte	44
 1992 01b1 FE       		.byte	-2
 1993 01b2 32       		.byte	50
 1994 01b3 15       		.byte	21
 1995 01b4 2E       		.byte	46
 1996 01b5 FE       		.byte	-2
 1997 01b6 32       		.byte	50
 1998 01b7 15       		.byte	21
 1999 01b8 2F       		.byte	47
 2000 01b9 FE       		.byte	-2
 2001 01ba 32       		.byte	50
 2002 01bb 15       		.byte	21
 2003 01bc 26       		.byte	38
 2004 01bd 15       		.byte	21
 2005 01be 81       		.byte	-127
 2006 01bf 16       		.byte	22
 2007 01c0 0C       		.byte	12
 2008 01c1 15       		.byte	21
ARM GAS  C:\Users\brian\AppData\Local\Temp\ccwFV3ea.s 			page 58


 2009 01c2 AE       		.byte	-82
 2010 01c3 15       		.byte	21
 2011 01c4 A5       		.byte	-91
 2012 01c5 19       		.byte	25
 2013 01c6 FF       		.byte	-1
 2014              		.text
 2015              	.Letext0:
 2016              		.file 2 "c:\\program files (x86)\\cypress\\psoc creator\\4.4\\psoc creator\\import\\gnu\\arm\\5.4.
 2017              		.file 3 "c:\\program files (x86)\\cypress\\psoc creator\\4.4\\psoc creator\\import\\gnu\\arm\\5.4.
 2018              		.file 4 "..\\u8g2\\csrc\\u8x8.h"