ARM GAS  C:\Users\brian\AppData\Local\Temp\ccXek5JR.s 			page 1


   1              		.syntax unified
   2              		.cpu cortex-m3
   3              		.fpu softvfp
   4              		.eabi_attribute 20, 1
   5              		.eabi_attribute 21, 1
   6              		.eabi_attribute 23, 3
   7              		.eabi_attribute 24, 1
   8              		.eabi_attribute 25, 1
   9              		.eabi_attribute 26, 1
  10              		.eabi_attribute 30, 1
  11              		.eabi_attribute 34, 1
  12              		.eabi_attribute 18, 4
  13              		.thumb
  14              		.syntax unified
  15              		.file	"u8x8_d_uc1610.c"
  16              		.text
  17              	.Ltext0:
  18              		.cfi_sections	.debug_frame
  19              		.section	.text.u8x8_convert_tile_for_uc1610,"ax",%progbits
  20              		.align	2
  21              		.thumb
  22              		.thumb_func
  23              		.type	u8x8_convert_tile_for_uc1610, %function
  24              	u8x8_convert_tile_for_uc1610:
  25              	.LFB0:
  26              		.file 1 "..\\u8g2\\csrc\\u8x8_d_uc1610.c"
   1:..\u8g2\csrc/u8x8_d_uc1610.c **** /*
   2:..\u8g2\csrc/u8x8_d_uc1610.c **** 
   3:..\u8g2\csrc/u8x8_d_uc1610.c ****   u8x8_d_uc1610.c
   4:..\u8g2\csrc/u8x8_d_uc1610.c ****   
   5:..\u8g2\csrc/u8x8_d_uc1610.c ****   Universal 8bit Graphics Library (https://github.com/olikraus/u8g2/)
   6:..\u8g2\csrc/u8x8_d_uc1610.c **** 
   7:..\u8g2\csrc/u8x8_d_uc1610.c ****   Copyright (c) 2016, olikraus@gmail.com
   8:..\u8g2\csrc/u8x8_d_uc1610.c ****   All rights reserved.
   9:..\u8g2\csrc/u8x8_d_uc1610.c **** 
  10:..\u8g2\csrc/u8x8_d_uc1610.c ****   Redistribution and use in source and binary forms, with or without modification, 
  11:..\u8g2\csrc/u8x8_d_uc1610.c ****   are permitted provided that the following conditions are met:
  12:..\u8g2\csrc/u8x8_d_uc1610.c **** 
  13:..\u8g2\csrc/u8x8_d_uc1610.c ****   * Redistributions of source code must retain the above copyright notice, this list 
  14:..\u8g2\csrc/u8x8_d_uc1610.c ****     of conditions and the following disclaimer.
  15:..\u8g2\csrc/u8x8_d_uc1610.c ****     
  16:..\u8g2\csrc/u8x8_d_uc1610.c ****   * Redistributions in binary form must reproduce the above copyright notice, this 
  17:..\u8g2\csrc/u8x8_d_uc1610.c ****     list of conditions and the following disclaimer in the documentation and/or other 
  18:..\u8g2\csrc/u8x8_d_uc1610.c ****     materials provided with the distribution.
  19:..\u8g2\csrc/u8x8_d_uc1610.c **** 
  20:..\u8g2\csrc/u8x8_d_uc1610.c ****   THIS SOFTWARE IS PROVIDED BY THE COPYRIGHT HOLDERS AND 
  21:..\u8g2\csrc/u8x8_d_uc1610.c ****   CONTRIBUTORS "AS IS" AND ANY EXPRESS OR IMPLIED WARRANTIES, 
  22:..\u8g2\csrc/u8x8_d_uc1610.c ****   INCLUDING, BUT NOT LIMITED TO, THE IMPLIED WARRANTIES OF 
  23:..\u8g2\csrc/u8x8_d_uc1610.c ****   MERCHANTABILITY AND FITNESS FOR A PARTICULAR PURPOSE ARE 
  24:..\u8g2\csrc/u8x8_d_uc1610.c ****   DISCLAIMED. IN NO EVENT SHALL THE COPYRIGHT HOLDER OR 
  25:..\u8g2\csrc/u8x8_d_uc1610.c ****   CONTRIBUTORS BE LIABLE FOR ANY DIRECT, INDIRECT, INCIDENTAL, 
  26:..\u8g2\csrc/u8x8_d_uc1610.c ****   SPECIAL, EXEMPLARY, OR CONSEQUENTIAL DAMAGES (INCLUDING, BUT 
  27:..\u8g2\csrc/u8x8_d_uc1610.c ****   NOT LIMITED TO, PROCUREMENT OF SUBSTITUTE GOODS OR SERVICES; 
  28:..\u8g2\csrc/u8x8_d_uc1610.c ****   LOSS OF USE, DATA, OR PROFITS; OR BUSINESS INTERRUPTION) HOWEVER 
  29:..\u8g2\csrc/u8x8_d_uc1610.c ****   CAUSED AND ON ANY THEORY OF LIABILITY, WHETHER IN CONTRACT, 
  30:..\u8g2\csrc/u8x8_d_uc1610.c ****   STRICT LIABILITY, OR TORT (INCLUDING NEGLIGENCE OR OTHERWISE) 
  31:..\u8g2\csrc/u8x8_d_uc1610.c ****   ARISING IN ANY WAY OUT OF THE USE OF THIS SOFTWARE, EVEN IF 
ARM GAS  C:\Users\brian\AppData\Local\Temp\ccXek5JR.s 			page 2


  32:..\u8g2\csrc/u8x8_d_uc1610.c ****   ADVISED OF THE POSSIBILITY OF SUCH DAMAGE.  
  33:..\u8g2\csrc/u8x8_d_uc1610.c **** 
  34:..\u8g2\csrc/u8x8_d_uc1610.c ****   
  35:..\u8g2\csrc/u8x8_d_uc1610.c ****   cad001
  36:..\u8g2\csrc/u8x8_d_uc1610.c ****   
  37:..\u8g2\csrc/u8x8_d_uc1610.c **** */
  38:..\u8g2\csrc/u8x8_d_uc1610.c **** #include "u8x8.h"
  39:..\u8g2\csrc/u8x8_d_uc1610.c **** 
  40:..\u8g2\csrc/u8x8_d_uc1610.c **** 
  41:..\u8g2\csrc/u8x8_d_uc1610.c **** 
  42:..\u8g2\csrc/u8x8_d_uc1610.c **** 
  43:..\u8g2\csrc/u8x8_d_uc1610.c **** static const uint8_t u8x8_d_uc1610_dogxl160_init_seq[] = {
  44:..\u8g2\csrc/u8x8_d_uc1610.c ****     
  45:..\u8g2\csrc/u8x8_d_uc1610.c ****   U8X8_START_TRANSFER(),             	/* enable chip, delay is part of the transfer start */
  46:..\u8g2\csrc/u8x8_d_uc1610.c **** 
  47:..\u8g2\csrc/u8x8_d_uc1610.c ****   U8X8_CA(0x0f1, 0x067),		/* set COM end (display height-1) */
  48:..\u8g2\csrc/u8x8_d_uc1610.c ****   U8X8_C(0x0c0),            			/* SEG & COM normal */
  49:..\u8g2\csrc/u8x8_d_uc1610.c ****   U8X8_C(0x040),            			/* set scroll line lsb to zero */
  50:..\u8g2\csrc/u8x8_d_uc1610.c ****   U8X8_C(0x050),            			/* set scroll line msb to zero */
  51:..\u8g2\csrc/u8x8_d_uc1610.c ****   U8X8_C(0x02b),            			/* set panelloading */
  52:..\u8g2\csrc/u8x8_d_uc1610.c ****   U8X8_C(0x0eb),            			/* set bias 1/2 */  
  53:..\u8g2\csrc/u8x8_d_uc1610.c ****   U8X8_CA(0x081, 0x05f),            	/* set contrast */
  54:..\u8g2\csrc/u8x8_d_uc1610.c ****   
  55:..\u8g2\csrc/u8x8_d_uc1610.c ****   /*
  56:..\u8g2\csrc/u8x8_d_uc1610.c ****     AC0:	0: stop at boundary, 1: increment by one
  57:..\u8g2\csrc/u8x8_d_uc1610.c ****     AC1: 	0: first column then page, 1: first page, then column increment
  58:..\u8g2\csrc/u8x8_d_uc1610.c ****     AC2:	0: increment page adr, 1: decrement page adr.
  59:..\u8g2\csrc/u8x8_d_uc1610.c ****   */
  60:..\u8g2\csrc/u8x8_d_uc1610.c ****   U8X8_C(0x08b),            			/* set auto increment, low bits are AC2 AC1 AC0 */
  61:..\u8g2\csrc/u8x8_d_uc1610.c ****   
  62:..\u8g2\csrc/u8x8_d_uc1610.c ****   /*
  63:..\u8g2\csrc/u8x8_d_uc1610.c ****     LC0:	0
  64:..\u8g2\csrc/u8x8_d_uc1610.c ****     MX:	Mirror X
  65:..\u8g2\csrc/u8x8_d_uc1610.c ****     MY:	Mirror Y
  66:..\u8g2\csrc/u8x8_d_uc1610.c ****   */  
  67:..\u8g2\csrc/u8x8_d_uc1610.c ****   U8X8_C(0x0c0),            			/* low bits are MY, MX, LC0 */
  68:..\u8g2\csrc/u8x8_d_uc1610.c ****   
  69:..\u8g2\csrc/u8x8_d_uc1610.c ****   U8X8_C(0x0f8),            			// window mode off
  70:..\u8g2\csrc/u8x8_d_uc1610.c ****   U8X8_C(0x010),		                // col high
  71:..\u8g2\csrc/u8x8_d_uc1610.c ****   U8X8_C(0x000),		                // col low
  72:..\u8g2\csrc/u8x8_d_uc1610.c ****   U8X8_C(0x0b0),		                // page
  73:..\u8g2\csrc/u8x8_d_uc1610.c ****   
  74:..\u8g2\csrc/u8x8_d_uc1610.c ****   U8X8_C(0x0a6),            			/* set normal pixel mode (not inverse) */
  75:..\u8g2\csrc/u8x8_d_uc1610.c ****   U8X8_C(0x0a4),            			/* set normal pixel mode (not all on) */
  76:..\u8g2\csrc/u8x8_d_uc1610.c **** 
  77:..\u8g2\csrc/u8x8_d_uc1610.c ****   /* test code 
  78:..\u8g2\csrc/u8x8_d_uc1610.c ****   U8X8_C(0x0af),		                // display on 
  79:..\u8g2\csrc/u8x8_d_uc1610.c ****   U8X8_C(0x0f8),            			// window mode off
  80:..\u8g2\csrc/u8x8_d_uc1610.c ****   U8X8_CA(0x0f4, 0),			// set window
  81:..\u8g2\csrc/u8x8_d_uc1610.c ****   U8X8_CA(0x0f5, 0),
  82:..\u8g2\csrc/u8x8_d_uc1610.c ****   U8X8_CA(0x0f6, 4),
  83:..\u8g2\csrc/u8x8_d_uc1610.c ****   U8X8_CA(0x0f7, 1),
  84:..\u8g2\csrc/u8x8_d_uc1610.c ****   U8X8_C(0x0f9),            			// window mode on
  85:..\u8g2\csrc/u8x8_d_uc1610.c ****   U8X8_D1(0x03),
  86:..\u8g2\csrc/u8x8_d_uc1610.c ****   U8X8_D1(0x0c0),
  87:..\u8g2\csrc/u8x8_d_uc1610.c ****   U8X8_D1(0x0ff),
  88:..\u8g2\csrc/u8x8_d_uc1610.c ****   U8X8_D1(0x0ff),
ARM GAS  C:\Users\brian\AppData\Local\Temp\ccXek5JR.s 			page 3


  89:..\u8g2\csrc/u8x8_d_uc1610.c ****   U8X8_D1(0x0ff),
  90:..\u8g2\csrc/u8x8_d_uc1610.c ****   U8X8_D1(0x0ff),
  91:..\u8g2\csrc/u8x8_d_uc1610.c ****   U8X8_D1(0x0ff),
  92:..\u8g2\csrc/u8x8_d_uc1610.c ****   U8X8_D1(0x0ff),
  93:..\u8g2\csrc/u8x8_d_uc1610.c ****   */
  94:..\u8g2\csrc/u8x8_d_uc1610.c ****   
  95:..\u8g2\csrc/u8x8_d_uc1610.c ****   U8X8_END_TRANSFER(),             	/* disable chip */
  96:..\u8g2\csrc/u8x8_d_uc1610.c ****   U8X8_END()             			/* end of sequence */
  97:..\u8g2\csrc/u8x8_d_uc1610.c **** };
  98:..\u8g2\csrc/u8x8_d_uc1610.c **** 
  99:..\u8g2\csrc/u8x8_d_uc1610.c **** static const uint8_t u8x8_d_uc1610_dogxl160_powersave0_seq[] = {
 100:..\u8g2\csrc/u8x8_d_uc1610.c ****   U8X8_START_TRANSFER(),             	/* enable chip, delay is part of the transfer start */
 101:..\u8g2\csrc/u8x8_d_uc1610.c ****   U8X8_C(0x0af),		                /* display on, UC1610 */
 102:..\u8g2\csrc/u8x8_d_uc1610.c ****   U8X8_END_TRANSFER(),             	/* disable chip */
 103:..\u8g2\csrc/u8x8_d_uc1610.c ****   U8X8_END()             			/* end of sequence */
 104:..\u8g2\csrc/u8x8_d_uc1610.c **** };
 105:..\u8g2\csrc/u8x8_d_uc1610.c **** 
 106:..\u8g2\csrc/u8x8_d_uc1610.c **** static const uint8_t u8x8_d_uc1610_dogxl160_powersave1_seq[] = {
 107:..\u8g2\csrc/u8x8_d_uc1610.c ****   U8X8_START_TRANSFER(),             	/* enable chip, delay is part of the transfer start */
 108:..\u8g2\csrc/u8x8_d_uc1610.c ****   U8X8_C(0x0ae),		                /* display off,  UC1610 */
 109:..\u8g2\csrc/u8x8_d_uc1610.c ****   U8X8_END_TRANSFER(),             	/* disable chip */
 110:..\u8g2\csrc/u8x8_d_uc1610.c ****   U8X8_END()             			/* end of sequence */
 111:..\u8g2\csrc/u8x8_d_uc1610.c **** };
 112:..\u8g2\csrc/u8x8_d_uc1610.c **** 
 113:..\u8g2\csrc/u8x8_d_uc1610.c **** static const uint8_t u8x8_d_uc1610_dogxl160_flip0_seq[] = {
 114:..\u8g2\csrc/u8x8_d_uc1610.c ****   U8X8_START_TRANSFER(),             	/* enable chip, delay is part of the transfer start */
 115:..\u8g2\csrc/u8x8_d_uc1610.c ****   /*
 116:..\u8g2\csrc/u8x8_d_uc1610.c ****     LC0:	0
 117:..\u8g2\csrc/u8x8_d_uc1610.c ****     MX:	Mirror X
 118:..\u8g2\csrc/u8x8_d_uc1610.c ****     MY:	Mirror Y
 119:..\u8g2\csrc/u8x8_d_uc1610.c ****   */  
 120:..\u8g2\csrc/u8x8_d_uc1610.c ****   U8X8_C(0x0c0),            			/* low bits are MY, MX, LC0 */
 121:..\u8g2\csrc/u8x8_d_uc1610.c ****   U8X8_END_TRANSFER(),             	/* disable chip */
 122:..\u8g2\csrc/u8x8_d_uc1610.c ****   U8X8_END()             			/* end of sequence */
 123:..\u8g2\csrc/u8x8_d_uc1610.c **** };
 124:..\u8g2\csrc/u8x8_d_uc1610.c **** 
 125:..\u8g2\csrc/u8x8_d_uc1610.c **** static const uint8_t u8x8_d_uc1610_dogxl160_flip1_seq[] = {
 126:..\u8g2\csrc/u8x8_d_uc1610.c ****   U8X8_START_TRANSFER(),             	/* enable chip, delay is part of the transfer start */
 127:..\u8g2\csrc/u8x8_d_uc1610.c ****   /*
 128:..\u8g2\csrc/u8x8_d_uc1610.c ****     LC0:	0
 129:..\u8g2\csrc/u8x8_d_uc1610.c ****     MX:	Mirror X
 130:..\u8g2\csrc/u8x8_d_uc1610.c ****     MY:	Mirror Y
 131:..\u8g2\csrc/u8x8_d_uc1610.c ****   */  
 132:..\u8g2\csrc/u8x8_d_uc1610.c ****   U8X8_C(0x0c6),            			/* low bits are MY, MX, LC0 */
 133:..\u8g2\csrc/u8x8_d_uc1610.c ****   U8X8_END_TRANSFER(),             	/* disable chip */
 134:..\u8g2\csrc/u8x8_d_uc1610.c ****   U8X8_END()             			/* end of sequence */
 135:..\u8g2\csrc/u8x8_d_uc1610.c **** };
 136:..\u8g2\csrc/u8x8_d_uc1610.c **** 
 137:..\u8g2\csrc/u8x8_d_uc1610.c **** 
 138:..\u8g2\csrc/u8x8_d_uc1610.c **** /* 
 139:..\u8g2\csrc/u8x8_d_uc1610.c ****   UC1610 has two chip select inputs (CS0 and CS1).
 140:..\u8g2\csrc/u8x8_d_uc1610.c ****   CS0 is low active, CS1 is high active. It will depend on the display
 141:..\u8g2\csrc/u8x8_d_uc1610.c ****   module whether the display has a is low or high active chip select.
 142:..\u8g2\csrc/u8x8_d_uc1610.c **** */
 143:..\u8g2\csrc/u8x8_d_uc1610.c **** 
 144:..\u8g2\csrc/u8x8_d_uc1610.c **** static const u8x8_display_info_t u8x8_uc1610_display_info =
 145:..\u8g2\csrc/u8x8_d_uc1610.c **** {
ARM GAS  C:\Users\brian\AppData\Local\Temp\ccXek5JR.s 			page 4


 146:..\u8g2\csrc/u8x8_d_uc1610.c ****   /* chip_enable_level = */ 0,
 147:..\u8g2\csrc/u8x8_d_uc1610.c ****   /* chip_disable_level = */ 1,
 148:..\u8g2\csrc/u8x8_d_uc1610.c ****   
 149:..\u8g2\csrc/u8x8_d_uc1610.c ****   /* post_chip_enable_wait_ns = */ 15,
 150:..\u8g2\csrc/u8x8_d_uc1610.c ****   /* pre_chip_disable_wait_ns = */ 15,
 151:..\u8g2\csrc/u8x8_d_uc1610.c ****   /* reset_pulse_width_ms = */ 1, 
 152:..\u8g2\csrc/u8x8_d_uc1610.c ****   /* post_reset_wait_ms = */ 6, 
 153:..\u8g2\csrc/u8x8_d_uc1610.c ****   /* sda_setup_time_ns = */ 30,	
 154:..\u8g2\csrc/u8x8_d_uc1610.c ****   /* sck_pulse_width_ns = */ 63,	/* half of cycle time (125ns cycle time according to datasheet) --
 155:..\u8g2\csrc/u8x8_d_uc1610.c ****   /* sck_clock_hz = */ 8000000UL,	/* since Arduino 1.6.0, the SPI bus speed in Hz. Should be  10000
 156:..\u8g2\csrc/u8x8_d_uc1610.c ****   /* spi_mode = */ 0,		/* active high, rising edge */
 157:..\u8g2\csrc/u8x8_d_uc1610.c ****   /* i2c_bus_clock_100kHz = */ 4,
 158:..\u8g2\csrc/u8x8_d_uc1610.c ****   /* data_setup_time_ns = */ 30,
 159:..\u8g2\csrc/u8x8_d_uc1610.c ****   /* write_pulse_width_ns = */ 40,
 160:..\u8g2\csrc/u8x8_d_uc1610.c ****   /* tile_width = */ 20,		
 161:..\u8g2\csrc/u8x8_d_uc1610.c ****   /* tile_hight = */ 13,		/* height of 13*8=104 pixel */
 162:..\u8g2\csrc/u8x8_d_uc1610.c ****   /* default_x_offset = */ 0,
 163:..\u8g2\csrc/u8x8_d_uc1610.c ****   /* flipmode_x_offset = */ 0,
 164:..\u8g2\csrc/u8x8_d_uc1610.c ****   /* pixel_width = */ 160,
 165:..\u8g2\csrc/u8x8_d_uc1610.c ****   /* pixel_height = */ 104
 166:..\u8g2\csrc/u8x8_d_uc1610.c **** };
 167:..\u8g2\csrc/u8x8_d_uc1610.c **** 
 168:..\u8g2\csrc/u8x8_d_uc1610.c **** 
 169:..\u8g2\csrc/u8x8_d_uc1610.c **** /*
 170:..\u8g2\csrc/u8x8_d_uc1610.c ****   RAM Organization:
 171:..\u8g2\csrc/u8x8_d_uc1610.c ****   D0  Pix0
 172:..\u8g2\csrc/u8x8_d_uc1610.c ****   D1
 173:..\u8g2\csrc/u8x8_d_uc1610.c ****   D2  Pix1
 174:..\u8g2\csrc/u8x8_d_uc1610.c ****   D3
 175:..\u8g2\csrc/u8x8_d_uc1610.c ****   D4  Pix2
 176:..\u8g2\csrc/u8x8_d_uc1610.c ****   D5
 177:..\u8g2\csrc/u8x8_d_uc1610.c ****   D6  Pix3
 178:..\u8g2\csrc/u8x8_d_uc1610.c ****   D7    
 179:..\u8g2\csrc/u8x8_d_uc1610.c ****   D0  Pix4
 180:..\u8g2\csrc/u8x8_d_uc1610.c ****   D1
 181:..\u8g2\csrc/u8x8_d_uc1610.c ****   D2  Pix5
 182:..\u8g2\csrc/u8x8_d_uc1610.c ****   D3
 183:..\u8g2\csrc/u8x8_d_uc1610.c ****   D4  Pix6
 184:..\u8g2\csrc/u8x8_d_uc1610.c ****   D5
 185:..\u8g2\csrc/u8x8_d_uc1610.c ****   D6  Pix7
 186:..\u8g2\csrc/u8x8_d_uc1610.c ****   D7    
 187:..\u8g2\csrc/u8x8_d_uc1610.c **** 
 188:..\u8g2\csrc/u8x8_d_uc1610.c **** 
 189:..\u8g2\csrc/u8x8_d_uc1610.c **** */
 190:..\u8g2\csrc/u8x8_d_uc1610.c **** static uint8_t *u8x8_convert_tile_for_uc1610(uint8_t *t)
 191:..\u8g2\csrc/u8x8_d_uc1610.c **** {
  27              		.loc 1 191 0
  28              		.cfi_startproc
  29              		@ args = 0, pretend = 0, frame = 0
  30              		@ frame_needed = 0, uses_anonymous_args = 0
  31              	.LVL0:
  32 0000 70B5     		push	{r4, r5, r6, lr}
  33              		.cfi_def_cfa_offset 16
  34              		.cfi_offset 4, -16
  35              		.cfi_offset 5, -12
  36              		.cfi_offset 6, -8
  37              		.cfi_offset 14, -4
ARM GAS  C:\Users\brian\AppData\Local\Temp\ccXek5JR.s 			page 5


  38              	.LVL1:
 192:..\u8g2\csrc/u8x8_d_uc1610.c ****   uint8_t i;
 193:..\u8g2\csrc/u8x8_d_uc1610.c ****   uint16_t r;
 194:..\u8g2\csrc/u8x8_d_uc1610.c ****   static uint8_t buf[16];
 195:..\u8g2\csrc/u8x8_d_uc1610.c ****   uint8_t *pbuf = buf;
  39              		.loc 1 195 0
  40 0002 0A4D     		ldr	r5, .L5
 196:..\u8g2\csrc/u8x8_d_uc1610.c **** 
 197:..\u8g2\csrc/u8x8_d_uc1610.c ****   for( i = 0; i < 8; i++ )
  41              		.loc 1 197 0
  42 0004 0024     		movs	r4, #0
  43 0006 0DE0     		b	.L2
  44              	.LVL2:
  45              	.L3:
 198:..\u8g2\csrc/u8x8_d_uc1610.c ****   {
 199:..\u8g2\csrc/u8x8_d_uc1610.c ****     r = u8x8_upscale_byte(*t++);
  46              		.loc 1 199 0 discriminator 3
  47 0008 461C     		adds	r6, r0, #1
  48              	.LVL3:
  49 000a 0078     		ldrb	r0, [r0]	@ zero_extendqisi2
  50 000c FFF7FEFF 		bl	u8x8_upscale_byte
  51              	.LVL4:
 200:..\u8g2\csrc/u8x8_d_uc1610.c ****     *pbuf++ = r & 255;
  52              		.loc 1 200 0 discriminator 3
  53 0010 2B46     		mov	r3, r5
  54 0012 03F8020B 		strb	r0, [r3], #2
 201:..\u8g2\csrc/u8x8_d_uc1610.c ****     r >>= 8;
  55              		.loc 1 201 0 discriminator 3
  56 0016 C0F30F20 		ubfx	r0, r0, #8, #16
  57              	.LVL5:
 202:..\u8g2\csrc/u8x8_d_uc1610.c ****     *pbuf++ = r;
  58              		.loc 1 202 0 discriminator 3
  59 001a 6870     		strb	r0, [r5, #1]
 197:..\u8g2\csrc/u8x8_d_uc1610.c ****   {
  60              		.loc 1 197 0 discriminator 3
  61 001c 0134     		adds	r4, r4, #1
  62              	.LVL6:
  63 001e E4B2     		uxtb	r4, r4
  64              	.LVL7:
  65              		.loc 1 202 0 discriminator 3
  66 0020 1D46     		mov	r5, r3
 199:..\u8g2\csrc/u8x8_d_uc1610.c ****     *pbuf++ = r & 255;
  67              		.loc 1 199 0 discriminator 3
  68 0022 3046     		mov	r0, r6
  69              	.LVL8:
  70              	.L2:
 197:..\u8g2\csrc/u8x8_d_uc1610.c ****   {
  71              		.loc 1 197 0 discriminator 1
  72 0024 072C     		cmp	r4, #7
  73 0026 EFD9     		bls	.L3
 203:..\u8g2\csrc/u8x8_d_uc1610.c ****   }
 204:..\u8g2\csrc/u8x8_d_uc1610.c ****   return buf;
 205:..\u8g2\csrc/u8x8_d_uc1610.c **** }
  74              		.loc 1 205 0
  75 0028 0048     		ldr	r0, .L5
  76              	.LVL9:
  77 002a 70BD     		pop	{r4, r5, r6, pc}
ARM GAS  C:\Users\brian\AppData\Local\Temp\ccXek5JR.s 			page 6


  78              	.LVL10:
  79              	.L6:
  80              		.align	2
  81              	.L5:
  82 002c 00000000 		.word	.LANCHOR0
  83              		.cfi_endproc
  84              	.LFE0:
  85              		.size	u8x8_convert_tile_for_uc1610, .-u8x8_convert_tile_for_uc1610
  86              		.section	.text.u8x8_d_uc1610_ea_dogxl160,"ax",%progbits
  87              		.align	2
  88              		.global	u8x8_d_uc1610_ea_dogxl160
  89              		.thumb
  90              		.thumb_func
  91              		.type	u8x8_d_uc1610_ea_dogxl160, %function
  92              	u8x8_d_uc1610_ea_dogxl160:
  93              	.LFB1:
 206:..\u8g2\csrc/u8x8_d_uc1610.c **** 
 207:..\u8g2\csrc/u8x8_d_uc1610.c **** uint8_t u8x8_d_uc1610_ea_dogxl160(u8x8_t *u8x8, uint8_t msg, uint8_t arg_int, void *arg_ptr)
 208:..\u8g2\csrc/u8x8_d_uc1610.c **** {
  94              		.loc 1 208 0
  95              		.cfi_startproc
  96              		@ args = 0, pretend = 0, frame = 0
  97              		@ frame_needed = 0, uses_anonymous_args = 0
  98              	.LVL11:
  99 0000 2DE9F041 		push	{r4, r5, r6, r7, r8, lr}
 100              		.cfi_def_cfa_offset 24
 101              		.cfi_offset 4, -24
 102              		.cfi_offset 5, -20
 103              		.cfi_offset 6, -16
 104              		.cfi_offset 7, -12
 105              		.cfi_offset 8, -8
 106              		.cfi_offset 14, -4
 107 0004 0646     		mov	r6, r0
 108 0006 1746     		mov	r7, r2
 109 0008 9846     		mov	r8, r3
 209:..\u8g2\csrc/u8x8_d_uc1610.c ****   uint8_t x, c, page;
 210:..\u8g2\csrc/u8x8_d_uc1610.c ****   uint8_t *ptr;
 211:..\u8g2\csrc/u8x8_d_uc1610.c ****   switch(msg)
 110              		.loc 1 211 0
 111 000a 0939     		subs	r1, r1, #9
 112              	.LVL12:
 113 000c 0629     		cmp	r1, #6
 114 000e 00F29980 		bhi	.L20
 115 0012 DFE801F0 		tbb	[pc, r1]
 116              	.LVL13:
 117              	.L10:
 118 0016 04       		.byte	(.L9-.L10)/2
 119 0017 0A       		.byte	(.L11-.L10)/2
 120 0018 13       		.byte	(.L12-.L10)/2
 121 0019 97       		.byte	(.L20-.L10)/2
 122 001a 20       		.byte	(.L13-.L10)/2
 123 001b 35       		.byte	(.L14-.L10)/2
 124 001c 45       		.byte	(.L15-.L10)/2
 125 001d 00       		.p2align 1
 126              	.L9:
 212:..\u8g2\csrc/u8x8_d_uc1610.c ****   {
 213:..\u8g2\csrc/u8x8_d_uc1610.c ****     case U8X8_MSG_DISPLAY_SETUP_MEMORY:
ARM GAS  C:\Users\brian\AppData\Local\Temp\ccXek5JR.s 			page 7


 214:..\u8g2\csrc/u8x8_d_uc1610.c ****       u8x8_d_helper_display_setup_memory(u8x8, &u8x8_uc1610_display_info);
 127              		.loc 1 214 0
 128 001e 4B49     		ldr	r1, .L22
 129 0020 FFF7FEFF 		bl	u8x8_d_helper_display_setup_memory
 130              	.LVL14:
 215:..\u8g2\csrc/u8x8_d_uc1610.c ****       break;
 216:..\u8g2\csrc/u8x8_d_uc1610.c ****     case U8X8_MSG_DISPLAY_INIT:
 217:..\u8g2\csrc/u8x8_d_uc1610.c ****       u8x8_d_helper_display_init(u8x8);
 218:..\u8g2\csrc/u8x8_d_uc1610.c ****       u8x8_cad_SendSequence(u8x8, u8x8_d_uc1610_dogxl160_init_seq);
 219:..\u8g2\csrc/u8x8_d_uc1610.c ****       break;
 220:..\u8g2\csrc/u8x8_d_uc1610.c ****     case U8X8_MSG_DISPLAY_SET_POWER_SAVE:
 221:..\u8g2\csrc/u8x8_d_uc1610.c ****       if ( arg_int == 0 )
 222:..\u8g2\csrc/u8x8_d_uc1610.c **** 	u8x8_cad_SendSequence(u8x8, u8x8_d_uc1610_dogxl160_powersave0_seq);
 223:..\u8g2\csrc/u8x8_d_uc1610.c ****       else
 224:..\u8g2\csrc/u8x8_d_uc1610.c **** 	u8x8_cad_SendSequence(u8x8, u8x8_d_uc1610_dogxl160_powersave1_seq);
 225:..\u8g2\csrc/u8x8_d_uc1610.c ****       break;
 226:..\u8g2\csrc/u8x8_d_uc1610.c ****     case U8X8_MSG_DISPLAY_SET_FLIP_MODE:
 227:..\u8g2\csrc/u8x8_d_uc1610.c ****       if ( arg_int == 0 )
 228:..\u8g2\csrc/u8x8_d_uc1610.c ****       {
 229:..\u8g2\csrc/u8x8_d_uc1610.c **** 	u8x8_cad_SendSequence(u8x8, u8x8_d_uc1610_dogxl160_flip0_seq);
 230:..\u8g2\csrc/u8x8_d_uc1610.c **** 	u8x8->x_offset = u8x8->display_info->default_x_offset;
 231:..\u8g2\csrc/u8x8_d_uc1610.c ****       }
 232:..\u8g2\csrc/u8x8_d_uc1610.c ****       else
 233:..\u8g2\csrc/u8x8_d_uc1610.c ****       {
 234:..\u8g2\csrc/u8x8_d_uc1610.c **** 	u8x8_cad_SendSequence(u8x8, u8x8_d_uc1610_dogxl160_flip1_seq);
 235:..\u8g2\csrc/u8x8_d_uc1610.c **** 	u8x8->x_offset = u8x8->display_info->flipmode_x_offset;
 236:..\u8g2\csrc/u8x8_d_uc1610.c ****       }	
 237:..\u8g2\csrc/u8x8_d_uc1610.c ****       break;
 238:..\u8g2\csrc/u8x8_d_uc1610.c **** #ifdef U8X8_WITH_SET_CONTRAST
 239:..\u8g2\csrc/u8x8_d_uc1610.c ****     case U8X8_MSG_DISPLAY_SET_CONTRAST:
 240:..\u8g2\csrc/u8x8_d_uc1610.c ****       u8x8_cad_StartTransfer(u8x8);
 241:..\u8g2\csrc/u8x8_d_uc1610.c ****       u8x8_cad_SendCmd(u8x8, 0x081 );
 242:..\u8g2\csrc/u8x8_d_uc1610.c ****       u8x8_cad_SendArg(u8x8, arg_int  );	/* uc1610 has range from 0 to 255 */
 243:..\u8g2\csrc/u8x8_d_uc1610.c ****       u8x8_cad_EndTransfer(u8x8);
 244:..\u8g2\csrc/u8x8_d_uc1610.c ****       break;
 245:..\u8g2\csrc/u8x8_d_uc1610.c **** #endif
 246:..\u8g2\csrc/u8x8_d_uc1610.c ****     case U8X8_MSG_DISPLAY_DRAW_TILE:
 247:..\u8g2\csrc/u8x8_d_uc1610.c ****       u8x8_cad_StartTransfer(u8x8);
 248:..\u8g2\csrc/u8x8_d_uc1610.c **** 
 249:..\u8g2\csrc/u8x8_d_uc1610.c ****       x = ((u8x8_tile_t *)arg_ptr)->x_pos;
 250:..\u8g2\csrc/u8x8_d_uc1610.c ****       x *= 8;
 251:..\u8g2\csrc/u8x8_d_uc1610.c ****       x += u8x8->x_offset;
 252:..\u8g2\csrc/u8x8_d_uc1610.c ****     
 253:..\u8g2\csrc/u8x8_d_uc1610.c ****       page = (((u8x8_tile_t *)arg_ptr)->y_pos);
 254:..\u8g2\csrc/u8x8_d_uc1610.c ****       page *= 2;
 255:..\u8g2\csrc/u8x8_d_uc1610.c **** 
 256:..\u8g2\csrc/u8x8_d_uc1610.c ****       u8x8_cad_SendCmd(u8x8, 0x0f8 );	/* window disable */
 257:..\u8g2\csrc/u8x8_d_uc1610.c ****       
 258:..\u8g2\csrc/u8x8_d_uc1610.c ****       //u8x8_cad_SendCmd(u8x8, 0x010 | (x>>4) );
 259:..\u8g2\csrc/u8x8_d_uc1610.c ****       //u8x8_cad_SendCmd(u8x8, 0x000 | ((x&15)));
 260:..\u8g2\csrc/u8x8_d_uc1610.c ****       //u8x8_cad_SendCmd(u8x8, 0x0b0 | page);
 261:..\u8g2\csrc/u8x8_d_uc1610.c **** 
 262:..\u8g2\csrc/u8x8_d_uc1610.c ****       u8x8_cad_SendCmd(u8x8, 0x0f4 );	/* window start column */
 263:..\u8g2\csrc/u8x8_d_uc1610.c ****       u8x8_cad_SendArg(u8x8, x);
 264:..\u8g2\csrc/u8x8_d_uc1610.c ****       u8x8_cad_SendCmd(u8x8, 0x0f5 );	/* window start page */
 265:..\u8g2\csrc/u8x8_d_uc1610.c ****       u8x8_cad_SendArg(u8x8, page);
 266:..\u8g2\csrc/u8x8_d_uc1610.c ****       u8x8_cad_SendCmd(u8x8, 0x0f6 );	/* window end column */
ARM GAS  C:\Users\brian\AppData\Local\Temp\ccXek5JR.s 			page 8


 267:..\u8g2\csrc/u8x8_d_uc1610.c ****       u8x8_cad_SendArg(u8x8, 159);		/* end of display */
 268:..\u8g2\csrc/u8x8_d_uc1610.c ****       u8x8_cad_SendCmd(u8x8, 0x0f7 );	/* window end page */
 269:..\u8g2\csrc/u8x8_d_uc1610.c ****       u8x8_cad_SendArg(u8x8, page+1);
 270:..\u8g2\csrc/u8x8_d_uc1610.c ****       u8x8_cad_SendCmd(u8x8, 0x0f9 );	/* window enable */
 271:..\u8g2\csrc/u8x8_d_uc1610.c ****     
 272:..\u8g2\csrc/u8x8_d_uc1610.c ****       do
 273:..\u8g2\csrc/u8x8_d_uc1610.c ****       {
 274:..\u8g2\csrc/u8x8_d_uc1610.c **** 	c = ((u8x8_tile_t *)arg_ptr)->cnt;
 275:..\u8g2\csrc/u8x8_d_uc1610.c **** 	ptr = ((u8x8_tile_t *)arg_ptr)->tile_ptr;
 276:..\u8g2\csrc/u8x8_d_uc1610.c **** 	do
 277:..\u8g2\csrc/u8x8_d_uc1610.c **** 	{
 278:..\u8g2\csrc/u8x8_d_uc1610.c **** 	  u8x8_cad_SendData(u8x8, 16, u8x8_convert_tile_for_uc1610(ptr));
 279:..\u8g2\csrc/u8x8_d_uc1610.c **** 	  ptr += 8;
 280:..\u8g2\csrc/u8x8_d_uc1610.c **** 	  x += 8;
 281:..\u8g2\csrc/u8x8_d_uc1610.c **** 	  c--;
 282:..\u8g2\csrc/u8x8_d_uc1610.c **** 	} while( c > 0 );
 283:..\u8g2\csrc/u8x8_d_uc1610.c **** 	
 284:..\u8g2\csrc/u8x8_d_uc1610.c **** 	arg_int--;
 285:..\u8g2\csrc/u8x8_d_uc1610.c ****       } while( arg_int > 0 );
 286:..\u8g2\csrc/u8x8_d_uc1610.c ****       
 287:..\u8g2\csrc/u8x8_d_uc1610.c ****       u8x8_cad_EndTransfer(u8x8);
 288:..\u8g2\csrc/u8x8_d_uc1610.c **** 
 289:..\u8g2\csrc/u8x8_d_uc1610.c ****     
 290:..\u8g2\csrc/u8x8_d_uc1610.c ****       break;
 291:..\u8g2\csrc/u8x8_d_uc1610.c ****     default:
 292:..\u8g2\csrc/u8x8_d_uc1610.c ****       return 0;
 293:..\u8g2\csrc/u8x8_d_uc1610.c ****   }
 294:..\u8g2\csrc/u8x8_d_uc1610.c ****   return 1;
 131              		.loc 1 294 0
 132 0024 0120     		movs	r0, #1
 215:..\u8g2\csrc/u8x8_d_uc1610.c ****       break;
 133              		.loc 1 215 0
 134 0026 BDE8F081 		pop	{r4, r5, r6, r7, r8, pc}
 135              	.LVL15:
 136              	.L11:
 217:..\u8g2\csrc/u8x8_d_uc1610.c ****       u8x8_cad_SendSequence(u8x8, u8x8_d_uc1610_dogxl160_init_seq);
 137              		.loc 1 217 0
 138 002a FFF7FEFF 		bl	u8x8_d_helper_display_init
 139              	.LVL16:
 218:..\u8g2\csrc/u8x8_d_uc1610.c ****       break;
 140              		.loc 1 218 0
 141 002e 4849     		ldr	r1, .L22+4
 142 0030 3046     		mov	r0, r6
 143 0032 FFF7FEFF 		bl	u8x8_cad_SendSequence
 144              	.LVL17:
 145              		.loc 1 294 0
 146 0036 0120     		movs	r0, #1
 219:..\u8g2\csrc/u8x8_d_uc1610.c ****     case U8X8_MSG_DISPLAY_SET_POWER_SAVE:
 147              		.loc 1 219 0
 148 0038 BDE8F081 		pop	{r4, r5, r6, r7, r8, pc}
 149              	.LVL18:
 150              	.L12:
 221:..\u8g2\csrc/u8x8_d_uc1610.c **** 	u8x8_cad_SendSequence(u8x8, u8x8_d_uc1610_dogxl160_powersave0_seq);
 151              		.loc 1 221 0
 152 003c 2AB9     		cbnz	r2, .L16
 222:..\u8g2\csrc/u8x8_d_uc1610.c ****       else
 153              		.loc 1 222 0
ARM GAS  C:\Users\brian\AppData\Local\Temp\ccXek5JR.s 			page 9


 154 003e 4549     		ldr	r1, .L22+8
 155 0040 FFF7FEFF 		bl	u8x8_cad_SendSequence
 156              	.LVL19:
 157              		.loc 1 294 0
 158 0044 0120     		movs	r0, #1
 159 0046 BDE8F081 		pop	{r4, r5, r6, r7, r8, pc}
 160              	.LVL20:
 161              	.L16:
 224:..\u8g2\csrc/u8x8_d_uc1610.c ****       break;
 162              		.loc 1 224 0
 163 004a 4349     		ldr	r1, .L22+12
 164 004c FFF7FEFF 		bl	u8x8_cad_SendSequence
 165              	.LVL21:
 166              		.loc 1 294 0
 167 0050 0120     		movs	r0, #1
 168 0052 BDE8F081 		pop	{r4, r5, r6, r7, r8, pc}
 169              	.LVL22:
 170              	.L13:
 227:..\u8g2\csrc/u8x8_d_uc1610.c ****       {
 171              		.loc 1 227 0
 172 0056 4AB9     		cbnz	r2, .L17
 229:..\u8g2\csrc/u8x8_d_uc1610.c **** 	u8x8->x_offset = u8x8->display_info->default_x_offset;
 173              		.loc 1 229 0
 174 0058 4049     		ldr	r1, .L22+16
 175 005a FFF7FEFF 		bl	u8x8_cad_SendSequence
 176              	.LVL23:
 230:..\u8g2\csrc/u8x8_d_uc1610.c ****       }
 177              		.loc 1 230 0
 178 005e 3368     		ldr	r3, [r6]
 179 0060 9B7C     		ldrb	r3, [r3, #18]	@ zero_extendqisi2
 180 0062 86F82230 		strb	r3, [r6, #34]
 181              		.loc 1 294 0
 182 0066 0120     		movs	r0, #1
 183 0068 BDE8F081 		pop	{r4, r5, r6, r7, r8, pc}
 184              	.LVL24:
 185              	.L17:
 234:..\u8g2\csrc/u8x8_d_uc1610.c **** 	u8x8->x_offset = u8x8->display_info->flipmode_x_offset;
 186              		.loc 1 234 0
 187 006c 3C49     		ldr	r1, .L22+20
 188 006e FFF7FEFF 		bl	u8x8_cad_SendSequence
 189              	.LVL25:
 235:..\u8g2\csrc/u8x8_d_uc1610.c ****       }	
 190              		.loc 1 235 0
 191 0072 3368     		ldr	r3, [r6]
 192 0074 DB7C     		ldrb	r3, [r3, #19]	@ zero_extendqisi2
 193 0076 86F82230 		strb	r3, [r6, #34]
 194              		.loc 1 294 0
 195 007a 0120     		movs	r0, #1
 196 007c BDE8F081 		pop	{r4, r5, r6, r7, r8, pc}
 197              	.LVL26:
 198              	.L14:
 240:..\u8g2\csrc/u8x8_d_uc1610.c ****       u8x8_cad_SendCmd(u8x8, 0x081 );
 199              		.loc 1 240 0
 200 0080 FFF7FEFF 		bl	u8x8_cad_StartTransfer
 201              	.LVL27:
 241:..\u8g2\csrc/u8x8_d_uc1610.c ****       u8x8_cad_SendArg(u8x8, arg_int  );	/* uc1610 has range from 0 to 255 */
 202              		.loc 1 241 0
ARM GAS  C:\Users\brian\AppData\Local\Temp\ccXek5JR.s 			page 10


 203 0084 8121     		movs	r1, #129
 204 0086 3046     		mov	r0, r6
 205 0088 FFF7FEFF 		bl	u8x8_cad_SendCmd
 206              	.LVL28:
 242:..\u8g2\csrc/u8x8_d_uc1610.c ****       u8x8_cad_EndTransfer(u8x8);
 207              		.loc 1 242 0
 208 008c 3946     		mov	r1, r7
 209 008e 3046     		mov	r0, r6
 210 0090 FFF7FEFF 		bl	u8x8_cad_SendArg
 211              	.LVL29:
 243:..\u8g2\csrc/u8x8_d_uc1610.c ****       break;
 212              		.loc 1 243 0
 213 0094 3046     		mov	r0, r6
 214 0096 FFF7FEFF 		bl	u8x8_cad_EndTransfer
 215              	.LVL30:
 216              		.loc 1 294 0
 217 009a 0120     		movs	r0, #1
 244:..\u8g2\csrc/u8x8_d_uc1610.c **** #endif
 218              		.loc 1 244 0
 219 009c BDE8F081 		pop	{r4, r5, r6, r7, r8, pc}
 220              	.LVL31:
 221              	.L15:
 247:..\u8g2\csrc/u8x8_d_uc1610.c **** 
 222              		.loc 1 247 0
 223 00a0 FFF7FEFF 		bl	u8x8_cad_StartTransfer
 224              	.LVL32:
 249:..\u8g2\csrc/u8x8_d_uc1610.c ****       x *= 8;
 225              		.loc 1 249 0
 226 00a4 98F80550 		ldrb	r5, [r8, #5]	@ zero_extendqisi2
 227              	.LVL33:
 250:..\u8g2\csrc/u8x8_d_uc1610.c ****       x += u8x8->x_offset;
 228              		.loc 1 250 0
 229 00a8 ED00     		lsls	r5, r5, #3
 230              	.LVL34:
 231 00aa EDB2     		uxtb	r5, r5
 232              	.LVL35:
 251:..\u8g2\csrc/u8x8_d_uc1610.c ****     
 233              		.loc 1 251 0
 234 00ac 96F82230 		ldrb	r3, [r6, #34]	@ zero_extendqisi2
 235 00b0 1D44     		add	r5, r5, r3
 236              	.LVL36:
 237 00b2 EDB2     		uxtb	r5, r5
 238              	.LVL37:
 253:..\u8g2\csrc/u8x8_d_uc1610.c ****       page *= 2;
 239              		.loc 1 253 0
 240 00b4 98F80640 		ldrb	r4, [r8, #6]	@ zero_extendqisi2
 241              	.LVL38:
 254:..\u8g2\csrc/u8x8_d_uc1610.c **** 
 242              		.loc 1 254 0
 243 00b8 6400     		lsls	r4, r4, #1
 244              	.LVL39:
 245 00ba E4B2     		uxtb	r4, r4
 246              	.LVL40:
 256:..\u8g2\csrc/u8x8_d_uc1610.c ****       
 247              		.loc 1 256 0
 248 00bc F821     		movs	r1, #248
 249 00be 3046     		mov	r0, r6
ARM GAS  C:\Users\brian\AppData\Local\Temp\ccXek5JR.s 			page 11


 250 00c0 FFF7FEFF 		bl	u8x8_cad_SendCmd
 251              	.LVL41:
 262:..\u8g2\csrc/u8x8_d_uc1610.c ****       u8x8_cad_SendArg(u8x8, x);
 252              		.loc 1 262 0
 253 00c4 F421     		movs	r1, #244
 254 00c6 3046     		mov	r0, r6
 255 00c8 FFF7FEFF 		bl	u8x8_cad_SendCmd
 256              	.LVL42:
 263:..\u8g2\csrc/u8x8_d_uc1610.c ****       u8x8_cad_SendCmd(u8x8, 0x0f5 );	/* window start page */
 257              		.loc 1 263 0
 258 00cc 2946     		mov	r1, r5
 259 00ce 3046     		mov	r0, r6
 260 00d0 FFF7FEFF 		bl	u8x8_cad_SendArg
 261              	.LVL43:
 264:..\u8g2\csrc/u8x8_d_uc1610.c ****       u8x8_cad_SendArg(u8x8, page);
 262              		.loc 1 264 0
 263 00d4 F521     		movs	r1, #245
 264 00d6 3046     		mov	r0, r6
 265 00d8 FFF7FEFF 		bl	u8x8_cad_SendCmd
 266              	.LVL44:
 265:..\u8g2\csrc/u8x8_d_uc1610.c ****       u8x8_cad_SendCmd(u8x8, 0x0f6 );	/* window end column */
 267              		.loc 1 265 0
 268 00dc 2146     		mov	r1, r4
 269 00de 3046     		mov	r0, r6
 270 00e0 FFF7FEFF 		bl	u8x8_cad_SendArg
 271              	.LVL45:
 266:..\u8g2\csrc/u8x8_d_uc1610.c ****       u8x8_cad_SendArg(u8x8, 159);		/* end of display */
 272              		.loc 1 266 0
 273 00e4 F621     		movs	r1, #246
 274 00e6 3046     		mov	r0, r6
 275 00e8 FFF7FEFF 		bl	u8x8_cad_SendCmd
 276              	.LVL46:
 267:..\u8g2\csrc/u8x8_d_uc1610.c ****       u8x8_cad_SendCmd(u8x8, 0x0f7 );	/* window end page */
 277              		.loc 1 267 0
 278 00ec 9F21     		movs	r1, #159
 279 00ee 3046     		mov	r0, r6
 280 00f0 FFF7FEFF 		bl	u8x8_cad_SendArg
 281              	.LVL47:
 268:..\u8g2\csrc/u8x8_d_uc1610.c ****       u8x8_cad_SendArg(u8x8, page+1);
 282              		.loc 1 268 0
 283 00f4 F721     		movs	r1, #247
 284 00f6 3046     		mov	r0, r6
 285 00f8 FFF7FEFF 		bl	u8x8_cad_SendCmd
 286              	.LVL48:
 269:..\u8g2\csrc/u8x8_d_uc1610.c ****       u8x8_cad_SendCmd(u8x8, 0x0f9 );	/* window enable */
 287              		.loc 1 269 0
 288 00fc 611C     		adds	r1, r4, #1
 289 00fe C9B2     		uxtb	r1, r1
 290 0100 3046     		mov	r0, r6
 291 0102 FFF7FEFF 		bl	u8x8_cad_SendArg
 292              	.LVL49:
 270:..\u8g2\csrc/u8x8_d_uc1610.c ****     
 293              		.loc 1 270 0
 294 0106 F921     		movs	r1, #249
 295 0108 3046     		mov	r0, r6
 296 010a FFF7FEFF 		bl	u8x8_cad_SendCmd
 297              	.LVL50:
ARM GAS  C:\Users\brian\AppData\Local\Temp\ccXek5JR.s 			page 12


 298              	.L19:
 274:..\u8g2\csrc/u8x8_d_uc1610.c **** 	ptr = ((u8x8_tile_t *)arg_ptr)->tile_ptr;
 299              		.loc 1 274 0
 300 010e 98F80440 		ldrb	r4, [r8, #4]	@ zero_extendqisi2
 301              	.LVL51:
 275:..\u8g2\csrc/u8x8_d_uc1610.c **** 	do
 302              		.loc 1 275 0
 303 0112 D8F80050 		ldr	r5, [r8]
 304              	.LVL52:
 305              	.L18:
 278:..\u8g2\csrc/u8x8_d_uc1610.c **** 	  ptr += 8;
 306              		.loc 1 278 0 discriminator 1
 307 0116 2846     		mov	r0, r5
 308 0118 FFF7FEFF 		bl	u8x8_convert_tile_for_uc1610
 309              	.LVL53:
 310 011c 0246     		mov	r2, r0
 311 011e 1021     		movs	r1, #16
 312 0120 3046     		mov	r0, r6
 313 0122 FFF7FEFF 		bl	u8x8_cad_SendData
 314              	.LVL54:
 279:..\u8g2\csrc/u8x8_d_uc1610.c **** 	  x += 8;
 315              		.loc 1 279 0 discriminator 1
 316 0126 0835     		adds	r5, r5, #8
 317              	.LVL55:
 281:..\u8g2\csrc/u8x8_d_uc1610.c **** 	} while( c > 0 );
 318              		.loc 1 281 0 discriminator 1
 319 0128 631E     		subs	r3, r4, #1
 320              	.LVL56:
 282:..\u8g2\csrc/u8x8_d_uc1610.c **** 	
 321              		.loc 1 282 0 discriminator 1
 322 012a 13F0FF04 		ands	r4, r3, #255
 323 012e F2D1     		bne	.L18
 284:..\u8g2\csrc/u8x8_d_uc1610.c ****       } while( arg_int > 0 );
 324              		.loc 1 284 0
 325 0130 7A1E     		subs	r2, r7, #1
 326              	.LVL57:
 285:..\u8g2\csrc/u8x8_d_uc1610.c ****       
 327              		.loc 1 285 0
 328 0132 12F0FF07 		ands	r7, r2, #255
 329 0136 EAD1     		bne	.L19
 287:..\u8g2\csrc/u8x8_d_uc1610.c **** 
 330              		.loc 1 287 0
 331 0138 3046     		mov	r0, r6
 332 013a FFF7FEFF 		bl	u8x8_cad_EndTransfer
 333              	.LVL58:
 334              		.loc 1 294 0
 335 013e 0120     		movs	r0, #1
 290:..\u8g2\csrc/u8x8_d_uc1610.c ****     default:
 336              		.loc 1 290 0
 337 0140 BDE8F081 		pop	{r4, r5, r6, r7, r8, pc}
 338              	.LVL59:
 339              	.L20:
 292:..\u8g2\csrc/u8x8_d_uc1610.c ****   }
 340              		.loc 1 292 0
 341 0144 0020     		movs	r0, #0
 342              	.LVL60:
 295:..\u8g2\csrc/u8x8_d_uc1610.c **** }
ARM GAS  C:\Users\brian\AppData\Local\Temp\ccXek5JR.s 			page 13


 343              		.loc 1 295 0
 344 0146 BDE8F081 		pop	{r4, r5, r6, r7, r8, pc}
 345              	.LVL61:
 346              	.L23:
 347 014a 00BF     		.align	2
 348              	.L22:
 349 014c 00000000 		.word	.LANCHOR1
 350 0150 18000000 		.word	.LANCHOR1+24
 351 0154 40000000 		.word	.LANCHOR1+64
 352 0158 48000000 		.word	.LANCHOR1+72
 353 015c 50000000 		.word	.LANCHOR1+80
 354 0160 58000000 		.word	.LANCHOR1+88
 355              		.cfi_endproc
 356              	.LFE1:
 357              		.size	u8x8_d_uc1610_ea_dogxl160, .-u8x8_d_uc1610_ea_dogxl160
 358              		.section	.rodata
 359              		.align	2
 360              		.set	.LANCHOR1,. + 0
 361              		.type	u8x8_uc1610_display_info, %object
 362              		.size	u8x8_uc1610_display_info, 24
 363              	u8x8_uc1610_display_info:
 364 0000 00       		.byte	0
 365 0001 01       		.byte	1
 366 0002 0F       		.byte	15
 367 0003 0F       		.byte	15
 368 0004 01       		.byte	1
 369 0005 06       		.byte	6
 370 0006 1E       		.byte	30
 371 0007 3F       		.byte	63
 372 0008 00127A00 		.word	8000000
 373 000c 00       		.byte	0
 374 000d 04       		.byte	4
 375 000e 1E       		.byte	30
 376 000f 28       		.byte	40
 377 0010 14       		.byte	20
 378 0011 0D       		.byte	13
 379 0012 00       		.byte	0
 380 0013 00       		.byte	0
 381 0014 A000     		.short	160
 382 0016 6800     		.short	104
 383              		.type	u8x8_d_uc1610_dogxl160_init_seq, %object
 384              		.size	u8x8_d_uc1610_dogxl160_init_seq, 37
 385              	u8x8_d_uc1610_dogxl160_init_seq:
 386 0018 18       		.byte	24
 387 0019 15       		.byte	21
 388 001a F1       		.byte	-15
 389 001b 16       		.byte	22
 390 001c 67       		.byte	103
 391 001d 15       		.byte	21
 392 001e C0       		.byte	-64
 393 001f 15       		.byte	21
 394 0020 40       		.byte	64
 395 0021 15       		.byte	21
 396 0022 50       		.byte	80
 397 0023 15       		.byte	21
 398 0024 2B       		.byte	43
 399 0025 15       		.byte	21
ARM GAS  C:\Users\brian\AppData\Local\Temp\ccXek5JR.s 			page 14


 400 0026 EB       		.byte	-21
 401 0027 15       		.byte	21
 402 0028 81       		.byte	-127
 403 0029 16       		.byte	22
 404 002a 5F       		.byte	95
 405 002b 15       		.byte	21
 406 002c 8B       		.byte	-117
 407 002d 15       		.byte	21
 408 002e C0       		.byte	-64
 409 002f 15       		.byte	21
 410 0030 F8       		.byte	-8
 411 0031 15       		.byte	21
 412 0032 10       		.byte	16
 413 0033 15       		.byte	21
 414 0034 00       		.byte	0
 415 0035 15       		.byte	21
 416 0036 B0       		.byte	-80
 417 0037 15       		.byte	21
 418 0038 A6       		.byte	-90
 419 0039 15       		.byte	21
 420 003a A4       		.byte	-92
 421 003b 19       		.byte	25
 422 003c FF       		.byte	-1
 423 003d 000000   		.space	3
 424              		.type	u8x8_d_uc1610_dogxl160_powersave0_seq, %object
 425              		.size	u8x8_d_uc1610_dogxl160_powersave0_seq, 5
 426              	u8x8_d_uc1610_dogxl160_powersave0_seq:
 427 0040 18       		.byte	24
 428 0041 15       		.byte	21
 429 0042 AF       		.byte	-81
 430 0043 19       		.byte	25
 431 0044 FF       		.byte	-1
 432 0045 000000   		.space	3
 433              		.type	u8x8_d_uc1610_dogxl160_powersave1_seq, %object
 434              		.size	u8x8_d_uc1610_dogxl160_powersave1_seq, 5
 435              	u8x8_d_uc1610_dogxl160_powersave1_seq:
 436 0048 18       		.byte	24
 437 0049 15       		.byte	21
 438 004a AE       		.byte	-82
 439 004b 19       		.byte	25
 440 004c FF       		.byte	-1
 441 004d 000000   		.space	3
 442              		.type	u8x8_d_uc1610_dogxl160_flip0_seq, %object
 443              		.size	u8x8_d_uc1610_dogxl160_flip0_seq, 5
 444              	u8x8_d_uc1610_dogxl160_flip0_seq:
 445 0050 18       		.byte	24
 446 0051 15       		.byte	21
 447 0052 C0       		.byte	-64
 448 0053 19       		.byte	25
 449 0054 FF       		.byte	-1
 450 0055 000000   		.space	3
 451              		.type	u8x8_d_uc1610_dogxl160_flip1_seq, %object
 452              		.size	u8x8_d_uc1610_dogxl160_flip1_seq, 5
 453              	u8x8_d_uc1610_dogxl160_flip1_seq:
 454 0058 18       		.byte	24
 455 0059 15       		.byte	21
 456 005a C6       		.byte	-58
ARM GAS  C:\Users\brian\AppData\Local\Temp\ccXek5JR.s 			page 15


 457 005b 19       		.byte	25
 458 005c FF       		.byte	-1
 459              		.bss
 460              		.align	2
 461              		.set	.LANCHOR0,. + 0
 462              		.type	buf.5690, %object
 463              		.size	buf.5690, 16
 464              	buf.5690:
 465 0000 00000000 		.space	16
 465      00000000 
 465      00000000 
 465      00000000 
 466              		.text
 467              	.Letext0:
 468              		.file 2 "c:\\program files (x86)\\cypress\\psoc creator\\4.4\\psoc creator\\import\\gnu\\arm\\5.4.
 469              		.file 3 "c:\\program files (x86)\\cypress\\psoc creator\\4.4\\psoc creator\\import\\gnu\\arm\\5.4.
 470              		.file 4 "..\\u8g2\\csrc\\u8x8.h"