ARM GAS  C:\Users\brian\AppData\Local\Temp\ccQkzULt.s 			page 1


   1              		.syntax unified
   2              		.cpu cortex-m3
   3              		.fpu softvfp
   4              		.eabi_attribute 20, 1
   5              		.eabi_attribute 21, 1
   6              		.eabi_attribute 23, 3
   7              		.eabi_attribute 24, 1
   8              		.eabi_attribute 25, 1
   9              		.eabi_attribute 26, 1
  10              		.eabi_attribute 30, 1
  11              		.eabi_attribute 34, 1
  12              		.eabi_attribute 18, 4
  13              		.thumb
  14              		.syntax unified
  15              		.file	"u8x8_d_ssd1306_128x64_noname.c"
  16              		.text
  17              	.Ltext0:
  18              		.cfi_sections	.debug_frame
  19              		.section	.text.u8x8_d_ssd1306_sh1106_generic,"ax",%progbits
  20              		.align	2
  21              		.thumb
  22              		.thumb_func
  23              		.type	u8x8_d_ssd1306_sh1106_generic, %function
  24              	u8x8_d_ssd1306_sh1106_generic:
  25              	.LFB0:
  26              		.file 1 "..\\u8g2\\csrc\\u8x8_d_ssd1306_128x64_noname.c"
   1:..\u8g2\csrc/u8x8_d_ssd1306_128x64_noname.c **** /*
   2:..\u8g2\csrc/u8x8_d_ssd1306_128x64_noname.c **** 
   3:..\u8g2\csrc/u8x8_d_ssd1306_128x64_noname.c ****   u8x8_d_ssd1306_128x64_noname.c
   4:..\u8g2\csrc/u8x8_d_ssd1306_128x64_noname.c **** 
   5:..\u8g2\csrc/u8x8_d_ssd1306_128x64_noname.c ****   Universal 8bit Graphics Library (https://github.com/olikraus/u8g2/)
   6:..\u8g2\csrc/u8x8_d_ssd1306_128x64_noname.c **** 
   7:..\u8g2\csrc/u8x8_d_ssd1306_128x64_noname.c ****   Copyright (c) 2016, olikraus@gmail.com
   8:..\u8g2\csrc/u8x8_d_ssd1306_128x64_noname.c ****   All rights reserved.
   9:..\u8g2\csrc/u8x8_d_ssd1306_128x64_noname.c **** 
  10:..\u8g2\csrc/u8x8_d_ssd1306_128x64_noname.c ****   Redistribution and use in source and binary forms, with or without modification, 
  11:..\u8g2\csrc/u8x8_d_ssd1306_128x64_noname.c ****   are permitted provided that the following conditions are met:
  12:..\u8g2\csrc/u8x8_d_ssd1306_128x64_noname.c **** 
  13:..\u8g2\csrc/u8x8_d_ssd1306_128x64_noname.c ****   * Redistributions of source code must retain the above copyright notice, this list 
  14:..\u8g2\csrc/u8x8_d_ssd1306_128x64_noname.c ****     of conditions and the following disclaimer.
  15:..\u8g2\csrc/u8x8_d_ssd1306_128x64_noname.c ****     
  16:..\u8g2\csrc/u8x8_d_ssd1306_128x64_noname.c ****   * Redistributions in binary form must reproduce the above copyright notice, this 
  17:..\u8g2\csrc/u8x8_d_ssd1306_128x64_noname.c ****     list of conditions and the following disclaimer in the documentation and/or other 
  18:..\u8g2\csrc/u8x8_d_ssd1306_128x64_noname.c ****     materials provided with the distribution.
  19:..\u8g2\csrc/u8x8_d_ssd1306_128x64_noname.c **** 
  20:..\u8g2\csrc/u8x8_d_ssd1306_128x64_noname.c ****   THIS SOFTWARE IS PROVIDED BY THE COPYRIGHT HOLDERS AND 
  21:..\u8g2\csrc/u8x8_d_ssd1306_128x64_noname.c ****   CONTRIBUTORS "AS IS" AND ANY EXPRESS OR IMPLIED WARRANTIES, 
  22:..\u8g2\csrc/u8x8_d_ssd1306_128x64_noname.c ****   INCLUDING, BUT NOT LIMITED TO, THE IMPLIED WARRANTIES OF 
  23:..\u8g2\csrc/u8x8_d_ssd1306_128x64_noname.c ****   MERCHANTABILITY AND FITNESS FOR A PARTICULAR PURPOSE ARE 
  24:..\u8g2\csrc/u8x8_d_ssd1306_128x64_noname.c ****   DISCLAIMED. IN NO EVENT SHALL THE COPYRIGHT HOLDER OR 
  25:..\u8g2\csrc/u8x8_d_ssd1306_128x64_noname.c ****   CONTRIBUTORS BE LIABLE FOR ANY DIRECT, INDIRECT, INCIDENTAL, 
  26:..\u8g2\csrc/u8x8_d_ssd1306_128x64_noname.c ****   SPECIAL, EXEMPLARY, OR CONSEQUENTIAL DAMAGES (INCLUDING, BUT 
  27:..\u8g2\csrc/u8x8_d_ssd1306_128x64_noname.c ****   NOT LIMITED TO, PROCUREMENT OF SUBSTITUTE GOODS OR SERVICES; 
  28:..\u8g2\csrc/u8x8_d_ssd1306_128x64_noname.c ****   LOSS OF USE, DATA, OR PROFITS; OR BUSINESS INTERRUPTION) HOWEVER 
  29:..\u8g2\csrc/u8x8_d_ssd1306_128x64_noname.c ****   CAUSED AND ON ANY THEORY OF LIABILITY, WHETHER IN CONTRACT, 
  30:..\u8g2\csrc/u8x8_d_ssd1306_128x64_noname.c ****   STRICT LIABILITY, OR TORT (INCLUDING NEGLIGENCE OR OTHERWISE) 
  31:..\u8g2\csrc/u8x8_d_ssd1306_128x64_noname.c ****   ARISING IN ANY WAY OUT OF THE USE OF THIS SOFTWARE, EVEN IF 
ARM GAS  C:\Users\brian\AppData\Local\Temp\ccQkzULt.s 			page 2


  32:..\u8g2\csrc/u8x8_d_ssd1306_128x64_noname.c ****   ADVISED OF THE POSSIBILITY OF SUCH DAMAGE.  
  33:..\u8g2\csrc/u8x8_d_ssd1306_128x64_noname.c ****   
  34:..\u8g2\csrc/u8x8_d_ssd1306_128x64_noname.c **** */
  35:..\u8g2\csrc/u8x8_d_ssd1306_128x64_noname.c **** 
  36:..\u8g2\csrc/u8x8_d_ssd1306_128x64_noname.c **** 
  37:..\u8g2\csrc/u8x8_d_ssd1306_128x64_noname.c **** #include "u8x8.h"
  38:..\u8g2\csrc/u8x8_d_ssd1306_128x64_noname.c **** 
  39:..\u8g2\csrc/u8x8_d_ssd1306_128x64_noname.c **** 
  40:..\u8g2\csrc/u8x8_d_ssd1306_128x64_noname.c **** 
  41:..\u8g2\csrc/u8x8_d_ssd1306_128x64_noname.c **** /* more or less generic setup of all these small OLEDs */
  42:..\u8g2\csrc/u8x8_d_ssd1306_128x64_noname.c **** static const uint8_t u8x8_d_ssd1306_128x64_noname_init_seq[] = {
  43:..\u8g2\csrc/u8x8_d_ssd1306_128x64_noname.c ****     
  44:..\u8g2\csrc/u8x8_d_ssd1306_128x64_noname.c ****   U8X8_START_TRANSFER(),             	/* enable chip, delay is part of the transfer start */
  45:..\u8g2\csrc/u8x8_d_ssd1306_128x64_noname.c ****   
  46:..\u8g2\csrc/u8x8_d_ssd1306_128x64_noname.c ****   
  47:..\u8g2\csrc/u8x8_d_ssd1306_128x64_noname.c ****   U8X8_C(0x0ae),		                /* display off */
  48:..\u8g2\csrc/u8x8_d_ssd1306_128x64_noname.c ****   U8X8_CA(0x0d5, 0x080),		/* clock divide ratio (0x00=1) and oscillator frequency (0x8) */
  49:..\u8g2\csrc/u8x8_d_ssd1306_128x64_noname.c ****   U8X8_CA(0x0a8, 0x03f),		/* multiplex ratio */
  50:..\u8g2\csrc/u8x8_d_ssd1306_128x64_noname.c ****   U8X8_CA(0x0d3, 0x000),		/* display offset */
  51:..\u8g2\csrc/u8x8_d_ssd1306_128x64_noname.c ****   U8X8_C(0x040),		                /* set display start line to 0 */
  52:..\u8g2\csrc/u8x8_d_ssd1306_128x64_noname.c ****   U8X8_CA(0x08d, 0x014),		/* [2] charge pump setting (p62): 0x014 enable, 0x010 disable, SSD1306 on
  53:..\u8g2\csrc/u8x8_d_ssd1306_128x64_noname.c ****   U8X8_CA(0x020, 0x000),		/* horizontal addressing mode */
  54:..\u8g2\csrc/u8x8_d_ssd1306_128x64_noname.c ****   
  55:..\u8g2\csrc/u8x8_d_ssd1306_128x64_noname.c ****   U8X8_C(0x0a1),				/* segment remap a0/a1*/
  56:..\u8g2\csrc/u8x8_d_ssd1306_128x64_noname.c ****   U8X8_C(0x0c8),				/* c0: scan dir normal, c8: reverse */
  57:..\u8g2\csrc/u8x8_d_ssd1306_128x64_noname.c ****   // Flipmode
  58:..\u8g2\csrc/u8x8_d_ssd1306_128x64_noname.c ****   // U8X8_C(0x0a0),				/* segment remap a0/a1*/
  59:..\u8g2\csrc/u8x8_d_ssd1306_128x64_noname.c ****   // U8X8_C(0x0c0),				/* c0: scan dir normal, c8: reverse */
  60:..\u8g2\csrc/u8x8_d_ssd1306_128x64_noname.c ****   
  61:..\u8g2\csrc/u8x8_d_ssd1306_128x64_noname.c ****   U8X8_CA(0x0da, 0x012),		/* com pin HW config, sequential com pin config (bit 4), disable left/rig
  62:..\u8g2\csrc/u8x8_d_ssd1306_128x64_noname.c **** 
  63:..\u8g2\csrc/u8x8_d_ssd1306_128x64_noname.c ****   U8X8_CA(0x081, 0x0cf), 		/* [2] set contrast control */
  64:..\u8g2\csrc/u8x8_d_ssd1306_128x64_noname.c ****   U8X8_CA(0x0d9, 0x0f1), 		/* [2] pre-charge period 0x022/f1*/
  65:..\u8g2\csrc/u8x8_d_ssd1306_128x64_noname.c ****   U8X8_CA(0x0db, 0x040), 		/* vcomh deselect level */  
  66:..\u8g2\csrc/u8x8_d_ssd1306_128x64_noname.c ****   // if vcomh is 0, then this will give the biggest range for contrast control issue #98
  67:..\u8g2\csrc/u8x8_d_ssd1306_128x64_noname.c ****   // restored the old values for the noname constructor, because vcomh=0 will not work for all OLED
  68:..\u8g2\csrc/u8x8_d_ssd1306_128x64_noname.c ****   
  69:..\u8g2\csrc/u8x8_d_ssd1306_128x64_noname.c ****   U8X8_C(0x02e),				/* Deactivate scroll */ 
  70:..\u8g2\csrc/u8x8_d_ssd1306_128x64_noname.c ****   U8X8_C(0x0a4),				/* output ram to display */
  71:..\u8g2\csrc/u8x8_d_ssd1306_128x64_noname.c ****   U8X8_C(0x0a6),				/* none inverted normal display mode */
  72:..\u8g2\csrc/u8x8_d_ssd1306_128x64_noname.c ****     
  73:..\u8g2\csrc/u8x8_d_ssd1306_128x64_noname.c ****   U8X8_END_TRANSFER(),             	/* disable chip */
  74:..\u8g2\csrc/u8x8_d_ssd1306_128x64_noname.c ****   U8X8_END()             			/* end of sequence */
  75:..\u8g2\csrc/u8x8_d_ssd1306_128x64_noname.c **** };
  76:..\u8g2\csrc/u8x8_d_ssd1306_128x64_noname.c **** 
  77:..\u8g2\csrc/u8x8_d_ssd1306_128x64_noname.c **** /* this setup maximizes the brightness range, that can be set with setContrast() */
  78:..\u8g2\csrc/u8x8_d_ssd1306_128x64_noname.c **** /* Drawback: VCOMH deselect level is set to 0, which das not work so good with all OLEDs, issue #11
  79:..\u8g2\csrc/u8x8_d_ssd1306_128x64_noname.c **** static const uint8_t u8x8_d_ssd1306_128x64_vcomh0_init_seq[] = {
  80:..\u8g2\csrc/u8x8_d_ssd1306_128x64_noname.c ****     
  81:..\u8g2\csrc/u8x8_d_ssd1306_128x64_noname.c ****   U8X8_START_TRANSFER(),             	/* enable chip, delay is part of the transfer start */
  82:..\u8g2\csrc/u8x8_d_ssd1306_128x64_noname.c ****   
  83:..\u8g2\csrc/u8x8_d_ssd1306_128x64_noname.c ****   
  84:..\u8g2\csrc/u8x8_d_ssd1306_128x64_noname.c ****   U8X8_C(0x0ae),		                /* display off */
  85:..\u8g2\csrc/u8x8_d_ssd1306_128x64_noname.c ****   U8X8_CA(0x0d5, 0x080),		/* clock divide ratio (0x00=1) and oscillator frequency (0x8) */
  86:..\u8g2\csrc/u8x8_d_ssd1306_128x64_noname.c ****   U8X8_CA(0x0a8, 0x03f),		/* multiplex ratio */
  87:..\u8g2\csrc/u8x8_d_ssd1306_128x64_noname.c ****   U8X8_CA(0x0d3, 0x000),		/* display offset */
  88:..\u8g2\csrc/u8x8_d_ssd1306_128x64_noname.c ****   U8X8_C(0x040),		                /* set display start line to 0 */
ARM GAS  C:\Users\brian\AppData\Local\Temp\ccQkzULt.s 			page 3


  89:..\u8g2\csrc/u8x8_d_ssd1306_128x64_noname.c ****   U8X8_CA(0x08d, 0x014),		/* [2] charge pump setting (p62): 0x014 enable, 0x010 disable */
  90:..\u8g2\csrc/u8x8_d_ssd1306_128x64_noname.c ****   U8X8_CA(0x020, 0x000),		/* horizontal addressing mode */
  91:..\u8g2\csrc/u8x8_d_ssd1306_128x64_noname.c ****   
  92:..\u8g2\csrc/u8x8_d_ssd1306_128x64_noname.c ****   U8X8_C(0x0a1),				/* segment remap a0/a1*/
  93:..\u8g2\csrc/u8x8_d_ssd1306_128x64_noname.c ****   U8X8_C(0x0c8),				/* c0: scan dir normal, c8: reverse */
  94:..\u8g2\csrc/u8x8_d_ssd1306_128x64_noname.c ****   // Flipmode
  95:..\u8g2\csrc/u8x8_d_ssd1306_128x64_noname.c ****   // U8X8_C(0x0a0),				/* segment remap a0/a1*/
  96:..\u8g2\csrc/u8x8_d_ssd1306_128x64_noname.c ****   // U8X8_C(0x0c0),				/* c0: scan dir normal, c8: reverse */
  97:..\u8g2\csrc/u8x8_d_ssd1306_128x64_noname.c ****   
  98:..\u8g2\csrc/u8x8_d_ssd1306_128x64_noname.c ****   U8X8_CA(0x0da, 0x012),		/* com pin HW config, sequential com pin config (bit 4), disable left/rig
  99:..\u8g2\csrc/u8x8_d_ssd1306_128x64_noname.c ****   U8X8_CA(0x081, 0x0ef),		/* [2] set contrast control,  */
 100:..\u8g2\csrc/u8x8_d_ssd1306_128x64_noname.c ****   U8X8_CA(0x0d9, 0x0a1),		/* [2] pre-charge period 0x022/f1*/
 101:..\u8g2\csrc/u8x8_d_ssd1306_128x64_noname.c ****   U8X8_CA(0x0db, 0x000),		/* vcomh deselect level 0x000 .. 0x070, low nibble always 0 */
 102:..\u8g2\csrc/u8x8_d_ssd1306_128x64_noname.c ****   // if vcomh is 0, then this will give the biggest range for contrast control issue #98
 103:..\u8g2\csrc/u8x8_d_ssd1306_128x64_noname.c ****   
 104:..\u8g2\csrc/u8x8_d_ssd1306_128x64_noname.c ****   U8X8_C(0x02e),				/* Deactivate scroll */ 
 105:..\u8g2\csrc/u8x8_d_ssd1306_128x64_noname.c ****   U8X8_C(0x0a4),				/* output ram to display */
 106:..\u8g2\csrc/u8x8_d_ssd1306_128x64_noname.c ****   U8X8_C(0x0a6),				/* none inverted normal display mode */
 107:..\u8g2\csrc/u8x8_d_ssd1306_128x64_noname.c ****     
 108:..\u8g2\csrc/u8x8_d_ssd1306_128x64_noname.c ****   U8X8_END_TRANSFER(),             	/* disable chip */
 109:..\u8g2\csrc/u8x8_d_ssd1306_128x64_noname.c ****   U8X8_END()             			/* end of sequence */
 110:..\u8g2\csrc/u8x8_d_ssd1306_128x64_noname.c **** };
 111:..\u8g2\csrc/u8x8_d_ssd1306_128x64_noname.c **** 
 112:..\u8g2\csrc/u8x8_d_ssd1306_128x64_noname.c **** 
 113:..\u8g2\csrc/u8x8_d_ssd1306_128x64_noname.c **** /* same as u8x8_d_ssd1306_128x64_noname_init_seq, but 0x0da bit 4 is set to 0 */
 114:..\u8g2\csrc/u8x8_d_ssd1306_128x64_noname.c **** /* this will disable the alternative COM configuration */
 115:..\u8g2\csrc/u8x8_d_ssd1306_128x64_noname.c **** static const uint8_t u8x8_d_ssd1306_128x64_alt0_init_seq[] = {
 116:..\u8g2\csrc/u8x8_d_ssd1306_128x64_noname.c ****     
 117:..\u8g2\csrc/u8x8_d_ssd1306_128x64_noname.c ****   U8X8_START_TRANSFER(),             	/* enable chip, delay is part of the transfer start */
 118:..\u8g2\csrc/u8x8_d_ssd1306_128x64_noname.c ****   
 119:..\u8g2\csrc/u8x8_d_ssd1306_128x64_noname.c ****   
 120:..\u8g2\csrc/u8x8_d_ssd1306_128x64_noname.c ****   U8X8_C(0x0ae),		                /* display off */
 121:..\u8g2\csrc/u8x8_d_ssd1306_128x64_noname.c ****   U8X8_CA(0x0d5, 0x080),		/* clock divide ratio (0x00=1) and oscillator frequency (0x8) */
 122:..\u8g2\csrc/u8x8_d_ssd1306_128x64_noname.c ****   U8X8_CA(0x0a8, 0x03f),		/* multiplex ratio */
 123:..\u8g2\csrc/u8x8_d_ssd1306_128x64_noname.c ****   U8X8_CA(0x0d3, 0x000),		/* display offset */
 124:..\u8g2\csrc/u8x8_d_ssd1306_128x64_noname.c ****   U8X8_C(0x040),		                /* set display start line to 0 */
 125:..\u8g2\csrc/u8x8_d_ssd1306_128x64_noname.c ****   U8X8_CA(0x08d, 0x014),		/* [2] charge pump setting (p62): 0x014 enable, 0x010 disable, SSD1306 on
 126:..\u8g2\csrc/u8x8_d_ssd1306_128x64_noname.c ****   U8X8_CA(0x020, 0x000),		/* horizontal addressing mode */
 127:..\u8g2\csrc/u8x8_d_ssd1306_128x64_noname.c ****   
 128:..\u8g2\csrc/u8x8_d_ssd1306_128x64_noname.c ****   U8X8_C(0x0a1),				/* segment remap a0/a1*/
 129:..\u8g2\csrc/u8x8_d_ssd1306_128x64_noname.c ****   U8X8_C(0x0c8),				/* c0: scan dir normal, c8: reverse */
 130:..\u8g2\csrc/u8x8_d_ssd1306_128x64_noname.c ****   // Flipmode
 131:..\u8g2\csrc/u8x8_d_ssd1306_128x64_noname.c ****   // U8X8_C(0x0a0),				/* segment remap a0/a1*/
 132:..\u8g2\csrc/u8x8_d_ssd1306_128x64_noname.c ****   // U8X8_C(0x0c0),				/* c0: scan dir normal, c8: reverse */
 133:..\u8g2\csrc/u8x8_d_ssd1306_128x64_noname.c ****   
 134:..\u8g2\csrc/u8x8_d_ssd1306_128x64_noname.c ****   U8X8_CA(0x0da, 0x002),		/* com pin HW config, sequential com pin config (bit 4), disable left/rig
 135:..\u8g2\csrc/u8x8_d_ssd1306_128x64_noname.c **** 
 136:..\u8g2\csrc/u8x8_d_ssd1306_128x64_noname.c ****   U8X8_CA(0x081, 0x0cf), 		/* [2] set contrast control */
 137:..\u8g2\csrc/u8x8_d_ssd1306_128x64_noname.c ****   U8X8_CA(0x0d9, 0x0f1), 		/* [2] pre-charge period 0x022/f1*/
 138:..\u8g2\csrc/u8x8_d_ssd1306_128x64_noname.c ****   U8X8_CA(0x0db, 0x040), 		/* vcomh deselect level */  
 139:..\u8g2\csrc/u8x8_d_ssd1306_128x64_noname.c ****   // if vcomh is 0, then this will give the biggest range for contrast control issue #98
 140:..\u8g2\csrc/u8x8_d_ssd1306_128x64_noname.c ****   // restored the old values for the noname constructor, because vcomh=0 will not work for all OLED
 141:..\u8g2\csrc/u8x8_d_ssd1306_128x64_noname.c ****   
 142:..\u8g2\csrc/u8x8_d_ssd1306_128x64_noname.c ****   U8X8_C(0x02e),				/* Deactivate scroll */ 
 143:..\u8g2\csrc/u8x8_d_ssd1306_128x64_noname.c ****   U8X8_C(0x0a4),				/* output ram to display */
 144:..\u8g2\csrc/u8x8_d_ssd1306_128x64_noname.c ****   U8X8_C(0x0a6),				/* none inverted normal display mode */
 145:..\u8g2\csrc/u8x8_d_ssd1306_128x64_noname.c ****     
ARM GAS  C:\Users\brian\AppData\Local\Temp\ccQkzULt.s 			page 4


 146:..\u8g2\csrc/u8x8_d_ssd1306_128x64_noname.c ****   U8X8_END_TRANSFER(),             	/* disable chip */
 147:..\u8g2\csrc/u8x8_d_ssd1306_128x64_noname.c ****   U8X8_END()             			/* end of sequence */
 148:..\u8g2\csrc/u8x8_d_ssd1306_128x64_noname.c **** };
 149:..\u8g2\csrc/u8x8_d_ssd1306_128x64_noname.c **** 
 150:..\u8g2\csrc/u8x8_d_ssd1306_128x64_noname.c **** 
 151:..\u8g2\csrc/u8x8_d_ssd1306_128x64_noname.c **** 
 152:..\u8g2\csrc/u8x8_d_ssd1306_128x64_noname.c **** /* issue 316: a special sh1106 setup, https://www.mikrocontroller.net/topic/431371?goto=5087807#508
 153:..\u8g2\csrc/u8x8_d_ssd1306_128x64_noname.c **** static const uint8_t u8x8_d_sh1106_128x64_winstar_init_seq[] = {
 154:..\u8g2\csrc/u8x8_d_ssd1306_128x64_noname.c ****     
 155:..\u8g2\csrc/u8x8_d_ssd1306_128x64_noname.c ****   U8X8_START_TRANSFER(),             	/* enable chip, delay is part of the transfer start */
 156:..\u8g2\csrc/u8x8_d_ssd1306_128x64_noname.c ****   
 157:..\u8g2\csrc/u8x8_d_ssd1306_128x64_noname.c ****   U8X8_C(0xae),                 // Display OFF/ON: off (POR = 0xae)
 158:..\u8g2\csrc/u8x8_d_ssd1306_128x64_noname.c ****   U8X8_C(0xa4),                 // Set Entire Display OFF/ON: off (POR = 0xa4)
 159:..\u8g2\csrc/u8x8_d_ssd1306_128x64_noname.c ****   U8X8_CA(0xd5, 0x50),       // Divide Ratio/Oscillator FrequencyData Set: divide ratio = 1 (POR = 
 160:..\u8g2\csrc/u8x8_d_ssd1306_128x64_noname.c ****   U8X8_CA(0xa8, 0x3f),       // Multiplex Ratio Data Set: 64 (POR = 0x3f, 64)
 161:..\u8g2\csrc/u8x8_d_ssd1306_128x64_noname.c ****   U8X8_CA(0xd3, 0x00),       // Display OffsetData Set: 0 (POR = 0x00)
 162:..\u8g2\csrc/u8x8_d_ssd1306_128x64_noname.c ****   U8X8_C(0x40),                 // Set Display Start Line: 0  
 163:..\u8g2\csrc/u8x8_d_ssd1306_128x64_noname.c ****   U8X8_CA(0xad, 0x8b),       // DC-DC ON/OFF Mode Set: Built-in DC-DC is used, Normal Display (POR 
 164:..\u8g2\csrc/u8x8_d_ssd1306_128x64_noname.c ****   U8X8_CA(0xd9, 0x22),       // Dis-charge/Pre-charge PeriodData Set: pre-charge 2 DCLKs, dis-charg
 165:..\u8g2\csrc/u8x8_d_ssd1306_128x64_noname.c ****   U8X8_CA(0xdb, 0x35),       // VCOM Deselect LevelData Set: 0,770V (POR = 0x35, 0,770 V)
 166:..\u8g2\csrc/u8x8_d_ssd1306_128x64_noname.c ****   U8X8_C(0x32), // Set Pump voltage value: 8,0 V (POR = 0x32, 8,0 V)
 167:..\u8g2\csrc/u8x8_d_ssd1306_128x64_noname.c ****   U8X8_CA(0x81, 0xff),       // Contrast Data Register Set: 255 (large) (POR = 0x80)
 168:..\u8g2\csrc/u8x8_d_ssd1306_128x64_noname.c ****   U8X8_C(0x0a6),			// Set Normal/Reverse Display: normal (POR = 0xa6)
 169:..\u8g2\csrc/u8x8_d_ssd1306_128x64_noname.c ****   U8X8_CA(0x0da, 0x012),		// com pin HW config, sequential com pin config (bit 4), disable left/rig
 170:..\u8g2\csrc/u8x8_d_ssd1306_128x64_noname.c ****       
 171:..\u8g2\csrc/u8x8_d_ssd1306_128x64_noname.c ****   U8X8_END_TRANSFER(),             	/* disable chip */
 172:..\u8g2\csrc/u8x8_d_ssd1306_128x64_noname.c ****   U8X8_END()             			/* end of sequence */
 173:..\u8g2\csrc/u8x8_d_ssd1306_128x64_noname.c **** };
 174:..\u8g2\csrc/u8x8_d_ssd1306_128x64_noname.c **** 
 175:..\u8g2\csrc/u8x8_d_ssd1306_128x64_noname.c **** 
 176:..\u8g2\csrc/u8x8_d_ssd1306_128x64_noname.c **** static const uint8_t u8x8_d_ssd1306_128x64_noname_powersave0_seq[] = {
 177:..\u8g2\csrc/u8x8_d_ssd1306_128x64_noname.c ****   U8X8_START_TRANSFER(),             	/* enable chip, delay is part of the transfer start */
 178:..\u8g2\csrc/u8x8_d_ssd1306_128x64_noname.c ****   U8X8_C(0x0af),		                /* display on */
 179:..\u8g2\csrc/u8x8_d_ssd1306_128x64_noname.c ****   U8X8_END_TRANSFER(),             	/* disable chip */
 180:..\u8g2\csrc/u8x8_d_ssd1306_128x64_noname.c ****   U8X8_END()             			/* end of sequence */
 181:..\u8g2\csrc/u8x8_d_ssd1306_128x64_noname.c **** };
 182:..\u8g2\csrc/u8x8_d_ssd1306_128x64_noname.c **** 
 183:..\u8g2\csrc/u8x8_d_ssd1306_128x64_noname.c **** static const uint8_t u8x8_d_ssd1306_128x64_noname_powersave1_seq[] = {
 184:..\u8g2\csrc/u8x8_d_ssd1306_128x64_noname.c ****   U8X8_START_TRANSFER(),             	/* enable chip, delay is part of the transfer start */
 185:..\u8g2\csrc/u8x8_d_ssd1306_128x64_noname.c ****   U8X8_C(0x0ae),		                /* display off */
 186:..\u8g2\csrc/u8x8_d_ssd1306_128x64_noname.c ****   U8X8_END_TRANSFER(),             	/* disable chip */
 187:..\u8g2\csrc/u8x8_d_ssd1306_128x64_noname.c ****   U8X8_END()             			/* end of sequence */
 188:..\u8g2\csrc/u8x8_d_ssd1306_128x64_noname.c **** };
 189:..\u8g2\csrc/u8x8_d_ssd1306_128x64_noname.c **** 
 190:..\u8g2\csrc/u8x8_d_ssd1306_128x64_noname.c **** static const uint8_t u8x8_d_ssd1306_128x64_noname_flip0_seq[] = {
 191:..\u8g2\csrc/u8x8_d_ssd1306_128x64_noname.c ****   U8X8_START_TRANSFER(),             	/* enable chip, delay is part of the transfer start */
 192:..\u8g2\csrc/u8x8_d_ssd1306_128x64_noname.c ****   U8X8_C(0x0a1),				/* segment remap a0/a1*/
 193:..\u8g2\csrc/u8x8_d_ssd1306_128x64_noname.c ****   U8X8_C(0x0c8),				/* c0: scan dir normal, c8: reverse */
 194:..\u8g2\csrc/u8x8_d_ssd1306_128x64_noname.c ****   U8X8_END_TRANSFER(),             	/* disable chip */
 195:..\u8g2\csrc/u8x8_d_ssd1306_128x64_noname.c ****   U8X8_END()             			/* end of sequence */
 196:..\u8g2\csrc/u8x8_d_ssd1306_128x64_noname.c **** };
 197:..\u8g2\csrc/u8x8_d_ssd1306_128x64_noname.c **** 
 198:..\u8g2\csrc/u8x8_d_ssd1306_128x64_noname.c **** static const uint8_t u8x8_d_ssd1306_128x64_noname_flip1_seq[] = {
 199:..\u8g2\csrc/u8x8_d_ssd1306_128x64_noname.c ****   U8X8_START_TRANSFER(),             	/* enable chip, delay is part of the transfer start */
 200:..\u8g2\csrc/u8x8_d_ssd1306_128x64_noname.c ****   U8X8_C(0x0a0),				/* segment remap a0/a1*/
 201:..\u8g2\csrc/u8x8_d_ssd1306_128x64_noname.c ****   U8X8_C(0x0c0),				/* c0: scan dir normal, c8: reverse */
 202:..\u8g2\csrc/u8x8_d_ssd1306_128x64_noname.c ****   U8X8_END_TRANSFER(),             	/* disable chip */
ARM GAS  C:\Users\brian\AppData\Local\Temp\ccQkzULt.s 			page 5


 203:..\u8g2\csrc/u8x8_d_ssd1306_128x64_noname.c ****   U8X8_END()             			/* end of sequence */
 204:..\u8g2\csrc/u8x8_d_ssd1306_128x64_noname.c **** };
 205:..\u8g2\csrc/u8x8_d_ssd1306_128x64_noname.c **** 
 206:..\u8g2\csrc/u8x8_d_ssd1306_128x64_noname.c **** 
 207:..\u8g2\csrc/u8x8_d_ssd1306_128x64_noname.c **** static uint8_t u8x8_d_ssd1306_sh1106_generic(u8x8_t *u8x8, uint8_t msg, uint8_t arg_int, void *arg_
 208:..\u8g2\csrc/u8x8_d_ssd1306_128x64_noname.c **** {
  27              		.loc 1 208 0
  28              		.cfi_startproc
  29              		@ args = 0, pretend = 0, frame = 0
  30              		@ frame_needed = 0, uses_anonymous_args = 0
  31              	.LVL0:
  32 0000 F8B5     		push	{r3, r4, r5, r6, r7, lr}
  33              		.cfi_def_cfa_offset 24
  34              		.cfi_offset 3, -24
  35              		.cfi_offset 4, -20
  36              		.cfi_offset 5, -16
  37              		.cfi_offset 6, -12
  38              		.cfi_offset 7, -8
  39              		.cfi_offset 14, -4
  40 0002 0546     		mov	r5, r0
  41 0004 1446     		mov	r4, r2
  42 0006 1E46     		mov	r6, r3
 209:..\u8g2\csrc/u8x8_d_ssd1306_128x64_noname.c ****   uint8_t x, c;
 210:..\u8g2\csrc/u8x8_d_ssd1306_128x64_noname.c ****   uint8_t *ptr;
 211:..\u8g2\csrc/u8x8_d_ssd1306_128x64_noname.c ****   switch(msg)
  43              		.loc 1 211 0
  44 0008 0B39     		subs	r1, r1, #11
  45              	.LVL1:
  46 000a 0429     		cmp	r1, #4
  47 000c 60D8     		bhi	.L11
  48 000e DFE801F0 		tbb	[pc, r1]
  49              	.LVL2:
  50              	.L4:
  51 0012 03       		.byte	(.L3-.L4)/2
  52 0013 5F       		.byte	(.L11-.L4)/2
  53 0014 0E       		.byte	(.L5-.L4)/2
  54 0015 21       		.byte	(.L6-.L4)/2
  55 0016 30       		.byte	(.L7-.L4)/2
  56 0017 00       		.p2align 1
  57              	.L3:
 212:..\u8g2\csrc/u8x8_d_ssd1306_128x64_noname.c ****   {
 213:..\u8g2\csrc/u8x8_d_ssd1306_128x64_noname.c ****     /* handled by the calling function
 214:..\u8g2\csrc/u8x8_d_ssd1306_128x64_noname.c ****     case U8X8_MSG_DISPLAY_SETUP_MEMORY:
 215:..\u8g2\csrc/u8x8_d_ssd1306_128x64_noname.c ****       u8x8_d_helper_display_setup_memory(u8x8, &u8x8_ssd1306_128x64_noname_display_info);
 216:..\u8g2\csrc/u8x8_d_ssd1306_128x64_noname.c ****       break;
 217:..\u8g2\csrc/u8x8_d_ssd1306_128x64_noname.c ****     */
 218:..\u8g2\csrc/u8x8_d_ssd1306_128x64_noname.c ****     /* handled by the calling function
 219:..\u8g2\csrc/u8x8_d_ssd1306_128x64_noname.c ****     case U8X8_MSG_DISPLAY_INIT:
 220:..\u8g2\csrc/u8x8_d_ssd1306_128x64_noname.c ****       u8x8_d_helper_display_init(u8x8);
 221:..\u8g2\csrc/u8x8_d_ssd1306_128x64_noname.c ****       u8x8_cad_SendSequence(u8x8, u8x8_d_ssd1306_128x64_noname_init_seq);    
 222:..\u8g2\csrc/u8x8_d_ssd1306_128x64_noname.c ****       break;
 223:..\u8g2\csrc/u8x8_d_ssd1306_128x64_noname.c ****     */
 224:..\u8g2\csrc/u8x8_d_ssd1306_128x64_noname.c ****     case U8X8_MSG_DISPLAY_SET_POWER_SAVE:
 225:..\u8g2\csrc/u8x8_d_ssd1306_128x64_noname.c ****       if ( arg_int == 0 )
  58              		.loc 1 225 0
  59 0018 22B9     		cbnz	r2, .L8
 226:..\u8g2\csrc/u8x8_d_ssd1306_128x64_noname.c **** 	u8x8_cad_SendSequence(u8x8, u8x8_d_ssd1306_128x64_noname_powersave0_seq);
ARM GAS  C:\Users\brian\AppData\Local\Temp\ccQkzULt.s 			page 6


  60              		.loc 1 226 0
  61 001a 2E49     		ldr	r1, .L13
  62 001c FFF7FEFF 		bl	u8x8_cad_SendSequence
  63              	.LVL3:
 227:..\u8g2\csrc/u8x8_d_ssd1306_128x64_noname.c ****       else
 228:..\u8g2\csrc/u8x8_d_ssd1306_128x64_noname.c **** 	u8x8_cad_SendSequence(u8x8, u8x8_d_ssd1306_128x64_noname_powersave1_seq);
 229:..\u8g2\csrc/u8x8_d_ssd1306_128x64_noname.c ****       break;
 230:..\u8g2\csrc/u8x8_d_ssd1306_128x64_noname.c ****     case U8X8_MSG_DISPLAY_SET_FLIP_MODE:
 231:..\u8g2\csrc/u8x8_d_ssd1306_128x64_noname.c ****       if ( arg_int == 0 )
 232:..\u8g2\csrc/u8x8_d_ssd1306_128x64_noname.c ****       {
 233:..\u8g2\csrc/u8x8_d_ssd1306_128x64_noname.c **** 	u8x8_cad_SendSequence(u8x8, u8x8_d_ssd1306_128x64_noname_flip0_seq);
 234:..\u8g2\csrc/u8x8_d_ssd1306_128x64_noname.c **** 	u8x8->x_offset = u8x8->display_info->default_x_offset;
 235:..\u8g2\csrc/u8x8_d_ssd1306_128x64_noname.c ****       }
 236:..\u8g2\csrc/u8x8_d_ssd1306_128x64_noname.c ****       else
 237:..\u8g2\csrc/u8x8_d_ssd1306_128x64_noname.c ****       {
 238:..\u8g2\csrc/u8x8_d_ssd1306_128x64_noname.c **** 	u8x8_cad_SendSequence(u8x8, u8x8_d_ssd1306_128x64_noname_flip1_seq);
 239:..\u8g2\csrc/u8x8_d_ssd1306_128x64_noname.c **** 	u8x8->x_offset = u8x8->display_info->flipmode_x_offset;
 240:..\u8g2\csrc/u8x8_d_ssd1306_128x64_noname.c ****       }
 241:..\u8g2\csrc/u8x8_d_ssd1306_128x64_noname.c ****       break;
 242:..\u8g2\csrc/u8x8_d_ssd1306_128x64_noname.c **** #ifdef U8X8_WITH_SET_CONTRAST
 243:..\u8g2\csrc/u8x8_d_ssd1306_128x64_noname.c ****     case U8X8_MSG_DISPLAY_SET_CONTRAST:
 244:..\u8g2\csrc/u8x8_d_ssd1306_128x64_noname.c ****       u8x8_cad_StartTransfer(u8x8);
 245:..\u8g2\csrc/u8x8_d_ssd1306_128x64_noname.c ****       u8x8_cad_SendCmd(u8x8, 0x081 );
 246:..\u8g2\csrc/u8x8_d_ssd1306_128x64_noname.c ****       u8x8_cad_SendArg(u8x8, arg_int );	/* ssd1306 has range from 0 to 255 */
 247:..\u8g2\csrc/u8x8_d_ssd1306_128x64_noname.c ****       u8x8_cad_EndTransfer(u8x8);
 248:..\u8g2\csrc/u8x8_d_ssd1306_128x64_noname.c ****       break;
 249:..\u8g2\csrc/u8x8_d_ssd1306_128x64_noname.c **** #endif
 250:..\u8g2\csrc/u8x8_d_ssd1306_128x64_noname.c ****     case U8X8_MSG_DISPLAY_DRAW_TILE:
 251:..\u8g2\csrc/u8x8_d_ssd1306_128x64_noname.c ****       u8x8_cad_StartTransfer(u8x8);
 252:..\u8g2\csrc/u8x8_d_ssd1306_128x64_noname.c ****       x = ((u8x8_tile_t *)arg_ptr)->x_pos;    
 253:..\u8g2\csrc/u8x8_d_ssd1306_128x64_noname.c ****       x *= 8;
 254:..\u8g2\csrc/u8x8_d_ssd1306_128x64_noname.c ****       x += u8x8->x_offset;
 255:..\u8g2\csrc/u8x8_d_ssd1306_128x64_noname.c ****     
 256:..\u8g2\csrc/u8x8_d_ssd1306_128x64_noname.c ****       u8x8_cad_SendCmd(u8x8, 0x040 );	/* set line offset to 0 */
 257:..\u8g2\csrc/u8x8_d_ssd1306_128x64_noname.c ****     
 258:..\u8g2\csrc/u8x8_d_ssd1306_128x64_noname.c ****       u8x8_cad_SendCmd(u8x8, 0x010 | (x>>4) );
 259:..\u8g2\csrc/u8x8_d_ssd1306_128x64_noname.c ****       u8x8_cad_SendArg(u8x8, 0x000 | ((x&15)));					/* probably wrong, should be SendCmd */
 260:..\u8g2\csrc/u8x8_d_ssd1306_128x64_noname.c ****       u8x8_cad_SendArg(u8x8, 0x0b0 | (((u8x8_tile_t *)arg_ptr)->y_pos));	/* probably wrong, should 
 261:..\u8g2\csrc/u8x8_d_ssd1306_128x64_noname.c **** 
 262:..\u8g2\csrc/u8x8_d_ssd1306_128x64_noname.c ****     
 263:..\u8g2\csrc/u8x8_d_ssd1306_128x64_noname.c ****       do
 264:..\u8g2\csrc/u8x8_d_ssd1306_128x64_noname.c ****       {
 265:..\u8g2\csrc/u8x8_d_ssd1306_128x64_noname.c **** 	c = ((u8x8_tile_t *)arg_ptr)->cnt;
 266:..\u8g2\csrc/u8x8_d_ssd1306_128x64_noname.c **** 	ptr = ((u8x8_tile_t *)arg_ptr)->tile_ptr;
 267:..\u8g2\csrc/u8x8_d_ssd1306_128x64_noname.c **** 	u8x8_cad_SendData(u8x8, c*8, ptr); 	/* note: SendData can not handle more than 255 bytes */
 268:..\u8g2\csrc/u8x8_d_ssd1306_128x64_noname.c **** 	/*
 269:..\u8g2\csrc/u8x8_d_ssd1306_128x64_noname.c **** 	do
 270:..\u8g2\csrc/u8x8_d_ssd1306_128x64_noname.c **** 	{
 271:..\u8g2\csrc/u8x8_d_ssd1306_128x64_noname.c **** 	  u8x8_cad_SendData(u8x8, 8, ptr);
 272:..\u8g2\csrc/u8x8_d_ssd1306_128x64_noname.c **** 	  ptr += 8;
 273:..\u8g2\csrc/u8x8_d_ssd1306_128x64_noname.c **** 	  c--;
 274:..\u8g2\csrc/u8x8_d_ssd1306_128x64_noname.c **** 	} while( c > 0 );
 275:..\u8g2\csrc/u8x8_d_ssd1306_128x64_noname.c **** 	*/
 276:..\u8g2\csrc/u8x8_d_ssd1306_128x64_noname.c **** 	arg_int--;
 277:..\u8g2\csrc/u8x8_d_ssd1306_128x64_noname.c ****       } while( arg_int > 0 );
 278:..\u8g2\csrc/u8x8_d_ssd1306_128x64_noname.c ****       
 279:..\u8g2\csrc/u8x8_d_ssd1306_128x64_noname.c ****       u8x8_cad_EndTransfer(u8x8);
ARM GAS  C:\Users\brian\AppData\Local\Temp\ccQkzULt.s 			page 7


 280:..\u8g2\csrc/u8x8_d_ssd1306_128x64_noname.c ****       break;
 281:..\u8g2\csrc/u8x8_d_ssd1306_128x64_noname.c ****     default:
 282:..\u8g2\csrc/u8x8_d_ssd1306_128x64_noname.c ****       return 0;
 283:..\u8g2\csrc/u8x8_d_ssd1306_128x64_noname.c ****   }
 284:..\u8g2\csrc/u8x8_d_ssd1306_128x64_noname.c ****   return 1;
  64              		.loc 1 284 0
  65 0020 0120     		movs	r0, #1
  66 0022 F8BD     		pop	{r3, r4, r5, r6, r7, pc}
  67              	.LVL4:
  68              	.L8:
 228:..\u8g2\csrc/u8x8_d_ssd1306_128x64_noname.c ****       break;
  69              		.loc 1 228 0
  70 0024 2C49     		ldr	r1, .L13+4
  71 0026 FFF7FEFF 		bl	u8x8_cad_SendSequence
  72              	.LVL5:
  73              		.loc 1 284 0
  74 002a 0120     		movs	r0, #1
  75 002c F8BD     		pop	{r3, r4, r5, r6, r7, pc}
  76              	.LVL6:
  77              	.L5:
 231:..\u8g2\csrc/u8x8_d_ssd1306_128x64_noname.c ****       {
  78              		.loc 1 231 0
  79 002e 42B9     		cbnz	r2, .L9
 233:..\u8g2\csrc/u8x8_d_ssd1306_128x64_noname.c **** 	u8x8->x_offset = u8x8->display_info->default_x_offset;
  80              		.loc 1 233 0
  81 0030 2A49     		ldr	r1, .L13+8
  82 0032 FFF7FEFF 		bl	u8x8_cad_SendSequence
  83              	.LVL7:
 234:..\u8g2\csrc/u8x8_d_ssd1306_128x64_noname.c ****       }
  84              		.loc 1 234 0
  85 0036 2B68     		ldr	r3, [r5]
  86 0038 9B7C     		ldrb	r3, [r3, #18]	@ zero_extendqisi2
  87 003a 85F82230 		strb	r3, [r5, #34]
  88              		.loc 1 284 0
  89 003e 0120     		movs	r0, #1
  90 0040 F8BD     		pop	{r3, r4, r5, r6, r7, pc}
  91              	.LVL8:
  92              	.L9:
 238:..\u8g2\csrc/u8x8_d_ssd1306_128x64_noname.c **** 	u8x8->x_offset = u8x8->display_info->flipmode_x_offset;
  93              		.loc 1 238 0
  94 0042 2749     		ldr	r1, .L13+12
  95 0044 FFF7FEFF 		bl	u8x8_cad_SendSequence
  96              	.LVL9:
 239:..\u8g2\csrc/u8x8_d_ssd1306_128x64_noname.c ****       }
  97              		.loc 1 239 0
  98 0048 2B68     		ldr	r3, [r5]
  99 004a DB7C     		ldrb	r3, [r3, #19]	@ zero_extendqisi2
 100 004c 85F82230 		strb	r3, [r5, #34]
 101              		.loc 1 284 0
 102 0050 0120     		movs	r0, #1
 103 0052 F8BD     		pop	{r3, r4, r5, r6, r7, pc}
 104              	.LVL10:
 105              	.L6:
 244:..\u8g2\csrc/u8x8_d_ssd1306_128x64_noname.c ****       u8x8_cad_SendCmd(u8x8, 0x081 );
 106              		.loc 1 244 0
 107 0054 FFF7FEFF 		bl	u8x8_cad_StartTransfer
 108              	.LVL11:
ARM GAS  C:\Users\brian\AppData\Local\Temp\ccQkzULt.s 			page 8


 245:..\u8g2\csrc/u8x8_d_ssd1306_128x64_noname.c ****       u8x8_cad_SendArg(u8x8, arg_int );	/* ssd1306 has range from 0 to 255 */
 109              		.loc 1 245 0
 110 0058 8121     		movs	r1, #129
 111 005a 2846     		mov	r0, r5
 112 005c FFF7FEFF 		bl	u8x8_cad_SendCmd
 113              	.LVL12:
 246:..\u8g2\csrc/u8x8_d_ssd1306_128x64_noname.c ****       u8x8_cad_EndTransfer(u8x8);
 114              		.loc 1 246 0
 115 0060 2146     		mov	r1, r4
 116 0062 2846     		mov	r0, r5
 117 0064 FFF7FEFF 		bl	u8x8_cad_SendArg
 118              	.LVL13:
 247:..\u8g2\csrc/u8x8_d_ssd1306_128x64_noname.c ****       break;
 119              		.loc 1 247 0
 120 0068 2846     		mov	r0, r5
 121 006a FFF7FEFF 		bl	u8x8_cad_EndTransfer
 122              	.LVL14:
 123              		.loc 1 284 0
 124 006e 0120     		movs	r0, #1
 248:..\u8g2\csrc/u8x8_d_ssd1306_128x64_noname.c **** #endif
 125              		.loc 1 248 0
 126 0070 F8BD     		pop	{r3, r4, r5, r6, r7, pc}
 127              	.LVL15:
 128              	.L7:
 251:..\u8g2\csrc/u8x8_d_ssd1306_128x64_noname.c ****       x = ((u8x8_tile_t *)arg_ptr)->x_pos;    
 129              		.loc 1 251 0
 130 0072 FFF7FEFF 		bl	u8x8_cad_StartTransfer
 131              	.LVL16:
 252:..\u8g2\csrc/u8x8_d_ssd1306_128x64_noname.c ****       x *= 8;
 132              		.loc 1 252 0
 133 0076 7779     		ldrb	r7, [r6, #5]	@ zero_extendqisi2
 134              	.LVL17:
 253:..\u8g2\csrc/u8x8_d_ssd1306_128x64_noname.c ****       x += u8x8->x_offset;
 135              		.loc 1 253 0
 136 0078 FF00     		lsls	r7, r7, #3
 137              	.LVL18:
 138 007a FFB2     		uxtb	r7, r7
 139              	.LVL19:
 254:..\u8g2\csrc/u8x8_d_ssd1306_128x64_noname.c ****     
 140              		.loc 1 254 0
 141 007c 95F82230 		ldrb	r3, [r5, #34]	@ zero_extendqisi2
 142 0080 1F44     		add	r7, r7, r3
 143              	.LVL20:
 144 0082 FFB2     		uxtb	r7, r7
 145              	.LVL21:
 256:..\u8g2\csrc/u8x8_d_ssd1306_128x64_noname.c ****     
 146              		.loc 1 256 0
 147 0084 4021     		movs	r1, #64
 148 0086 2846     		mov	r0, r5
 149 0088 FFF7FEFF 		bl	u8x8_cad_SendCmd
 150              	.LVL22:
 258:..\u8g2\csrc/u8x8_d_ssd1306_128x64_noname.c ****       u8x8_cad_SendArg(u8x8, 0x000 | ((x&15)));					/* probably wrong, should be SendCmd */
 151              		.loc 1 258 0
 152 008c 3909     		lsrs	r1, r7, #4
 153 008e 41F01001 		orr	r1, r1, #16
 154 0092 2846     		mov	r0, r5
 155 0094 FFF7FEFF 		bl	u8x8_cad_SendCmd
ARM GAS  C:\Users\brian\AppData\Local\Temp\ccQkzULt.s 			page 9


 156              	.LVL23:
 259:..\u8g2\csrc/u8x8_d_ssd1306_128x64_noname.c ****       u8x8_cad_SendArg(u8x8, 0x0b0 | (((u8x8_tile_t *)arg_ptr)->y_pos));	/* probably wrong, should 
 157              		.loc 1 259 0
 158 0098 07F00F01 		and	r1, r7, #15
 159 009c 2846     		mov	r0, r5
 160 009e FFF7FEFF 		bl	u8x8_cad_SendArg
 161              	.LVL24:
 260:..\u8g2\csrc/u8x8_d_ssd1306_128x64_noname.c **** 
 162              		.loc 1 260 0
 163 00a2 B179     		ldrb	r1, [r6, #6]	@ zero_extendqisi2
 164 00a4 41F0B001 		orr	r1, r1, #176
 165 00a8 2846     		mov	r0, r5
 166 00aa FFF7FEFF 		bl	u8x8_cad_SendArg
 167              	.LVL25:
 168              	.L10:
 265:..\u8g2\csrc/u8x8_d_ssd1306_128x64_noname.c **** 	ptr = ((u8x8_tile_t *)arg_ptr)->tile_ptr;
 169              		.loc 1 265 0 discriminator 1
 170 00ae 3179     		ldrb	r1, [r6, #4]	@ zero_extendqisi2
 171              	.LVL26:
 267:..\u8g2\csrc/u8x8_d_ssd1306_128x64_noname.c **** 	/*
 172              		.loc 1 267 0 discriminator 1
 173 00b0 C900     		lsls	r1, r1, #3
 174              	.LVL27:
 175 00b2 3268     		ldr	r2, [r6]
 176 00b4 01F0F801 		and	r1, r1, #248
 177 00b8 2846     		mov	r0, r5
 178 00ba FFF7FEFF 		bl	u8x8_cad_SendData
 179              	.LVL28:
 276:..\u8g2\csrc/u8x8_d_ssd1306_128x64_noname.c ****       } while( arg_int > 0 );
 180              		.loc 1 276 0 discriminator 1
 181 00be 621E     		subs	r2, r4, #1
 182              	.LVL29:
 277:..\u8g2\csrc/u8x8_d_ssd1306_128x64_noname.c ****       
 183              		.loc 1 277 0 discriminator 1
 184 00c0 12F0FF04 		ands	r4, r2, #255
 185 00c4 F3D1     		bne	.L10
 279:..\u8g2\csrc/u8x8_d_ssd1306_128x64_noname.c ****       break;
 186              		.loc 1 279 0
 187 00c6 2846     		mov	r0, r5
 188 00c8 FFF7FEFF 		bl	u8x8_cad_EndTransfer
 189              	.LVL30:
 190              		.loc 1 284 0
 191 00cc 0120     		movs	r0, #1
 280:..\u8g2\csrc/u8x8_d_ssd1306_128x64_noname.c ****     default:
 192              		.loc 1 280 0
 193 00ce F8BD     		pop	{r3, r4, r5, r6, r7, pc}
 194              	.LVL31:
 195              	.L11:
 282:..\u8g2\csrc/u8x8_d_ssd1306_128x64_noname.c ****   }
 196              		.loc 1 282 0
 197 00d0 0020     		movs	r0, #0
 198              	.LVL32:
 285:..\u8g2\csrc/u8x8_d_ssd1306_128x64_noname.c **** }
 199              		.loc 1 285 0
 200 00d2 F8BD     		pop	{r3, r4, r5, r6, r7, pc}
 201              	.LVL33:
 202              	.L14:
ARM GAS  C:\Users\brian\AppData\Local\Temp\ccQkzULt.s 			page 10


 203              		.align	2
 204              	.L13:
 205 00d4 00000000 		.word	.LANCHOR0
 206 00d8 08000000 		.word	.LANCHOR0+8
 207 00dc 10000000 		.word	.LANCHOR0+16
 208 00e0 18000000 		.word	.LANCHOR0+24
 209              		.cfi_endproc
 210              	.LFE0:
 211              		.size	u8x8_d_ssd1306_sh1106_generic, .-u8x8_d_ssd1306_sh1106_generic
 212              		.section	.text.u8x8_d_ssd1306_128x64_noname,"ax",%progbits
 213              		.align	2
 214              		.global	u8x8_d_ssd1306_128x64_noname
 215              		.thumb
 216              		.thumb_func
 217              		.type	u8x8_d_ssd1306_128x64_noname, %function
 218              	u8x8_d_ssd1306_128x64_noname:
 219              	.LFB1:
 286:..\u8g2\csrc/u8x8_d_ssd1306_128x64_noname.c **** 
 287:..\u8g2\csrc/u8x8_d_ssd1306_128x64_noname.c **** 
 288:..\u8g2\csrc/u8x8_d_ssd1306_128x64_noname.c **** static const u8x8_display_info_t u8x8_ssd1306_128x64_noname_display_info =
 289:..\u8g2\csrc/u8x8_d_ssd1306_128x64_noname.c **** {
 290:..\u8g2\csrc/u8x8_d_ssd1306_128x64_noname.c ****   /* chip_enable_level = */ 0,
 291:..\u8g2\csrc/u8x8_d_ssd1306_128x64_noname.c ****   /* chip_disable_level = */ 1,
 292:..\u8g2\csrc/u8x8_d_ssd1306_128x64_noname.c ****   
 293:..\u8g2\csrc/u8x8_d_ssd1306_128x64_noname.c ****   /* post_chip_enable_wait_ns = */ 20,
 294:..\u8g2\csrc/u8x8_d_ssd1306_128x64_noname.c ****   /* pre_chip_disable_wait_ns = */ 10,
 295:..\u8g2\csrc/u8x8_d_ssd1306_128x64_noname.c ****   /* reset_pulse_width_ms = */ 100, 	/* SSD1306: 3 us */
 296:..\u8g2\csrc/u8x8_d_ssd1306_128x64_noname.c ****   /* post_reset_wait_ms = */ 100, /* far east OLEDs need much longer setup time */
 297:..\u8g2\csrc/u8x8_d_ssd1306_128x64_noname.c ****   /* sda_setup_time_ns = */ 50,		/* SSD1306: 15ns, but cycle time is 100ns, so use 100/2 */
 298:..\u8g2\csrc/u8x8_d_ssd1306_128x64_noname.c ****   /* sck_pulse_width_ns = */ 50,	/* SSD1306: 20ns, but cycle time is 100ns, so use 100/2, AVR: belo
 299:..\u8g2\csrc/u8x8_d_ssd1306_128x64_noname.c ****   /* sck_clock_hz = */ 8000000UL,	/* since Arduino 1.6.0, the SPI bus speed in Hz. Should be  10000
 300:..\u8g2\csrc/u8x8_d_ssd1306_128x64_noname.c ****   /* spi_mode = */ 0,		/* active high, rising edge */
 301:..\u8g2\csrc/u8x8_d_ssd1306_128x64_noname.c ****   /* i2c_bus_clock_100kHz = */ 4,
 302:..\u8g2\csrc/u8x8_d_ssd1306_128x64_noname.c ****   /* data_setup_time_ns = */ 40,
 303:..\u8g2\csrc/u8x8_d_ssd1306_128x64_noname.c ****   /* write_pulse_width_ns = */ 150,	/* SSD1306: cycle time is 300ns, so use 300/2 = 150 */
 304:..\u8g2\csrc/u8x8_d_ssd1306_128x64_noname.c ****   /* tile_width = */ 16,
 305:..\u8g2\csrc/u8x8_d_ssd1306_128x64_noname.c ****   /* tile_hight = */ 8,
 306:..\u8g2\csrc/u8x8_d_ssd1306_128x64_noname.c ****   /* default_x_offset = */ 0,
 307:..\u8g2\csrc/u8x8_d_ssd1306_128x64_noname.c ****   /* flipmode_x_offset = */ 0,
 308:..\u8g2\csrc/u8x8_d_ssd1306_128x64_noname.c ****   /* pixel_width = */ 128,
 309:..\u8g2\csrc/u8x8_d_ssd1306_128x64_noname.c ****   /* pixel_height = */ 64
 310:..\u8g2\csrc/u8x8_d_ssd1306_128x64_noname.c **** };
 311:..\u8g2\csrc/u8x8_d_ssd1306_128x64_noname.c **** 
 312:..\u8g2\csrc/u8x8_d_ssd1306_128x64_noname.c **** uint8_t u8x8_d_ssd1306_128x64_noname(u8x8_t *u8x8, uint8_t msg, uint8_t arg_int, void *arg_ptr)
 313:..\u8g2\csrc/u8x8_d_ssd1306_128x64_noname.c **** {
 220              		.loc 1 313 0
 221              		.cfi_startproc
 222              		@ args = 0, pretend = 0, frame = 0
 223              		@ frame_needed = 0, uses_anonymous_args = 0
 224              	.LVL34:
 225 0000 38B5     		push	{r3, r4, r5, lr}
 226              		.cfi_def_cfa_offset 16
 227              		.cfi_offset 3, -16
 228              		.cfi_offset 4, -12
 229              		.cfi_offset 5, -8
 230              		.cfi_offset 14, -4
 231 0002 0546     		mov	r5, r0
ARM GAS  C:\Users\brian\AppData\Local\Temp\ccQkzULt.s 			page 11


 232 0004 0C46     		mov	r4, r1
 314:..\u8g2\csrc/u8x8_d_ssd1306_128x64_noname.c ****     
 315:..\u8g2\csrc/u8x8_d_ssd1306_128x64_noname.c ****   if ( u8x8_d_ssd1306_sh1106_generic(u8x8, msg, arg_int, arg_ptr) != 0 )
 233              		.loc 1 315 0
 234 0006 FFF7FEFF 		bl	u8x8_d_ssd1306_sh1106_generic
 235              	.LVL35:
 236 000a 98B9     		cbnz	r0, .L19
 237 000c 0346     		mov	r3, r0
 316:..\u8g2\csrc/u8x8_d_ssd1306_128x64_noname.c ****     return 1;
 317:..\u8g2\csrc/u8x8_d_ssd1306_128x64_noname.c ****   
 318:..\u8g2\csrc/u8x8_d_ssd1306_128x64_noname.c ****   switch(msg)
 238              		.loc 1 318 0
 239 000e 092C     		cmp	r4, #9
 240 0010 0AD0     		beq	.L17
 241 0012 0A2C     		cmp	r4, #10
 242 0014 0FD1     		bne	.L16
 319:..\u8g2\csrc/u8x8_d_ssd1306_128x64_noname.c ****   {
 320:..\u8g2\csrc/u8x8_d_ssd1306_128x64_noname.c ****     case U8X8_MSG_DISPLAY_INIT:
 321:..\u8g2\csrc/u8x8_d_ssd1306_128x64_noname.c ****       u8x8_d_helper_display_init(u8x8);
 243              		.loc 1 321 0
 244 0016 2846     		mov	r0, r5
 245 0018 FFF7FEFF 		bl	u8x8_d_helper_display_init
 246              	.LVL36:
 322:..\u8g2\csrc/u8x8_d_ssd1306_128x64_noname.c ****       u8x8_cad_SendSequence(u8x8, u8x8_d_ssd1306_128x64_noname_init_seq);    
 247              		.loc 1 322 0
 248 001c 0749     		ldr	r1, .L21
 249 001e 2846     		mov	r0, r5
 250 0020 FFF7FEFF 		bl	u8x8_cad_SendSequence
 251              	.LVL37:
 323:..\u8g2\csrc/u8x8_d_ssd1306_128x64_noname.c ****       break;
 324:..\u8g2\csrc/u8x8_d_ssd1306_128x64_noname.c ****     case U8X8_MSG_DISPLAY_SETUP_MEMORY:
 325:..\u8g2\csrc/u8x8_d_ssd1306_128x64_noname.c ****       u8x8_d_helper_display_setup_memory(u8x8, &u8x8_ssd1306_128x64_noname_display_info);
 326:..\u8g2\csrc/u8x8_d_ssd1306_128x64_noname.c ****       break;
 327:..\u8g2\csrc/u8x8_d_ssd1306_128x64_noname.c ****     default:
 328:..\u8g2\csrc/u8x8_d_ssd1306_128x64_noname.c ****       return 0;
 329:..\u8g2\csrc/u8x8_d_ssd1306_128x64_noname.c ****   }
 330:..\u8g2\csrc/u8x8_d_ssd1306_128x64_noname.c ****   return 1;
 252              		.loc 1 330 0
 253 0024 0123     		movs	r3, #1
 323:..\u8g2\csrc/u8x8_d_ssd1306_128x64_noname.c ****       break;
 254              		.loc 1 323 0
 255 0026 06E0     		b	.L16
 256              	.L17:
 325:..\u8g2\csrc/u8x8_d_ssd1306_128x64_noname.c ****       break;
 257              		.loc 1 325 0
 258 0028 0549     		ldr	r1, .L21+4
 259 002a 2846     		mov	r0, r5
 260 002c FFF7FEFF 		bl	u8x8_d_helper_display_setup_memory
 261              	.LVL38:
 262              		.loc 1 330 0
 263 0030 0123     		movs	r3, #1
 326:..\u8g2\csrc/u8x8_d_ssd1306_128x64_noname.c ****     default:
 264              		.loc 1 326 0
 265 0032 00E0     		b	.L16
 266              	.L19:
 316:..\u8g2\csrc/u8x8_d_ssd1306_128x64_noname.c ****   
 267              		.loc 1 316 0
ARM GAS  C:\Users\brian\AppData\Local\Temp\ccQkzULt.s 			page 12


 268 0034 0123     		movs	r3, #1
 269              	.L16:
 331:..\u8g2\csrc/u8x8_d_ssd1306_128x64_noname.c **** }
 270              		.loc 1 331 0
 271 0036 1846     		mov	r0, r3
 272 0038 38BD     		pop	{r3, r4, r5, pc}
 273              	.LVL39:
 274              	.L22:
 275 003a 00BF     		.align	2
 276              	.L21:
 277 003c 20000000 		.word	.LANCHOR0+32
 278 0040 58000000 		.word	.LANCHOR0+88
 279              		.cfi_endproc
 280              	.LFE1:
 281              		.size	u8x8_d_ssd1306_128x64_noname, .-u8x8_d_ssd1306_128x64_noname
 282              		.section	.text.u8x8_d_ssd1306_128x64_vcomh0,"ax",%progbits
 283              		.align	2
 284              		.global	u8x8_d_ssd1306_128x64_vcomh0
 285              		.thumb
 286              		.thumb_func
 287              		.type	u8x8_d_ssd1306_128x64_vcomh0, %function
 288              	u8x8_d_ssd1306_128x64_vcomh0:
 289              	.LFB2:
 332:..\u8g2\csrc/u8x8_d_ssd1306_128x64_noname.c **** 
 333:..\u8g2\csrc/u8x8_d_ssd1306_128x64_noname.c **** uint8_t u8x8_d_ssd1306_128x64_vcomh0(u8x8_t *u8x8, uint8_t msg, uint8_t arg_int, void *arg_ptr)
 334:..\u8g2\csrc/u8x8_d_ssd1306_128x64_noname.c **** {
 290              		.loc 1 334 0
 291              		.cfi_startproc
 292              		@ args = 0, pretend = 0, frame = 0
 293              		@ frame_needed = 0, uses_anonymous_args = 0
 294              	.LVL40:
 295 0000 38B5     		push	{r3, r4, r5, lr}
 296              		.cfi_def_cfa_offset 16
 297              		.cfi_offset 3, -16
 298              		.cfi_offset 4, -12
 299              		.cfi_offset 5, -8
 300              		.cfi_offset 14, -4
 301 0002 0546     		mov	r5, r0
 302 0004 0C46     		mov	r4, r1
 335:..\u8g2\csrc/u8x8_d_ssd1306_128x64_noname.c ****     
 336:..\u8g2\csrc/u8x8_d_ssd1306_128x64_noname.c ****   if ( u8x8_d_ssd1306_sh1106_generic(u8x8, msg, arg_int, arg_ptr) != 0 )
 303              		.loc 1 336 0
 304 0006 FFF7FEFF 		bl	u8x8_d_ssd1306_sh1106_generic
 305              	.LVL41:
 306 000a 98B9     		cbnz	r0, .L27
 307 000c 0346     		mov	r3, r0
 337:..\u8g2\csrc/u8x8_d_ssd1306_128x64_noname.c ****     return 1;
 338:..\u8g2\csrc/u8x8_d_ssd1306_128x64_noname.c ****   
 339:..\u8g2\csrc/u8x8_d_ssd1306_128x64_noname.c ****   switch(msg)
 308              		.loc 1 339 0
 309 000e 092C     		cmp	r4, #9
 310 0010 0AD0     		beq	.L25
 311 0012 0A2C     		cmp	r4, #10
 312 0014 0FD1     		bne	.L24
 340:..\u8g2\csrc/u8x8_d_ssd1306_128x64_noname.c ****   {
 341:..\u8g2\csrc/u8x8_d_ssd1306_128x64_noname.c ****     case U8X8_MSG_DISPLAY_INIT:
 342:..\u8g2\csrc/u8x8_d_ssd1306_128x64_noname.c ****       u8x8_d_helper_display_init(u8x8);
ARM GAS  C:\Users\brian\AppData\Local\Temp\ccQkzULt.s 			page 13


 313              		.loc 1 342 0
 314 0016 2846     		mov	r0, r5
 315 0018 FFF7FEFF 		bl	u8x8_d_helper_display_init
 316              	.LVL42:
 343:..\u8g2\csrc/u8x8_d_ssd1306_128x64_noname.c ****       u8x8_cad_SendSequence(u8x8, u8x8_d_ssd1306_128x64_vcomh0_init_seq);    
 317              		.loc 1 343 0
 318 001c 0749     		ldr	r1, .L29
 319 001e 2846     		mov	r0, r5
 320 0020 FFF7FEFF 		bl	u8x8_cad_SendSequence
 321              	.LVL43:
 344:..\u8g2\csrc/u8x8_d_ssd1306_128x64_noname.c ****       break;
 345:..\u8g2\csrc/u8x8_d_ssd1306_128x64_noname.c ****     case U8X8_MSG_DISPLAY_SETUP_MEMORY:
 346:..\u8g2\csrc/u8x8_d_ssd1306_128x64_noname.c ****       u8x8_d_helper_display_setup_memory(u8x8, &u8x8_ssd1306_128x64_noname_display_info);
 347:..\u8g2\csrc/u8x8_d_ssd1306_128x64_noname.c ****       break;
 348:..\u8g2\csrc/u8x8_d_ssd1306_128x64_noname.c ****     default:
 349:..\u8g2\csrc/u8x8_d_ssd1306_128x64_noname.c ****       return 0;
 350:..\u8g2\csrc/u8x8_d_ssd1306_128x64_noname.c ****   }
 351:..\u8g2\csrc/u8x8_d_ssd1306_128x64_noname.c ****   return 1;
 322              		.loc 1 351 0
 323 0024 0123     		movs	r3, #1
 344:..\u8g2\csrc/u8x8_d_ssd1306_128x64_noname.c ****       break;
 324              		.loc 1 344 0
 325 0026 06E0     		b	.L24
 326              	.L25:
 346:..\u8g2\csrc/u8x8_d_ssd1306_128x64_noname.c ****       break;
 327              		.loc 1 346 0
 328 0028 0549     		ldr	r1, .L29+4
 329 002a 2846     		mov	r0, r5
 330 002c FFF7FEFF 		bl	u8x8_d_helper_display_setup_memory
 331              	.LVL44:
 332              		.loc 1 351 0
 333 0030 0123     		movs	r3, #1
 347:..\u8g2\csrc/u8x8_d_ssd1306_128x64_noname.c ****     default:
 334              		.loc 1 347 0
 335 0032 00E0     		b	.L24
 336              	.L27:
 337:..\u8g2\csrc/u8x8_d_ssd1306_128x64_noname.c ****   
 337              		.loc 1 337 0
 338 0034 0123     		movs	r3, #1
 339              	.L24:
 352:..\u8g2\csrc/u8x8_d_ssd1306_128x64_noname.c **** }
 340              		.loc 1 352 0
 341 0036 1846     		mov	r0, r3
 342 0038 38BD     		pop	{r3, r4, r5, pc}
 343              	.LVL45:
 344              	.L30:
 345 003a 00BF     		.align	2
 346              	.L29:
 347 003c 70000000 		.word	.LANCHOR0+112
 348 0040 58000000 		.word	.LANCHOR0+88
 349              		.cfi_endproc
 350              	.LFE2:
 351              		.size	u8x8_d_ssd1306_128x64_vcomh0, .-u8x8_d_ssd1306_128x64_vcomh0
 352              		.section	.text.u8x8_d_ssd1306_128x64_alt0,"ax",%progbits
 353              		.align	2
 354              		.global	u8x8_d_ssd1306_128x64_alt0
 355              		.thumb
ARM GAS  C:\Users\brian\AppData\Local\Temp\ccQkzULt.s 			page 14


 356              		.thumb_func
 357              		.type	u8x8_d_ssd1306_128x64_alt0, %function
 358              	u8x8_d_ssd1306_128x64_alt0:
 359              	.LFB3:
 353:..\u8g2\csrc/u8x8_d_ssd1306_128x64_noname.c **** 
 354:..\u8g2\csrc/u8x8_d_ssd1306_128x64_noname.c **** uint8_t u8x8_d_ssd1306_128x64_alt0(u8x8_t *u8x8, uint8_t msg, uint8_t arg_int, void *arg_ptr)
 355:..\u8g2\csrc/u8x8_d_ssd1306_128x64_noname.c **** {
 360              		.loc 1 355 0
 361              		.cfi_startproc
 362              		@ args = 0, pretend = 0, frame = 0
 363              		@ frame_needed = 0, uses_anonymous_args = 0
 364              	.LVL46:
 365 0000 38B5     		push	{r3, r4, r5, lr}
 366              		.cfi_def_cfa_offset 16
 367              		.cfi_offset 3, -16
 368              		.cfi_offset 4, -12
 369              		.cfi_offset 5, -8
 370              		.cfi_offset 14, -4
 371 0002 0546     		mov	r5, r0
 372 0004 0C46     		mov	r4, r1
 356:..\u8g2\csrc/u8x8_d_ssd1306_128x64_noname.c ****   
 357:..\u8g2\csrc/u8x8_d_ssd1306_128x64_noname.c ****   if ( u8x8_d_ssd1306_sh1106_generic(u8x8, msg, arg_int, arg_ptr) != 0 )
 373              		.loc 1 357 0
 374 0006 FFF7FEFF 		bl	u8x8_d_ssd1306_sh1106_generic
 375              	.LVL47:
 376 000a 98B9     		cbnz	r0, .L35
 377 000c 0346     		mov	r3, r0
 358:..\u8g2\csrc/u8x8_d_ssd1306_128x64_noname.c ****     return 1;
 359:..\u8g2\csrc/u8x8_d_ssd1306_128x64_noname.c ****   
 360:..\u8g2\csrc/u8x8_d_ssd1306_128x64_noname.c ****   switch(msg)
 378              		.loc 1 360 0
 379 000e 092C     		cmp	r4, #9
 380 0010 0AD0     		beq	.L33
 381 0012 0A2C     		cmp	r4, #10
 382 0014 0FD1     		bne	.L32
 361:..\u8g2\csrc/u8x8_d_ssd1306_128x64_noname.c ****   {
 362:..\u8g2\csrc/u8x8_d_ssd1306_128x64_noname.c ****     case U8X8_MSG_DISPLAY_INIT:
 363:..\u8g2\csrc/u8x8_d_ssd1306_128x64_noname.c ****       u8x8_d_helper_display_init(u8x8);
 383              		.loc 1 363 0
 384 0016 2846     		mov	r0, r5
 385 0018 FFF7FEFF 		bl	u8x8_d_helper_display_init
 386              	.LVL48:
 364:..\u8g2\csrc/u8x8_d_ssd1306_128x64_noname.c ****       u8x8_cad_SendSequence(u8x8, u8x8_d_ssd1306_128x64_alt0_init_seq);    
 387              		.loc 1 364 0
 388 001c 0749     		ldr	r1, .L37
 389 001e 2846     		mov	r0, r5
 390 0020 FFF7FEFF 		bl	u8x8_cad_SendSequence
 391              	.LVL49:
 365:..\u8g2\csrc/u8x8_d_ssd1306_128x64_noname.c ****       break;
 366:..\u8g2\csrc/u8x8_d_ssd1306_128x64_noname.c ****     case U8X8_MSG_DISPLAY_SETUP_MEMORY:
 367:..\u8g2\csrc/u8x8_d_ssd1306_128x64_noname.c ****       u8x8_d_helper_display_setup_memory(u8x8, &u8x8_ssd1306_128x64_noname_display_info);
 368:..\u8g2\csrc/u8x8_d_ssd1306_128x64_noname.c ****       break;
 369:..\u8g2\csrc/u8x8_d_ssd1306_128x64_noname.c ****     default:
 370:..\u8g2\csrc/u8x8_d_ssd1306_128x64_noname.c ****       return 0;
 371:..\u8g2\csrc/u8x8_d_ssd1306_128x64_noname.c ****   }
 372:..\u8g2\csrc/u8x8_d_ssd1306_128x64_noname.c ****   return 1;
 392              		.loc 1 372 0
ARM GAS  C:\Users\brian\AppData\Local\Temp\ccQkzULt.s 			page 15


 393 0024 0123     		movs	r3, #1
 365:..\u8g2\csrc/u8x8_d_ssd1306_128x64_noname.c ****       break;
 394              		.loc 1 365 0
 395 0026 06E0     		b	.L32
 396              	.L33:
 367:..\u8g2\csrc/u8x8_d_ssd1306_128x64_noname.c ****       break;
 397              		.loc 1 367 0
 398 0028 0549     		ldr	r1, .L37+4
 399 002a 2846     		mov	r0, r5
 400 002c FFF7FEFF 		bl	u8x8_d_helper_display_setup_memory
 401              	.LVL50:
 402              		.loc 1 372 0
 403 0030 0123     		movs	r3, #1
 368:..\u8g2\csrc/u8x8_d_ssd1306_128x64_noname.c ****     default:
 404              		.loc 1 368 0
 405 0032 00E0     		b	.L32
 406              	.L35:
 358:..\u8g2\csrc/u8x8_d_ssd1306_128x64_noname.c ****   
 407              		.loc 1 358 0
 408 0034 0123     		movs	r3, #1
 409              	.L32:
 373:..\u8g2\csrc/u8x8_d_ssd1306_128x64_noname.c **** }
 410              		.loc 1 373 0
 411 0036 1846     		mov	r0, r3
 412 0038 38BD     		pop	{r3, r4, r5, pc}
 413              	.LVL51:
 414              	.L38:
 415 003a 00BF     		.align	2
 416              	.L37:
 417 003c A8000000 		.word	.LANCHOR0+168
 418 0040 58000000 		.word	.LANCHOR0+88
 419              		.cfi_endproc
 420              	.LFE3:
 421              		.size	u8x8_d_ssd1306_128x64_alt0, .-u8x8_d_ssd1306_128x64_alt0
 422              		.section	.text.u8x8_d_sh1106_128x64_noname,"ax",%progbits
 423              		.align	2
 424              		.global	u8x8_d_sh1106_128x64_noname
 425              		.thumb
 426              		.thumb_func
 427              		.type	u8x8_d_sh1106_128x64_noname, %function
 428              	u8x8_d_sh1106_128x64_noname:
 429              	.LFB4:
 374:..\u8g2\csrc/u8x8_d_ssd1306_128x64_noname.c **** 
 375:..\u8g2\csrc/u8x8_d_ssd1306_128x64_noname.c **** 
 376:..\u8g2\csrc/u8x8_d_ssd1306_128x64_noname.c **** static const u8x8_display_info_t u8x8_sh1106_128x64_noname_display_info =
 377:..\u8g2\csrc/u8x8_d_ssd1306_128x64_noname.c **** {
 378:..\u8g2\csrc/u8x8_d_ssd1306_128x64_noname.c ****   /* chip_enable_level = */ 0,
 379:..\u8g2\csrc/u8x8_d_ssd1306_128x64_noname.c ****   /* chip_disable_level = */ 1,
 380:..\u8g2\csrc/u8x8_d_ssd1306_128x64_noname.c ****   
 381:..\u8g2\csrc/u8x8_d_ssd1306_128x64_noname.c ****   /* post_chip_enable_wait_ns = */ 20,
 382:..\u8g2\csrc/u8x8_d_ssd1306_128x64_noname.c ****   /* pre_chip_disable_wait_ns = */ 10,
 383:..\u8g2\csrc/u8x8_d_ssd1306_128x64_noname.c ****   /* reset_pulse_width_ms = */ 100, 	/* SSD1306: 3 us */
 384:..\u8g2\csrc/u8x8_d_ssd1306_128x64_noname.c ****   /* post_reset_wait_ms = */ 100, /* far east OLEDs need much longer setup time */
 385:..\u8g2\csrc/u8x8_d_ssd1306_128x64_noname.c ****   /* sda_setup_time_ns = */ 50,		/* SSD1306: 15ns, but cycle time is 100ns, so use 100/2 */
 386:..\u8g2\csrc/u8x8_d_ssd1306_128x64_noname.c ****   /* sck_pulse_width_ns = */ 50,	/* SSD1306: 20ns, but cycle time is 100ns, so use 100/2, AVR: belo
 387:..\u8g2\csrc/u8x8_d_ssd1306_128x64_noname.c ****   /* sck_clock_hz = */ 4000000UL,	/* since Arduino 1.6.0, the SPI bus speed in Hz. Should be  10000
 388:..\u8g2\csrc/u8x8_d_ssd1306_128x64_noname.c ****   /* spi_mode = */ 3,		/* active low (clock is high by default), rising edge, this seems to be a di
ARM GAS  C:\Users\brian\AppData\Local\Temp\ccQkzULt.s 			page 16


 389:..\u8g2\csrc/u8x8_d_ssd1306_128x64_noname.c ****   /* i2c_bus_clock_100kHz = */ 4,
 390:..\u8g2\csrc/u8x8_d_ssd1306_128x64_noname.c ****   /* data_setup_time_ns = */ 40,
 391:..\u8g2\csrc/u8x8_d_ssd1306_128x64_noname.c ****   /* write_pulse_width_ns = */ 150,	/* SSD1306: cycle time is 300ns, so use 300/2 = 150 */
 392:..\u8g2\csrc/u8x8_d_ssd1306_128x64_noname.c ****   /* tile_width = */ 16,
 393:..\u8g2\csrc/u8x8_d_ssd1306_128x64_noname.c ****   /* tile_hight = */ 8,
 394:..\u8g2\csrc/u8x8_d_ssd1306_128x64_noname.c ****   /* default_x_offset = */ 2,
 395:..\u8g2\csrc/u8x8_d_ssd1306_128x64_noname.c ****   /* flipmode_x_offset = */ 2,
 396:..\u8g2\csrc/u8x8_d_ssd1306_128x64_noname.c ****   /* pixel_width = */ 128,
 397:..\u8g2\csrc/u8x8_d_ssd1306_128x64_noname.c ****   /* pixel_height = */ 64
 398:..\u8g2\csrc/u8x8_d_ssd1306_128x64_noname.c **** };
 399:..\u8g2\csrc/u8x8_d_ssd1306_128x64_noname.c **** 
 400:..\u8g2\csrc/u8x8_d_ssd1306_128x64_noname.c **** uint8_t u8x8_d_sh1106_128x64_noname(u8x8_t *u8x8, uint8_t msg, uint8_t arg_int, void *arg_ptr)
 401:..\u8g2\csrc/u8x8_d_ssd1306_128x64_noname.c **** {
 430              		.loc 1 401 0
 431              		.cfi_startproc
 432              		@ args = 0, pretend = 0, frame = 0
 433              		@ frame_needed = 0, uses_anonymous_args = 0
 434              	.LVL52:
 435 0000 38B5     		push	{r3, r4, r5, lr}
 436              		.cfi_def_cfa_offset 16
 437              		.cfi_offset 3, -16
 438              		.cfi_offset 4, -12
 439              		.cfi_offset 5, -8
 440              		.cfi_offset 14, -4
 441 0002 0546     		mov	r5, r0
 442 0004 0C46     		mov	r4, r1
 402:..\u8g2\csrc/u8x8_d_ssd1306_128x64_noname.c ****   if ( u8x8_d_ssd1306_sh1106_generic(u8x8, msg, arg_int, arg_ptr) != 0 )
 443              		.loc 1 402 0
 444 0006 FFF7FEFF 		bl	u8x8_d_ssd1306_sh1106_generic
 445              	.LVL53:
 446 000a 98B9     		cbnz	r0, .L43
 447 000c 0346     		mov	r3, r0
 403:..\u8g2\csrc/u8x8_d_ssd1306_128x64_noname.c ****     return 1;
 404:..\u8g2\csrc/u8x8_d_ssd1306_128x64_noname.c ****   
 405:..\u8g2\csrc/u8x8_d_ssd1306_128x64_noname.c ****   switch(msg)
 448              		.loc 1 405 0
 449 000e 092C     		cmp	r4, #9
 450 0010 0AD0     		beq	.L41
 451 0012 0A2C     		cmp	r4, #10
 452 0014 0FD1     		bne	.L40
 406:..\u8g2\csrc/u8x8_d_ssd1306_128x64_noname.c ****   {
 407:..\u8g2\csrc/u8x8_d_ssd1306_128x64_noname.c ****     case U8X8_MSG_DISPLAY_INIT:
 408:..\u8g2\csrc/u8x8_d_ssd1306_128x64_noname.c ****       u8x8_d_helper_display_init(u8x8);
 453              		.loc 1 408 0
 454 0016 2846     		mov	r0, r5
 455 0018 FFF7FEFF 		bl	u8x8_d_helper_display_init
 456              	.LVL54:
 409:..\u8g2\csrc/u8x8_d_ssd1306_128x64_noname.c ****       /* maybe use a better init sequence */
 410:..\u8g2\csrc/u8x8_d_ssd1306_128x64_noname.c ****       /* https://www.mikrocontroller.net/topic/431371 */
 411:..\u8g2\csrc/u8x8_d_ssd1306_128x64_noname.c ****       /* the new sequence is added in the winstar constructor (see below), this is kept untouched *
 412:..\u8g2\csrc/u8x8_d_ssd1306_128x64_noname.c ****       u8x8_cad_SendSequence(u8x8, u8x8_d_ssd1306_128x64_noname_init_seq);    
 457              		.loc 1 412 0
 458 001c 0749     		ldr	r1, .L45
 459 001e 2846     		mov	r0, r5
 460 0020 FFF7FEFF 		bl	u8x8_cad_SendSequence
 461              	.LVL55:
 413:..\u8g2\csrc/u8x8_d_ssd1306_128x64_noname.c ****       break;
ARM GAS  C:\Users\brian\AppData\Local\Temp\ccQkzULt.s 			page 17


 414:..\u8g2\csrc/u8x8_d_ssd1306_128x64_noname.c ****     case U8X8_MSG_DISPLAY_SETUP_MEMORY:
 415:..\u8g2\csrc/u8x8_d_ssd1306_128x64_noname.c ****       u8x8_d_helper_display_setup_memory(u8x8, &u8x8_sh1106_128x64_noname_display_info);
 416:..\u8g2\csrc/u8x8_d_ssd1306_128x64_noname.c ****       break;
 417:..\u8g2\csrc/u8x8_d_ssd1306_128x64_noname.c ****     default:
 418:..\u8g2\csrc/u8x8_d_ssd1306_128x64_noname.c ****       return 0;
 419:..\u8g2\csrc/u8x8_d_ssd1306_128x64_noname.c ****   }
 420:..\u8g2\csrc/u8x8_d_ssd1306_128x64_noname.c ****   return 1;
 462              		.loc 1 420 0
 463 0024 0123     		movs	r3, #1
 413:..\u8g2\csrc/u8x8_d_ssd1306_128x64_noname.c ****       break;
 464              		.loc 1 413 0
 465 0026 06E0     		b	.L40
 466              	.L41:
 415:..\u8g2\csrc/u8x8_d_ssd1306_128x64_noname.c ****       break;
 467              		.loc 1 415 0
 468 0028 0549     		ldr	r1, .L45+4
 469 002a 2846     		mov	r0, r5
 470 002c FFF7FEFF 		bl	u8x8_d_helper_display_setup_memory
 471              	.LVL56:
 472              		.loc 1 420 0
 473 0030 0123     		movs	r3, #1
 416:..\u8g2\csrc/u8x8_d_ssd1306_128x64_noname.c ****     default:
 474              		.loc 1 416 0
 475 0032 00E0     		b	.L40
 476              	.L43:
 403:..\u8g2\csrc/u8x8_d_ssd1306_128x64_noname.c ****   
 477              		.loc 1 403 0
 478 0034 0123     		movs	r3, #1
 479              	.L40:
 421:..\u8g2\csrc/u8x8_d_ssd1306_128x64_noname.c ****     
 422:..\u8g2\csrc/u8x8_d_ssd1306_128x64_noname.c **** }
 480              		.loc 1 422 0
 481 0036 1846     		mov	r0, r3
 482 0038 38BD     		pop	{r3, r4, r5, pc}
 483              	.LVL57:
 484              	.L46:
 485 003a 00BF     		.align	2
 486              	.L45:
 487 003c 20000000 		.word	.LANCHOR0+32
 488 0040 E0000000 		.word	.LANCHOR0+224
 489              		.cfi_endproc
 490              	.LFE4:
 491              		.size	u8x8_d_sh1106_128x64_noname, .-u8x8_d_sh1106_128x64_noname
 492              		.section	.text.u8x8_d_sh1106_128x64_vcomh0,"ax",%progbits
 493              		.align	2
 494              		.global	u8x8_d_sh1106_128x64_vcomh0
 495              		.thumb
 496              		.thumb_func
 497              		.type	u8x8_d_sh1106_128x64_vcomh0, %function
 498              	u8x8_d_sh1106_128x64_vcomh0:
 499              	.LFB5:
 423:..\u8g2\csrc/u8x8_d_ssd1306_128x64_noname.c **** 
 424:..\u8g2\csrc/u8x8_d_ssd1306_128x64_noname.c **** uint8_t u8x8_d_sh1106_128x64_vcomh0(u8x8_t *u8x8, uint8_t msg, uint8_t arg_int, void *arg_ptr)
 425:..\u8g2\csrc/u8x8_d_ssd1306_128x64_noname.c **** {
 500              		.loc 1 425 0
 501              		.cfi_startproc
 502              		@ args = 0, pretend = 0, frame = 0
ARM GAS  C:\Users\brian\AppData\Local\Temp\ccQkzULt.s 			page 18


 503              		@ frame_needed = 0, uses_anonymous_args = 0
 504              	.LVL58:
 505 0000 38B5     		push	{r3, r4, r5, lr}
 506              		.cfi_def_cfa_offset 16
 507              		.cfi_offset 3, -16
 508              		.cfi_offset 4, -12
 509              		.cfi_offset 5, -8
 510              		.cfi_offset 14, -4
 511 0002 0546     		mov	r5, r0
 512 0004 0C46     		mov	r4, r1
 426:..\u8g2\csrc/u8x8_d_ssd1306_128x64_noname.c ****   if ( u8x8_d_ssd1306_sh1106_generic(u8x8, msg, arg_int, arg_ptr) != 0 )
 513              		.loc 1 426 0
 514 0006 FFF7FEFF 		bl	u8x8_d_ssd1306_sh1106_generic
 515              	.LVL59:
 516 000a 98B9     		cbnz	r0, .L51
 517 000c 0346     		mov	r3, r0
 427:..\u8g2\csrc/u8x8_d_ssd1306_128x64_noname.c ****     return 1;
 428:..\u8g2\csrc/u8x8_d_ssd1306_128x64_noname.c ****   
 429:..\u8g2\csrc/u8x8_d_ssd1306_128x64_noname.c ****   switch(msg)
 518              		.loc 1 429 0
 519 000e 092C     		cmp	r4, #9
 520 0010 0AD0     		beq	.L49
 521 0012 0A2C     		cmp	r4, #10
 522 0014 0FD1     		bne	.L48
 430:..\u8g2\csrc/u8x8_d_ssd1306_128x64_noname.c ****   {
 431:..\u8g2\csrc/u8x8_d_ssd1306_128x64_noname.c ****     case U8X8_MSG_DISPLAY_INIT:
 432:..\u8g2\csrc/u8x8_d_ssd1306_128x64_noname.c ****       u8x8_d_helper_display_init(u8x8);
 523              		.loc 1 432 0
 524 0016 2846     		mov	r0, r5
 525 0018 FFF7FEFF 		bl	u8x8_d_helper_display_init
 526              	.LVL60:
 433:..\u8g2\csrc/u8x8_d_ssd1306_128x64_noname.c ****       u8x8_cad_SendSequence(u8x8, u8x8_d_ssd1306_128x64_vcomh0_init_seq);    
 527              		.loc 1 433 0
 528 001c 0749     		ldr	r1, .L53
 529 001e 2846     		mov	r0, r5
 530 0020 FFF7FEFF 		bl	u8x8_cad_SendSequence
 531              	.LVL61:
 434:..\u8g2\csrc/u8x8_d_ssd1306_128x64_noname.c ****       break;
 435:..\u8g2\csrc/u8x8_d_ssd1306_128x64_noname.c ****     case U8X8_MSG_DISPLAY_SETUP_MEMORY:
 436:..\u8g2\csrc/u8x8_d_ssd1306_128x64_noname.c ****       u8x8_d_helper_display_setup_memory(u8x8, &u8x8_sh1106_128x64_noname_display_info);
 437:..\u8g2\csrc/u8x8_d_ssd1306_128x64_noname.c ****       break;
 438:..\u8g2\csrc/u8x8_d_ssd1306_128x64_noname.c ****     default:
 439:..\u8g2\csrc/u8x8_d_ssd1306_128x64_noname.c ****       return 0;
 440:..\u8g2\csrc/u8x8_d_ssd1306_128x64_noname.c ****   }
 441:..\u8g2\csrc/u8x8_d_ssd1306_128x64_noname.c ****   return 1;
 532              		.loc 1 441 0
 533 0024 0123     		movs	r3, #1
 434:..\u8g2\csrc/u8x8_d_ssd1306_128x64_noname.c ****       break;
 534              		.loc 1 434 0
 535 0026 06E0     		b	.L48
 536              	.L49:
 436:..\u8g2\csrc/u8x8_d_ssd1306_128x64_noname.c ****       break;
 537              		.loc 1 436 0
 538 0028 0549     		ldr	r1, .L53+4
 539 002a 2846     		mov	r0, r5
 540 002c FFF7FEFF 		bl	u8x8_d_helper_display_setup_memory
 541              	.LVL62:
ARM GAS  C:\Users\brian\AppData\Local\Temp\ccQkzULt.s 			page 19


 542              		.loc 1 441 0
 543 0030 0123     		movs	r3, #1
 437:..\u8g2\csrc/u8x8_d_ssd1306_128x64_noname.c ****     default:
 544              		.loc 1 437 0
 545 0032 00E0     		b	.L48
 546              	.L51:
 427:..\u8g2\csrc/u8x8_d_ssd1306_128x64_noname.c ****   
 547              		.loc 1 427 0
 548 0034 0123     		movs	r3, #1
 549              	.L48:
 442:..\u8g2\csrc/u8x8_d_ssd1306_128x64_noname.c ****     
 443:..\u8g2\csrc/u8x8_d_ssd1306_128x64_noname.c **** }
 550              		.loc 1 443 0
 551 0036 1846     		mov	r0, r3
 552 0038 38BD     		pop	{r3, r4, r5, pc}
 553              	.LVL63:
 554              	.L54:
 555 003a 00BF     		.align	2
 556              	.L53:
 557 003c 70000000 		.word	.LANCHOR0+112
 558 0040 E0000000 		.word	.LANCHOR0+224
 559              		.cfi_endproc
 560              	.LFE5:
 561              		.size	u8x8_d_sh1106_128x64_vcomh0, .-u8x8_d_sh1106_128x64_vcomh0
 562              		.section	.text.u8x8_d_sh1106_128x64_winstar,"ax",%progbits
 563              		.align	2
 564              		.global	u8x8_d_sh1106_128x64_winstar
 565              		.thumb
 566              		.thumb_func
 567              		.type	u8x8_d_sh1106_128x64_winstar, %function
 568              	u8x8_d_sh1106_128x64_winstar:
 569              	.LFB6:
 444:..\u8g2\csrc/u8x8_d_ssd1306_128x64_noname.c **** 
 445:..\u8g2\csrc/u8x8_d_ssd1306_128x64_noname.c **** uint8_t u8x8_d_sh1106_128x64_winstar(u8x8_t *u8x8, uint8_t msg, uint8_t arg_int, void *arg_ptr)
 446:..\u8g2\csrc/u8x8_d_ssd1306_128x64_noname.c **** {
 570              		.loc 1 446 0
 571              		.cfi_startproc
 572              		@ args = 0, pretend = 0, frame = 0
 573              		@ frame_needed = 0, uses_anonymous_args = 0
 574              	.LVL64:
 575 0000 38B5     		push	{r3, r4, r5, lr}
 576              		.cfi_def_cfa_offset 16
 577              		.cfi_offset 3, -16
 578              		.cfi_offset 4, -12
 579              		.cfi_offset 5, -8
 580              		.cfi_offset 14, -4
 581 0002 0546     		mov	r5, r0
 582 0004 0C46     		mov	r4, r1
 447:..\u8g2\csrc/u8x8_d_ssd1306_128x64_noname.c ****   if ( u8x8_d_ssd1306_sh1106_generic(u8x8, msg, arg_int, arg_ptr) != 0 )
 583              		.loc 1 447 0
 584 0006 FFF7FEFF 		bl	u8x8_d_ssd1306_sh1106_generic
 585              	.LVL65:
 586 000a 98B9     		cbnz	r0, .L59
 587 000c 0346     		mov	r3, r0
 448:..\u8g2\csrc/u8x8_d_ssd1306_128x64_noname.c ****     return 1;
 449:..\u8g2\csrc/u8x8_d_ssd1306_128x64_noname.c ****   
 450:..\u8g2\csrc/u8x8_d_ssd1306_128x64_noname.c ****   switch(msg)
ARM GAS  C:\Users\brian\AppData\Local\Temp\ccQkzULt.s 			page 20


 588              		.loc 1 450 0
 589 000e 092C     		cmp	r4, #9
 590 0010 0AD0     		beq	.L57
 591 0012 0A2C     		cmp	r4, #10
 592 0014 0FD1     		bne	.L56
 451:..\u8g2\csrc/u8x8_d_ssd1306_128x64_noname.c ****   {
 452:..\u8g2\csrc/u8x8_d_ssd1306_128x64_noname.c ****     case U8X8_MSG_DISPLAY_INIT:
 453:..\u8g2\csrc/u8x8_d_ssd1306_128x64_noname.c ****       u8x8_d_helper_display_init(u8x8);
 593              		.loc 1 453 0
 594 0016 2846     		mov	r0, r5
 595 0018 FFF7FEFF 		bl	u8x8_d_helper_display_init
 596              	.LVL66:
 454:..\u8g2\csrc/u8x8_d_ssd1306_128x64_noname.c ****       u8x8_cad_SendSequence(u8x8, u8x8_d_sh1106_128x64_winstar_init_seq);    
 597              		.loc 1 454 0
 598 001c 0749     		ldr	r1, .L61
 599 001e 2846     		mov	r0, r5
 600 0020 FFF7FEFF 		bl	u8x8_cad_SendSequence
 601              	.LVL67:
 455:..\u8g2\csrc/u8x8_d_ssd1306_128x64_noname.c ****       break;
 456:..\u8g2\csrc/u8x8_d_ssd1306_128x64_noname.c ****     case U8X8_MSG_DISPLAY_SETUP_MEMORY:
 457:..\u8g2\csrc/u8x8_d_ssd1306_128x64_noname.c ****       u8x8_d_helper_display_setup_memory(u8x8, &u8x8_sh1106_128x64_noname_display_info);
 458:..\u8g2\csrc/u8x8_d_ssd1306_128x64_noname.c ****       break;
 459:..\u8g2\csrc/u8x8_d_ssd1306_128x64_noname.c ****     default:
 460:..\u8g2\csrc/u8x8_d_ssd1306_128x64_noname.c ****       return 0;
 461:..\u8g2\csrc/u8x8_d_ssd1306_128x64_noname.c ****   }
 462:..\u8g2\csrc/u8x8_d_ssd1306_128x64_noname.c ****   return 1;
 602              		.loc 1 462 0
 603 0024 0123     		movs	r3, #1
 455:..\u8g2\csrc/u8x8_d_ssd1306_128x64_noname.c ****       break;
 604              		.loc 1 455 0
 605 0026 06E0     		b	.L56
 606              	.L57:
 457:..\u8g2\csrc/u8x8_d_ssd1306_128x64_noname.c ****       break;
 607              		.loc 1 457 0
 608 0028 0549     		ldr	r1, .L61+4
 609 002a 2846     		mov	r0, r5
 610 002c FFF7FEFF 		bl	u8x8_d_helper_display_setup_memory
 611              	.LVL68:
 612              		.loc 1 462 0
 613 0030 0123     		movs	r3, #1
 458:..\u8g2\csrc/u8x8_d_ssd1306_128x64_noname.c ****     default:
 614              		.loc 1 458 0
 615 0032 00E0     		b	.L56
 616              	.L59:
 448:..\u8g2\csrc/u8x8_d_ssd1306_128x64_noname.c ****   
 617              		.loc 1 448 0
 618 0034 0123     		movs	r3, #1
 619              	.L56:
 463:..\u8g2\csrc/u8x8_d_ssd1306_128x64_noname.c ****     
 464:..\u8g2\csrc/u8x8_d_ssd1306_128x64_noname.c **** }
 620              		.loc 1 464 0
 621 0036 1846     		mov	r0, r3
 622 0038 38BD     		pop	{r3, r4, r5, pc}
 623              	.LVL69:
 624              	.L62:
 625 003a 00BF     		.align	2
 626              	.L61:
ARM GAS  C:\Users\brian\AppData\Local\Temp\ccQkzULt.s 			page 21


 627 003c F8000000 		.word	.LANCHOR0+248
 628 0040 E0000000 		.word	.LANCHOR0+224
 629              		.cfi_endproc
 630              	.LFE6:
 631              		.size	u8x8_d_sh1106_128x64_winstar, .-u8x8_d_sh1106_128x64_winstar
 632              		.section	.rodata
 633              		.align	2
 634              		.set	.LANCHOR0,. + 0
 635              		.type	u8x8_d_ssd1306_128x64_noname_powersave0_seq, %object
 636              		.size	u8x8_d_ssd1306_128x64_noname_powersave0_seq, 5
 637              	u8x8_d_ssd1306_128x64_noname_powersave0_seq:
 638 0000 18       		.byte	24
 639 0001 15       		.byte	21
 640 0002 AF       		.byte	-81
 641 0003 19       		.byte	25
 642 0004 FF       		.byte	-1
 643 0005 000000   		.space	3
 644              		.type	u8x8_d_ssd1306_128x64_noname_powersave1_seq, %object
 645              		.size	u8x8_d_ssd1306_128x64_noname_powersave1_seq, 5
 646              	u8x8_d_ssd1306_128x64_noname_powersave1_seq:
 647 0008 18       		.byte	24
 648 0009 15       		.byte	21
 649 000a AE       		.byte	-82
 650 000b 19       		.byte	25
 651 000c FF       		.byte	-1
 652 000d 000000   		.space	3
 653              		.type	u8x8_d_ssd1306_128x64_noname_flip0_seq, %object
 654              		.size	u8x8_d_ssd1306_128x64_noname_flip0_seq, 7
 655              	u8x8_d_ssd1306_128x64_noname_flip0_seq:
 656 0010 18       		.byte	24
 657 0011 15       		.byte	21
 658 0012 A1       		.byte	-95
 659 0013 15       		.byte	21
 660 0014 C8       		.byte	-56
 661 0015 19       		.byte	25
 662 0016 FF       		.byte	-1
 663 0017 00       		.space	1
 664              		.type	u8x8_d_ssd1306_128x64_noname_flip1_seq, %object
 665              		.size	u8x8_d_ssd1306_128x64_noname_flip1_seq, 7
 666              	u8x8_d_ssd1306_128x64_noname_flip1_seq:
 667 0018 18       		.byte	24
 668 0019 15       		.byte	21
 669 001a A0       		.byte	-96
 670 001b 15       		.byte	21
 671 001c C0       		.byte	-64
 672 001d 19       		.byte	25
 673 001e FF       		.byte	-1
 674 001f 00       		.space	1
 675              		.type	u8x8_d_ssd1306_128x64_noname_init_seq, %object
 676              		.size	u8x8_d_ssd1306_128x64_noname_init_seq, 53
 677              	u8x8_d_ssd1306_128x64_noname_init_seq:
 678 0020 18       		.byte	24
 679 0021 15       		.byte	21
 680 0022 AE       		.byte	-82
 681 0023 15       		.byte	21
 682 0024 D5       		.byte	-43
 683 0025 16       		.byte	22
ARM GAS  C:\Users\brian\AppData\Local\Temp\ccQkzULt.s 			page 22


 684 0026 80       		.byte	-128
 685 0027 15       		.byte	21
 686 0028 A8       		.byte	-88
 687 0029 16       		.byte	22
 688 002a 3F       		.byte	63
 689 002b 15       		.byte	21
 690 002c D3       		.byte	-45
 691 002d 16       		.byte	22
 692 002e 00       		.byte	0
 693 002f 15       		.byte	21
 694 0030 40       		.byte	64
 695 0031 15       		.byte	21
 696 0032 8D       		.byte	-115
 697 0033 16       		.byte	22
 698 0034 14       		.byte	20
 699 0035 15       		.byte	21
 700 0036 20       		.byte	32
 701 0037 16       		.byte	22
 702 0038 00       		.byte	0
 703 0039 15       		.byte	21
 704 003a A1       		.byte	-95
 705 003b 15       		.byte	21
 706 003c C8       		.byte	-56
 707 003d 15       		.byte	21
 708 003e DA       		.byte	-38
 709 003f 16       		.byte	22
 710 0040 12       		.byte	18
 711 0041 15       		.byte	21
 712 0042 81       		.byte	-127
 713 0043 16       		.byte	22
 714 0044 CF       		.byte	-49
 715 0045 15       		.byte	21
 716 0046 D9       		.byte	-39
 717 0047 16       		.byte	22
 718 0048 F1       		.byte	-15
 719 0049 15       		.byte	21
 720 004a DB       		.byte	-37
 721 004b 16       		.byte	22
 722 004c 40       		.byte	64
 723 004d 15       		.byte	21
 724 004e 2E       		.byte	46
 725 004f 15       		.byte	21
 726 0050 A4       		.byte	-92
 727 0051 15       		.byte	21
 728 0052 A6       		.byte	-90
 729 0053 19       		.byte	25
 730 0054 FF       		.byte	-1
 731 0055 000000   		.space	3
 732              		.type	u8x8_ssd1306_128x64_noname_display_info, %object
 733              		.size	u8x8_ssd1306_128x64_noname_display_info, 24
 734              	u8x8_ssd1306_128x64_noname_display_info:
 735 0058 00       		.byte	0
 736 0059 01       		.byte	1
 737 005a 14       		.byte	20
 738 005b 0A       		.byte	10
 739 005c 64       		.byte	100
 740 005d 64       		.byte	100
ARM GAS  C:\Users\brian\AppData\Local\Temp\ccQkzULt.s 			page 23


 741 005e 32       		.byte	50
 742 005f 32       		.byte	50
 743 0060 00127A00 		.word	8000000
 744 0064 00       		.byte	0
 745 0065 04       		.byte	4
 746 0066 28       		.byte	40
 747 0067 96       		.byte	-106
 748 0068 10       		.byte	16
 749 0069 08       		.byte	8
 750 006a 00       		.byte	0
 751 006b 00       		.byte	0
 752 006c 8000     		.short	128
 753 006e 4000     		.short	64
 754              		.type	u8x8_d_ssd1306_128x64_vcomh0_init_seq, %object
 755              		.size	u8x8_d_ssd1306_128x64_vcomh0_init_seq, 53
 756              	u8x8_d_ssd1306_128x64_vcomh0_init_seq:
 757 0070 18       		.byte	24
 758 0071 15       		.byte	21
 759 0072 AE       		.byte	-82
 760 0073 15       		.byte	21
 761 0074 D5       		.byte	-43
 762 0075 16       		.byte	22
 763 0076 80       		.byte	-128
 764 0077 15       		.byte	21
 765 0078 A8       		.byte	-88
 766 0079 16       		.byte	22
 767 007a 3F       		.byte	63
 768 007b 15       		.byte	21
 769 007c D3       		.byte	-45
 770 007d 16       		.byte	22
 771 007e 00       		.byte	0
 772 007f 15       		.byte	21
 773 0080 40       		.byte	64
 774 0081 15       		.byte	21
 775 0082 8D       		.byte	-115
 776 0083 16       		.byte	22
 777 0084 14       		.byte	20
 778 0085 15       		.byte	21
 779 0086 20       		.byte	32
 780 0087 16       		.byte	22
 781 0088 00       		.byte	0
 782 0089 15       		.byte	21
 783 008a A1       		.byte	-95
 784 008b 15       		.byte	21
 785 008c C8       		.byte	-56
 786 008d 15       		.byte	21
 787 008e DA       		.byte	-38
 788 008f 16       		.byte	22
 789 0090 12       		.byte	18
 790 0091 15       		.byte	21
 791 0092 81       		.byte	-127
 792 0093 16       		.byte	22
 793 0094 EF       		.byte	-17
 794 0095 15       		.byte	21
 795 0096 D9       		.byte	-39
 796 0097 16       		.byte	22
 797 0098 A1       		.byte	-95
ARM GAS  C:\Users\brian\AppData\Local\Temp\ccQkzULt.s 			page 24


 798 0099 15       		.byte	21
 799 009a DB       		.byte	-37
 800 009b 16       		.byte	22
 801 009c 00       		.byte	0
 802 009d 15       		.byte	21
 803 009e 2E       		.byte	46
 804 009f 15       		.byte	21
 805 00a0 A4       		.byte	-92
 806 00a1 15       		.byte	21
 807 00a2 A6       		.byte	-90
 808 00a3 19       		.byte	25
 809 00a4 FF       		.byte	-1
 810 00a5 000000   		.space	3
 811              		.type	u8x8_d_ssd1306_128x64_alt0_init_seq, %object
 812              		.size	u8x8_d_ssd1306_128x64_alt0_init_seq, 53
 813              	u8x8_d_ssd1306_128x64_alt0_init_seq:
 814 00a8 18       		.byte	24
 815 00a9 15       		.byte	21
 816 00aa AE       		.byte	-82
 817 00ab 15       		.byte	21
 818 00ac D5       		.byte	-43
 819 00ad 16       		.byte	22
 820 00ae 80       		.byte	-128
 821 00af 15       		.byte	21
 822 00b0 A8       		.byte	-88
 823 00b1 16       		.byte	22
 824 00b2 3F       		.byte	63
 825 00b3 15       		.byte	21
 826 00b4 D3       		.byte	-45
 827 00b5 16       		.byte	22
 828 00b6 00       		.byte	0
 829 00b7 15       		.byte	21
 830 00b8 40       		.byte	64
 831 00b9 15       		.byte	21
 832 00ba 8D       		.byte	-115
 833 00bb 16       		.byte	22
 834 00bc 14       		.byte	20
 835 00bd 15       		.byte	21
 836 00be 20       		.byte	32
 837 00bf 16       		.byte	22
 838 00c0 00       		.byte	0
 839 00c1 15       		.byte	21
 840 00c2 A1       		.byte	-95
 841 00c3 15       		.byte	21
 842 00c4 C8       		.byte	-56
 843 00c5 15       		.byte	21
 844 00c6 DA       		.byte	-38
 845 00c7 16       		.byte	22
 846 00c8 02       		.byte	2
 847 00c9 15       		.byte	21
 848 00ca 81       		.byte	-127
 849 00cb 16       		.byte	22
 850 00cc CF       		.byte	-49
 851 00cd 15       		.byte	21
 852 00ce D9       		.byte	-39
 853 00cf 16       		.byte	22
 854 00d0 F1       		.byte	-15
ARM GAS  C:\Users\brian\AppData\Local\Temp\ccQkzULt.s 			page 25


 855 00d1 15       		.byte	21
 856 00d2 DB       		.byte	-37
 857 00d3 16       		.byte	22
 858 00d4 40       		.byte	64
 859 00d5 15       		.byte	21
 860 00d6 2E       		.byte	46
 861 00d7 15       		.byte	21
 862 00d8 A4       		.byte	-92
 863 00d9 15       		.byte	21
 864 00da A6       		.byte	-90
 865 00db 19       		.byte	25
 866 00dc FF       		.byte	-1
 867 00dd 000000   		.space	3
 868              		.type	u8x8_sh1106_128x64_noname_display_info, %object
 869              		.size	u8x8_sh1106_128x64_noname_display_info, 24
 870              	u8x8_sh1106_128x64_noname_display_info:
 871 00e0 00       		.byte	0
 872 00e1 01       		.byte	1
 873 00e2 14       		.byte	20
 874 00e3 0A       		.byte	10
 875 00e4 64       		.byte	100
 876 00e5 64       		.byte	100
 877 00e6 32       		.byte	50
 878 00e7 32       		.byte	50
 879 00e8 00093D00 		.word	4000000
 880 00ec 03       		.byte	3
 881 00ed 04       		.byte	4
 882 00ee 28       		.byte	40
 883 00ef 96       		.byte	-106
 884 00f0 10       		.byte	16
 885 00f1 08       		.byte	8
 886 00f2 02       		.byte	2
 887 00f3 02       		.byte	2
 888 00f4 8000     		.short	128
 889 00f6 4000     		.short	64
 890              		.type	u8x8_d_sh1106_128x64_winstar_init_seq, %object
 891              		.size	u8x8_d_sh1106_128x64_winstar_init_seq, 45
 892              	u8x8_d_sh1106_128x64_winstar_init_seq:
 893 00f8 18       		.byte	24
 894 00f9 15       		.byte	21
 895 00fa AE       		.byte	-82
 896 00fb 15       		.byte	21
 897 00fc A4       		.byte	-92
 898 00fd 15       		.byte	21
 899 00fe D5       		.byte	-43
 900 00ff 16       		.byte	22
 901 0100 50       		.byte	80
 902 0101 15       		.byte	21
 903 0102 A8       		.byte	-88
 904 0103 16       		.byte	22
 905 0104 3F       		.byte	63
 906 0105 15       		.byte	21
 907 0106 D3       		.byte	-45
 908 0107 16       		.byte	22
 909 0108 00       		.byte	0
 910 0109 15       		.byte	21
 911 010a 40       		.byte	64
ARM GAS  C:\Users\brian\AppData\Local\Temp\ccQkzULt.s 			page 26


 912 010b 15       		.byte	21
 913 010c AD       		.byte	-83
 914 010d 16       		.byte	22
 915 010e 8B       		.byte	-117
 916 010f 15       		.byte	21
 917 0110 D9       		.byte	-39
 918 0111 16       		.byte	22
 919 0112 22       		.byte	34
 920 0113 15       		.byte	21
 921 0114 DB       		.byte	-37
 922 0115 16       		.byte	22
 923 0116 35       		.byte	53
 924 0117 15       		.byte	21
 925 0118 32       		.byte	50
 926 0119 15       		.byte	21
 927 011a 81       		.byte	-127
 928 011b 16       		.byte	22
 929 011c FF       		.byte	-1
 930 011d 15       		.byte	21
 931 011e A6       		.byte	-90
 932 011f 15       		.byte	21
 933 0120 DA       		.byte	-38
 934 0121 16       		.byte	22
 935 0122 12       		.byte	18
 936 0123 19       		.byte	25
 937 0124 FF       		.byte	-1
 938              		.text
 939              	.Letext0:
 940              		.file 2 "c:\\program files (x86)\\cypress\\psoc creator\\4.4\\psoc creator\\import\\gnu\\arm\\5.4.
 941              		.file 3 "c:\\program files (x86)\\cypress\\psoc creator\\4.4\\psoc creator\\import\\gnu\\arm\\5.4.
 942              		.file 4 "..\\u8g2\\csrc\\u8x8.h"