ARM GAS  C:\Users\brian\AppData\Local\Temp\ccKWjjyA.s 			page 1


   1              		.syntax unified
   2              		.cpu cortex-m3
   3              		.fpu softvfp
   4              		.eabi_attribute 20, 1
   5              		.eabi_attribute 21, 1
   6              		.eabi_attribute 23, 3
   7              		.eabi_attribute 24, 1
   8              		.eabi_attribute 25, 1
   9              		.eabi_attribute 26, 1
  10              		.eabi_attribute 30, 1
  11              		.eabi_attribute 34, 1
  12              		.eabi_attribute 18, 4
  13              		.thumb
  14              		.syntax unified
  15              		.file	"u8x8_d_st7586s_s028hn118a.c"
  16              		.text
  17              	.Ltext0:
  18              		.cfi_sections	.debug_frame
  19              		.section	.text.u8x8_d_st7586s_common,"ax",%progbits
  20              		.align	2
  21              		.thumb
  22              		.thumb_func
  23              		.type	u8x8_d_st7586s_common, %function
  24              	u8x8_d_st7586s_common:
  25              	.LFB0:
  26              		.file 1 "..\\u8g2\\csrc\\u8x8_d_st7586s_s028hn118a.c"
   1:..\u8g2\csrc/u8x8_d_st7586s_s028hn118a.c **** /*
   2:..\u8g2\csrc/u8x8_d_st7586s_s028hn118a.c ****   u8x8_d_st7586s_s028hn118a.c
   3:..\u8g2\csrc/u8x8_d_st7586s_s028hn118a.c ****   
   4:..\u8g2\csrc/u8x8_d_st7586s_s028hn118a.c ****   Display: 384x136 pixel
   5:..\u8g2\csrc/u8x8_d_st7586s_s028hn118a.c ****   ST7586s: 384 x 160 x 2
   6:..\u8g2\csrc/u8x8_d_st7586s_s028hn118a.c ****   
   7:..\u8g2\csrc/u8x8_d_st7586s_s028hn118a.c ****   Universal 8bit Graphics Library (https://github.com/olikraus/u8g2/)
   8:..\u8g2\csrc/u8x8_d_st7586s_s028hn118a.c ****   
   9:..\u8g2\csrc/u8x8_d_st7586s_s028hn118a.c ****   Copyright (c) 2018, olikraus@gmail.com
  10:..\u8g2\csrc/u8x8_d_st7586s_s028hn118a.c ****   
  11:..\u8g2\csrc/u8x8_d_st7586s_s028hn118a.c ****   All rights reserved.
  12:..\u8g2\csrc/u8x8_d_st7586s_s028hn118a.c ****   Redistribution and use in source and binary forms, with or without modification, 
  13:..\u8g2\csrc/u8x8_d_st7586s_s028hn118a.c ****   are permitted provided that the following conditions are met:
  14:..\u8g2\csrc/u8x8_d_st7586s_s028hn118a.c ****   * Redistributions of source code must retain the above copyright notice, this list 
  15:..\u8g2\csrc/u8x8_d_st7586s_s028hn118a.c ****     of conditions and the following disclaimer.
  16:..\u8g2\csrc/u8x8_d_st7586s_s028hn118a.c ****     
  17:..\u8g2\csrc/u8x8_d_st7586s_s028hn118a.c ****   * Redistributions in binary form must reproduce the above copyright notice, this 
  18:..\u8g2\csrc/u8x8_d_st7586s_s028hn118a.c ****     list of conditions and the following disclaimer in the documentation and/or other 
  19:..\u8g2\csrc/u8x8_d_st7586s_s028hn118a.c ****     materials provided with the distribution.
  20:..\u8g2\csrc/u8x8_d_st7586s_s028hn118a.c ****   THIS SOFTWARE IS PROVIDED BY THE COPYRIGHT HOLDERS AND 
  21:..\u8g2\csrc/u8x8_d_st7586s_s028hn118a.c ****   CONTRIBUTORS "AS IS" AND ANY EXPRESS OR IMPLIED WARRANTIES, 
  22:..\u8g2\csrc/u8x8_d_st7586s_s028hn118a.c ****   INCLUDING, BUT NOT LIMITED TO, THE IMPLIED WARRANTIES OF 
  23:..\u8g2\csrc/u8x8_d_st7586s_s028hn118a.c ****   MERCHANTABILITY AND FITNESS FOR A PARTICULAR PURPOSE ARE 
  24:..\u8g2\csrc/u8x8_d_st7586s_s028hn118a.c ****   DISCLAIMED. IN NO EVENT SHALL THE COPYRIGHT HOLDER OR 
  25:..\u8g2\csrc/u8x8_d_st7586s_s028hn118a.c ****   CONTRIBUTORS BE LIABLE FOR ANY DIRECT, INDIRECT, INCIDENTAL, 
  26:..\u8g2\csrc/u8x8_d_st7586s_s028hn118a.c ****   SPECIAL, EXEMPLARY, OR CONSEQUENTIAL DAMAGES (INCLUDING, BUT 
  27:..\u8g2\csrc/u8x8_d_st7586s_s028hn118a.c ****   NOT LIMITED TO, PROCUREMENT OF SUBSTITUTE GOODS OR SERVICES; 
  28:..\u8g2\csrc/u8x8_d_st7586s_s028hn118a.c ****   LOSS OF USE, DATA, OR PROFITS; OR BUSINESS INTERRUPTION) HOWEVER 
  29:..\u8g2\csrc/u8x8_d_st7586s_s028hn118a.c ****   CAUSED AND ON ANY THEORY OF LIABILITY, WHETHER IN CONTRACT, 
  30:..\u8g2\csrc/u8x8_d_st7586s_s028hn118a.c ****   STRICT LIABILITY, OR TORT (INCLUDING NEGLIGENCE OR OTHERWISE) 
  31:..\u8g2\csrc/u8x8_d_st7586s_s028hn118a.c ****   ARISING IN ANY WAY OUT OF THE USE OF THIS SOFTWARE, EVEN IF 
ARM GAS  C:\Users\brian\AppData\Local\Temp\ccKWjjyA.s 			page 2


  32:..\u8g2\csrc/u8x8_d_st7586s_s028hn118a.c ****   ADVISED OF THE POSSIBILITY OF SUCH DAMAGE.  
  33:..\u8g2\csrc/u8x8_d_st7586s_s028hn118a.c ****   
  34:..\u8g2\csrc/u8x8_d_st7586s_s028hn118a.c **** */
  35:..\u8g2\csrc/u8x8_d_st7586s_s028hn118a.c **** 
  36:..\u8g2\csrc/u8x8_d_st7586s_s028hn118a.c **** #include "u8g2.h"
  37:..\u8g2\csrc/u8x8_d_st7586s_s028hn118a.c **** 
  38:..\u8g2\csrc/u8x8_d_st7586s_s028hn118a.c **** 
  39:..\u8g2\csrc/u8x8_d_st7586s_s028hn118a.c **** static const uint8_t u8x8_d_st7586s_sleep_on[] = {
  40:..\u8g2\csrc/u8x8_d_st7586s_s028hn118a.c ****   U8X8_START_TRANSFER(),  /* enable chip, delay is part of the transfer start */
  41:..\u8g2\csrc/u8x8_d_st7586s_s028hn118a.c ****   U8X8_C(0x010), /* set power save mode */
  42:..\u8g2\csrc/u8x8_d_st7586s_s028hn118a.c ****   U8X8_END_TRANSFER(),  /* disable chip */
  43:..\u8g2\csrc/u8x8_d_st7586s_s028hn118a.c ****   U8X8_END()                  /* end of sequence */
  44:..\u8g2\csrc/u8x8_d_st7586s_s028hn118a.c **** };
  45:..\u8g2\csrc/u8x8_d_st7586s_s028hn118a.c **** 
  46:..\u8g2\csrc/u8x8_d_st7586s_s028hn118a.c **** static const uint8_t u8x8_d_st7586s_sleep_off[] = {
  47:..\u8g2\csrc/u8x8_d_st7586s_s028hn118a.c ****   U8X8_START_TRANSFER(),  /* enable chip, delay is part of the transfer start */
  48:..\u8g2\csrc/u8x8_d_st7586s_s028hn118a.c ****   U8X8_C(0x011), //Sleep out
  49:..\u8g2\csrc/u8x8_d_st7586s_s028hn118a.c ****   U8X8_DLY(50), /* delay 50 ms */
  50:..\u8g2\csrc/u8x8_d_st7586s_s028hn118a.c ****   U8X8_END_TRANSFER(),  /* disable chip */
  51:..\u8g2\csrc/u8x8_d_st7586s_s028hn118a.c ****   U8X8_END()                  /* end of sequence */
  52:..\u8g2\csrc/u8x8_d_st7586s_s028hn118a.c **** };
  53:..\u8g2\csrc/u8x8_d_st7586s_s028hn118a.c **** 
  54:..\u8g2\csrc/u8x8_d_st7586s_s028hn118a.c **** static const uint8_t u8x8_d_st7586s_s028hn118a_flip0_seq[] = {
  55:..\u8g2\csrc/u8x8_d_st7586s_s028hn118a.c ****   U8X8_START_TRANSFER(),             	/* enable chip, delay is part of the transfer start */
  56:..\u8g2\csrc/u8x8_d_st7586s_s028hn118a.c ****   U8X8_C(0x036),				/* Scan Direction Setting */
  57:..\u8g2\csrc/u8x8_d_st7586s_s028hn118a.c ****   U8X8_A(0x000),				/* COM0 -> COM159 SEG0 -> SEG384 */
  58:..\u8g2\csrc/u8x8_d_st7586s_s028hn118a.c ****   U8X8_C(0x037),				/* Start line 0 */
  59:..\u8g2\csrc/u8x8_d_st7586s_s028hn118a.c ****   U8X8_A(0x000),
  60:..\u8g2\csrc/u8x8_d_st7586s_s028hn118a.c ****   U8X8_END_TRANSFER(),             	/* disable chip */
  61:..\u8g2\csrc/u8x8_d_st7586s_s028hn118a.c ****   U8X8_END()             			/* end of sequence */
  62:..\u8g2\csrc/u8x8_d_st7586s_s028hn118a.c **** };
  63:..\u8g2\csrc/u8x8_d_st7586s_s028hn118a.c **** 
  64:..\u8g2\csrc/u8x8_d_st7586s_s028hn118a.c **** static const uint8_t u8x8_d_st7586s_s028hn118a_flip1_seq[] = {
  65:..\u8g2\csrc/u8x8_d_st7586s_s028hn118a.c ****   U8X8_START_TRANSFER(),             	/* enable chip, delay is part of the transfer start */
  66:..\u8g2\csrc/u8x8_d_st7586s_s028hn118a.c ****   U8X8_C(0x036),				/* Scan Direction Setting */
  67:..\u8g2\csrc/u8x8_d_st7586s_s028hn118a.c ****   U8X8_A(0x0C8),				/* COM159 -> COM0 SEG384 -> SEG0 */
  68:..\u8g2\csrc/u8x8_d_st7586s_s028hn118a.c ****   U8X8_C(0x037),				/* Start line 24 */
  69:..\u8g2\csrc/u8x8_d_st7586s_s028hn118a.c ****   U8X8_A(0x018),
  70:..\u8g2\csrc/u8x8_d_st7586s_s028hn118a.c ****   U8X8_END_TRANSFER(),             	/* disable chip */
  71:..\u8g2\csrc/u8x8_d_st7586s_s028hn118a.c ****   U8X8_END()             			/* end of sequence */
  72:..\u8g2\csrc/u8x8_d_st7586s_s028hn118a.c **** };
  73:..\u8g2\csrc/u8x8_d_st7586s_s028hn118a.c **** 
  74:..\u8g2\csrc/u8x8_d_st7586s_s028hn118a.c **** static uint8_t u8x8_d_st7586s_common(u8x8_t *u8x8, uint8_t msg, uint8_t arg_int, void *arg_ptr) {
  27              		.loc 1 74 0
  28              		.cfi_startproc
  29              		@ args = 0, pretend = 0, frame = 8
  30              		@ frame_needed = 0, uses_anonymous_args = 0
  31              	.LVL0:
  32 0000 70B5     		push	{r4, r5, r6, lr}
  33              		.cfi_def_cfa_offset 16
  34              		.cfi_offset 4, -16
  35              		.cfi_offset 5, -12
  36              		.cfi_offset 6, -8
  37              		.cfi_offset 14, -4
  38 0002 82B0     		sub	sp, sp, #8
  39              		.cfi_def_cfa_offset 24
  40 0004 0646     		mov	r6, r0
ARM GAS  C:\Users\brian\AppData\Local\Temp\ccKWjjyA.s 			page 3


  41 0006 1446     		mov	r4, r2
  75:..\u8g2\csrc/u8x8_d_st7586s_s028hn118a.c ****   uint8_t c;
  76:..\u8g2\csrc/u8x8_d_st7586s_s028hn118a.c ****   uint8_t *ptr;
  77:..\u8g2\csrc/u8x8_d_st7586s_s028hn118a.c ****   uint8_t i, byte;
  78:..\u8g2\csrc/u8x8_d_st7586s_s028hn118a.c ****   uint32_t input;
  79:..\u8g2\csrc/u8x8_d_st7586s_s028hn118a.c ****   uint8_t output[8];
  80:..\u8g2\csrc/u8x8_d_st7586s_s028hn118a.c ****   switch (msg) {
  42              		.loc 1 80 0
  43 0008 0E29     		cmp	r1, #14
  44 000a 66D0     		beq	.L3
  45 000c 1D46     		mov	r5, r3
  46 000e 0F29     		cmp	r1, #15
  47 0010 02D0     		beq	.L4
  48 0012 0B29     		cmp	r1, #11
  49 0014 74D1     		bne	.L16
  50 0016 55E0     		b	.L5
  51              	.L4:
  81:..\u8g2\csrc/u8x8_d_st7586s_s028hn118a.c ****   case U8X8_MSG_DISPLAY_DRAW_TILE:
  82:..\u8g2\csrc/u8x8_d_st7586s_s028hn118a.c ****     u8x8_cad_StartTransfer(u8x8); // OK Start transfer
  52              		.loc 1 82 0
  53 0018 FFF7FEFF 		bl	u8x8_cad_StartTransfer
  54              	.LVL1:
  83:..\u8g2\csrc/u8x8_d_st7586s_s028hn118a.c ****     u8x8_cad_SendCmd(u8x8, 0x02B);  /* Row Address Setting */
  55              		.loc 1 83 0
  56 001c 2B21     		movs	r1, #43
  57 001e 3046     		mov	r0, r6
  58 0020 FFF7FEFF 		bl	u8x8_cad_SendCmd
  59              	.LVL2:
  84:..\u8g2\csrc/u8x8_d_st7586s_s028hn118a.c ****     u8x8_cad_SendArg(u8x8, 0x000);
  60              		.loc 1 84 0
  61 0024 0021     		movs	r1, #0
  62 0026 3046     		mov	r0, r6
  63 0028 FFF7FEFF 		bl	u8x8_cad_SendArg
  64              	.LVL3:
  85:..\u8g2\csrc/u8x8_d_st7586s_s028hn118a.c ****     u8x8_cad_SendArg(u8x8, 0x008 * ((u8x8_tile_t *)arg_ptr)->y_pos);
  65              		.loc 1 85 0
  66 002c A979     		ldrb	r1, [r5, #6]	@ zero_extendqisi2
  67 002e C900     		lsls	r1, r1, #3
  68 0030 01F0F801 		and	r1, r1, #248
  69 0034 3046     		mov	r0, r6
  70 0036 FFF7FEFF 		bl	u8x8_cad_SendArg
  71              	.LVL4:
  86:..\u8g2\csrc/u8x8_d_st7586s_s028hn118a.c ****     u8x8_cad_SendArg(u8x8, 0x000);
  72              		.loc 1 86 0
  73 003a 0021     		movs	r1, #0
  74 003c 3046     		mov	r0, r6
  75 003e FFF7FEFF 		bl	u8x8_cad_SendArg
  76              	.LVL5:
  87:..\u8g2\csrc/u8x8_d_st7586s_s028hn118a.c ****     u8x8_cad_SendArg(u8x8, u8x8->display_info->pixel_height - 1);  /* should this be u8x8->display_
  77              		.loc 1 87 0
  78 0042 3368     		ldr	r3, [r6]
  79 0044 D98A     		ldrh	r1, [r3, #22]
  80 0046 0139     		subs	r1, r1, #1
  81 0048 C9B2     		uxtb	r1, r1
  82 004a 3046     		mov	r0, r6
  83 004c FFF7FEFF 		bl	u8x8_cad_SendArg
  84              	.LVL6:
ARM GAS  C:\Users\brian\AppData\Local\Temp\ccKWjjyA.s 			page 4


  88:..\u8g2\csrc/u8x8_d_st7586s_s028hn118a.c ****     u8x8_cad_SendCmd(u8x8, 0x02C);  /* cmd write display data to ram */
  85              		.loc 1 88 0
  86 0050 2C21     		movs	r1, #44
  87 0052 3046     		mov	r0, r6
  88 0054 FFF7FEFF 		bl	u8x8_cad_SendCmd
  89              	.LVL7:
  89:..\u8g2\csrc/u8x8_d_st7586s_s028hn118a.c ****     c = ((u8x8_tile_t *) arg_ptr)->cnt; //
  90              		.loc 1 89 0
  91 0058 2C79     		ldrb	r4, [r5, #4]	@ zero_extendqisi2
  92              	.LVL8:
  90:..\u8g2\csrc/u8x8_d_st7586s_s028hn118a.c ****     c *= 8;
  93              		.loc 1 90 0
  94 005a E400     		lsls	r4, r4, #3
  95              	.LVL9:
  96 005c E4B2     		uxtb	r4, r4
  97              	.LVL10:
  91:..\u8g2\csrc/u8x8_d_st7586s_s028hn118a.c ****     ptr = ((u8x8_tile_t *) arg_ptr)->tile_ptr;  //
  98              		.loc 1 91 0
  99 005e 2D68     		ldr	r5, [r5]
 100              	.LVL11:
  92:..\u8g2\csrc/u8x8_d_st7586s_s028hn118a.c **** 
  93:..\u8g2\csrc/u8x8_d_st7586s_s028hn118a.c **** // The ST7586S has an unusual 3 pixels per byte format so here we read in 3 bytes (24 pixels) and
  94:..\u8g2\csrc/u8x8_d_st7586s_s028hn118a.c **** // pack that into 8 bytes of 3 pixels each 	
  95:..\u8g2\csrc/u8x8_d_st7586s_s028hn118a.c **** 	while (c > 0) {
 101              		.loc 1 95 0
 102 0060 29E0     		b	.L6
 103              	.L12:
  96:..\u8g2\csrc/u8x8_d_st7586s_s028hn118a.c ****       input = (((uint32_t)ptr[0] << 16) | ((uint32_t)ptr[1] << 8) | (uint32_t)ptr[2]);
 104              		.loc 1 96 0
 105 0062 2A78     		ldrb	r2, [r5]	@ zero_extendqisi2
 106 0064 6B78     		ldrb	r3, [r5, #1]	@ zero_extendqisi2
 107 0066 1B02     		lsls	r3, r3, #8
 108 0068 43EA0242 		orr	r2, r3, r2, lsl #16
 109 006c AB78     		ldrb	r3, [r5, #2]	@ zero_extendqisi2
 110 006e 1A43     		orrs	r2, r2, r3
 111              	.LVL12:
  97:..\u8g2\csrc/u8x8_d_st7586s_s028hn118a.c ****       for (i=0; i<8; i++)
 112              		.loc 1 97 0
 113 0070 0023     		movs	r3, #0
 114 0072 16E0     		b	.L7
 115              	.LVL13:
 116              	.L11:
  98:..\u8g2\csrc/u8x8_d_st7586s_s028hn118a.c ****       {
  99:..\u8g2\csrc/u8x8_d_st7586s_s028hn118a.c ****         byte = 0;
 100:..\u8g2\csrc/u8x8_d_st7586s_s028hn118a.c ****         if (input & 0x800000)          // if bit 23
 117              		.loc 1 100 0
 118 0074 12F4000F 		tst	r2, #8388608
 119 0078 01D1     		bne	.L15
  99:..\u8g2\csrc/u8x8_d_st7586s_s028hn118a.c ****         if (input & 0x800000)          // if bit 23
 120              		.loc 1 99 0
 121 007a 0021     		movs	r1, #0
 122 007c 00E0     		b	.L8
 123              	.L15:
 101:..\u8g2\csrc/u8x8_d_st7586s_s028hn118a.c ****             byte = byte | 0xC0;  //set pixel 1
 124              		.loc 1 101 0
 125 007e C021     		movs	r1, #192
 126              	.L8:
ARM GAS  C:\Users\brian\AppData\Local\Temp\ccKWjjyA.s 			page 5


 127              	.LVL14:
 102:..\u8g2\csrc/u8x8_d_st7586s_s028hn118a.c ****         if (input & 0x400000)          // if bit 22
 128              		.loc 1 102 0
 129 0080 12F4800F 		tst	r2, #4194304
 130 0084 01D0     		beq	.L9
 103:..\u8g2\csrc/u8x8_d_st7586s_s028hn118a.c ****             byte = byte | 0x18;  //set pixel 2
 131              		.loc 1 103 0
 132 0086 41F01801 		orr	r1, r1, #24
 133              	.LVL15:
 134              	.L9:
 104:..\u8g2\csrc/u8x8_d_st7586s_s028hn118a.c **** 		if (input & 0x200000)          // if bit 22
 135              		.loc 1 104 0
 136 008a 12F4001F 		tst	r2, #2097152
 137 008e 01D0     		beq	.L10
 105:..\u8g2\csrc/u8x8_d_st7586s_s028hn118a.c **** 			byte = byte | 0x3;  //set pixel 3
 138              		.loc 1 105 0
 139 0090 41F00301 		orr	r1, r1, #3
 140              	.LVL16:
 141              	.L10:
 106:..\u8g2\csrc/u8x8_d_st7586s_s028hn118a.c **** 		output[i] = byte;
 142              		.loc 1 106 0 discriminator 2
 143 0094 02A8     		add	r0, sp, #8
 144 0096 1844     		add	r0, r0, r3
 145 0098 00F8081C 		strb	r1, [r0, #-8]
 107:..\u8g2\csrc/u8x8_d_st7586s_s028hn118a.c ****         input <<= 3;
 146              		.loc 1 107 0 discriminator 2
 147 009c D200     		lsls	r2, r2, #3
 148              	.LVL17:
  97:..\u8g2\csrc/u8x8_d_st7586s_s028hn118a.c ****       {
 149              		.loc 1 97 0 discriminator 2
 150 009e 0133     		adds	r3, r3, #1
 151              	.LVL18:
 152 00a0 DBB2     		uxtb	r3, r3
 153              	.LVL19:
 154              	.L7:
  97:..\u8g2\csrc/u8x8_d_st7586s_s028hn118a.c ****       {
 155              		.loc 1 97 0 is_stmt 0 discriminator 1
 156 00a2 072B     		cmp	r3, #7
 157 00a4 E6D9     		bls	.L11
 108:..\u8g2\csrc/u8x8_d_st7586s_s028hn118a.c ****       }
 109:..\u8g2\csrc/u8x8_d_st7586s_s028hn118a.c ****       u8x8_cad_SendData(u8x8, 8, output);
 158              		.loc 1 109 0 is_stmt 1
 159 00a6 6A46     		mov	r2, sp
 160              	.LVL20:
 161 00a8 0821     		movs	r1, #8
 162 00aa 3046     		mov	r0, r6
 163 00ac FFF7FEFF 		bl	u8x8_cad_SendData
 164              	.LVL21:
 110:..\u8g2\csrc/u8x8_d_st7586s_s028hn118a.c ****       ptr += 3;
 165              		.loc 1 110 0
 166 00b0 0335     		adds	r5, r5, #3
 167              	.LVL22:
 111:..\u8g2\csrc/u8x8_d_st7586s_s028hn118a.c ****       c -= 3;
 168              		.loc 1 111 0
 169 00b2 033C     		subs	r4, r4, #3
 170              	.LVL23:
 171 00b4 E4B2     		uxtb	r4, r4
ARM GAS  C:\Users\brian\AppData\Local\Temp\ccKWjjyA.s 			page 6


 172              	.LVL24:
 173              	.L6:
  95:..\u8g2\csrc/u8x8_d_st7586s_s028hn118a.c ****       input = (((uint32_t)ptr[0] << 16) | ((uint32_t)ptr[1] << 8) | (uint32_t)ptr[2]);
 174              		.loc 1 95 0
 175 00b6 002C     		cmp	r4, #0
 176 00b8 D3D1     		bne	.L12
 112:..\u8g2\csrc/u8x8_d_st7586s_s028hn118a.c ****     }
 113:..\u8g2\csrc/u8x8_d_st7586s_s028hn118a.c ****     u8x8_cad_EndTransfer(u8x8);
 177              		.loc 1 113 0
 178 00ba 3046     		mov	r0, r6
 179 00bc FFF7FEFF 		bl	u8x8_cad_EndTransfer
 180              	.LVL25:
 114:..\u8g2\csrc/u8x8_d_st7586s_s028hn118a.c ****     break;
 115:..\u8g2\csrc/u8x8_d_st7586s_s028hn118a.c ****   case U8X8_MSG_DISPLAY_SET_POWER_SAVE:
 116:..\u8g2\csrc/u8x8_d_st7586s_s028hn118a.c ****     if (arg_int == 0)
 117:..\u8g2\csrc/u8x8_d_st7586s_s028hn118a.c ****       u8x8_cad_SendSequence(u8x8, u8x8_d_st7586s_sleep_off);
 118:..\u8g2\csrc/u8x8_d_st7586s_s028hn118a.c ****     else
 119:..\u8g2\csrc/u8x8_d_st7586s_s028hn118a.c ****       u8x8_cad_SendSequence(u8x8, u8x8_d_st7586s_sleep_on);
 120:..\u8g2\csrc/u8x8_d_st7586s_s028hn118a.c ****     break;
 121:..\u8g2\csrc/u8x8_d_st7586s_s028hn118a.c **** #ifdef U8X8_WITH_SET_CONTRAST
 122:..\u8g2\csrc/u8x8_d_st7586s_s028hn118a.c ****   case U8X8_MSG_DISPLAY_SET_CONTRAST:
 123:..\u8g2\csrc/u8x8_d_st7586s_s028hn118a.c ****     u8x8_cad_StartTransfer(u8x8);
 124:..\u8g2\csrc/u8x8_d_st7586s_s028hn118a.c ****     u8x8_cad_SendCmd(u8x8, 0x0C0);
 125:..\u8g2\csrc/u8x8_d_st7586s_s028hn118a.c ****     u8x8_cad_SendArg(u8x8, arg_int);
 126:..\u8g2\csrc/u8x8_d_st7586s_s028hn118a.c ****     u8x8_cad_SendArg(u8x8, 0);
 127:..\u8g2\csrc/u8x8_d_st7586s_s028hn118a.c ****     u8x8_cad_EndTransfer(u8x8);
 128:..\u8g2\csrc/u8x8_d_st7586s_s028hn118a.c ****     break;
 129:..\u8g2\csrc/u8x8_d_st7586s_s028hn118a.c **** #endif
 130:..\u8g2\csrc/u8x8_d_st7586s_s028hn118a.c ****   default:
 131:..\u8g2\csrc/u8x8_d_st7586s_s028hn118a.c ****     return 0;
 132:..\u8g2\csrc/u8x8_d_st7586s_s028hn118a.c ****   }
 133:..\u8g2\csrc/u8x8_d_st7586s_s028hn118a.c ****   return 1;
 181              		.loc 1 133 0
 182 00c0 0120     		movs	r0, #1
 114:..\u8g2\csrc/u8x8_d_st7586s_s028hn118a.c ****     break;
 183              		.loc 1 114 0
 184 00c2 1EE0     		b	.L2
 185              	.LVL26:
 186              	.L5:
 116:..\u8g2\csrc/u8x8_d_st7586s_s028hn118a.c ****       u8x8_cad_SendSequence(u8x8, u8x8_d_st7586s_sleep_off);
 187              		.loc 1 116 0
 188 00c4 22B9     		cbnz	r2, .L13
 117:..\u8g2\csrc/u8x8_d_st7586s_s028hn118a.c ****     else
 189              		.loc 1 117 0
 190 00c6 1049     		ldr	r1, .L18
 191              	.LVL27:
 192 00c8 FFF7FEFF 		bl	u8x8_cad_SendSequence
 193              	.LVL28:
 194              		.loc 1 133 0
 195 00cc 0120     		movs	r0, #1
 196 00ce 18E0     		b	.L2
 197              	.LVL29:
 198              	.L13:
 119:..\u8g2\csrc/u8x8_d_st7586s_s028hn118a.c ****     break;
 199              		.loc 1 119 0
 200 00d0 0E49     		ldr	r1, .L18+4
 201              	.LVL30:
ARM GAS  C:\Users\brian\AppData\Local\Temp\ccKWjjyA.s 			page 7


 202 00d2 FFF7FEFF 		bl	u8x8_cad_SendSequence
 203              	.LVL31:
 204              		.loc 1 133 0
 205 00d6 0120     		movs	r0, #1
 206 00d8 13E0     		b	.L2
 207              	.LVL32:
 208              	.L3:
 123:..\u8g2\csrc/u8x8_d_st7586s_s028hn118a.c ****     u8x8_cad_SendCmd(u8x8, 0x0C0);
 209              		.loc 1 123 0
 210 00da FFF7FEFF 		bl	u8x8_cad_StartTransfer
 211              	.LVL33:
 124:..\u8g2\csrc/u8x8_d_st7586s_s028hn118a.c ****     u8x8_cad_SendArg(u8x8, arg_int);
 212              		.loc 1 124 0
 213 00de C021     		movs	r1, #192
 214 00e0 3046     		mov	r0, r6
 215 00e2 FFF7FEFF 		bl	u8x8_cad_SendCmd
 216              	.LVL34:
 125:..\u8g2\csrc/u8x8_d_st7586s_s028hn118a.c ****     u8x8_cad_SendArg(u8x8, 0);
 217              		.loc 1 125 0
 218 00e6 2146     		mov	r1, r4
 219 00e8 3046     		mov	r0, r6
 220 00ea FFF7FEFF 		bl	u8x8_cad_SendArg
 221              	.LVL35:
 126:..\u8g2\csrc/u8x8_d_st7586s_s028hn118a.c ****     u8x8_cad_EndTransfer(u8x8);
 222              		.loc 1 126 0
 223 00ee 0021     		movs	r1, #0
 224 00f0 3046     		mov	r0, r6
 225 00f2 FFF7FEFF 		bl	u8x8_cad_SendArg
 226              	.LVL36:
 127:..\u8g2\csrc/u8x8_d_st7586s_s028hn118a.c ****     break;
 227              		.loc 1 127 0
 228 00f6 3046     		mov	r0, r6
 229 00f8 FFF7FEFF 		bl	u8x8_cad_EndTransfer
 230              	.LVL37:
 231              		.loc 1 133 0
 232 00fc 0120     		movs	r0, #1
 128:..\u8g2\csrc/u8x8_d_st7586s_s028hn118a.c **** #endif
 233              		.loc 1 128 0
 234 00fe 00E0     		b	.L2
 235              	.LVL38:
 236              	.L16:
 131:..\u8g2\csrc/u8x8_d_st7586s_s028hn118a.c ****   }
 237              		.loc 1 131 0
 238 0100 0020     		movs	r0, #0
 239              	.LVL39:
 240              	.L2:
 134:..\u8g2\csrc/u8x8_d_st7586s_s028hn118a.c **** }
 241              		.loc 1 134 0
 242 0102 02B0     		add	sp, sp, #8
 243              		.cfi_def_cfa_offset 16
 244              		@ sp needed
 245 0104 70BD     		pop	{r4, r5, r6, pc}
 246              	.LVL40:
 247              	.L19:
 248 0106 00BF     		.align	2
 249              	.L18:
 250 0108 00000000 		.word	.LANCHOR0
ARM GAS  C:\Users\brian\AppData\Local\Temp\ccKWjjyA.s 			page 8


 251 010c 08000000 		.word	.LANCHOR0+8
 252              		.cfi_endproc
 253              	.LFE0:
 254              		.size	u8x8_d_st7586s_common, .-u8x8_d_st7586s_common
 255              		.section	.text.u8x8_d_st7586s_s028hn118a,"ax",%progbits
 256              		.align	2
 257              		.global	u8x8_d_st7586s_s028hn118a
 258              		.thumb
 259              		.thumb_func
 260              		.type	u8x8_d_st7586s_s028hn118a, %function
 261              	u8x8_d_st7586s_s028hn118a:
 262              	.LFB1:
 135:..\u8g2\csrc/u8x8_d_st7586s_s028hn118a.c **** 
 136:..\u8g2\csrc/u8x8_d_st7586s_s028hn118a.c **** static const uint8_t u8x8_d_st7586s_s028hn118a_init_seq[] = {
 137:..\u8g2\csrc/u8x8_d_st7586s_s028hn118a.c ****   U8X8_START_TRANSFER(),/* enable chip */
 138:..\u8g2\csrc/u8x8_d_st7586s_s028hn118a.c ****   U8X8_END_TRANSFER(),/* disable chip */
 139:..\u8g2\csrc/u8x8_d_st7586s_s028hn118a.c **** //  U8G_ESC_RST(15), /* hardware reset */
 140:..\u8g2\csrc/u8x8_d_st7586s_s028hn118a.c ****   U8X8_DLY(60),   /* Delay 60 ms */
 141:..\u8g2\csrc/u8x8_d_st7586s_s028hn118a.c ****   U8X8_START_TRANSFER(),/* enable chip */
 142:..\u8g2\csrc/u8x8_d_st7586s_s028hn118a.c **** 
 143:..\u8g2\csrc/u8x8_d_st7586s_s028hn118a.c ****   U8X8_C(0x001), // Soft reset
 144:..\u8g2\csrc/u8x8_d_st7586s_s028hn118a.c ****   U8X8_DLY(60), // Delay 120 ms
 145:..\u8g2\csrc/u8x8_d_st7586s_s028hn118a.c **** 
 146:..\u8g2\csrc/u8x8_d_st7586s_s028hn118a.c ****   U8X8_C(0x011), // Sleep Out
 147:..\u8g2\csrc/u8x8_d_st7586s_s028hn118a.c ****   U8X8_C(0x028), // Display OFF
 148:..\u8g2\csrc/u8x8_d_st7586s_s028hn118a.c ****   U8X8_DLY(25), // Delay 50 ms
 149:..\u8g2\csrc/u8x8_d_st7586s_s028hn118a.c **** 
 150:..\u8g2\csrc/u8x8_d_st7586s_s028hn118a.c ****   U8X8_CAA(0x0C0,0x0E5,0x00),// Vop = F0h in trace a bit too dark
 151:..\u8g2\csrc/u8x8_d_st7586s_s028hn118a.c **** 
 152:..\u8g2\csrc/u8x8_d_st7586s_s028hn118a.c ****   U8X8_CA(0x0C3,0x004), // BIAS = 1/10 0x04 in trace
 153:..\u8g2\csrc/u8x8_d_st7586s_s028hn118a.c **** 
 154:..\u8g2\csrc/u8x8_d_st7586s_s028hn118a.c ****   U8X8_CA(0x0C4,0x005), // Booster = x6 0x05 in trace
 155:..\u8g2\csrc/u8x8_d_st7586s_s028hn118a.c **** 
 156:..\u8g2\csrc/u8x8_d_st7586s_s028hn118a.c ****   U8X8_CA(0x0D0,0x01D), // Enable Analog Circuit
 157:..\u8g2\csrc/u8x8_d_st7586s_s028hn118a.c **** 
 158:..\u8g2\csrc/u8x8_d_st7586s_s028hn118a.c ****   U8X8_CA(0x0B3,0x000), // Set FOSC divider
 159:..\u8g2\csrc/u8x8_d_st7586s_s028hn118a.c **** 
 160:..\u8g2\csrc/u8x8_d_st7586s_s028hn118a.c ****   U8X8_CA(0x0B5,0x08B), // N-Line = 0
 161:..\u8g2\csrc/u8x8_d_st7586s_s028hn118a.c **** 
 162:..\u8g2\csrc/u8x8_d_st7586s_s028hn118a.c ****   U8X8_C(0x039), // 0x39 Monochrome mode. 0x38 - gray Mode
 163:..\u8g2\csrc/u8x8_d_st7586s_s028hn118a.c **** 
 164:..\u8g2\csrc/u8x8_d_st7586s_s028hn118a.c ****   U8X8_C(0x03A), // Enable DDRAM Interface
 165:..\u8g2\csrc/u8x8_d_st7586s_s028hn118a.c ****   U8X8_A(0x002), // monochrome and 4-level
 166:..\u8g2\csrc/u8x8_d_st7586s_s028hn118a.c **** 
 167:..\u8g2\csrc/u8x8_d_st7586s_s028hn118a.c ****   U8X8_C(0x036), // Scan Direction Setting
 168:..\u8g2\csrc/u8x8_d_st7586s_s028hn118a.c ****   U8X8_A(0x000), // COM0 -> COM159 SEG0 -> SEG384
 169:..\u8g2\csrc/u8x8_d_st7586s_s028hn118a.c **** 
 170:..\u8g2\csrc/u8x8_d_st7586s_s028hn118a.c ****   U8X8_C(0x0B0), // Duty Setting (num rows - 1)
 171:..\u8g2\csrc/u8x8_d_st7586s_s028hn118a.c ****   U8X8_A(0x087), // should be 0x87 but caused flicker 0x9F
 172:..\u8g2\csrc/u8x8_d_st7586s_s028hn118a.c **** 
 173:..\u8g2\csrc/u8x8_d_st7586s_s028hn118a.c ****   U8X8_C(0x020), // Display inversion off
 174:..\u8g2\csrc/u8x8_d_st7586s_s028hn118a.c **** 
 175:..\u8g2\csrc/u8x8_d_st7586s_s028hn118a.c ****   U8X8_C(0x02A), // Column Address Setting
 176:..\u8g2\csrc/u8x8_d_st7586s_s028hn118a.c ****   U8X8_A(0x000), // COL0 -> COL127
 177:..\u8g2\csrc/u8x8_d_st7586s_s028hn118a.c ****   U8X8_A(0x000), // 
 178:..\u8g2\csrc/u8x8_d_st7586s_s028hn118a.c ****   U8X8_A(0x000), //
 179:..\u8g2\csrc/u8x8_d_st7586s_s028hn118a.c ****   U8X8_A(0x07f), // 128*3=384 pixels
ARM GAS  C:\Users\brian\AppData\Local\Temp\ccKWjjyA.s 			page 9


 180:..\u8g2\csrc/u8x8_d_st7586s_s028hn118a.c **** 
 181:..\u8g2\csrc/u8x8_d_st7586s_s028hn118a.c ****   U8X8_C(0x02B), // Row Address Setting
 182:..\u8g2\csrc/u8x8_d_st7586s_s028hn118a.c ****   U8X8_A(0x000), // ROW0 -> ROW135
 183:..\u8g2\csrc/u8x8_d_st7586s_s028hn118a.c ****   U8X8_A(0x000), //
 184:..\u8g2\csrc/u8x8_d_st7586s_s028hn118a.c ****   U8X8_A(0x000), //
 185:..\u8g2\csrc/u8x8_d_st7586s_s028hn118a.c ****   U8X8_A(0x087), // 136 pixels
 186:..\u8g2\csrc/u8x8_d_st7586s_s028hn118a.c **** 
 187:..\u8g2\csrc/u8x8_d_st7586s_s028hn118a.c ****   U8X8_C(0x0F1), // Frame rate monochrome
 188:..\u8g2\csrc/u8x8_d_st7586s_s028hn118a.c ****   U8X8_A(0x00C), // The factory firmware set this to 49.0 Hz 0x07
 189:..\u8g2\csrc/u8x8_d_st7586s_s028hn118a.c ****   U8X8_A(0x00C), // This caused a shimmer under 50Hz LED lights
 190:..\u8g2\csrc/u8x8_d_st7586s_s028hn118a.c ****   U8X8_A(0x00C), // 69.0 Hz (0x0C) fixes this and should avoid the
 191:..\u8g2\csrc/u8x8_d_st7586s_s028hn118a.c ****   U8X8_A(0x00C), // issue in the US too
 192:..\u8g2\csrc/u8x8_d_st7586s_s028hn118a.c ****   
 193:..\u8g2\csrc/u8x8_d_st7586s_s028hn118a.c ****   U8X8_C(0x029), // Display ON
 194:..\u8g2\csrc/u8x8_d_st7586s_s028hn118a.c ****   U8X8_END_TRANSFER(),/* disable chip */
 195:..\u8g2\csrc/u8x8_d_st7586s_s028hn118a.c ****   U8X8_END()  /* end of sequence */
 196:..\u8g2\csrc/u8x8_d_st7586s_s028hn118a.c **** };
 197:..\u8g2\csrc/u8x8_d_st7586s_s028hn118a.c **** 
 198:..\u8g2\csrc/u8x8_d_st7586s_s028hn118a.c **** static const u8x8_display_info_t u8x8_st7586s_s028hn118a_display_info =
 199:..\u8g2\csrc/u8x8_d_st7586s_s028hn118a.c **** {
 200:..\u8g2\csrc/u8x8_d_st7586s_s028hn118a.c ****   /* chip_enable_level = */ 0,
 201:..\u8g2\csrc/u8x8_d_st7586s_s028hn118a.c ****   /* chip_disable_level = */ 1,
 202:..\u8g2\csrc/u8x8_d_st7586s_s028hn118a.c **** 
 203:..\u8g2\csrc/u8x8_d_st7586s_s028hn118a.c ****   /* post_chip_enable_wait_ns = */ 5,
 204:..\u8g2\csrc/u8x8_d_st7586s_s028hn118a.c ****   /* pre_chip_disable_wait_ns = */ 5,
 205:..\u8g2\csrc/u8x8_d_st7586s_s028hn118a.c ****   /* reset_pulse_width_ms = */ 1,
 206:..\u8g2\csrc/u8x8_d_st7586s_s028hn118a.c ****   /* post_reset_wait_ms = */ 6,
 207:..\u8g2\csrc/u8x8_d_st7586s_s028hn118a.c ****   /* sda_setup_time_ns = */ 20,
 208:..\u8g2\csrc/u8x8_d_st7586s_s028hn118a.c ****   /* sck_pulse_width_ns = */  100,  /* datasheet ST7586S */
 209:..\u8g2\csrc/u8x8_d_st7586s_s028hn118a.c ****   /* sck_clock_hz = */ 8000000UL, /* since Arduino 1.6.0, the SPI bus speed in Hz. Should be  10000
 210:..\u8g2\csrc/u8x8_d_st7586s_s028hn118a.c ****   /* ST7586+Atmega128RFA1 works with 8MHz */
 211:..\u8g2\csrc/u8x8_d_st7586s_s028hn118a.c ****   /* spi_mode = */ 3,   /* active high, rising edge */
 212:..\u8g2\csrc/u8x8_d_st7586s_s028hn118a.c ****   /* i2c_bus_clock_100kHz = */ 4,
 213:..\u8g2\csrc/u8x8_d_st7586s_s028hn118a.c ****   /* data_setup_time_ns = */ 20, /* datasheet suggests min 20 */
 214:..\u8g2\csrc/u8x8_d_st7586s_s028hn118a.c ****   /* write_pulse_width_ns = */ 40,
 215:..\u8g2\csrc/u8x8_d_st7586s_s028hn118a.c ****   /* tile_width = */ 48,
 216:..\u8g2\csrc/u8x8_d_st7586s_s028hn118a.c ****   /* tile_height = */ 17,
 217:..\u8g2\csrc/u8x8_d_st7586s_s028hn118a.c ****   /* default_x_offset = */ 0,
 218:..\u8g2\csrc/u8x8_d_st7586s_s028hn118a.c ****   /* flipmode_x_offset = */ 0,
 219:..\u8g2\csrc/u8x8_d_st7586s_s028hn118a.c ****   /* pixel_width = */ 384,
 220:..\u8g2\csrc/u8x8_d_st7586s_s028hn118a.c ****   /* pixel_height = */ 136
 221:..\u8g2\csrc/u8x8_d_st7586s_s028hn118a.c **** };
 222:..\u8g2\csrc/u8x8_d_st7586s_s028hn118a.c **** 
 223:..\u8g2\csrc/u8x8_d_st7586s_s028hn118a.c **** /*******************************************************************************
 224:..\u8g2\csrc/u8x8_d_st7586s_s028hn118a.c ****  * st7586s_s028hn118a driver. This is the display in the SMART Response XE. This requires 16 bit mo
 225:..\u8g2\csrc/u8x8_d_st7586s_s028hn118a.c ****  ******************************************************************************/
 226:..\u8g2\csrc/u8x8_d_st7586s_s028hn118a.c **** uint8_t u8x8_d_st7586s_s028hn118a(u8x8_t *u8x8, uint8_t msg, uint8_t arg_int, void *arg_ptr) {
 263              		.loc 1 226 0
 264              		.cfi_startproc
 265              		@ args = 0, pretend = 0, frame = 0
 266              		@ frame_needed = 0, uses_anonymous_args = 0
 267              	.LVL41:
 268 0000 70B5     		push	{r4, r5, r6, lr}
 269              		.cfi_def_cfa_offset 16
 270              		.cfi_offset 4, -16
 271              		.cfi_offset 5, -12
 272              		.cfi_offset 6, -8
ARM GAS  C:\Users\brian\AppData\Local\Temp\ccKWjjyA.s 			page 10


 273              		.cfi_offset 14, -4
 274 0002 0546     		mov	r5, r0
 275 0004 0C46     		mov	r4, r1
 276 0006 1646     		mov	r6, r2
 227:..\u8g2\csrc/u8x8_d_st7586s_s028hn118a.c ****   if (u8x8_d_st7586s_common(u8x8, msg, arg_int, arg_ptr) != 0)
 277              		.loc 1 227 0
 278 0008 FFF7FEFF 		bl	u8x8_d_st7586s_common
 279              	.LVL42:
 280 000c 58BB     		cbnz	r0, .L26
 281 000e 0346     		mov	r3, r0
 228:..\u8g2\csrc/u8x8_d_st7586s_s028hn118a.c ****     return 1;
 229:..\u8g2\csrc/u8x8_d_st7586s_s028hn118a.c ****   
 230:..\u8g2\csrc/u8x8_d_st7586s_s028hn118a.c ****   switch (msg) {
 282              		.loc 1 230 0
 283 0010 0A2C     		cmp	r4, #10
 284 0012 04D0     		beq	.L22
 285 0014 0D2C     		cmp	r4, #13
 286 0016 11D0     		beq	.L23
 287 0018 092C     		cmp	r4, #9
 288 001a 25D1     		bne	.L21
 289 001c 08E0     		b	.L24
 290              	.L22:
 231:..\u8g2\csrc/u8x8_d_st7586s_s028hn118a.c ****   case U8X8_MSG_DISPLAY_INIT:
 232:..\u8g2\csrc/u8x8_d_st7586s_s028hn118a.c ****     u8x8_d_helper_display_init(u8x8);
 291              		.loc 1 232 0
 292 001e 2846     		mov	r0, r5
 293 0020 FFF7FEFF 		bl	u8x8_d_helper_display_init
 294              	.LVL43:
 233:..\u8g2\csrc/u8x8_d_st7586s_s028hn118a.c ****     u8x8_cad_SendSequence(u8x8, u8x8_d_st7586s_s028hn118a_init_seq);
 295              		.loc 1 233 0
 296 0024 1149     		ldr	r1, .L28
 297 0026 2846     		mov	r0, r5
 298 0028 FFF7FEFF 		bl	u8x8_cad_SendSequence
 299              	.LVL44:
 234:..\u8g2\csrc/u8x8_d_st7586s_s028hn118a.c ****     break;
 235:..\u8g2\csrc/u8x8_d_st7586s_s028hn118a.c ****   case U8X8_MSG_DISPLAY_SETUP_MEMORY:
 236:..\u8g2\csrc/u8x8_d_st7586s_s028hn118a.c ****     u8x8_d_helper_display_setup_memory(u8x8, &u8x8_st7586s_s028hn118a_display_info);
 237:..\u8g2\csrc/u8x8_d_st7586s_s028hn118a.c ****     break;
 238:..\u8g2\csrc/u8x8_d_st7586s_s028hn118a.c ****   case U8X8_MSG_DISPLAY_SET_FLIP_MODE:
 239:..\u8g2\csrc/u8x8_d_st7586s_s028hn118a.c ****   	if ( arg_int == 0 )
 240:..\u8g2\csrc/u8x8_d_st7586s_s028hn118a.c ****     {
 241:..\u8g2\csrc/u8x8_d_st7586s_s028hn118a.c ****        u8x8_cad_SendSequence(u8x8, u8x8_d_st7586s_s028hn118a_flip0_seq);
 242:..\u8g2\csrc/u8x8_d_st7586s_s028hn118a.c ****        u8x8->x_offset = u8x8->display_info->default_x_offset;
 243:..\u8g2\csrc/u8x8_d_st7586s_s028hn118a.c ****     }
 244:..\u8g2\csrc/u8x8_d_st7586s_s028hn118a.c ****     else
 245:..\u8g2\csrc/u8x8_d_st7586s_s028hn118a.c ****     {
 246:..\u8g2\csrc/u8x8_d_st7586s_s028hn118a.c ****       u8x8_cad_SendSequence(u8x8, u8x8_d_st7586s_s028hn118a_flip1_seq);
 247:..\u8g2\csrc/u8x8_d_st7586s_s028hn118a.c ****       u8x8->x_offset = u8x8->display_info->flipmode_x_offset;
 248:..\u8g2\csrc/u8x8_d_st7586s_s028hn118a.c ****     }	
 249:..\u8g2\csrc/u8x8_d_st7586s_s028hn118a.c ****     break;
 250:..\u8g2\csrc/u8x8_d_st7586s_s028hn118a.c ****   default:
 251:..\u8g2\csrc/u8x8_d_st7586s_s028hn118a.c ****     return 0;
 252:..\u8g2\csrc/u8x8_d_st7586s_s028hn118a.c ****   }
 253:..\u8g2\csrc/u8x8_d_st7586s_s028hn118a.c ****   return 1;
 300              		.loc 1 253 0
 301 002c 0123     		movs	r3, #1
 234:..\u8g2\csrc/u8x8_d_st7586s_s028hn118a.c ****     break;
ARM GAS  C:\Users\brian\AppData\Local\Temp\ccKWjjyA.s 			page 11


 302              		.loc 1 234 0
 303 002e 1BE0     		b	.L21
 304              	.L24:
 236:..\u8g2\csrc/u8x8_d_st7586s_s028hn118a.c ****     break;
 305              		.loc 1 236 0
 306 0030 0F49     		ldr	r1, .L28+4
 307 0032 2846     		mov	r0, r5
 308 0034 FFF7FEFF 		bl	u8x8_d_helper_display_setup_memory
 309              	.LVL45:
 310              		.loc 1 253 0
 311 0038 0123     		movs	r3, #1
 237:..\u8g2\csrc/u8x8_d_st7586s_s028hn118a.c ****   case U8X8_MSG_DISPLAY_SET_FLIP_MODE:
 312              		.loc 1 237 0
 313 003a 15E0     		b	.L21
 314              	.L23:
 239:..\u8g2\csrc/u8x8_d_st7586s_s028hn118a.c ****     {
 315              		.loc 1 239 0
 316 003c 4EB9     		cbnz	r6, .L25
 241:..\u8g2\csrc/u8x8_d_st7586s_s028hn118a.c ****        u8x8->x_offset = u8x8->display_info->default_x_offset;
 317              		.loc 1 241 0
 318 003e 0D49     		ldr	r1, .L28+8
 319 0040 2846     		mov	r0, r5
 320 0042 FFF7FEFF 		bl	u8x8_cad_SendSequence
 321              	.LVL46:
 242:..\u8g2\csrc/u8x8_d_st7586s_s028hn118a.c ****     }
 322              		.loc 1 242 0
 323 0046 2B68     		ldr	r3, [r5]
 324 0048 9B7C     		ldrb	r3, [r3, #18]	@ zero_extendqisi2
 325 004a 85F82230 		strb	r3, [r5, #34]
 326              		.loc 1 253 0
 327 004e 0123     		movs	r3, #1
 328 0050 0AE0     		b	.L21
 329              	.L25:
 246:..\u8g2\csrc/u8x8_d_st7586s_s028hn118a.c ****       u8x8->x_offset = u8x8->display_info->flipmode_x_offset;
 330              		.loc 1 246 0
 331 0052 0949     		ldr	r1, .L28+12
 332 0054 2846     		mov	r0, r5
 333 0056 FFF7FEFF 		bl	u8x8_cad_SendSequence
 334              	.LVL47:
 247:..\u8g2\csrc/u8x8_d_st7586s_s028hn118a.c ****     }	
 335              		.loc 1 247 0
 336 005a 2B68     		ldr	r3, [r5]
 337 005c DB7C     		ldrb	r3, [r3, #19]	@ zero_extendqisi2
 338 005e 85F82230 		strb	r3, [r5, #34]
 339              		.loc 1 253 0
 340 0062 0123     		movs	r3, #1
 341 0064 00E0     		b	.L21
 342              	.L26:
 228:..\u8g2\csrc/u8x8_d_st7586s_s028hn118a.c ****   
 343              		.loc 1 228 0
 344 0066 0123     		movs	r3, #1
 345              	.L21:
 254:..\u8g2\csrc/u8x8_d_st7586s_s028hn118a.c **** }
 346              		.loc 1 254 0
 347 0068 1846     		mov	r0, r3
 348 006a 70BD     		pop	{r4, r5, r6, pc}
 349              	.LVL48:
ARM GAS  C:\Users\brian\AppData\Local\Temp\ccKWjjyA.s 			page 12


 350              	.L29:
 351              		.align	2
 352              	.L28:
 353 006c 10000000 		.word	.LANCHOR0+16
 354 0070 6C000000 		.word	.LANCHOR0+108
 355 0074 84000000 		.word	.LANCHOR0+132
 356 0078 90000000 		.word	.LANCHOR0+144
 357              		.cfi_endproc
 358              	.LFE1:
 359              		.size	u8x8_d_st7586s_s028hn118a, .-u8x8_d_st7586s_s028hn118a
 360              		.section	.rodata
 361              		.align	2
 362              		.set	.LANCHOR0,. + 0
 363              		.type	u8x8_d_st7586s_sleep_off, %object
 364              		.size	u8x8_d_st7586s_sleep_off, 7
 365              	u8x8_d_st7586s_sleep_off:
 366 0000 18       		.byte	24
 367 0001 15       		.byte	21
 368 0002 11       		.byte	17
 369 0003 FE       		.byte	-2
 370 0004 32       		.byte	50
 371 0005 19       		.byte	25
 372 0006 FF       		.byte	-1
 373 0007 00       		.space	1
 374              		.type	u8x8_d_st7586s_sleep_on, %object
 375              		.size	u8x8_d_st7586s_sleep_on, 5
 376              	u8x8_d_st7586s_sleep_on:
 377 0008 18       		.byte	24
 378 0009 15       		.byte	21
 379 000a 10       		.byte	16
 380 000b 19       		.byte	25
 381 000c FF       		.byte	-1
 382 000d 000000   		.space	3
 383              		.type	u8x8_d_st7586s_s028hn118a_init_seq, %object
 384              		.size	u8x8_d_st7586s_s028hn118a_init_seq, 91
 385              	u8x8_d_st7586s_s028hn118a_init_seq:
 386 0010 18       		.byte	24
 387 0011 19       		.byte	25
 388 0012 FE       		.byte	-2
 389 0013 3C       		.byte	60
 390 0014 18       		.byte	24
 391 0015 15       		.byte	21
 392 0016 01       		.byte	1
 393 0017 FE       		.byte	-2
 394 0018 3C       		.byte	60
 395 0019 15       		.byte	21
 396 001a 11       		.byte	17
 397 001b 15       		.byte	21
 398 001c 28       		.byte	40
 399 001d FE       		.byte	-2
 400 001e 19       		.byte	25
 401 001f 15       		.byte	21
 402 0020 C0       		.byte	-64
 403 0021 16       		.byte	22
 404 0022 E5       		.byte	-27
 405 0023 16       		.byte	22
 406 0024 00       		.byte	0
ARM GAS  C:\Users\brian\AppData\Local\Temp\ccKWjjyA.s 			page 13


 407 0025 15       		.byte	21
 408 0026 C3       		.byte	-61
 409 0027 16       		.byte	22
 410 0028 04       		.byte	4
 411 0029 15       		.byte	21
 412 002a C4       		.byte	-60
 413 002b 16       		.byte	22
 414 002c 05       		.byte	5
 415 002d 15       		.byte	21
 416 002e D0       		.byte	-48
 417 002f 16       		.byte	22
 418 0030 1D       		.byte	29
 419 0031 15       		.byte	21
 420 0032 B3       		.byte	-77
 421 0033 16       		.byte	22
 422 0034 00       		.byte	0
 423 0035 15       		.byte	21
 424 0036 B5       		.byte	-75
 425 0037 16       		.byte	22
 426 0038 8B       		.byte	-117
 427 0039 15       		.byte	21
 428 003a 39       		.byte	57
 429 003b 15       		.byte	21
 430 003c 3A       		.byte	58
 431 003d 16       		.byte	22
 432 003e 02       		.byte	2
 433 003f 15       		.byte	21
 434 0040 36       		.byte	54
 435 0041 16       		.byte	22
 436 0042 00       		.byte	0
 437 0043 15       		.byte	21
 438 0044 B0       		.byte	-80
 439 0045 16       		.byte	22
 440 0046 87       		.byte	-121
 441 0047 15       		.byte	21
 442 0048 20       		.byte	32
 443 0049 15       		.byte	21
 444 004a 2A       		.byte	42
 445 004b 16       		.byte	22
 446 004c 00       		.byte	0
 447 004d 16       		.byte	22
 448 004e 00       		.byte	0
 449 004f 16       		.byte	22
 450 0050 00       		.byte	0
 451 0051 16       		.byte	22
 452 0052 7F       		.byte	127
 453 0053 15       		.byte	21
 454 0054 2B       		.byte	43
 455 0055 16       		.byte	22
 456 0056 00       		.byte	0
 457 0057 16       		.byte	22
 458 0058 00       		.byte	0
 459 0059 16       		.byte	22
 460 005a 00       		.byte	0
 461 005b 16       		.byte	22
 462 005c 87       		.byte	-121
 463 005d 15       		.byte	21
ARM GAS  C:\Users\brian\AppData\Local\Temp\ccKWjjyA.s 			page 14


 464 005e F1       		.byte	-15
 465 005f 16       		.byte	22
 466 0060 0C       		.byte	12
 467 0061 16       		.byte	22
 468 0062 0C       		.byte	12
 469 0063 16       		.byte	22
 470 0064 0C       		.byte	12
 471 0065 16       		.byte	22
 472 0066 0C       		.byte	12
 473 0067 15       		.byte	21
 474 0068 29       		.byte	41
 475 0069 19       		.byte	25
 476 006a FF       		.byte	-1
 477 006b 00       		.space	1
 478              		.type	u8x8_st7586s_s028hn118a_display_info, %object
 479              		.size	u8x8_st7586s_s028hn118a_display_info, 24
 480              	u8x8_st7586s_s028hn118a_display_info:
 481 006c 00       		.byte	0
 482 006d 01       		.byte	1
 483 006e 05       		.byte	5
 484 006f 05       		.byte	5
 485 0070 01       		.byte	1
 486 0071 06       		.byte	6
 487 0072 14       		.byte	20
 488 0073 64       		.byte	100
 489 0074 00127A00 		.word	8000000
 490 0078 03       		.byte	3
 491 0079 04       		.byte	4
 492 007a 14       		.byte	20
 493 007b 28       		.byte	40
 494 007c 30       		.byte	48
 495 007d 11       		.byte	17
 496 007e 00       		.byte	0
 497 007f 00       		.byte	0
 498 0080 8001     		.short	384
 499 0082 8800     		.short	136
 500              		.type	u8x8_d_st7586s_s028hn118a_flip0_seq, %object
 501              		.size	u8x8_d_st7586s_s028hn118a_flip0_seq, 11
 502              	u8x8_d_st7586s_s028hn118a_flip0_seq:
 503 0084 18       		.byte	24
 504 0085 15       		.byte	21
 505 0086 36       		.byte	54
 506 0087 16       		.byte	22
 507 0088 00       		.byte	0
 508 0089 15       		.byte	21
 509 008a 37       		.byte	55
 510 008b 16       		.byte	22
 511 008c 00       		.byte	0
 512 008d 19       		.byte	25
 513 008e FF       		.byte	-1
 514 008f 00       		.space	1
 515              		.type	u8x8_d_st7586s_s028hn118a_flip1_seq, %object
 516              		.size	u8x8_d_st7586s_s028hn118a_flip1_seq, 11
 517              	u8x8_d_st7586s_s028hn118a_flip1_seq:
 518 0090 18       		.byte	24
 519 0091 15       		.byte	21
 520 0092 36       		.byte	54
ARM GAS  C:\Users\brian\AppData\Local\Temp\ccKWjjyA.s 			page 15


 521 0093 16       		.byte	22
 522 0094 C8       		.byte	-56
 523 0095 15       		.byte	21
 524 0096 37       		.byte	55
 525 0097 16       		.byte	22
 526 0098 18       		.byte	24
 527 0099 19       		.byte	25
 528 009a FF       		.byte	-1
 529              		.text
 530              	.Letext0:
 531              		.file 2 "c:\\program files (x86)\\cypress\\psoc creator\\4.4\\psoc creator\\import\\gnu\\arm\\5.4.
 532              		.file 3 "c:\\program files (x86)\\cypress\\psoc creator\\4.4\\psoc creator\\import\\gnu\\arm\\5.4.
 533              		.file 4 "..\\u8g2\\csrc\\u8x8.h"