ARM GAS  C:\Users\brian\AppData\Local\Temp\cchz3118.s 			page 1


   1              		.syntax unified
   2              		.cpu cortex-m3
   3              		.fpu softvfp
   4              		.eabi_attribute 20, 1
   5              		.eabi_attribute 21, 1
   6              		.eabi_attribute 23, 3
   7              		.eabi_attribute 24, 1
   8              		.eabi_attribute 25, 1
   9              		.eabi_attribute 26, 1
  10              		.eabi_attribute 30, 1
  11              		.eabi_attribute 34, 1
  12              		.eabi_attribute 18, 4
  13              		.thumb
  14              		.syntax unified
  15              		.file	"u8x8_d_ssd1306_64x32.c"
  16              		.text
  17              	.Ltext0:
  18              		.cfi_sections	.debug_frame
  19              		.section	.text.u8x8_d_ssd1306_64x32_generic,"ax",%progbits
  20              		.align	2
  21              		.thumb
  22              		.thumb_func
  23              		.type	u8x8_d_ssd1306_64x32_generic, %function
  24              	u8x8_d_ssd1306_64x32_generic:
  25              	.LFB0:
  26              		.file 1 "..\\u8g2\\csrc\\u8x8_d_ssd1306_64x32.c"
   1:..\u8g2\csrc/u8x8_d_ssd1306_64x32.c **** /*
   2:..\u8g2\csrc/u8x8_d_ssd1306_64x32.c **** 
   3:..\u8g2\csrc/u8x8_d_ssd1306_64x32.c ****   u8x8_d_ssd1306_64x32.c
   4:..\u8g2\csrc/u8x8_d_ssd1306_64x32.c **** 
   5:..\u8g2\csrc/u8x8_d_ssd1306_64x32.c ****   Universal 8bit Graphics Library (https://github.com/olikraus/u8g2/)
   6:..\u8g2\csrc/u8x8_d_ssd1306_64x32.c **** 
   7:..\u8g2\csrc/u8x8_d_ssd1306_64x32.c ****   Copyright (c) 2016, olikraus@gmail.com
   8:..\u8g2\csrc/u8x8_d_ssd1306_64x32.c ****   All rights reserved.
   9:..\u8g2\csrc/u8x8_d_ssd1306_64x32.c **** 
  10:..\u8g2\csrc/u8x8_d_ssd1306_64x32.c ****   Redistribution and use in source and binary forms, with or without modification, 
  11:..\u8g2\csrc/u8x8_d_ssd1306_64x32.c ****   are permitted provided that the following conditions are met:
  12:..\u8g2\csrc/u8x8_d_ssd1306_64x32.c **** 
  13:..\u8g2\csrc/u8x8_d_ssd1306_64x32.c ****   * Redistributions of source code must retain the above copyright notice, this list 
  14:..\u8g2\csrc/u8x8_d_ssd1306_64x32.c ****     of conditions and the following disclaimer.
  15:..\u8g2\csrc/u8x8_d_ssd1306_64x32.c ****     
  16:..\u8g2\csrc/u8x8_d_ssd1306_64x32.c ****   * Redistributions in binary form must reproduce the above copyright notice, this 
  17:..\u8g2\csrc/u8x8_d_ssd1306_64x32.c ****     list of conditions and the following disclaimer in the documentation and/or other 
  18:..\u8g2\csrc/u8x8_d_ssd1306_64x32.c ****     materials provided with the distribution.
  19:..\u8g2\csrc/u8x8_d_ssd1306_64x32.c **** 
  20:..\u8g2\csrc/u8x8_d_ssd1306_64x32.c ****   THIS SOFTWARE IS PROVIDED BY THE COPYRIGHT HOLDERS AND 
  21:..\u8g2\csrc/u8x8_d_ssd1306_64x32.c ****   CONTRIBUTORS "AS IS" AND ANY EXPRESS OR IMPLIED WARRANTIES, 
  22:..\u8g2\csrc/u8x8_d_ssd1306_64x32.c ****   INCLUDING, BUT NOT LIMITED TO, THE IMPLIED WARRANTIES OF 
  23:..\u8g2\csrc/u8x8_d_ssd1306_64x32.c ****   MERCHANTABILITY AND FITNESS FOR A PARTICULAR PURPOSE ARE 
  24:..\u8g2\csrc/u8x8_d_ssd1306_64x32.c ****   DISCLAIMED. IN NO EVENT SHALL THE COPYRIGHT HOLDER OR 
  25:..\u8g2\csrc/u8x8_d_ssd1306_64x32.c ****   CONTRIBUTORS BE LIABLE FOR ANY DIRECT, INDIRECT, INCIDENTAL, 
  26:..\u8g2\csrc/u8x8_d_ssd1306_64x32.c ****   SPECIAL, EXEMPLARY, OR CONSEQUENTIAL DAMAGES (INCLUDING, BUT 
  27:..\u8g2\csrc/u8x8_d_ssd1306_64x32.c ****   NOT LIMITED TO, PROCUREMENT OF SUBSTITUTE GOODS OR SERVICES; 
  28:..\u8g2\csrc/u8x8_d_ssd1306_64x32.c ****   LOSS OF USE, DATA, OR PROFITS; OR BUSINESS INTERRUPTION) HOWEVER 
  29:..\u8g2\csrc/u8x8_d_ssd1306_64x32.c ****   CAUSED AND ON ANY THEORY OF LIABILITY, WHETHER IN CONTRACT, 
  30:..\u8g2\csrc/u8x8_d_ssd1306_64x32.c ****   STRICT LIABILITY, OR TORT (INCLUDING NEGLIGENCE OR OTHERWISE) 
  31:..\u8g2\csrc/u8x8_d_ssd1306_64x32.c ****   ARISING IN ANY WAY OUT OF THE USE OF THIS SOFTWARE, EVEN IF 
ARM GAS  C:\Users\brian\AppData\Local\Temp\cchz3118.s 			page 2


  32:..\u8g2\csrc/u8x8_d_ssd1306_64x32.c ****   ADVISED OF THE POSSIBILITY OF SUCH DAMAGE.  
  33:..\u8g2\csrc/u8x8_d_ssd1306_64x32.c ****   
  34:..\u8g2\csrc/u8x8_d_ssd1306_64x32.c **** */
  35:..\u8g2\csrc/u8x8_d_ssd1306_64x32.c **** 
  36:..\u8g2\csrc/u8x8_d_ssd1306_64x32.c **** 
  37:..\u8g2\csrc/u8x8_d_ssd1306_64x32.c **** #include "u8x8.h"
  38:..\u8g2\csrc/u8x8_d_ssd1306_64x32.c **** 
  39:..\u8g2\csrc/u8x8_d_ssd1306_64x32.c **** 
  40:..\u8g2\csrc/u8x8_d_ssd1306_64x32.c **** 
  41:..\u8g2\csrc/u8x8_d_ssd1306_64x32.c **** 
  42:..\u8g2\csrc/u8x8_d_ssd1306_64x32.c **** static const uint8_t u8x8_d_ssd1306_64x32_powersave0_seq[] = {
  43:..\u8g2\csrc/u8x8_d_ssd1306_64x32.c ****   U8X8_START_TRANSFER(),             	/* enable chip, delay is part of the transfer start */
  44:..\u8g2\csrc/u8x8_d_ssd1306_64x32.c ****   U8X8_C(0x0af),		                /* display on */
  45:..\u8g2\csrc/u8x8_d_ssd1306_64x32.c ****   U8X8_END_TRANSFER(),             	/* disable chip */
  46:..\u8g2\csrc/u8x8_d_ssd1306_64x32.c ****   U8X8_END()             			/* end of sequence */
  47:..\u8g2\csrc/u8x8_d_ssd1306_64x32.c **** };
  48:..\u8g2\csrc/u8x8_d_ssd1306_64x32.c **** 
  49:..\u8g2\csrc/u8x8_d_ssd1306_64x32.c **** static const uint8_t u8x8_d_ssd1306_64x32_powersave1_seq[] = {
  50:..\u8g2\csrc/u8x8_d_ssd1306_64x32.c ****   U8X8_START_TRANSFER(),             	/* enable chip, delay is part of the transfer start */
  51:..\u8g2\csrc/u8x8_d_ssd1306_64x32.c ****   U8X8_C(0x0ae),		                /* display off */
  52:..\u8g2\csrc/u8x8_d_ssd1306_64x32.c ****   U8X8_END_TRANSFER(),             	/* disable chip */
  53:..\u8g2\csrc/u8x8_d_ssd1306_64x32.c ****   U8X8_END()             			/* end of sequence */
  54:..\u8g2\csrc/u8x8_d_ssd1306_64x32.c **** };
  55:..\u8g2\csrc/u8x8_d_ssd1306_64x32.c **** 
  56:..\u8g2\csrc/u8x8_d_ssd1306_64x32.c **** static const uint8_t u8x8_d_ssd1306_64x32_flip0_seq[] = {
  57:..\u8g2\csrc/u8x8_d_ssd1306_64x32.c ****   U8X8_START_TRANSFER(),             	/* enable chip, delay is part of the transfer start */
  58:..\u8g2\csrc/u8x8_d_ssd1306_64x32.c ****   U8X8_C(0x0a1),				/* segment remap a0/a1*/
  59:..\u8g2\csrc/u8x8_d_ssd1306_64x32.c ****   U8X8_C(0x0c8),				/* c0: scan dir normal, c8: reverse */
  60:..\u8g2\csrc/u8x8_d_ssd1306_64x32.c ****   U8X8_END_TRANSFER(),             	/* disable chip */
  61:..\u8g2\csrc/u8x8_d_ssd1306_64x32.c ****   U8X8_END()             			/* end of sequence */
  62:..\u8g2\csrc/u8x8_d_ssd1306_64x32.c **** };
  63:..\u8g2\csrc/u8x8_d_ssd1306_64x32.c **** 
  64:..\u8g2\csrc/u8x8_d_ssd1306_64x32.c **** static const uint8_t u8x8_d_ssd1306_64x32_flip1_seq[] = {
  65:..\u8g2\csrc/u8x8_d_ssd1306_64x32.c ****   U8X8_START_TRANSFER(),             	/* enable chip, delay is part of the transfer start */
  66:..\u8g2\csrc/u8x8_d_ssd1306_64x32.c ****   U8X8_C(0x0a0),				/* segment remap a0/a1*/
  67:..\u8g2\csrc/u8x8_d_ssd1306_64x32.c ****   U8X8_C(0x0c0),				/* c0: scan dir normal, c8: reverse */
  68:..\u8g2\csrc/u8x8_d_ssd1306_64x32.c ****   U8X8_END_TRANSFER(),             	/* disable chip */
  69:..\u8g2\csrc/u8x8_d_ssd1306_64x32.c ****   U8X8_END()             			/* end of sequence */
  70:..\u8g2\csrc/u8x8_d_ssd1306_64x32.c **** };
  71:..\u8g2\csrc/u8x8_d_ssd1306_64x32.c **** 
  72:..\u8g2\csrc/u8x8_d_ssd1306_64x32.c **** 
  73:..\u8g2\csrc/u8x8_d_ssd1306_64x32.c **** static uint8_t u8x8_d_ssd1306_64x32_generic(u8x8_t *u8x8, uint8_t msg, uint8_t arg_int, void *arg_p
  74:..\u8g2\csrc/u8x8_d_ssd1306_64x32.c **** {
  27              		.loc 1 74 0
  28              		.cfi_startproc
  29              		@ args = 0, pretend = 0, frame = 0
  30              		@ frame_needed = 0, uses_anonymous_args = 0
  31              	.LVL0:
  32 0000 F8B5     		push	{r3, r4, r5, r6, r7, lr}
  33              		.cfi_def_cfa_offset 24
  34              		.cfi_offset 3, -24
  35              		.cfi_offset 4, -20
  36              		.cfi_offset 5, -16
  37              		.cfi_offset 6, -12
  38              		.cfi_offset 7, -8
  39              		.cfi_offset 14, -4
  40 0002 0546     		mov	r5, r0
ARM GAS  C:\Users\brian\AppData\Local\Temp\cchz3118.s 			page 3


  41 0004 1446     		mov	r4, r2
  42 0006 1E46     		mov	r6, r3
  75:..\u8g2\csrc/u8x8_d_ssd1306_64x32.c ****   uint8_t x, c;
  76:..\u8g2\csrc/u8x8_d_ssd1306_64x32.c ****   uint8_t *ptr;
  77:..\u8g2\csrc/u8x8_d_ssd1306_64x32.c ****   switch(msg)
  43              		.loc 1 77 0
  44 0008 0B39     		subs	r1, r1, #11
  45              	.LVL1:
  46 000a 0429     		cmp	r1, #4
  47 000c 5CD8     		bhi	.L11
  48 000e DFE801F0 		tbb	[pc, r1]
  49              	.LVL2:
  50              	.L4:
  51 0012 03       		.byte	(.L3-.L4)/2
  52 0013 5B       		.byte	(.L11-.L4)/2
  53 0014 0E       		.byte	(.L5-.L4)/2
  54 0015 21       		.byte	(.L6-.L4)/2
  55 0016 30       		.byte	(.L7-.L4)/2
  56 0017 00       		.p2align 1
  57              	.L3:
  78:..\u8g2\csrc/u8x8_d_ssd1306_64x32.c ****   {
  79:..\u8g2\csrc/u8x8_d_ssd1306_64x32.c ****     /* handled by the calling function
  80:..\u8g2\csrc/u8x8_d_ssd1306_64x32.c ****     case U8X8_MSG_DISPLAY_SETUP_MEMORY:
  81:..\u8g2\csrc/u8x8_d_ssd1306_64x32.c ****       u8x8_d_helper_display_setup_memory(u8x8, &u8x8_ssd1306_64x32_display_info);
  82:..\u8g2\csrc/u8x8_d_ssd1306_64x32.c ****       break;
  83:..\u8g2\csrc/u8x8_d_ssd1306_64x32.c ****     case U8X8_MSG_DISPLAY_INIT:
  84:..\u8g2\csrc/u8x8_d_ssd1306_64x32.c ****       u8x8_d_helper_display_init(u8x8);
  85:..\u8g2\csrc/u8x8_d_ssd1306_64x32.c ****       u8x8_cad_SendSequence(u8x8, u8x8_d_ssd1306_64x32_noname_init_seq);    
  86:..\u8g2\csrc/u8x8_d_ssd1306_64x32.c ****       break;
  87:..\u8g2\csrc/u8x8_d_ssd1306_64x32.c ****     */
  88:..\u8g2\csrc/u8x8_d_ssd1306_64x32.c ****     case U8X8_MSG_DISPLAY_SET_POWER_SAVE:
  89:..\u8g2\csrc/u8x8_d_ssd1306_64x32.c ****       if ( arg_int == 0 )
  58              		.loc 1 89 0
  59 0018 22B9     		cbnz	r2, .L8
  90:..\u8g2\csrc/u8x8_d_ssd1306_64x32.c **** 	u8x8_cad_SendSequence(u8x8, u8x8_d_ssd1306_64x32_powersave0_seq);
  60              		.loc 1 90 0
  61 001a 2C49     		ldr	r1, .L13
  62 001c FFF7FEFF 		bl	u8x8_cad_SendSequence
  63              	.LVL3:
  91:..\u8g2\csrc/u8x8_d_ssd1306_64x32.c ****       else
  92:..\u8g2\csrc/u8x8_d_ssd1306_64x32.c **** 	u8x8_cad_SendSequence(u8x8, u8x8_d_ssd1306_64x32_powersave1_seq);
  93:..\u8g2\csrc/u8x8_d_ssd1306_64x32.c ****       break;
  94:..\u8g2\csrc/u8x8_d_ssd1306_64x32.c ****     case U8X8_MSG_DISPLAY_SET_FLIP_MODE:
  95:..\u8g2\csrc/u8x8_d_ssd1306_64x32.c ****       if ( arg_int == 0 )
  96:..\u8g2\csrc/u8x8_d_ssd1306_64x32.c ****       {
  97:..\u8g2\csrc/u8x8_d_ssd1306_64x32.c **** 	u8x8_cad_SendSequence(u8x8, u8x8_d_ssd1306_64x32_flip0_seq);
  98:..\u8g2\csrc/u8x8_d_ssd1306_64x32.c **** 	u8x8->x_offset = u8x8->display_info->default_x_offset;
  99:..\u8g2\csrc/u8x8_d_ssd1306_64x32.c ****       }
 100:..\u8g2\csrc/u8x8_d_ssd1306_64x32.c ****       else
 101:..\u8g2\csrc/u8x8_d_ssd1306_64x32.c ****       {
 102:..\u8g2\csrc/u8x8_d_ssd1306_64x32.c **** 	u8x8_cad_SendSequence(u8x8, u8x8_d_ssd1306_64x32_flip1_seq);
 103:..\u8g2\csrc/u8x8_d_ssd1306_64x32.c **** 	u8x8->x_offset = u8x8->display_info->flipmode_x_offset;
 104:..\u8g2\csrc/u8x8_d_ssd1306_64x32.c ****       }
 105:..\u8g2\csrc/u8x8_d_ssd1306_64x32.c ****       break;
 106:..\u8g2\csrc/u8x8_d_ssd1306_64x32.c **** #ifdef U8X8_WITH_SET_CONTRAST
 107:..\u8g2\csrc/u8x8_d_ssd1306_64x32.c ****     case U8X8_MSG_DISPLAY_SET_CONTRAST:
 108:..\u8g2\csrc/u8x8_d_ssd1306_64x32.c ****       u8x8_cad_StartTransfer(u8x8);
ARM GAS  C:\Users\brian\AppData\Local\Temp\cchz3118.s 			page 4


 109:..\u8g2\csrc/u8x8_d_ssd1306_64x32.c ****       u8x8_cad_SendCmd(u8x8, 0x081 );
 110:..\u8g2\csrc/u8x8_d_ssd1306_64x32.c ****       u8x8_cad_SendArg(u8x8, arg_int );	/* ssd1306 has range from 0 to 255 */
 111:..\u8g2\csrc/u8x8_d_ssd1306_64x32.c ****       u8x8_cad_EndTransfer(u8x8);
 112:..\u8g2\csrc/u8x8_d_ssd1306_64x32.c ****       break;
 113:..\u8g2\csrc/u8x8_d_ssd1306_64x32.c **** #endif
 114:..\u8g2\csrc/u8x8_d_ssd1306_64x32.c ****     case U8X8_MSG_DISPLAY_DRAW_TILE:
 115:..\u8g2\csrc/u8x8_d_ssd1306_64x32.c ****       u8x8_cad_StartTransfer(u8x8);
 116:..\u8g2\csrc/u8x8_d_ssd1306_64x32.c ****       x = ((u8x8_tile_t *)arg_ptr)->x_pos;    
 117:..\u8g2\csrc/u8x8_d_ssd1306_64x32.c ****       x *= 8;
 118:..\u8g2\csrc/u8x8_d_ssd1306_64x32.c ****       x += u8x8->x_offset;
 119:..\u8g2\csrc/u8x8_d_ssd1306_64x32.c ****       u8x8_cad_SendCmd(u8x8, 0x010 | (x>>4) );
 120:..\u8g2\csrc/u8x8_d_ssd1306_64x32.c ****       u8x8_cad_SendCmd(u8x8, 0x000 | ((x&15)));
 121:..\u8g2\csrc/u8x8_d_ssd1306_64x32.c ****       u8x8_cad_SendCmd(u8x8, 0x0b0 | (((u8x8_tile_t *)arg_ptr)->y_pos));
 122:..\u8g2\csrc/u8x8_d_ssd1306_64x32.c ****       
 123:..\u8g2\csrc/u8x8_d_ssd1306_64x32.c ****       do
 124:..\u8g2\csrc/u8x8_d_ssd1306_64x32.c ****       {
 125:..\u8g2\csrc/u8x8_d_ssd1306_64x32.c **** 	c = ((u8x8_tile_t *)arg_ptr)->cnt;
 126:..\u8g2\csrc/u8x8_d_ssd1306_64x32.c **** 	ptr = ((u8x8_tile_t *)arg_ptr)->tile_ptr;
 127:..\u8g2\csrc/u8x8_d_ssd1306_64x32.c **** 	u8x8_cad_SendData(u8x8, c*8, ptr); 	/* note: SendData can not handle more than 255 bytes */
 128:..\u8g2\csrc/u8x8_d_ssd1306_64x32.c **** 	arg_int--;
 129:..\u8g2\csrc/u8x8_d_ssd1306_64x32.c ****       } while( arg_int > 0 );
 130:..\u8g2\csrc/u8x8_d_ssd1306_64x32.c ****       
 131:..\u8g2\csrc/u8x8_d_ssd1306_64x32.c ****       u8x8_cad_EndTransfer(u8x8);
 132:..\u8g2\csrc/u8x8_d_ssd1306_64x32.c ****       break;
 133:..\u8g2\csrc/u8x8_d_ssd1306_64x32.c ****     default:
 134:..\u8g2\csrc/u8x8_d_ssd1306_64x32.c ****       return 0;
 135:..\u8g2\csrc/u8x8_d_ssd1306_64x32.c ****   }
 136:..\u8g2\csrc/u8x8_d_ssd1306_64x32.c ****   return 1;
  64              		.loc 1 136 0
  65 0020 0120     		movs	r0, #1
  66 0022 F8BD     		pop	{r3, r4, r5, r6, r7, pc}
  67              	.LVL4:
  68              	.L8:
  92:..\u8g2\csrc/u8x8_d_ssd1306_64x32.c ****       break;
  69              		.loc 1 92 0
  70 0024 2A49     		ldr	r1, .L13+4
  71 0026 FFF7FEFF 		bl	u8x8_cad_SendSequence
  72              	.LVL5:
  73              		.loc 1 136 0
  74 002a 0120     		movs	r0, #1
  75 002c F8BD     		pop	{r3, r4, r5, r6, r7, pc}
  76              	.LVL6:
  77              	.L5:
  95:..\u8g2\csrc/u8x8_d_ssd1306_64x32.c ****       {
  78              		.loc 1 95 0
  79 002e 42B9     		cbnz	r2, .L9
  97:..\u8g2\csrc/u8x8_d_ssd1306_64x32.c **** 	u8x8->x_offset = u8x8->display_info->default_x_offset;
  80              		.loc 1 97 0
  81 0030 2849     		ldr	r1, .L13+8
  82 0032 FFF7FEFF 		bl	u8x8_cad_SendSequence
  83              	.LVL7:
  98:..\u8g2\csrc/u8x8_d_ssd1306_64x32.c ****       }
  84              		.loc 1 98 0
  85 0036 2B68     		ldr	r3, [r5]
  86 0038 9B7C     		ldrb	r3, [r3, #18]	@ zero_extendqisi2
  87 003a 85F82230 		strb	r3, [r5, #34]
  88              		.loc 1 136 0
ARM GAS  C:\Users\brian\AppData\Local\Temp\cchz3118.s 			page 5


  89 003e 0120     		movs	r0, #1
  90 0040 F8BD     		pop	{r3, r4, r5, r6, r7, pc}
  91              	.LVL8:
  92              	.L9:
 102:..\u8g2\csrc/u8x8_d_ssd1306_64x32.c **** 	u8x8->x_offset = u8x8->display_info->flipmode_x_offset;
  93              		.loc 1 102 0
  94 0042 2549     		ldr	r1, .L13+12
  95 0044 FFF7FEFF 		bl	u8x8_cad_SendSequence
  96              	.LVL9:
 103:..\u8g2\csrc/u8x8_d_ssd1306_64x32.c ****       }
  97              		.loc 1 103 0
  98 0048 2B68     		ldr	r3, [r5]
  99 004a DB7C     		ldrb	r3, [r3, #19]	@ zero_extendqisi2
 100 004c 85F82230 		strb	r3, [r5, #34]
 101              		.loc 1 136 0
 102 0050 0120     		movs	r0, #1
 103 0052 F8BD     		pop	{r3, r4, r5, r6, r7, pc}
 104              	.LVL10:
 105              	.L6:
 108:..\u8g2\csrc/u8x8_d_ssd1306_64x32.c ****       u8x8_cad_SendCmd(u8x8, 0x081 );
 106              		.loc 1 108 0
 107 0054 FFF7FEFF 		bl	u8x8_cad_StartTransfer
 108              	.LVL11:
 109:..\u8g2\csrc/u8x8_d_ssd1306_64x32.c ****       u8x8_cad_SendArg(u8x8, arg_int );	/* ssd1306 has range from 0 to 255 */
 109              		.loc 1 109 0
 110 0058 8121     		movs	r1, #129
 111 005a 2846     		mov	r0, r5
 112 005c FFF7FEFF 		bl	u8x8_cad_SendCmd
 113              	.LVL12:
 110:..\u8g2\csrc/u8x8_d_ssd1306_64x32.c ****       u8x8_cad_EndTransfer(u8x8);
 114              		.loc 1 110 0
 115 0060 2146     		mov	r1, r4
 116 0062 2846     		mov	r0, r5
 117 0064 FFF7FEFF 		bl	u8x8_cad_SendArg
 118              	.LVL13:
 111:..\u8g2\csrc/u8x8_d_ssd1306_64x32.c ****       break;
 119              		.loc 1 111 0
 120 0068 2846     		mov	r0, r5
 121 006a FFF7FEFF 		bl	u8x8_cad_EndTransfer
 122              	.LVL14:
 123              		.loc 1 136 0
 124 006e 0120     		movs	r0, #1
 112:..\u8g2\csrc/u8x8_d_ssd1306_64x32.c **** #endif
 125              		.loc 1 112 0
 126 0070 F8BD     		pop	{r3, r4, r5, r6, r7, pc}
 127              	.LVL15:
 128              	.L7:
 115:..\u8g2\csrc/u8x8_d_ssd1306_64x32.c ****       x = ((u8x8_tile_t *)arg_ptr)->x_pos;    
 129              		.loc 1 115 0
 130 0072 FFF7FEFF 		bl	u8x8_cad_StartTransfer
 131              	.LVL16:
 116:..\u8g2\csrc/u8x8_d_ssd1306_64x32.c ****       x *= 8;
 132              		.loc 1 116 0
 133 0076 7779     		ldrb	r7, [r6, #5]	@ zero_extendqisi2
 134              	.LVL17:
 117:..\u8g2\csrc/u8x8_d_ssd1306_64x32.c ****       x += u8x8->x_offset;
 135              		.loc 1 117 0
ARM GAS  C:\Users\brian\AppData\Local\Temp\cchz3118.s 			page 6


 136 0078 FF00     		lsls	r7, r7, #3
 137              	.LVL18:
 138 007a FFB2     		uxtb	r7, r7
 139              	.LVL19:
 118:..\u8g2\csrc/u8x8_d_ssd1306_64x32.c ****       u8x8_cad_SendCmd(u8x8, 0x010 | (x>>4) );
 140              		.loc 1 118 0
 141 007c 95F82230 		ldrb	r3, [r5, #34]	@ zero_extendqisi2
 142 0080 1F44     		add	r7, r7, r3
 143              	.LVL20:
 144 0082 FFB2     		uxtb	r7, r7
 145              	.LVL21:
 119:..\u8g2\csrc/u8x8_d_ssd1306_64x32.c ****       u8x8_cad_SendCmd(u8x8, 0x000 | ((x&15)));
 146              		.loc 1 119 0
 147 0084 3909     		lsrs	r1, r7, #4
 148 0086 41F01001 		orr	r1, r1, #16
 149 008a 2846     		mov	r0, r5
 150 008c FFF7FEFF 		bl	u8x8_cad_SendCmd
 151              	.LVL22:
 120:..\u8g2\csrc/u8x8_d_ssd1306_64x32.c ****       u8x8_cad_SendCmd(u8x8, 0x0b0 | (((u8x8_tile_t *)arg_ptr)->y_pos));
 152              		.loc 1 120 0
 153 0090 07F00F01 		and	r1, r7, #15
 154 0094 2846     		mov	r0, r5
 155 0096 FFF7FEFF 		bl	u8x8_cad_SendCmd
 156              	.LVL23:
 121:..\u8g2\csrc/u8x8_d_ssd1306_64x32.c ****       
 157              		.loc 1 121 0
 158 009a B179     		ldrb	r1, [r6, #6]	@ zero_extendqisi2
 159 009c 41F0B001 		orr	r1, r1, #176
 160 00a0 2846     		mov	r0, r5
 161 00a2 FFF7FEFF 		bl	u8x8_cad_SendCmd
 162              	.LVL24:
 163              	.L10:
 125:..\u8g2\csrc/u8x8_d_ssd1306_64x32.c **** 	ptr = ((u8x8_tile_t *)arg_ptr)->tile_ptr;
 164              		.loc 1 125 0 discriminator 1
 165 00a6 3179     		ldrb	r1, [r6, #4]	@ zero_extendqisi2
 166              	.LVL25:
 127:..\u8g2\csrc/u8x8_d_ssd1306_64x32.c **** 	arg_int--;
 167              		.loc 1 127 0 discriminator 1
 168 00a8 C900     		lsls	r1, r1, #3
 169              	.LVL26:
 170 00aa 3268     		ldr	r2, [r6]
 171 00ac 01F0F801 		and	r1, r1, #248
 172 00b0 2846     		mov	r0, r5
 173 00b2 FFF7FEFF 		bl	u8x8_cad_SendData
 174              	.LVL27:
 128:..\u8g2\csrc/u8x8_d_ssd1306_64x32.c ****       } while( arg_int > 0 );
 175              		.loc 1 128 0 discriminator 1
 176 00b6 621E     		subs	r2, r4, #1
 177              	.LVL28:
 129:..\u8g2\csrc/u8x8_d_ssd1306_64x32.c ****       
 178              		.loc 1 129 0 discriminator 1
 179 00b8 12F0FF04 		ands	r4, r2, #255
 180 00bc F3D1     		bne	.L10
 131:..\u8g2\csrc/u8x8_d_ssd1306_64x32.c ****       break;
 181              		.loc 1 131 0
 182 00be 2846     		mov	r0, r5
 183 00c0 FFF7FEFF 		bl	u8x8_cad_EndTransfer
ARM GAS  C:\Users\brian\AppData\Local\Temp\cchz3118.s 			page 7


 184              	.LVL29:
 185              		.loc 1 136 0
 186 00c4 0120     		movs	r0, #1
 132:..\u8g2\csrc/u8x8_d_ssd1306_64x32.c ****     default:
 187              		.loc 1 132 0
 188 00c6 F8BD     		pop	{r3, r4, r5, r6, r7, pc}
 189              	.LVL30:
 190              	.L11:
 134:..\u8g2\csrc/u8x8_d_ssd1306_64x32.c ****   }
 191              		.loc 1 134 0
 192 00c8 0020     		movs	r0, #0
 193              	.LVL31:
 137:..\u8g2\csrc/u8x8_d_ssd1306_64x32.c **** }
 194              		.loc 1 137 0
 195 00ca F8BD     		pop	{r3, r4, r5, r6, r7, pc}
 196              	.LVL32:
 197              	.L14:
 198              		.align	2
 199              	.L13:
 200 00cc 00000000 		.word	.LANCHOR0
 201 00d0 08000000 		.word	.LANCHOR0+8
 202 00d4 10000000 		.word	.LANCHOR0+16
 203 00d8 18000000 		.word	.LANCHOR0+24
 204              		.cfi_endproc
 205              	.LFE0:
 206              		.size	u8x8_d_ssd1306_64x32_generic, .-u8x8_d_ssd1306_64x32_generic
 207              		.section	.text.u8x8_d_ssd1306_64x32_noname,"ax",%progbits
 208              		.align	2
 209              		.global	u8x8_d_ssd1306_64x32_noname
 210              		.thumb
 211              		.thumb_func
 212              		.type	u8x8_d_ssd1306_64x32_noname, %function
 213              	u8x8_d_ssd1306_64x32_noname:
 214              	.LFB1:
 138:..\u8g2\csrc/u8x8_d_ssd1306_64x32.c **** 
 139:..\u8g2\csrc/u8x8_d_ssd1306_64x32.c **** /*======================================================*/
 140:..\u8g2\csrc/u8x8_d_ssd1306_64x32.c **** 
 141:..\u8g2\csrc/u8x8_d_ssd1306_64x32.c **** static const u8x8_display_info_t u8x8_ssd1306_64x32_display_info =
 142:..\u8g2\csrc/u8x8_d_ssd1306_64x32.c **** {
 143:..\u8g2\csrc/u8x8_d_ssd1306_64x32.c ****   /* chip_enable_level = */ 0,
 144:..\u8g2\csrc/u8x8_d_ssd1306_64x32.c ****   /* chip_disable_level = */ 1,
 145:..\u8g2\csrc/u8x8_d_ssd1306_64x32.c ****   
 146:..\u8g2\csrc/u8x8_d_ssd1306_64x32.c ****   /* post_chip_enable_wait_ns = */ 20,
 147:..\u8g2\csrc/u8x8_d_ssd1306_64x32.c ****   /* pre_chip_disable_wait_ns = */ 10,
 148:..\u8g2\csrc/u8x8_d_ssd1306_64x32.c ****   /* reset_pulse_width_ms = */ 100, 	/* SSD1306: 3 us */
 149:..\u8g2\csrc/u8x8_d_ssd1306_64x32.c ****   /* post_reset_wait_ms = */ 100, /* far east OLEDs need much longer setup time */
 150:..\u8g2\csrc/u8x8_d_ssd1306_64x32.c ****   /* sda_setup_time_ns = */ 50,		/* SSD1306: 15ns, but cycle time is 100ns, so use 100/2 */
 151:..\u8g2\csrc/u8x8_d_ssd1306_64x32.c ****   /* sck_pulse_width_ns = */ 50,	/* SSD1306: 20ns, but cycle time is 100ns, so use 100/2, AVR: belo
 152:..\u8g2\csrc/u8x8_d_ssd1306_64x32.c ****   /* sck_clock_hz = */ 8000000UL,	/* since Arduino 1.6.0, the SPI bus speed in Hz. Should be  10000
 153:..\u8g2\csrc/u8x8_d_ssd1306_64x32.c ****   /* spi_mode = */ 0,		/* active high, rising edge */
 154:..\u8g2\csrc/u8x8_d_ssd1306_64x32.c ****   /* i2c_bus_clock_100kHz = */ 4,
 155:..\u8g2\csrc/u8x8_d_ssd1306_64x32.c ****   /* data_setup_time_ns = */ 40,
 156:..\u8g2\csrc/u8x8_d_ssd1306_64x32.c ****   /* write_pulse_width_ns = */ 150,	/* SSD1306: cycle time is 300ns, so use 300/2 = 150 */
 157:..\u8g2\csrc/u8x8_d_ssd1306_64x32.c ****   /* tile_width = */ 8,
 158:..\u8g2\csrc/u8x8_d_ssd1306_64x32.c ****   /* tile_hight = */ 4,
 159:..\u8g2\csrc/u8x8_d_ssd1306_64x32.c ****   /* default_x_offset = */ 32,
 160:..\u8g2\csrc/u8x8_d_ssd1306_64x32.c ****   /* flipmode_x_offset = */ 32,
ARM GAS  C:\Users\brian\AppData\Local\Temp\cchz3118.s 			page 8


 161:..\u8g2\csrc/u8x8_d_ssd1306_64x32.c ****   /* pixel_width = */ 64,
 162:..\u8g2\csrc/u8x8_d_ssd1306_64x32.c ****   /* pixel_height = */ 32
 163:..\u8g2\csrc/u8x8_d_ssd1306_64x32.c **** };
 164:..\u8g2\csrc/u8x8_d_ssd1306_64x32.c **** 
 165:..\u8g2\csrc/u8x8_d_ssd1306_64x32.c **** 
 166:..\u8g2\csrc/u8x8_d_ssd1306_64x32.c **** /*======================================================*/
 167:..\u8g2\csrc/u8x8_d_ssd1306_64x32.c **** 
 168:..\u8g2\csrc/u8x8_d_ssd1306_64x32.c **** static const uint8_t u8x8_d_ssd1306_64x32_noname_init_seq[] = {
 169:..\u8g2\csrc/u8x8_d_ssd1306_64x32.c ****   U8X8_START_TRANSFER(),             	/* enable chip, delay is part of the transfer start */
 170:..\u8g2\csrc/u8x8_d_ssd1306_64x32.c **** 
 171:..\u8g2\csrc/u8x8_d_ssd1306_64x32.c ****   U8X8_C(0x0ae),		                /* display off */
 172:..\u8g2\csrc/u8x8_d_ssd1306_64x32.c ****   U8X8_CA(0x0d5, 0x080),		/* clock divide ratio (0x00=1) and oscillator frequency (0x8) */
 173:..\u8g2\csrc/u8x8_d_ssd1306_64x32.c ****   U8X8_CA(0x0a8, 0x02f),		/* multiplex ratio: changed from 0x1f to 0x2f */
 174:..\u8g2\csrc/u8x8_d_ssd1306_64x32.c ****   U8X8_CA(0x0d3, 0x000),		/* display offset */
 175:..\u8g2\csrc/u8x8_d_ssd1306_64x32.c ****   U8X8_C(0x040),		                /* set display start line to 0 */
 176:..\u8g2\csrc/u8x8_d_ssd1306_64x32.c ****   U8X8_CA(0x08d, 0x014),		/* [2] charge pump setting (p62): 0x014 enable, 0x010 disable */
 177:..\u8g2\csrc/u8x8_d_ssd1306_64x32.c ****   U8X8_CA(0x020, 0x000),		/* horizontal addressing mode */
 178:..\u8g2\csrc/u8x8_d_ssd1306_64x32.c ****   
 179:..\u8g2\csrc/u8x8_d_ssd1306_64x32.c ****   U8X8_C(0x0a1),				/* segment remap a0/a1 */
 180:..\u8g2\csrc/u8x8_d_ssd1306_64x32.c ****   U8X8_C(0x0c8),				/* c0: scan dir normal, c8: reverse */
 181:..\u8g2\csrc/u8x8_d_ssd1306_64x32.c ****   // Flipmode
 182:..\u8g2\csrc/u8x8_d_ssd1306_64x32.c ****   // U8X8_C(0x0a0),				/* segment remap a0/a1*/
 183:..\u8g2\csrc/u8x8_d_ssd1306_64x32.c ****   // U8X8_C(0x0c0),				/* c0: scan dir normal, c8: reverse */
 184:..\u8g2\csrc/u8x8_d_ssd1306_64x32.c ****   
 185:..\u8g2\csrc/u8x8_d_ssd1306_64x32.c ****   U8X8_CA(0x0da, 0x012),		/* com pin HW config, sequential com pin config (bit 4), disable left/rig
 186:..\u8g2\csrc/u8x8_d_ssd1306_64x32.c ****   U8X8_CA(0x081, 0x0cf),		/* [2] set contrast control datasheet: 0xcf */
 187:..\u8g2\csrc/u8x8_d_ssd1306_64x32.c ****   U8X8_CA(0x0d9, 0x022),		/* [2] pre-charge period 0x022/f1 */
 188:..\u8g2\csrc/u8x8_d_ssd1306_64x32.c ****   U8X8_CA(0x0db, 0x000),		/* vcomh deselect level */
 189:..\u8g2\csrc/u8x8_d_ssd1306_64x32.c ****   
 190:..\u8g2\csrc/u8x8_d_ssd1306_64x32.c ****   U8X8_C(0x02e),				/* Deactivate scroll */ 
 191:..\u8g2\csrc/u8x8_d_ssd1306_64x32.c ****   U8X8_C(0x0a4),				/* output ram to display */
 192:..\u8g2\csrc/u8x8_d_ssd1306_64x32.c ****   U8X8_C(0x0a6),				/* none inverted normal display mode */
 193:..\u8g2\csrc/u8x8_d_ssd1306_64x32.c ****     
 194:..\u8g2\csrc/u8x8_d_ssd1306_64x32.c ****   U8X8_END_TRANSFER(),             	/* disable chip */
 195:..\u8g2\csrc/u8x8_d_ssd1306_64x32.c ****   U8X8_END()             			/* end of sequence */
 196:..\u8g2\csrc/u8x8_d_ssd1306_64x32.c **** };
 197:..\u8g2\csrc/u8x8_d_ssd1306_64x32.c **** 
 198:..\u8g2\csrc/u8x8_d_ssd1306_64x32.c **** uint8_t u8x8_d_ssd1306_64x32_noname(u8x8_t *u8x8, uint8_t msg, uint8_t arg_int, void *arg_ptr)
 199:..\u8g2\csrc/u8x8_d_ssd1306_64x32.c **** {
 215              		.loc 1 199 0
 216              		.cfi_startproc
 217              		@ args = 0, pretend = 0, frame = 0
 218              		@ frame_needed = 0, uses_anonymous_args = 0
 219              	.LVL33:
 220 0000 10B5     		push	{r4, lr}
 221              		.cfi_def_cfa_offset 8
 222              		.cfi_offset 4, -8
 223              		.cfi_offset 14, -4
 224 0002 0446     		mov	r4, r0
 200:..\u8g2\csrc/u8x8_d_ssd1306_64x32.c ****     if ( msg == U8X8_MSG_DISPLAY_SETUP_MEMORY )
 225              		.loc 1 200 0
 226 0004 0929     		cmp	r1, #9
 227 0006 04D1     		bne	.L16
 201:..\u8g2\csrc/u8x8_d_ssd1306_64x32.c ****     {
 202:..\u8g2\csrc/u8x8_d_ssd1306_64x32.c ****       u8x8_d_helper_display_setup_memory(u8x8, &u8x8_ssd1306_64x32_display_info);
 228              		.loc 1 202 0
 229 0008 0849     		ldr	r1, .L20
ARM GAS  C:\Users\brian\AppData\Local\Temp\cchz3118.s 			page 9


 230              	.LVL34:
 231 000a FFF7FEFF 		bl	u8x8_d_helper_display_setup_memory
 232              	.LVL35:
 203:..\u8g2\csrc/u8x8_d_ssd1306_64x32.c ****       return 1;
 233              		.loc 1 203 0
 234 000e 0120     		movs	r0, #1
 235 0010 10BD     		pop	{r4, pc}
 236              	.LVL36:
 237              	.L16:
 204:..\u8g2\csrc/u8x8_d_ssd1306_64x32.c ****     }
 205:..\u8g2\csrc/u8x8_d_ssd1306_64x32.c ****     else if ( msg == U8X8_MSG_DISPLAY_INIT )
 238              		.loc 1 205 0
 239 0012 0A29     		cmp	r1, #10
 240 0014 07D1     		bne	.L18
 206:..\u8g2\csrc/u8x8_d_ssd1306_64x32.c ****     {
 207:..\u8g2\csrc/u8x8_d_ssd1306_64x32.c ****       u8x8_d_helper_display_init(u8x8);
 241              		.loc 1 207 0
 242 0016 FFF7FEFF 		bl	u8x8_d_helper_display_init
 243              	.LVL37:
 208:..\u8g2\csrc/u8x8_d_ssd1306_64x32.c ****       u8x8_cad_SendSequence(u8x8, u8x8_d_ssd1306_64x32_noname_init_seq);    
 244              		.loc 1 208 0
 245 001a 0549     		ldr	r1, .L20+4
 246 001c 2046     		mov	r0, r4
 247 001e FFF7FEFF 		bl	u8x8_cad_SendSequence
 248              	.LVL38:
 209:..\u8g2\csrc/u8x8_d_ssd1306_64x32.c ****       return 1;
 249              		.loc 1 209 0
 250 0022 0120     		movs	r0, #1
 251 0024 10BD     		pop	{r4, pc}
 252              	.LVL39:
 253              	.L18:
 210:..\u8g2\csrc/u8x8_d_ssd1306_64x32.c ****     }
 211:..\u8g2\csrc/u8x8_d_ssd1306_64x32.c ****     return u8x8_d_ssd1306_64x32_generic(u8x8, msg, arg_int, arg_ptr);
 254              		.loc 1 211 0
 255 0026 FFF7FEFF 		bl	u8x8_d_ssd1306_64x32_generic
 256              	.LVL40:
 212:..\u8g2\csrc/u8x8_d_ssd1306_64x32.c **** }
 257              		.loc 1 212 0
 258 002a 10BD     		pop	{r4, pc}
 259              	.LVL41:
 260              	.L21:
 261              		.align	2
 262              	.L20:
 263 002c 20000000 		.word	.LANCHOR0+32
 264 0030 38000000 		.word	.LANCHOR0+56
 265              		.cfi_endproc
 266              	.LFE1:
 267              		.size	u8x8_d_ssd1306_64x32_noname, .-u8x8_d_ssd1306_64x32_noname
 268              		.section	.text.u8x8_d_ssd1306_64x32_1f,"ax",%progbits
 269              		.align	2
 270              		.global	u8x8_d_ssd1306_64x32_1f
 271              		.thumb
 272              		.thumb_func
 273              		.type	u8x8_d_ssd1306_64x32_1f, %function
 274              	u8x8_d_ssd1306_64x32_1f:
 275              	.LFB2:
 213:..\u8g2\csrc/u8x8_d_ssd1306_64x32.c **** 
ARM GAS  C:\Users\brian\AppData\Local\Temp\cchz3118.s 			page 10


 214:..\u8g2\csrc/u8x8_d_ssd1306_64x32.c **** 
 215:..\u8g2\csrc/u8x8_d_ssd1306_64x32.c **** /*======================================================*/
 216:..\u8g2\csrc/u8x8_d_ssd1306_64x32.c **** 
 217:..\u8g2\csrc/u8x8_d_ssd1306_64x32.c **** static const uint8_t u8x8_d_ssd1306_64x32_1f_init_seq[] = {
 218:..\u8g2\csrc/u8x8_d_ssd1306_64x32.c ****   U8X8_START_TRANSFER(),             	/* enable chip, delay is part of the transfer start */
 219:..\u8g2\csrc/u8x8_d_ssd1306_64x32.c ****     
 220:..\u8g2\csrc/u8x8_d_ssd1306_64x32.c ****   U8X8_C(0x0ae),		                /* display off */
 221:..\u8g2\csrc/u8x8_d_ssd1306_64x32.c ****   U8X8_CA(0x0d5, 0x080),		/* clock divide ratio (0x00=1) and oscillator frequency (0x8) */
 222:..\u8g2\csrc/u8x8_d_ssd1306_64x32.c ****   U8X8_CA(0x0a8, 0x01f),		/* multiplex ratio: changed from 0x1f to 0x2f, 23 Sep 17: changed back to
 223:..\u8g2\csrc/u8x8_d_ssd1306_64x32.c ****   U8X8_CA(0x0d3, 0x000),		/* display offset */
 224:..\u8g2\csrc/u8x8_d_ssd1306_64x32.c ****   U8X8_C(0x040),		                /* set display start line to 0 */
 225:..\u8g2\csrc/u8x8_d_ssd1306_64x32.c ****   U8X8_CA(0x08d, 0x014),		/* [2] charge pump setting (p62): 0x014 enable, 0x010 disable */
 226:..\u8g2\csrc/u8x8_d_ssd1306_64x32.c ****   U8X8_CA(0x020, 0x000),		/* horizontal addressing mode */
 227:..\u8g2\csrc/u8x8_d_ssd1306_64x32.c ****   
 228:..\u8g2\csrc/u8x8_d_ssd1306_64x32.c ****   U8X8_C(0x0a1),				/* segment remap a0/a1 */
 229:..\u8g2\csrc/u8x8_d_ssd1306_64x32.c ****   U8X8_C(0x0c8),				/* c0: scan dir normal, c8: reverse */
 230:..\u8g2\csrc/u8x8_d_ssd1306_64x32.c ****   
 231:..\u8g2\csrc/u8x8_d_ssd1306_64x32.c ****   U8X8_CA(0x0da, 0x012),		/* com pin HW config, sequential com pin config (bit 4), disable left/rig
 232:..\u8g2\csrc/u8x8_d_ssd1306_64x32.c ****   U8X8_CA(0x081, 0x0cf),		/* [2] set contrast control datasheet: 0xcf */
 233:..\u8g2\csrc/u8x8_d_ssd1306_64x32.c ****   U8X8_CA(0x0d9, 0x022),		/* [2] pre-charge period 0x022/f1 */
 234:..\u8g2\csrc/u8x8_d_ssd1306_64x32.c ****   U8X8_CA(0x0db, 0x000),		/* vcomh deselect level */
 235:..\u8g2\csrc/u8x8_d_ssd1306_64x32.c ****   
 236:..\u8g2\csrc/u8x8_d_ssd1306_64x32.c ****   U8X8_C(0x02e),				/* Deactivate scroll */ 
 237:..\u8g2\csrc/u8x8_d_ssd1306_64x32.c ****   U8X8_C(0x0a4),				/* output ram to display */
 238:..\u8g2\csrc/u8x8_d_ssd1306_64x32.c ****   U8X8_C(0x0a6),				/* none inverted normal display mode */
 239:..\u8g2\csrc/u8x8_d_ssd1306_64x32.c ****     
 240:..\u8g2\csrc/u8x8_d_ssd1306_64x32.c ****   U8X8_END_TRANSFER(),             	/* disable chip */
 241:..\u8g2\csrc/u8x8_d_ssd1306_64x32.c ****   U8X8_END()             			/* end of sequence */
 242:..\u8g2\csrc/u8x8_d_ssd1306_64x32.c **** };
 243:..\u8g2\csrc/u8x8_d_ssd1306_64x32.c **** 
 244:..\u8g2\csrc/u8x8_d_ssd1306_64x32.c **** uint8_t u8x8_d_ssd1306_64x32_1f(u8x8_t *u8x8, uint8_t msg, uint8_t arg_int, void *arg_ptr)
 245:..\u8g2\csrc/u8x8_d_ssd1306_64x32.c **** {
 276              		.loc 1 245 0
 277              		.cfi_startproc
 278              		@ args = 0, pretend = 0, frame = 0
 279              		@ frame_needed = 0, uses_anonymous_args = 0
 280              	.LVL42:
 281 0000 10B5     		push	{r4, lr}
 282              		.cfi_def_cfa_offset 8
 283              		.cfi_offset 4, -8
 284              		.cfi_offset 14, -4
 285 0002 0446     		mov	r4, r0
 246:..\u8g2\csrc/u8x8_d_ssd1306_64x32.c ****     if ( msg == U8X8_MSG_DISPLAY_SETUP_MEMORY )
 286              		.loc 1 246 0
 287 0004 0929     		cmp	r1, #9
 288 0006 04D1     		bne	.L23
 247:..\u8g2\csrc/u8x8_d_ssd1306_64x32.c ****     {
 248:..\u8g2\csrc/u8x8_d_ssd1306_64x32.c ****       u8x8_d_helper_display_setup_memory(u8x8, &u8x8_ssd1306_64x32_display_info);
 289              		.loc 1 248 0
 290 0008 0849     		ldr	r1, .L27
 291              	.LVL43:
 292 000a FFF7FEFF 		bl	u8x8_d_helper_display_setup_memory
 293              	.LVL44:
 249:..\u8g2\csrc/u8x8_d_ssd1306_64x32.c ****       return 1;
 294              		.loc 1 249 0
 295 000e 0120     		movs	r0, #1
 296 0010 10BD     		pop	{r4, pc}
ARM GAS  C:\Users\brian\AppData\Local\Temp\cchz3118.s 			page 11


 297              	.LVL45:
 298              	.L23:
 250:..\u8g2\csrc/u8x8_d_ssd1306_64x32.c ****     }
 251:..\u8g2\csrc/u8x8_d_ssd1306_64x32.c ****     else if ( msg == U8X8_MSG_DISPLAY_INIT )
 299              		.loc 1 251 0
 300 0012 0A29     		cmp	r1, #10
 301 0014 07D1     		bne	.L25
 252:..\u8g2\csrc/u8x8_d_ssd1306_64x32.c ****     {
 253:..\u8g2\csrc/u8x8_d_ssd1306_64x32.c ****       u8x8_d_helper_display_init(u8x8);
 302              		.loc 1 253 0
 303 0016 FFF7FEFF 		bl	u8x8_d_helper_display_init
 304              	.LVL46:
 254:..\u8g2\csrc/u8x8_d_ssd1306_64x32.c ****       u8x8_cad_SendSequence(u8x8, u8x8_d_ssd1306_64x32_1f_init_seq);    
 305              		.loc 1 254 0
 306 001a 0549     		ldr	r1, .L27+4
 307 001c 2046     		mov	r0, r4
 308 001e FFF7FEFF 		bl	u8x8_cad_SendSequence
 309              	.LVL47:
 255:..\u8g2\csrc/u8x8_d_ssd1306_64x32.c ****       return 1;
 310              		.loc 1 255 0
 311 0022 0120     		movs	r0, #1
 312 0024 10BD     		pop	{r4, pc}
 313              	.LVL48:
 314              	.L25:
 256:..\u8g2\csrc/u8x8_d_ssd1306_64x32.c ****     }
 257:..\u8g2\csrc/u8x8_d_ssd1306_64x32.c ****     return u8x8_d_ssd1306_64x32_generic(u8x8, msg, arg_int, arg_ptr);
 315              		.loc 1 257 0
 316 0026 FFF7FEFF 		bl	u8x8_d_ssd1306_64x32_generic
 317              	.LVL49:
 258:..\u8g2\csrc/u8x8_d_ssd1306_64x32.c **** }
 318              		.loc 1 258 0
 319 002a 10BD     		pop	{r4, pc}
 320              	.LVL50:
 321              	.L28:
 322              		.align	2
 323              	.L27:
 324 002c 20000000 		.word	.LANCHOR0+32
 325 0030 70000000 		.word	.LANCHOR0+112
 326              		.cfi_endproc
 327              	.LFE2:
 328              		.size	u8x8_d_ssd1306_64x32_1f, .-u8x8_d_ssd1306_64x32_1f
 329              		.section	.rodata
 330              		.align	2
 331              		.set	.LANCHOR0,. + 0
 332              		.type	u8x8_d_ssd1306_64x32_powersave0_seq, %object
 333              		.size	u8x8_d_ssd1306_64x32_powersave0_seq, 5
 334              	u8x8_d_ssd1306_64x32_powersave0_seq:
 335 0000 18       		.byte	24
 336 0001 15       		.byte	21
 337 0002 AF       		.byte	-81
 338 0003 19       		.byte	25
 339 0004 FF       		.byte	-1
 340 0005 000000   		.space	3
 341              		.type	u8x8_d_ssd1306_64x32_powersave1_seq, %object
 342              		.size	u8x8_d_ssd1306_64x32_powersave1_seq, 5
 343              	u8x8_d_ssd1306_64x32_powersave1_seq:
 344 0008 18       		.byte	24
ARM GAS  C:\Users\brian\AppData\Local\Temp\cchz3118.s 			page 12


 345 0009 15       		.byte	21
 346 000a AE       		.byte	-82
 347 000b 19       		.byte	25
 348 000c FF       		.byte	-1
 349 000d 000000   		.space	3
 350              		.type	u8x8_d_ssd1306_64x32_flip0_seq, %object
 351              		.size	u8x8_d_ssd1306_64x32_flip0_seq, 7
 352              	u8x8_d_ssd1306_64x32_flip0_seq:
 353 0010 18       		.byte	24
 354 0011 15       		.byte	21
 355 0012 A1       		.byte	-95
 356 0013 15       		.byte	21
 357 0014 C8       		.byte	-56
 358 0015 19       		.byte	25
 359 0016 FF       		.byte	-1
 360 0017 00       		.space	1
 361              		.type	u8x8_d_ssd1306_64x32_flip1_seq, %object
 362              		.size	u8x8_d_ssd1306_64x32_flip1_seq, 7
 363              	u8x8_d_ssd1306_64x32_flip1_seq:
 364 0018 18       		.byte	24
 365 0019 15       		.byte	21
 366 001a A0       		.byte	-96
 367 001b 15       		.byte	21
 368 001c C0       		.byte	-64
 369 001d 19       		.byte	25
 370 001e FF       		.byte	-1
 371 001f 00       		.space	1
 372              		.type	u8x8_ssd1306_64x32_display_info, %object
 373              		.size	u8x8_ssd1306_64x32_display_info, 24
 374              	u8x8_ssd1306_64x32_display_info:
 375 0020 00       		.byte	0
 376 0021 01       		.byte	1
 377 0022 14       		.byte	20
 378 0023 0A       		.byte	10
 379 0024 64       		.byte	100
 380 0025 64       		.byte	100
 381 0026 32       		.byte	50
 382 0027 32       		.byte	50
 383 0028 00127A00 		.word	8000000
 384 002c 00       		.byte	0
 385 002d 04       		.byte	4
 386 002e 28       		.byte	40
 387 002f 96       		.byte	-106
 388 0030 08       		.byte	8
 389 0031 04       		.byte	4
 390 0032 20       		.byte	32
 391 0033 20       		.byte	32
 392 0034 4000     		.short	64
 393 0036 2000     		.short	32
 394              		.type	u8x8_d_ssd1306_64x32_noname_init_seq, %object
 395              		.size	u8x8_d_ssd1306_64x32_noname_init_seq, 53
 396              	u8x8_d_ssd1306_64x32_noname_init_seq:
 397 0038 18       		.byte	24
 398 0039 15       		.byte	21
 399 003a AE       		.byte	-82
 400 003b 15       		.byte	21
 401 003c D5       		.byte	-43
ARM GAS  C:\Users\brian\AppData\Local\Temp\cchz3118.s 			page 13


 402 003d 16       		.byte	22
 403 003e 80       		.byte	-128
 404 003f 15       		.byte	21
 405 0040 A8       		.byte	-88
 406 0041 16       		.byte	22
 407 0042 2F       		.byte	47
 408 0043 15       		.byte	21
 409 0044 D3       		.byte	-45
 410 0045 16       		.byte	22
 411 0046 00       		.byte	0
 412 0047 15       		.byte	21
 413 0048 40       		.byte	64
 414 0049 15       		.byte	21
 415 004a 8D       		.byte	-115
 416 004b 16       		.byte	22
 417 004c 14       		.byte	20
 418 004d 15       		.byte	21
 419 004e 20       		.byte	32
 420 004f 16       		.byte	22
 421 0050 00       		.byte	0
 422 0051 15       		.byte	21
 423 0052 A1       		.byte	-95
 424 0053 15       		.byte	21
 425 0054 C8       		.byte	-56
 426 0055 15       		.byte	21
 427 0056 DA       		.byte	-38
 428 0057 16       		.byte	22
 429 0058 12       		.byte	18
 430 0059 15       		.byte	21
 431 005a 81       		.byte	-127
 432 005b 16       		.byte	22
 433 005c CF       		.byte	-49
 434 005d 15       		.byte	21
 435 005e D9       		.byte	-39
 436 005f 16       		.byte	22
 437 0060 22       		.byte	34
 438 0061 15       		.byte	21
 439 0062 DB       		.byte	-37
 440 0063 16       		.byte	22
 441 0064 00       		.byte	0
 442 0065 15       		.byte	21
 443 0066 2E       		.byte	46
 444 0067 15       		.byte	21
 445 0068 A4       		.byte	-92
 446 0069 15       		.byte	21
 447 006a A6       		.byte	-90
 448 006b 19       		.byte	25
 449 006c FF       		.byte	-1
 450 006d 000000   		.space	3
 451              		.type	u8x8_d_ssd1306_64x32_1f_init_seq, %object
 452              		.size	u8x8_d_ssd1306_64x32_1f_init_seq, 53
 453              	u8x8_d_ssd1306_64x32_1f_init_seq:
 454 0070 18       		.byte	24
 455 0071 15       		.byte	21
 456 0072 AE       		.byte	-82
 457 0073 15       		.byte	21
 458 0074 D5       		.byte	-43
ARM GAS  C:\Users\brian\AppData\Local\Temp\cchz3118.s 			page 14


 459 0075 16       		.byte	22
 460 0076 80       		.byte	-128
 461 0077 15       		.byte	21
 462 0078 A8       		.byte	-88
 463 0079 16       		.byte	22
 464 007a 1F       		.byte	31
 465 007b 15       		.byte	21
 466 007c D3       		.byte	-45
 467 007d 16       		.byte	22
 468 007e 00       		.byte	0
 469 007f 15       		.byte	21
 470 0080 40       		.byte	64
 471 0081 15       		.byte	21
 472 0082 8D       		.byte	-115
 473 0083 16       		.byte	22
 474 0084 14       		.byte	20
 475 0085 15       		.byte	21
 476 0086 20       		.byte	32
 477 0087 16       		.byte	22
 478 0088 00       		.byte	0
 479 0089 15       		.byte	21
 480 008a A1       		.byte	-95
 481 008b 15       		.byte	21
 482 008c C8       		.byte	-56
 483 008d 15       		.byte	21
 484 008e DA       		.byte	-38
 485 008f 16       		.byte	22
 486 0090 12       		.byte	18
 487 0091 15       		.byte	21
 488 0092 81       		.byte	-127
 489 0093 16       		.byte	22
 490 0094 CF       		.byte	-49
 491 0095 15       		.byte	21
 492 0096 D9       		.byte	-39
 493 0097 16       		.byte	22
 494 0098 22       		.byte	34
 495 0099 15       		.byte	21
 496 009a DB       		.byte	-37
 497 009b 16       		.byte	22
 498 009c 00       		.byte	0
 499 009d 15       		.byte	21
 500 009e 2E       		.byte	46
 501 009f 15       		.byte	21
 502 00a0 A4       		.byte	-92
 503 00a1 15       		.byte	21
 504 00a2 A6       		.byte	-90
 505 00a3 19       		.byte	25
 506 00a4 FF       		.byte	-1
 507              		.text
 508              	.Letext0:
 509              		.file 2 "c:\\program files (x86)\\cypress\\psoc creator\\4.4\\psoc creator\\import\\gnu\\arm\\5.4.
 510              		.file 3 "c:\\program files (x86)\\cypress\\psoc creator\\4.4\\psoc creator\\import\\gnu\\arm\\5.4.
 511              		.file 4 "..\\u8g2\\csrc\\u8x8.h"