ARM GAS  C:\Users\brian\AppData\Local\Temp\ccp84CJA.s 			page 1


   1              		.syntax unified
   2              		.cpu cortex-m3
   3              		.fpu softvfp
   4              		.eabi_attribute 20, 1
   5              		.eabi_attribute 21, 1
   6              		.eabi_attribute 23, 3
   7              		.eabi_attribute 24, 1
   8              		.eabi_attribute 25, 1
   9              		.eabi_attribute 26, 1
  10              		.eabi_attribute 30, 1
  11              		.eabi_attribute 34, 1
  12              		.eabi_attribute 18, 4
  13              		.thumb
  14              		.syntax unified
  15              		.file	"u8x8_d_ssd1329.c"
  16              		.text
  17              	.Ltext0:
  18              		.cfi_sections	.debug_frame
  19              		.section	.text.u8x8_ssd1329_8to32,"ax",%progbits
  20              		.align	2
  21              		.thumb
  22              		.thumb_func
  23              		.type	u8x8_ssd1329_8to32, %function
  24              	u8x8_ssd1329_8to32:
  25              	.LFB0:
  26              		.file 1 "..\\u8g2\\csrc\\u8x8_d_ssd1329.c"
   1:..\u8g2\csrc/u8x8_d_ssd1329.c **** /*
   2:..\u8g2\csrc/u8x8_d_ssd1329.c **** 
   3:..\u8g2\csrc/u8x8_d_ssd1329.c ****   u8x8_d_ssd1329.c
   4:..\u8g2\csrc/u8x8_d_ssd1329.c **** 
   5:..\u8g2\csrc/u8x8_d_ssd1329.c ****   Universal 8bit Graphics Library (https://github.com/olikraus/u8g2/)
   6:..\u8g2\csrc/u8x8_d_ssd1329.c **** 
   7:..\u8g2\csrc/u8x8_d_ssd1329.c ****   Copyright (c) 2016, olikraus@gmail.com
   8:..\u8g2\csrc/u8x8_d_ssd1329.c ****   All rights reserved.
   9:..\u8g2\csrc/u8x8_d_ssd1329.c **** 
  10:..\u8g2\csrc/u8x8_d_ssd1329.c ****   Redistribution and use in source and binary forms, with or without modification, 
  11:..\u8g2\csrc/u8x8_d_ssd1329.c ****   are permitted provided that the following conditions are met:
  12:..\u8g2\csrc/u8x8_d_ssd1329.c **** 
  13:..\u8g2\csrc/u8x8_d_ssd1329.c ****   * Redistributions of source code must retain the above copyright notice, this list 
  14:..\u8g2\csrc/u8x8_d_ssd1329.c ****     of conditions and the following disclaimer.
  15:..\u8g2\csrc/u8x8_d_ssd1329.c ****     
  16:..\u8g2\csrc/u8x8_d_ssd1329.c ****   * Redistributions in binary form must reproduce the above copyright notice, this 
  17:..\u8g2\csrc/u8x8_d_ssd1329.c ****     list of conditions and the following disclaimer in the documentation and/or other 
  18:..\u8g2\csrc/u8x8_d_ssd1329.c ****     materials provided with the distribution.
  19:..\u8g2\csrc/u8x8_d_ssd1329.c **** 
  20:..\u8g2\csrc/u8x8_d_ssd1329.c ****   THIS SOFTWARE IS PROVIDED BY THE COPYRIGHT HOLDERS AND 
  21:..\u8g2\csrc/u8x8_d_ssd1329.c ****   CONTRIBUTORS "AS IS" AND ANY EXPRESS OR IMPLIED WARRANTIES, 
  22:..\u8g2\csrc/u8x8_d_ssd1329.c ****   INCLUDING, BUT NOT LIMITED TO, THE IMPLIED WARRANTIES OF 
  23:..\u8g2\csrc/u8x8_d_ssd1329.c ****   MERCHANTABILITY AND FITNESS FOR A PARTICULAR PURPOSE ARE 
  24:..\u8g2\csrc/u8x8_d_ssd1329.c ****   DISCLAIMED. IN NO EVENT SHALL THE COPYRIGHT HOLDER OR 
  25:..\u8g2\csrc/u8x8_d_ssd1329.c ****   CONTRIBUTORS BE LIABLE FOR ANY DIRECT, INDIRECT, INCIDENTAL, 
  26:..\u8g2\csrc/u8x8_d_ssd1329.c ****   SPECIAL, EXEMPLARY, OR CONSEQUENTIAL DAMAGES (INCLUDING, BUT 
  27:..\u8g2\csrc/u8x8_d_ssd1329.c ****   NOT LIMITED TO, PROCUREMENT OF SUBSTITUTE GOODS OR SERVICES; 
  28:..\u8g2\csrc/u8x8_d_ssd1329.c ****   LOSS OF USE, DATA, OR PROFITS; OR BUSINESS INTERRUPTION) HOWEVER 
  29:..\u8g2\csrc/u8x8_d_ssd1329.c ****   CAUSED AND ON ANY THEORY OF LIABILITY, WHETHER IN CONTRACT, 
  30:..\u8g2\csrc/u8x8_d_ssd1329.c ****   STRICT LIABILITY, OR TORT (INCLUDING NEGLIGENCE OR OTHERWISE) 
  31:..\u8g2\csrc/u8x8_d_ssd1329.c ****   ARISING IN ANY WAY OUT OF THE USE OF THIS SOFTWARE, EVEN IF 
ARM GAS  C:\Users\brian\AppData\Local\Temp\ccp84CJA.s 			page 2


  32:..\u8g2\csrc/u8x8_d_ssd1329.c ****   ADVISED OF THE POSSIBILITY OF SUCH DAMAGE.  
  33:..\u8g2\csrc/u8x8_d_ssd1329.c ****   
  34:..\u8g2\csrc/u8x8_d_ssd1329.c **** */
  35:..\u8g2\csrc/u8x8_d_ssd1329.c **** 
  36:..\u8g2\csrc/u8x8_d_ssd1329.c **** 
  37:..\u8g2\csrc/u8x8_d_ssd1329.c **** #include "u8x8.h"
  38:..\u8g2\csrc/u8x8_d_ssd1329.c **** 
  39:..\u8g2\csrc/u8x8_d_ssd1329.c **** 
  40:..\u8g2\csrc/u8x8_d_ssd1329.c **** 
  41:..\u8g2\csrc/u8x8_d_ssd1329.c **** static const uint8_t u8x8_d_ssd1329_128x96_noname_init_seq[] = {
  42:..\u8g2\csrc/u8x8_d_ssd1329.c ****     
  43:..\u8g2\csrc/u8x8_d_ssd1329.c ****   U8X8_START_TRANSFER(),             	/* enable chip, delay is part of the transfer start */
  44:..\u8g2\csrc/u8x8_d_ssd1329.c ****   
  45:..\u8g2\csrc/u8x8_d_ssd1329.c ****   
  46:..\u8g2\csrc/u8x8_d_ssd1329.c ****   U8X8_C(0x0ae),		                /* display off */
  47:..\u8g2\csrc/u8x8_d_ssd1329.c ****   U8X8_CA(0x0b3, 0x091),		/* set display clock divide ratio/oscillator frequency (set clock as 135 
  48:..\u8g2\csrc/u8x8_d_ssd1329.c ****   U8X8_CA(0x0a8, 0x05f),		/* multiplex ratio: 0x03f * 1/64 duty - changed by CREESOO, acc. to datas
  49:..\u8g2\csrc/u8x8_d_ssd1329.c ****   U8X8_CA(0x0a2, 0x000),		/* display offset, shift mapping ram counter */
  50:..\u8g2\csrc/u8x8_d_ssd1329.c ****   U8X8_CA(0x0a1, 0x000),		/* display start line */
  51:..\u8g2\csrc/u8x8_d_ssd1329.c ****   U8X8_CA(0x0ad, 0x002),		/* master configuration: disable embedded DC-DC, enable internal VCOMH */
  52:..\u8g2\csrc/u8x8_d_ssd1329.c ****   U8X8_CA(0x0a0, 0x052),		/* remap configuration, horizontal address increment (bit 2 = 0), enable 
  53:..\u8g2\csrc/u8x8_d_ssd1329.c ****   U8X8_C(0x086),				/* full current range (0x084, 0x085, 0x086) */
  54:..\u8g2\csrc/u8x8_d_ssd1329.c **** #ifdef removed
  55:..\u8g2\csrc/u8x8_d_ssd1329.c ****   U8X8_C(0x0b8),				/* set gray scale table */
  56:..\u8g2\csrc/u8x8_d_ssd1329.c ****     U8X8_A(1),				/* */
  57:..\u8g2\csrc/u8x8_d_ssd1329.c ****     U8X8_A(5),				/* */
  58:..\u8g2\csrc/u8x8_d_ssd1329.c ****     U8X8_A(10),				/* */
  59:..\u8g2\csrc/u8x8_d_ssd1329.c ****     U8X8_A(14),				/* */
  60:..\u8g2\csrc/u8x8_d_ssd1329.c ****     U8X8_A(19),				/* */
  61:..\u8g2\csrc/u8x8_d_ssd1329.c ****     U8X8_A(23),				/* */
  62:..\u8g2\csrc/u8x8_d_ssd1329.c ****     U8X8_A(28),				/* */
  63:..\u8g2\csrc/u8x8_d_ssd1329.c ****     U8X8_A(32),				/* */
  64:..\u8g2\csrc/u8x8_d_ssd1329.c ****     U8X8_A(37),				/* */
  65:..\u8g2\csrc/u8x8_d_ssd1329.c ****     U8X8_A(41),				/* */
  66:..\u8g2\csrc/u8x8_d_ssd1329.c ****     U8X8_A(46),				/* */
  67:..\u8g2\csrc/u8x8_d_ssd1329.c ****     U8X8_A(50),				/* */
  68:..\u8g2\csrc/u8x8_d_ssd1329.c ****     U8X8_A(55),				/* */
  69:..\u8g2\csrc/u8x8_d_ssd1329.c ****     U8X8_A(59),				/* */
  70:..\u8g2\csrc/u8x8_d_ssd1329.c ****     U8X8_A(63),				/* */
  71:..\u8g2\csrc/u8x8_d_ssd1329.c **** #endif 
  72:..\u8g2\csrc/u8x8_d_ssd1329.c **** 
  73:..\u8g2\csrc/u8x8_d_ssd1329.c ****   U8X8_C(0x0b7),				/* set default gray scale table */
  74:..\u8g2\csrc/u8x8_d_ssd1329.c ****     
  75:..\u8g2\csrc/u8x8_d_ssd1329.c ****   U8X8_CA(0x081, 0x070),		/* contrast, brightness, 0..128 */
  76:..\u8g2\csrc/u8x8_d_ssd1329.c ****   U8X8_CA(0x0b2, 0x051),		/* frame frequency (row period) */
  77:..\u8g2\csrc/u8x8_d_ssd1329.c ****   U8X8_CA(0x0b1, 0x055),                    /* phase length */
  78:..\u8g2\csrc/u8x8_d_ssd1329.c ****   U8X8_CA(0x0bc, 0x010),                    /* pre-charge voltage level */
  79:..\u8g2\csrc/u8x8_d_ssd1329.c ****   U8X8_CA(0x0b4, 0x002),                    /* set pre-charge compensation level (not documented in
  80:..\u8g2\csrc/u8x8_d_ssd1329.c ****   U8X8_CA(0x0b0, 0x028),                    /* enable pre-charge compensation (not documented in th
  81:..\u8g2\csrc/u8x8_d_ssd1329.c ****   U8X8_CA(0x0be, 0x01c),                     /* VCOMH voltage */
  82:..\u8g2\csrc/u8x8_d_ssd1329.c ****   U8X8_CA(0x0bf, 0x002|0x00d),           /* VSL voltage level (not documented in the SDD1325 datash
  83:..\u8g2\csrc/u8x8_d_ssd1329.c ****   U8X8_C(0x0a4),				/* normal display mode */
  84:..\u8g2\csrc/u8x8_d_ssd1329.c ****     
  85:..\u8g2\csrc/u8x8_d_ssd1329.c ****   U8X8_CA(0x023, 0x003),		/* graphics accelleration: fill pixel */
  86:..\u8g2\csrc/u8x8_d_ssd1329.c ****     
  87:..\u8g2\csrc/u8x8_d_ssd1329.c ****   U8X8_END_TRANSFER(),             	/* disable chip */
  88:..\u8g2\csrc/u8x8_d_ssd1329.c ****   U8X8_END()             			/* end of sequence */
ARM GAS  C:\Users\brian\AppData\Local\Temp\ccp84CJA.s 			page 3


  89:..\u8g2\csrc/u8x8_d_ssd1329.c **** };
  90:..\u8g2\csrc/u8x8_d_ssd1329.c **** 
  91:..\u8g2\csrc/u8x8_d_ssd1329.c **** static const uint8_t u8x8_d_ssd1329_128x96_nhd_powersave0_seq[] = {
  92:..\u8g2\csrc/u8x8_d_ssd1329.c ****   U8X8_START_TRANSFER(),             	/* enable chip, delay is part of the transfer start */
  93:..\u8g2\csrc/u8x8_d_ssd1329.c ****   U8X8_C(0x0af),		                /* display on */
  94:..\u8g2\csrc/u8x8_d_ssd1329.c ****   U8X8_END_TRANSFER(),             	/* disable chip */
  95:..\u8g2\csrc/u8x8_d_ssd1329.c ****   U8X8_END()             			/* end of sequence */
  96:..\u8g2\csrc/u8x8_d_ssd1329.c **** };
  97:..\u8g2\csrc/u8x8_d_ssd1329.c **** 
  98:..\u8g2\csrc/u8x8_d_ssd1329.c **** static const uint8_t u8x8_d_ssd1329_128x96_nhd_powersave1_seq[] = {
  99:..\u8g2\csrc/u8x8_d_ssd1329.c ****   U8X8_START_TRANSFER(),             	/* enable chip, delay is part of the transfer start */
 100:..\u8g2\csrc/u8x8_d_ssd1329.c ****   U8X8_C(0x0ae),		                /* display off */
 101:..\u8g2\csrc/u8x8_d_ssd1329.c ****   U8X8_END_TRANSFER(),             	/* disable chip */
 102:..\u8g2\csrc/u8x8_d_ssd1329.c ****   U8X8_END()             			/* end of sequence */
 103:..\u8g2\csrc/u8x8_d_ssd1329.c **** };
 104:..\u8g2\csrc/u8x8_d_ssd1329.c **** 
 105:..\u8g2\csrc/u8x8_d_ssd1329.c **** static const uint8_t u8x8_d_ssd1329_128x96_nhd_flip0_seq[] = {
 106:..\u8g2\csrc/u8x8_d_ssd1329.c ****   U8X8_START_TRANSFER(),             	/* enable chip, delay is part of the transfer start */
 107:..\u8g2\csrc/u8x8_d_ssd1329.c ****   U8X8_CA(0x0a0, 0x052),		/* remap */
 108:..\u8g2\csrc/u8x8_d_ssd1329.c ****   U8X8_END_TRANSFER(),             	/* disable chip */
 109:..\u8g2\csrc/u8x8_d_ssd1329.c ****   U8X8_END()             			/* end of sequence */
 110:..\u8g2\csrc/u8x8_d_ssd1329.c **** };
 111:..\u8g2\csrc/u8x8_d_ssd1329.c **** 
 112:..\u8g2\csrc/u8x8_d_ssd1329.c **** static const uint8_t u8x8_d_ssd1329_128x96_nhd_flip1_seq[] = {
 113:..\u8g2\csrc/u8x8_d_ssd1329.c ****   U8X8_START_TRANSFER(),             	/* enable chip, delay is part of the transfer start */
 114:..\u8g2\csrc/u8x8_d_ssd1329.c ****   U8X8_CA(0x0a0, 0x041),		/* remap */
 115:..\u8g2\csrc/u8x8_d_ssd1329.c ****   U8X8_END_TRANSFER(),             	/* disable chip */
 116:..\u8g2\csrc/u8x8_d_ssd1329.c ****   U8X8_END()             			/* end of sequence */
 117:..\u8g2\csrc/u8x8_d_ssd1329.c **** };
 118:..\u8g2\csrc/u8x8_d_ssd1329.c **** 
 119:..\u8g2\csrc/u8x8_d_ssd1329.c **** 
 120:..\u8g2\csrc/u8x8_d_ssd1329.c **** /*
 121:..\u8g2\csrc/u8x8_d_ssd1329.c ****   input:
 122:..\u8g2\csrc/u8x8_d_ssd1329.c ****     one tile (8 Bytes)
 123:..\u8g2\csrc/u8x8_d_ssd1329.c ****   output:
 124:..\u8g2\csrc/u8x8_d_ssd1329.c ****     Tile for ssd1329 (32 Bytes)
 125:..\u8g2\csrc/u8x8_d_ssd1329.c **** */
 126:..\u8g2\csrc/u8x8_d_ssd1329.c **** 
 127:..\u8g2\csrc/u8x8_d_ssd1329.c **** static uint8_t u8x8_ssd1329_8to32_dest_buf[32];
 128:..\u8g2\csrc/u8x8_d_ssd1329.c **** 
 129:..\u8g2\csrc/u8x8_d_ssd1329.c **** static uint8_t *u8x8_ssd1329_8to32(U8X8_UNUSED u8x8_t *u8x8, uint8_t *ptr)
 130:..\u8g2\csrc/u8x8_d_ssd1329.c **** {
  27              		.loc 1 130 0
  28              		.cfi_startproc
  29              		@ args = 0, pretend = 0, frame = 0
  30              		@ frame_needed = 0, uses_anonymous_args = 0
  31              		@ link register save eliminated.
  32              	.LVL0:
  33 0000 70B4     		push	{r4, r5, r6}
  34              		.cfi_def_cfa_offset 12
  35              		.cfi_offset 4, -12
  36              		.cfi_offset 5, -8
  37              		.cfi_offset 6, -4
  38              	.LVL1:
 131:..\u8g2\csrc/u8x8_d_ssd1329.c ****   uint8_t v;
 132:..\u8g2\csrc/u8x8_d_ssd1329.c ****   uint8_t a,b;
 133:..\u8g2\csrc/u8x8_d_ssd1329.c ****   uint8_t i, j;
ARM GAS  C:\Users\brian\AppData\Local\Temp\ccp84CJA.s 			page 4


 134:..\u8g2\csrc/u8x8_d_ssd1329.c ****   uint8_t *dest;
 135:..\u8g2\csrc/u8x8_d_ssd1329.c ****   
 136:..\u8g2\csrc/u8x8_d_ssd1329.c ****   for( j = 0; j < 4; j++ )
  39              		.loc 1 136 0
  40 0002 0026     		movs	r6, #0
  41 0004 1BE0     		b	.L2
  42              	.LVL2:
  43              	.L7:
 137:..\u8g2\csrc/u8x8_d_ssd1329.c ****   {
 138:..\u8g2\csrc/u8x8_d_ssd1329.c ****     dest = u8x8_ssd1329_8to32_dest_buf;
 139:..\u8g2\csrc/u8x8_d_ssd1329.c ****     dest += j;
  44              		.loc 1 139 0
  45 0006 104D     		ldr	r5, .L10
  46 0008 3544     		add	r5, r5, r6
  47              	.LVL3:
 140:..\u8g2\csrc/u8x8_d_ssd1329.c ****     a =*ptr;
  48              		.loc 1 140 0
  49 000a 0878     		ldrb	r0, [r1]	@ zero_extendqisi2
  50              	.LVL4:
 141:..\u8g2\csrc/u8x8_d_ssd1329.c ****     ptr++;
 142:..\u8g2\csrc/u8x8_d_ssd1329.c ****     b = *ptr;
  51              		.loc 1 142 0
  52 000c 4A78     		ldrb	r2, [r1, #1]	@ zero_extendqisi2
  53              	.LVL5:
 143:..\u8g2\csrc/u8x8_d_ssd1329.c ****     ptr++;
  54              		.loc 1 143 0
  55 000e 0231     		adds	r1, r1, #2
  56              	.LVL6:
 144:..\u8g2\csrc/u8x8_d_ssd1329.c ****     for( i = 0; i < 8; i++ )
  57              		.loc 1 144 0
  58 0010 0023     		movs	r3, #0
  59 0012 10E0     		b	.L3
  60              	.LVL7:
  61              	.L6:
 145:..\u8g2\csrc/u8x8_d_ssd1329.c ****     {
 146:..\u8g2\csrc/u8x8_d_ssd1329.c ****       v = 0;
 147:..\u8g2\csrc/u8x8_d_ssd1329.c ****       if ( a&1 ) v |= 0xf0;
  62              		.loc 1 147 0
  63 0014 10F0010F 		tst	r0, #1
  64 0018 01D1     		bne	.L8
 146:..\u8g2\csrc/u8x8_d_ssd1329.c ****       if ( a&1 ) v |= 0xf0;
  65              		.loc 1 146 0
  66 001a 0024     		movs	r4, #0
  67 001c 00E0     		b	.L4
  68              	.L8:
  69              		.loc 1 147 0
  70 001e F024     		movs	r4, #240
  71              	.L4:
  72              	.LVL8:
 148:..\u8g2\csrc/u8x8_d_ssd1329.c ****       if ( b&1 ) v |= 0x0f;
  73              		.loc 1 148 0
  74 0020 12F0010F 		tst	r2, #1
  75 0024 01D0     		beq	.L5
  76              		.loc 1 148 0 is_stmt 0 discriminator 1
  77 0026 44F00F04 		orr	r4, r4, #15
  78              	.LVL9:
  79              	.L5:
ARM GAS  C:\Users\brian\AppData\Local\Temp\ccp84CJA.s 			page 5


 149:..\u8g2\csrc/u8x8_d_ssd1329.c ****       *dest = v;
  80              		.loc 1 149 0 is_stmt 1 discriminator 2
  81 002a 05F8044B 		strb	r4, [r5], #4
  82              	.LVL10:
 150:..\u8g2\csrc/u8x8_d_ssd1329.c ****       dest+=4;
 151:..\u8g2\csrc/u8x8_d_ssd1329.c ****       a >>= 1;
  83              		.loc 1 151 0 discriminator 2
  84 002e 4008     		lsrs	r0, r0, #1
  85              	.LVL11:
 152:..\u8g2\csrc/u8x8_d_ssd1329.c ****       b >>= 1;
  86              		.loc 1 152 0 discriminator 2
  87 0030 5208     		lsrs	r2, r2, #1
  88              	.LVL12:
 144:..\u8g2\csrc/u8x8_d_ssd1329.c ****     {
  89              		.loc 1 144 0 discriminator 2
  90 0032 0133     		adds	r3, r3, #1
  91              	.LVL13:
  92 0034 DBB2     		uxtb	r3, r3
  93              	.LVL14:
  94              	.L3:
 144:..\u8g2\csrc/u8x8_d_ssd1329.c ****     {
  95              		.loc 1 144 0 is_stmt 0 discriminator 1
  96 0036 072B     		cmp	r3, #7
  97 0038 ECD9     		bls	.L6
 136:..\u8g2\csrc/u8x8_d_ssd1329.c ****   {
  98              		.loc 1 136 0 is_stmt 1 discriminator 2
  99 003a 0136     		adds	r6, r6, #1
 100              	.LVL15:
 101 003c F6B2     		uxtb	r6, r6
 102              	.LVL16:
 103              	.L2:
 136:..\u8g2\csrc/u8x8_d_ssd1329.c ****   {
 104              		.loc 1 136 0 is_stmt 0 discriminator 1
 105 003e 032E     		cmp	r6, #3
 106 0040 E1D9     		bls	.L7
 153:..\u8g2\csrc/u8x8_d_ssd1329.c ****     }
 154:..\u8g2\csrc/u8x8_d_ssd1329.c ****   }
 155:..\u8g2\csrc/u8x8_d_ssd1329.c ****   
 156:..\u8g2\csrc/u8x8_d_ssd1329.c ****   return u8x8_ssd1329_8to32_dest_buf;
 157:..\u8g2\csrc/u8x8_d_ssd1329.c **** }
 107              		.loc 1 157 0 is_stmt 1
 108 0042 0148     		ldr	r0, .L10
 109 0044 70BC     		pop	{r4, r5, r6}
 110              		.cfi_restore 6
 111              		.cfi_restore 5
 112              		.cfi_restore 4
 113              		.cfi_def_cfa_offset 0
 114              	.LVL17:
 115 0046 7047     		bx	lr
 116              	.L11:
 117              		.align	2
 118              	.L10:
 119 0048 00000000 		.word	.LANCHOR0
 120              		.cfi_endproc
 121              	.LFE0:
 122              		.size	u8x8_ssd1329_8to32, .-u8x8_ssd1329_8to32
 123              		.section	.text.u8x8_d_ssd1329_128x96_generic,"ax",%progbits
ARM GAS  C:\Users\brian\AppData\Local\Temp\ccp84CJA.s 			page 6


 124              		.align	2
 125              		.thumb
 126              		.thumb_func
 127              		.type	u8x8_d_ssd1329_128x96_generic, %function
 128              	u8x8_d_ssd1329_128x96_generic:
 129              	.LFB1:
 158:..\u8g2\csrc/u8x8_d_ssd1329.c **** 
 159:..\u8g2\csrc/u8x8_d_ssd1329.c **** 
 160:..\u8g2\csrc/u8x8_d_ssd1329.c **** 
 161:..\u8g2\csrc/u8x8_d_ssd1329.c **** 
 162:..\u8g2\csrc/u8x8_d_ssd1329.c **** static uint8_t u8x8_d_ssd1329_128x96_generic(u8x8_t *u8x8, uint8_t msg, uint8_t arg_int, void *arg_
 163:..\u8g2\csrc/u8x8_d_ssd1329.c **** {
 130              		.loc 1 163 0
 131              		.cfi_startproc
 132              		@ args = 0, pretend = 0, frame = 8
 133              		@ frame_needed = 0, uses_anonymous_args = 0
 134              	.LVL18:
 135 0000 2DE9F04F 		push	{r4, r5, r6, r7, r8, r9, r10, fp, lr}
 136              		.cfi_def_cfa_offset 36
 137              		.cfi_offset 4, -36
 138              		.cfi_offset 5, -32
 139              		.cfi_offset 6, -28
 140              		.cfi_offset 7, -24
 141              		.cfi_offset 8, -20
 142              		.cfi_offset 9, -16
 143              		.cfi_offset 10, -12
 144              		.cfi_offset 11, -8
 145              		.cfi_offset 14, -4
 146 0004 83B0     		sub	sp, sp, #12
 147              		.cfi_def_cfa_offset 48
 148 0006 0546     		mov	r5, r0
 149 0008 9146     		mov	r9, r2
 150 000a 0193     		str	r3, [sp, #4]
 164:..\u8g2\csrc/u8x8_d_ssd1329.c ****   uint8_t x, y, c;
 165:..\u8g2\csrc/u8x8_d_ssd1329.c ****   uint8_t *ptr;
 166:..\u8g2\csrc/u8x8_d_ssd1329.c ****   switch(msg)
 151              		.loc 1 166 0
 152 000c 0A39     		subs	r1, r1, #10
 153              	.LVL19:
 154 000e 0529     		cmp	r1, #5
 155 0010 00F2B480 		bhi	.L26
 156 0014 DFE801F0 		tbb	[pc, r1]
 157              	.LVL20:
 158              	.L15:
 159 0018 03       		.byte	(.L14-.L15)/2
 160 0019 0B       		.byte	(.L16-.L15)/2
 161 001a B2       		.byte	(.L26-.L15)/2
 162 001b 16       		.byte	(.L17-.L15)/2
 163 001c 29       		.byte	(.L18-.L15)/2
 164 001d 38       		.byte	(.L19-.L15)/2
 165              		.p2align 1
 166              	.L14:
 167:..\u8g2\csrc/u8x8_d_ssd1329.c ****   {
 168:..\u8g2\csrc/u8x8_d_ssd1329.c ****     /* handled by the calling function
 169:..\u8g2\csrc/u8x8_d_ssd1329.c ****     case U8X8_MSG_DISPLAY_SETUP_MEMORY:
 170:..\u8g2\csrc/u8x8_d_ssd1329.c ****       u8x8_d_helper_display_setup_memory(u8x8, &u8x8_ssd1329_128x96_nhd_display_info);
 171:..\u8g2\csrc/u8x8_d_ssd1329.c ****       break;
ARM GAS  C:\Users\brian\AppData\Local\Temp\ccp84CJA.s 			page 7


 172:..\u8g2\csrc/u8x8_d_ssd1329.c ****     */
 173:..\u8g2\csrc/u8x8_d_ssd1329.c ****     case U8X8_MSG_DISPLAY_INIT:
 174:..\u8g2\csrc/u8x8_d_ssd1329.c ****       u8x8_d_helper_display_init(u8x8);
 167              		.loc 1 174 0
 168 001e FFF7FEFF 		bl	u8x8_d_helper_display_init
 169              	.LVL21:
 175:..\u8g2\csrc/u8x8_d_ssd1329.c ****       u8x8_cad_SendSequence(u8x8, u8x8_d_ssd1329_128x96_noname_init_seq);    
 170              		.loc 1 175 0
 171 0022 5849     		ldr	r1, .L28
 172 0024 2846     		mov	r0, r5
 173 0026 FFF7FEFF 		bl	u8x8_cad_SendSequence
 174              	.LVL22:
 176:..\u8g2\csrc/u8x8_d_ssd1329.c ****       break;
 177:..\u8g2\csrc/u8x8_d_ssd1329.c ****     case U8X8_MSG_DISPLAY_SET_POWER_SAVE:
 178:..\u8g2\csrc/u8x8_d_ssd1329.c ****       if ( arg_int == 0 )
 179:..\u8g2\csrc/u8x8_d_ssd1329.c **** 	u8x8_cad_SendSequence(u8x8, u8x8_d_ssd1329_128x96_nhd_powersave0_seq);
 180:..\u8g2\csrc/u8x8_d_ssd1329.c ****       else
 181:..\u8g2\csrc/u8x8_d_ssd1329.c **** 	u8x8_cad_SendSequence(u8x8, u8x8_d_ssd1329_128x96_nhd_powersave1_seq);
 182:..\u8g2\csrc/u8x8_d_ssd1329.c ****       break;
 183:..\u8g2\csrc/u8x8_d_ssd1329.c ****     case U8X8_MSG_DISPLAY_SET_FLIP_MODE:
 184:..\u8g2\csrc/u8x8_d_ssd1329.c ****       if ( arg_int == 0 )
 185:..\u8g2\csrc/u8x8_d_ssd1329.c ****       {
 186:..\u8g2\csrc/u8x8_d_ssd1329.c **** 	u8x8_cad_SendSequence(u8x8, u8x8_d_ssd1329_128x96_nhd_flip0_seq);
 187:..\u8g2\csrc/u8x8_d_ssd1329.c **** 	u8x8->x_offset = u8x8->display_info->default_x_offset;
 188:..\u8g2\csrc/u8x8_d_ssd1329.c ****       }
 189:..\u8g2\csrc/u8x8_d_ssd1329.c ****       else
 190:..\u8g2\csrc/u8x8_d_ssd1329.c ****       {
 191:..\u8g2\csrc/u8x8_d_ssd1329.c **** 	u8x8_cad_SendSequence(u8x8, u8x8_d_ssd1329_128x96_nhd_flip1_seq);
 192:..\u8g2\csrc/u8x8_d_ssd1329.c **** 	u8x8->x_offset = u8x8->display_info->flipmode_x_offset;
 193:..\u8g2\csrc/u8x8_d_ssd1329.c ****       }
 194:..\u8g2\csrc/u8x8_d_ssd1329.c ****       break;
 195:..\u8g2\csrc/u8x8_d_ssd1329.c **** #ifdef U8X8_WITH_SET_CONTRAST
 196:..\u8g2\csrc/u8x8_d_ssd1329.c ****     case U8X8_MSG_DISPLAY_SET_CONTRAST:
 197:..\u8g2\csrc/u8x8_d_ssd1329.c ****       u8x8_cad_StartTransfer(u8x8);
 198:..\u8g2\csrc/u8x8_d_ssd1329.c ****       u8x8_cad_SendCmd(u8x8, 0x081 );
 199:..\u8g2\csrc/u8x8_d_ssd1329.c ****       u8x8_cad_SendArg(u8x8, arg_int );	/* ssd1329 has range from 0 to 255 */
 200:..\u8g2\csrc/u8x8_d_ssd1329.c ****       u8x8_cad_EndTransfer(u8x8);
 201:..\u8g2\csrc/u8x8_d_ssd1329.c ****       break;
 202:..\u8g2\csrc/u8x8_d_ssd1329.c **** #endif
 203:..\u8g2\csrc/u8x8_d_ssd1329.c ****     case U8X8_MSG_DISPLAY_DRAW_TILE:
 204:..\u8g2\csrc/u8x8_d_ssd1329.c ****       u8x8_cad_StartTransfer(u8x8);
 205:..\u8g2\csrc/u8x8_d_ssd1329.c ****       x = ((u8x8_tile_t *)arg_ptr)->x_pos;
 206:..\u8g2\csrc/u8x8_d_ssd1329.c ****       x *= 4;
 207:..\u8g2\csrc/u8x8_d_ssd1329.c ****       
 208:..\u8g2\csrc/u8x8_d_ssd1329.c ****       y = (((u8x8_tile_t *)arg_ptr)->y_pos);
 209:..\u8g2\csrc/u8x8_d_ssd1329.c ****       
 210:..\u8g2\csrc/u8x8_d_ssd1329.c ****       y *= 8;
 211:..\u8g2\csrc/u8x8_d_ssd1329.c ****       y += u8x8->x_offset;		/* x_offset is used as y offset for the ssd1329 */
 212:..\u8g2\csrc/u8x8_d_ssd1329.c ****     
 213:..\u8g2\csrc/u8x8_d_ssd1329.c ****       
 214:..\u8g2\csrc/u8x8_d_ssd1329.c ****       do
 215:..\u8g2\csrc/u8x8_d_ssd1329.c ****       {
 216:..\u8g2\csrc/u8x8_d_ssd1329.c **** 	c = ((u8x8_tile_t *)arg_ptr)->cnt;
 217:..\u8g2\csrc/u8x8_d_ssd1329.c **** 	ptr = ((u8x8_tile_t *)arg_ptr)->tile_ptr;
 218:..\u8g2\csrc/u8x8_d_ssd1329.c **** 
 219:..\u8g2\csrc/u8x8_d_ssd1329.c **** 	do
 220:..\u8g2\csrc/u8x8_d_ssd1329.c **** 	{
ARM GAS  C:\Users\brian\AppData\Local\Temp\ccp84CJA.s 			page 8


 221:..\u8g2\csrc/u8x8_d_ssd1329.c **** 	  if ( ptr[0] | ptr[1] | ptr[2] | ptr[3] | ptr[4] | ptr[5] | ptr[6] | ptr[7] )
 222:..\u8g2\csrc/u8x8_d_ssd1329.c **** 	  {
 223:..\u8g2\csrc/u8x8_d_ssd1329.c **** 	    /* draw the tile if pattern is not zero for all bytes */
 224:..\u8g2\csrc/u8x8_d_ssd1329.c **** 	    u8x8_cad_SendCmd(u8x8, 0x015 );	/* set column address */
 225:..\u8g2\csrc/u8x8_d_ssd1329.c **** 	    u8x8_cad_SendArg(u8x8, x );	/* start */
 226:..\u8g2\csrc/u8x8_d_ssd1329.c **** 	    u8x8_cad_SendArg(u8x8, x+3 );	/* end */
 227:..\u8g2\csrc/u8x8_d_ssd1329.c **** 
 228:..\u8g2\csrc/u8x8_d_ssd1329.c **** 	    u8x8_cad_SendCmd(u8x8, 0x075 );	/* set row address */
 229:..\u8g2\csrc/u8x8_d_ssd1329.c **** 	    u8x8_cad_SendArg(u8x8, y);
 230:..\u8g2\csrc/u8x8_d_ssd1329.c **** 	    u8x8_cad_SendArg(u8x8, y+7);
 231:..\u8g2\csrc/u8x8_d_ssd1329.c **** 	    
 232:..\u8g2\csrc/u8x8_d_ssd1329.c **** 	    
 233:..\u8g2\csrc/u8x8_d_ssd1329.c **** 	    u8x8_cad_SendData(u8x8, 32, u8x8_ssd1329_8to32(u8x8, ptr));
 234:..\u8g2\csrc/u8x8_d_ssd1329.c **** 	  }
 235:..\u8g2\csrc/u8x8_d_ssd1329.c **** 	  else
 236:..\u8g2\csrc/u8x8_d_ssd1329.c **** 	  {
 237:..\u8g2\csrc/u8x8_d_ssd1329.c **** 	    /* tile is empty, use the graphics acceleration command */
 238:..\u8g2\csrc/u8x8_d_ssd1329.c **** 	    /* are this really available on the SSD1329??? */
 239:..\u8g2\csrc/u8x8_d_ssd1329.c **** 	    u8x8_cad_SendCmd(u8x8, 0x024 );	// draw rectangle
 240:..\u8g2\csrc/u8x8_d_ssd1329.c **** 	    u8x8_cad_SendArg(u8x8, x );	
 241:..\u8g2\csrc/u8x8_d_ssd1329.c **** 	    u8x8_cad_SendArg(u8x8, y );	
 242:..\u8g2\csrc/u8x8_d_ssd1329.c **** 	    u8x8_cad_SendArg(u8x8, x+3 );	
 243:..\u8g2\csrc/u8x8_d_ssd1329.c **** 	    u8x8_cad_SendArg(u8x8, y+7 );	
 244:..\u8g2\csrc/u8x8_d_ssd1329.c **** 	    u8x8_cad_SendArg(u8x8, 0 );	// clear	    
 245:..\u8g2\csrc/u8x8_d_ssd1329.c **** 	  }
 246:..\u8g2\csrc/u8x8_d_ssd1329.c **** 	  ptr += 8;
 247:..\u8g2\csrc/u8x8_d_ssd1329.c **** 	  x += 4;
 248:..\u8g2\csrc/u8x8_d_ssd1329.c **** 	  c--;
 249:..\u8g2\csrc/u8x8_d_ssd1329.c **** 	} while( c > 0 );
 250:..\u8g2\csrc/u8x8_d_ssd1329.c **** 	
 251:..\u8g2\csrc/u8x8_d_ssd1329.c **** 	//x += 4;
 252:..\u8g2\csrc/u8x8_d_ssd1329.c **** 	arg_int--;
 253:..\u8g2\csrc/u8x8_d_ssd1329.c ****       } while( arg_int > 0 );
 254:..\u8g2\csrc/u8x8_d_ssd1329.c ****       
 255:..\u8g2\csrc/u8x8_d_ssd1329.c ****       u8x8_cad_EndTransfer(u8x8);
 256:..\u8g2\csrc/u8x8_d_ssd1329.c ****       break;
 257:..\u8g2\csrc/u8x8_d_ssd1329.c ****     default:
 258:..\u8g2\csrc/u8x8_d_ssd1329.c ****       return 0;
 259:..\u8g2\csrc/u8x8_d_ssd1329.c ****   }
 260:..\u8g2\csrc/u8x8_d_ssd1329.c ****   return 1;
 175              		.loc 1 260 0
 176 002a 0120     		movs	r0, #1
 176:..\u8g2\csrc/u8x8_d_ssd1329.c ****       break;
 177              		.loc 1 176 0
 178 002c A7E0     		b	.L13
 179              	.LVL23:
 180              	.L16:
 178:..\u8g2\csrc/u8x8_d_ssd1329.c **** 	u8x8_cad_SendSequence(u8x8, u8x8_d_ssd1329_128x96_nhd_powersave0_seq);
 181              		.loc 1 178 0
 182 002e 22B9     		cbnz	r2, .L20
 179:..\u8g2\csrc/u8x8_d_ssd1329.c ****       else
 183              		.loc 1 179 0
 184 0030 5549     		ldr	r1, .L28+4
 185 0032 FFF7FEFF 		bl	u8x8_cad_SendSequence
 186              	.LVL24:
 187              		.loc 1 260 0
 188 0036 0120     		movs	r0, #1
ARM GAS  C:\Users\brian\AppData\Local\Temp\ccp84CJA.s 			page 9


 189 0038 A1E0     		b	.L13
 190              	.LVL25:
 191              	.L20:
 181:..\u8g2\csrc/u8x8_d_ssd1329.c ****       break;
 192              		.loc 1 181 0
 193 003a 5449     		ldr	r1, .L28+8
 194 003c FFF7FEFF 		bl	u8x8_cad_SendSequence
 195              	.LVL26:
 196              		.loc 1 260 0
 197 0040 0120     		movs	r0, #1
 198 0042 9CE0     		b	.L13
 199              	.LVL27:
 200              	.L17:
 184:..\u8g2\csrc/u8x8_d_ssd1329.c ****       {
 201              		.loc 1 184 0
 202 0044 42B9     		cbnz	r2, .L21
 186:..\u8g2\csrc/u8x8_d_ssd1329.c **** 	u8x8->x_offset = u8x8->display_info->default_x_offset;
 203              		.loc 1 186 0
 204 0046 5249     		ldr	r1, .L28+12
 205 0048 FFF7FEFF 		bl	u8x8_cad_SendSequence
 206              	.LVL28:
 187:..\u8g2\csrc/u8x8_d_ssd1329.c ****       }
 207              		.loc 1 187 0
 208 004c 2B68     		ldr	r3, [r5]
 209 004e 9B7C     		ldrb	r3, [r3, #18]	@ zero_extendqisi2
 210 0050 85F82230 		strb	r3, [r5, #34]
 211              		.loc 1 260 0
 212 0054 0120     		movs	r0, #1
 213 0056 92E0     		b	.L13
 214              	.LVL29:
 215              	.L21:
 191:..\u8g2\csrc/u8x8_d_ssd1329.c **** 	u8x8->x_offset = u8x8->display_info->flipmode_x_offset;
 216              		.loc 1 191 0
 217 0058 4E49     		ldr	r1, .L28+16
 218 005a FFF7FEFF 		bl	u8x8_cad_SendSequence
 219              	.LVL30:
 192:..\u8g2\csrc/u8x8_d_ssd1329.c ****       }
 220              		.loc 1 192 0
 221 005e 2B68     		ldr	r3, [r5]
 222 0060 DB7C     		ldrb	r3, [r3, #19]	@ zero_extendqisi2
 223 0062 85F82230 		strb	r3, [r5, #34]
 224              		.loc 1 260 0
 225 0066 0120     		movs	r0, #1
 226 0068 89E0     		b	.L13
 227              	.LVL31:
 228              	.L18:
 197:..\u8g2\csrc/u8x8_d_ssd1329.c ****       u8x8_cad_SendCmd(u8x8, 0x081 );
 229              		.loc 1 197 0
 230 006a FFF7FEFF 		bl	u8x8_cad_StartTransfer
 231              	.LVL32:
 198:..\u8g2\csrc/u8x8_d_ssd1329.c ****       u8x8_cad_SendArg(u8x8, arg_int );	/* ssd1329 has range from 0 to 255 */
 232              		.loc 1 198 0
 233 006e 8121     		movs	r1, #129
 234 0070 2846     		mov	r0, r5
 235 0072 FFF7FEFF 		bl	u8x8_cad_SendCmd
 236              	.LVL33:
 199:..\u8g2\csrc/u8x8_d_ssd1329.c ****       u8x8_cad_EndTransfer(u8x8);
ARM GAS  C:\Users\brian\AppData\Local\Temp\ccp84CJA.s 			page 10


 237              		.loc 1 199 0
 238 0076 4946     		mov	r1, r9
 239 0078 2846     		mov	r0, r5
 240 007a FFF7FEFF 		bl	u8x8_cad_SendArg
 241              	.LVL34:
 200:..\u8g2\csrc/u8x8_d_ssd1329.c ****       break;
 242              		.loc 1 200 0
 243 007e 2846     		mov	r0, r5
 244 0080 FFF7FEFF 		bl	u8x8_cad_EndTransfer
 245              	.LVL35:
 246              		.loc 1 260 0
 247 0084 0120     		movs	r0, #1
 201:..\u8g2\csrc/u8x8_d_ssd1329.c **** #endif
 248              		.loc 1 201 0
 249 0086 7AE0     		b	.L13
 250              	.LVL36:
 251              	.L19:
 204:..\u8g2\csrc/u8x8_d_ssd1329.c ****       x = ((u8x8_tile_t *)arg_ptr)->x_pos;
 252              		.loc 1 204 0
 253 0088 FFF7FEFF 		bl	u8x8_cad_StartTransfer
 254              	.LVL37:
 205:..\u8g2\csrc/u8x8_d_ssd1329.c ****       x *= 4;
 255              		.loc 1 205 0
 256 008c 019A     		ldr	r2, [sp, #4]
 257 008e 5679     		ldrb	r6, [r2, #5]	@ zero_extendqisi2
 258              	.LVL38:
 206:..\u8g2\csrc/u8x8_d_ssd1329.c ****       
 259              		.loc 1 206 0
 260 0090 B600     		lsls	r6, r6, #2
 261              	.LVL39:
 262 0092 F6B2     		uxtb	r6, r6
 263              	.LVL40:
 208:..\u8g2\csrc/u8x8_d_ssd1329.c ****       
 264              		.loc 1 208 0
 265 0094 9379     		ldrb	r3, [r2, #6]	@ zero_extendqisi2
 266              	.LVL41:
 210:..\u8g2\csrc/u8x8_d_ssd1329.c ****       y += u8x8->x_offset;		/* x_offset is used as y offset for the ssd1329 */
 267              		.loc 1 210 0
 268 0096 DB00     		lsls	r3, r3, #3
 269              	.LVL42:
 270 0098 DBB2     		uxtb	r3, r3
 271              	.LVL43:
 211:..\u8g2\csrc/u8x8_d_ssd1329.c ****     
 272              		.loc 1 211 0
 273 009a 95F82280 		ldrb	r8, [r5, #34]	@ zero_extendqisi2
 274 009e 4344     		add	r3, r3, r8
 275              	.LVL44:
 276 00a0 5FFA83F8 		uxtb	r8, r3
 277              	.LVL45:
 278              	.L25:
 216:..\u8g2\csrc/u8x8_d_ssd1329.c **** 	ptr = ((u8x8_tile_t *)arg_ptr)->tile_ptr;
 279              		.loc 1 216 0
 280 00a4 019A     		ldr	r2, [sp, #4]
 281 00a6 1779     		ldrb	r7, [r2, #4]	@ zero_extendqisi2
 282              	.LVL46:
 217:..\u8g2\csrc/u8x8_d_ssd1329.c **** 
 283              		.loc 1 217 0
ARM GAS  C:\Users\brian\AppData\Local\Temp\ccp84CJA.s 			page 11


 284 00a8 1468     		ldr	r4, [r2]
 285              	.LVL47:
 286              	.L24:
 221:..\u8g2\csrc/u8x8_d_ssd1329.c **** 	  {
 287              		.loc 1 221 0
 288 00aa 2178     		ldrb	r1, [r4]	@ zero_extendqisi2
 289 00ac 6078     		ldrb	r0, [r4, #1]	@ zero_extendqisi2
 290 00ae A278     		ldrb	r2, [r4, #2]	@ zero_extendqisi2
 291 00b0 94F803B0 		ldrb	fp, [r4, #3]	@ zero_extendqisi2
 292 00b4 2379     		ldrb	r3, [r4, #4]	@ zero_extendqisi2
 293 00b6 94F805A0 		ldrb	r10, [r4, #5]	@ zero_extendqisi2
 294 00ba 94F806C0 		ldrb	ip, [r4, #6]	@ zero_extendqisi2
 295 00be 94F807E0 		ldrb	lr, [r4, #7]	@ zero_extendqisi2
 296 00c2 0143     		orrs	r1, r1, r0
 297 00c4 1143     		orrs	r1, r1, r2
 298 00c6 4BEA0102 		orr	r2, fp, r1
 299 00ca 1A43     		orrs	r2, r2, r3
 300 00cc 4AEA0203 		orr	r3, r10, r2
 301 00d0 4CEA0303 		orr	r3, ip, r3
 302 00d4 5EEA0303 		orrs	r3, lr, r3
 303 00d8 24D0     		beq	.L22
 224:..\u8g2\csrc/u8x8_d_ssd1329.c **** 	    u8x8_cad_SendArg(u8x8, x );	/* start */
 304              		.loc 1 224 0
 305 00da 1521     		movs	r1, #21
 306 00dc 2846     		mov	r0, r5
 307 00de FFF7FEFF 		bl	u8x8_cad_SendCmd
 308              	.LVL48:
 225:..\u8g2\csrc/u8x8_d_ssd1329.c **** 	    u8x8_cad_SendArg(u8x8, x+3 );	/* end */
 309              		.loc 1 225 0
 310 00e2 3146     		mov	r1, r6
 311 00e4 2846     		mov	r0, r5
 312 00e6 FFF7FEFF 		bl	u8x8_cad_SendArg
 313              	.LVL49:
 226:..\u8g2\csrc/u8x8_d_ssd1329.c **** 
 314              		.loc 1 226 0
 315 00ea F11C     		adds	r1, r6, #3
 316 00ec C9B2     		uxtb	r1, r1
 317 00ee 2846     		mov	r0, r5
 318 00f0 FFF7FEFF 		bl	u8x8_cad_SendArg
 319              	.LVL50:
 228:..\u8g2\csrc/u8x8_d_ssd1329.c **** 	    u8x8_cad_SendArg(u8x8, y);
 320              		.loc 1 228 0
 321 00f4 7521     		movs	r1, #117
 322 00f6 2846     		mov	r0, r5
 323 00f8 FFF7FEFF 		bl	u8x8_cad_SendCmd
 324              	.LVL51:
 229:..\u8g2\csrc/u8x8_d_ssd1329.c **** 	    u8x8_cad_SendArg(u8x8, y+7);
 325              		.loc 1 229 0
 326 00fc 4146     		mov	r1, r8
 327 00fe 2846     		mov	r0, r5
 328 0100 FFF7FEFF 		bl	u8x8_cad_SendArg
 329              	.LVL52:
 230:..\u8g2\csrc/u8x8_d_ssd1329.c **** 	    
 330              		.loc 1 230 0
 331 0104 08F10701 		add	r1, r8, #7
 332 0108 C9B2     		uxtb	r1, r1
 333 010a 2846     		mov	r0, r5
ARM GAS  C:\Users\brian\AppData\Local\Temp\ccp84CJA.s 			page 12


 334 010c FFF7FEFF 		bl	u8x8_cad_SendArg
 335              	.LVL53:
 233:..\u8g2\csrc/u8x8_d_ssd1329.c **** 	  }
 336              		.loc 1 233 0
 337 0110 2146     		mov	r1, r4
 338 0112 2846     		mov	r0, r5
 339 0114 FFF7FEFF 		bl	u8x8_ssd1329_8to32
 340              	.LVL54:
 341 0118 0246     		mov	r2, r0
 342 011a 2021     		movs	r1, #32
 343 011c 2846     		mov	r0, r5
 344 011e FFF7FEFF 		bl	u8x8_cad_SendData
 345              	.LVL55:
 346 0122 1AE0     		b	.L23
 347              	.L22:
 239:..\u8g2\csrc/u8x8_d_ssd1329.c **** 	    u8x8_cad_SendArg(u8x8, x );	
 348              		.loc 1 239 0
 349 0124 2421     		movs	r1, #36
 350 0126 2846     		mov	r0, r5
 351 0128 FFF7FEFF 		bl	u8x8_cad_SendCmd
 352              	.LVL56:
 240:..\u8g2\csrc/u8x8_d_ssd1329.c **** 	    u8x8_cad_SendArg(u8x8, y );	
 353              		.loc 1 240 0
 354 012c 3146     		mov	r1, r6
 355 012e 2846     		mov	r0, r5
 356 0130 FFF7FEFF 		bl	u8x8_cad_SendArg
 357              	.LVL57:
 241:..\u8g2\csrc/u8x8_d_ssd1329.c **** 	    u8x8_cad_SendArg(u8x8, x+3 );	
 358              		.loc 1 241 0
 359 0134 4146     		mov	r1, r8
 360 0136 2846     		mov	r0, r5
 361 0138 FFF7FEFF 		bl	u8x8_cad_SendArg
 362              	.LVL58:
 242:..\u8g2\csrc/u8x8_d_ssd1329.c **** 	    u8x8_cad_SendArg(u8x8, y+7 );	
 363              		.loc 1 242 0
 364 013c F11C     		adds	r1, r6, #3
 365 013e C9B2     		uxtb	r1, r1
 366 0140 2846     		mov	r0, r5
 367 0142 FFF7FEFF 		bl	u8x8_cad_SendArg
 368              	.LVL59:
 243:..\u8g2\csrc/u8x8_d_ssd1329.c **** 	    u8x8_cad_SendArg(u8x8, 0 );	// clear	    
 369              		.loc 1 243 0
 370 0146 08F10701 		add	r1, r8, #7
 371 014a C9B2     		uxtb	r1, r1
 372 014c 2846     		mov	r0, r5
 373 014e FFF7FEFF 		bl	u8x8_cad_SendArg
 374              	.LVL60:
 244:..\u8g2\csrc/u8x8_d_ssd1329.c **** 	  }
 375              		.loc 1 244 0
 376 0152 0021     		movs	r1, #0
 377 0154 2846     		mov	r0, r5
 378 0156 FFF7FEFF 		bl	u8x8_cad_SendArg
 379              	.LVL61:
 380              	.L23:
 246:..\u8g2\csrc/u8x8_d_ssd1329.c **** 	  x += 4;
 381              		.loc 1 246 0
 382 015a 0834     		adds	r4, r4, #8
ARM GAS  C:\Users\brian\AppData\Local\Temp\ccp84CJA.s 			page 13


 383              	.LVL62:
 247:..\u8g2\csrc/u8x8_d_ssd1329.c **** 	  c--;
 384              		.loc 1 247 0
 385 015c 0436     		adds	r6, r6, #4
 386              	.LVL63:
 387 015e F6B2     		uxtb	r6, r6
 388              	.LVL64:
 248:..\u8g2\csrc/u8x8_d_ssd1329.c **** 	} while( c > 0 );
 389              		.loc 1 248 0
 390 0160 013F     		subs	r7, r7, #1
 391              	.LVL65:
 249:..\u8g2\csrc/u8x8_d_ssd1329.c **** 	
 392              		.loc 1 249 0
 393 0162 17F0FF07 		ands	r7, r7, #255
 394              	.LVL66:
 395 0166 A0D1     		bne	.L24
 252:..\u8g2\csrc/u8x8_d_ssd1329.c ****       } while( arg_int > 0 );
 396              		.loc 1 252 0
 397 0168 09F1FF39 		add	r9, r9, #-1
 398              	.LVL67:
 253:..\u8g2\csrc/u8x8_d_ssd1329.c ****       
 399              		.loc 1 253 0
 400 016c 19F0FF09 		ands	r9, r9, #255
 401              	.LVL68:
 402 0170 98D1     		bne	.L25
 255:..\u8g2\csrc/u8x8_d_ssd1329.c ****       break;
 403              		.loc 1 255 0
 404 0172 2846     		mov	r0, r5
 405 0174 FFF7FEFF 		bl	u8x8_cad_EndTransfer
 406              	.LVL69:
 407              		.loc 1 260 0
 408 0178 0120     		movs	r0, #1
 256:..\u8g2\csrc/u8x8_d_ssd1329.c ****     default:
 409              		.loc 1 256 0
 410 017a 00E0     		b	.L13
 411              	.LVL70:
 412              	.L26:
 258:..\u8g2\csrc/u8x8_d_ssd1329.c ****   }
 413              		.loc 1 258 0
 414 017c 0020     		movs	r0, #0
 415              	.LVL71:
 416              	.L13:
 261:..\u8g2\csrc/u8x8_d_ssd1329.c **** }
 417              		.loc 1 261 0
 418 017e 03B0     		add	sp, sp, #12
 419              		.cfi_def_cfa_offset 36
 420              		@ sp needed
 421 0180 BDE8F08F 		pop	{r4, r5, r6, r7, r8, r9, r10, fp, pc}
 422              	.LVL72:
 423              	.L29:
 424              		.align	2
 425              	.L28:
 426 0184 00000000 		.word	.LANCHOR1
 427 0188 48000000 		.word	.LANCHOR1+72
 428 018c 50000000 		.word	.LANCHOR1+80
 429 0190 58000000 		.word	.LANCHOR1+88
 430 0194 60000000 		.word	.LANCHOR1+96
ARM GAS  C:\Users\brian\AppData\Local\Temp\ccp84CJA.s 			page 14


 431              		.cfi_endproc
 432              	.LFE1:
 433              		.size	u8x8_d_ssd1329_128x96_generic, .-u8x8_d_ssd1329_128x96_generic
 434              		.section	.text.u8x8_d_ssd1329_96x96_generic,"ax",%progbits
 435              		.align	2
 436              		.thumb
 437              		.thumb_func
 438              		.type	u8x8_d_ssd1329_96x96_generic, %function
 439              	u8x8_d_ssd1329_96x96_generic:
 440              	.LFB3:
 262:..\u8g2\csrc/u8x8_d_ssd1329.c **** 
 263:..\u8g2\csrc/u8x8_d_ssd1329.c **** 
 264:..\u8g2\csrc/u8x8_d_ssd1329.c **** static const u8x8_display_info_t u8x8_ssd1329_128x96_display_info =
 265:..\u8g2\csrc/u8x8_d_ssd1329.c **** {
 266:..\u8g2\csrc/u8x8_d_ssd1329.c ****   /* chip_enable_level = */ 0,
 267:..\u8g2\csrc/u8x8_d_ssd1329.c ****   /* chip_disable_level = */ 1,
 268:..\u8g2\csrc/u8x8_d_ssd1329.c ****   
 269:..\u8g2\csrc/u8x8_d_ssd1329.c ****   /* post_chip_enable_wait_ns = */ 20,
 270:..\u8g2\csrc/u8x8_d_ssd1329.c ****   /* pre_chip_disable_wait_ns = */ 15,
 271:..\u8g2\csrc/u8x8_d_ssd1329.c ****   /* reset_pulse_width_ms = */ 100, 	
 272:..\u8g2\csrc/u8x8_d_ssd1329.c ****   /* post_reset_wait_ms = */ 100, 		/**/
 273:..\u8g2\csrc/u8x8_d_ssd1329.c ****   /* sda_setup_time_ns = */ 100,		/* ssd1329  */
 274:..\u8g2\csrc/u8x8_d_ssd1329.c ****   /* sck_pulse_width_ns = */ 100,	/* ssd1329  */
 275:..\u8g2\csrc/u8x8_d_ssd1329.c ****   /* sck_clock_hz = */ 4000000UL,	/* since Arduino 1.6.0, the SPI bus speed in Hz. Should be  10000
 276:..\u8g2\csrc/u8x8_d_ssd1329.c ****   /* spi_mode = */ 0,		/* active high, rising edge */
 277:..\u8g2\csrc/u8x8_d_ssd1329.c ****   /* i2c_bus_clock_100kHz = */ 4,
 278:..\u8g2\csrc/u8x8_d_ssd1329.c ****   /* data_setup_time_ns = */ 40,
 279:..\u8g2\csrc/u8x8_d_ssd1329.c ****   /* write_pulse_width_ns = */ 60,	/* ssd1329 */
 280:..\u8g2\csrc/u8x8_d_ssd1329.c ****   /* tile_width = */ 16,
 281:..\u8g2\csrc/u8x8_d_ssd1329.c ****   /* tile_hight = */ 12,
 282:..\u8g2\csrc/u8x8_d_ssd1329.c ****   /* default_x_offset = */ 0,		/* x_offset is used as y offset for the ssd1329 */
 283:..\u8g2\csrc/u8x8_d_ssd1329.c ****   /* flipmode_x_offset = */ 0,		/* x_offset is used as y offset for the ssd1329 */
 284:..\u8g2\csrc/u8x8_d_ssd1329.c ****   /* pixel_width = */ 128,
 285:..\u8g2\csrc/u8x8_d_ssd1329.c ****   /* pixel_height = */ 96
 286:..\u8g2\csrc/u8x8_d_ssd1329.c **** };
 287:..\u8g2\csrc/u8x8_d_ssd1329.c **** 
 288:..\u8g2\csrc/u8x8_d_ssd1329.c **** uint8_t u8x8_d_ssd1329_128x96_noname(u8x8_t *u8x8, uint8_t msg, uint8_t arg_int, void *arg_ptr)
 289:..\u8g2\csrc/u8x8_d_ssd1329.c **** {
 290:..\u8g2\csrc/u8x8_d_ssd1329.c ****     if ( msg == U8X8_MSG_DISPLAY_SETUP_MEMORY )
 291:..\u8g2\csrc/u8x8_d_ssd1329.c ****     {
 292:..\u8g2\csrc/u8x8_d_ssd1329.c ****       u8x8_d_helper_display_setup_memory(u8x8, &u8x8_ssd1329_128x96_display_info);
 293:..\u8g2\csrc/u8x8_d_ssd1329.c ****       return 1;
 294:..\u8g2\csrc/u8x8_d_ssd1329.c ****     }
 295:..\u8g2\csrc/u8x8_d_ssd1329.c ****     return u8x8_d_ssd1329_128x96_generic(u8x8, msg, arg_int, arg_ptr);
 296:..\u8g2\csrc/u8x8_d_ssd1329.c **** }
 297:..\u8g2\csrc/u8x8_d_ssd1329.c **** 
 298:..\u8g2\csrc/u8x8_d_ssd1329.c **** /*=================================================*/
 299:..\u8g2\csrc/u8x8_d_ssd1329.c **** /* 
 300:..\u8g2\csrc/u8x8_d_ssd1329.c ****   SSD1329 with 96x96 
 301:..\u8g2\csrc/u8x8_d_ssd1329.c ****   For this display, the x_offset has been reverted to its original meaning!
 302:..\u8g2\csrc/u8x8_d_ssd1329.c **** 
 303:..\u8g2\csrc/u8x8_d_ssd1329.c ****   https://github.com/olikraus/u8g2/issues/1511
 304:..\u8g2\csrc/u8x8_d_ssd1329.c **** 
 305:..\u8g2\csrc/u8x8_d_ssd1329.c ****   FlipMode 1 probably does not work, see issue
 306:..\u8g2\csrc/u8x8_d_ssd1329.c **** */
 307:..\u8g2\csrc/u8x8_d_ssd1329.c **** 
 308:..\u8g2\csrc/u8x8_d_ssd1329.c **** static const uint8_t u8x8_d_ssd1329_96x96_flip0_seq[] = {
ARM GAS  C:\Users\brian\AppData\Local\Temp\ccp84CJA.s 			page 15


 309:..\u8g2\csrc/u8x8_d_ssd1329.c ****   U8X8_START_TRANSFER(),             	/* enable chip, delay is part of the transfer start */
 310:..\u8g2\csrc/u8x8_d_ssd1329.c ****   U8X8_CA(0x0a2, 0x000),		/* display offset, shift mapping ram counter */
 311:..\u8g2\csrc/u8x8_d_ssd1329.c ****   U8X8_CA(0x0a1, 0x000),		/* display start line */
 312:..\u8g2\csrc/u8x8_d_ssd1329.c ****   U8X8_CA(0x0a0, 0x042),		/* remap */
 313:..\u8g2\csrc/u8x8_d_ssd1329.c ****   U8X8_END_TRANSFER(),             	/* disable chip */
 314:..\u8g2\csrc/u8x8_d_ssd1329.c ****   U8X8_END()             			/* end of sequence */
 315:..\u8g2\csrc/u8x8_d_ssd1329.c **** };
 316:..\u8g2\csrc/u8x8_d_ssd1329.c **** 
 317:..\u8g2\csrc/u8x8_d_ssd1329.c **** static const uint8_t u8x8_d_ssd1329_96x96_flip1_seq[] = {
 318:..\u8g2\csrc/u8x8_d_ssd1329.c ****   U8X8_START_TRANSFER(),             	/* enable chip, delay is part of the transfer start */
 319:..\u8g2\csrc/u8x8_d_ssd1329.c ****   U8X8_CA(0x0a2, 0x060),		/* display offset, shift mapping ram counter */
 320:..\u8g2\csrc/u8x8_d_ssd1329.c ****   U8X8_CA(0x0a1, 0x000),		/* display start line */
 321:..\u8g2\csrc/u8x8_d_ssd1329.c ****   U8X8_CA(0x0a0, 0x051),		/* remap */
 322:..\u8g2\csrc/u8x8_d_ssd1329.c ****   U8X8_END_TRANSFER(),             	/* disable chip */
 323:..\u8g2\csrc/u8x8_d_ssd1329.c ****   U8X8_END()             			/* end of sequence */
 324:..\u8g2\csrc/u8x8_d_ssd1329.c **** };
 325:..\u8g2\csrc/u8x8_d_ssd1329.c **** 
 326:..\u8g2\csrc/u8x8_d_ssd1329.c **** 
 327:..\u8g2\csrc/u8x8_d_ssd1329.c **** static const uint8_t u8x8_d_ssd1329_96x96_noname_init_seq[] = {
 328:..\u8g2\csrc/u8x8_d_ssd1329.c ****     
 329:..\u8g2\csrc/u8x8_d_ssd1329.c ****   U8X8_START_TRANSFER(),             	/* enable chip, delay is part of the transfer start */
 330:..\u8g2\csrc/u8x8_d_ssd1329.c ****   
 331:..\u8g2\csrc/u8x8_d_ssd1329.c ****   
 332:..\u8g2\csrc/u8x8_d_ssd1329.c ****   U8X8_C(0x0ae),		                /* display off */
 333:..\u8g2\csrc/u8x8_d_ssd1329.c ****   U8X8_CA(0x0b3, 0x0f0),		/* set display clock divide ratio/oscillator frequency, see #1511*/
 334:..\u8g2\csrc/u8x8_d_ssd1329.c ****   U8X8_CA(0x0a8, 0x05f),		/* multiplex ratio: 0x03f * 1/64 duty */ 
 335:..\u8g2\csrc/u8x8_d_ssd1329.c ****   U8X8_CA(0x0a2, 0x000),		/* display offset, shift mapping ram counter */
 336:..\u8g2\csrc/u8x8_d_ssd1329.c ****   U8X8_CA(0x0a1, 0x000),		/* display start line */
 337:..\u8g2\csrc/u8x8_d_ssd1329.c ****   U8X8_CA(0x0ad, 0x002),		/* master configuration: disable embedded DC-DC, enable internal VCOMH */
 338:..\u8g2\csrc/u8x8_d_ssd1329.c ****   U8X8_CA(0x0a0, 0x042),		/* remap configuration, horizontal address increment (bit 2 = 0), enable 
 339:..\u8g2\csrc/u8x8_d_ssd1329.c ****   U8X8_C(0x086),				/* full current range (0x084, 0x085, 0x086) */
 340:..\u8g2\csrc/u8x8_d_ssd1329.c **** #ifdef removed
 341:..\u8g2\csrc/u8x8_d_ssd1329.c ****   U8X8_C(0x0b8),				/* set gray scale table */
 342:..\u8g2\csrc/u8x8_d_ssd1329.c ****     U8X8_A(1),				/* */
 343:..\u8g2\csrc/u8x8_d_ssd1329.c ****     U8X8_A(5),				/* */
 344:..\u8g2\csrc/u8x8_d_ssd1329.c ****     U8X8_A(10),				/* */
 345:..\u8g2\csrc/u8x8_d_ssd1329.c ****     U8X8_A(14),				/* */
 346:..\u8g2\csrc/u8x8_d_ssd1329.c ****     U8X8_A(19),				/* */
 347:..\u8g2\csrc/u8x8_d_ssd1329.c ****     U8X8_A(23),				/* */
 348:..\u8g2\csrc/u8x8_d_ssd1329.c ****     U8X8_A(28),				/* */
 349:..\u8g2\csrc/u8x8_d_ssd1329.c ****     U8X8_A(32),				/* */
 350:..\u8g2\csrc/u8x8_d_ssd1329.c ****     U8X8_A(37),				/* */
 351:..\u8g2\csrc/u8x8_d_ssd1329.c ****     U8X8_A(41),				/* */
 352:..\u8g2\csrc/u8x8_d_ssd1329.c ****     U8X8_A(46),				/* */
 353:..\u8g2\csrc/u8x8_d_ssd1329.c ****     U8X8_A(50),				/* */
 354:..\u8g2\csrc/u8x8_d_ssd1329.c ****     U8X8_A(55),				/* */
 355:..\u8g2\csrc/u8x8_d_ssd1329.c ****     U8X8_A(59),				/* */
 356:..\u8g2\csrc/u8x8_d_ssd1329.c ****     U8X8_A(63),				/* */
 357:..\u8g2\csrc/u8x8_d_ssd1329.c **** #endif 
 358:..\u8g2\csrc/u8x8_d_ssd1329.c **** 
 359:..\u8g2\csrc/u8x8_d_ssd1329.c ****   U8X8_C(0x0b7),				/* set default gray scale table */
 360:..\u8g2\csrc/u8x8_d_ssd1329.c ****     
 361:..\u8g2\csrc/u8x8_d_ssd1329.c ****   U8X8_CA(0x081, 0x070),		/* contrast, brightness, 0..255 */
 362:..\u8g2\csrc/u8x8_d_ssd1329.c ****   U8X8_CA(0x0b2, 0x023),		/* frame frequency (row period), see #1511 */
 363:..\u8g2\csrc/u8x8_d_ssd1329.c ****   U8X8_CA(0x0b1, 0x021),                    /* phase length, see #1511 */
 364:..\u8g2\csrc/u8x8_d_ssd1329.c ****   U8X8_CA(0x0bc, 0x010),                    /* pre-charge voltage level */
 365:..\u8g2\csrc/u8x8_d_ssd1329.c ****   U8X8_CA(0x0b4, 0x002),                    /* set pre-charge compensation level (not documented in
ARM GAS  C:\Users\brian\AppData\Local\Temp\ccp84CJA.s 			page 16


 366:..\u8g2\csrc/u8x8_d_ssd1329.c ****   U8X8_CA(0x0b0, 0x028),                    /* enable pre-charge compensation (not documented in th
 367:..\u8g2\csrc/u8x8_d_ssd1329.c ****   U8X8_CA(0x0be, 0x01f),                     /* VCOMH voltage */
 368:..\u8g2\csrc/u8x8_d_ssd1329.c ****   U8X8_CA(0x0bf, 0x002|0x00d),           /* VSL voltage level (not documented in the SDD1325 datash
 369:..\u8g2\csrc/u8x8_d_ssd1329.c ****   U8X8_C(0x0a4),				/* normal display mode */
 370:..\u8g2\csrc/u8x8_d_ssd1329.c ****     
 371:..\u8g2\csrc/u8x8_d_ssd1329.c ****   U8X8_CA(0x023, 0x003),		/* graphics accelleration: fill pixel */
 372:..\u8g2\csrc/u8x8_d_ssd1329.c ****     
 373:..\u8g2\csrc/u8x8_d_ssd1329.c ****   U8X8_END_TRANSFER(),             	/* disable chip */
 374:..\u8g2\csrc/u8x8_d_ssd1329.c ****   U8X8_END()             			/* end of sequence */
 375:..\u8g2\csrc/u8x8_d_ssd1329.c **** };
 376:..\u8g2\csrc/u8x8_d_ssd1329.c **** 
 377:..\u8g2\csrc/u8x8_d_ssd1329.c **** 
 378:..\u8g2\csrc/u8x8_d_ssd1329.c **** 
 379:..\u8g2\csrc/u8x8_d_ssd1329.c **** static uint8_t u8x8_d_ssd1329_96x96_generic(u8x8_t *u8x8, uint8_t msg, uint8_t arg_int, void *arg_p
 380:..\u8g2\csrc/u8x8_d_ssd1329.c **** {
 441              		.loc 1 380 0
 442              		.cfi_startproc
 443              		@ args = 0, pretend = 0, frame = 8
 444              		@ frame_needed = 0, uses_anonymous_args = 0
 445              	.LVL73:
 446 0000 2DE9F04F 		push	{r4, r5, r6, r7, r8, r9, r10, fp, lr}
 447              		.cfi_def_cfa_offset 36
 448              		.cfi_offset 4, -36
 449              		.cfi_offset 5, -32
 450              		.cfi_offset 6, -28
 451              		.cfi_offset 7, -24
 452              		.cfi_offset 8, -20
 453              		.cfi_offset 9, -16
 454              		.cfi_offset 10, -12
 455              		.cfi_offset 11, -8
 456              		.cfi_offset 14, -4
 457 0004 83B0     		sub	sp, sp, #12
 458              		.cfi_def_cfa_offset 48
 459 0006 0546     		mov	r5, r0
 460 0008 9146     		mov	r9, r2
 461 000a 0193     		str	r3, [sp, #4]
 381:..\u8g2\csrc/u8x8_d_ssd1329.c ****   uint8_t x, y, c;
 382:..\u8g2\csrc/u8x8_d_ssd1329.c ****   uint8_t *ptr;
 383:..\u8g2\csrc/u8x8_d_ssd1329.c ****   switch(msg)
 462              		.loc 1 383 0
 463 000c 0A39     		subs	r1, r1, #10
 464              	.LVL74:
 465 000e 0529     		cmp	r1, #5
 466 0010 00F2B680 		bhi	.L44
 467 0014 DFE801F0 		tbb	[pc, r1]
 468              	.LVL75:
 469              	.L33:
 470 0018 03       		.byte	(.L32-.L33)/2
 471 0019 0B       		.byte	(.L34-.L33)/2
 472 001a B4       		.byte	(.L44-.L33)/2
 473 001b 16       		.byte	(.L35-.L33)/2
 474 001c 29       		.byte	(.L36-.L33)/2
 475 001d 38       		.byte	(.L37-.L33)/2
 476              		.p2align 1
 477              	.L32:
 384:..\u8g2\csrc/u8x8_d_ssd1329.c ****   {
 385:..\u8g2\csrc/u8x8_d_ssd1329.c ****     /* handled by the calling function
ARM GAS  C:\Users\brian\AppData\Local\Temp\ccp84CJA.s 			page 17


 386:..\u8g2\csrc/u8x8_d_ssd1329.c ****     case U8X8_MSG_DISPLAY_SETUP_MEMORY:
 387:..\u8g2\csrc/u8x8_d_ssd1329.c ****       u8x8_d_helper_display_setup_memory(u8x8, &u8x8_ssd1329_128x96_nhd_display_info);
 388:..\u8g2\csrc/u8x8_d_ssd1329.c ****       break;
 389:..\u8g2\csrc/u8x8_d_ssd1329.c ****     */
 390:..\u8g2\csrc/u8x8_d_ssd1329.c ****     case U8X8_MSG_DISPLAY_INIT:
 391:..\u8g2\csrc/u8x8_d_ssd1329.c ****       u8x8_d_helper_display_init(u8x8);
 478              		.loc 1 391 0
 479 001e FFF7FEFF 		bl	u8x8_d_helper_display_init
 480              	.LVL76:
 392:..\u8g2\csrc/u8x8_d_ssd1329.c ****       u8x8_cad_SendSequence(u8x8, u8x8_d_ssd1329_96x96_noname_init_seq);    
 481              		.loc 1 392 0
 482 0022 5949     		ldr	r1, .L46
 483 0024 2846     		mov	r0, r5
 484 0026 FFF7FEFF 		bl	u8x8_cad_SendSequence
 485              	.LVL77:
 393:..\u8g2\csrc/u8x8_d_ssd1329.c ****       break;
 394:..\u8g2\csrc/u8x8_d_ssd1329.c ****     case U8X8_MSG_DISPLAY_SET_POWER_SAVE:
 395:..\u8g2\csrc/u8x8_d_ssd1329.c ****       if ( arg_int == 0 )
 396:..\u8g2\csrc/u8x8_d_ssd1329.c **** 	u8x8_cad_SendSequence(u8x8, u8x8_d_ssd1329_128x96_nhd_powersave0_seq);
 397:..\u8g2\csrc/u8x8_d_ssd1329.c ****       else
 398:..\u8g2\csrc/u8x8_d_ssd1329.c **** 	u8x8_cad_SendSequence(u8x8, u8x8_d_ssd1329_128x96_nhd_powersave1_seq);
 399:..\u8g2\csrc/u8x8_d_ssd1329.c ****       break;
 400:..\u8g2\csrc/u8x8_d_ssd1329.c ****     case U8X8_MSG_DISPLAY_SET_FLIP_MODE:
 401:..\u8g2\csrc/u8x8_d_ssd1329.c ****       if ( arg_int == 0 )
 402:..\u8g2\csrc/u8x8_d_ssd1329.c ****       {
 403:..\u8g2\csrc/u8x8_d_ssd1329.c **** 	u8x8_cad_SendSequence(u8x8, u8x8_d_ssd1329_96x96_flip0_seq);
 404:..\u8g2\csrc/u8x8_d_ssd1329.c **** 	u8x8->x_offset = u8x8->display_info->default_x_offset;
 405:..\u8g2\csrc/u8x8_d_ssd1329.c ****       }
 406:..\u8g2\csrc/u8x8_d_ssd1329.c ****       else
 407:..\u8g2\csrc/u8x8_d_ssd1329.c ****       {
 408:..\u8g2\csrc/u8x8_d_ssd1329.c **** 	u8x8_cad_SendSequence(u8x8, u8x8_d_ssd1329_96x96_flip1_seq);
 409:..\u8g2\csrc/u8x8_d_ssd1329.c **** 	u8x8->x_offset = u8x8->display_info->flipmode_x_offset;
 410:..\u8g2\csrc/u8x8_d_ssd1329.c ****       }
 411:..\u8g2\csrc/u8x8_d_ssd1329.c ****       break;
 412:..\u8g2\csrc/u8x8_d_ssd1329.c **** #ifdef U8X8_WITH_SET_CONTRAST
 413:..\u8g2\csrc/u8x8_d_ssd1329.c ****     case U8X8_MSG_DISPLAY_SET_CONTRAST:
 414:..\u8g2\csrc/u8x8_d_ssd1329.c ****       u8x8_cad_StartTransfer(u8x8);
 415:..\u8g2\csrc/u8x8_d_ssd1329.c ****       u8x8_cad_SendCmd(u8x8, 0x081 );
 416:..\u8g2\csrc/u8x8_d_ssd1329.c ****       u8x8_cad_SendArg(u8x8, arg_int );	/* ssd1329 has range from 0 to 255 */
 417:..\u8g2\csrc/u8x8_d_ssd1329.c ****       u8x8_cad_EndTransfer(u8x8);
 418:..\u8g2\csrc/u8x8_d_ssd1329.c ****       break;
 419:..\u8g2\csrc/u8x8_d_ssd1329.c **** #endif
 420:..\u8g2\csrc/u8x8_d_ssd1329.c ****     case U8X8_MSG_DISPLAY_DRAW_TILE:
 421:..\u8g2\csrc/u8x8_d_ssd1329.c ****       u8x8_cad_StartTransfer(u8x8);
 422:..\u8g2\csrc/u8x8_d_ssd1329.c ****       x = ((u8x8_tile_t *)arg_ptr)->x_pos;
 423:..\u8g2\csrc/u8x8_d_ssd1329.c ****       x *= 4;
 424:..\u8g2\csrc/u8x8_d_ssd1329.c ****       x += u8x8->x_offset;
 425:..\u8g2\csrc/u8x8_d_ssd1329.c ****       
 426:..\u8g2\csrc/u8x8_d_ssd1329.c ****       y = (((u8x8_tile_t *)arg_ptr)->y_pos);
 427:..\u8g2\csrc/u8x8_d_ssd1329.c ****       
 428:..\u8g2\csrc/u8x8_d_ssd1329.c ****       y *= 8;
 429:..\u8g2\csrc/u8x8_d_ssd1329.c ****     
 430:..\u8g2\csrc/u8x8_d_ssd1329.c ****       
 431:..\u8g2\csrc/u8x8_d_ssd1329.c ****       do
 432:..\u8g2\csrc/u8x8_d_ssd1329.c ****       {
 433:..\u8g2\csrc/u8x8_d_ssd1329.c **** 	c = ((u8x8_tile_t *)arg_ptr)->cnt;
 434:..\u8g2\csrc/u8x8_d_ssd1329.c **** 	ptr = ((u8x8_tile_t *)arg_ptr)->tile_ptr;
ARM GAS  C:\Users\brian\AppData\Local\Temp\ccp84CJA.s 			page 18


 435:..\u8g2\csrc/u8x8_d_ssd1329.c **** 
 436:..\u8g2\csrc/u8x8_d_ssd1329.c **** 	do
 437:..\u8g2\csrc/u8x8_d_ssd1329.c **** 	{
 438:..\u8g2\csrc/u8x8_d_ssd1329.c **** 	  if ( ptr[0] | ptr[1] | ptr[2] | ptr[3] | ptr[4] | ptr[5] | ptr[6] | ptr[7] )
 439:..\u8g2\csrc/u8x8_d_ssd1329.c **** 	  {
 440:..\u8g2\csrc/u8x8_d_ssd1329.c **** 	    /* draw the tile if pattern is not zero for all bytes */
 441:..\u8g2\csrc/u8x8_d_ssd1329.c **** 	    u8x8_cad_SendCmd(u8x8, 0x015 );	/* set column address */
 442:..\u8g2\csrc/u8x8_d_ssd1329.c **** 	    u8x8_cad_SendArg(u8x8, x );	/* start */
 443:..\u8g2\csrc/u8x8_d_ssd1329.c **** 	    u8x8_cad_SendArg(u8x8, x+3 );	/* end */
 444:..\u8g2\csrc/u8x8_d_ssd1329.c **** 
 445:..\u8g2\csrc/u8x8_d_ssd1329.c **** 	    u8x8_cad_SendCmd(u8x8, 0x075 );	/* set row address */
 446:..\u8g2\csrc/u8x8_d_ssd1329.c **** 	    u8x8_cad_SendArg(u8x8, y);
 447:..\u8g2\csrc/u8x8_d_ssd1329.c **** 	    u8x8_cad_SendArg(u8x8, y+7);
 448:..\u8g2\csrc/u8x8_d_ssd1329.c **** 	    
 449:..\u8g2\csrc/u8x8_d_ssd1329.c **** 	    
 450:..\u8g2\csrc/u8x8_d_ssd1329.c **** 	    u8x8_cad_SendData(u8x8, 32, u8x8_ssd1329_8to32(u8x8, ptr));
 451:..\u8g2\csrc/u8x8_d_ssd1329.c **** 	  }
 452:..\u8g2\csrc/u8x8_d_ssd1329.c **** 	  else
 453:..\u8g2\csrc/u8x8_d_ssd1329.c **** 	  {
 454:..\u8g2\csrc/u8x8_d_ssd1329.c **** 	    /* tile is empty, use the graphics acceleration command */
 455:..\u8g2\csrc/u8x8_d_ssd1329.c **** 	    /* are this really available on the SSD1329??? */
 456:..\u8g2\csrc/u8x8_d_ssd1329.c **** 	    u8x8_cad_SendCmd(u8x8, 0x024 );	// draw rectangle
 457:..\u8g2\csrc/u8x8_d_ssd1329.c **** 	    u8x8_cad_SendArg(u8x8, x );	
 458:..\u8g2\csrc/u8x8_d_ssd1329.c **** 	    u8x8_cad_SendArg(u8x8, y );	
 459:..\u8g2\csrc/u8x8_d_ssd1329.c **** 	    u8x8_cad_SendArg(u8x8, x+3 );	
 460:..\u8g2\csrc/u8x8_d_ssd1329.c **** 	    u8x8_cad_SendArg(u8x8, y+7 );	
 461:..\u8g2\csrc/u8x8_d_ssd1329.c **** 	    u8x8_cad_SendArg(u8x8, 0 );	// clear	    
 462:..\u8g2\csrc/u8x8_d_ssd1329.c **** 	  }
 463:..\u8g2\csrc/u8x8_d_ssd1329.c **** 	  ptr += 8;
 464:..\u8g2\csrc/u8x8_d_ssd1329.c **** 	  x += 4;
 465:..\u8g2\csrc/u8x8_d_ssd1329.c **** 	  c--;
 466:..\u8g2\csrc/u8x8_d_ssd1329.c **** 	} while( c > 0 );
 467:..\u8g2\csrc/u8x8_d_ssd1329.c **** 	
 468:..\u8g2\csrc/u8x8_d_ssd1329.c **** 	//x += 4;
 469:..\u8g2\csrc/u8x8_d_ssd1329.c **** 	arg_int--;
 470:..\u8g2\csrc/u8x8_d_ssd1329.c ****       } while( arg_int > 0 );
 471:..\u8g2\csrc/u8x8_d_ssd1329.c ****       
 472:..\u8g2\csrc/u8x8_d_ssd1329.c ****       u8x8_cad_EndTransfer(u8x8);
 473:..\u8g2\csrc/u8x8_d_ssd1329.c ****       break;
 474:..\u8g2\csrc/u8x8_d_ssd1329.c ****     default:
 475:..\u8g2\csrc/u8x8_d_ssd1329.c ****       return 0;
 476:..\u8g2\csrc/u8x8_d_ssd1329.c ****   }
 477:..\u8g2\csrc/u8x8_d_ssd1329.c ****   return 1;
 486              		.loc 1 477 0
 487 002a 0120     		movs	r0, #1
 393:..\u8g2\csrc/u8x8_d_ssd1329.c ****       break;
 488              		.loc 1 393 0
 489 002c A9E0     		b	.L31
 490              	.LVL78:
 491              	.L34:
 395:..\u8g2\csrc/u8x8_d_ssd1329.c **** 	u8x8_cad_SendSequence(u8x8, u8x8_d_ssd1329_128x96_nhd_powersave0_seq);
 492              		.loc 1 395 0
 493 002e 22B9     		cbnz	r2, .L38
 396:..\u8g2\csrc/u8x8_d_ssd1329.c ****       else
 494              		.loc 1 396 0
 495 0030 5649     		ldr	r1, .L46+4
 496 0032 FFF7FEFF 		bl	u8x8_cad_SendSequence
ARM GAS  C:\Users\brian\AppData\Local\Temp\ccp84CJA.s 			page 19


 497              	.LVL79:
 498              		.loc 1 477 0
 499 0036 0120     		movs	r0, #1
 500 0038 A3E0     		b	.L31
 501              	.LVL80:
 502              	.L38:
 398:..\u8g2\csrc/u8x8_d_ssd1329.c ****       break;
 503              		.loc 1 398 0
 504 003a 5549     		ldr	r1, .L46+8
 505 003c FFF7FEFF 		bl	u8x8_cad_SendSequence
 506              	.LVL81:
 507              		.loc 1 477 0
 508 0040 0120     		movs	r0, #1
 509 0042 9EE0     		b	.L31
 510              	.LVL82:
 511              	.L35:
 401:..\u8g2\csrc/u8x8_d_ssd1329.c ****       {
 512              		.loc 1 401 0
 513 0044 42B9     		cbnz	r2, .L39
 403:..\u8g2\csrc/u8x8_d_ssd1329.c **** 	u8x8->x_offset = u8x8->display_info->default_x_offset;
 514              		.loc 1 403 0
 515 0046 5349     		ldr	r1, .L46+12
 516 0048 FFF7FEFF 		bl	u8x8_cad_SendSequence
 517              	.LVL83:
 404:..\u8g2\csrc/u8x8_d_ssd1329.c ****       }
 518              		.loc 1 404 0
 519 004c 2B68     		ldr	r3, [r5]
 520 004e 9B7C     		ldrb	r3, [r3, #18]	@ zero_extendqisi2
 521 0050 85F82230 		strb	r3, [r5, #34]
 522              		.loc 1 477 0
 523 0054 0120     		movs	r0, #1
 524 0056 94E0     		b	.L31
 525              	.LVL84:
 526              	.L39:
 408:..\u8g2\csrc/u8x8_d_ssd1329.c **** 	u8x8->x_offset = u8x8->display_info->flipmode_x_offset;
 527              		.loc 1 408 0
 528 0058 4F49     		ldr	r1, .L46+16
 529 005a FFF7FEFF 		bl	u8x8_cad_SendSequence
 530              	.LVL85:
 409:..\u8g2\csrc/u8x8_d_ssd1329.c ****       }
 531              		.loc 1 409 0
 532 005e 2B68     		ldr	r3, [r5]
 533 0060 DB7C     		ldrb	r3, [r3, #19]	@ zero_extendqisi2
 534 0062 85F82230 		strb	r3, [r5, #34]
 535              		.loc 1 477 0
 536 0066 0120     		movs	r0, #1
 537 0068 8BE0     		b	.L31
 538              	.LVL86:
 539              	.L36:
 414:..\u8g2\csrc/u8x8_d_ssd1329.c ****       u8x8_cad_SendCmd(u8x8, 0x081 );
 540              		.loc 1 414 0
 541 006a FFF7FEFF 		bl	u8x8_cad_StartTransfer
 542              	.LVL87:
 415:..\u8g2\csrc/u8x8_d_ssd1329.c ****       u8x8_cad_SendArg(u8x8, arg_int );	/* ssd1329 has range from 0 to 255 */
 543              		.loc 1 415 0
 544 006e 8121     		movs	r1, #129
 545 0070 2846     		mov	r0, r5
ARM GAS  C:\Users\brian\AppData\Local\Temp\ccp84CJA.s 			page 20


 546 0072 FFF7FEFF 		bl	u8x8_cad_SendCmd
 547              	.LVL88:
 416:..\u8g2\csrc/u8x8_d_ssd1329.c ****       u8x8_cad_EndTransfer(u8x8);
 548              		.loc 1 416 0
 549 0076 4946     		mov	r1, r9
 550 0078 2846     		mov	r0, r5
 551 007a FFF7FEFF 		bl	u8x8_cad_SendArg
 552              	.LVL89:
 417:..\u8g2\csrc/u8x8_d_ssd1329.c ****       break;
 553              		.loc 1 417 0
 554 007e 2846     		mov	r0, r5
 555 0080 FFF7FEFF 		bl	u8x8_cad_EndTransfer
 556              	.LVL90:
 557              		.loc 1 477 0
 558 0084 0120     		movs	r0, #1
 418:..\u8g2\csrc/u8x8_d_ssd1329.c **** #endif
 559              		.loc 1 418 0
 560 0086 7CE0     		b	.L31
 561              	.LVL91:
 562              	.L37:
 421:..\u8g2\csrc/u8x8_d_ssd1329.c ****       x = ((u8x8_tile_t *)arg_ptr)->x_pos;
 563              		.loc 1 421 0
 564 0088 FFF7FEFF 		bl	u8x8_cad_StartTransfer
 565              	.LVL92:
 422:..\u8g2\csrc/u8x8_d_ssd1329.c ****       x *= 4;
 566              		.loc 1 422 0
 567 008c 019A     		ldr	r2, [sp, #4]
 568 008e 5379     		ldrb	r3, [r2, #5]	@ zero_extendqisi2
 569              	.LVL93:
 423:..\u8g2\csrc/u8x8_d_ssd1329.c ****       x += u8x8->x_offset;
 570              		.loc 1 423 0
 571 0090 9B00     		lsls	r3, r3, #2
 572              	.LVL94:
 573 0092 DBB2     		uxtb	r3, r3
 574              	.LVL95:
 424:..\u8g2\csrc/u8x8_d_ssd1329.c ****       
 575              		.loc 1 424 0
 576 0094 95F82260 		ldrb	r6, [r5, #34]	@ zero_extendqisi2
 577 0098 3344     		add	r3, r3, r6
 578              	.LVL96:
 579 009a DEB2     		uxtb	r6, r3
 580              	.LVL97:
 426:..\u8g2\csrc/u8x8_d_ssd1329.c ****       
 581              		.loc 1 426 0
 582 009c 92F80680 		ldrb	r8, [r2, #6]	@ zero_extendqisi2
 583              	.LVL98:
 428:..\u8g2\csrc/u8x8_d_ssd1329.c ****     
 584              		.loc 1 428 0
 585 00a0 4FEAC808 		lsl	r8, r8, #3
 586              	.LVL99:
 587 00a4 5FFA88F8 		uxtb	r8, r8
 588              	.LVL100:
 589              	.L43:
 433:..\u8g2\csrc/u8x8_d_ssd1329.c **** 	ptr = ((u8x8_tile_t *)arg_ptr)->tile_ptr;
 590              		.loc 1 433 0
 591 00a8 019A     		ldr	r2, [sp, #4]
 592 00aa 1779     		ldrb	r7, [r2, #4]	@ zero_extendqisi2
ARM GAS  C:\Users\brian\AppData\Local\Temp\ccp84CJA.s 			page 21


 593              	.LVL101:
 434:..\u8g2\csrc/u8x8_d_ssd1329.c **** 
 594              		.loc 1 434 0
 595 00ac 1468     		ldr	r4, [r2]
 596              	.LVL102:
 597              	.L42:
 438:..\u8g2\csrc/u8x8_d_ssd1329.c **** 	  {
 598              		.loc 1 438 0
 599 00ae 2178     		ldrb	r1, [r4]	@ zero_extendqisi2
 600 00b0 6078     		ldrb	r0, [r4, #1]	@ zero_extendqisi2
 601 00b2 A278     		ldrb	r2, [r4, #2]	@ zero_extendqisi2
 602 00b4 94F803B0 		ldrb	fp, [r4, #3]	@ zero_extendqisi2
 603 00b8 2379     		ldrb	r3, [r4, #4]	@ zero_extendqisi2
 604 00ba 94F805A0 		ldrb	r10, [r4, #5]	@ zero_extendqisi2
 605 00be 94F806C0 		ldrb	ip, [r4, #6]	@ zero_extendqisi2
 606 00c2 94F807E0 		ldrb	lr, [r4, #7]	@ zero_extendqisi2
 607 00c6 0143     		orrs	r1, r1, r0
 608 00c8 1143     		orrs	r1, r1, r2
 609 00ca 4BEA0102 		orr	r2, fp, r1
 610 00ce 1A43     		orrs	r2, r2, r3
 611 00d0 4AEA0203 		orr	r3, r10, r2
 612 00d4 4CEA0303 		orr	r3, ip, r3
 613 00d8 5EEA0303 		orrs	r3, lr, r3
 614 00dc 24D0     		beq	.L40
 441:..\u8g2\csrc/u8x8_d_ssd1329.c **** 	    u8x8_cad_SendArg(u8x8, x );	/* start */
 615              		.loc 1 441 0
 616 00de 1521     		movs	r1, #21
 617 00e0 2846     		mov	r0, r5
 618 00e2 FFF7FEFF 		bl	u8x8_cad_SendCmd
 619              	.LVL103:
 442:..\u8g2\csrc/u8x8_d_ssd1329.c **** 	    u8x8_cad_SendArg(u8x8, x+3 );	/* end */
 620              		.loc 1 442 0
 621 00e6 3146     		mov	r1, r6
 622 00e8 2846     		mov	r0, r5
 623 00ea FFF7FEFF 		bl	u8x8_cad_SendArg
 624              	.LVL104:
 443:..\u8g2\csrc/u8x8_d_ssd1329.c **** 
 625              		.loc 1 443 0
 626 00ee F11C     		adds	r1, r6, #3
 627 00f0 C9B2     		uxtb	r1, r1
 628 00f2 2846     		mov	r0, r5
 629 00f4 FFF7FEFF 		bl	u8x8_cad_SendArg
 630              	.LVL105:
 445:..\u8g2\csrc/u8x8_d_ssd1329.c **** 	    u8x8_cad_SendArg(u8x8, y);
 631              		.loc 1 445 0
 632 00f8 7521     		movs	r1, #117
 633 00fa 2846     		mov	r0, r5
 634 00fc FFF7FEFF 		bl	u8x8_cad_SendCmd
 635              	.LVL106:
 446:..\u8g2\csrc/u8x8_d_ssd1329.c **** 	    u8x8_cad_SendArg(u8x8, y+7);
 636              		.loc 1 446 0
 637 0100 4146     		mov	r1, r8
 638 0102 2846     		mov	r0, r5
 639 0104 FFF7FEFF 		bl	u8x8_cad_SendArg
 640              	.LVL107:
 447:..\u8g2\csrc/u8x8_d_ssd1329.c **** 	    
 641              		.loc 1 447 0
ARM GAS  C:\Users\brian\AppData\Local\Temp\ccp84CJA.s 			page 22


 642 0108 08F10701 		add	r1, r8, #7
 643 010c C9B2     		uxtb	r1, r1
 644 010e 2846     		mov	r0, r5
 645 0110 FFF7FEFF 		bl	u8x8_cad_SendArg
 646              	.LVL108:
 450:..\u8g2\csrc/u8x8_d_ssd1329.c **** 	  }
 647              		.loc 1 450 0
 648 0114 2146     		mov	r1, r4
 649 0116 2846     		mov	r0, r5
 650 0118 FFF7FEFF 		bl	u8x8_ssd1329_8to32
 651              	.LVL109:
 652 011c 0246     		mov	r2, r0
 653 011e 2021     		movs	r1, #32
 654 0120 2846     		mov	r0, r5
 655 0122 FFF7FEFF 		bl	u8x8_cad_SendData
 656              	.LVL110:
 657 0126 1AE0     		b	.L41
 658              	.L40:
 456:..\u8g2\csrc/u8x8_d_ssd1329.c **** 	    u8x8_cad_SendArg(u8x8, x );	
 659              		.loc 1 456 0
 660 0128 2421     		movs	r1, #36
 661 012a 2846     		mov	r0, r5
 662 012c FFF7FEFF 		bl	u8x8_cad_SendCmd
 663              	.LVL111:
 457:..\u8g2\csrc/u8x8_d_ssd1329.c **** 	    u8x8_cad_SendArg(u8x8, y );	
 664              		.loc 1 457 0
 665 0130 3146     		mov	r1, r6
 666 0132 2846     		mov	r0, r5
 667 0134 FFF7FEFF 		bl	u8x8_cad_SendArg
 668              	.LVL112:
 458:..\u8g2\csrc/u8x8_d_ssd1329.c **** 	    u8x8_cad_SendArg(u8x8, x+3 );	
 669              		.loc 1 458 0
 670 0138 4146     		mov	r1, r8
 671 013a 2846     		mov	r0, r5
 672 013c FFF7FEFF 		bl	u8x8_cad_SendArg
 673              	.LVL113:
 459:..\u8g2\csrc/u8x8_d_ssd1329.c **** 	    u8x8_cad_SendArg(u8x8, y+7 );	
 674              		.loc 1 459 0
 675 0140 F11C     		adds	r1, r6, #3
 676 0142 C9B2     		uxtb	r1, r1
 677 0144 2846     		mov	r0, r5
 678 0146 FFF7FEFF 		bl	u8x8_cad_SendArg
 679              	.LVL114:
 460:..\u8g2\csrc/u8x8_d_ssd1329.c **** 	    u8x8_cad_SendArg(u8x8, 0 );	// clear	    
 680              		.loc 1 460 0
 681 014a 08F10701 		add	r1, r8, #7
 682 014e C9B2     		uxtb	r1, r1
 683 0150 2846     		mov	r0, r5
 684 0152 FFF7FEFF 		bl	u8x8_cad_SendArg
 685              	.LVL115:
 461:..\u8g2\csrc/u8x8_d_ssd1329.c **** 	  }
 686              		.loc 1 461 0
 687 0156 0021     		movs	r1, #0
 688 0158 2846     		mov	r0, r5
 689 015a FFF7FEFF 		bl	u8x8_cad_SendArg
 690              	.LVL116:
 691              	.L41:
ARM GAS  C:\Users\brian\AppData\Local\Temp\ccp84CJA.s 			page 23


 463:..\u8g2\csrc/u8x8_d_ssd1329.c **** 	  x += 4;
 692              		.loc 1 463 0
 693 015e 0834     		adds	r4, r4, #8
 694              	.LVL117:
 464:..\u8g2\csrc/u8x8_d_ssd1329.c **** 	  c--;
 695              		.loc 1 464 0
 696 0160 0436     		adds	r6, r6, #4
 697              	.LVL118:
 698 0162 F6B2     		uxtb	r6, r6
 699              	.LVL119:
 465:..\u8g2\csrc/u8x8_d_ssd1329.c **** 	} while( c > 0 );
 700              		.loc 1 465 0
 701 0164 013F     		subs	r7, r7, #1
 702              	.LVL120:
 466:..\u8g2\csrc/u8x8_d_ssd1329.c **** 	
 703              		.loc 1 466 0
 704 0166 17F0FF07 		ands	r7, r7, #255
 705              	.LVL121:
 706 016a A0D1     		bne	.L42
 469:..\u8g2\csrc/u8x8_d_ssd1329.c ****       } while( arg_int > 0 );
 707              		.loc 1 469 0
 708 016c 09F1FF39 		add	r9, r9, #-1
 709              	.LVL122:
 470:..\u8g2\csrc/u8x8_d_ssd1329.c ****       
 710              		.loc 1 470 0
 711 0170 19F0FF09 		ands	r9, r9, #255
 712              	.LVL123:
 713 0174 98D1     		bne	.L43
 472:..\u8g2\csrc/u8x8_d_ssd1329.c ****       break;
 714              		.loc 1 472 0
 715 0176 2846     		mov	r0, r5
 716 0178 FFF7FEFF 		bl	u8x8_cad_EndTransfer
 717              	.LVL124:
 718              		.loc 1 477 0
 719 017c 0120     		movs	r0, #1
 473:..\u8g2\csrc/u8x8_d_ssd1329.c ****     default:
 720              		.loc 1 473 0
 721 017e 00E0     		b	.L31
 722              	.LVL125:
 723              	.L44:
 475:..\u8g2\csrc/u8x8_d_ssd1329.c ****   }
 724              		.loc 1 475 0
 725 0180 0020     		movs	r0, #0
 726              	.LVL126:
 727              	.L31:
 478:..\u8g2\csrc/u8x8_d_ssd1329.c **** }
 728              		.loc 1 478 0
 729 0182 03B0     		add	sp, sp, #12
 730              		.cfi_def_cfa_offset 36
 731              		@ sp needed
 732 0184 BDE8F08F 		pop	{r4, r5, r6, r7, r8, r9, r10, fp, pc}
 733              	.LVL127:
 734              	.L47:
 735              		.align	2
 736              	.L46:
 737 0188 68000000 		.word	.LANCHOR1+104
 738 018c 48000000 		.word	.LANCHOR1+72
ARM GAS  C:\Users\brian\AppData\Local\Temp\ccp84CJA.s 			page 24


 739 0190 50000000 		.word	.LANCHOR1+80
 740 0194 B0000000 		.word	.LANCHOR1+176
 741 0198 C0000000 		.word	.LANCHOR1+192
 742              		.cfi_endproc
 743              	.LFE3:
 744              		.size	u8x8_d_ssd1329_96x96_generic, .-u8x8_d_ssd1329_96x96_generic
 745              		.section	.text.u8x8_d_ssd1329_128x96_noname,"ax",%progbits
 746              		.align	2
 747              		.global	u8x8_d_ssd1329_128x96_noname
 748              		.thumb
 749              		.thumb_func
 750              		.type	u8x8_d_ssd1329_128x96_noname, %function
 751              	u8x8_d_ssd1329_128x96_noname:
 752              	.LFB2:
 289:..\u8g2\csrc/u8x8_d_ssd1329.c ****     if ( msg == U8X8_MSG_DISPLAY_SETUP_MEMORY )
 753              		.loc 1 289 0
 754              		.cfi_startproc
 755              		@ args = 0, pretend = 0, frame = 0
 756              		@ frame_needed = 0, uses_anonymous_args = 0
 757              	.LVL128:
 758 0000 08B5     		push	{r3, lr}
 759              		.cfi_def_cfa_offset 8
 760              		.cfi_offset 3, -8
 761              		.cfi_offset 14, -4
 290:..\u8g2\csrc/u8x8_d_ssd1329.c ****     {
 762              		.loc 1 290 0
 763 0002 0929     		cmp	r1, #9
 764 0004 04D1     		bne	.L49
 292:..\u8g2\csrc/u8x8_d_ssd1329.c ****       return 1;
 765              		.loc 1 292 0
 766 0006 0449     		ldr	r1, .L52
 767              	.LVL129:
 768 0008 FFF7FEFF 		bl	u8x8_d_helper_display_setup_memory
 769              	.LVL130:
 293:..\u8g2\csrc/u8x8_d_ssd1329.c ****     }
 770              		.loc 1 293 0
 771 000c 0120     		movs	r0, #1
 772 000e 08BD     		pop	{r3, pc}
 773              	.LVL131:
 774              	.L49:
 295:..\u8g2\csrc/u8x8_d_ssd1329.c **** }
 775              		.loc 1 295 0
 776 0010 FFF7FEFF 		bl	u8x8_d_ssd1329_128x96_generic
 777              	.LVL132:
 296:..\u8g2\csrc/u8x8_d_ssd1329.c **** 
 778              		.loc 1 296 0
 779 0014 08BD     		pop	{r3, pc}
 780              	.L53:
 781 0016 00BF     		.align	2
 782              	.L52:
 783 0018 D0000000 		.word	.LANCHOR1+208
 784              		.cfi_endproc
 785              	.LFE2:
 786              		.size	u8x8_d_ssd1329_128x96_noname, .-u8x8_d_ssd1329_128x96_noname
 787              		.section	.text.u8x8_d_ssd1329_96x96_noname,"ax",%progbits
 788              		.align	2
 789              		.global	u8x8_d_ssd1329_96x96_noname
ARM GAS  C:\Users\brian\AppData\Local\Temp\ccp84CJA.s 			page 25


 790              		.thumb
 791              		.thumb_func
 792              		.type	u8x8_d_ssd1329_96x96_noname, %function
 793              	u8x8_d_ssd1329_96x96_noname:
 794              	.LFB4:
 479:..\u8g2\csrc/u8x8_d_ssd1329.c **** 
 480:..\u8g2\csrc/u8x8_d_ssd1329.c **** 
 481:..\u8g2\csrc/u8x8_d_ssd1329.c **** static const u8x8_display_info_t u8x8_ssd1329_96x96_display_info =
 482:..\u8g2\csrc/u8x8_d_ssd1329.c **** {
 483:..\u8g2\csrc/u8x8_d_ssd1329.c ****   /* chip_enable_level = */ 0,
 484:..\u8g2\csrc/u8x8_d_ssd1329.c ****   /* chip_disable_level = */ 1,
 485:..\u8g2\csrc/u8x8_d_ssd1329.c ****   
 486:..\u8g2\csrc/u8x8_d_ssd1329.c ****   /* post_chip_enable_wait_ns = */ 20,
 487:..\u8g2\csrc/u8x8_d_ssd1329.c ****   /* pre_chip_disable_wait_ns = */ 15,
 488:..\u8g2\csrc/u8x8_d_ssd1329.c ****   /* reset_pulse_width_ms = */ 100, 	
 489:..\u8g2\csrc/u8x8_d_ssd1329.c ****   /* post_reset_wait_ms = */ 100, 		/**/
 490:..\u8g2\csrc/u8x8_d_ssd1329.c ****   /* sda_setup_time_ns = */ 100,		/* ssd1329  */
 491:..\u8g2\csrc/u8x8_d_ssd1329.c ****   /* sck_pulse_width_ns = */ 100,	/* ssd1329  */
 492:..\u8g2\csrc/u8x8_d_ssd1329.c ****   /* sck_clock_hz = */ 4000000UL,	/* since Arduino 1.6.0, the SPI bus speed in Hz. Should be  10000
 493:..\u8g2\csrc/u8x8_d_ssd1329.c ****   /* spi_mode = */ 0,		/* active high, rising edge */
 494:..\u8g2\csrc/u8x8_d_ssd1329.c ****   /* i2c_bus_clock_100kHz = */ 4,
 495:..\u8g2\csrc/u8x8_d_ssd1329.c ****   /* data_setup_time_ns = */ 40,
 496:..\u8g2\csrc/u8x8_d_ssd1329.c ****   /* write_pulse_width_ns = */ 60,	/* ssd1329 */
 497:..\u8g2\csrc/u8x8_d_ssd1329.c ****   /* tile_width = */ 12,
 498:..\u8g2\csrc/u8x8_d_ssd1329.c ****   /* tile_hight = */ 12,
 499:..\u8g2\csrc/u8x8_d_ssd1329.c ****   /* default_x_offset = */  0,          /* x offset for flip mode 0 */
 500:..\u8g2\csrc/u8x8_d_ssd1329.c ****   /* flipmode_x_offset = */ 16,		/* x offset for flip mode 1 */ 
 501:..\u8g2\csrc/u8x8_d_ssd1329.c ****   /* pixel_width = */ 96,
 502:..\u8g2\csrc/u8x8_d_ssd1329.c ****   /* pixel_height = */ 96
 503:..\u8g2\csrc/u8x8_d_ssd1329.c **** };
 504:..\u8g2\csrc/u8x8_d_ssd1329.c **** 
 505:..\u8g2\csrc/u8x8_d_ssd1329.c **** uint8_t u8x8_d_ssd1329_96x96_noname(u8x8_t *u8x8, uint8_t msg, uint8_t arg_int, void *arg_ptr)
 506:..\u8g2\csrc/u8x8_d_ssd1329.c **** {
 795              		.loc 1 506 0
 796              		.cfi_startproc
 797              		@ args = 0, pretend = 0, frame = 0
 798              		@ frame_needed = 0, uses_anonymous_args = 0
 799              	.LVL133:
 800 0000 08B5     		push	{r3, lr}
 801              		.cfi_def_cfa_offset 8
 802              		.cfi_offset 3, -8
 803              		.cfi_offset 14, -4
 507:..\u8g2\csrc/u8x8_d_ssd1329.c ****     if ( msg == U8X8_MSG_DISPLAY_SETUP_MEMORY )
 804              		.loc 1 507 0
 805 0002 0929     		cmp	r1, #9
 806 0004 04D1     		bne	.L55
 508:..\u8g2\csrc/u8x8_d_ssd1329.c ****     {
 509:..\u8g2\csrc/u8x8_d_ssd1329.c ****       u8x8_d_helper_display_setup_memory(u8x8, &u8x8_ssd1329_96x96_display_info);
 807              		.loc 1 509 0
 808 0006 0449     		ldr	r1, .L58
 809              	.LVL134:
 810 0008 FFF7FEFF 		bl	u8x8_d_helper_display_setup_memory
 811              	.LVL135:
 510:..\u8g2\csrc/u8x8_d_ssd1329.c ****       return 1;
 812              		.loc 1 510 0
 813 000c 0120     		movs	r0, #1
 814 000e 08BD     		pop	{r3, pc}
ARM GAS  C:\Users\brian\AppData\Local\Temp\ccp84CJA.s 			page 26


 815              	.LVL136:
 816              	.L55:
 511:..\u8g2\csrc/u8x8_d_ssd1329.c ****     }
 512:..\u8g2\csrc/u8x8_d_ssd1329.c ****     return u8x8_d_ssd1329_96x96_generic(u8x8, msg, arg_int, arg_ptr);
 817              		.loc 1 512 0
 818 0010 FFF7FEFF 		bl	u8x8_d_ssd1329_96x96_generic
 819              	.LVL137:
 513:..\u8g2\csrc/u8x8_d_ssd1329.c **** }
 820              		.loc 1 513 0
 821 0014 08BD     		pop	{r3, pc}
 822              	.L59:
 823 0016 00BF     		.align	2
 824              	.L58:
 825 0018 E8000000 		.word	.LANCHOR1+232
 826              		.cfi_endproc
 827              	.LFE4:
 828              		.size	u8x8_d_ssd1329_96x96_noname, .-u8x8_d_ssd1329_96x96_noname
 829              		.section	.rodata
 830              		.align	2
 831              		.set	.LANCHOR1,. + 0
 832              		.type	u8x8_d_ssd1329_128x96_noname_init_seq, %object
 833              		.size	u8x8_d_ssd1329_128x96_noname_init_seq, 71
 834              	u8x8_d_ssd1329_128x96_noname_init_seq:
 835 0000 18       		.byte	24
 836 0001 15       		.byte	21
 837 0002 AE       		.byte	-82
 838 0003 15       		.byte	21
 839 0004 B3       		.byte	-77
 840 0005 16       		.byte	22
 841 0006 91       		.byte	-111
 842 0007 15       		.byte	21
 843 0008 A8       		.byte	-88
 844 0009 16       		.byte	22
 845 000a 5F       		.byte	95
 846 000b 15       		.byte	21
 847 000c A2       		.byte	-94
 848 000d 16       		.byte	22
 849 000e 00       		.byte	0
 850 000f 15       		.byte	21
 851 0010 A1       		.byte	-95
 852 0011 16       		.byte	22
 853 0012 00       		.byte	0
 854 0013 15       		.byte	21
 855 0014 AD       		.byte	-83
 856 0015 16       		.byte	22
 857 0016 02       		.byte	2
 858 0017 15       		.byte	21
 859 0018 A0       		.byte	-96
 860 0019 16       		.byte	22
 861 001a 52       		.byte	82
 862 001b 15       		.byte	21
 863 001c 86       		.byte	-122
 864 001d 15       		.byte	21
 865 001e B7       		.byte	-73
 866 001f 15       		.byte	21
 867 0020 81       		.byte	-127
 868 0021 16       		.byte	22
ARM GAS  C:\Users\brian\AppData\Local\Temp\ccp84CJA.s 			page 27


 869 0022 70       		.byte	112
 870 0023 15       		.byte	21
 871 0024 B2       		.byte	-78
 872 0025 16       		.byte	22
 873 0026 51       		.byte	81
 874 0027 15       		.byte	21
 875 0028 B1       		.byte	-79
 876 0029 16       		.byte	22
 877 002a 55       		.byte	85
 878 002b 15       		.byte	21
 879 002c BC       		.byte	-68
 880 002d 16       		.byte	22
 881 002e 10       		.byte	16
 882 002f 15       		.byte	21
 883 0030 B4       		.byte	-76
 884 0031 16       		.byte	22
 885 0032 02       		.byte	2
 886 0033 15       		.byte	21
 887 0034 B0       		.byte	-80
 888 0035 16       		.byte	22
 889 0036 28       		.byte	40
 890 0037 15       		.byte	21
 891 0038 BE       		.byte	-66
 892 0039 16       		.byte	22
 893 003a 1C       		.byte	28
 894 003b 15       		.byte	21
 895 003c BF       		.byte	-65
 896 003d 16       		.byte	22
 897 003e 0F       		.byte	15
 898 003f 15       		.byte	21
 899 0040 A4       		.byte	-92
 900 0041 15       		.byte	21
 901 0042 23       		.byte	35
 902 0043 16       		.byte	22
 903 0044 03       		.byte	3
 904 0045 19       		.byte	25
 905 0046 FF       		.byte	-1
 906 0047 00       		.space	1
 907              		.type	u8x8_d_ssd1329_128x96_nhd_powersave0_seq, %object
 908              		.size	u8x8_d_ssd1329_128x96_nhd_powersave0_seq, 5
 909              	u8x8_d_ssd1329_128x96_nhd_powersave0_seq:
 910 0048 18       		.byte	24
 911 0049 15       		.byte	21
 912 004a AF       		.byte	-81
 913 004b 19       		.byte	25
 914 004c FF       		.byte	-1
 915 004d 000000   		.space	3
 916              		.type	u8x8_d_ssd1329_128x96_nhd_powersave1_seq, %object
 917              		.size	u8x8_d_ssd1329_128x96_nhd_powersave1_seq, 5
 918              	u8x8_d_ssd1329_128x96_nhd_powersave1_seq:
 919 0050 18       		.byte	24
 920 0051 15       		.byte	21
 921 0052 AE       		.byte	-82
 922 0053 19       		.byte	25
 923 0054 FF       		.byte	-1
 924 0055 000000   		.space	3
 925              		.type	u8x8_d_ssd1329_128x96_nhd_flip0_seq, %object
ARM GAS  C:\Users\brian\AppData\Local\Temp\ccp84CJA.s 			page 28


 926              		.size	u8x8_d_ssd1329_128x96_nhd_flip0_seq, 7
 927              	u8x8_d_ssd1329_128x96_nhd_flip0_seq:
 928 0058 18       		.byte	24
 929 0059 15       		.byte	21
 930 005a A0       		.byte	-96
 931 005b 16       		.byte	22
 932 005c 52       		.byte	82
 933 005d 19       		.byte	25
 934 005e FF       		.byte	-1
 935 005f 00       		.space	1
 936              		.type	u8x8_d_ssd1329_128x96_nhd_flip1_seq, %object
 937              		.size	u8x8_d_ssd1329_128x96_nhd_flip1_seq, 7
 938              	u8x8_d_ssd1329_128x96_nhd_flip1_seq:
 939 0060 18       		.byte	24
 940 0061 15       		.byte	21
 941 0062 A0       		.byte	-96
 942 0063 16       		.byte	22
 943 0064 41       		.byte	65
 944 0065 19       		.byte	25
 945 0066 FF       		.byte	-1
 946 0067 00       		.space	1
 947              		.type	u8x8_d_ssd1329_96x96_noname_init_seq, %object
 948              		.size	u8x8_d_ssd1329_96x96_noname_init_seq, 71
 949              	u8x8_d_ssd1329_96x96_noname_init_seq:
 950 0068 18       		.byte	24
 951 0069 15       		.byte	21
 952 006a AE       		.byte	-82
 953 006b 15       		.byte	21
 954 006c B3       		.byte	-77
 955 006d 16       		.byte	22
 956 006e F0       		.byte	-16
 957 006f 15       		.byte	21
 958 0070 A8       		.byte	-88
 959 0071 16       		.byte	22
 960 0072 5F       		.byte	95
 961 0073 15       		.byte	21
 962 0074 A2       		.byte	-94
 963 0075 16       		.byte	22
 964 0076 00       		.byte	0
 965 0077 15       		.byte	21
 966 0078 A1       		.byte	-95
 967 0079 16       		.byte	22
 968 007a 00       		.byte	0
 969 007b 15       		.byte	21
 970 007c AD       		.byte	-83
 971 007d 16       		.byte	22
 972 007e 02       		.byte	2
 973 007f 15       		.byte	21
 974 0080 A0       		.byte	-96
 975 0081 16       		.byte	22
 976 0082 42       		.byte	66
 977 0083 15       		.byte	21
 978 0084 86       		.byte	-122
 979 0085 15       		.byte	21
 980 0086 B7       		.byte	-73
 981 0087 15       		.byte	21
 982 0088 81       		.byte	-127
ARM GAS  C:\Users\brian\AppData\Local\Temp\ccp84CJA.s 			page 29


 983 0089 16       		.byte	22
 984 008a 70       		.byte	112
 985 008b 15       		.byte	21
 986 008c B2       		.byte	-78
 987 008d 16       		.byte	22
 988 008e 23       		.byte	35
 989 008f 15       		.byte	21
 990 0090 B1       		.byte	-79
 991 0091 16       		.byte	22
 992 0092 21       		.byte	33
 993 0093 15       		.byte	21
 994 0094 BC       		.byte	-68
 995 0095 16       		.byte	22
 996 0096 10       		.byte	16
 997 0097 15       		.byte	21
 998 0098 B4       		.byte	-76
 999 0099 16       		.byte	22
 1000 009a 02       		.byte	2
 1001 009b 15       		.byte	21
 1002 009c B0       		.byte	-80
 1003 009d 16       		.byte	22
 1004 009e 28       		.byte	40
 1005 009f 15       		.byte	21
 1006 00a0 BE       		.byte	-66
 1007 00a1 16       		.byte	22
 1008 00a2 1F       		.byte	31
 1009 00a3 15       		.byte	21
 1010 00a4 BF       		.byte	-65
 1011 00a5 16       		.byte	22
 1012 00a6 0F       		.byte	15
 1013 00a7 15       		.byte	21
 1014 00a8 A4       		.byte	-92
 1015 00a9 15       		.byte	21
 1016 00aa 23       		.byte	35
 1017 00ab 16       		.byte	22
 1018 00ac 03       		.byte	3
 1019 00ad 19       		.byte	25
 1020 00ae FF       		.byte	-1
 1021 00af 00       		.space	1
 1022              		.type	u8x8_d_ssd1329_96x96_flip0_seq, %object
 1023              		.size	u8x8_d_ssd1329_96x96_flip0_seq, 15
 1024              	u8x8_d_ssd1329_96x96_flip0_seq:
 1025 00b0 18       		.byte	24
 1026 00b1 15       		.byte	21
 1027 00b2 A2       		.byte	-94
 1028 00b3 16       		.byte	22
 1029 00b4 00       		.byte	0
 1030 00b5 15       		.byte	21
 1031 00b6 A1       		.byte	-95
 1032 00b7 16       		.byte	22
 1033 00b8 00       		.byte	0
 1034 00b9 15       		.byte	21
 1035 00ba A0       		.byte	-96
 1036 00bb 16       		.byte	22
 1037 00bc 42       		.byte	66
 1038 00bd 19       		.byte	25
 1039 00be FF       		.byte	-1
ARM GAS  C:\Users\brian\AppData\Local\Temp\ccp84CJA.s 			page 30


 1040 00bf 00       		.space	1
 1041              		.type	u8x8_d_ssd1329_96x96_flip1_seq, %object
 1042              		.size	u8x8_d_ssd1329_96x96_flip1_seq, 15
 1043              	u8x8_d_ssd1329_96x96_flip1_seq:
 1044 00c0 18       		.byte	24
 1045 00c1 15       		.byte	21
 1046 00c2 A2       		.byte	-94
 1047 00c3 16       		.byte	22
 1048 00c4 60       		.byte	96
 1049 00c5 15       		.byte	21
 1050 00c6 A1       		.byte	-95
 1051 00c7 16       		.byte	22
 1052 00c8 00       		.byte	0
 1053 00c9 15       		.byte	21
 1054 00ca A0       		.byte	-96
 1055 00cb 16       		.byte	22
 1056 00cc 51       		.byte	81
 1057 00cd 19       		.byte	25
 1058 00ce FF       		.byte	-1
 1059 00cf 00       		.space	1
 1060              		.type	u8x8_ssd1329_128x96_display_info, %object
 1061              		.size	u8x8_ssd1329_128x96_display_info, 24
 1062              	u8x8_ssd1329_128x96_display_info:
 1063 00d0 00       		.byte	0
 1064 00d1 01       		.byte	1
 1065 00d2 14       		.byte	20
 1066 00d3 0F       		.byte	15
 1067 00d4 64       		.byte	100
 1068 00d5 64       		.byte	100
 1069 00d6 64       		.byte	100
 1070 00d7 64       		.byte	100
 1071 00d8 00093D00 		.word	4000000
 1072 00dc 00       		.byte	0
 1073 00dd 04       		.byte	4
 1074 00de 28       		.byte	40
 1075 00df 3C       		.byte	60
 1076 00e0 10       		.byte	16
 1077 00e1 0C       		.byte	12
 1078 00e2 00       		.byte	0
 1079 00e3 00       		.byte	0
 1080 00e4 8000     		.short	128
 1081 00e6 6000     		.short	96
 1082              		.type	u8x8_ssd1329_96x96_display_info, %object
 1083              		.size	u8x8_ssd1329_96x96_display_info, 24
 1084              	u8x8_ssd1329_96x96_display_info:
 1085 00e8 00       		.byte	0
 1086 00e9 01       		.byte	1
 1087 00ea 14       		.byte	20
 1088 00eb 0F       		.byte	15
 1089 00ec 64       		.byte	100
 1090 00ed 64       		.byte	100
 1091 00ee 64       		.byte	100
 1092 00ef 64       		.byte	100
 1093 00f0 00093D00 		.word	4000000
 1094 00f4 00       		.byte	0
 1095 00f5 04       		.byte	4
 1096 00f6 28       		.byte	40
ARM GAS  C:\Users\brian\AppData\Local\Temp\ccp84CJA.s 			page 31


 1097 00f7 3C       		.byte	60
 1098 00f8 0C       		.byte	12
 1099 00f9 0C       		.byte	12
 1100 00fa 00       		.byte	0
 1101 00fb 10       		.byte	16
 1102 00fc 6000     		.short	96
 1103 00fe 6000     		.short	96
 1104              		.bss
 1105              		.align	2
 1106              		.set	.LANCHOR0,. + 0
 1107              		.type	u8x8_ssd1329_8to32_dest_buf, %object
 1108              		.size	u8x8_ssd1329_8to32_dest_buf, 32
 1109              	u8x8_ssd1329_8to32_dest_buf:
 1110 0000 00000000 		.space	32
 1110      00000000 
 1110      00000000 
 1110      00000000 
 1110      00000000 
 1111              		.text
 1112              	.Letext0:
 1113              		.file 2 "c:\\program files (x86)\\cypress\\psoc creator\\4.4\\psoc creator\\import\\gnu\\arm\\5.4.
 1114              		.file 3 "c:\\program files (x86)\\cypress\\psoc creator\\4.4\\psoc creator\\import\\gnu\\arm\\5.4.
 1115              		.file 4 "..\\u8g2\\csrc\\u8x8.h"