ARM GAS  C:\Users\brian\AppData\Local\Temp\cc1Lhyrd.s 			page 1


   1              		.syntax unified
   2              		.cpu cortex-m3
   3              		.fpu softvfp
   4              		.eabi_attribute 20, 1
   5              		.eabi_attribute 21, 1
   6              		.eabi_attribute 23, 3
   7              		.eabi_attribute 24, 1
   8              		.eabi_attribute 25, 1
   9              		.eabi_attribute 26, 1
  10              		.eabi_attribute 30, 1
  11              		.eabi_attribute 34, 1
  12              		.eabi_attribute 18, 4
  13              		.thumb
  14              		.syntax unified
  15              		.file	"u8x8_d_st7565.c"
  16              		.text
  17              	.Ltext0:
  18              		.cfi_sections	.debug_frame
  19              		.section	.text.u8x8_d_st7565_common,"ax",%progbits
  20              		.align	2
  21              		.global	u8x8_d_st7565_common
  22              		.thumb
  23              		.thumb_func
  24              		.type	u8x8_d_st7565_common, %function
  25              	u8x8_d_st7565_common:
  26              	.LFB0:
  27              		.file 1 "..\\u8g2\\csrc\\u8x8_d_st7565.c"
   1:..\u8g2\csrc/u8x8_d_st7565.c **** /*
   2:..\u8g2\csrc/u8x8_d_st7565.c **** 
   3:..\u8g2\csrc/u8x8_d_st7565.c ****   u8x8_d_st7565.c
   4:..\u8g2\csrc/u8x8_d_st7565.c ****   also includes support for nt7534 
   5:..\u8g2\csrc/u8x8_d_st7565.c ****   
   6:..\u8g2\csrc/u8x8_d_st7565.c ****   Universal 8bit Graphics Library (https://github.com/olikraus/u8g2/)
   7:..\u8g2\csrc/u8x8_d_st7565.c **** 
   8:..\u8g2\csrc/u8x8_d_st7565.c ****   Copyright (c) 2016, olikraus@gmail.com
   9:..\u8g2\csrc/u8x8_d_st7565.c ****   All rights reserved.
  10:..\u8g2\csrc/u8x8_d_st7565.c **** 
  11:..\u8g2\csrc/u8x8_d_st7565.c ****   Redistribution and use in source and binary forms, with or without modification, 
  12:..\u8g2\csrc/u8x8_d_st7565.c ****   are permitted provided that the following conditions are met:
  13:..\u8g2\csrc/u8x8_d_st7565.c **** 
  14:..\u8g2\csrc/u8x8_d_st7565.c ****   * Redistributions of source code must retain the above copyright notice, this list 
  15:..\u8g2\csrc/u8x8_d_st7565.c ****     of conditions and the following disclaimer.
  16:..\u8g2\csrc/u8x8_d_st7565.c ****     
  17:..\u8g2\csrc/u8x8_d_st7565.c ****   * Redistributions in binary form must reproduce the above copyright notice, this 
  18:..\u8g2\csrc/u8x8_d_st7565.c ****     list of conditions and the following disclaimer in the documentation and/or other 
  19:..\u8g2\csrc/u8x8_d_st7565.c ****     materials provided with the distribution.
  20:..\u8g2\csrc/u8x8_d_st7565.c **** 
  21:..\u8g2\csrc/u8x8_d_st7565.c ****   THIS SOFTWARE IS PROVIDED BY THE COPYRIGHT HOLDERS AND 
  22:..\u8g2\csrc/u8x8_d_st7565.c ****   CONTRIBUTORS "AS IS" AND ANY EXPRESS OR IMPLIED WARRANTIES, 
  23:..\u8g2\csrc/u8x8_d_st7565.c ****   INCLUDING, BUT NOT LIMITED TO, THE IMPLIED WARRANTIES OF 
  24:..\u8g2\csrc/u8x8_d_st7565.c ****   MERCHANTABILITY AND FITNESS FOR A PARTICULAR PURPOSE ARE 
  25:..\u8g2\csrc/u8x8_d_st7565.c ****   DISCLAIMED. IN NO EVENT SHALL THE COPYRIGHT HOLDER OR 
  26:..\u8g2\csrc/u8x8_d_st7565.c ****   CONTRIBUTORS BE LIABLE FOR ANY DIRECT, INDIRECT, INCIDENTAL, 
  27:..\u8g2\csrc/u8x8_d_st7565.c ****   SPECIAL, EXEMPLARY, OR CONSEQUENTIAL DAMAGES (INCLUDING, BUT 
  28:..\u8g2\csrc/u8x8_d_st7565.c ****   NOT LIMITED TO, PROCUREMENT OF SUBSTITUTE GOODS OR SERVICES; 
  29:..\u8g2\csrc/u8x8_d_st7565.c ****   LOSS OF USE, DATA, OR PROFITS; OR BUSINESS INTERRUPTION) HOWEVER 
  30:..\u8g2\csrc/u8x8_d_st7565.c ****   CAUSED AND ON ANY THEORY OF LIABILITY, WHETHER IN CONTRACT, 
ARM GAS  C:\Users\brian\AppData\Local\Temp\cc1Lhyrd.s 			page 2


  31:..\u8g2\csrc/u8x8_d_st7565.c ****   STRICT LIABILITY, OR TORT (INCLUDING NEGLIGENCE OR OTHERWISE) 
  32:..\u8g2\csrc/u8x8_d_st7565.c ****   ARISING IN ANY WAY OUT OF THE USE OF THIS SOFTWARE, EVEN IF 
  33:..\u8g2\csrc/u8x8_d_st7565.c ****   ADVISED OF THE POSSIBILITY OF SUCH DAMAGE.  
  34:..\u8g2\csrc/u8x8_d_st7565.c **** 
  35:..\u8g2\csrc/u8x8_d_st7565.c ****   
  36:..\u8g2\csrc/u8x8_d_st7565.c **** */
  37:..\u8g2\csrc/u8x8_d_st7565.c **** #include "u8x8.h"
  38:..\u8g2\csrc/u8x8_d_st7565.c **** 
  39:..\u8g2\csrc/u8x8_d_st7565.c **** 
  40:..\u8g2\csrc/u8x8_d_st7565.c **** 
  41:..\u8g2\csrc/u8x8_d_st7565.c **** 
  42:..\u8g2\csrc/u8x8_d_st7565.c **** 
  43:..\u8g2\csrc/u8x8_d_st7565.c **** static const uint8_t u8x8_d_st7565_powersave0_seq[] = {
  44:..\u8g2\csrc/u8x8_d_st7565.c ****   U8X8_START_TRANSFER(),             	/* enable chip, delay is part of the transfer start */
  45:..\u8g2\csrc/u8x8_d_st7565.c ****   U8X8_C(0x0a4),		                /* all pixel off, issue 142 */
  46:..\u8g2\csrc/u8x8_d_st7565.c ****   U8X8_C(0x0af),		                /* display on */
  47:..\u8g2\csrc/u8x8_d_st7565.c ****   U8X8_END_TRANSFER(),             	/* disable chip */
  48:..\u8g2\csrc/u8x8_d_st7565.c ****   U8X8_END()             			/* end of sequence */
  49:..\u8g2\csrc/u8x8_d_st7565.c **** };
  50:..\u8g2\csrc/u8x8_d_st7565.c **** 
  51:..\u8g2\csrc/u8x8_d_st7565.c **** static const uint8_t u8x8_d_st7565_powersave1_seq[] = {
  52:..\u8g2\csrc/u8x8_d_st7565.c ****   U8X8_START_TRANSFER(),             	/* enable chip, delay is part of the transfer start */
  53:..\u8g2\csrc/u8x8_d_st7565.c ****   U8X8_C(0x0ae),		                /* display off */
  54:..\u8g2\csrc/u8x8_d_st7565.c ****   U8X8_C(0x0a5),		                /* enter powersafe: all pixel on, issue 142 */
  55:..\u8g2\csrc/u8x8_d_st7565.c ****   U8X8_END_TRANSFER(),             	/* disable chip */
  56:..\u8g2\csrc/u8x8_d_st7565.c ****   U8X8_END()             			/* end of sequence */
  57:..\u8g2\csrc/u8x8_d_st7565.c **** };
  58:..\u8g2\csrc/u8x8_d_st7565.c **** 
  59:..\u8g2\csrc/u8x8_d_st7565.c **** static const uint8_t u8x8_d_st7565_flip0_seq[] = {
  60:..\u8g2\csrc/u8x8_d_st7565.c ****   U8X8_START_TRANSFER(),             	/* enable chip, delay is part of the transfer start */
  61:..\u8g2\csrc/u8x8_d_st7565.c ****   U8X8_C(0x0a1),				/* segment remap a0/a1*/
  62:..\u8g2\csrc/u8x8_d_st7565.c ****   U8X8_C(0x0c0),				/* c0: scan dir normal, c8: reverse */
  63:..\u8g2\csrc/u8x8_d_st7565.c ****   U8X8_END_TRANSFER(),             	/* disable chip */
  64:..\u8g2\csrc/u8x8_d_st7565.c ****   U8X8_END()             			/* end of sequence */
  65:..\u8g2\csrc/u8x8_d_st7565.c **** };
  66:..\u8g2\csrc/u8x8_d_st7565.c **** 
  67:..\u8g2\csrc/u8x8_d_st7565.c **** static const uint8_t u8x8_d_st7565_flip1_seq[] = {
  68:..\u8g2\csrc/u8x8_d_st7565.c ****   U8X8_START_TRANSFER(),             	/* enable chip, delay is part of the transfer start */
  69:..\u8g2\csrc/u8x8_d_st7565.c ****   U8X8_C(0x0a0),				/* segment remap a0/a1*/
  70:..\u8g2\csrc/u8x8_d_st7565.c ****   U8X8_C(0x0c8),				/* c0: scan dir normal, c8: reverse */
  71:..\u8g2\csrc/u8x8_d_st7565.c ****   U8X8_END_TRANSFER(),             	/* disable chip */
  72:..\u8g2\csrc/u8x8_d_st7565.c ****   U8X8_END()             			/* end of sequence */
  73:..\u8g2\csrc/u8x8_d_st7565.c **** };
  74:..\u8g2\csrc/u8x8_d_st7565.c **** 
  75:..\u8g2\csrc/u8x8_d_st7565.c **** static const uint8_t u8x8_d_st7565_zflip0_seq[] = {
  76:..\u8g2\csrc/u8x8_d_st7565.c ****   U8X8_START_TRANSFER(),             	/* enable chip, delay is part of the transfer start */
  77:..\u8g2\csrc/u8x8_d_st7565.c ****   U8X8_C(0x0a1),				/* segment remap a0/a1*/
  78:..\u8g2\csrc/u8x8_d_st7565.c ****   U8X8_C(0x0c8),				/* c0: scan dir normal, c8: reverse */
  79:..\u8g2\csrc/u8x8_d_st7565.c ****   U8X8_END_TRANSFER(),             	/* disable chip */
  80:..\u8g2\csrc/u8x8_d_st7565.c ****   U8X8_END()             			/* end of sequence */
  81:..\u8g2\csrc/u8x8_d_st7565.c **** };
  82:..\u8g2\csrc/u8x8_d_st7565.c **** 
  83:..\u8g2\csrc/u8x8_d_st7565.c **** static const uint8_t u8x8_d_st7565_zflip1_seq[] = {
  84:..\u8g2\csrc/u8x8_d_st7565.c ****   U8X8_START_TRANSFER(),             	/* enable chip, delay is part of the transfer start */
  85:..\u8g2\csrc/u8x8_d_st7565.c ****   U8X8_C(0x0a0),				/* segment remap a0/a1*/
  86:..\u8g2\csrc/u8x8_d_st7565.c ****   U8X8_C(0x0c0),				/* c0: scan dir normal, c8: reverse */
  87:..\u8g2\csrc/u8x8_d_st7565.c ****   U8X8_END_TRANSFER(),             	/* disable chip */
ARM GAS  C:\Users\brian\AppData\Local\Temp\cc1Lhyrd.s 			page 3


  88:..\u8g2\csrc/u8x8_d_st7565.c ****   U8X8_END()             			/* end of sequence */
  89:..\u8g2\csrc/u8x8_d_st7565.c **** };
  90:..\u8g2\csrc/u8x8_d_st7565.c **** 
  91:..\u8g2\csrc/u8x8_d_st7565.c **** static const u8x8_display_info_t u8x8_st7565_128x64_display_info =
  92:..\u8g2\csrc/u8x8_d_st7565.c **** {
  93:..\u8g2\csrc/u8x8_d_st7565.c ****   /* chip_enable_level = */ 0,
  94:..\u8g2\csrc/u8x8_d_st7565.c ****   /* chip_disable_level = */ 1,
  95:..\u8g2\csrc/u8x8_d_st7565.c ****   
  96:..\u8g2\csrc/u8x8_d_st7565.c ****   /* post_chip_enable_wait_ns = */ 150,	/* st7565 datasheet, table 26, tcsh */
  97:..\u8g2\csrc/u8x8_d_st7565.c ****   /* pre_chip_disable_wait_ns = */ 50,	/* st7565 datasheet, table 26, tcss */
  98:..\u8g2\csrc/u8x8_d_st7565.c ****   /* reset_pulse_width_ms = */ 1, 
  99:..\u8g2\csrc/u8x8_d_st7565.c ****   /* post_reset_wait_ms = */ 1, 
 100:..\u8g2\csrc/u8x8_d_st7565.c ****   /* sda_setup_time_ns = */ 50,		/* st7565 datasheet, table 26, tsds */
 101:..\u8g2\csrc/u8x8_d_st7565.c ****   /* sck_pulse_width_ns = */ 120,	/* half of cycle time (100ns according to datasheet), AVR: below 
 102:..\u8g2\csrc/u8x8_d_st7565.c ****   /* sck_clock_hz = */ 4000000UL,	/* since Arduino 1.6.0, the SPI bus speed in Hz. Should be  10000
 103:..\u8g2\csrc/u8x8_d_st7565.c ****   /* spi_mode = */ 0,		/* active high, rising edge */
 104:..\u8g2\csrc/u8x8_d_st7565.c ****   /* i2c_bus_clock_100kHz = */ 4,
 105:..\u8g2\csrc/u8x8_d_st7565.c ****   /* data_setup_time_ns = */ 40,	/* st7565 datasheet, table 24, tds8 */
 106:..\u8g2\csrc/u8x8_d_st7565.c ****   /* write_pulse_width_ns = */ 80,	/* st7565 datasheet, table 24, tcclw */
 107:..\u8g2\csrc/u8x8_d_st7565.c ****   /* tile_width = */ 16,		/* width of 16*8=128 pixel */
 108:..\u8g2\csrc/u8x8_d_st7565.c ****   /* tile_hight = */ 8,
 109:..\u8g2\csrc/u8x8_d_st7565.c ****   /* default_x_offset = */ 0,
 110:..\u8g2\csrc/u8x8_d_st7565.c ****   /* flipmode_x_offset = */ 4,
 111:..\u8g2\csrc/u8x8_d_st7565.c ****   /* pixel_width = */ 128,
 112:..\u8g2\csrc/u8x8_d_st7565.c ****   /* pixel_height = */ 64
 113:..\u8g2\csrc/u8x8_d_st7565.c **** };
 114:..\u8g2\csrc/u8x8_d_st7565.c **** 
 115:..\u8g2\csrc/u8x8_d_st7565.c **** uint8_t u8x8_d_st7565_common(u8x8_t *u8x8, uint8_t msg, uint8_t arg_int, void *arg_ptr)
 116:..\u8g2\csrc/u8x8_d_st7565.c **** {
  28              		.loc 1 116 0
  29              		.cfi_startproc
  30              		@ args = 0, pretend = 0, frame = 0
  31              		@ frame_needed = 0, uses_anonymous_args = 0
  32              	.LVL0:
  33 0000 2DE9F041 		push	{r4, r5, r6, r7, r8, lr}
  34              		.cfi_def_cfa_offset 24
  35              		.cfi_offset 4, -24
  36              		.cfi_offset 5, -20
  37              		.cfi_offset 6, -16
  38              		.cfi_offset 7, -12
  39              		.cfi_offset 8, -8
  40              		.cfi_offset 14, -4
  41 0004 0546     		mov	r5, r0
  42 0006 1446     		mov	r4, r2
 117:..\u8g2\csrc/u8x8_d_st7565.c ****   uint8_t x, c;
 118:..\u8g2\csrc/u8x8_d_st7565.c ****   uint8_t *ptr;
 119:..\u8g2\csrc/u8x8_d_st7565.c ****   switch(msg)
  43              		.loc 1 119 0
  44 0008 0E29     		cmp	r1, #14
  45 000a 48D0     		beq	.L3
  46 000c 1F46     		mov	r7, r3
  47 000e 0F29     		cmp	r1, #15
  48 0010 02D0     		beq	.L4
  49 0012 0B29     		cmp	r1, #11
  50 0014 53D1     		bne	.L10
  51 0016 35E0     		b	.L5
  52              	.L4:
ARM GAS  C:\Users\brian\AppData\Local\Temp\cc1Lhyrd.s 			page 4


 120:..\u8g2\csrc/u8x8_d_st7565.c ****   {
 121:..\u8g2\csrc/u8x8_d_st7565.c ****     case U8X8_MSG_DISPLAY_DRAW_TILE:
 122:..\u8g2\csrc/u8x8_d_st7565.c ****       u8x8_cad_StartTransfer(u8x8);
  53              		.loc 1 122 0
  54 0018 FFF7FEFF 		bl	u8x8_cad_StartTransfer
  55              	.LVL1:
 123:..\u8g2\csrc/u8x8_d_st7565.c ****     
 124:..\u8g2\csrc/u8x8_d_st7565.c ****       x = ((u8x8_tile_t *)arg_ptr)->x_pos;
  56              		.loc 1 124 0
  57 001c 7B79     		ldrb	r3, [r7, #5]	@ zero_extendqisi2
  58              	.LVL2:
 125:..\u8g2\csrc/u8x8_d_st7565.c ****       x *= 8;
  59              		.loc 1 125 0
  60 001e DB00     		lsls	r3, r3, #3
  61              	.LVL3:
  62 0020 DBB2     		uxtb	r3, r3
  63              	.LVL4:
 126:..\u8g2\csrc/u8x8_d_st7565.c ****       x += u8x8->x_offset;
  64              		.loc 1 126 0
  65 0022 95F82280 		ldrb	r8, [r5, #34]	@ zero_extendqisi2
  66 0026 9844     		add	r8, r8, r3
  67 0028 5FFA88F8 		uxtb	r8, r8
  68              	.LVL5:
 127:..\u8g2\csrc/u8x8_d_st7565.c ****       u8x8_cad_SendCmd(u8x8, 0x010 | (x>>4) );
  69              		.loc 1 127 0
  70 002c 4FEA1811 		lsr	r1, r8, #4
  71 0030 41F01001 		orr	r1, r1, #16
  72 0034 2846     		mov	r0, r5
  73 0036 FFF7FEFF 		bl	u8x8_cad_SendCmd
  74              	.LVL6:
 128:..\u8g2\csrc/u8x8_d_st7565.c ****       u8x8_cad_SendCmd(u8x8, 0x000 | ((x&15)));
  75              		.loc 1 128 0
  76 003a 08F00F01 		and	r1, r8, #15
  77 003e 2846     		mov	r0, r5
  78 0040 FFF7FEFF 		bl	u8x8_cad_SendCmd
  79              	.LVL7:
 129:..\u8g2\csrc/u8x8_d_st7565.c ****       u8x8_cad_SendCmd(u8x8, 0x0b0 | (((u8x8_tile_t *)arg_ptr)->y_pos));
  80              		.loc 1 129 0
  81 0044 B979     		ldrb	r1, [r7, #6]	@ zero_extendqisi2
  82 0046 41F0B001 		orr	r1, r1, #176
  83 004a 2846     		mov	r0, r5
  84 004c FFF7FEFF 		bl	u8x8_cad_SendCmd
  85              	.LVL8:
 130:..\u8g2\csrc/u8x8_d_st7565.c ****     
 131:..\u8g2\csrc/u8x8_d_st7565.c ****       c = ((u8x8_tile_t *)arg_ptr)->cnt;
  86              		.loc 1 131 0
  87 0050 3E79     		ldrb	r6, [r7, #4]	@ zero_extendqisi2
  88              	.LVL9:
 132:..\u8g2\csrc/u8x8_d_st7565.c ****       c *= 8;
  89              		.loc 1 132 0
  90 0052 F600     		lsls	r6, r6, #3
  91              	.LVL10:
  92 0054 F6B2     		uxtb	r6, r6
  93              	.LVL11:
 133:..\u8g2\csrc/u8x8_d_st7565.c ****       ptr = ((u8x8_tile_t *)arg_ptr)->tile_ptr;
  94              		.loc 1 133 0
  95 0056 3F68     		ldr	r7, [r7]
ARM GAS  C:\Users\brian\AppData\Local\Temp\cc1Lhyrd.s 			page 5


  96              	.LVL12:
 134:..\u8g2\csrc/u8x8_d_st7565.c ****       /* 
 135:..\u8g2\csrc/u8x8_d_st7565.c **** 	The following if condition checks the hardware limits of the st7565 
 136:..\u8g2\csrc/u8x8_d_st7565.c **** 	controller: It is not allowed to write beyond the display limits.
 137:..\u8g2\csrc/u8x8_d_st7565.c **** 	This is in fact an issue within flip mode.
 138:..\u8g2\csrc/u8x8_d_st7565.c ****       */
 139:..\u8g2\csrc/u8x8_d_st7565.c ****       if ( c + x > 132u )
  97              		.loc 1 139 0
  98 0058 06EB0803 		add	r3, r6, r8
  99 005c 842B     		cmp	r3, #132
 100 005e 02D9     		bls	.L7
 101              	.LVL13:
 140:..\u8g2\csrc/u8x8_d_st7565.c ****       {
 141:..\u8g2\csrc/u8x8_d_st7565.c **** 	c = 132u;
 142:..\u8g2\csrc/u8x8_d_st7565.c **** 	c -= x;
 102              		.loc 1 142 0
 103 0060 C8F18406 		rsb	r6, r8, #132
 104 0064 F6B2     		uxtb	r6, r6
 105              	.LVL14:
 106              	.L7:
 143:..\u8g2\csrc/u8x8_d_st7565.c ****       }
 144:..\u8g2\csrc/u8x8_d_st7565.c ****       do
 145:..\u8g2\csrc/u8x8_d_st7565.c ****       {
 146:..\u8g2\csrc/u8x8_d_st7565.c **** 	u8x8_cad_SendData(u8x8, c, ptr);	/* note: SendData can not handle more than 255 bytes */
 107              		.loc 1 146 0 discriminator 1
 108 0066 3A46     		mov	r2, r7
 109 0068 3146     		mov	r1, r6
 110 006a 2846     		mov	r0, r5
 111 006c FFF7FEFF 		bl	u8x8_cad_SendData
 112              	.LVL15:
 147:..\u8g2\csrc/u8x8_d_st7565.c **** 	arg_int--;
 113              		.loc 1 147 0 discriminator 1
 114 0070 621E     		subs	r2, r4, #1
 115              	.LVL16:
 148:..\u8g2\csrc/u8x8_d_st7565.c ****       } while( arg_int > 0 );
 116              		.loc 1 148 0 discriminator 1
 117 0072 12F0FF04 		ands	r4, r2, #255
 118 0076 F6D1     		bne	.L7
 149:..\u8g2\csrc/u8x8_d_st7565.c ****       
 150:..\u8g2\csrc/u8x8_d_st7565.c ****       u8x8_cad_EndTransfer(u8x8);
 119              		.loc 1 150 0
 120 0078 2846     		mov	r0, r5
 121 007a FFF7FEFF 		bl	u8x8_cad_EndTransfer
 122              	.LVL17:
 151:..\u8g2\csrc/u8x8_d_st7565.c ****       break;
 152:..\u8g2\csrc/u8x8_d_st7565.c ****     /*	handled in the calling procedure 
 153:..\u8g2\csrc/u8x8_d_st7565.c ****     case U8X8_MSG_DISPLAY_SETUP_MEMORY:
 154:..\u8g2\csrc/u8x8_d_st7565.c ****       u8x8_d_helper_display_setup_memory(u8x8, &u8x8_st7565_128x64_display_info);
 155:..\u8g2\csrc/u8x8_d_st7565.c ****       break;
 156:..\u8g2\csrc/u8x8_d_st7565.c ****     case U8X8_MSG_DISPLAY_INIT:
 157:..\u8g2\csrc/u8x8_d_st7565.c ****       u8x8_d_helper_display_init(u8x8);
 158:..\u8g2\csrc/u8x8_d_st7565.c ****       u8x8_cad_SendSequence(u8x8, u8x8_d_uc1701_dogs102_init_seq);
 159:..\u8g2\csrc/u8x8_d_st7565.c ****       break;
 160:..\u8g2\csrc/u8x8_d_st7565.c ****     */
 161:..\u8g2\csrc/u8x8_d_st7565.c ****     case U8X8_MSG_DISPLAY_SET_POWER_SAVE:
 162:..\u8g2\csrc/u8x8_d_st7565.c ****       if ( arg_int == 0 )
 163:..\u8g2\csrc/u8x8_d_st7565.c **** 	u8x8_cad_SendSequence(u8x8, u8x8_d_st7565_powersave0_seq);
ARM GAS  C:\Users\brian\AppData\Local\Temp\cc1Lhyrd.s 			page 6


 164:..\u8g2\csrc/u8x8_d_st7565.c ****       else
 165:..\u8g2\csrc/u8x8_d_st7565.c **** 	u8x8_cad_SendSequence(u8x8, u8x8_d_st7565_powersave1_seq);
 166:..\u8g2\csrc/u8x8_d_st7565.c ****       break;
 167:..\u8g2\csrc/u8x8_d_st7565.c **** #ifdef U8X8_WITH_SET_CONTRAST
 168:..\u8g2\csrc/u8x8_d_st7565.c ****     case U8X8_MSG_DISPLAY_SET_CONTRAST:
 169:..\u8g2\csrc/u8x8_d_st7565.c ****       u8x8_cad_StartTransfer(u8x8);
 170:..\u8g2\csrc/u8x8_d_st7565.c ****       u8x8_cad_SendCmd(u8x8, 0x081 );
 171:..\u8g2\csrc/u8x8_d_st7565.c ****       u8x8_cad_SendArg(u8x8, arg_int >> 2 );	/* st7565 has range from 0 to 63 */
 172:..\u8g2\csrc/u8x8_d_st7565.c ****       u8x8_cad_EndTransfer(u8x8);
 173:..\u8g2\csrc/u8x8_d_st7565.c ****       break;
 174:..\u8g2\csrc/u8x8_d_st7565.c **** #endif
 175:..\u8g2\csrc/u8x8_d_st7565.c ****     default:
 176:..\u8g2\csrc/u8x8_d_st7565.c ****       return 0;
 177:..\u8g2\csrc/u8x8_d_st7565.c ****   }
 178:..\u8g2\csrc/u8x8_d_st7565.c ****   return 1;
 123              		.loc 1 178 0
 124 007e 0120     		movs	r0, #1
 151:..\u8g2\csrc/u8x8_d_st7565.c ****       break;
 125              		.loc 1 151 0
 126 0080 BDE8F081 		pop	{r4, r5, r6, r7, r8, pc}
 127              	.LVL18:
 128              	.L5:
 162:..\u8g2\csrc/u8x8_d_st7565.c **** 	u8x8_cad_SendSequence(u8x8, u8x8_d_st7565_powersave0_seq);
 129              		.loc 1 162 0
 130 0084 2AB9     		cbnz	r2, .L8
 163:..\u8g2\csrc/u8x8_d_st7565.c ****       else
 131              		.loc 1 163 0
 132 0086 0F49     		ldr	r1, .L12
 133              	.LVL19:
 134 0088 FFF7FEFF 		bl	u8x8_cad_SendSequence
 135              	.LVL20:
 136              		.loc 1 178 0
 137 008c 0120     		movs	r0, #1
 138 008e BDE8F081 		pop	{r4, r5, r6, r7, r8, pc}
 139              	.LVL21:
 140              	.L8:
 165:..\u8g2\csrc/u8x8_d_st7565.c ****       break;
 141              		.loc 1 165 0
 142 0092 0D49     		ldr	r1, .L12+4
 143              	.LVL22:
 144 0094 FFF7FEFF 		bl	u8x8_cad_SendSequence
 145              	.LVL23:
 146              		.loc 1 178 0
 147 0098 0120     		movs	r0, #1
 148 009a BDE8F081 		pop	{r4, r5, r6, r7, r8, pc}
 149              	.LVL24:
 150              	.L3:
 169:..\u8g2\csrc/u8x8_d_st7565.c ****       u8x8_cad_SendCmd(u8x8, 0x081 );
 151              		.loc 1 169 0
 152 009e FFF7FEFF 		bl	u8x8_cad_StartTransfer
 153              	.LVL25:
 170:..\u8g2\csrc/u8x8_d_st7565.c ****       u8x8_cad_SendArg(u8x8, arg_int >> 2 );	/* st7565 has range from 0 to 63 */
 154              		.loc 1 170 0
 155 00a2 8121     		movs	r1, #129
 156 00a4 2846     		mov	r0, r5
 157 00a6 FFF7FEFF 		bl	u8x8_cad_SendCmd
 158              	.LVL26:
ARM GAS  C:\Users\brian\AppData\Local\Temp\cc1Lhyrd.s 			page 7


 171:..\u8g2\csrc/u8x8_d_st7565.c ****       u8x8_cad_EndTransfer(u8x8);
 159              		.loc 1 171 0
 160 00aa A108     		lsrs	r1, r4, #2
 161 00ac 2846     		mov	r0, r5
 162 00ae FFF7FEFF 		bl	u8x8_cad_SendArg
 163              	.LVL27:
 172:..\u8g2\csrc/u8x8_d_st7565.c ****       break;
 164              		.loc 1 172 0
 165 00b2 2846     		mov	r0, r5
 166 00b4 FFF7FEFF 		bl	u8x8_cad_EndTransfer
 167              	.LVL28:
 168              		.loc 1 178 0
 169 00b8 0120     		movs	r0, #1
 173:..\u8g2\csrc/u8x8_d_st7565.c **** #endif
 170              		.loc 1 173 0
 171 00ba BDE8F081 		pop	{r4, r5, r6, r7, r8, pc}
 172              	.LVL29:
 173              	.L10:
 176:..\u8g2\csrc/u8x8_d_st7565.c ****   }
 174              		.loc 1 176 0
 175 00be 0020     		movs	r0, #0
 176              	.LVL30:
 179:..\u8g2\csrc/u8x8_d_st7565.c **** }
 177              		.loc 1 179 0
 178 00c0 BDE8F081 		pop	{r4, r5, r6, r7, r8, pc}
 179              	.LVL31:
 180              	.L13:
 181              		.align	2
 182              	.L12:
 183 00c4 00000000 		.word	.LANCHOR0
 184 00c8 08000000 		.word	.LANCHOR0+8
 185              		.cfi_endproc
 186              	.LFE0:
 187              		.size	u8x8_d_st7565_common, .-u8x8_d_st7565_common
 188              		.section	.text.u8x8_d_st7565_ea_dogm128,"ax",%progbits
 189              		.align	2
 190              		.global	u8x8_d_st7565_ea_dogm128
 191              		.thumb
 192              		.thumb_func
 193              		.type	u8x8_d_st7565_ea_dogm128, %function
 194              	u8x8_d_st7565_ea_dogm128:
 195              	.LFB1:
 180:..\u8g2\csrc/u8x8_d_st7565.c **** 
 181:..\u8g2\csrc/u8x8_d_st7565.c **** /*================================================*/
 182:..\u8g2\csrc/u8x8_d_st7565.c **** /* DOGM128 */
 183:..\u8g2\csrc/u8x8_d_st7565.c **** 
 184:..\u8g2\csrc/u8x8_d_st7565.c **** static const uint8_t u8x8_d_st7565_dogm128_init_seq[] = {
 185:..\u8g2\csrc/u8x8_d_st7565.c ****     
 186:..\u8g2\csrc/u8x8_d_st7565.c ****   U8X8_START_TRANSFER(),             	/* enable chip, delay is part of the transfer start */
 187:..\u8g2\csrc/u8x8_d_st7565.c ****   
 188:..\u8g2\csrc/u8x8_d_st7565.c ****   U8X8_C(0x0e2),            			/* soft reset */
 189:..\u8g2\csrc/u8x8_d_st7565.c ****   U8X8_C(0x0ae),		                /* display off */
 190:..\u8g2\csrc/u8x8_d_st7565.c ****   U8X8_C(0x040),		                /* set display start line to 0 */
 191:..\u8g2\csrc/u8x8_d_st7565.c ****   
 192:..\u8g2\csrc/u8x8_d_st7565.c ****   U8X8_C(0x0a1),		                /* ADC set to reverse */
 193:..\u8g2\csrc/u8x8_d_st7565.c ****   U8X8_C(0x0c0),		                /* common output mode */
 194:..\u8g2\csrc/u8x8_d_st7565.c ****   // Flipmode
ARM GAS  C:\Users\brian\AppData\Local\Temp\cc1Lhyrd.s 			page 8


 195:..\u8g2\csrc/u8x8_d_st7565.c ****   // U8X8_C(0x0a0),		                /* ADC set to reverse */
 196:..\u8g2\csrc/u8x8_d_st7565.c ****   // U8X8_C(0x0c8),		                /* common output mode */
 197:..\u8g2\csrc/u8x8_d_st7565.c ****   
 198:..\u8g2\csrc/u8x8_d_st7565.c ****   U8X8_C(0x0a6),		                /* display normal, bit val 0: LCD pixel off. */
 199:..\u8g2\csrc/u8x8_d_st7565.c ****   U8X8_C(0x0a2),		                /* LCD bias 1/9 */
 200:..\u8g2\csrc/u8x8_d_st7565.c ****   U8X8_C(0x02f),		                /* all power  control circuits on (regulator, booster and followe
 201:..\u8g2\csrc/u8x8_d_st7565.c ****   U8X8_CA(0x0f8, 0x000),		/* set booster ratio to 4x */
 202:..\u8g2\csrc/u8x8_d_st7565.c ****   U8X8_C(0x027),		                /* set V0 voltage resistor ratio to max  */
 203:..\u8g2\csrc/u8x8_d_st7565.c ****   U8X8_CA(0x081, 0x018),		/* set contrast, contrast value, EA default: 0x016 */
 204:..\u8g2\csrc/u8x8_d_st7565.c ****   
 205:..\u8g2\csrc/u8x8_d_st7565.c ****   U8X8_C(0x0ae),		                /* display off */
 206:..\u8g2\csrc/u8x8_d_st7565.c ****   U8X8_C(0x0a5),		                /* enter powersafe: all pixel on, issue 142 */
 207:..\u8g2\csrc/u8x8_d_st7565.c ****   
 208:..\u8g2\csrc/u8x8_d_st7565.c ****   U8X8_END_TRANSFER(),             	/* disable chip */
 209:..\u8g2\csrc/u8x8_d_st7565.c ****   U8X8_END()             			/* end of sequence */
 210:..\u8g2\csrc/u8x8_d_st7565.c **** };
 211:..\u8g2\csrc/u8x8_d_st7565.c **** 
 212:..\u8g2\csrc/u8x8_d_st7565.c **** uint8_t u8x8_d_st7565_ea_dogm128(u8x8_t *u8x8, uint8_t msg, uint8_t arg_int, void *arg_ptr)
 213:..\u8g2\csrc/u8x8_d_st7565.c **** {
 196              		.loc 1 213 0
 197              		.cfi_startproc
 198              		@ args = 0, pretend = 0, frame = 0
 199              		@ frame_needed = 0, uses_anonymous_args = 0
 200              	.LVL32:
 201 0000 70B5     		push	{r4, r5, r6, lr}
 202              		.cfi_def_cfa_offset 16
 203              		.cfi_offset 4, -16
 204              		.cfi_offset 5, -12
 205              		.cfi_offset 6, -8
 206              		.cfi_offset 14, -4
 207 0002 0546     		mov	r5, r0
 208 0004 0C46     		mov	r4, r1
 209 0006 1646     		mov	r6, r2
 214:..\u8g2\csrc/u8x8_d_st7565.c ****   /* call common procedure first and handle messages there */
 215:..\u8g2\csrc/u8x8_d_st7565.c ****   if ( u8x8_d_st7565_common(u8x8, msg, arg_int, arg_ptr) == 0 )
 210              		.loc 1 215 0
 211 0008 FFF7FEFF 		bl	u8x8_d_st7565_common
 212              	.LVL33:
 213 000c 50BB     		cbnz	r0, .L20
 214 000e 0346     		mov	r3, r0
 216:..\u8g2\csrc/u8x8_d_st7565.c ****   {
 217:..\u8g2\csrc/u8x8_d_st7565.c ****     /* msg not handled, then try here */
 218:..\u8g2\csrc/u8x8_d_st7565.c ****     switch(msg)
 215              		.loc 1 218 0
 216 0010 0A2C     		cmp	r4, #10
 217 0012 09D0     		beq	.L16
 218 0014 0D2C     		cmp	r4, #13
 219 0016 10D0     		beq	.L17
 220 0018 092C     		cmp	r4, #9
 221 001a 24D1     		bne	.L15
 219:..\u8g2\csrc/u8x8_d_st7565.c ****     {
 220:..\u8g2\csrc/u8x8_d_st7565.c ****       case U8X8_MSG_DISPLAY_SETUP_MEMORY:
 221:..\u8g2\csrc/u8x8_d_st7565.c **** 	u8x8_d_helper_display_setup_memory(u8x8, &u8x8_st7565_128x64_display_info);
 222              		.loc 1 221 0
 223 001c 1349     		ldr	r1, .L22
 224 001e 2846     		mov	r0, r5
 225 0020 FFF7FEFF 		bl	u8x8_d_helper_display_setup_memory
ARM GAS  C:\Users\brian\AppData\Local\Temp\cc1Lhyrd.s 			page 9


 226              	.LVL34:
 222:..\u8g2\csrc/u8x8_d_st7565.c **** 	break;
 223:..\u8g2\csrc/u8x8_d_st7565.c ****       case U8X8_MSG_DISPLAY_INIT:
 224:..\u8g2\csrc/u8x8_d_st7565.c **** 	u8x8_d_helper_display_init(u8x8);
 225:..\u8g2\csrc/u8x8_d_st7565.c **** 	u8x8_cad_SendSequence(u8x8, u8x8_d_st7565_dogm128_init_seq);
 226:..\u8g2\csrc/u8x8_d_st7565.c **** 	break;
 227:..\u8g2\csrc/u8x8_d_st7565.c ****       case U8X8_MSG_DISPLAY_SET_FLIP_MODE:
 228:..\u8g2\csrc/u8x8_d_st7565.c **** 	if ( arg_int == 0 )
 229:..\u8g2\csrc/u8x8_d_st7565.c **** 	{
 230:..\u8g2\csrc/u8x8_d_st7565.c **** 	  u8x8_cad_SendSequence(u8x8, u8x8_d_st7565_flip0_seq);
 231:..\u8g2\csrc/u8x8_d_st7565.c **** 	  u8x8->x_offset = u8x8->display_info->default_x_offset;
 232:..\u8g2\csrc/u8x8_d_st7565.c **** 	}
 233:..\u8g2\csrc/u8x8_d_st7565.c **** 	else
 234:..\u8g2\csrc/u8x8_d_st7565.c **** 	{
 235:..\u8g2\csrc/u8x8_d_st7565.c **** 	  u8x8_cad_SendSequence(u8x8, u8x8_d_st7565_flip1_seq);
 236:..\u8g2\csrc/u8x8_d_st7565.c **** 	  u8x8->x_offset = u8x8->display_info->flipmode_x_offset;
 237:..\u8g2\csrc/u8x8_d_st7565.c **** 	}	
 238:..\u8g2\csrc/u8x8_d_st7565.c **** 	break;
 239:..\u8g2\csrc/u8x8_d_st7565.c ****       default:
 240:..\u8g2\csrc/u8x8_d_st7565.c **** 	return 0;		/* msg unknown */
 241:..\u8g2\csrc/u8x8_d_st7565.c ****     }
 242:..\u8g2\csrc/u8x8_d_st7565.c ****   }
 243:..\u8g2\csrc/u8x8_d_st7565.c ****   return 1;
 227              		.loc 1 243 0
 228 0024 0123     		movs	r3, #1
 222:..\u8g2\csrc/u8x8_d_st7565.c **** 	break;
 229              		.loc 1 222 0
 230 0026 1EE0     		b	.L15
 231              	.L16:
 224:..\u8g2\csrc/u8x8_d_st7565.c **** 	u8x8_cad_SendSequence(u8x8, u8x8_d_st7565_dogm128_init_seq);
 232              		.loc 1 224 0
 233 0028 2846     		mov	r0, r5
 234 002a FFF7FEFF 		bl	u8x8_d_helper_display_init
 235              	.LVL35:
 225:..\u8g2\csrc/u8x8_d_st7565.c **** 	break;
 236              		.loc 1 225 0
 237 002e 1049     		ldr	r1, .L22+4
 238 0030 2846     		mov	r0, r5
 239 0032 FFF7FEFF 		bl	u8x8_cad_SendSequence
 240              	.LVL36:
 241              		.loc 1 243 0
 242 0036 0123     		movs	r3, #1
 226:..\u8g2\csrc/u8x8_d_st7565.c ****       case U8X8_MSG_DISPLAY_SET_FLIP_MODE:
 243              		.loc 1 226 0
 244 0038 15E0     		b	.L15
 245              	.L17:
 228:..\u8g2\csrc/u8x8_d_st7565.c **** 	{
 246              		.loc 1 228 0
 247 003a 4EB9     		cbnz	r6, .L19
 230:..\u8g2\csrc/u8x8_d_st7565.c **** 	  u8x8->x_offset = u8x8->display_info->default_x_offset;
 248              		.loc 1 230 0
 249 003c 0D49     		ldr	r1, .L22+8
 250 003e 2846     		mov	r0, r5
 251 0040 FFF7FEFF 		bl	u8x8_cad_SendSequence
 252              	.LVL37:
 231:..\u8g2\csrc/u8x8_d_st7565.c **** 	}
 253              		.loc 1 231 0
ARM GAS  C:\Users\brian\AppData\Local\Temp\cc1Lhyrd.s 			page 10


 254 0044 2B68     		ldr	r3, [r5]
 255 0046 9B7C     		ldrb	r3, [r3, #18]	@ zero_extendqisi2
 256 0048 85F82230 		strb	r3, [r5, #34]
 257              		.loc 1 243 0
 258 004c 0123     		movs	r3, #1
 259 004e 0AE0     		b	.L15
 260              	.L19:
 235:..\u8g2\csrc/u8x8_d_st7565.c **** 	  u8x8->x_offset = u8x8->display_info->flipmode_x_offset;
 261              		.loc 1 235 0
 262 0050 0949     		ldr	r1, .L22+12
 263 0052 2846     		mov	r0, r5
 264 0054 FFF7FEFF 		bl	u8x8_cad_SendSequence
 265              	.LVL38:
 236:..\u8g2\csrc/u8x8_d_st7565.c **** 	}	
 266              		.loc 1 236 0
 267 0058 2B68     		ldr	r3, [r5]
 268 005a DB7C     		ldrb	r3, [r3, #19]	@ zero_extendqisi2
 269 005c 85F82230 		strb	r3, [r5, #34]
 270              		.loc 1 243 0
 271 0060 0123     		movs	r3, #1
 272 0062 00E0     		b	.L15
 273              	.L20:
 274 0064 0123     		movs	r3, #1
 275              	.L15:
 244:..\u8g2\csrc/u8x8_d_st7565.c **** }
 276              		.loc 1 244 0
 277 0066 1846     		mov	r0, r3
 278 0068 70BD     		pop	{r4, r5, r6, pc}
 279              	.LVL39:
 280              	.L23:
 281 006a 00BF     		.align	2
 282              	.L22:
 283 006c 10000000 		.word	.LANCHOR0+16
 284 0070 28000000 		.word	.LANCHOR0+40
 285 0074 4C000000 		.word	.LANCHOR0+76
 286 0078 54000000 		.word	.LANCHOR0+84
 287              		.cfi_endproc
 288              	.LFE1:
 289              		.size	u8x8_d_st7565_ea_dogm128, .-u8x8_d_st7565_ea_dogm128
 290              		.section	.text.u8x8_d_st7565_lm6063,"ax",%progbits
 291              		.align	2
 292              		.global	u8x8_d_st7565_lm6063
 293              		.thumb
 294              		.thumb_func
 295              		.type	u8x8_d_st7565_lm6063, %function
 296              	u8x8_d_st7565_lm6063:
 297              	.LFB2:
 245:..\u8g2\csrc/u8x8_d_st7565.c **** 
 246:..\u8g2\csrc/u8x8_d_st7565.c **** 
 247:..\u8g2\csrc/u8x8_d_st7565.c **** 
 248:..\u8g2\csrc/u8x8_d_st7565.c **** /*================================================*/
 249:..\u8g2\csrc/u8x8_d_st7565.c **** /* LM6063 https://github.com/olikraus/u8g2/issues/893 */
 250:..\u8g2\csrc/u8x8_d_st7565.c **** 
 251:..\u8g2\csrc/u8x8_d_st7565.c **** static const uint8_t u8x8_d_st7565_lm6063_init_seq[] = {
 252:..\u8g2\csrc/u8x8_d_st7565.c ****     
 253:..\u8g2\csrc/u8x8_d_st7565.c ****   U8X8_START_TRANSFER(),             	/* enable chip, delay is part of the transfer start */
 254:..\u8g2\csrc/u8x8_d_st7565.c ****   
ARM GAS  C:\Users\brian\AppData\Local\Temp\cc1Lhyrd.s 			page 11


 255:..\u8g2\csrc/u8x8_d_st7565.c ****   U8X8_C(0x0e2),            			/* soft reset */
 256:..\u8g2\csrc/u8x8_d_st7565.c ****   U8X8_C(0x0ae),		                /* display off */
 257:..\u8g2\csrc/u8x8_d_st7565.c ****   U8X8_C(0x040),		                /* set display start line to 0 */
 258:..\u8g2\csrc/u8x8_d_st7565.c ****   
 259:..\u8g2\csrc/u8x8_d_st7565.c ****   U8X8_C(0x0a1),		                /* ADC set to reverse */
 260:..\u8g2\csrc/u8x8_d_st7565.c ****   U8X8_C(0x0c0),		                /* common output mode */
 261:..\u8g2\csrc/u8x8_d_st7565.c ****   // Flipmode
 262:..\u8g2\csrc/u8x8_d_st7565.c ****   // U8X8_C(0x0a0),		                /* ADC set to reverse */
 263:..\u8g2\csrc/u8x8_d_st7565.c ****   // U8X8_C(0x0c8),		                /* common output mode */
 264:..\u8g2\csrc/u8x8_d_st7565.c ****   
 265:..\u8g2\csrc/u8x8_d_st7565.c ****   U8X8_C(0x0a6),		                /* display normal, bit val 0: LCD pixel off. */
 266:..\u8g2\csrc/u8x8_d_st7565.c ****   U8X8_C(0x0a2),		                /* LCD bias 1/9 */
 267:..\u8g2\csrc/u8x8_d_st7565.c ****   U8X8_C(0x02f),		                /* all power  control circuits on (regulator, booster and followe
 268:..\u8g2\csrc/u8x8_d_st7565.c ****   U8X8_CA(0x0f8, 0x000),		/* set booster ratio to 4x */
 269:..\u8g2\csrc/u8x8_d_st7565.c ****   U8X8_C(0x027),		                /* set V0 voltage resistor ratio to max  */
 270:..\u8g2\csrc/u8x8_d_st7565.c ****   U8X8_CA(0x081, 50/4),		/* set contrast, contrast value, 40..60 seems to be good */
 271:..\u8g2\csrc/u8x8_d_st7565.c ****   
 272:..\u8g2\csrc/u8x8_d_st7565.c ****   U8X8_C(0x0ae),		                /* display off */
 273:..\u8g2\csrc/u8x8_d_st7565.c ****   U8X8_C(0x0a5),		                /* enter powersafe: all pixel on, issue 142 */
 274:..\u8g2\csrc/u8x8_d_st7565.c ****   
 275:..\u8g2\csrc/u8x8_d_st7565.c ****   U8X8_END_TRANSFER(),             	/* disable chip */
 276:..\u8g2\csrc/u8x8_d_st7565.c ****   U8X8_END()             			/* end of sequence */
 277:..\u8g2\csrc/u8x8_d_st7565.c **** };
 278:..\u8g2\csrc/u8x8_d_st7565.c **** 
 279:..\u8g2\csrc/u8x8_d_st7565.c **** uint8_t u8x8_d_st7565_lm6063(u8x8_t *u8x8, uint8_t msg, uint8_t arg_int, void *arg_ptr)
 280:..\u8g2\csrc/u8x8_d_st7565.c **** {
 298              		.loc 1 280 0
 299              		.cfi_startproc
 300              		@ args = 0, pretend = 0, frame = 0
 301              		@ frame_needed = 0, uses_anonymous_args = 0
 302              	.LVL40:
 303 0000 70B5     		push	{r4, r5, r6, lr}
 304              		.cfi_def_cfa_offset 16
 305              		.cfi_offset 4, -16
 306              		.cfi_offset 5, -12
 307              		.cfi_offset 6, -8
 308              		.cfi_offset 14, -4
 309 0002 0546     		mov	r5, r0
 310 0004 0C46     		mov	r4, r1
 311 0006 1646     		mov	r6, r2
 281:..\u8g2\csrc/u8x8_d_st7565.c ****   /* call common procedure first and handle messages there */
 282:..\u8g2\csrc/u8x8_d_st7565.c ****   if ( u8x8_d_st7565_common(u8x8, msg, arg_int, arg_ptr) == 0 )
 312              		.loc 1 282 0
 313 0008 FFF7FEFF 		bl	u8x8_d_st7565_common
 314              	.LVL41:
 315 000c 50BB     		cbnz	r0, .L30
 316 000e 0346     		mov	r3, r0
 283:..\u8g2\csrc/u8x8_d_st7565.c ****   {
 284:..\u8g2\csrc/u8x8_d_st7565.c ****     /* msg not handled, then try here */
 285:..\u8g2\csrc/u8x8_d_st7565.c ****     switch(msg)
 317              		.loc 1 285 0
 318 0010 0A2C     		cmp	r4, #10
 319 0012 09D0     		beq	.L26
 320 0014 0D2C     		cmp	r4, #13
 321 0016 10D0     		beq	.L27
 322 0018 092C     		cmp	r4, #9
 323 001a 24D1     		bne	.L25
ARM GAS  C:\Users\brian\AppData\Local\Temp\cc1Lhyrd.s 			page 12


 286:..\u8g2\csrc/u8x8_d_st7565.c ****     {
 287:..\u8g2\csrc/u8x8_d_st7565.c ****       case U8X8_MSG_DISPLAY_SETUP_MEMORY:
 288:..\u8g2\csrc/u8x8_d_st7565.c **** 	u8x8_d_helper_display_setup_memory(u8x8, &u8x8_st7565_128x64_display_info);
 324              		.loc 1 288 0
 325 001c 1349     		ldr	r1, .L32
 326 001e 2846     		mov	r0, r5
 327 0020 FFF7FEFF 		bl	u8x8_d_helper_display_setup_memory
 328              	.LVL42:
 289:..\u8g2\csrc/u8x8_d_st7565.c **** 	break;
 290:..\u8g2\csrc/u8x8_d_st7565.c ****       case U8X8_MSG_DISPLAY_INIT:
 291:..\u8g2\csrc/u8x8_d_st7565.c **** 	u8x8_d_helper_display_init(u8x8);
 292:..\u8g2\csrc/u8x8_d_st7565.c **** 	u8x8_cad_SendSequence(u8x8, u8x8_d_st7565_lm6063_init_seq);
 293:..\u8g2\csrc/u8x8_d_st7565.c **** 	break;
 294:..\u8g2\csrc/u8x8_d_st7565.c ****       case U8X8_MSG_DISPLAY_SET_FLIP_MODE:
 295:..\u8g2\csrc/u8x8_d_st7565.c **** 	if ( arg_int == 0 )
 296:..\u8g2\csrc/u8x8_d_st7565.c **** 	{
 297:..\u8g2\csrc/u8x8_d_st7565.c **** 	  u8x8_cad_SendSequence(u8x8, u8x8_d_st7565_flip0_seq);
 298:..\u8g2\csrc/u8x8_d_st7565.c **** 	  u8x8->x_offset = u8x8->display_info->default_x_offset;
 299:..\u8g2\csrc/u8x8_d_st7565.c **** 	}
 300:..\u8g2\csrc/u8x8_d_st7565.c **** 	else
 301:..\u8g2\csrc/u8x8_d_st7565.c **** 	{
 302:..\u8g2\csrc/u8x8_d_st7565.c **** 	  u8x8_cad_SendSequence(u8x8, u8x8_d_st7565_flip1_seq);
 303:..\u8g2\csrc/u8x8_d_st7565.c **** 	  u8x8->x_offset = u8x8->display_info->flipmode_x_offset;
 304:..\u8g2\csrc/u8x8_d_st7565.c **** 	}	
 305:..\u8g2\csrc/u8x8_d_st7565.c **** 	break;
 306:..\u8g2\csrc/u8x8_d_st7565.c ****       default:
 307:..\u8g2\csrc/u8x8_d_st7565.c **** 	return 0;		/* msg unknown */
 308:..\u8g2\csrc/u8x8_d_st7565.c ****     }
 309:..\u8g2\csrc/u8x8_d_st7565.c ****   }
 310:..\u8g2\csrc/u8x8_d_st7565.c ****   return 1;
 329              		.loc 1 310 0
 330 0024 0123     		movs	r3, #1
 289:..\u8g2\csrc/u8x8_d_st7565.c **** 	break;
 331              		.loc 1 289 0
 332 0026 1EE0     		b	.L25
 333              	.L26:
 291:..\u8g2\csrc/u8x8_d_st7565.c **** 	u8x8_cad_SendSequence(u8x8, u8x8_d_st7565_lm6063_init_seq);
 334              		.loc 1 291 0
 335 0028 2846     		mov	r0, r5
 336 002a FFF7FEFF 		bl	u8x8_d_helper_display_init
 337              	.LVL43:
 292:..\u8g2\csrc/u8x8_d_st7565.c **** 	break;
 338              		.loc 1 292 0
 339 002e 1049     		ldr	r1, .L32+4
 340 0030 2846     		mov	r0, r5
 341 0032 FFF7FEFF 		bl	u8x8_cad_SendSequence
 342              	.LVL44:
 343              		.loc 1 310 0
 344 0036 0123     		movs	r3, #1
 293:..\u8g2\csrc/u8x8_d_st7565.c ****       case U8X8_MSG_DISPLAY_SET_FLIP_MODE:
 345              		.loc 1 293 0
 346 0038 15E0     		b	.L25
 347              	.L27:
 295:..\u8g2\csrc/u8x8_d_st7565.c **** 	{
 348              		.loc 1 295 0
 349 003a 4EB9     		cbnz	r6, .L29
 297:..\u8g2\csrc/u8x8_d_st7565.c **** 	  u8x8->x_offset = u8x8->display_info->default_x_offset;
ARM GAS  C:\Users\brian\AppData\Local\Temp\cc1Lhyrd.s 			page 13


 350              		.loc 1 297 0
 351 003c 0D49     		ldr	r1, .L32+8
 352 003e 2846     		mov	r0, r5
 353 0040 FFF7FEFF 		bl	u8x8_cad_SendSequence
 354              	.LVL45:
 298:..\u8g2\csrc/u8x8_d_st7565.c **** 	}
 355              		.loc 1 298 0
 356 0044 2B68     		ldr	r3, [r5]
 357 0046 9B7C     		ldrb	r3, [r3, #18]	@ zero_extendqisi2
 358 0048 85F82230 		strb	r3, [r5, #34]
 359              		.loc 1 310 0
 360 004c 0123     		movs	r3, #1
 361 004e 0AE0     		b	.L25
 362              	.L29:
 302:..\u8g2\csrc/u8x8_d_st7565.c **** 	  u8x8->x_offset = u8x8->display_info->flipmode_x_offset;
 363              		.loc 1 302 0
 364 0050 0949     		ldr	r1, .L32+12
 365 0052 2846     		mov	r0, r5
 366 0054 FFF7FEFF 		bl	u8x8_cad_SendSequence
 367              	.LVL46:
 303:..\u8g2\csrc/u8x8_d_st7565.c **** 	}	
 368              		.loc 1 303 0
 369 0058 2B68     		ldr	r3, [r5]
 370 005a DB7C     		ldrb	r3, [r3, #19]	@ zero_extendqisi2
 371 005c 85F82230 		strb	r3, [r5, #34]
 372              		.loc 1 310 0
 373 0060 0123     		movs	r3, #1
 374 0062 00E0     		b	.L25
 375              	.L30:
 376 0064 0123     		movs	r3, #1
 377              	.L25:
 311:..\u8g2\csrc/u8x8_d_st7565.c **** }
 378              		.loc 1 311 0
 379 0066 1846     		mov	r0, r3
 380 0068 70BD     		pop	{r4, r5, r6, pc}
 381              	.LVL47:
 382              	.L33:
 383 006a 00BF     		.align	2
 384              	.L32:
 385 006c 10000000 		.word	.LANCHOR0+16
 386 0070 5C000000 		.word	.LANCHOR0+92
 387 0074 4C000000 		.word	.LANCHOR0+76
 388 0078 54000000 		.word	.LANCHOR0+84
 389              		.cfi_endproc
 390              	.LFE2:
 391              		.size	u8x8_d_st7565_lm6063, .-u8x8_d_st7565_lm6063
 392              		.section	.text.u8x8_d_st7565_64128n,"ax",%progbits
 393              		.align	2
 394              		.global	u8x8_d_st7565_64128n
 395              		.thumb
 396              		.thumb_func
 397              		.type	u8x8_d_st7565_64128n, %function
 398              	u8x8_d_st7565_64128n:
 399              	.LFB3:
 312:..\u8g2\csrc/u8x8_d_st7565.c **** 
 313:..\u8g2\csrc/u8x8_d_st7565.c **** 
 314:..\u8g2\csrc/u8x8_d_st7565.c **** /*================================================*/
ARM GAS  C:\Users\brian\AppData\Local\Temp\cc1Lhyrd.s 			page 14


 315:..\u8g2\csrc/u8x8_d_st7565.c **** /* Displaytech 64128n */
 316:..\u8g2\csrc/u8x8_d_st7565.c **** 
 317:..\u8g2\csrc/u8x8_d_st7565.c **** static const uint8_t u8x8_d_st7565_64128n_init_seq[] = {
 318:..\u8g2\csrc/u8x8_d_st7565.c ****     
 319:..\u8g2\csrc/u8x8_d_st7565.c ****   U8X8_START_TRANSFER(),             	/* enable chip, delay is part of the transfer start */
 320:..\u8g2\csrc/u8x8_d_st7565.c **** 
 321:..\u8g2\csrc/u8x8_d_st7565.c ****   #ifdef NOT_WORKING
 322:..\u8g2\csrc/u8x8_d_st7565.c ****   
 323:..\u8g2\csrc/u8x8_d_st7565.c ****   U8X8_C(0x0e2),            			/* soft reset */
 324:..\u8g2\csrc/u8x8_d_st7565.c ****   U8X8_C(0x0ae),		                /* display off */
 325:..\u8g2\csrc/u8x8_d_st7565.c ****   U8X8_C(0x040),		                /* set display start line to 0 */
 326:..\u8g2\csrc/u8x8_d_st7565.c ****   
 327:..\u8g2\csrc/u8x8_d_st7565.c ****   U8X8_C(0x0a1),		                /* ADC set to reverse */
 328:..\u8g2\csrc/u8x8_d_st7565.c ****   U8X8_C(0x0c0),		                /* common output mode */
 329:..\u8g2\csrc/u8x8_d_st7565.c ****   // Flipmode
 330:..\u8g2\csrc/u8x8_d_st7565.c ****   // U8X8_C(0x0a0),		                /* ADC set to reverse */
 331:..\u8g2\csrc/u8x8_d_st7565.c ****   // U8X8_C(0x0c8),		                /* common output mode */
 332:..\u8g2\csrc/u8x8_d_st7565.c ****   
 333:..\u8g2\csrc/u8x8_d_st7565.c ****   U8X8_C(0x0a6),		                /* display normal, bit val 0: LCD pixel off. */
 334:..\u8g2\csrc/u8x8_d_st7565.c ****   U8X8_C(0x0a2),		                /* LCD bias 1/9 */
 335:..\u8g2\csrc/u8x8_d_st7565.c ****   U8X8_C(0x02f),		                /* all power  control circuits on */
 336:..\u8g2\csrc/u8x8_d_st7565.c ****   //U8X8_CA(0x0f8, 0x000),		/* set booster ratio to 4x */
 337:..\u8g2\csrc/u8x8_d_st7565.c ****   //U8X8_C(0x027),		                /* set V0 voltage resistor ratio to max  */
 338:..\u8g2\csrc/u8x8_d_st7565.c **** 
 339:..\u8g2\csrc/u8x8_d_st7565.c ****   U8X8_C(0x010),                   		/* Set V0 voltage resistor ratio. Setting for controlling brig
 340:..\u8g2\csrc/u8x8_d_st7565.c ****   
 341:..\u8g2\csrc/u8x8_d_st7565.c ****   
 342:..\u8g2\csrc/u8x8_d_st7565.c ****   U8X8_CA(0x081, 0x01e),		/* set contrast, contrast value */
 343:..\u8g2\csrc/u8x8_d_st7565.c ****   
 344:..\u8g2\csrc/u8x8_d_st7565.c ****   U8X8_C(0x0ae),		                /* display off */
 345:..\u8g2\csrc/u8x8_d_st7565.c ****   U8X8_C(0x0a5),		                /* enter powersafe: all pixel on, issue 142 */
 346:..\u8g2\csrc/u8x8_d_st7565.c **** #else
 347:..\u8g2\csrc/u8x8_d_st7565.c **** 
 348:..\u8g2\csrc/u8x8_d_st7565.c **** 
 349:..\u8g2\csrc/u8x8_d_st7565.c ****   U8X8_C(0x0e2),            	   /* soft reset */
 350:..\u8g2\csrc/u8x8_d_st7565.c ****   U8X8_C(0x0A2),   				   /* 0x0a2: LCD bias 1/9 (according to Displaytech 64128N datasheet) */
 351:..\u8g2\csrc/u8x8_d_st7565.c ****   
 352:..\u8g2\csrc/u8x8_d_st7565.c ****   U8X8_C(0x0a1),		                /* ADC set to reverse */
 353:..\u8g2\csrc/u8x8_d_st7565.c ****   U8X8_C(0x0c0),		                /* common output mode */
 354:..\u8g2\csrc/u8x8_d_st7565.c ****   //U8X8_C(0x0A0),  				   /* Normal ADC Select (according to Displaytech 64128N datasheet) */
 355:..\u8g2\csrc/u8x8_d_st7565.c ****   //U8X8_C(0x0c8),                   /* common output mode: set scan direction normal operation/SHL
 356:..\u8g2\csrc/u8x8_d_st7565.c ****   
 357:..\u8g2\csrc/u8x8_d_st7565.c ****   U8X8_C(0x040),		           /* Display start line for Displaytech 64128N */
 358:..\u8g2\csrc/u8x8_d_st7565.c ****   U8X8_C(0x028 | 0x04),            /* power control: turn on voltage converter */
 359:..\u8g2\csrc/u8x8_d_st7565.c ****   U8X8_C(0x028 | 0x06),            /* power control: turn on voltage regulator */
 360:..\u8g2\csrc/u8x8_d_st7565.c ****   U8X8_C(0x028 | 0x07),            /* power control: turn on voltage follower */
 361:..\u8g2\csrc/u8x8_d_st7565.c ****   U8X8_C(0x010),                   /* Set V0 voltage resistor ratio. Setting for controlling bright
 362:..\u8g2\csrc/u8x8_d_st7565.c **** 					      /* 19 Jul 17: Not sure if this is true, cmd 0x1? is used to set the column */
 363:..\u8g2\csrc/u8x8_d_st7565.c ****   U8X8_C(0x0a6),                   /* display normal, bit val 0: LCD pixel off. */
 364:..\u8g2\csrc/u8x8_d_st7565.c ****   U8X8_C(0x081),      	           /* set contrast */
 365:..\u8g2\csrc/u8x8_d_st7565.c ****   U8X8_C(0x01e),        	       /* Contrast value. Setting for controlling brightness of Displaytec
 366:..\u8g2\csrc/u8x8_d_st7565.c ****   //U8X8_C(0x0af),		           /* display on */
 367:..\u8g2\csrc/u8x8_d_st7565.c ****   //U8X8_C(0x0a5),		           /* display all points, ST7565 */
 368:..\u8g2\csrc/u8x8_d_st7565.c ****   //U8X8_C(0x0a4),		           /* normal display */
 369:..\u8g2\csrc/u8x8_d_st7565.c **** 
 370:..\u8g2\csrc/u8x8_d_st7565.c ****   U8X8_C(0x0ae),		                /* display off */
 371:..\u8g2\csrc/u8x8_d_st7565.c **** 
ARM GAS  C:\Users\brian\AppData\Local\Temp\cc1Lhyrd.s 			page 15


 372:..\u8g2\csrc/u8x8_d_st7565.c **** 
 373:..\u8g2\csrc/u8x8_d_st7565.c **** #endif
 374:..\u8g2\csrc/u8x8_d_st7565.c **** 
 375:..\u8g2\csrc/u8x8_d_st7565.c ****   U8X8_END_TRANSFER(),             	/* disable chip */
 376:..\u8g2\csrc/u8x8_d_st7565.c ****   U8X8_END()             			/* end of sequence */
 377:..\u8g2\csrc/u8x8_d_st7565.c **** };
 378:..\u8g2\csrc/u8x8_d_st7565.c **** 
 379:..\u8g2\csrc/u8x8_d_st7565.c **** static const u8x8_display_info_t u8x8_st7565_64128n_display_info =
 380:..\u8g2\csrc/u8x8_d_st7565.c **** {
 381:..\u8g2\csrc/u8x8_d_st7565.c ****   /* chip_enable_level = */ 0,
 382:..\u8g2\csrc/u8x8_d_st7565.c ****   /* chip_disable_level = */ 1,
 383:..\u8g2\csrc/u8x8_d_st7565.c ****   
 384:..\u8g2\csrc/u8x8_d_st7565.c ****   /* post_chip_enable_wait_ns = */ 150,	/* st7565 datasheet, table 26, tcsh */
 385:..\u8g2\csrc/u8x8_d_st7565.c ****   /* pre_chip_disable_wait_ns = */ 50,	/* st7565 datasheet, table 26, tcss */
 386:..\u8g2\csrc/u8x8_d_st7565.c ****   /* reset_pulse_width_ms = */ 1, 
 387:..\u8g2\csrc/u8x8_d_st7565.c ****   /* post_reset_wait_ms = */ 1, 
 388:..\u8g2\csrc/u8x8_d_st7565.c ****   /* sda_setup_time_ns = */ 50,		/* st7565 datasheet, table 26, tsds */
 389:..\u8g2\csrc/u8x8_d_st7565.c ****   /* sck_pulse_width_ns = */ 120,	/* half of cycle time (100ns according to datasheet), AVR: below 
 390:..\u8g2\csrc/u8x8_d_st7565.c ****   /* sck_clock_hz = */ 4000000UL,	/* since Arduino 1.6.0, the SPI bus speed in Hz. Should be  10000
 391:..\u8g2\csrc/u8x8_d_st7565.c ****   /* spi_mode = */ 0,		/* active high, rising edge */
 392:..\u8g2\csrc/u8x8_d_st7565.c ****   /* i2c_bus_clock_100kHz = */ 4,
 393:..\u8g2\csrc/u8x8_d_st7565.c ****   /* data_setup_time_ns = */ 40,	/* st7565 datasheet, table 24, tds8 */
 394:..\u8g2\csrc/u8x8_d_st7565.c ****   /* write_pulse_width_ns = */ 80,	/* st7565 datasheet, table 24, tcclw */
 395:..\u8g2\csrc/u8x8_d_st7565.c ****   /* tile_width = */ 16,		/* width of 16*8=128 pixel */
 396:..\u8g2\csrc/u8x8_d_st7565.c ****   /* tile_hight = */ 8,
 397:..\u8g2\csrc/u8x8_d_st7565.c ****   /* default_x_offset = */ 4,
 398:..\u8g2\csrc/u8x8_d_st7565.c ****   /* flipmode_x_offset = */ 0,
 399:..\u8g2\csrc/u8x8_d_st7565.c ****   /* pixel_width = */ 128,
 400:..\u8g2\csrc/u8x8_d_st7565.c ****   /* pixel_height = */ 64
 401:..\u8g2\csrc/u8x8_d_st7565.c **** };
 402:..\u8g2\csrc/u8x8_d_st7565.c **** 
 403:..\u8g2\csrc/u8x8_d_st7565.c **** uint8_t u8x8_d_st7565_64128n(u8x8_t *u8x8, uint8_t msg, uint8_t arg_int, void *arg_ptr)
 404:..\u8g2\csrc/u8x8_d_st7565.c **** {
 400              		.loc 1 404 0
 401              		.cfi_startproc
 402              		@ args = 0, pretend = 0, frame = 0
 403              		@ frame_needed = 0, uses_anonymous_args = 0
 404              	.LVL48:
 405 0000 70B5     		push	{r4, r5, r6, lr}
 406              		.cfi_def_cfa_offset 16
 407              		.cfi_offset 4, -16
 408              		.cfi_offset 5, -12
 409              		.cfi_offset 6, -8
 410              		.cfi_offset 14, -4
 411 0002 0546     		mov	r5, r0
 412 0004 0C46     		mov	r4, r1
 413 0006 1646     		mov	r6, r2
 405:..\u8g2\csrc/u8x8_d_st7565.c ****   /* call common procedure first and handle messages there */
 406:..\u8g2\csrc/u8x8_d_st7565.c ****   if ( u8x8_d_st7565_common(u8x8, msg, arg_int, arg_ptr) == 0 )
 414              		.loc 1 406 0
 415 0008 FFF7FEFF 		bl	u8x8_d_st7565_common
 416              	.LVL49:
 417 000c 50BB     		cbnz	r0, .L40
 418 000e 0346     		mov	r3, r0
 407:..\u8g2\csrc/u8x8_d_st7565.c ****   {
 408:..\u8g2\csrc/u8x8_d_st7565.c ****     /* msg not handled, then try here */
 409:..\u8g2\csrc/u8x8_d_st7565.c ****     switch(msg)
ARM GAS  C:\Users\brian\AppData\Local\Temp\cc1Lhyrd.s 			page 16


 419              		.loc 1 409 0
 420 0010 0A2C     		cmp	r4, #10
 421 0012 09D0     		beq	.L36
 422 0014 0D2C     		cmp	r4, #13
 423 0016 10D0     		beq	.L37
 424 0018 092C     		cmp	r4, #9
 425 001a 24D1     		bne	.L35
 410:..\u8g2\csrc/u8x8_d_st7565.c ****     {
 411:..\u8g2\csrc/u8x8_d_st7565.c ****       case U8X8_MSG_DISPLAY_SETUP_MEMORY:
 412:..\u8g2\csrc/u8x8_d_st7565.c **** 	u8x8_d_helper_display_setup_memory(u8x8, &u8x8_st7565_64128n_display_info);
 426              		.loc 1 412 0
 427 001c 1349     		ldr	r1, .L42
 428 001e 2846     		mov	r0, r5
 429 0020 FFF7FEFF 		bl	u8x8_d_helper_display_setup_memory
 430              	.LVL50:
 413:..\u8g2\csrc/u8x8_d_st7565.c **** 	break;
 414:..\u8g2\csrc/u8x8_d_st7565.c ****       case U8X8_MSG_DISPLAY_INIT:
 415:..\u8g2\csrc/u8x8_d_st7565.c **** 	u8x8_d_helper_display_init(u8x8);
 416:..\u8g2\csrc/u8x8_d_st7565.c **** 	u8x8_cad_SendSequence(u8x8, u8x8_d_st7565_64128n_init_seq);
 417:..\u8g2\csrc/u8x8_d_st7565.c **** 	break;
 418:..\u8g2\csrc/u8x8_d_st7565.c ****       case U8X8_MSG_DISPLAY_SET_FLIP_MODE:
 419:..\u8g2\csrc/u8x8_d_st7565.c **** 	if ( arg_int == 0 )
 420:..\u8g2\csrc/u8x8_d_st7565.c **** 	{
 421:..\u8g2\csrc/u8x8_d_st7565.c **** 	  u8x8_cad_SendSequence(u8x8, u8x8_d_st7565_flip0_seq);
 422:..\u8g2\csrc/u8x8_d_st7565.c **** 	  u8x8->x_offset = u8x8->display_info->default_x_offset;
 423:..\u8g2\csrc/u8x8_d_st7565.c **** 	}
 424:..\u8g2\csrc/u8x8_d_st7565.c **** 	else
 425:..\u8g2\csrc/u8x8_d_st7565.c **** 	{
 426:..\u8g2\csrc/u8x8_d_st7565.c **** 	  u8x8_cad_SendSequence(u8x8, u8x8_d_st7565_flip1_seq);
 427:..\u8g2\csrc/u8x8_d_st7565.c **** 	  u8x8->x_offset = u8x8->display_info->flipmode_x_offset;
 428:..\u8g2\csrc/u8x8_d_st7565.c **** 	}	
 429:..\u8g2\csrc/u8x8_d_st7565.c **** 	break;
 430:..\u8g2\csrc/u8x8_d_st7565.c ****       default:
 431:..\u8g2\csrc/u8x8_d_st7565.c **** 	return 0;		/* msg unknown */
 432:..\u8g2\csrc/u8x8_d_st7565.c ****     }
 433:..\u8g2\csrc/u8x8_d_st7565.c ****   }
 434:..\u8g2\csrc/u8x8_d_st7565.c ****   return 1;
 431              		.loc 1 434 0
 432 0024 0123     		movs	r3, #1
 413:..\u8g2\csrc/u8x8_d_st7565.c **** 	break;
 433              		.loc 1 413 0
 434 0026 1EE0     		b	.L35
 435              	.L36:
 415:..\u8g2\csrc/u8x8_d_st7565.c **** 	u8x8_cad_SendSequence(u8x8, u8x8_d_st7565_64128n_init_seq);
 436              		.loc 1 415 0
 437 0028 2846     		mov	r0, r5
 438 002a FFF7FEFF 		bl	u8x8_d_helper_display_init
 439              	.LVL51:
 416:..\u8g2\csrc/u8x8_d_st7565.c **** 	break;
 440              		.loc 1 416 0
 441 002e 1049     		ldr	r1, .L42+4
 442 0030 2846     		mov	r0, r5
 443 0032 FFF7FEFF 		bl	u8x8_cad_SendSequence
 444              	.LVL52:
 445              		.loc 1 434 0
 446 0036 0123     		movs	r3, #1
 417:..\u8g2\csrc/u8x8_d_st7565.c ****       case U8X8_MSG_DISPLAY_SET_FLIP_MODE:
ARM GAS  C:\Users\brian\AppData\Local\Temp\cc1Lhyrd.s 			page 17


 447              		.loc 1 417 0
 448 0038 15E0     		b	.L35
 449              	.L37:
 419:..\u8g2\csrc/u8x8_d_st7565.c **** 	{
 450              		.loc 1 419 0
 451 003a 4EB9     		cbnz	r6, .L39
 421:..\u8g2\csrc/u8x8_d_st7565.c **** 	  u8x8->x_offset = u8x8->display_info->default_x_offset;
 452              		.loc 1 421 0
 453 003c 0D49     		ldr	r1, .L42+8
 454 003e 2846     		mov	r0, r5
 455 0040 FFF7FEFF 		bl	u8x8_cad_SendSequence
 456              	.LVL53:
 422:..\u8g2\csrc/u8x8_d_st7565.c **** 	}
 457              		.loc 1 422 0
 458 0044 2B68     		ldr	r3, [r5]
 459 0046 9B7C     		ldrb	r3, [r3, #18]	@ zero_extendqisi2
 460 0048 85F82230 		strb	r3, [r5, #34]
 461              		.loc 1 434 0
 462 004c 0123     		movs	r3, #1
 463 004e 0AE0     		b	.L35
 464              	.L39:
 426:..\u8g2\csrc/u8x8_d_st7565.c **** 	  u8x8->x_offset = u8x8->display_info->flipmode_x_offset;
 465              		.loc 1 426 0
 466 0050 0949     		ldr	r1, .L42+12
 467 0052 2846     		mov	r0, r5
 468 0054 FFF7FEFF 		bl	u8x8_cad_SendSequence
 469              	.LVL54:
 427:..\u8g2\csrc/u8x8_d_st7565.c **** 	}	
 470              		.loc 1 427 0
 471 0058 2B68     		ldr	r3, [r5]
 472 005a DB7C     		ldrb	r3, [r3, #19]	@ zero_extendqisi2
 473 005c 85F82230 		strb	r3, [r5, #34]
 474              		.loc 1 434 0
 475 0060 0123     		movs	r3, #1
 476 0062 00E0     		b	.L35
 477              	.L40:
 478 0064 0123     		movs	r3, #1
 479              	.L35:
 435:..\u8g2\csrc/u8x8_d_st7565.c **** }
 480              		.loc 1 435 0
 481 0066 1846     		mov	r0, r3
 482 0068 70BD     		pop	{r4, r5, r6, pc}
 483              	.LVL55:
 484              	.L43:
 485 006a 00BF     		.align	2
 486              	.L42:
 487 006c 80000000 		.word	.LANCHOR0+128
 488 0070 98000000 		.word	.LANCHOR0+152
 489 0074 4C000000 		.word	.LANCHOR0+76
 490 0078 54000000 		.word	.LANCHOR0+84
 491              		.cfi_endproc
 492              	.LFE3:
 493              		.size	u8x8_d_st7565_64128n, .-u8x8_d_st7565_64128n
 494              		.section	.text.u8x8_d_st7565_zolen_128x64,"ax",%progbits
 495              		.align	2
 496              		.global	u8x8_d_st7565_zolen_128x64
 497              		.thumb
ARM GAS  C:\Users\brian\AppData\Local\Temp\cc1Lhyrd.s 			page 18


 498              		.thumb_func
 499              		.type	u8x8_d_st7565_zolen_128x64, %function
 500              	u8x8_d_st7565_zolen_128x64:
 501              	.LFB4:
 436:..\u8g2\csrc/u8x8_d_st7565.c **** 
 437:..\u8g2\csrc/u8x8_d_st7565.c **** /*================================================*/
 438:..\u8g2\csrc/u8x8_d_st7565.c **** /* ZOLEN 128x64  */
 439:..\u8g2\csrc/u8x8_d_st7565.c **** 
 440:..\u8g2\csrc/u8x8_d_st7565.c **** static const uint8_t u8x8_d_st7565_zolen_128x64_init_seq[] = {
 441:..\u8g2\csrc/u8x8_d_st7565.c ****     
 442:..\u8g2\csrc/u8x8_d_st7565.c ****   U8X8_START_TRANSFER(),             	/* enable chip, delay is part of the transfer start */
 443:..\u8g2\csrc/u8x8_d_st7565.c ****   
 444:..\u8g2\csrc/u8x8_d_st7565.c ****   U8X8_C(0x0e2),            			/* soft reset */
 445:..\u8g2\csrc/u8x8_d_st7565.c ****   U8X8_C(0x0ae),		                /* display off */
 446:..\u8g2\csrc/u8x8_d_st7565.c ****   U8X8_C(0x040),		                /* set display start line to 0 */
 447:..\u8g2\csrc/u8x8_d_st7565.c ****   
 448:..\u8g2\csrc/u8x8_d_st7565.c ****   U8X8_C(0x0a1),		                /* ADC set to reverse */
 449:..\u8g2\csrc/u8x8_d_st7565.c ****   U8X8_C(0x0c8),		                /* common output mode */
 450:..\u8g2\csrc/u8x8_d_st7565.c ****   // Flipmode
 451:..\u8g2\csrc/u8x8_d_st7565.c ****   // U8X8_C(0x0a0),		                /* ADC set to reverse */
 452:..\u8g2\csrc/u8x8_d_st7565.c ****   // U8X8_C(0x0c0),		                /* common output mode */
 453:..\u8g2\csrc/u8x8_d_st7565.c ****   
 454:..\u8g2\csrc/u8x8_d_st7565.c ****   U8X8_C(0x0a6),		                /* display normal, bit val 0: LCD pixel off. */
 455:..\u8g2\csrc/u8x8_d_st7565.c ****   U8X8_C(0x0a2),		                /* LCD bias 1/9 */
 456:..\u8g2\csrc/u8x8_d_st7565.c ****   U8X8_C(0x02f),		                /* all power  control circuits on (regulator, booster and followe
 457:..\u8g2\csrc/u8x8_d_st7565.c ****   U8X8_CA(0x0f8, 0x000),		/* set booster ratio to 4x */
 458:..\u8g2\csrc/u8x8_d_st7565.c ****   U8X8_C(0x027),		                /* set V0 voltage resistor ratio to max  */
 459:..\u8g2\csrc/u8x8_d_st7565.c ****   U8X8_CA(0x081, 0x007),		/* set contrast, contrast value, EA default: 0x016 */
 460:..\u8g2\csrc/u8x8_d_st7565.c ****   
 461:..\u8g2\csrc/u8x8_d_st7565.c ****   U8X8_C(0x0ae),		                /* display off */
 462:..\u8g2\csrc/u8x8_d_st7565.c ****   U8X8_C(0x0a5),		                /* enter powersafe: all pixel on, issue 142 */
 463:..\u8g2\csrc/u8x8_d_st7565.c ****   
 464:..\u8g2\csrc/u8x8_d_st7565.c ****   U8X8_END_TRANSFER(),             	/* disable chip */
 465:..\u8g2\csrc/u8x8_d_st7565.c ****   U8X8_END()             			/* end of sequence */
 466:..\u8g2\csrc/u8x8_d_st7565.c **** };
 467:..\u8g2\csrc/u8x8_d_st7565.c **** 
 468:..\u8g2\csrc/u8x8_d_st7565.c **** uint8_t u8x8_d_st7565_zolen_128x64(u8x8_t *u8x8, uint8_t msg, uint8_t arg_int, void *arg_ptr)
 469:..\u8g2\csrc/u8x8_d_st7565.c **** {
 502              		.loc 1 469 0
 503              		.cfi_startproc
 504              		@ args = 0, pretend = 0, frame = 0
 505              		@ frame_needed = 0, uses_anonymous_args = 0
 506              	.LVL56:
 507 0000 70B5     		push	{r4, r5, r6, lr}
 508              		.cfi_def_cfa_offset 16
 509              		.cfi_offset 4, -16
 510              		.cfi_offset 5, -12
 511              		.cfi_offset 6, -8
 512              		.cfi_offset 14, -4
 513 0002 0546     		mov	r5, r0
 514 0004 0C46     		mov	r4, r1
 515 0006 1646     		mov	r6, r2
 470:..\u8g2\csrc/u8x8_d_st7565.c ****   /* call common procedure first and handle messages there */
 471:..\u8g2\csrc/u8x8_d_st7565.c ****   if ( u8x8_d_st7565_common(u8x8, msg, arg_int, arg_ptr) == 0 )
 516              		.loc 1 471 0
 517 0008 FFF7FEFF 		bl	u8x8_d_st7565_common
 518              	.LVL57:
ARM GAS  C:\Users\brian\AppData\Local\Temp\cc1Lhyrd.s 			page 19


 519 000c 50BB     		cbnz	r0, .L50
 520 000e 0346     		mov	r3, r0
 472:..\u8g2\csrc/u8x8_d_st7565.c ****   {
 473:..\u8g2\csrc/u8x8_d_st7565.c ****     /* msg not handled, then try here */
 474:..\u8g2\csrc/u8x8_d_st7565.c ****     switch(msg)
 521              		.loc 1 474 0
 522 0010 0A2C     		cmp	r4, #10
 523 0012 09D0     		beq	.L46
 524 0014 0D2C     		cmp	r4, #13
 525 0016 10D0     		beq	.L47
 526 0018 092C     		cmp	r4, #9
 527 001a 24D1     		bne	.L45
 475:..\u8g2\csrc/u8x8_d_st7565.c ****     {
 476:..\u8g2\csrc/u8x8_d_st7565.c ****       case U8X8_MSG_DISPLAY_SETUP_MEMORY:
 477:..\u8g2\csrc/u8x8_d_st7565.c **** 	u8x8_d_helper_display_setup_memory(u8x8, &u8x8_st7565_128x64_display_info);
 528              		.loc 1 477 0
 529 001c 1349     		ldr	r1, .L52
 530 001e 2846     		mov	r0, r5
 531 0020 FFF7FEFF 		bl	u8x8_d_helper_display_setup_memory
 532              	.LVL58:
 478:..\u8g2\csrc/u8x8_d_st7565.c **** 	break;
 479:..\u8g2\csrc/u8x8_d_st7565.c ****       case U8X8_MSG_DISPLAY_INIT:
 480:..\u8g2\csrc/u8x8_d_st7565.c **** 	u8x8_d_helper_display_init(u8x8);
 481:..\u8g2\csrc/u8x8_d_st7565.c **** 	u8x8_cad_SendSequence(u8x8, u8x8_d_st7565_zolen_128x64_init_seq);
 482:..\u8g2\csrc/u8x8_d_st7565.c **** 	break;
 483:..\u8g2\csrc/u8x8_d_st7565.c ****       case U8X8_MSG_DISPLAY_SET_FLIP_MODE:
 484:..\u8g2\csrc/u8x8_d_st7565.c **** 	if ( arg_int == 0 )
 485:..\u8g2\csrc/u8x8_d_st7565.c **** 	{
 486:..\u8g2\csrc/u8x8_d_st7565.c **** 	  u8x8_cad_SendSequence(u8x8, u8x8_d_st7565_zflip0_seq);
 487:..\u8g2\csrc/u8x8_d_st7565.c **** 	  u8x8->x_offset = u8x8->display_info->default_x_offset;
 488:..\u8g2\csrc/u8x8_d_st7565.c **** 	}
 489:..\u8g2\csrc/u8x8_d_st7565.c **** 	else
 490:..\u8g2\csrc/u8x8_d_st7565.c **** 	{
 491:..\u8g2\csrc/u8x8_d_st7565.c **** 	  u8x8_cad_SendSequence(u8x8, u8x8_d_st7565_zflip1_seq);
 492:..\u8g2\csrc/u8x8_d_st7565.c **** 	  u8x8->x_offset = u8x8->display_info->flipmode_x_offset;
 493:..\u8g2\csrc/u8x8_d_st7565.c **** 	}	
 494:..\u8g2\csrc/u8x8_d_st7565.c **** 	break;
 495:..\u8g2\csrc/u8x8_d_st7565.c ****       default:
 496:..\u8g2\csrc/u8x8_d_st7565.c **** 	return 0;		/* msg unknown */
 497:..\u8g2\csrc/u8x8_d_st7565.c ****     }
 498:..\u8g2\csrc/u8x8_d_st7565.c ****   }
 499:..\u8g2\csrc/u8x8_d_st7565.c ****   return 1;
 533              		.loc 1 499 0
 534 0024 0123     		movs	r3, #1
 478:..\u8g2\csrc/u8x8_d_st7565.c **** 	break;
 535              		.loc 1 478 0
 536 0026 1EE0     		b	.L45
 537              	.L46:
 480:..\u8g2\csrc/u8x8_d_st7565.c **** 	u8x8_cad_SendSequence(u8x8, u8x8_d_st7565_zolen_128x64_init_seq);
 538              		.loc 1 480 0
 539 0028 2846     		mov	r0, r5
 540 002a FFF7FEFF 		bl	u8x8_d_helper_display_init
 541              	.LVL59:
 481:..\u8g2\csrc/u8x8_d_st7565.c **** 	break;
 542              		.loc 1 481 0
 543 002e 1049     		ldr	r1, .L52+4
 544 0030 2846     		mov	r0, r5
ARM GAS  C:\Users\brian\AppData\Local\Temp\cc1Lhyrd.s 			page 20


 545 0032 FFF7FEFF 		bl	u8x8_cad_SendSequence
 546              	.LVL60:
 547              		.loc 1 499 0
 548 0036 0123     		movs	r3, #1
 482:..\u8g2\csrc/u8x8_d_st7565.c ****       case U8X8_MSG_DISPLAY_SET_FLIP_MODE:
 549              		.loc 1 482 0
 550 0038 15E0     		b	.L45
 551              	.L47:
 484:..\u8g2\csrc/u8x8_d_st7565.c **** 	{
 552              		.loc 1 484 0
 553 003a 4EB9     		cbnz	r6, .L49
 486:..\u8g2\csrc/u8x8_d_st7565.c **** 	  u8x8->x_offset = u8x8->display_info->default_x_offset;
 554              		.loc 1 486 0
 555 003c 0D49     		ldr	r1, .L52+8
 556 003e 2846     		mov	r0, r5
 557 0040 FFF7FEFF 		bl	u8x8_cad_SendSequence
 558              	.LVL61:
 487:..\u8g2\csrc/u8x8_d_st7565.c **** 	}
 559              		.loc 1 487 0
 560 0044 2B68     		ldr	r3, [r5]
 561 0046 9B7C     		ldrb	r3, [r3, #18]	@ zero_extendqisi2
 562 0048 85F82230 		strb	r3, [r5, #34]
 563              		.loc 1 499 0
 564 004c 0123     		movs	r3, #1
 565 004e 0AE0     		b	.L45
 566              	.L49:
 491:..\u8g2\csrc/u8x8_d_st7565.c **** 	  u8x8->x_offset = u8x8->display_info->flipmode_x_offset;
 567              		.loc 1 491 0
 568 0050 0949     		ldr	r1, .L52+12
 569 0052 2846     		mov	r0, r5
 570 0054 FFF7FEFF 		bl	u8x8_cad_SendSequence
 571              	.LVL62:
 492:..\u8g2\csrc/u8x8_d_st7565.c **** 	}	
 572              		.loc 1 492 0
 573 0058 2B68     		ldr	r3, [r5]
 574 005a DB7C     		ldrb	r3, [r3, #19]	@ zero_extendqisi2
 575 005c 85F82230 		strb	r3, [r5, #34]
 576              		.loc 1 499 0
 577 0060 0123     		movs	r3, #1
 578 0062 00E0     		b	.L45
 579              	.L50:
 580 0064 0123     		movs	r3, #1
 581              	.L45:
 500:..\u8g2\csrc/u8x8_d_st7565.c **** }
 582              		.loc 1 500 0
 583 0066 1846     		mov	r0, r3
 584 0068 70BD     		pop	{r4, r5, r6, pc}
 585              	.LVL63:
 586              	.L53:
 587 006a 00BF     		.align	2
 588              	.L52:
 589 006c 10000000 		.word	.LANCHOR0+16
 590 0070 B8000000 		.word	.LANCHOR0+184
 591 0074 DC000000 		.word	.LANCHOR0+220
 592 0078 E4000000 		.word	.LANCHOR0+228
 593              		.cfi_endproc
 594              	.LFE4:
ARM GAS  C:\Users\brian\AppData\Local\Temp\cc1Lhyrd.s 			page 21


 595              		.size	u8x8_d_st7565_zolen_128x64, .-u8x8_d_st7565_zolen_128x64
 596              		.section	.text.u8x8_d_st7565_nhd_c12832,"ax",%progbits
 597              		.align	2
 598              		.global	u8x8_d_st7565_nhd_c12832
 599              		.thumb
 600              		.thumb_func
 601              		.type	u8x8_d_st7565_nhd_c12832, %function
 602              	u8x8_d_st7565_nhd_c12832:
 603              	.LFB5:
 501:..\u8g2\csrc/u8x8_d_st7565.c **** 
 502:..\u8g2\csrc/u8x8_d_st7565.c **** 
 503:..\u8g2\csrc/u8x8_d_st7565.c **** 
 504:..\u8g2\csrc/u8x8_d_st7565.c **** /*================================================*/
 505:..\u8g2\csrc/u8x8_d_st7565.c **** /* NHD-C12832 */
 506:..\u8g2\csrc/u8x8_d_st7565.c **** 
 507:..\u8g2\csrc/u8x8_d_st7565.c **** static const u8x8_display_info_t u8x8_st7565_128x32_display_info =
 508:..\u8g2\csrc/u8x8_d_st7565.c **** {
 509:..\u8g2\csrc/u8x8_d_st7565.c ****   /* chip_enable_level = */ 0,
 510:..\u8g2\csrc/u8x8_d_st7565.c ****   /* chip_disable_level = */ 1,
 511:..\u8g2\csrc/u8x8_d_st7565.c ****   
 512:..\u8g2\csrc/u8x8_d_st7565.c ****   /* post_chip_enable_wait_ns = */ 150,	/* st7565 datasheet, table 26, tcsh */
 513:..\u8g2\csrc/u8x8_d_st7565.c ****   /* pre_chip_disable_wait_ns = */ 50,	/* st7565 datasheet, table 26, tcss */
 514:..\u8g2\csrc/u8x8_d_st7565.c ****   /* reset_pulse_width_ms = */ 1, 
 515:..\u8g2\csrc/u8x8_d_st7565.c ****   /* post_reset_wait_ms = */ 1, 
 516:..\u8g2\csrc/u8x8_d_st7565.c ****   /* sda_setup_time_ns = */ 50,		/* st7565 datasheet, table 26, tsds */
 517:..\u8g2\csrc/u8x8_d_st7565.c ****   /* sck_pulse_width_ns = */ 120,	/* half of cycle time (100ns according to datasheet), AVR: below 
 518:..\u8g2\csrc/u8x8_d_st7565.c ****   /* sck_clock_hz = */ 4000000UL,	/* since Arduino 1.6.0, the SPI bus speed in Hz. Should be  10000
 519:..\u8g2\csrc/u8x8_d_st7565.c ****   /* spi_mode = */ 0,		/* active high, rising edge */
 520:..\u8g2\csrc/u8x8_d_st7565.c ****   /* i2c_bus_clock_100kHz = */ 4,
 521:..\u8g2\csrc/u8x8_d_st7565.c ****   /* data_setup_time_ns = */ 40,	/* st7565 datasheet, table 24, tds8 */
 522:..\u8g2\csrc/u8x8_d_st7565.c ****   /* write_pulse_width_ns = */ 80,	/* st7565 datasheet, table 24, tcclw */
 523:..\u8g2\csrc/u8x8_d_st7565.c ****   /* tile_width = */ 16,		/* width of 16*8=128 pixel */
 524:..\u8g2\csrc/u8x8_d_st7565.c ****   /* tile_hight = */ 4,
 525:..\u8g2\csrc/u8x8_d_st7565.c ****   /* default_x_offset = */ 4,
 526:..\u8g2\csrc/u8x8_d_st7565.c ****   /* flipmode_x_offset = */ 0,
 527:..\u8g2\csrc/u8x8_d_st7565.c ****   /* pixel_width = */ 128,
 528:..\u8g2\csrc/u8x8_d_st7565.c ****   /* pixel_height = */ 32
 529:..\u8g2\csrc/u8x8_d_st7565.c **** };
 530:..\u8g2\csrc/u8x8_d_st7565.c **** 
 531:..\u8g2\csrc/u8x8_d_st7565.c **** 
 532:..\u8g2\csrc/u8x8_d_st7565.c **** static const uint8_t u8x8_d_st7565_nhd_c12832_init_seq[] = {
 533:..\u8g2\csrc/u8x8_d_st7565.c ****     
 534:..\u8g2\csrc/u8x8_d_st7565.c ****   U8X8_START_TRANSFER(),             	/* enable chip, delay is part of the transfer start */
 535:..\u8g2\csrc/u8x8_d_st7565.c ****   
 536:..\u8g2\csrc/u8x8_d_st7565.c ****   U8X8_C(0x0e2),            			/* soft reset */
 537:..\u8g2\csrc/u8x8_d_st7565.c ****   U8X8_C(0x0ae),		                /* display off */
 538:..\u8g2\csrc/u8x8_d_st7565.c ****   U8X8_C(0x040),		                /* set display start line to 0 */
 539:..\u8g2\csrc/u8x8_d_st7565.c ****   
 540:..\u8g2\csrc/u8x8_d_st7565.c ****   U8X8_C(0x0a1),		                /* ADC set to reverse */
 541:..\u8g2\csrc/u8x8_d_st7565.c ****   U8X8_C(0x0c0),		                /* common output mode */
 542:..\u8g2\csrc/u8x8_d_st7565.c ****   // Flipmode
 543:..\u8g2\csrc/u8x8_d_st7565.c ****   //U8X8_C(0x0a0),		                /* ADC set to reverse */
 544:..\u8g2\csrc/u8x8_d_st7565.c ****   //U8X8_C(0x0c8),		                /* common output mode */
 545:..\u8g2\csrc/u8x8_d_st7565.c ****   
 546:..\u8g2\csrc/u8x8_d_st7565.c ****   U8X8_C(0x0a6),		                /* display normal, bit val 0: LCD pixel off. */
 547:..\u8g2\csrc/u8x8_d_st7565.c ****   U8X8_C(0x0a2),		                /* LCD bias 1/9 */
 548:..\u8g2\csrc/u8x8_d_st7565.c ****   U8X8_C(0x02f),		                /* all power  control circuits on */
ARM GAS  C:\Users\brian\AppData\Local\Temp\cc1Lhyrd.s 			page 22


 549:..\u8g2\csrc/u8x8_d_st7565.c ****   U8X8_CA(0x0f8, 0x000),		/* set booster ratio to 4x */
 550:..\u8g2\csrc/u8x8_d_st7565.c ****   U8X8_C(0x023),		                /* set V0 voltage resistor ratio to large*/
 551:..\u8g2\csrc/u8x8_d_st7565.c ****   U8X8_CA(0x081, 0x00a),		/* set contrast, contrast value NHD C12832 */
 552:..\u8g2\csrc/u8x8_d_st7565.c ****   
 553:..\u8g2\csrc/u8x8_d_st7565.c ****   U8X8_C(0x0ae),		                /* display off */
 554:..\u8g2\csrc/u8x8_d_st7565.c ****   U8X8_C(0x0a5),		                /* enter powersafe: all pixel on, issue 142 */
 555:..\u8g2\csrc/u8x8_d_st7565.c ****   
 556:..\u8g2\csrc/u8x8_d_st7565.c ****   U8X8_END_TRANSFER(),             	/* disable chip */
 557:..\u8g2\csrc/u8x8_d_st7565.c ****   U8X8_END()             			/* end of sequence */
 558:..\u8g2\csrc/u8x8_d_st7565.c **** };
 559:..\u8g2\csrc/u8x8_d_st7565.c **** 
 560:..\u8g2\csrc/u8x8_d_st7565.c **** uint8_t u8x8_d_st7565_nhd_c12832(u8x8_t *u8x8, uint8_t msg, uint8_t arg_int, void *arg_ptr)
 561:..\u8g2\csrc/u8x8_d_st7565.c **** {
 604              		.loc 1 561 0
 605              		.cfi_startproc
 606              		@ args = 0, pretend = 0, frame = 0
 607              		@ frame_needed = 0, uses_anonymous_args = 0
 608              	.LVL64:
 609 0000 70B5     		push	{r4, r5, r6, lr}
 610              		.cfi_def_cfa_offset 16
 611              		.cfi_offset 4, -16
 612              		.cfi_offset 5, -12
 613              		.cfi_offset 6, -8
 614              		.cfi_offset 14, -4
 615 0002 0546     		mov	r5, r0
 616 0004 0C46     		mov	r4, r1
 617 0006 1646     		mov	r6, r2
 562:..\u8g2\csrc/u8x8_d_st7565.c ****   /* call common procedure first and handle messages there */
 563:..\u8g2\csrc/u8x8_d_st7565.c ****   if ( u8x8_d_st7565_common(u8x8, msg, arg_int, arg_ptr) == 0 )
 618              		.loc 1 563 0
 619 0008 FFF7FEFF 		bl	u8x8_d_st7565_common
 620              	.LVL65:
 621 000c 50BB     		cbnz	r0, .L60
 622 000e 0346     		mov	r3, r0
 564:..\u8g2\csrc/u8x8_d_st7565.c ****   {
 565:..\u8g2\csrc/u8x8_d_st7565.c ****     /* msg not handled, then try here */
 566:..\u8g2\csrc/u8x8_d_st7565.c ****     switch(msg)
 623              		.loc 1 566 0
 624 0010 0A2C     		cmp	r4, #10
 625 0012 09D0     		beq	.L56
 626 0014 0D2C     		cmp	r4, #13
 627 0016 10D0     		beq	.L57
 628 0018 092C     		cmp	r4, #9
 629 001a 24D1     		bne	.L55
 567:..\u8g2\csrc/u8x8_d_st7565.c ****     {
 568:..\u8g2\csrc/u8x8_d_st7565.c ****       case U8X8_MSG_DISPLAY_SETUP_MEMORY:
 569:..\u8g2\csrc/u8x8_d_st7565.c **** 	u8x8_d_helper_display_setup_memory(u8x8, &u8x8_st7565_128x32_display_info);
 630              		.loc 1 569 0
 631 001c 1349     		ldr	r1, .L62
 632 001e 2846     		mov	r0, r5
 633 0020 FFF7FEFF 		bl	u8x8_d_helper_display_setup_memory
 634              	.LVL66:
 570:..\u8g2\csrc/u8x8_d_st7565.c **** 	break;
 571:..\u8g2\csrc/u8x8_d_st7565.c ****       case U8X8_MSG_DISPLAY_INIT:
 572:..\u8g2\csrc/u8x8_d_st7565.c **** 	u8x8_d_helper_display_init(u8x8);
 573:..\u8g2\csrc/u8x8_d_st7565.c **** 	u8x8_cad_SendSequence(u8x8, u8x8_d_st7565_nhd_c12832_init_seq);
 574:..\u8g2\csrc/u8x8_d_st7565.c **** 	break;
ARM GAS  C:\Users\brian\AppData\Local\Temp\cc1Lhyrd.s 			page 23


 575:..\u8g2\csrc/u8x8_d_st7565.c ****       case U8X8_MSG_DISPLAY_SET_FLIP_MODE:
 576:..\u8g2\csrc/u8x8_d_st7565.c **** 	if ( arg_int == 0 )
 577:..\u8g2\csrc/u8x8_d_st7565.c **** 	{
 578:..\u8g2\csrc/u8x8_d_st7565.c **** 	  u8x8_cad_SendSequence(u8x8, u8x8_d_st7565_flip0_seq);
 579:..\u8g2\csrc/u8x8_d_st7565.c **** 	  u8x8->x_offset = u8x8->display_info->default_x_offset;
 580:..\u8g2\csrc/u8x8_d_st7565.c **** 	}
 581:..\u8g2\csrc/u8x8_d_st7565.c **** 	else
 582:..\u8g2\csrc/u8x8_d_st7565.c **** 	{
 583:..\u8g2\csrc/u8x8_d_st7565.c **** 	  u8x8_cad_SendSequence(u8x8, u8x8_d_st7565_flip1_seq);
 584:..\u8g2\csrc/u8x8_d_st7565.c **** 	  u8x8->x_offset = u8x8->display_info->flipmode_x_offset;
 585:..\u8g2\csrc/u8x8_d_st7565.c **** 	}	
 586:..\u8g2\csrc/u8x8_d_st7565.c **** 	break;
 587:..\u8g2\csrc/u8x8_d_st7565.c ****       default:
 588:..\u8g2\csrc/u8x8_d_st7565.c **** 	return 0;		/* msg unknown */
 589:..\u8g2\csrc/u8x8_d_st7565.c ****     }
 590:..\u8g2\csrc/u8x8_d_st7565.c ****   }
 591:..\u8g2\csrc/u8x8_d_st7565.c ****   return 1;
 635              		.loc 1 591 0
 636 0024 0123     		movs	r3, #1
 570:..\u8g2\csrc/u8x8_d_st7565.c **** 	break;
 637              		.loc 1 570 0
 638 0026 1EE0     		b	.L55
 639              	.L56:
 572:..\u8g2\csrc/u8x8_d_st7565.c **** 	u8x8_cad_SendSequence(u8x8, u8x8_d_st7565_nhd_c12832_init_seq);
 640              		.loc 1 572 0
 641 0028 2846     		mov	r0, r5
 642 002a FFF7FEFF 		bl	u8x8_d_helper_display_init
 643              	.LVL67:
 573:..\u8g2\csrc/u8x8_d_st7565.c **** 	break;
 644              		.loc 1 573 0
 645 002e 1049     		ldr	r1, .L62+4
 646 0030 2846     		mov	r0, r5
 647 0032 FFF7FEFF 		bl	u8x8_cad_SendSequence
 648              	.LVL68:
 649              		.loc 1 591 0
 650 0036 0123     		movs	r3, #1
 574:..\u8g2\csrc/u8x8_d_st7565.c ****       case U8X8_MSG_DISPLAY_SET_FLIP_MODE:
 651              		.loc 1 574 0
 652 0038 15E0     		b	.L55
 653              	.L57:
 576:..\u8g2\csrc/u8x8_d_st7565.c **** 	{
 654              		.loc 1 576 0
 655 003a 4EB9     		cbnz	r6, .L59
 578:..\u8g2\csrc/u8x8_d_st7565.c **** 	  u8x8->x_offset = u8x8->display_info->default_x_offset;
 656              		.loc 1 578 0
 657 003c 0D49     		ldr	r1, .L62+8
 658 003e 2846     		mov	r0, r5
 659 0040 FFF7FEFF 		bl	u8x8_cad_SendSequence
 660              	.LVL69:
 579:..\u8g2\csrc/u8x8_d_st7565.c **** 	}
 661              		.loc 1 579 0
 662 0044 2B68     		ldr	r3, [r5]
 663 0046 9B7C     		ldrb	r3, [r3, #18]	@ zero_extendqisi2
 664 0048 85F82230 		strb	r3, [r5, #34]
 665              		.loc 1 591 0
 666 004c 0123     		movs	r3, #1
 667 004e 0AE0     		b	.L55
ARM GAS  C:\Users\brian\AppData\Local\Temp\cc1Lhyrd.s 			page 24


 668              	.L59:
 583:..\u8g2\csrc/u8x8_d_st7565.c **** 	  u8x8->x_offset = u8x8->display_info->flipmode_x_offset;
 669              		.loc 1 583 0
 670 0050 0949     		ldr	r1, .L62+12
 671 0052 2846     		mov	r0, r5
 672 0054 FFF7FEFF 		bl	u8x8_cad_SendSequence
 673              	.LVL70:
 584:..\u8g2\csrc/u8x8_d_st7565.c **** 	}	
 674              		.loc 1 584 0
 675 0058 2B68     		ldr	r3, [r5]
 676 005a DB7C     		ldrb	r3, [r3, #19]	@ zero_extendqisi2
 677 005c 85F82230 		strb	r3, [r5, #34]
 678              		.loc 1 591 0
 679 0060 0123     		movs	r3, #1
 680 0062 00E0     		b	.L55
 681              	.L60:
 682 0064 0123     		movs	r3, #1
 683              	.L55:
 592:..\u8g2\csrc/u8x8_d_st7565.c **** }
 684              		.loc 1 592 0
 685 0066 1846     		mov	r0, r3
 686 0068 70BD     		pop	{r4, r5, r6, pc}
 687              	.LVL71:
 688              	.L63:
 689 006a 00BF     		.align	2
 690              	.L62:
 691 006c EC000000 		.word	.LANCHOR0+236
 692 0070 04010000 		.word	.LANCHOR0+260
 693 0074 4C000000 		.word	.LANCHOR0+76
 694 0078 54000000 		.word	.LANCHOR0+84
 695              		.cfi_endproc
 696              	.LFE5:
 697              		.size	u8x8_d_st7565_nhd_c12832, .-u8x8_d_st7565_nhd_c12832
 698              		.section	.text.u8x8_d_st7565_nhd_c12864,"ax",%progbits
 699              		.align	2
 700              		.global	u8x8_d_st7565_nhd_c12864
 701              		.thumb
 702              		.thumb_func
 703              		.type	u8x8_d_st7565_nhd_c12864, %function
 704              	u8x8_d_st7565_nhd_c12864:
 705              	.LFB6:
 593:..\u8g2\csrc/u8x8_d_st7565.c **** 
 594:..\u8g2\csrc/u8x8_d_st7565.c **** /*================================================*/
 595:..\u8g2\csrc/u8x8_d_st7565.c **** /* NHD-C12864 */
 596:..\u8g2\csrc/u8x8_d_st7565.c **** 
 597:..\u8g2\csrc/u8x8_d_st7565.c **** static const u8x8_display_info_t u8x8_st7565_nhd_c12864_display_info =
 598:..\u8g2\csrc/u8x8_d_st7565.c **** {
 599:..\u8g2\csrc/u8x8_d_st7565.c ****   /* chip_enable_level = */ 0,
 600:..\u8g2\csrc/u8x8_d_st7565.c ****   /* chip_disable_level = */ 1,
 601:..\u8g2\csrc/u8x8_d_st7565.c ****   
 602:..\u8g2\csrc/u8x8_d_st7565.c ****   /* post_chip_enable_wait_ns = */ 150,	/* st7565 datasheet, table 26, tcsh */
 603:..\u8g2\csrc/u8x8_d_st7565.c ****   /* pre_chip_disable_wait_ns = */ 50,	/* st7565 datasheet, table 26, tcss */
 604:..\u8g2\csrc/u8x8_d_st7565.c ****   /* reset_pulse_width_ms = */ 1, 
 605:..\u8g2\csrc/u8x8_d_st7565.c ****   /* post_reset_wait_ms = */ 1, 
 606:..\u8g2\csrc/u8x8_d_st7565.c ****   /* sda_setup_time_ns = */ 50,		/* st7565 datasheet, table 26, tsds */
 607:..\u8g2\csrc/u8x8_d_st7565.c ****   /* sck_pulse_width_ns = */ 120,	/* half of cycle time (100ns according to datasheet), AVR: below 
 608:..\u8g2\csrc/u8x8_d_st7565.c ****   /* sck_clock_hz = */ 4000000UL,	/* since Arduino 1.6.0, the SPI bus speed in Hz. Should be  10000
ARM GAS  C:\Users\brian\AppData\Local\Temp\cc1Lhyrd.s 			page 25


 609:..\u8g2\csrc/u8x8_d_st7565.c ****   /* spi_mode = */ 0,		/* active high, rising edge */
 610:..\u8g2\csrc/u8x8_d_st7565.c ****   /* i2c_bus_clock_100kHz = */ 4,
 611:..\u8g2\csrc/u8x8_d_st7565.c ****   /* data_setup_time_ns = */ 40,	/* st7565 datasheet, table 24, tds8 */
 612:..\u8g2\csrc/u8x8_d_st7565.c ****   /* write_pulse_width_ns = */ 80,	/* st7565 datasheet, table 24, tcclw */
 613:..\u8g2\csrc/u8x8_d_st7565.c ****   /* tile_width = */ 16,		/* width of 16*8=128 pixel */
 614:..\u8g2\csrc/u8x8_d_st7565.c ****   /* tile_hight = */ 8,
 615:..\u8g2\csrc/u8x8_d_st7565.c ****   /* default_x_offset = */ 4,
 616:..\u8g2\csrc/u8x8_d_st7565.c ****   /* flipmode_x_offset = */ 0,
 617:..\u8g2\csrc/u8x8_d_st7565.c ****   /* pixel_width = */ 128,
 618:..\u8g2\csrc/u8x8_d_st7565.c ****   /* pixel_height = */ 64
 619:..\u8g2\csrc/u8x8_d_st7565.c **** };
 620:..\u8g2\csrc/u8x8_d_st7565.c **** 
 621:..\u8g2\csrc/u8x8_d_st7565.c **** 
 622:..\u8g2\csrc/u8x8_d_st7565.c **** static const uint8_t u8x8_d_st7565_nhd_c12864_init_seq[] = {
 623:..\u8g2\csrc/u8x8_d_st7565.c ****     
 624:..\u8g2\csrc/u8x8_d_st7565.c ****   U8X8_START_TRANSFER(),             	/* enable chip, delay is part of the transfer start */
 625:..\u8g2\csrc/u8x8_d_st7565.c ****   
 626:..\u8g2\csrc/u8x8_d_st7565.c ****   U8X8_C(0x0e2),            			/* soft reset */
 627:..\u8g2\csrc/u8x8_d_st7565.c ****   U8X8_C(0x0ae),		                /* display off */
 628:..\u8g2\csrc/u8x8_d_st7565.c ****   U8X8_C(0x040),		                /* set display start line to 0 */
 629:..\u8g2\csrc/u8x8_d_st7565.c ****   
 630:..\u8g2\csrc/u8x8_d_st7565.c ****   U8X8_C(0x0a1),		                /* ADC set to reverse */
 631:..\u8g2\csrc/u8x8_d_st7565.c ****   U8X8_C(0x0c0),		                /* common output mode */
 632:..\u8g2\csrc/u8x8_d_st7565.c ****   // Flipmode
 633:..\u8g2\csrc/u8x8_d_st7565.c ****   //U8X8_C(0x0a0),		                /* ADC set to reverse */
 634:..\u8g2\csrc/u8x8_d_st7565.c ****   //U8X8_C(0x0c8),		                /* common output mode */
 635:..\u8g2\csrc/u8x8_d_st7565.c ****   
 636:..\u8g2\csrc/u8x8_d_st7565.c ****   U8X8_C(0x0a6),		                /* display normal, bit val 0: LCD pixel off. */
 637:..\u8g2\csrc/u8x8_d_st7565.c ****   U8X8_C(0x0a2),		                /* LCD bias 1/9 */
 638:..\u8g2\csrc/u8x8_d_st7565.c ****   U8X8_C(0x02f),		                /* all power  control circuits on */
 639:..\u8g2\csrc/u8x8_d_st7565.c ****   U8X8_CA(0x0f8, 0x000),		/* set booster ratio to 4x */
 640:..\u8g2\csrc/u8x8_d_st7565.c ****   U8X8_C(0x023),		                /* set V0 voltage resistor ratio to large*/
 641:..\u8g2\csrc/u8x8_d_st7565.c ****   U8X8_CA(0x081, 180),			/* set contrast, contrast value NHD C12864, see issue 186, increased contr
 642:..\u8g2\csrc/u8x8_d_st7565.c ****   
 643:..\u8g2\csrc/u8x8_d_st7565.c ****   U8X8_C(0x0ae),		                /* display off */
 644:..\u8g2\csrc/u8x8_d_st7565.c ****   U8X8_C(0x0a5),		                /* enter powersafe: all pixel on, issue 142 */
 645:..\u8g2\csrc/u8x8_d_st7565.c ****   
 646:..\u8g2\csrc/u8x8_d_st7565.c ****   U8X8_END_TRANSFER(),             	/* disable chip */
 647:..\u8g2\csrc/u8x8_d_st7565.c ****   U8X8_END()             			/* end of sequence */
 648:..\u8g2\csrc/u8x8_d_st7565.c **** };
 649:..\u8g2\csrc/u8x8_d_st7565.c **** 
 650:..\u8g2\csrc/u8x8_d_st7565.c **** uint8_t u8x8_d_st7565_nhd_c12864(u8x8_t *u8x8, uint8_t msg, uint8_t arg_int, void *arg_ptr)
 651:..\u8g2\csrc/u8x8_d_st7565.c **** {
 706              		.loc 1 651 0
 707              		.cfi_startproc
 708              		@ args = 0, pretend = 0, frame = 0
 709              		@ frame_needed = 0, uses_anonymous_args = 0
 710              	.LVL72:
 711 0000 70B5     		push	{r4, r5, r6, lr}
 712              		.cfi_def_cfa_offset 16
 713              		.cfi_offset 4, -16
 714              		.cfi_offset 5, -12
 715              		.cfi_offset 6, -8
 716              		.cfi_offset 14, -4
 717 0002 0546     		mov	r5, r0
 718 0004 0C46     		mov	r4, r1
 719 0006 1646     		mov	r6, r2
ARM GAS  C:\Users\brian\AppData\Local\Temp\cc1Lhyrd.s 			page 26


 652:..\u8g2\csrc/u8x8_d_st7565.c ****   /* call common procedure first and handle messages there */
 653:..\u8g2\csrc/u8x8_d_st7565.c ****   if ( u8x8_d_st7565_common(u8x8, msg, arg_int, arg_ptr) == 0 )
 720              		.loc 1 653 0
 721 0008 FFF7FEFF 		bl	u8x8_d_st7565_common
 722              	.LVL73:
 723 000c 50BB     		cbnz	r0, .L70
 724 000e 0346     		mov	r3, r0
 654:..\u8g2\csrc/u8x8_d_st7565.c ****   {
 655:..\u8g2\csrc/u8x8_d_st7565.c ****     /* msg not handled, then try here */
 656:..\u8g2\csrc/u8x8_d_st7565.c ****     switch(msg)
 725              		.loc 1 656 0
 726 0010 0A2C     		cmp	r4, #10
 727 0012 09D0     		beq	.L66
 728 0014 0D2C     		cmp	r4, #13
 729 0016 10D0     		beq	.L67
 730 0018 092C     		cmp	r4, #9
 731 001a 24D1     		bne	.L65
 657:..\u8g2\csrc/u8x8_d_st7565.c ****     {
 658:..\u8g2\csrc/u8x8_d_st7565.c ****       case U8X8_MSG_DISPLAY_SETUP_MEMORY:
 659:..\u8g2\csrc/u8x8_d_st7565.c **** 	u8x8_d_helper_display_setup_memory(u8x8, &u8x8_st7565_nhd_c12864_display_info);
 732              		.loc 1 659 0
 733 001c 1349     		ldr	r1, .L72
 734 001e 2846     		mov	r0, r5
 735 0020 FFF7FEFF 		bl	u8x8_d_helper_display_setup_memory
 736              	.LVL74:
 660:..\u8g2\csrc/u8x8_d_st7565.c **** 	break;
 661:..\u8g2\csrc/u8x8_d_st7565.c ****       case U8X8_MSG_DISPLAY_INIT:
 662:..\u8g2\csrc/u8x8_d_st7565.c **** 	u8x8_d_helper_display_init(u8x8);
 663:..\u8g2\csrc/u8x8_d_st7565.c **** 	u8x8_cad_SendSequence(u8x8, u8x8_d_st7565_nhd_c12864_init_seq);
 664:..\u8g2\csrc/u8x8_d_st7565.c **** 	break;
 665:..\u8g2\csrc/u8x8_d_st7565.c ****       case U8X8_MSG_DISPLAY_SET_FLIP_MODE:
 666:..\u8g2\csrc/u8x8_d_st7565.c **** 	if ( arg_int == 0 )
 667:..\u8g2\csrc/u8x8_d_st7565.c **** 	{
 668:..\u8g2\csrc/u8x8_d_st7565.c **** 	  u8x8_cad_SendSequence(u8x8, u8x8_d_st7565_flip0_seq);
 669:..\u8g2\csrc/u8x8_d_st7565.c **** 	  u8x8->x_offset = u8x8->display_info->default_x_offset;
 670:..\u8g2\csrc/u8x8_d_st7565.c **** 	}
 671:..\u8g2\csrc/u8x8_d_st7565.c **** 	else
 672:..\u8g2\csrc/u8x8_d_st7565.c **** 	{
 673:..\u8g2\csrc/u8x8_d_st7565.c **** 	  u8x8_cad_SendSequence(u8x8, u8x8_d_st7565_flip1_seq);
 674:..\u8g2\csrc/u8x8_d_st7565.c **** 	  u8x8->x_offset = u8x8->display_info->flipmode_x_offset;
 675:..\u8g2\csrc/u8x8_d_st7565.c **** 	}	
 676:..\u8g2\csrc/u8x8_d_st7565.c **** 	break;
 677:..\u8g2\csrc/u8x8_d_st7565.c ****       default:
 678:..\u8g2\csrc/u8x8_d_st7565.c **** 	return 0;		/* msg unknown */
 679:..\u8g2\csrc/u8x8_d_st7565.c ****     }
 680:..\u8g2\csrc/u8x8_d_st7565.c ****   }
 681:..\u8g2\csrc/u8x8_d_st7565.c ****   return 1;
 737              		.loc 1 681 0
 738 0024 0123     		movs	r3, #1
 660:..\u8g2\csrc/u8x8_d_st7565.c **** 	break;
 739              		.loc 1 660 0
 740 0026 1EE0     		b	.L65
 741              	.L66:
 662:..\u8g2\csrc/u8x8_d_st7565.c **** 	u8x8_cad_SendSequence(u8x8, u8x8_d_st7565_nhd_c12864_init_seq);
 742              		.loc 1 662 0
 743 0028 2846     		mov	r0, r5
 744 002a FFF7FEFF 		bl	u8x8_d_helper_display_init
ARM GAS  C:\Users\brian\AppData\Local\Temp\cc1Lhyrd.s 			page 27


 745              	.LVL75:
 663:..\u8g2\csrc/u8x8_d_st7565.c **** 	break;
 746              		.loc 1 663 0
 747 002e 1049     		ldr	r1, .L72+4
 748 0030 2846     		mov	r0, r5
 749 0032 FFF7FEFF 		bl	u8x8_cad_SendSequence
 750              	.LVL76:
 751              		.loc 1 681 0
 752 0036 0123     		movs	r3, #1
 664:..\u8g2\csrc/u8x8_d_st7565.c ****       case U8X8_MSG_DISPLAY_SET_FLIP_MODE:
 753              		.loc 1 664 0
 754 0038 15E0     		b	.L65
 755              	.L67:
 666:..\u8g2\csrc/u8x8_d_st7565.c **** 	{
 756              		.loc 1 666 0
 757 003a 4EB9     		cbnz	r6, .L69
 668:..\u8g2\csrc/u8x8_d_st7565.c **** 	  u8x8->x_offset = u8x8->display_info->default_x_offset;
 758              		.loc 1 668 0
 759 003c 0D49     		ldr	r1, .L72+8
 760 003e 2846     		mov	r0, r5
 761 0040 FFF7FEFF 		bl	u8x8_cad_SendSequence
 762              	.LVL77:
 669:..\u8g2\csrc/u8x8_d_st7565.c **** 	}
 763              		.loc 1 669 0
 764 0044 2B68     		ldr	r3, [r5]
 765 0046 9B7C     		ldrb	r3, [r3, #18]	@ zero_extendqisi2
 766 0048 85F82230 		strb	r3, [r5, #34]
 767              		.loc 1 681 0
 768 004c 0123     		movs	r3, #1
 769 004e 0AE0     		b	.L65
 770              	.L69:
 673:..\u8g2\csrc/u8x8_d_st7565.c **** 	  u8x8->x_offset = u8x8->display_info->flipmode_x_offset;
 771              		.loc 1 673 0
 772 0050 0949     		ldr	r1, .L72+12
 773 0052 2846     		mov	r0, r5
 774 0054 FFF7FEFF 		bl	u8x8_cad_SendSequence
 775              	.LVL78:
 674:..\u8g2\csrc/u8x8_d_st7565.c **** 	}	
 776              		.loc 1 674 0
 777 0058 2B68     		ldr	r3, [r5]
 778 005a DB7C     		ldrb	r3, [r3, #19]	@ zero_extendqisi2
 779 005c 85F82230 		strb	r3, [r5, #34]
 780              		.loc 1 681 0
 781 0060 0123     		movs	r3, #1
 782 0062 00E0     		b	.L65
 783              	.L70:
 784 0064 0123     		movs	r3, #1
 785              	.L65:
 682:..\u8g2\csrc/u8x8_d_st7565.c **** }
 786              		.loc 1 682 0
 787 0066 1846     		mov	r0, r3
 788 0068 70BD     		pop	{r4, r5, r6, pc}
 789              	.LVL79:
 790              	.L73:
 791 006a 00BF     		.align	2
 792              	.L72:
 793 006c 28010000 		.word	.LANCHOR0+296
ARM GAS  C:\Users\brian\AppData\Local\Temp\cc1Lhyrd.s 			page 28


 794 0070 40010000 		.word	.LANCHOR0+320
 795 0074 4C000000 		.word	.LANCHOR0+76
 796 0078 54000000 		.word	.LANCHOR0+84
 797              		.cfi_endproc
 798              	.LFE6:
 799              		.size	u8x8_d_st7565_nhd_c12864, .-u8x8_d_st7565_nhd_c12864
 800              		.section	.text.u8x8_d_st7565_jlx12864,"ax",%progbits
 801              		.align	2
 802              		.global	u8x8_d_st7565_jlx12864
 803              		.thumb
 804              		.thumb_func
 805              		.type	u8x8_d_st7565_jlx12864, %function
 806              	u8x8_d_st7565_jlx12864:
 807              	.LFB7:
 683:..\u8g2\csrc/u8x8_d_st7565.c **** /*================================================*/
 684:..\u8g2\csrc/u8x8_d_st7565.c **** /* JLX12864 */
 685:..\u8g2\csrc/u8x8_d_st7565.c **** 
 686:..\u8g2\csrc/u8x8_d_st7565.c **** uint8_t u8x8_d_st7565_jlx12864(u8x8_t *u8x8, uint8_t msg, uint8_t arg_int, void *arg_ptr)
 687:..\u8g2\csrc/u8x8_d_st7565.c **** {
 808              		.loc 1 687 0
 809              		.cfi_startproc
 810              		@ args = 0, pretend = 0, frame = 0
 811              		@ frame_needed = 0, uses_anonymous_args = 0
 812              	.LVL80:
 813 0000 08B5     		push	{r3, lr}
 814              		.cfi_def_cfa_offset 8
 815              		.cfi_offset 3, -8
 816              		.cfi_offset 14, -4
 688:..\u8g2\csrc/u8x8_d_st7565.c ****   return u8x8_d_st7565_nhd_c12864(u8x8, msg, arg_int, arg_ptr);
 817              		.loc 1 688 0
 818 0002 FFF7FEFF 		bl	u8x8_d_st7565_nhd_c12864
 819              	.LVL81:
 689:..\u8g2\csrc/u8x8_d_st7565.c **** }
 820              		.loc 1 689 0
 821 0006 08BD     		pop	{r3, pc}
 822              		.cfi_endproc
 823              	.LFE7:
 824              		.size	u8x8_d_st7565_jlx12864, .-u8x8_d_st7565_jlx12864
 825              		.section	.text.u8x8_d_st7565_lm6059,"ax",%progbits
 826              		.align	2
 827              		.global	u8x8_d_st7565_lm6059
 828              		.thumb
 829              		.thumb_func
 830              		.type	u8x8_d_st7565_lm6059, %function
 831              	u8x8_d_st7565_lm6059:
 832              	.LFB8:
 690:..\u8g2\csrc/u8x8_d_st7565.c **** 
 691:..\u8g2\csrc/u8x8_d_st7565.c **** 
 692:..\u8g2\csrc/u8x8_d_st7565.c **** /*================================================*/
 693:..\u8g2\csrc/u8x8_d_st7565.c **** /* LM6059 (Adafruit)... probably this is a ST7567 display */
 694:..\u8g2\csrc/u8x8_d_st7565.c **** 
 695:..\u8g2\csrc/u8x8_d_st7565.c **** static const uint8_t u8x8_d_st7565_lm6059_init_seq[] = {
 696:..\u8g2\csrc/u8x8_d_st7565.c ****     
 697:..\u8g2\csrc/u8x8_d_st7565.c ****   U8X8_START_TRANSFER(),             	/* enable chip, delay is part of the transfer start */
 698:..\u8g2\csrc/u8x8_d_st7565.c ****   
 699:..\u8g2\csrc/u8x8_d_st7565.c ****   U8X8_C(0x0e2),            			/* soft reset */
 700:..\u8g2\csrc/u8x8_d_st7565.c ****   U8X8_C(0x0ae),		                /* display off */
ARM GAS  C:\Users\brian\AppData\Local\Temp\cc1Lhyrd.s 			page 29


 701:..\u8g2\csrc/u8x8_d_st7565.c ****   U8X8_C(0x060),		                /* set display start line to ... */
 702:..\u8g2\csrc/u8x8_d_st7565.c ****   
 703:..\u8g2\csrc/u8x8_d_st7565.c ****   U8X8_C(0x0a0),		                /* ADC set to reverse */
 704:..\u8g2\csrc/u8x8_d_st7565.c ****   U8X8_C(0x0c8),		                /* common output mode */
 705:..\u8g2\csrc/u8x8_d_st7565.c ****   //U8X8_C(0x0a1),		                /* ADC set to reverse */
 706:..\u8g2\csrc/u8x8_d_st7565.c ****   //U8X8_C(0x0c0),		                /* common output mode */
 707:..\u8g2\csrc/u8x8_d_st7565.c ****   // Flipmode
 708:..\u8g2\csrc/u8x8_d_st7565.c ****   // U8X8_C(0x0a0),		                /* ADC set to reverse */
 709:..\u8g2\csrc/u8x8_d_st7565.c ****   // U8X8_C(0x0c8),		                /* common output mode */
 710:..\u8g2\csrc/u8x8_d_st7565.c ****   
 711:..\u8g2\csrc/u8x8_d_st7565.c ****   U8X8_C(0x0a6),		                /* display normal, bit val 0: LCD pixel off. */
 712:..\u8g2\csrc/u8x8_d_st7565.c ****   U8X8_C(0x0a3),		                /* LCD bias 1/9 */
 713:..\u8g2\csrc/u8x8_d_st7565.c ****   U8X8_C(0x02f),		                /* all power  control circuits on (regulator, booster and followe
 714:..\u8g2\csrc/u8x8_d_st7565.c ****   U8X8_CA(0x0f8, 0x000),		/* set booster ratio to 4x (ST7567 feature) */
 715:..\u8g2\csrc/u8x8_d_st7565.c ****   U8X8_C(0x027),		                /* set V0 voltage resistor ratio to max  */
 716:..\u8g2\csrc/u8x8_d_st7565.c ****   U8X8_CA(0x081, 0x018),		/* set contrast, contrast value, EA default: 0x016 */
 717:..\u8g2\csrc/u8x8_d_st7565.c ****   
 718:..\u8g2\csrc/u8x8_d_st7565.c ****   U8X8_C(0x0ae),		                /* display off */
 719:..\u8g2\csrc/u8x8_d_st7565.c ****   U8X8_C(0x0a5),		                /* enter powersafe: all pixel on, issue 142 */
 720:..\u8g2\csrc/u8x8_d_st7565.c ****   
 721:..\u8g2\csrc/u8x8_d_st7565.c ****   U8X8_END_TRANSFER(),             	/* disable chip */
 722:..\u8g2\csrc/u8x8_d_st7565.c ****   U8X8_END()             			/* end of sequence */
 723:..\u8g2\csrc/u8x8_d_st7565.c **** };
 724:..\u8g2\csrc/u8x8_d_st7565.c **** 
 725:..\u8g2\csrc/u8x8_d_st7565.c **** static const u8x8_display_info_t u8x8_st7565_lm6059_display_info =
 726:..\u8g2\csrc/u8x8_d_st7565.c **** {
 727:..\u8g2\csrc/u8x8_d_st7565.c ****   /* chip_enable_level = */ 0,
 728:..\u8g2\csrc/u8x8_d_st7565.c ****   /* chip_disable_level = */ 1,
 729:..\u8g2\csrc/u8x8_d_st7565.c ****   
 730:..\u8g2\csrc/u8x8_d_st7565.c ****   /* post_chip_enable_wait_ns = */ 150,	/* st7565 datasheet, table 26, tcsh */
 731:..\u8g2\csrc/u8x8_d_st7565.c ****   /* pre_chip_disable_wait_ns = */ 50,	/* st7565 datasheet, table 26, tcss */
 732:..\u8g2\csrc/u8x8_d_st7565.c ****   /* reset_pulse_width_ms = */ 1, 
 733:..\u8g2\csrc/u8x8_d_st7565.c ****   /* post_reset_wait_ms = */ 1, 
 734:..\u8g2\csrc/u8x8_d_st7565.c ****   /* sda_setup_time_ns = */ 50,		/* st7565 datasheet, table 26, tsds */
 735:..\u8g2\csrc/u8x8_d_st7565.c ****   /* sck_pulse_width_ns = */ 120,	/* half of cycle time (100ns according to datasheet), AVR: below 
 736:..\u8g2\csrc/u8x8_d_st7565.c ****   /* sck_clock_hz = */ 4000000UL,	/* since Arduino 1.6.0, the SPI bus speed in Hz. Should be  10000
 737:..\u8g2\csrc/u8x8_d_st7565.c ****   /* spi_mode = */ 0,		/* active high, rising edge */
 738:..\u8g2\csrc/u8x8_d_st7565.c ****   /* i2c_bus_clock_100kHz = */ 4,
 739:..\u8g2\csrc/u8x8_d_st7565.c ****   /* data_setup_time_ns = */ 40,	/* st7565 datasheet, table 24, tds8 */
 740:..\u8g2\csrc/u8x8_d_st7565.c ****   /* write_pulse_width_ns = */ 80,	/* st7565 datasheet, table 24, tcclw */
 741:..\u8g2\csrc/u8x8_d_st7565.c ****   /* tile_width = */ 16,		/* width of 16*8=128 pixel */
 742:..\u8g2\csrc/u8x8_d_st7565.c ****   /* tile_hight = */ 8,
 743:..\u8g2\csrc/u8x8_d_st7565.c ****   /* default_x_offset = */ 1,	/* not sure... */
 744:..\u8g2\csrc/u8x8_d_st7565.c ****   /* flipmode_x_offset = */ 3,
 745:..\u8g2\csrc/u8x8_d_st7565.c ****   /* pixel_width = */ 128,
 746:..\u8g2\csrc/u8x8_d_st7565.c ****   /* pixel_height = */ 64
 747:..\u8g2\csrc/u8x8_d_st7565.c **** };
 748:..\u8g2\csrc/u8x8_d_st7565.c **** 
 749:..\u8g2\csrc/u8x8_d_st7565.c **** uint8_t u8x8_d_st7565_lm6059(u8x8_t *u8x8, uint8_t msg, uint8_t arg_int, void *arg_ptr)
 750:..\u8g2\csrc/u8x8_d_st7565.c **** {
 833              		.loc 1 750 0
 834              		.cfi_startproc
 835              		@ args = 0, pretend = 0, frame = 0
 836              		@ frame_needed = 0, uses_anonymous_args = 0
 837              	.LVL82:
 838 0000 70B5     		push	{r4, r5, r6, lr}
 839              		.cfi_def_cfa_offset 16
ARM GAS  C:\Users\brian\AppData\Local\Temp\cc1Lhyrd.s 			page 30


 840              		.cfi_offset 4, -16
 841              		.cfi_offset 5, -12
 842              		.cfi_offset 6, -8
 843              		.cfi_offset 14, -4
 844 0002 0546     		mov	r5, r0
 845 0004 0C46     		mov	r4, r1
 846 0006 1646     		mov	r6, r2
 751:..\u8g2\csrc/u8x8_d_st7565.c ****   /* call common procedure first and handle messages there */
 752:..\u8g2\csrc/u8x8_d_st7565.c ****   if ( u8x8_d_st7565_common(u8x8, msg, arg_int, arg_ptr) == 0 )
 847              		.loc 1 752 0
 848 0008 FFF7FEFF 		bl	u8x8_d_st7565_common
 849              	.LVL83:
 850 000c 50BB     		cbnz	r0, .L82
 851 000e 0346     		mov	r3, r0
 753:..\u8g2\csrc/u8x8_d_st7565.c ****   {
 754:..\u8g2\csrc/u8x8_d_st7565.c ****     /* msg not handled, then try here */
 755:..\u8g2\csrc/u8x8_d_st7565.c ****     switch(msg)
 852              		.loc 1 755 0
 853 0010 0A2C     		cmp	r4, #10
 854 0012 09D0     		beq	.L78
 855 0014 0D2C     		cmp	r4, #13
 856 0016 10D0     		beq	.L79
 857 0018 092C     		cmp	r4, #9
 858 001a 24D1     		bne	.L77
 756:..\u8g2\csrc/u8x8_d_st7565.c ****     {
 757:..\u8g2\csrc/u8x8_d_st7565.c ****       case U8X8_MSG_DISPLAY_SETUP_MEMORY:
 758:..\u8g2\csrc/u8x8_d_st7565.c **** 	u8x8_d_helper_display_setup_memory(u8x8, &u8x8_st7565_lm6059_display_info);
 859              		.loc 1 758 0
 860 001c 1349     		ldr	r1, .L84
 861 001e 2846     		mov	r0, r5
 862 0020 FFF7FEFF 		bl	u8x8_d_helper_display_setup_memory
 863              	.LVL84:
 759:..\u8g2\csrc/u8x8_d_st7565.c **** 	break;
 760:..\u8g2\csrc/u8x8_d_st7565.c ****       case U8X8_MSG_DISPLAY_INIT:
 761:..\u8g2\csrc/u8x8_d_st7565.c **** 	u8x8_d_helper_display_init(u8x8);
 762:..\u8g2\csrc/u8x8_d_st7565.c **** 	u8x8_cad_SendSequence(u8x8, u8x8_d_st7565_lm6059_init_seq);
 763:..\u8g2\csrc/u8x8_d_st7565.c **** 	break;
 764:..\u8g2\csrc/u8x8_d_st7565.c ****       case U8X8_MSG_DISPLAY_SET_FLIP_MODE:
 765:..\u8g2\csrc/u8x8_d_st7565.c **** 	if ( arg_int == 0 )
 766:..\u8g2\csrc/u8x8_d_st7565.c **** 	{
 767:..\u8g2\csrc/u8x8_d_st7565.c **** 	  u8x8_cad_SendSequence(u8x8, u8x8_d_st7565_flip1_seq);
 768:..\u8g2\csrc/u8x8_d_st7565.c **** 	  u8x8->x_offset = u8x8->display_info->default_x_offset;
 769:..\u8g2\csrc/u8x8_d_st7565.c **** 	}
 770:..\u8g2\csrc/u8x8_d_st7565.c **** 	else
 771:..\u8g2\csrc/u8x8_d_st7565.c **** 	{
 772:..\u8g2\csrc/u8x8_d_st7565.c **** 	  u8x8_cad_SendSequence(u8x8, u8x8_d_st7565_flip0_seq);
 773:..\u8g2\csrc/u8x8_d_st7565.c **** 	  u8x8->x_offset = u8x8->display_info->flipmode_x_offset;
 774:..\u8g2\csrc/u8x8_d_st7565.c **** 	}	
 775:..\u8g2\csrc/u8x8_d_st7565.c **** 	break;
 776:..\u8g2\csrc/u8x8_d_st7565.c ****       default:
 777:..\u8g2\csrc/u8x8_d_st7565.c **** 	return 0;		/* msg unknown */
 778:..\u8g2\csrc/u8x8_d_st7565.c ****     }
 779:..\u8g2\csrc/u8x8_d_st7565.c ****   }
 780:..\u8g2\csrc/u8x8_d_st7565.c ****   return 1;
 864              		.loc 1 780 0
 865 0024 0123     		movs	r3, #1
 759:..\u8g2\csrc/u8x8_d_st7565.c **** 	break;
ARM GAS  C:\Users\brian\AppData\Local\Temp\cc1Lhyrd.s 			page 31


 866              		.loc 1 759 0
 867 0026 1EE0     		b	.L77
 868              	.L78:
 761:..\u8g2\csrc/u8x8_d_st7565.c **** 	u8x8_cad_SendSequence(u8x8, u8x8_d_st7565_lm6059_init_seq);
 869              		.loc 1 761 0
 870 0028 2846     		mov	r0, r5
 871 002a FFF7FEFF 		bl	u8x8_d_helper_display_init
 872              	.LVL85:
 762:..\u8g2\csrc/u8x8_d_st7565.c **** 	break;
 873              		.loc 1 762 0
 874 002e 1049     		ldr	r1, .L84+4
 875 0030 2846     		mov	r0, r5
 876 0032 FFF7FEFF 		bl	u8x8_cad_SendSequence
 877              	.LVL86:
 878              		.loc 1 780 0
 879 0036 0123     		movs	r3, #1
 763:..\u8g2\csrc/u8x8_d_st7565.c ****       case U8X8_MSG_DISPLAY_SET_FLIP_MODE:
 880              		.loc 1 763 0
 881 0038 15E0     		b	.L77
 882              	.L79:
 765:..\u8g2\csrc/u8x8_d_st7565.c **** 	{
 883              		.loc 1 765 0
 884 003a 4EB9     		cbnz	r6, .L81
 767:..\u8g2\csrc/u8x8_d_st7565.c **** 	  u8x8->x_offset = u8x8->display_info->default_x_offset;
 885              		.loc 1 767 0
 886 003c 0D49     		ldr	r1, .L84+8
 887 003e 2846     		mov	r0, r5
 888 0040 FFF7FEFF 		bl	u8x8_cad_SendSequence
 889              	.LVL87:
 768:..\u8g2\csrc/u8x8_d_st7565.c **** 	}
 890              		.loc 1 768 0
 891 0044 2B68     		ldr	r3, [r5]
 892 0046 9B7C     		ldrb	r3, [r3, #18]	@ zero_extendqisi2
 893 0048 85F82230 		strb	r3, [r5, #34]
 894              		.loc 1 780 0
 895 004c 0123     		movs	r3, #1
 896 004e 0AE0     		b	.L77
 897              	.L81:
 772:..\u8g2\csrc/u8x8_d_st7565.c **** 	  u8x8->x_offset = u8x8->display_info->flipmode_x_offset;
 898              		.loc 1 772 0
 899 0050 0949     		ldr	r1, .L84+12
 900 0052 2846     		mov	r0, r5
 901 0054 FFF7FEFF 		bl	u8x8_cad_SendSequence
 902              	.LVL88:
 773:..\u8g2\csrc/u8x8_d_st7565.c **** 	}	
 903              		.loc 1 773 0
 904 0058 2B68     		ldr	r3, [r5]
 905 005a DB7C     		ldrb	r3, [r3, #19]	@ zero_extendqisi2
 906 005c 85F82230 		strb	r3, [r5, #34]
 907              		.loc 1 780 0
 908 0060 0123     		movs	r3, #1
 909 0062 00E0     		b	.L77
 910              	.L82:
 911 0064 0123     		movs	r3, #1
 912              	.L77:
 781:..\u8g2\csrc/u8x8_d_st7565.c **** }
 913              		.loc 1 781 0
ARM GAS  C:\Users\brian\AppData\Local\Temp\cc1Lhyrd.s 			page 32


 914 0066 1846     		mov	r0, r3
 915 0068 70BD     		pop	{r4, r5, r6, pc}
 916              	.LVL89:
 917              	.L85:
 918 006a 00BF     		.align	2
 919              	.L84:
 920 006c 64010000 		.word	.LANCHOR0+356
 921 0070 7C010000 		.word	.LANCHOR0+380
 922 0074 54000000 		.word	.LANCHOR0+84
 923 0078 4C000000 		.word	.LANCHOR0+76
 924              		.cfi_endproc
 925              	.LFE8:
 926              		.size	u8x8_d_st7565_lm6059, .-u8x8_d_st7565_lm6059
 927              		.section	.text.u8x8_d_st7565_ks0713,"ax",%progbits
 928              		.align	2
 929              		.global	u8x8_d_st7565_ks0713
 930              		.thumb
 931              		.thumb_func
 932              		.type	u8x8_d_st7565_ks0713, %function
 933              	u8x8_d_st7565_ks0713:
 934              	.LFB9:
 782:..\u8g2\csrc/u8x8_d_st7565.c **** 
 783:..\u8g2\csrc/u8x8_d_st7565.c **** /*================================================*/
 784:..\u8g2\csrc/u8x8_d_st7565.c **** /* https://github.com/olikraus/u8g2/issues/1314 */
 785:..\u8g2\csrc/u8x8_d_st7565.c **** /* KS0713 controller, takeover from LM6059 */
 786:..\u8g2\csrc/u8x8_d_st7565.c **** 
 787:..\u8g2\csrc/u8x8_d_st7565.c **** static const uint8_t u8x8_d_st7565_ks0713_init_seq[] = {
 788:..\u8g2\csrc/u8x8_d_st7565.c ****     
 789:..\u8g2\csrc/u8x8_d_st7565.c ****   U8X8_START_TRANSFER(),             /* enable chip, delay is part of the transfer start */
 790:..\u8g2\csrc/u8x8_d_st7565.c ****   U8X8_C(0x0ae),		                /* display off */
 791:..\u8g2\csrc/u8x8_d_st7565.c ****   U8X8_C(0x0e2),            			 /* soft reset */
 792:..\u8g2\csrc/u8x8_d_st7565.c ****   U8X8_C(0x0a3),		                /* LCD bias 1/9 */
 793:..\u8g2\csrc/u8x8_d_st7565.c ****   U8X8_C(0x0a0),		                /* ADC set to reverse */
 794:..\u8g2\csrc/u8x8_d_st7565.c ****   U8X8_C(0x0c0),		                /* common output mode */
 795:..\u8g2\csrc/u8x8_d_st7565.c ****   U8X8_C(0x02f),		                /* all power  control circuits on (regulator, booster and followe
 796:..\u8g2\csrc/u8x8_d_st7565.c ****   U8X8_C(0x026),		                /* set V0 voltage resistor ratio to max  */
 797:..\u8g2\csrc/u8x8_d_st7565.c ****   U8X8_C(0x0a6),		                /* display normal, bit val 0: LCD pixel off. */
 798:..\u8g2\csrc/u8x8_d_st7565.c ****   U8X8_CA(0x081, 0x010),		       /* set contrast, contrast value, EA default: 0x016 */
 799:..\u8g2\csrc/u8x8_d_st7565.c ****   U8X8_C(0x0af),		                /* display on */
 800:..\u8g2\csrc/u8x8_d_st7565.c ****   U8X8_END_TRANSFER(),             	/* disable chip */
 801:..\u8g2\csrc/u8x8_d_st7565.c ****   U8X8_END()             			/* end of sequence */
 802:..\u8g2\csrc/u8x8_d_st7565.c **** };
 803:..\u8g2\csrc/u8x8_d_st7565.c **** 
 804:..\u8g2\csrc/u8x8_d_st7565.c **** uint8_t u8x8_d_st7565_ks0713(u8x8_t *u8x8, uint8_t msg, uint8_t arg_int, void *arg_ptr)
 805:..\u8g2\csrc/u8x8_d_st7565.c **** {
 935              		.loc 1 805 0
 936              		.cfi_startproc
 937              		@ args = 0, pretend = 0, frame = 0
 938              		@ frame_needed = 0, uses_anonymous_args = 0
 939              	.LVL90:
 940 0000 70B5     		push	{r4, r5, r6, lr}
 941              		.cfi_def_cfa_offset 16
 942              		.cfi_offset 4, -16
 943              		.cfi_offset 5, -12
 944              		.cfi_offset 6, -8
 945              		.cfi_offset 14, -4
 946 0002 0546     		mov	r5, r0
ARM GAS  C:\Users\brian\AppData\Local\Temp\cc1Lhyrd.s 			page 33


 947 0004 0C46     		mov	r4, r1
 948 0006 1646     		mov	r6, r2
 806:..\u8g2\csrc/u8x8_d_st7565.c ****   /* call common procedure first and handle messages there */
 807:..\u8g2\csrc/u8x8_d_st7565.c ****   if ( u8x8_d_st7565_common(u8x8, msg, arg_int, arg_ptr) == 0 )
 949              		.loc 1 807 0
 950 0008 FFF7FEFF 		bl	u8x8_d_st7565_common
 951              	.LVL91:
 952 000c 50BB     		cbnz	r0, .L92
 953 000e 0346     		mov	r3, r0
 808:..\u8g2\csrc/u8x8_d_st7565.c ****   {
 809:..\u8g2\csrc/u8x8_d_st7565.c ****     /* msg not handled, then try here */
 810:..\u8g2\csrc/u8x8_d_st7565.c ****     switch(msg)
 954              		.loc 1 810 0
 955 0010 0A2C     		cmp	r4, #10
 956 0012 09D0     		beq	.L88
 957 0014 0D2C     		cmp	r4, #13
 958 0016 10D0     		beq	.L89
 959 0018 092C     		cmp	r4, #9
 960 001a 24D1     		bne	.L87
 811:..\u8g2\csrc/u8x8_d_st7565.c ****     {
 812:..\u8g2\csrc/u8x8_d_st7565.c ****       case U8X8_MSG_DISPLAY_SETUP_MEMORY:
 813:..\u8g2\csrc/u8x8_d_st7565.c **** 	u8x8_d_helper_display_setup_memory(u8x8, &u8x8_st7565_lm6059_display_info);
 961              		.loc 1 813 0
 962 001c 1349     		ldr	r1, .L94
 963 001e 2846     		mov	r0, r5
 964 0020 FFF7FEFF 		bl	u8x8_d_helper_display_setup_memory
 965              	.LVL92:
 814:..\u8g2\csrc/u8x8_d_st7565.c **** 	break;
 815:..\u8g2\csrc/u8x8_d_st7565.c ****       case U8X8_MSG_DISPLAY_INIT:
 816:..\u8g2\csrc/u8x8_d_st7565.c **** 	u8x8_d_helper_display_init(u8x8);
 817:..\u8g2\csrc/u8x8_d_st7565.c **** 	u8x8_cad_SendSequence(u8x8, u8x8_d_st7565_ks0713_init_seq);
 818:..\u8g2\csrc/u8x8_d_st7565.c **** 	break;
 819:..\u8g2\csrc/u8x8_d_st7565.c ****       case U8X8_MSG_DISPLAY_SET_FLIP_MODE:
 820:..\u8g2\csrc/u8x8_d_st7565.c **** 	if ( arg_int == 0 )
 821:..\u8g2\csrc/u8x8_d_st7565.c **** 	{
 822:..\u8g2\csrc/u8x8_d_st7565.c **** 	  u8x8_cad_SendSequence(u8x8, u8x8_d_st7565_flip1_seq);
 823:..\u8g2\csrc/u8x8_d_st7565.c **** 	  u8x8->x_offset = u8x8->display_info->default_x_offset;
 824:..\u8g2\csrc/u8x8_d_st7565.c **** 	}
 825:..\u8g2\csrc/u8x8_d_st7565.c **** 	else
 826:..\u8g2\csrc/u8x8_d_st7565.c **** 	{
 827:..\u8g2\csrc/u8x8_d_st7565.c **** 	  u8x8_cad_SendSequence(u8x8, u8x8_d_st7565_flip0_seq);
 828:..\u8g2\csrc/u8x8_d_st7565.c **** 	  u8x8->x_offset = u8x8->display_info->flipmode_x_offset;
 829:..\u8g2\csrc/u8x8_d_st7565.c **** 	}	
 830:..\u8g2\csrc/u8x8_d_st7565.c **** 	break;
 831:..\u8g2\csrc/u8x8_d_st7565.c ****       default:
 832:..\u8g2\csrc/u8x8_d_st7565.c **** 	return 0;		/* msg unknown */
 833:..\u8g2\csrc/u8x8_d_st7565.c ****     }
 834:..\u8g2\csrc/u8x8_d_st7565.c ****   }
 835:..\u8g2\csrc/u8x8_d_st7565.c ****   return 1;
 966              		.loc 1 835 0
 967 0024 0123     		movs	r3, #1
 814:..\u8g2\csrc/u8x8_d_st7565.c **** 	break;
 968              		.loc 1 814 0
 969 0026 1EE0     		b	.L87
 970              	.L88:
 816:..\u8g2\csrc/u8x8_d_st7565.c **** 	u8x8_cad_SendSequence(u8x8, u8x8_d_st7565_ks0713_init_seq);
 971              		.loc 1 816 0
ARM GAS  C:\Users\brian\AppData\Local\Temp\cc1Lhyrd.s 			page 34


 972 0028 2846     		mov	r0, r5
 973 002a FFF7FEFF 		bl	u8x8_d_helper_display_init
 974              	.LVL93:
 817:..\u8g2\csrc/u8x8_d_st7565.c **** 	break;
 975              		.loc 1 817 0
 976 002e 1049     		ldr	r1, .L94+4
 977 0030 2846     		mov	r0, r5
 978 0032 FFF7FEFF 		bl	u8x8_cad_SendSequence
 979              	.LVL94:
 980              		.loc 1 835 0
 981 0036 0123     		movs	r3, #1
 818:..\u8g2\csrc/u8x8_d_st7565.c ****       case U8X8_MSG_DISPLAY_SET_FLIP_MODE:
 982              		.loc 1 818 0
 983 0038 15E0     		b	.L87
 984              	.L89:
 820:..\u8g2\csrc/u8x8_d_st7565.c **** 	{
 985              		.loc 1 820 0
 986 003a 4EB9     		cbnz	r6, .L91
 822:..\u8g2\csrc/u8x8_d_st7565.c **** 	  u8x8->x_offset = u8x8->display_info->default_x_offset;
 987              		.loc 1 822 0
 988 003c 0D49     		ldr	r1, .L94+8
 989 003e 2846     		mov	r0, r5
 990 0040 FFF7FEFF 		bl	u8x8_cad_SendSequence
 991              	.LVL95:
 823:..\u8g2\csrc/u8x8_d_st7565.c **** 	}
 992              		.loc 1 823 0
 993 0044 2B68     		ldr	r3, [r5]
 994 0046 9B7C     		ldrb	r3, [r3, #18]	@ zero_extendqisi2
 995 0048 85F82230 		strb	r3, [r5, #34]
 996              		.loc 1 835 0
 997 004c 0123     		movs	r3, #1
 998 004e 0AE0     		b	.L87
 999              	.L91:
 827:..\u8g2\csrc/u8x8_d_st7565.c **** 	  u8x8->x_offset = u8x8->display_info->flipmode_x_offset;
 1000              		.loc 1 827 0
 1001 0050 0949     		ldr	r1, .L94+12
 1002 0052 2846     		mov	r0, r5
 1003 0054 FFF7FEFF 		bl	u8x8_cad_SendSequence
 1004              	.LVL96:
 828:..\u8g2\csrc/u8x8_d_st7565.c **** 	}	
 1005              		.loc 1 828 0
 1006 0058 2B68     		ldr	r3, [r5]
 1007 005a DB7C     		ldrb	r3, [r3, #19]	@ zero_extendqisi2
 1008 005c 85F82230 		strb	r3, [r5, #34]
 1009              		.loc 1 835 0
 1010 0060 0123     		movs	r3, #1
 1011 0062 00E0     		b	.L87
 1012              	.L92:
 1013 0064 0123     		movs	r3, #1
 1014              	.L87:
 836:..\u8g2\csrc/u8x8_d_st7565.c **** }
 1015              		.loc 1 836 0
 1016 0066 1846     		mov	r0, r3
 1017 0068 70BD     		pop	{r4, r5, r6, pc}
 1018              	.LVL97:
 1019              	.L95:
 1020 006a 00BF     		.align	2
ARM GAS  C:\Users\brian\AppData\Local\Temp\cc1Lhyrd.s 			page 35


 1021              	.L94:
 1022 006c 64010000 		.word	.LANCHOR0+356
 1023 0070 A0010000 		.word	.LANCHOR0+416
 1024 0074 54000000 		.word	.LANCHOR0+84
 1025 0078 4C000000 		.word	.LANCHOR0+76
 1026              		.cfi_endproc
 1027              	.LFE9:
 1028              		.size	u8x8_d_st7565_ks0713, .-u8x8_d_st7565_ks0713
 1029              		.section	.text.u8x8_d_st7565_lx12864,"ax",%progbits
 1030              		.align	2
 1031              		.global	u8x8_d_st7565_lx12864
 1032              		.thumb
 1033              		.thumb_func
 1034              		.type	u8x8_d_st7565_lx12864, %function
 1035              	u8x8_d_st7565_lx12864:
 1036              	.LFB10:
 837:..\u8g2\csrc/u8x8_d_st7565.c **** 
 838:..\u8g2\csrc/u8x8_d_st7565.c **** 
 839:..\u8g2\csrc/u8x8_d_st7565.c **** /*================================================*/
 840:..\u8g2\csrc/u8x8_d_st7565.c **** /* LX12864 issue 576 */
 841:..\u8g2\csrc/u8x8_d_st7565.c **** 
 842:..\u8g2\csrc/u8x8_d_st7565.c **** static const uint8_t u8x8_d_st7565_lx12864_init_seq[] = {
 843:..\u8g2\csrc/u8x8_d_st7565.c ****     
 844:..\u8g2\csrc/u8x8_d_st7565.c ****   U8X8_START_TRANSFER(),             	/* enable chip, delay is part of the transfer start */
 845:..\u8g2\csrc/u8x8_d_st7565.c ****   
 846:..\u8g2\csrc/u8x8_d_st7565.c ****   U8X8_C(0x0e2),            			/* soft reset */
 847:..\u8g2\csrc/u8x8_d_st7565.c ****   U8X8_C(0x0ae),		                /* display off */
 848:..\u8g2\csrc/u8x8_d_st7565.c ****   U8X8_C(0x060),		                /* set display start line to ... */
 849:..\u8g2\csrc/u8x8_d_st7565.c ****   
 850:..\u8g2\csrc/u8x8_d_st7565.c ****   U8X8_C(0x0a0),		                /* ADC set to reverse */
 851:..\u8g2\csrc/u8x8_d_st7565.c ****   U8X8_C(0x0c8),		                /* common output mode */
 852:..\u8g2\csrc/u8x8_d_st7565.c ****   //U8X8_C(0x0a1),		                /* ADC set to reverse */
 853:..\u8g2\csrc/u8x8_d_st7565.c ****   //U8X8_C(0x0c0),		                /* common output mode */
 854:..\u8g2\csrc/u8x8_d_st7565.c ****   // Flipmode
 855:..\u8g2\csrc/u8x8_d_st7565.c ****   // U8X8_C(0x0a0),		                /* ADC set to reverse */
 856:..\u8g2\csrc/u8x8_d_st7565.c ****   // U8X8_C(0x0c8),		                /* common output mode */
 857:..\u8g2\csrc/u8x8_d_st7565.c ****   
 858:..\u8g2\csrc/u8x8_d_st7565.c ****   U8X8_C(0x0a6),		                /* display normal, bit val 0: LCD pixel off. */
 859:..\u8g2\csrc/u8x8_d_st7565.c ****   U8X8_C(0x0a2),		                /* LCD bias 1/9 */
 860:..\u8g2\csrc/u8x8_d_st7565.c ****   U8X8_C(0x02f),		                /* all power  control circuits on (regulator, booster and followe
 861:..\u8g2\csrc/u8x8_d_st7565.c ****   U8X8_CA(0x0f8, 0x000),		/* set booster ratio to 4x (ST7567 feature) */
 862:..\u8g2\csrc/u8x8_d_st7565.c ****   U8X8_C(0x027),		                /* set V0 voltage resistor ratio to max  */
 863:..\u8g2\csrc/u8x8_d_st7565.c ****   U8X8_CA(0x081, 0x008),		/* set contrast, contrast value */
 864:..\u8g2\csrc/u8x8_d_st7565.c ****   
 865:..\u8g2\csrc/u8x8_d_st7565.c ****   U8X8_C(0x0ae),		                /* display off */
 866:..\u8g2\csrc/u8x8_d_st7565.c ****   U8X8_C(0x0a5),		                /* enter powersafe: all pixel on, issue 142 */
 867:..\u8g2\csrc/u8x8_d_st7565.c ****   
 868:..\u8g2\csrc/u8x8_d_st7565.c ****   U8X8_END_TRANSFER(),             	/* disable chip */
 869:..\u8g2\csrc/u8x8_d_st7565.c ****   U8X8_END()             			/* end of sequence */
 870:..\u8g2\csrc/u8x8_d_st7565.c **** };
 871:..\u8g2\csrc/u8x8_d_st7565.c **** 
 872:..\u8g2\csrc/u8x8_d_st7565.c **** static const u8x8_display_info_t u8x8_st7565_lx12864_display_info =
 873:..\u8g2\csrc/u8x8_d_st7565.c **** {
 874:..\u8g2\csrc/u8x8_d_st7565.c ****   /* chip_enable_level = */ 0,
 875:..\u8g2\csrc/u8x8_d_st7565.c ****   /* chip_disable_level = */ 1,
 876:..\u8g2\csrc/u8x8_d_st7565.c ****   
 877:..\u8g2\csrc/u8x8_d_st7565.c ****   /* post_chip_enable_wait_ns = */ 150,	/* st7565 datasheet, table 26, tcsh */
ARM GAS  C:\Users\brian\AppData\Local\Temp\cc1Lhyrd.s 			page 36


 878:..\u8g2\csrc/u8x8_d_st7565.c ****   /* pre_chip_disable_wait_ns = */ 50,	/* st7565 datasheet, table 26, tcss */
 879:..\u8g2\csrc/u8x8_d_st7565.c ****   /* reset_pulse_width_ms = */ 1, 
 880:..\u8g2\csrc/u8x8_d_st7565.c ****   /* post_reset_wait_ms = */ 1, 
 881:..\u8g2\csrc/u8x8_d_st7565.c ****   /* sda_setup_time_ns = */ 50,		/* st7565 datasheet, table 26, tsds */
 882:..\u8g2\csrc/u8x8_d_st7565.c ****   /* sck_pulse_width_ns = */ 120,	/* half of cycle time (100ns according to datasheet), AVR: below 
 883:..\u8g2\csrc/u8x8_d_st7565.c ****   /* sck_clock_hz = */ 4000000UL,	/* since Arduino 1.6.0, the SPI bus speed in Hz. Should be  10000
 884:..\u8g2\csrc/u8x8_d_st7565.c ****   /* spi_mode = */ 0,		/* active high, rising edge */
 885:..\u8g2\csrc/u8x8_d_st7565.c ****   /* i2c_bus_clock_100kHz = */ 4,
 886:..\u8g2\csrc/u8x8_d_st7565.c ****   /* data_setup_time_ns = */ 40,	/* st7565 datasheet, table 24, tds8 */
 887:..\u8g2\csrc/u8x8_d_st7565.c ****   /* write_pulse_width_ns = */ 80,	/* st7565 datasheet, table 24, tcclw */
 888:..\u8g2\csrc/u8x8_d_st7565.c ****   /* tile_width = */ 16,		/* width of 16*8=128 pixel */
 889:..\u8g2\csrc/u8x8_d_st7565.c ****   /* tile_hight = */ 8,
 890:..\u8g2\csrc/u8x8_d_st7565.c ****   /* default_x_offset = */ 1,	/* not sure... */
 891:..\u8g2\csrc/u8x8_d_st7565.c ****   /* flipmode_x_offset = */ 3,
 892:..\u8g2\csrc/u8x8_d_st7565.c ****   /* pixel_width = */ 128,
 893:..\u8g2\csrc/u8x8_d_st7565.c ****   /* pixel_height = */ 64
 894:..\u8g2\csrc/u8x8_d_st7565.c **** };
 895:..\u8g2\csrc/u8x8_d_st7565.c **** 
 896:..\u8g2\csrc/u8x8_d_st7565.c **** uint8_t u8x8_d_st7565_lx12864(u8x8_t *u8x8, uint8_t msg, uint8_t arg_int, void *arg_ptr)
 897:..\u8g2\csrc/u8x8_d_st7565.c **** {
 1037              		.loc 1 897 0
 1038              		.cfi_startproc
 1039              		@ args = 0, pretend = 0, frame = 0
 1040              		@ frame_needed = 0, uses_anonymous_args = 0
 1041              	.LVL98:
 1042 0000 70B5     		push	{r4, r5, r6, lr}
 1043              		.cfi_def_cfa_offset 16
 1044              		.cfi_offset 4, -16
 1045              		.cfi_offset 5, -12
 1046              		.cfi_offset 6, -8
 1047              		.cfi_offset 14, -4
 1048 0002 0546     		mov	r5, r0
 1049 0004 0C46     		mov	r4, r1
 1050 0006 1646     		mov	r6, r2
 898:..\u8g2\csrc/u8x8_d_st7565.c ****   /* call common procedure first and handle messages there */
 899:..\u8g2\csrc/u8x8_d_st7565.c ****   if ( u8x8_d_st7565_common(u8x8, msg, arg_int, arg_ptr) == 0 )
 1051              		.loc 1 899 0
 1052 0008 FFF7FEFF 		bl	u8x8_d_st7565_common
 1053              	.LVL99:
 1054 000c 50BB     		cbnz	r0, .L102
 1055 000e 0346     		mov	r3, r0
 900:..\u8g2\csrc/u8x8_d_st7565.c ****   {
 901:..\u8g2\csrc/u8x8_d_st7565.c ****     /* msg not handled, then try here */
 902:..\u8g2\csrc/u8x8_d_st7565.c ****     switch(msg)
 1056              		.loc 1 902 0
 1057 0010 0A2C     		cmp	r4, #10
 1058 0012 09D0     		beq	.L98
 1059 0014 0D2C     		cmp	r4, #13
 1060 0016 10D0     		beq	.L99
 1061 0018 092C     		cmp	r4, #9
 1062 001a 24D1     		bne	.L97
 903:..\u8g2\csrc/u8x8_d_st7565.c ****     {
 904:..\u8g2\csrc/u8x8_d_st7565.c ****       case U8X8_MSG_DISPLAY_SETUP_MEMORY:
 905:..\u8g2\csrc/u8x8_d_st7565.c **** 	u8x8_d_helper_display_setup_memory(u8x8, &u8x8_st7565_lx12864_display_info);
 1063              		.loc 1 905 0
 1064 001c 1349     		ldr	r1, .L104
 1065 001e 2846     		mov	r0, r5
ARM GAS  C:\Users\brian\AppData\Local\Temp\cc1Lhyrd.s 			page 37


 1066 0020 FFF7FEFF 		bl	u8x8_d_helper_display_setup_memory
 1067              	.LVL100:
 906:..\u8g2\csrc/u8x8_d_st7565.c **** 	break;
 907:..\u8g2\csrc/u8x8_d_st7565.c ****       case U8X8_MSG_DISPLAY_INIT:
 908:..\u8g2\csrc/u8x8_d_st7565.c **** 	u8x8_d_helper_display_init(u8x8);
 909:..\u8g2\csrc/u8x8_d_st7565.c **** 	u8x8_cad_SendSequence(u8x8, u8x8_d_st7565_lx12864_init_seq);
 910:..\u8g2\csrc/u8x8_d_st7565.c **** 	break;
 911:..\u8g2\csrc/u8x8_d_st7565.c ****       case U8X8_MSG_DISPLAY_SET_FLIP_MODE:
 912:..\u8g2\csrc/u8x8_d_st7565.c **** 	if ( arg_int == 0 )
 913:..\u8g2\csrc/u8x8_d_st7565.c **** 	{
 914:..\u8g2\csrc/u8x8_d_st7565.c **** 	  u8x8_cad_SendSequence(u8x8, u8x8_d_st7565_flip1_seq);
 915:..\u8g2\csrc/u8x8_d_st7565.c **** 	  u8x8->x_offset = u8x8->display_info->default_x_offset;
 916:..\u8g2\csrc/u8x8_d_st7565.c **** 	}
 917:..\u8g2\csrc/u8x8_d_st7565.c **** 	else
 918:..\u8g2\csrc/u8x8_d_st7565.c **** 	{
 919:..\u8g2\csrc/u8x8_d_st7565.c **** 	  u8x8_cad_SendSequence(u8x8, u8x8_d_st7565_flip0_seq);
 920:..\u8g2\csrc/u8x8_d_st7565.c **** 	  u8x8->x_offset = u8x8->display_info->flipmode_x_offset;
 921:..\u8g2\csrc/u8x8_d_st7565.c **** 	}	
 922:..\u8g2\csrc/u8x8_d_st7565.c **** 	break;
 923:..\u8g2\csrc/u8x8_d_st7565.c ****       default:
 924:..\u8g2\csrc/u8x8_d_st7565.c **** 	return 0;		/* msg unknown */
 925:..\u8g2\csrc/u8x8_d_st7565.c ****     }
 926:..\u8g2\csrc/u8x8_d_st7565.c ****   }
 927:..\u8g2\csrc/u8x8_d_st7565.c ****   return 1;
 1068              		.loc 1 927 0
 1069 0024 0123     		movs	r3, #1
 906:..\u8g2\csrc/u8x8_d_st7565.c **** 	break;
 1070              		.loc 1 906 0
 1071 0026 1EE0     		b	.L97
 1072              	.L98:
 908:..\u8g2\csrc/u8x8_d_st7565.c **** 	u8x8_cad_SendSequence(u8x8, u8x8_d_st7565_lx12864_init_seq);
 1073              		.loc 1 908 0
 1074 0028 2846     		mov	r0, r5
 1075 002a FFF7FEFF 		bl	u8x8_d_helper_display_init
 1076              	.LVL101:
 909:..\u8g2\csrc/u8x8_d_st7565.c **** 	break;
 1077              		.loc 1 909 0
 1078 002e 1049     		ldr	r1, .L104+4
 1079 0030 2846     		mov	r0, r5
 1080 0032 FFF7FEFF 		bl	u8x8_cad_SendSequence
 1081              	.LVL102:
 1082              		.loc 1 927 0
 1083 0036 0123     		movs	r3, #1
 910:..\u8g2\csrc/u8x8_d_st7565.c ****       case U8X8_MSG_DISPLAY_SET_FLIP_MODE:
 1084              		.loc 1 910 0
 1085 0038 15E0     		b	.L97
 1086              	.L99:
 912:..\u8g2\csrc/u8x8_d_st7565.c **** 	{
 1087              		.loc 1 912 0
 1088 003a 4EB9     		cbnz	r6, .L101
 914:..\u8g2\csrc/u8x8_d_st7565.c **** 	  u8x8->x_offset = u8x8->display_info->default_x_offset;
 1089              		.loc 1 914 0
 1090 003c 0D49     		ldr	r1, .L104+8
 1091 003e 2846     		mov	r0, r5
 1092 0040 FFF7FEFF 		bl	u8x8_cad_SendSequence
 1093              	.LVL103:
 915:..\u8g2\csrc/u8x8_d_st7565.c **** 	}
ARM GAS  C:\Users\brian\AppData\Local\Temp\cc1Lhyrd.s 			page 38


 1094              		.loc 1 915 0
 1095 0044 2B68     		ldr	r3, [r5]
 1096 0046 9B7C     		ldrb	r3, [r3, #18]	@ zero_extendqisi2
 1097 0048 85F82230 		strb	r3, [r5, #34]
 1098              		.loc 1 927 0
 1099 004c 0123     		movs	r3, #1
 1100 004e 0AE0     		b	.L97
 1101              	.L101:
 919:..\u8g2\csrc/u8x8_d_st7565.c **** 	  u8x8->x_offset = u8x8->display_info->flipmode_x_offset;
 1102              		.loc 1 919 0
 1103 0050 0949     		ldr	r1, .L104+12
 1104 0052 2846     		mov	r0, r5
 1105 0054 FFF7FEFF 		bl	u8x8_cad_SendSequence
 1106              	.LVL104:
 920:..\u8g2\csrc/u8x8_d_st7565.c **** 	}	
 1107              		.loc 1 920 0
 1108 0058 2B68     		ldr	r3, [r5]
 1109 005a DB7C     		ldrb	r3, [r3, #19]	@ zero_extendqisi2
 1110 005c 85F82230 		strb	r3, [r5, #34]
 1111              		.loc 1 927 0
 1112 0060 0123     		movs	r3, #1
 1113 0062 00E0     		b	.L97
 1114              	.L102:
 1115 0064 0123     		movs	r3, #1
 1116              	.L97:
 928:..\u8g2\csrc/u8x8_d_st7565.c **** }
 1117              		.loc 1 928 0
 1118 0066 1846     		mov	r0, r3
 1119 0068 70BD     		pop	{r4, r5, r6, pc}
 1120              	.LVL105:
 1121              	.L105:
 1122 006a 00BF     		.align	2
 1123              	.L104:
 1124 006c BC010000 		.word	.LANCHOR0+444
 1125 0070 D4010000 		.word	.LANCHOR0+468
 1126 0074 54000000 		.word	.LANCHOR0+84
 1127 0078 4C000000 		.word	.LANCHOR0+76
 1128              		.cfi_endproc
 1129              	.LFE10:
 1130              		.size	u8x8_d_st7565_lx12864, .-u8x8_d_st7565_lx12864
 1131              		.section	.text.u8x8_d_st7565_erc12864,"ax",%progbits
 1132              		.align	2
 1133              		.global	u8x8_d_st7565_erc12864
 1134              		.thumb
 1135              		.thumb_func
 1136              		.type	u8x8_d_st7565_erc12864, %function
 1137              	u8x8_d_st7565_erc12864:
 1138              	.LFB11:
 929:..\u8g2\csrc/u8x8_d_st7565.c **** 
 930:..\u8g2\csrc/u8x8_d_st7565.c **** 
 931:..\u8g2\csrc/u8x8_d_st7565.c **** /*================================================*/
 932:..\u8g2\csrc/u8x8_d_st7565.c **** /* ERC12864-1 (buydisplay.com) */
 933:..\u8g2\csrc/u8x8_d_st7565.c **** 
 934:..\u8g2\csrc/u8x8_d_st7565.c **** static const uint8_t u8x8_d_st7565_erc12864_init_seq[] = {
 935:..\u8g2\csrc/u8x8_d_st7565.c ****     
 936:..\u8g2\csrc/u8x8_d_st7565.c ****   U8X8_START_TRANSFER(),             	/* enable chip, delay is part of the transfer start */
 937:..\u8g2\csrc/u8x8_d_st7565.c ****   
ARM GAS  C:\Users\brian\AppData\Local\Temp\cc1Lhyrd.s 			page 39


 938:..\u8g2\csrc/u8x8_d_st7565.c ****   U8X8_C(0x0e2),            			/* soft reset */
 939:..\u8g2\csrc/u8x8_d_st7565.c ****   U8X8_C(0x0ae),		                /* display off */
 940:..\u8g2\csrc/u8x8_d_st7565.c ****   U8X8_C(0x040),		                /* set display start line to ... */
 941:..\u8g2\csrc/u8x8_d_st7565.c ****   
 942:..\u8g2\csrc/u8x8_d_st7565.c ****   U8X8_C(0x0a0),		                /* ADC set to reverse */
 943:..\u8g2\csrc/u8x8_d_st7565.c ****   U8X8_C(0x0c8),		                /* common output mode */
 944:..\u8g2\csrc/u8x8_d_st7565.c ****   //U8X8_C(0x0a1),		                /* ADC set to reverse */
 945:..\u8g2\csrc/u8x8_d_st7565.c ****   //U8X8_C(0x0c0),		                /* common output mode */
 946:..\u8g2\csrc/u8x8_d_st7565.c ****   // Flipmode
 947:..\u8g2\csrc/u8x8_d_st7565.c ****   // U8X8_C(0x0a0),		                /* ADC set to reverse */
 948:..\u8g2\csrc/u8x8_d_st7565.c ****   // U8X8_C(0x0c8),		                /* common output mode */
 949:..\u8g2\csrc/u8x8_d_st7565.c ****   
 950:..\u8g2\csrc/u8x8_d_st7565.c ****   U8X8_C(0x0a6),		                /* display normal, bit val 0: LCD pixel off. */
 951:..\u8g2\csrc/u8x8_d_st7565.c ****   U8X8_C(0x0a3),		                /* LCD bias 1/9 */
 952:..\u8g2\csrc/u8x8_d_st7565.c ****   U8X8_C(0x02f),		                /* all power  control circuits on (regulator, booster and followe
 953:..\u8g2\csrc/u8x8_d_st7565.c ****   U8X8_CA(0x0f8, 0x000),		/* set booster ratio to 4x (ST7567 feature)*/
 954:..\u8g2\csrc/u8x8_d_st7565.c ****   U8X8_C(0x027),		                /* set V0 voltage resistor ratio to max  */
 955:..\u8g2\csrc/u8x8_d_st7565.c ****   U8X8_CA(0x081, 0x018),		/* set contrast, contrast value, EA default: 0x016 */
 956:..\u8g2\csrc/u8x8_d_st7565.c ****   
 957:..\u8g2\csrc/u8x8_d_st7565.c ****   U8X8_C(0x0ae),		                /* display off */
 958:..\u8g2\csrc/u8x8_d_st7565.c ****   U8X8_C(0x0a5),		                /* enter powersafe: all pixel on, issue 142 */
 959:..\u8g2\csrc/u8x8_d_st7565.c ****   
 960:..\u8g2\csrc/u8x8_d_st7565.c ****   U8X8_END_TRANSFER(),             	/* disable chip */
 961:..\u8g2\csrc/u8x8_d_st7565.c ****   U8X8_END()             			/* end of sequence */
 962:..\u8g2\csrc/u8x8_d_st7565.c **** };
 963:..\u8g2\csrc/u8x8_d_st7565.c **** 
 964:..\u8g2\csrc/u8x8_d_st7565.c **** static const u8x8_display_info_t u8x8_st7565_erc12864_display_info =
 965:..\u8g2\csrc/u8x8_d_st7565.c **** {
 966:..\u8g2\csrc/u8x8_d_st7565.c ****   /* chip_enable_level = */ 0,
 967:..\u8g2\csrc/u8x8_d_st7565.c ****   /* chip_disable_level = */ 1,
 968:..\u8g2\csrc/u8x8_d_st7565.c ****   
 969:..\u8g2\csrc/u8x8_d_st7565.c ****   /* post_chip_enable_wait_ns = */ 150,	/* st7565 datasheet, table 26, tcsh */
 970:..\u8g2\csrc/u8x8_d_st7565.c ****   /* pre_chip_disable_wait_ns = */ 50,	/* st7565 datasheet, table 26, tcss */
 971:..\u8g2\csrc/u8x8_d_st7565.c ****   /* reset_pulse_width_ms = */ 1, 
 972:..\u8g2\csrc/u8x8_d_st7565.c ****   /* post_reset_wait_ms = */ 1, 
 973:..\u8g2\csrc/u8x8_d_st7565.c ****   /* sda_setup_time_ns = */ 50,		/* st7565 datasheet, table 26, tsds */
 974:..\u8g2\csrc/u8x8_d_st7565.c ****   /* sck_pulse_width_ns = */ 120,	/* half of cycle time (100ns according to datasheet), AVR: below 
 975:..\u8g2\csrc/u8x8_d_st7565.c ****   /* sck_clock_hz = */ 4000000UL,	/* since Arduino 1.6.0, the SPI bus speed in Hz. Should be  10000
 976:..\u8g2\csrc/u8x8_d_st7565.c ****   /* spi_mode = */ 0,		/* active high, rising edge */
 977:..\u8g2\csrc/u8x8_d_st7565.c ****   /* i2c_bus_clock_100kHz = */ 4,
 978:..\u8g2\csrc/u8x8_d_st7565.c ****   /* data_setup_time_ns = */ 40,	/* st7565 datasheet, table 24, tds8 */
 979:..\u8g2\csrc/u8x8_d_st7565.c ****   /* write_pulse_width_ns = */ 80,	/* st7565 datasheet, table 24, tcclw */
 980:..\u8g2\csrc/u8x8_d_st7565.c ****   /* tile_width = */ 16,		/* width of 16*8=128 pixel */
 981:..\u8g2\csrc/u8x8_d_st7565.c ****   /* tile_hight = */ 8,
 982:..\u8g2\csrc/u8x8_d_st7565.c ****   /* default_x_offset = */ 0,
 983:..\u8g2\csrc/u8x8_d_st7565.c ****   /* flipmode_x_offset = */ 4,
 984:..\u8g2\csrc/u8x8_d_st7565.c ****   /* pixel_width = */ 128,
 985:..\u8g2\csrc/u8x8_d_st7565.c ****   /* pixel_height = */ 64
 986:..\u8g2\csrc/u8x8_d_st7565.c **** };
 987:..\u8g2\csrc/u8x8_d_st7565.c **** 
 988:..\u8g2\csrc/u8x8_d_st7565.c **** uint8_t u8x8_d_st7565_erc12864(u8x8_t *u8x8, uint8_t msg, uint8_t arg_int, void *arg_ptr)
 989:..\u8g2\csrc/u8x8_d_st7565.c **** {
 1139              		.loc 1 989 0
 1140              		.cfi_startproc
 1141              		@ args = 0, pretend = 0, frame = 0
 1142              		@ frame_needed = 0, uses_anonymous_args = 0
 1143              	.LVL106:
ARM GAS  C:\Users\brian\AppData\Local\Temp\cc1Lhyrd.s 			page 40


 1144 0000 70B5     		push	{r4, r5, r6, lr}
 1145              		.cfi_def_cfa_offset 16
 1146              		.cfi_offset 4, -16
 1147              		.cfi_offset 5, -12
 1148              		.cfi_offset 6, -8
 1149              		.cfi_offset 14, -4
 1150 0002 0546     		mov	r5, r0
 1151 0004 0C46     		mov	r4, r1
 1152 0006 1646     		mov	r6, r2
 990:..\u8g2\csrc/u8x8_d_st7565.c ****   /* call common procedure first and handle messages there */
 991:..\u8g2\csrc/u8x8_d_st7565.c ****   if ( u8x8_d_st7565_common(u8x8, msg, arg_int, arg_ptr) == 0 )
 1153              		.loc 1 991 0
 1154 0008 FFF7FEFF 		bl	u8x8_d_st7565_common
 1155              	.LVL107:
 1156 000c 50BB     		cbnz	r0, .L112
 1157 000e 0346     		mov	r3, r0
 992:..\u8g2\csrc/u8x8_d_st7565.c ****   {
 993:..\u8g2\csrc/u8x8_d_st7565.c ****     /* msg not handled, then try here */
 994:..\u8g2\csrc/u8x8_d_st7565.c ****     switch(msg)
 1158              		.loc 1 994 0
 1159 0010 0A2C     		cmp	r4, #10
 1160 0012 09D0     		beq	.L108
 1161 0014 0D2C     		cmp	r4, #13
 1162 0016 10D0     		beq	.L109
 1163 0018 092C     		cmp	r4, #9
 1164 001a 24D1     		bne	.L107
 995:..\u8g2\csrc/u8x8_d_st7565.c ****     {
 996:..\u8g2\csrc/u8x8_d_st7565.c ****       case U8X8_MSG_DISPLAY_SETUP_MEMORY:
 997:..\u8g2\csrc/u8x8_d_st7565.c **** 	u8x8_d_helper_display_setup_memory(u8x8, &u8x8_st7565_erc12864_display_info);
 1165              		.loc 1 997 0
 1166 001c 1349     		ldr	r1, .L114
 1167 001e 2846     		mov	r0, r5
 1168 0020 FFF7FEFF 		bl	u8x8_d_helper_display_setup_memory
 1169              	.LVL108:
 998:..\u8g2\csrc/u8x8_d_st7565.c **** 	break;
 999:..\u8g2\csrc/u8x8_d_st7565.c ****       case U8X8_MSG_DISPLAY_INIT:
1000:..\u8g2\csrc/u8x8_d_st7565.c **** 	u8x8_d_helper_display_init(u8x8);
1001:..\u8g2\csrc/u8x8_d_st7565.c **** 	u8x8_cad_SendSequence(u8x8, u8x8_d_st7565_erc12864_init_seq);
1002:..\u8g2\csrc/u8x8_d_st7565.c **** 	break;
1003:..\u8g2\csrc/u8x8_d_st7565.c ****       case U8X8_MSG_DISPLAY_SET_FLIP_MODE:
1004:..\u8g2\csrc/u8x8_d_st7565.c **** 	if ( arg_int == 0 )
1005:..\u8g2\csrc/u8x8_d_st7565.c **** 	{
1006:..\u8g2\csrc/u8x8_d_st7565.c **** 	  u8x8_cad_SendSequence(u8x8, u8x8_d_st7565_flip1_seq);
1007:..\u8g2\csrc/u8x8_d_st7565.c **** 	  u8x8->x_offset = u8x8->display_info->default_x_offset;
1008:..\u8g2\csrc/u8x8_d_st7565.c **** 	}
1009:..\u8g2\csrc/u8x8_d_st7565.c **** 	else
1010:..\u8g2\csrc/u8x8_d_st7565.c **** 	{
1011:..\u8g2\csrc/u8x8_d_st7565.c **** 	  u8x8_cad_SendSequence(u8x8, u8x8_d_st7565_flip0_seq);
1012:..\u8g2\csrc/u8x8_d_st7565.c **** 	  u8x8->x_offset = u8x8->display_info->flipmode_x_offset;
1013:..\u8g2\csrc/u8x8_d_st7565.c **** 	}	
1014:..\u8g2\csrc/u8x8_d_st7565.c **** 	break;
1015:..\u8g2\csrc/u8x8_d_st7565.c ****       default:
1016:..\u8g2\csrc/u8x8_d_st7565.c **** 	return 0;		/* msg unknown */
1017:..\u8g2\csrc/u8x8_d_st7565.c ****     }
1018:..\u8g2\csrc/u8x8_d_st7565.c ****   }
1019:..\u8g2\csrc/u8x8_d_st7565.c ****   return 1;
 1170              		.loc 1 1019 0
ARM GAS  C:\Users\brian\AppData\Local\Temp\cc1Lhyrd.s 			page 41


 1171 0024 0123     		movs	r3, #1
 998:..\u8g2\csrc/u8x8_d_st7565.c **** 	break;
 1172              		.loc 1 998 0
 1173 0026 1EE0     		b	.L107
 1174              	.L108:
1000:..\u8g2\csrc/u8x8_d_st7565.c **** 	u8x8_cad_SendSequence(u8x8, u8x8_d_st7565_erc12864_init_seq);
 1175              		.loc 1 1000 0
 1176 0028 2846     		mov	r0, r5
 1177 002a FFF7FEFF 		bl	u8x8_d_helper_display_init
 1178              	.LVL109:
1001:..\u8g2\csrc/u8x8_d_st7565.c **** 	break;
 1179              		.loc 1 1001 0
 1180 002e 1049     		ldr	r1, .L114+4
 1181 0030 2846     		mov	r0, r5
 1182 0032 FFF7FEFF 		bl	u8x8_cad_SendSequence
 1183              	.LVL110:
 1184              		.loc 1 1019 0
 1185 0036 0123     		movs	r3, #1
1002:..\u8g2\csrc/u8x8_d_st7565.c ****       case U8X8_MSG_DISPLAY_SET_FLIP_MODE:
 1186              		.loc 1 1002 0
 1187 0038 15E0     		b	.L107
 1188              	.L109:
1004:..\u8g2\csrc/u8x8_d_st7565.c **** 	{
 1189              		.loc 1 1004 0
 1190 003a 4EB9     		cbnz	r6, .L111
1006:..\u8g2\csrc/u8x8_d_st7565.c **** 	  u8x8->x_offset = u8x8->display_info->default_x_offset;
 1191              		.loc 1 1006 0
 1192 003c 0D49     		ldr	r1, .L114+8
 1193 003e 2846     		mov	r0, r5
 1194 0040 FFF7FEFF 		bl	u8x8_cad_SendSequence
 1195              	.LVL111:
1007:..\u8g2\csrc/u8x8_d_st7565.c **** 	}
 1196              		.loc 1 1007 0
 1197 0044 2B68     		ldr	r3, [r5]
 1198 0046 9B7C     		ldrb	r3, [r3, #18]	@ zero_extendqisi2
 1199 0048 85F82230 		strb	r3, [r5, #34]
 1200              		.loc 1 1019 0
 1201 004c 0123     		movs	r3, #1
 1202 004e 0AE0     		b	.L107
 1203              	.L111:
1011:..\u8g2\csrc/u8x8_d_st7565.c **** 	  u8x8->x_offset = u8x8->display_info->flipmode_x_offset;
 1204              		.loc 1 1011 0
 1205 0050 0949     		ldr	r1, .L114+12
 1206 0052 2846     		mov	r0, r5
 1207 0054 FFF7FEFF 		bl	u8x8_cad_SendSequence
 1208              	.LVL112:
1012:..\u8g2\csrc/u8x8_d_st7565.c **** 	}	
 1209              		.loc 1 1012 0
 1210 0058 2B68     		ldr	r3, [r5]
 1211 005a DB7C     		ldrb	r3, [r3, #19]	@ zero_extendqisi2
 1212 005c 85F82230 		strb	r3, [r5, #34]
 1213              		.loc 1 1019 0
 1214 0060 0123     		movs	r3, #1
 1215 0062 00E0     		b	.L107
 1216              	.L112:
 1217 0064 0123     		movs	r3, #1
 1218              	.L107:
ARM GAS  C:\Users\brian\AppData\Local\Temp\cc1Lhyrd.s 			page 42


1020:..\u8g2\csrc/u8x8_d_st7565.c **** }
 1219              		.loc 1 1020 0
 1220 0066 1846     		mov	r0, r3
 1221 0068 70BD     		pop	{r4, r5, r6, pc}
 1222              	.LVL113:
 1223              	.L115:
 1224 006a 00BF     		.align	2
 1225              	.L114:
 1226 006c F8010000 		.word	.LANCHOR0+504
 1227 0070 10020000 		.word	.LANCHOR0+528
 1228 0074 54000000 		.word	.LANCHOR0+84
 1229 0078 4C000000 		.word	.LANCHOR0+76
 1230              		.cfi_endproc
 1231              	.LFE11:
 1232              		.size	u8x8_d_st7565_erc12864, .-u8x8_d_st7565_erc12864
 1233              		.section	.text.u8x8_d_st7565_erc12864_alt,"ax",%progbits
 1234              		.align	2
 1235              		.global	u8x8_d_st7565_erc12864_alt
 1236              		.thumb
 1237              		.thumb_func
 1238              		.type	u8x8_d_st7565_erc12864_alt, %function
 1239              	u8x8_d_st7565_erc12864_alt:
 1240              	.LFB12:
1021:..\u8g2\csrc/u8x8_d_st7565.c **** 
1022:..\u8g2\csrc/u8x8_d_st7565.c **** 
1023:..\u8g2\csrc/u8x8_d_st7565.c **** 
1024:..\u8g2\csrc/u8x8_d_st7565.c **** 
1025:..\u8g2\csrc/u8x8_d_st7565.c **** /*================================================*/
1026:..\u8g2\csrc/u8x8_d_st7565.c **** /* ERC12864-1 alternative version, suggested in issue 790 */
1027:..\u8g2\csrc/u8x8_d_st7565.c **** 
1028:..\u8g2\csrc/u8x8_d_st7565.c **** static const uint8_t u8x8_d_st7565_erc12864_alt_init_seq[] = {
1029:..\u8g2\csrc/u8x8_d_st7565.c **** 
1030:..\u8g2\csrc/u8x8_d_st7565.c **** 
1031:..\u8g2\csrc/u8x8_d_st7565.c ****   // original sequence 
1032:..\u8g2\csrc/u8x8_d_st7565.c ****   
1033:..\u8g2\csrc/u8x8_d_st7565.c ****   // U8X8_START_TRANSFER(),             	/* enable chip, delay is part of the transfer start */
1034:..\u8g2\csrc/u8x8_d_st7565.c ****   
1035:..\u8g2\csrc/u8x8_d_st7565.c ****   // U8X8_C(0x0e2),            			/* soft reset */
1036:..\u8g2\csrc/u8x8_d_st7565.c ****   // U8X8_C(0x0ae),		                /* display off */
1037:..\u8g2\csrc/u8x8_d_st7565.c ****   // U8X8_C(0x040),		                /* set display start line to ... */
1038:..\u8g2\csrc/u8x8_d_st7565.c ****   
1039:..\u8g2\csrc/u8x8_d_st7565.c ****   // U8X8_C(0x0a0),		                /* ADC set to reverse */
1040:..\u8g2\csrc/u8x8_d_st7565.c ****   // U8X8_C(0x0c8),		                /* common output mode */
1041:..\u8g2\csrc/u8x8_d_st7565.c ****   
1042:..\u8g2\csrc/u8x8_d_st7565.c ****   // U8X8_C(0x0a6),		                /* display normal, bit val 0: LCD pixel off. */
1043:..\u8g2\csrc/u8x8_d_st7565.c ****   // U8X8_C(0x0a3),		                /* LCD bias 1/9 */
1044:..\u8g2\csrc/u8x8_d_st7565.c ****   // U8X8_C(0x02f),		                /* all power  control circuits on (regulator, booster and foll
1045:..\u8g2\csrc/u8x8_d_st7565.c ****   // U8X8_CA(0x0f8, 0x000),		/* set booster ratio to 4x (ST7567 feature)*/
1046:..\u8g2\csrc/u8x8_d_st7565.c ****   // U8X8_C(0x027),		                /* set V0 voltage resistor ratio to max  */
1047:..\u8g2\csrc/u8x8_d_st7565.c ****   // U8X8_CA(0x081, 0x018),		/* set contrast, contrast value, EA default: 0x016 */
1048:..\u8g2\csrc/u8x8_d_st7565.c ****   
1049:..\u8g2\csrc/u8x8_d_st7565.c ****   // U8X8_C(0x0ae),		                /* display off */
1050:..\u8g2\csrc/u8x8_d_st7565.c ****   // U8X8_C(0x0a5),		                /* enter powersafe: all pixel on, issue 142 */
1051:..\u8g2\csrc/u8x8_d_st7565.c ****   
1052:..\u8g2\csrc/u8x8_d_st7565.c ****   // U8X8_END_TRANSFER(),             	/* disable chip */
1053:..\u8g2\csrc/u8x8_d_st7565.c ****   // U8X8_END()             			/* end of sequence */
1054:..\u8g2\csrc/u8x8_d_st7565.c ****   
ARM GAS  C:\Users\brian\AppData\Local\Temp\cc1Lhyrd.s 			page 43


1055:..\u8g2\csrc/u8x8_d_st7565.c **** 
1056:..\u8g2\csrc/u8x8_d_st7565.c **** 
1057:..\u8g2\csrc/u8x8_d_st7565.c ****   // suggested in https://github.com/olikraus/u8g2/issues/790
1058:..\u8g2\csrc/u8x8_d_st7565.c ****   
1059:..\u8g2\csrc/u8x8_d_st7565.c ****   U8X8_START_TRANSFER(),             	/* enable chip, delay is part of the transfer start */
1060:..\u8g2\csrc/u8x8_d_st7565.c ****   
1061:..\u8g2\csrc/u8x8_d_st7565.c ****   U8X8_C(0x0e2),            			/* soft reset */
1062:..\u8g2\csrc/u8x8_d_st7565.c ****   U8X8_C(0x0ae),		                /* display off */
1063:..\u8g2\csrc/u8x8_d_st7565.c ****   U8X8_C(0x040),		                /* set display start line to ... */
1064:..\u8g2\csrc/u8x8_d_st7565.c ****   
1065:..\u8g2\csrc/u8x8_d_st7565.c ****   U8X8_C(0x0a0),		                /* ADC set to reverse */
1066:..\u8g2\csrc/u8x8_d_st7565.c ****   U8X8_C(0x0c8),		                /* common output mode */
1067:..\u8g2\csrc/u8x8_d_st7565.c ****   
1068:..\u8g2\csrc/u8x8_d_st7565.c ****   U8X8_C(0x0a6),		                /* display normal, bit val 0: LCD pixel off. */
1069:..\u8g2\csrc/u8x8_d_st7565.c ****   U8X8_C(0x0a2),		                /* LCD bias 1/9 - *** Changed by Ismail - was 0xa3 - 1/7 bias we 
1070:..\u8g2\csrc/u8x8_d_st7565.c ****   U8X8_C(0x02f),		                /* all power  control circuits on (regulator, booster and followe
1071:..\u8g2\csrc/u8x8_d_st7565.c ****   U8X8_CA(0x0f8, 0x000),		/* set booster ratio to 4x (ST7567 feature)*/
1072:..\u8g2\csrc/u8x8_d_st7565.c ****   U8X8_C(0x027),		                /* set V0 voltage resistor ratio to max  */
1073:..\u8g2\csrc/u8x8_d_st7565.c ****   U8X8_CA(0x081, 0x05),		       /* set contrast, contrast value, EA default: 0x016 - *** Changed by
1074:..\u8g2\csrc/u8x8_d_st7565.c ****   
1075:..\u8g2\csrc/u8x8_d_st7565.c ****   U8X8_C(0x0ae),		                /* display off */
1076:..\u8g2\csrc/u8x8_d_st7565.c ****   U8X8_C(0x0a5),		                /* enter powersafe: all pixel on, issue 142 */
1077:..\u8g2\csrc/u8x8_d_st7565.c ****   
1078:..\u8g2\csrc/u8x8_d_st7565.c ****   U8X8_END_TRANSFER(),             	/* disable chip */
1079:..\u8g2\csrc/u8x8_d_st7565.c ****   U8X8_END()             			/* end of sequence */
1080:..\u8g2\csrc/u8x8_d_st7565.c ****   
1081:..\u8g2\csrc/u8x8_d_st7565.c **** };
1082:..\u8g2\csrc/u8x8_d_st7565.c **** 
1083:..\u8g2\csrc/u8x8_d_st7565.c **** 
1084:..\u8g2\csrc/u8x8_d_st7565.c **** uint8_t u8x8_d_st7565_erc12864_alt(u8x8_t *u8x8, uint8_t msg, uint8_t arg_int, void *arg_ptr)
1085:..\u8g2\csrc/u8x8_d_st7565.c **** {
 1241              		.loc 1 1085 0
 1242              		.cfi_startproc
 1243              		@ args = 0, pretend = 0, frame = 0
 1244              		@ frame_needed = 0, uses_anonymous_args = 0
 1245              	.LVL114:
 1246 0000 70B5     		push	{r4, r5, r6, lr}
 1247              		.cfi_def_cfa_offset 16
 1248              		.cfi_offset 4, -16
 1249              		.cfi_offset 5, -12
 1250              		.cfi_offset 6, -8
 1251              		.cfi_offset 14, -4
 1252 0002 0546     		mov	r5, r0
 1253 0004 0C46     		mov	r4, r1
 1254 0006 1646     		mov	r6, r2
1086:..\u8g2\csrc/u8x8_d_st7565.c ****   /* call common procedure first and handle messages there */
1087:..\u8g2\csrc/u8x8_d_st7565.c ****   if ( u8x8_d_st7565_common(u8x8, msg, arg_int, arg_ptr) == 0 )
 1255              		.loc 1 1087 0
 1256 0008 FFF7FEFF 		bl	u8x8_d_st7565_common
 1257              	.LVL115:
 1258 000c 50BB     		cbnz	r0, .L122
 1259 000e 0346     		mov	r3, r0
1088:..\u8g2\csrc/u8x8_d_st7565.c ****   {
1089:..\u8g2\csrc/u8x8_d_st7565.c ****     /* msg not handled, then try here */
1090:..\u8g2\csrc/u8x8_d_st7565.c ****     switch(msg)
 1260              		.loc 1 1090 0
 1261 0010 0A2C     		cmp	r4, #10
ARM GAS  C:\Users\brian\AppData\Local\Temp\cc1Lhyrd.s 			page 44


 1262 0012 09D0     		beq	.L118
 1263 0014 0D2C     		cmp	r4, #13
 1264 0016 10D0     		beq	.L119
 1265 0018 092C     		cmp	r4, #9
 1266 001a 24D1     		bne	.L117
1091:..\u8g2\csrc/u8x8_d_st7565.c ****     {
1092:..\u8g2\csrc/u8x8_d_st7565.c ****       case U8X8_MSG_DISPLAY_SETUP_MEMORY:
1093:..\u8g2\csrc/u8x8_d_st7565.c **** 	u8x8_d_helper_display_setup_memory(u8x8, &u8x8_st7565_erc12864_display_info);
 1267              		.loc 1 1093 0
 1268 001c 1349     		ldr	r1, .L124
 1269 001e 2846     		mov	r0, r5
 1270 0020 FFF7FEFF 		bl	u8x8_d_helper_display_setup_memory
 1271              	.LVL116:
1094:..\u8g2\csrc/u8x8_d_st7565.c **** 	break;
1095:..\u8g2\csrc/u8x8_d_st7565.c ****       case U8X8_MSG_DISPLAY_INIT:
1096:..\u8g2\csrc/u8x8_d_st7565.c **** 	u8x8_d_helper_display_init(u8x8);
1097:..\u8g2\csrc/u8x8_d_st7565.c **** 	u8x8_cad_SendSequence(u8x8, u8x8_d_st7565_erc12864_alt_init_seq);
1098:..\u8g2\csrc/u8x8_d_st7565.c **** 	break;
1099:..\u8g2\csrc/u8x8_d_st7565.c ****       case U8X8_MSG_DISPLAY_SET_FLIP_MODE:
1100:..\u8g2\csrc/u8x8_d_st7565.c **** 	if ( arg_int == 0 )
1101:..\u8g2\csrc/u8x8_d_st7565.c **** 	{
1102:..\u8g2\csrc/u8x8_d_st7565.c **** 	  u8x8_cad_SendSequence(u8x8, u8x8_d_st7565_flip1_seq);
1103:..\u8g2\csrc/u8x8_d_st7565.c **** 	  u8x8->x_offset = u8x8->display_info->default_x_offset;
1104:..\u8g2\csrc/u8x8_d_st7565.c **** 	}
1105:..\u8g2\csrc/u8x8_d_st7565.c **** 	else
1106:..\u8g2\csrc/u8x8_d_st7565.c **** 	{
1107:..\u8g2\csrc/u8x8_d_st7565.c **** 	  u8x8_cad_SendSequence(u8x8, u8x8_d_st7565_flip0_seq);
1108:..\u8g2\csrc/u8x8_d_st7565.c **** 	  u8x8->x_offset = u8x8->display_info->flipmode_x_offset;
1109:..\u8g2\csrc/u8x8_d_st7565.c **** 	}	
1110:..\u8g2\csrc/u8x8_d_st7565.c **** 	break;
1111:..\u8g2\csrc/u8x8_d_st7565.c ****       default:
1112:..\u8g2\csrc/u8x8_d_st7565.c **** 	return 0;		/* msg unknown */
1113:..\u8g2\csrc/u8x8_d_st7565.c ****     }
1114:..\u8g2\csrc/u8x8_d_st7565.c ****   }
1115:..\u8g2\csrc/u8x8_d_st7565.c ****   return 1;
 1272              		.loc 1 1115 0
 1273 0024 0123     		movs	r3, #1
1094:..\u8g2\csrc/u8x8_d_st7565.c **** 	break;
 1274              		.loc 1 1094 0
 1275 0026 1EE0     		b	.L117
 1276              	.L118:
1096:..\u8g2\csrc/u8x8_d_st7565.c **** 	u8x8_cad_SendSequence(u8x8, u8x8_d_st7565_erc12864_alt_init_seq);
 1277              		.loc 1 1096 0
 1278 0028 2846     		mov	r0, r5
 1279 002a FFF7FEFF 		bl	u8x8_d_helper_display_init
 1280              	.LVL117:
1097:..\u8g2\csrc/u8x8_d_st7565.c **** 	break;
 1281              		.loc 1 1097 0
 1282 002e 1049     		ldr	r1, .L124+4
 1283 0030 2846     		mov	r0, r5
 1284 0032 FFF7FEFF 		bl	u8x8_cad_SendSequence
 1285              	.LVL118:
 1286              		.loc 1 1115 0
 1287 0036 0123     		movs	r3, #1
1098:..\u8g2\csrc/u8x8_d_st7565.c ****       case U8X8_MSG_DISPLAY_SET_FLIP_MODE:
 1288              		.loc 1 1098 0
 1289 0038 15E0     		b	.L117
ARM GAS  C:\Users\brian\AppData\Local\Temp\cc1Lhyrd.s 			page 45


 1290              	.L119:
1100:..\u8g2\csrc/u8x8_d_st7565.c **** 	{
 1291              		.loc 1 1100 0
 1292 003a 4EB9     		cbnz	r6, .L121
1102:..\u8g2\csrc/u8x8_d_st7565.c **** 	  u8x8->x_offset = u8x8->display_info->default_x_offset;
 1293              		.loc 1 1102 0
 1294 003c 0D49     		ldr	r1, .L124+8
 1295 003e 2846     		mov	r0, r5
 1296 0040 FFF7FEFF 		bl	u8x8_cad_SendSequence
 1297              	.LVL119:
1103:..\u8g2\csrc/u8x8_d_st7565.c **** 	}
 1298              		.loc 1 1103 0
 1299 0044 2B68     		ldr	r3, [r5]
 1300 0046 9B7C     		ldrb	r3, [r3, #18]	@ zero_extendqisi2
 1301 0048 85F82230 		strb	r3, [r5, #34]
 1302              		.loc 1 1115 0
 1303 004c 0123     		movs	r3, #1
 1304 004e 0AE0     		b	.L117
 1305              	.L121:
1107:..\u8g2\csrc/u8x8_d_st7565.c **** 	  u8x8->x_offset = u8x8->display_info->flipmode_x_offset;
 1306              		.loc 1 1107 0
 1307 0050 0949     		ldr	r1, .L124+12
 1308 0052 2846     		mov	r0, r5
 1309 0054 FFF7FEFF 		bl	u8x8_cad_SendSequence
 1310              	.LVL120:
1108:..\u8g2\csrc/u8x8_d_st7565.c **** 	}	
 1311              		.loc 1 1108 0
 1312 0058 2B68     		ldr	r3, [r5]
 1313 005a DB7C     		ldrb	r3, [r3, #19]	@ zero_extendqisi2
 1314 005c 85F82230 		strb	r3, [r5, #34]
 1315              		.loc 1 1115 0
 1316 0060 0123     		movs	r3, #1
 1317 0062 00E0     		b	.L117
 1318              	.L122:
 1319 0064 0123     		movs	r3, #1
 1320              	.L117:
1116:..\u8g2\csrc/u8x8_d_st7565.c **** }
 1321              		.loc 1 1116 0
 1322 0066 1846     		mov	r0, r3
 1323 0068 70BD     		pop	{r4, r5, r6, pc}
 1324              	.LVL121:
 1325              	.L125:
 1326 006a 00BF     		.align	2
 1327              	.L124:
 1328 006c F8010000 		.word	.LANCHOR0+504
 1329 0070 34020000 		.word	.LANCHOR0+564
 1330 0074 54000000 		.word	.LANCHOR0+84
 1331 0078 4C000000 		.word	.LANCHOR0+76
 1332              		.cfi_endproc
 1333              	.LFE12:
 1334              		.size	u8x8_d_st7565_erc12864_alt, .-u8x8_d_st7565_erc12864_alt
 1335              		.section	.text.u8x8_d_nt7534_tg12864r,"ax",%progbits
 1336              		.align	2
 1337              		.global	u8x8_d_nt7534_tg12864r
 1338              		.thumb
 1339              		.thumb_func
 1340              		.type	u8x8_d_nt7534_tg12864r, %function
ARM GAS  C:\Users\brian\AppData\Local\Temp\cc1Lhyrd.s 			page 46


 1341              	u8x8_d_nt7534_tg12864r:
 1342              	.LFB13:
1117:..\u8g2\csrc/u8x8_d_st7565.c **** 
1118:..\u8g2\csrc/u8x8_d_st7565.c **** 
1119:..\u8g2\csrc/u8x8_d_st7565.c **** 
1120:..\u8g2\csrc/u8x8_d_st7565.c **** 
1121:..\u8g2\csrc/u8x8_d_st7565.c **** /*================================================*/
1122:..\u8g2\csrc/u8x8_d_st7565.c **** /* NT7534, TG12864R */
1123:..\u8g2\csrc/u8x8_d_st7565.c **** /* The NT7534 has an extended command set for the ST7565, however this is not used. */
1124:..\u8g2\csrc/u8x8_d_st7565.c **** /* The TG12864R display is also shifted in lines, like the LM6059/Adafruit display */
1125:..\u8g2\csrc/u8x8_d_st7565.c **** /* However contrast seems to be different */
1126:..\u8g2\csrc/u8x8_d_st7565.c **** 
1127:..\u8g2\csrc/u8x8_d_st7565.c **** static const uint8_t u8x8_d_nt7534_tg12864r_init_seq[] = {
1128:..\u8g2\csrc/u8x8_d_st7565.c ****     
1129:..\u8g2\csrc/u8x8_d_st7565.c ****   U8X8_START_TRANSFER(),             	/* enable chip, delay is part of the transfer start */
1130:..\u8g2\csrc/u8x8_d_st7565.c ****   
1131:..\u8g2\csrc/u8x8_d_st7565.c ****   U8X8_C(0x0e2),            			/* soft reset */
1132:..\u8g2\csrc/u8x8_d_st7565.c ****   U8X8_C(0x0ae),		                /* display off */
1133:..\u8g2\csrc/u8x8_d_st7565.c ****   U8X8_C(0x060),		                /* set display start line to ... */
1134:..\u8g2\csrc/u8x8_d_st7565.c ****   
1135:..\u8g2\csrc/u8x8_d_st7565.c ****   U8X8_C(0x0a0),		                /* ADC set to reverse */
1136:..\u8g2\csrc/u8x8_d_st7565.c ****   U8X8_C(0x0c8),		                /* common output mode */
1137:..\u8g2\csrc/u8x8_d_st7565.c ****   // Flipmode
1138:..\u8g2\csrc/u8x8_d_st7565.c ****   //U8X8_C(0x0a1),		                /* ADC set to reverse */
1139:..\u8g2\csrc/u8x8_d_st7565.c ****   //U8X8_C(0x0c0),		                /* common output mode */
1140:..\u8g2\csrc/u8x8_d_st7565.c ****   
1141:..\u8g2\csrc/u8x8_d_st7565.c ****   U8X8_C(0x0a6),		                /* display normal, bit val 0: LCD pixel off. */
1142:..\u8g2\csrc/u8x8_d_st7565.c ****   U8X8_C(0x0a3),		                /* LCD bias 1/9 */
1143:..\u8g2\csrc/u8x8_d_st7565.c ****   U8X8_C(0x02f),		                /* all power  control circuits on (regulator, booster and followe
1144:..\u8g2\csrc/u8x8_d_st7565.c ****   //U8X8_CA(0x0f8, 0x000),		/* set booster ratio to 4x (ST7567 feature)*/
1145:..\u8g2\csrc/u8x8_d_st7565.c ****   U8X8_C(0x027),		                /* set V0 voltage resistor ratio to max  */
1146:..\u8g2\csrc/u8x8_d_st7565.c ****   U8X8_CA(0x081, 0x009),		/* set contrast, contrast value, EA default: 0x016 */
1147:..\u8g2\csrc/u8x8_d_st7565.c ****   
1148:..\u8g2\csrc/u8x8_d_st7565.c ****   U8X8_C(0x0ae),		                /* display off */
1149:..\u8g2\csrc/u8x8_d_st7565.c ****   U8X8_C(0x0a5),		                /* enter powersafe: all pixel on, issue 142 */
1150:..\u8g2\csrc/u8x8_d_st7565.c ****   
1151:..\u8g2\csrc/u8x8_d_st7565.c ****   U8X8_END_TRANSFER(),             	/* disable chip */
1152:..\u8g2\csrc/u8x8_d_st7565.c ****   U8X8_END()             			/* end of sequence */
1153:..\u8g2\csrc/u8x8_d_st7565.c **** };
1154:..\u8g2\csrc/u8x8_d_st7565.c **** 
1155:..\u8g2\csrc/u8x8_d_st7565.c **** uint8_t u8x8_d_nt7534_tg12864r(u8x8_t *u8x8, uint8_t msg, uint8_t arg_int, void *arg_ptr)
1156:..\u8g2\csrc/u8x8_d_st7565.c **** {
 1343              		.loc 1 1156 0
 1344              		.cfi_startproc
 1345              		@ args = 0, pretend = 0, frame = 0
 1346              		@ frame_needed = 0, uses_anonymous_args = 0
 1347              	.LVL122:
 1348 0000 70B5     		push	{r4, r5, r6, lr}
 1349              		.cfi_def_cfa_offset 16
 1350              		.cfi_offset 4, -16
 1351              		.cfi_offset 5, -12
 1352              		.cfi_offset 6, -8
 1353              		.cfi_offset 14, -4
 1354 0002 0546     		mov	r5, r0
 1355 0004 0C46     		mov	r4, r1
 1356 0006 1646     		mov	r6, r2
1157:..\u8g2\csrc/u8x8_d_st7565.c ****   /* call common procedure first and handle messages there */
ARM GAS  C:\Users\brian\AppData\Local\Temp\cc1Lhyrd.s 			page 47


1158:..\u8g2\csrc/u8x8_d_st7565.c ****   if ( u8x8_d_st7565_common(u8x8, msg, arg_int, arg_ptr) == 0 )
 1357              		.loc 1 1158 0
 1358 0008 FFF7FEFF 		bl	u8x8_d_st7565_common
 1359              	.LVL123:
 1360 000c 50BB     		cbnz	r0, .L132
 1361 000e 0346     		mov	r3, r0
1159:..\u8g2\csrc/u8x8_d_st7565.c ****   {
1160:..\u8g2\csrc/u8x8_d_st7565.c ****     /* msg not handled, then try here */
1161:..\u8g2\csrc/u8x8_d_st7565.c ****     switch(msg)
 1362              		.loc 1 1161 0
 1363 0010 0A2C     		cmp	r4, #10
 1364 0012 09D0     		beq	.L128
 1365 0014 0D2C     		cmp	r4, #13
 1366 0016 10D0     		beq	.L129
 1367 0018 092C     		cmp	r4, #9
 1368 001a 24D1     		bne	.L127
1162:..\u8g2\csrc/u8x8_d_st7565.c ****     {
1163:..\u8g2\csrc/u8x8_d_st7565.c ****       case U8X8_MSG_DISPLAY_SETUP_MEMORY:
1164:..\u8g2\csrc/u8x8_d_st7565.c **** 	/* reuse the LM6059 data structure... this display seems to have similar shifts and offsets */
1165:..\u8g2\csrc/u8x8_d_st7565.c **** 	u8x8_d_helper_display_setup_memory(u8x8, &u8x8_st7565_lm6059_display_info);
 1369              		.loc 1 1165 0
 1370 001c 1349     		ldr	r1, .L134
 1371 001e 2846     		mov	r0, r5
 1372 0020 FFF7FEFF 		bl	u8x8_d_helper_display_setup_memory
 1373              	.LVL124:
1166:..\u8g2\csrc/u8x8_d_st7565.c **** 	break;
1167:..\u8g2\csrc/u8x8_d_st7565.c ****       case U8X8_MSG_DISPLAY_INIT:
1168:..\u8g2\csrc/u8x8_d_st7565.c **** 	u8x8_d_helper_display_init(u8x8);
1169:..\u8g2\csrc/u8x8_d_st7565.c ****       
1170:..\u8g2\csrc/u8x8_d_st7565.c **** 	//u8x8_cad_SendSequence(u8x8, u8x8_d_st7565_lm6059_init_seq);
1171:..\u8g2\csrc/u8x8_d_st7565.c **** 	u8x8_cad_SendSequence(u8x8, u8x8_d_nt7534_tg12864r_init_seq);
1172:..\u8g2\csrc/u8x8_d_st7565.c **** 	break;
1173:..\u8g2\csrc/u8x8_d_st7565.c ****       case U8X8_MSG_DISPLAY_SET_FLIP_MODE:
1174:..\u8g2\csrc/u8x8_d_st7565.c **** 	if ( arg_int == 0 )
1175:..\u8g2\csrc/u8x8_d_st7565.c **** 	{
1176:..\u8g2\csrc/u8x8_d_st7565.c **** 	  u8x8_cad_SendSequence(u8x8, u8x8_d_st7565_flip1_seq);
1177:..\u8g2\csrc/u8x8_d_st7565.c **** 	  u8x8->x_offset = u8x8->display_info->default_x_offset;
1178:..\u8g2\csrc/u8x8_d_st7565.c **** 	}
1179:..\u8g2\csrc/u8x8_d_st7565.c **** 	else
1180:..\u8g2\csrc/u8x8_d_st7565.c **** 	{
1181:..\u8g2\csrc/u8x8_d_st7565.c **** 	  u8x8_cad_SendSequence(u8x8, u8x8_d_st7565_flip0_seq);
1182:..\u8g2\csrc/u8x8_d_st7565.c **** 	  u8x8->x_offset = u8x8->display_info->flipmode_x_offset;
1183:..\u8g2\csrc/u8x8_d_st7565.c **** 	}	
1184:..\u8g2\csrc/u8x8_d_st7565.c **** 	break;
1185:..\u8g2\csrc/u8x8_d_st7565.c ****       default:
1186:..\u8g2\csrc/u8x8_d_st7565.c **** 	return 0;		/* msg unknown */
1187:..\u8g2\csrc/u8x8_d_st7565.c ****     }
1188:..\u8g2\csrc/u8x8_d_st7565.c ****   }
1189:..\u8g2\csrc/u8x8_d_st7565.c ****   return 1;
 1374              		.loc 1 1189 0
 1375 0024 0123     		movs	r3, #1
1166:..\u8g2\csrc/u8x8_d_st7565.c **** 	break;
 1376              		.loc 1 1166 0
 1377 0026 1EE0     		b	.L127
 1378              	.L128:
1168:..\u8g2\csrc/u8x8_d_st7565.c ****       
 1379              		.loc 1 1168 0
ARM GAS  C:\Users\brian\AppData\Local\Temp\cc1Lhyrd.s 			page 48


 1380 0028 2846     		mov	r0, r5
 1381 002a FFF7FEFF 		bl	u8x8_d_helper_display_init
 1382              	.LVL125:
1171:..\u8g2\csrc/u8x8_d_st7565.c **** 	break;
 1383              		.loc 1 1171 0
 1384 002e 1049     		ldr	r1, .L134+4
 1385 0030 2846     		mov	r0, r5
 1386 0032 FFF7FEFF 		bl	u8x8_cad_SendSequence
 1387              	.LVL126:
 1388              		.loc 1 1189 0
 1389 0036 0123     		movs	r3, #1
1172:..\u8g2\csrc/u8x8_d_st7565.c ****       case U8X8_MSG_DISPLAY_SET_FLIP_MODE:
 1390              		.loc 1 1172 0
 1391 0038 15E0     		b	.L127
 1392              	.L129:
1174:..\u8g2\csrc/u8x8_d_st7565.c **** 	{
 1393              		.loc 1 1174 0
 1394 003a 4EB9     		cbnz	r6, .L131
1176:..\u8g2\csrc/u8x8_d_st7565.c **** 	  u8x8->x_offset = u8x8->display_info->default_x_offset;
 1395              		.loc 1 1176 0
 1396 003c 0D49     		ldr	r1, .L134+8
 1397 003e 2846     		mov	r0, r5
 1398 0040 FFF7FEFF 		bl	u8x8_cad_SendSequence
 1399              	.LVL127:
1177:..\u8g2\csrc/u8x8_d_st7565.c **** 	}
 1400              		.loc 1 1177 0
 1401 0044 2B68     		ldr	r3, [r5]
 1402 0046 9B7C     		ldrb	r3, [r3, #18]	@ zero_extendqisi2
 1403 0048 85F82230 		strb	r3, [r5, #34]
 1404              		.loc 1 1189 0
 1405 004c 0123     		movs	r3, #1
 1406 004e 0AE0     		b	.L127
 1407              	.L131:
1181:..\u8g2\csrc/u8x8_d_st7565.c **** 	  u8x8->x_offset = u8x8->display_info->flipmode_x_offset;
 1408              		.loc 1 1181 0
 1409 0050 0949     		ldr	r1, .L134+12
 1410 0052 2846     		mov	r0, r5
 1411 0054 FFF7FEFF 		bl	u8x8_cad_SendSequence
 1412              	.LVL128:
1182:..\u8g2\csrc/u8x8_d_st7565.c **** 	}	
 1413              		.loc 1 1182 0
 1414 0058 2B68     		ldr	r3, [r5]
 1415 005a DB7C     		ldrb	r3, [r3, #19]	@ zero_extendqisi2
 1416 005c 85F82230 		strb	r3, [r5, #34]
 1417              		.loc 1 1189 0
 1418 0060 0123     		movs	r3, #1
 1419 0062 00E0     		b	.L127
 1420              	.L132:
 1421 0064 0123     		movs	r3, #1
 1422              	.L127:
1190:..\u8g2\csrc/u8x8_d_st7565.c **** }
 1423              		.loc 1 1190 0
 1424 0066 1846     		mov	r0, r3
 1425 0068 70BD     		pop	{r4, r5, r6, pc}
 1426              	.LVL129:
 1427              	.L135:
 1428 006a 00BF     		.align	2
ARM GAS  C:\Users\brian\AppData\Local\Temp\cc1Lhyrd.s 			page 49


 1429              	.L134:
 1430 006c 64010000 		.word	.LANCHOR0+356
 1431 0070 58020000 		.word	.LANCHOR0+600
 1432 0074 54000000 		.word	.LANCHOR0+84
 1433 0078 4C000000 		.word	.LANCHOR0+76
 1434              		.cfi_endproc
 1435              	.LFE13:
 1436              		.size	u8x8_d_nt7534_tg12864r, .-u8x8_d_nt7534_tg12864r
 1437              		.section	.text.u8x8_d_st7565_ea_dogm132,"ax",%progbits
 1438              		.align	2
 1439              		.global	u8x8_d_st7565_ea_dogm132
 1440              		.thumb
 1441              		.thumb_func
 1442              		.type	u8x8_d_st7565_ea_dogm132, %function
 1443              	u8x8_d_st7565_ea_dogm132:
 1444              	.LFB14:
1191:..\u8g2\csrc/u8x8_d_st7565.c **** 
1192:..\u8g2\csrc/u8x8_d_st7565.c **** 
1193:..\u8g2\csrc/u8x8_d_st7565.c **** /*================================================*/
1194:..\u8g2\csrc/u8x8_d_st7565.c **** /* EA DOGM132 */
1195:..\u8g2\csrc/u8x8_d_st7565.c **** 
1196:..\u8g2\csrc/u8x8_d_st7565.c **** static const u8x8_display_info_t u8x8_st7565_dogm132_display_info =
1197:..\u8g2\csrc/u8x8_d_st7565.c **** {
1198:..\u8g2\csrc/u8x8_d_st7565.c ****   /* chip_enable_level = */ 0,
1199:..\u8g2\csrc/u8x8_d_st7565.c ****   /* chip_disable_level = */ 1,
1200:..\u8g2\csrc/u8x8_d_st7565.c ****   
1201:..\u8g2\csrc/u8x8_d_st7565.c ****   /* post_chip_enable_wait_ns = */ 150,	/* st7565 datasheet, table 26, tcsh */
1202:..\u8g2\csrc/u8x8_d_st7565.c ****   /* pre_chip_disable_wait_ns = */ 50,	/* st7565 datasheet, table 26, tcss */
1203:..\u8g2\csrc/u8x8_d_st7565.c ****   /* reset_pulse_width_ms = */ 1, 
1204:..\u8g2\csrc/u8x8_d_st7565.c ****   /* post_reset_wait_ms = */ 1, 
1205:..\u8g2\csrc/u8x8_d_st7565.c ****   /* sda_setup_time_ns = */ 50,		/* st7565 datasheet, table 26, tsds */
1206:..\u8g2\csrc/u8x8_d_st7565.c ****   /* sck_pulse_width_ns = */ 120,	/* half of cycle time (100ns according to datasheet), AVR: below 
1207:..\u8g2\csrc/u8x8_d_st7565.c ****   /* sck_clock_hz = */ 4000000UL,	/* since Arduino 1.6.0, the SPI bus speed in Hz. Should be  10000
1208:..\u8g2\csrc/u8x8_d_st7565.c ****   /* spi_mode = */ 0,		/* active high, rising edge */
1209:..\u8g2\csrc/u8x8_d_st7565.c ****   /* i2c_bus_clock_100kHz = */ 4,
1210:..\u8g2\csrc/u8x8_d_st7565.c ****   /* data_setup_time_ns = */ 40,	/* st7565 datasheet, table 24, tds8 */
1211:..\u8g2\csrc/u8x8_d_st7565.c ****   /* write_pulse_width_ns = */ 80,	/* st7565 datasheet, table 24, tcclw */
1212:..\u8g2\csrc/u8x8_d_st7565.c ****   /* tile_width = */ 17,		/* width of 16*8=136 pixel */
1213:..\u8g2\csrc/u8x8_d_st7565.c ****   /* tile_hight = */ 4,
1214:..\u8g2\csrc/u8x8_d_st7565.c ****   /* default_x_offset = */ 0,
1215:..\u8g2\csrc/u8x8_d_st7565.c ****   /* flipmode_x_offset = */ 0,
1216:..\u8g2\csrc/u8x8_d_st7565.c ****   /* pixel_width = */ 132,
1217:..\u8g2\csrc/u8x8_d_st7565.c ****   /* pixel_height = */ 32
1218:..\u8g2\csrc/u8x8_d_st7565.c **** };
1219:..\u8g2\csrc/u8x8_d_st7565.c **** 
1220:..\u8g2\csrc/u8x8_d_st7565.c **** 
1221:..\u8g2\csrc/u8x8_d_st7565.c **** static const uint8_t u8x8_d_st7565_dogm132_init_seq[] = {
1222:..\u8g2\csrc/u8x8_d_st7565.c ****     
1223:..\u8g2\csrc/u8x8_d_st7565.c ****   U8X8_START_TRANSFER(),             	/* enable chip, delay is part of the transfer start */
1224:..\u8g2\csrc/u8x8_d_st7565.c ****   
1225:..\u8g2\csrc/u8x8_d_st7565.c ****   U8X8_C(0x0e2),            			/* soft reset */
1226:..\u8g2\csrc/u8x8_d_st7565.c ****   U8X8_C(0x0ae),		                /* display off */
1227:..\u8g2\csrc/u8x8_d_st7565.c ****   U8X8_C(0x040),		                /* set display start line to 0 */
1228:..\u8g2\csrc/u8x8_d_st7565.c ****   
1229:..\u8g2\csrc/u8x8_d_st7565.c ****   U8X8_C(0x0a1),		                /* ADC set to reverse */
1230:..\u8g2\csrc/u8x8_d_st7565.c ****   U8X8_C(0x0c0),		                /* common output mode */
1231:..\u8g2\csrc/u8x8_d_st7565.c ****   // Flipmode
ARM GAS  C:\Users\brian\AppData\Local\Temp\cc1Lhyrd.s 			page 50


1232:..\u8g2\csrc/u8x8_d_st7565.c ****   //U8X8_C(0x0a0),		                /* ADC set to reverse */
1233:..\u8g2\csrc/u8x8_d_st7565.c ****   //U8X8_C(0x0c8),		                /* common output mode */
1234:..\u8g2\csrc/u8x8_d_st7565.c ****   
1235:..\u8g2\csrc/u8x8_d_st7565.c ****   U8X8_C(0x0a6),		                /* display normal, bit val 0: LCD pixel off. */
1236:..\u8g2\csrc/u8x8_d_st7565.c ****   U8X8_C(0x0a2),		                /* LCD bias 1/9 */
1237:..\u8g2\csrc/u8x8_d_st7565.c ****   U8X8_C(0x02f),		                /* all power  control circuits on */
1238:..\u8g2\csrc/u8x8_d_st7565.c ****   U8X8_CA(0x0f8, 0x000),		/* set booster ratio to 4x */
1239:..\u8g2\csrc/u8x8_d_st7565.c ****   U8X8_C(0x023),		                /* set V0 voltage resistor ratio to large*/
1240:..\u8g2\csrc/u8x8_d_st7565.c ****   U8X8_CA(0x081, 0x01f),		/* set contrast, contrast value EA DOGM132 */
1241:..\u8g2\csrc/u8x8_d_st7565.c ****   
1242:..\u8g2\csrc/u8x8_d_st7565.c ****   U8X8_C(0x0ae),		                /* display off */
1243:..\u8g2\csrc/u8x8_d_st7565.c ****   U8X8_C(0x0a5),		                /* enter powersafe: all pixel on, issue 142 */
1244:..\u8g2\csrc/u8x8_d_st7565.c ****   
1245:..\u8g2\csrc/u8x8_d_st7565.c ****   U8X8_END_TRANSFER(),             	/* disable chip */
1246:..\u8g2\csrc/u8x8_d_st7565.c ****   U8X8_END()             			/* end of sequence */
1247:..\u8g2\csrc/u8x8_d_st7565.c **** };
1248:..\u8g2\csrc/u8x8_d_st7565.c **** 
1249:..\u8g2\csrc/u8x8_d_st7565.c **** uint8_t u8x8_d_st7565_ea_dogm132(u8x8_t *u8x8, uint8_t msg, uint8_t arg_int, void *arg_ptr)
1250:..\u8g2\csrc/u8x8_d_st7565.c **** {
 1445              		.loc 1 1250 0
 1446              		.cfi_startproc
 1447              		@ args = 0, pretend = 0, frame = 0
 1448              		@ frame_needed = 0, uses_anonymous_args = 0
 1449              	.LVL130:
 1450 0000 70B5     		push	{r4, r5, r6, lr}
 1451              		.cfi_def_cfa_offset 16
 1452              		.cfi_offset 4, -16
 1453              		.cfi_offset 5, -12
 1454              		.cfi_offset 6, -8
 1455              		.cfi_offset 14, -4
 1456 0002 0546     		mov	r5, r0
 1457 0004 0C46     		mov	r4, r1
 1458 0006 1646     		mov	r6, r2
1251:..\u8g2\csrc/u8x8_d_st7565.c ****   /* call common procedure first and handle messages there */
1252:..\u8g2\csrc/u8x8_d_st7565.c ****   if ( u8x8_d_st7565_common(u8x8, msg, arg_int, arg_ptr) == 0 )
 1459              		.loc 1 1252 0
 1460 0008 FFF7FEFF 		bl	u8x8_d_st7565_common
 1461              	.LVL131:
 1462 000c 50BB     		cbnz	r0, .L142
 1463 000e 0346     		mov	r3, r0
1253:..\u8g2\csrc/u8x8_d_st7565.c ****   {
1254:..\u8g2\csrc/u8x8_d_st7565.c ****     /* msg not handled, then try here */
1255:..\u8g2\csrc/u8x8_d_st7565.c ****     switch(msg)
 1464              		.loc 1 1255 0
 1465 0010 0A2C     		cmp	r4, #10
 1466 0012 09D0     		beq	.L138
 1467 0014 0D2C     		cmp	r4, #13
 1468 0016 10D0     		beq	.L139
 1469 0018 092C     		cmp	r4, #9
 1470 001a 24D1     		bne	.L137
1256:..\u8g2\csrc/u8x8_d_st7565.c ****     {
1257:..\u8g2\csrc/u8x8_d_st7565.c ****       case U8X8_MSG_DISPLAY_SETUP_MEMORY:
1258:..\u8g2\csrc/u8x8_d_st7565.c **** 	u8x8_d_helper_display_setup_memory(u8x8, &u8x8_st7565_dogm132_display_info);
 1471              		.loc 1 1258 0
 1472 001c 1349     		ldr	r1, .L144
 1473 001e 2846     		mov	r0, r5
 1474 0020 FFF7FEFF 		bl	u8x8_d_helper_display_setup_memory
ARM GAS  C:\Users\brian\AppData\Local\Temp\cc1Lhyrd.s 			page 51


 1475              	.LVL132:
1259:..\u8g2\csrc/u8x8_d_st7565.c **** 	break;
1260:..\u8g2\csrc/u8x8_d_st7565.c ****       case U8X8_MSG_DISPLAY_INIT:
1261:..\u8g2\csrc/u8x8_d_st7565.c **** 	u8x8_d_helper_display_init(u8x8);
1262:..\u8g2\csrc/u8x8_d_st7565.c **** 	u8x8_cad_SendSequence(u8x8, u8x8_d_st7565_dogm132_init_seq);
1263:..\u8g2\csrc/u8x8_d_st7565.c **** 	break;
1264:..\u8g2\csrc/u8x8_d_st7565.c ****       case U8X8_MSG_DISPLAY_SET_FLIP_MODE:
1265:..\u8g2\csrc/u8x8_d_st7565.c **** 	if ( arg_int == 0 )
1266:..\u8g2\csrc/u8x8_d_st7565.c **** 	{
1267:..\u8g2\csrc/u8x8_d_st7565.c **** 	  u8x8_cad_SendSequence(u8x8, u8x8_d_st7565_flip0_seq);
1268:..\u8g2\csrc/u8x8_d_st7565.c **** 	  u8x8->x_offset = u8x8->display_info->default_x_offset;
1269:..\u8g2\csrc/u8x8_d_st7565.c **** 	}
1270:..\u8g2\csrc/u8x8_d_st7565.c **** 	else
1271:..\u8g2\csrc/u8x8_d_st7565.c **** 	{
1272:..\u8g2\csrc/u8x8_d_st7565.c **** 	  u8x8_cad_SendSequence(u8x8, u8x8_d_st7565_flip1_seq);
1273:..\u8g2\csrc/u8x8_d_st7565.c **** 	  u8x8->x_offset = u8x8->display_info->flipmode_x_offset;
1274:..\u8g2\csrc/u8x8_d_st7565.c **** 	}	
1275:..\u8g2\csrc/u8x8_d_st7565.c **** 	break;
1276:..\u8g2\csrc/u8x8_d_st7565.c ****       default:
1277:..\u8g2\csrc/u8x8_d_st7565.c **** 	return 0;		/* msg unknown */
1278:..\u8g2\csrc/u8x8_d_st7565.c ****     }
1279:..\u8g2\csrc/u8x8_d_st7565.c ****   }
1280:..\u8g2\csrc/u8x8_d_st7565.c ****   return 1;
 1476              		.loc 1 1280 0
 1477 0024 0123     		movs	r3, #1
1259:..\u8g2\csrc/u8x8_d_st7565.c **** 	break;
 1478              		.loc 1 1259 0
 1479 0026 1EE0     		b	.L137
 1480              	.L138:
1261:..\u8g2\csrc/u8x8_d_st7565.c **** 	u8x8_cad_SendSequence(u8x8, u8x8_d_st7565_dogm132_init_seq);
 1481              		.loc 1 1261 0
 1482 0028 2846     		mov	r0, r5
 1483 002a FFF7FEFF 		bl	u8x8_d_helper_display_init
 1484              	.LVL133:
1262:..\u8g2\csrc/u8x8_d_st7565.c **** 	break;
 1485              		.loc 1 1262 0
 1486 002e 1049     		ldr	r1, .L144+4
 1487 0030 2846     		mov	r0, r5
 1488 0032 FFF7FEFF 		bl	u8x8_cad_SendSequence
 1489              	.LVL134:
 1490              		.loc 1 1280 0
 1491 0036 0123     		movs	r3, #1
1263:..\u8g2\csrc/u8x8_d_st7565.c ****       case U8X8_MSG_DISPLAY_SET_FLIP_MODE:
 1492              		.loc 1 1263 0
 1493 0038 15E0     		b	.L137
 1494              	.L139:
1265:..\u8g2\csrc/u8x8_d_st7565.c **** 	{
 1495              		.loc 1 1265 0
 1496 003a 4EB9     		cbnz	r6, .L141
1267:..\u8g2\csrc/u8x8_d_st7565.c **** 	  u8x8->x_offset = u8x8->display_info->default_x_offset;
 1497              		.loc 1 1267 0
 1498 003c 0D49     		ldr	r1, .L144+8
 1499 003e 2846     		mov	r0, r5
 1500 0040 FFF7FEFF 		bl	u8x8_cad_SendSequence
 1501              	.LVL135:
1268:..\u8g2\csrc/u8x8_d_st7565.c **** 	}
 1502              		.loc 1 1268 0
ARM GAS  C:\Users\brian\AppData\Local\Temp\cc1Lhyrd.s 			page 52


 1503 0044 2B68     		ldr	r3, [r5]
 1504 0046 9B7C     		ldrb	r3, [r3, #18]	@ zero_extendqisi2
 1505 0048 85F82230 		strb	r3, [r5, #34]
 1506              		.loc 1 1280 0
 1507 004c 0123     		movs	r3, #1
 1508 004e 0AE0     		b	.L137
 1509              	.L141:
1272:..\u8g2\csrc/u8x8_d_st7565.c **** 	  u8x8->x_offset = u8x8->display_info->flipmode_x_offset;
 1510              		.loc 1 1272 0
 1511 0050 0949     		ldr	r1, .L144+12
 1512 0052 2846     		mov	r0, r5
 1513 0054 FFF7FEFF 		bl	u8x8_cad_SendSequence
 1514              	.LVL136:
1273:..\u8g2\csrc/u8x8_d_st7565.c **** 	}	
 1515              		.loc 1 1273 0
 1516 0058 2B68     		ldr	r3, [r5]
 1517 005a DB7C     		ldrb	r3, [r3, #19]	@ zero_extendqisi2
 1518 005c 85F82230 		strb	r3, [r5, #34]
 1519              		.loc 1 1280 0
 1520 0060 0123     		movs	r3, #1
 1521 0062 00E0     		b	.L137
 1522              	.L142:
 1523 0064 0123     		movs	r3, #1
 1524              	.L137:
1281:..\u8g2\csrc/u8x8_d_st7565.c **** }
 1525              		.loc 1 1281 0
 1526 0066 1846     		mov	r0, r3
 1527 0068 70BD     		pop	{r4, r5, r6, pc}
 1528              	.LVL137:
 1529              	.L145:
 1530 006a 00BF     		.align	2
 1531              	.L144:
 1532 006c 78020000 		.word	.LANCHOR0+632
 1533 0070 90020000 		.word	.LANCHOR0+656
 1534 0074 4C000000 		.word	.LANCHOR0+76
 1535 0078 54000000 		.word	.LANCHOR0+84
 1536              		.cfi_endproc
 1537              	.LFE14:
 1538              		.size	u8x8_d_st7565_ea_dogm132, .-u8x8_d_st7565_ea_dogm132
 1539              		.section	.rodata
 1540              		.align	2
 1541              		.set	.LANCHOR0,. + 0
 1542              		.type	u8x8_d_st7565_powersave0_seq, %object
 1543              		.size	u8x8_d_st7565_powersave0_seq, 7
 1544              	u8x8_d_st7565_powersave0_seq:
 1545 0000 18       		.byte	24
 1546 0001 15       		.byte	21
 1547 0002 A4       		.byte	-92
 1548 0003 15       		.byte	21
 1549 0004 AF       		.byte	-81
 1550 0005 19       		.byte	25
 1551 0006 FF       		.byte	-1
 1552 0007 00       		.space	1
 1553              		.type	u8x8_d_st7565_powersave1_seq, %object
 1554              		.size	u8x8_d_st7565_powersave1_seq, 7
 1555              	u8x8_d_st7565_powersave1_seq:
 1556 0008 18       		.byte	24
ARM GAS  C:\Users\brian\AppData\Local\Temp\cc1Lhyrd.s 			page 53


 1557 0009 15       		.byte	21
 1558 000a AE       		.byte	-82
 1559 000b 15       		.byte	21
 1560 000c A5       		.byte	-91
 1561 000d 19       		.byte	25
 1562 000e FF       		.byte	-1
 1563 000f 00       		.space	1
 1564              		.type	u8x8_st7565_128x64_display_info, %object
 1565              		.size	u8x8_st7565_128x64_display_info, 24
 1566              	u8x8_st7565_128x64_display_info:
 1567 0010 00       		.byte	0
 1568 0011 01       		.byte	1
 1569 0012 96       		.byte	-106
 1570 0013 32       		.byte	50
 1571 0014 01       		.byte	1
 1572 0015 01       		.byte	1
 1573 0016 32       		.byte	50
 1574 0017 78       		.byte	120
 1575 0018 00093D00 		.word	4000000
 1576 001c 00       		.byte	0
 1577 001d 04       		.byte	4
 1578 001e 28       		.byte	40
 1579 001f 50       		.byte	80
 1580 0020 10       		.byte	16
 1581 0021 08       		.byte	8
 1582 0022 00       		.byte	0
 1583 0023 04       		.byte	4
 1584 0024 8000     		.short	128
 1585 0026 4000     		.short	64
 1586              		.type	u8x8_d_st7565_dogm128_init_seq, %object
 1587              		.size	u8x8_d_st7565_dogm128_init_seq, 33
 1588              	u8x8_d_st7565_dogm128_init_seq:
 1589 0028 18       		.byte	24
 1590 0029 15       		.byte	21
 1591 002a E2       		.byte	-30
 1592 002b 15       		.byte	21
 1593 002c AE       		.byte	-82
 1594 002d 15       		.byte	21
 1595 002e 40       		.byte	64
 1596 002f 15       		.byte	21
 1597 0030 A1       		.byte	-95
 1598 0031 15       		.byte	21
 1599 0032 C0       		.byte	-64
 1600 0033 15       		.byte	21
 1601 0034 A6       		.byte	-90
 1602 0035 15       		.byte	21
 1603 0036 A2       		.byte	-94
 1604 0037 15       		.byte	21
 1605 0038 2F       		.byte	47
 1606 0039 15       		.byte	21
 1607 003a F8       		.byte	-8
 1608 003b 16       		.byte	22
 1609 003c 00       		.byte	0
 1610 003d 15       		.byte	21
 1611 003e 27       		.byte	39
 1612 003f 15       		.byte	21
 1613 0040 81       		.byte	-127
ARM GAS  C:\Users\brian\AppData\Local\Temp\cc1Lhyrd.s 			page 54


 1614 0041 16       		.byte	22
 1615 0042 18       		.byte	24
 1616 0043 15       		.byte	21
 1617 0044 AE       		.byte	-82
 1618 0045 15       		.byte	21
 1619 0046 A5       		.byte	-91
 1620 0047 19       		.byte	25
 1621 0048 FF       		.byte	-1
 1622 0049 000000   		.space	3
 1623              		.type	u8x8_d_st7565_flip0_seq, %object
 1624              		.size	u8x8_d_st7565_flip0_seq, 7
 1625              	u8x8_d_st7565_flip0_seq:
 1626 004c 18       		.byte	24
 1627 004d 15       		.byte	21
 1628 004e A1       		.byte	-95
 1629 004f 15       		.byte	21
 1630 0050 C0       		.byte	-64
 1631 0051 19       		.byte	25
 1632 0052 FF       		.byte	-1
 1633 0053 00       		.space	1
 1634              		.type	u8x8_d_st7565_flip1_seq, %object
 1635              		.size	u8x8_d_st7565_flip1_seq, 7
 1636              	u8x8_d_st7565_flip1_seq:
 1637 0054 18       		.byte	24
 1638 0055 15       		.byte	21
 1639 0056 A0       		.byte	-96
 1640 0057 15       		.byte	21
 1641 0058 C8       		.byte	-56
 1642 0059 19       		.byte	25
 1643 005a FF       		.byte	-1
 1644 005b 00       		.space	1
 1645              		.type	u8x8_d_st7565_lm6063_init_seq, %object
 1646              		.size	u8x8_d_st7565_lm6063_init_seq, 33
 1647              	u8x8_d_st7565_lm6063_init_seq:
 1648 005c 18       		.byte	24
 1649 005d 15       		.byte	21
 1650 005e E2       		.byte	-30
 1651 005f 15       		.byte	21
 1652 0060 AE       		.byte	-82
 1653 0061 15       		.byte	21
 1654 0062 40       		.byte	64
 1655 0063 15       		.byte	21
 1656 0064 A1       		.byte	-95
 1657 0065 15       		.byte	21
 1658 0066 C0       		.byte	-64
 1659 0067 15       		.byte	21
 1660 0068 A6       		.byte	-90
 1661 0069 15       		.byte	21
 1662 006a A2       		.byte	-94
 1663 006b 15       		.byte	21
 1664 006c 2F       		.byte	47
 1665 006d 15       		.byte	21
 1666 006e F8       		.byte	-8
 1667 006f 16       		.byte	22
 1668 0070 00       		.byte	0
 1669 0071 15       		.byte	21
 1670 0072 27       		.byte	39
ARM GAS  C:\Users\brian\AppData\Local\Temp\cc1Lhyrd.s 			page 55


 1671 0073 15       		.byte	21
 1672 0074 81       		.byte	-127
 1673 0075 16       		.byte	22
 1674 0076 0C       		.byte	12
 1675 0077 15       		.byte	21
 1676 0078 AE       		.byte	-82
 1677 0079 15       		.byte	21
 1678 007a A5       		.byte	-91
 1679 007b 19       		.byte	25
 1680 007c FF       		.byte	-1
 1681 007d 000000   		.space	3
 1682              		.type	u8x8_st7565_64128n_display_info, %object
 1683              		.size	u8x8_st7565_64128n_display_info, 24
 1684              	u8x8_st7565_64128n_display_info:
 1685 0080 00       		.byte	0
 1686 0081 01       		.byte	1
 1687 0082 96       		.byte	-106
 1688 0083 32       		.byte	50
 1689 0084 01       		.byte	1
 1690 0085 01       		.byte	1
 1691 0086 32       		.byte	50
 1692 0087 78       		.byte	120
 1693 0088 00093D00 		.word	4000000
 1694 008c 00       		.byte	0
 1695 008d 04       		.byte	4
 1696 008e 28       		.byte	40
 1697 008f 50       		.byte	80
 1698 0090 10       		.byte	16
 1699 0091 08       		.byte	8
 1700 0092 04       		.byte	4
 1701 0093 00       		.byte	0
 1702 0094 8000     		.short	128
 1703 0096 4000     		.short	64
 1704              		.type	u8x8_d_st7565_64128n_init_seq, %object
 1705              		.size	u8x8_d_st7565_64128n_init_seq, 29
 1706              	u8x8_d_st7565_64128n_init_seq:
 1707 0098 18       		.byte	24
 1708 0099 15       		.byte	21
 1709 009a E2       		.byte	-30
 1710 009b 15       		.byte	21
 1711 009c A2       		.byte	-94
 1712 009d 15       		.byte	21
 1713 009e A1       		.byte	-95
 1714 009f 15       		.byte	21
 1715 00a0 C0       		.byte	-64
 1716 00a1 15       		.byte	21
 1717 00a2 40       		.byte	64
 1718 00a3 15       		.byte	21
 1719 00a4 2C       		.byte	44
 1720 00a5 15       		.byte	21
 1721 00a6 2E       		.byte	46
 1722 00a7 15       		.byte	21
 1723 00a8 2F       		.byte	47
 1724 00a9 15       		.byte	21
 1725 00aa 10       		.byte	16
 1726 00ab 15       		.byte	21
 1727 00ac A6       		.byte	-90
ARM GAS  C:\Users\brian\AppData\Local\Temp\cc1Lhyrd.s 			page 56


 1728 00ad 15       		.byte	21
 1729 00ae 81       		.byte	-127
 1730 00af 15       		.byte	21
 1731 00b0 1E       		.byte	30
 1732 00b1 15       		.byte	21
 1733 00b2 AE       		.byte	-82
 1734 00b3 19       		.byte	25
 1735 00b4 FF       		.byte	-1
 1736 00b5 000000   		.space	3
 1737              		.type	u8x8_d_st7565_zolen_128x64_init_seq, %object
 1738              		.size	u8x8_d_st7565_zolen_128x64_init_seq, 33
 1739              	u8x8_d_st7565_zolen_128x64_init_seq:
 1740 00b8 18       		.byte	24
 1741 00b9 15       		.byte	21
 1742 00ba E2       		.byte	-30
 1743 00bb 15       		.byte	21
 1744 00bc AE       		.byte	-82
 1745 00bd 15       		.byte	21
 1746 00be 40       		.byte	64
 1747 00bf 15       		.byte	21
 1748 00c0 A1       		.byte	-95
 1749 00c1 15       		.byte	21
 1750 00c2 C8       		.byte	-56
 1751 00c3 15       		.byte	21
 1752 00c4 A6       		.byte	-90
 1753 00c5 15       		.byte	21
 1754 00c6 A2       		.byte	-94
 1755 00c7 15       		.byte	21
 1756 00c8 2F       		.byte	47
 1757 00c9 15       		.byte	21
 1758 00ca F8       		.byte	-8
 1759 00cb 16       		.byte	22
 1760 00cc 00       		.byte	0
 1761 00cd 15       		.byte	21
 1762 00ce 27       		.byte	39
 1763 00cf 15       		.byte	21
 1764 00d0 81       		.byte	-127
 1765 00d1 16       		.byte	22
 1766 00d2 07       		.byte	7
 1767 00d3 15       		.byte	21
 1768 00d4 AE       		.byte	-82
 1769 00d5 15       		.byte	21
 1770 00d6 A5       		.byte	-91
 1771 00d7 19       		.byte	25
 1772 00d8 FF       		.byte	-1
 1773 00d9 000000   		.space	3
 1774              		.type	u8x8_d_st7565_zflip0_seq, %object
 1775              		.size	u8x8_d_st7565_zflip0_seq, 7
 1776              	u8x8_d_st7565_zflip0_seq:
 1777 00dc 18       		.byte	24
 1778 00dd 15       		.byte	21
 1779 00de A1       		.byte	-95
 1780 00df 15       		.byte	21
 1781 00e0 C8       		.byte	-56
 1782 00e1 19       		.byte	25
 1783 00e2 FF       		.byte	-1
 1784 00e3 00       		.space	1
ARM GAS  C:\Users\brian\AppData\Local\Temp\cc1Lhyrd.s 			page 57


 1785              		.type	u8x8_d_st7565_zflip1_seq, %object
 1786              		.size	u8x8_d_st7565_zflip1_seq, 7
 1787              	u8x8_d_st7565_zflip1_seq:
 1788 00e4 18       		.byte	24
 1789 00e5 15       		.byte	21
 1790 00e6 A0       		.byte	-96
 1791 00e7 15       		.byte	21
 1792 00e8 C0       		.byte	-64
 1793 00e9 19       		.byte	25
 1794 00ea FF       		.byte	-1
 1795 00eb 00       		.space	1
 1796              		.type	u8x8_st7565_128x32_display_info, %object
 1797              		.size	u8x8_st7565_128x32_display_info, 24
 1798              	u8x8_st7565_128x32_display_info:
 1799 00ec 00       		.byte	0
 1800 00ed 01       		.byte	1
 1801 00ee 96       		.byte	-106
 1802 00ef 32       		.byte	50
 1803 00f0 01       		.byte	1
 1804 00f1 01       		.byte	1
 1805 00f2 32       		.byte	50
 1806 00f3 78       		.byte	120
 1807 00f4 00093D00 		.word	4000000
 1808 00f8 00       		.byte	0
 1809 00f9 04       		.byte	4
 1810 00fa 28       		.byte	40
 1811 00fb 50       		.byte	80
 1812 00fc 10       		.byte	16
 1813 00fd 04       		.byte	4
 1814 00fe 04       		.byte	4
 1815 00ff 00       		.byte	0
 1816 0100 8000     		.short	128
 1817 0102 2000     		.short	32
 1818              		.type	u8x8_d_st7565_nhd_c12832_init_seq, %object
 1819              		.size	u8x8_d_st7565_nhd_c12832_init_seq, 33
 1820              	u8x8_d_st7565_nhd_c12832_init_seq:
 1821 0104 18       		.byte	24
 1822 0105 15       		.byte	21
 1823 0106 E2       		.byte	-30
 1824 0107 15       		.byte	21
 1825 0108 AE       		.byte	-82
 1826 0109 15       		.byte	21
 1827 010a 40       		.byte	64
 1828 010b 15       		.byte	21
 1829 010c A1       		.byte	-95
 1830 010d 15       		.byte	21
 1831 010e C0       		.byte	-64
 1832 010f 15       		.byte	21
 1833 0110 A6       		.byte	-90
 1834 0111 15       		.byte	21
 1835 0112 A2       		.byte	-94
 1836 0113 15       		.byte	21
 1837 0114 2F       		.byte	47
 1838 0115 15       		.byte	21
 1839 0116 F8       		.byte	-8
 1840 0117 16       		.byte	22
 1841 0118 00       		.byte	0
ARM GAS  C:\Users\brian\AppData\Local\Temp\cc1Lhyrd.s 			page 58


 1842 0119 15       		.byte	21
 1843 011a 23       		.byte	35
 1844 011b 15       		.byte	21
 1845 011c 81       		.byte	-127
 1846 011d 16       		.byte	22
 1847 011e 0A       		.byte	10
 1848 011f 15       		.byte	21
 1849 0120 AE       		.byte	-82
 1850 0121 15       		.byte	21
 1851 0122 A5       		.byte	-91
 1852 0123 19       		.byte	25
 1853 0124 FF       		.byte	-1
 1854 0125 000000   		.space	3
 1855              		.type	u8x8_st7565_nhd_c12864_display_info, %object
 1856              		.size	u8x8_st7565_nhd_c12864_display_info, 24
 1857              	u8x8_st7565_nhd_c12864_display_info:
 1858 0128 00       		.byte	0
 1859 0129 01       		.byte	1
 1860 012a 96       		.byte	-106
 1861 012b 32       		.byte	50
 1862 012c 01       		.byte	1
 1863 012d 01       		.byte	1
 1864 012e 32       		.byte	50
 1865 012f 78       		.byte	120
 1866 0130 00093D00 		.word	4000000
 1867 0134 00       		.byte	0
 1868 0135 04       		.byte	4
 1869 0136 28       		.byte	40
 1870 0137 50       		.byte	80
 1871 0138 10       		.byte	16
 1872 0139 08       		.byte	8
 1873 013a 04       		.byte	4
 1874 013b 00       		.byte	0
 1875 013c 8000     		.short	128
 1876 013e 4000     		.short	64
 1877              		.type	u8x8_d_st7565_nhd_c12864_init_seq, %object
 1878              		.size	u8x8_d_st7565_nhd_c12864_init_seq, 33
 1879              	u8x8_d_st7565_nhd_c12864_init_seq:
 1880 0140 18       		.byte	24
 1881 0141 15       		.byte	21
 1882 0142 E2       		.byte	-30
 1883 0143 15       		.byte	21
 1884 0144 AE       		.byte	-82
 1885 0145 15       		.byte	21
 1886 0146 40       		.byte	64
 1887 0147 15       		.byte	21
 1888 0148 A1       		.byte	-95
 1889 0149 15       		.byte	21
 1890 014a C0       		.byte	-64
 1891 014b 15       		.byte	21
 1892 014c A6       		.byte	-90
 1893 014d 15       		.byte	21
 1894 014e A2       		.byte	-94
 1895 014f 15       		.byte	21
 1896 0150 2F       		.byte	47
 1897 0151 15       		.byte	21
 1898 0152 F8       		.byte	-8
ARM GAS  C:\Users\brian\AppData\Local\Temp\cc1Lhyrd.s 			page 59


 1899 0153 16       		.byte	22
 1900 0154 00       		.byte	0
 1901 0155 15       		.byte	21
 1902 0156 23       		.byte	35
 1903 0157 15       		.byte	21
 1904 0158 81       		.byte	-127
 1905 0159 16       		.byte	22
 1906 015a B4       		.byte	-76
 1907 015b 15       		.byte	21
 1908 015c AE       		.byte	-82
 1909 015d 15       		.byte	21
 1910 015e A5       		.byte	-91
 1911 015f 19       		.byte	25
 1912 0160 FF       		.byte	-1
 1913 0161 000000   		.space	3
 1914              		.type	u8x8_st7565_lm6059_display_info, %object
 1915              		.size	u8x8_st7565_lm6059_display_info, 24
 1916              	u8x8_st7565_lm6059_display_info:
 1917 0164 00       		.byte	0
 1918 0165 01       		.byte	1
 1919 0166 96       		.byte	-106
 1920 0167 32       		.byte	50
 1921 0168 01       		.byte	1
 1922 0169 01       		.byte	1
 1923 016a 32       		.byte	50
 1924 016b 78       		.byte	120
 1925 016c 00093D00 		.word	4000000
 1926 0170 00       		.byte	0
 1927 0171 04       		.byte	4
 1928 0172 28       		.byte	40
 1929 0173 50       		.byte	80
 1930 0174 10       		.byte	16
 1931 0175 08       		.byte	8
 1932 0176 01       		.byte	1
 1933 0177 03       		.byte	3
 1934 0178 8000     		.short	128
 1935 017a 4000     		.short	64
 1936              		.type	u8x8_d_st7565_lm6059_init_seq, %object
 1937              		.size	u8x8_d_st7565_lm6059_init_seq, 33
 1938              	u8x8_d_st7565_lm6059_init_seq:
 1939 017c 18       		.byte	24
 1940 017d 15       		.byte	21
 1941 017e E2       		.byte	-30
 1942 017f 15       		.byte	21
 1943 0180 AE       		.byte	-82
 1944 0181 15       		.byte	21
 1945 0182 60       		.byte	96
 1946 0183 15       		.byte	21
 1947 0184 A0       		.byte	-96
 1948 0185 15       		.byte	21
 1949 0186 C8       		.byte	-56
 1950 0187 15       		.byte	21
 1951 0188 A6       		.byte	-90
 1952 0189 15       		.byte	21
 1953 018a A3       		.byte	-93
 1954 018b 15       		.byte	21
 1955 018c 2F       		.byte	47
ARM GAS  C:\Users\brian\AppData\Local\Temp\cc1Lhyrd.s 			page 60


 1956 018d 15       		.byte	21
 1957 018e F8       		.byte	-8
 1958 018f 16       		.byte	22
 1959 0190 00       		.byte	0
 1960 0191 15       		.byte	21
 1961 0192 27       		.byte	39
 1962 0193 15       		.byte	21
 1963 0194 81       		.byte	-127
 1964 0195 16       		.byte	22
 1965 0196 18       		.byte	24
 1966 0197 15       		.byte	21
 1967 0198 AE       		.byte	-82
 1968 0199 15       		.byte	21
 1969 019a A5       		.byte	-91
 1970 019b 19       		.byte	25
 1971 019c FF       		.byte	-1
 1972 019d 000000   		.space	3
 1973              		.type	u8x8_d_st7565_ks0713_init_seq, %object
 1974              		.size	u8x8_d_st7565_ks0713_init_seq, 25
 1975              	u8x8_d_st7565_ks0713_init_seq:
 1976 01a0 18       		.byte	24
 1977 01a1 15       		.byte	21
 1978 01a2 AE       		.byte	-82
 1979 01a3 15       		.byte	21
 1980 01a4 E2       		.byte	-30
 1981 01a5 15       		.byte	21
 1982 01a6 A3       		.byte	-93
 1983 01a7 15       		.byte	21
 1984 01a8 A0       		.byte	-96
 1985 01a9 15       		.byte	21
 1986 01aa C0       		.byte	-64
 1987 01ab 15       		.byte	21
 1988 01ac 2F       		.byte	47
 1989 01ad 15       		.byte	21
 1990 01ae 26       		.byte	38
 1991 01af 15       		.byte	21
 1992 01b0 A6       		.byte	-90
 1993 01b1 15       		.byte	21
 1994 01b2 81       		.byte	-127
 1995 01b3 16       		.byte	22
 1996 01b4 10       		.byte	16
 1997 01b5 15       		.byte	21
 1998 01b6 AF       		.byte	-81
 1999 01b7 19       		.byte	25
 2000 01b8 FF       		.byte	-1
 2001 01b9 000000   		.space	3
 2002              		.type	u8x8_st7565_lx12864_display_info, %object
 2003              		.size	u8x8_st7565_lx12864_display_info, 24
 2004              	u8x8_st7565_lx12864_display_info:
 2005 01bc 00       		.byte	0
 2006 01bd 01       		.byte	1
 2007 01be 96       		.byte	-106
 2008 01bf 32       		.byte	50
 2009 01c0 01       		.byte	1
 2010 01c1 01       		.byte	1
 2011 01c2 32       		.byte	50
 2012 01c3 78       		.byte	120
ARM GAS  C:\Users\brian\AppData\Local\Temp\cc1Lhyrd.s 			page 61


 2013 01c4 00093D00 		.word	4000000
 2014 01c8 00       		.byte	0
 2015 01c9 04       		.byte	4
 2016 01ca 28       		.byte	40
 2017 01cb 50       		.byte	80
 2018 01cc 10       		.byte	16
 2019 01cd 08       		.byte	8
 2020 01ce 01       		.byte	1
 2021 01cf 03       		.byte	3
 2022 01d0 8000     		.short	128
 2023 01d2 4000     		.short	64
 2024              		.type	u8x8_d_st7565_lx12864_init_seq, %object
 2025              		.size	u8x8_d_st7565_lx12864_init_seq, 33
 2026              	u8x8_d_st7565_lx12864_init_seq:
 2027 01d4 18       		.byte	24
 2028 01d5 15       		.byte	21
 2029 01d6 E2       		.byte	-30
 2030 01d7 15       		.byte	21
 2031 01d8 AE       		.byte	-82
 2032 01d9 15       		.byte	21
 2033 01da 60       		.byte	96
 2034 01db 15       		.byte	21
 2035 01dc A0       		.byte	-96
 2036 01dd 15       		.byte	21
 2037 01de C8       		.byte	-56
 2038 01df 15       		.byte	21
 2039 01e0 A6       		.byte	-90
 2040 01e1 15       		.byte	21
 2041 01e2 A2       		.byte	-94
 2042 01e3 15       		.byte	21
 2043 01e4 2F       		.byte	47
 2044 01e5 15       		.byte	21
 2045 01e6 F8       		.byte	-8
 2046 01e7 16       		.byte	22
 2047 01e8 00       		.byte	0
 2048 01e9 15       		.byte	21
 2049 01ea 27       		.byte	39
 2050 01eb 15       		.byte	21
 2051 01ec 81       		.byte	-127
 2052 01ed 16       		.byte	22
 2053 01ee 08       		.byte	8
 2054 01ef 15       		.byte	21
 2055 01f0 AE       		.byte	-82
 2056 01f1 15       		.byte	21
 2057 01f2 A5       		.byte	-91
 2058 01f3 19       		.byte	25
 2059 01f4 FF       		.byte	-1
 2060 01f5 000000   		.space	3
 2061              		.type	u8x8_st7565_erc12864_display_info, %object
 2062              		.size	u8x8_st7565_erc12864_display_info, 24
 2063              	u8x8_st7565_erc12864_display_info:
 2064 01f8 00       		.byte	0
 2065 01f9 01       		.byte	1
 2066 01fa 96       		.byte	-106
 2067 01fb 32       		.byte	50
 2068 01fc 01       		.byte	1
 2069 01fd 01       		.byte	1
ARM GAS  C:\Users\brian\AppData\Local\Temp\cc1Lhyrd.s 			page 62


 2070 01fe 32       		.byte	50
 2071 01ff 78       		.byte	120
 2072 0200 00093D00 		.word	4000000
 2073 0204 00       		.byte	0
 2074 0205 04       		.byte	4
 2075 0206 28       		.byte	40
 2076 0207 50       		.byte	80
 2077 0208 10       		.byte	16
 2078 0209 08       		.byte	8
 2079 020a 00       		.byte	0
 2080 020b 04       		.byte	4
 2081 020c 8000     		.short	128
 2082 020e 4000     		.short	64
 2083              		.type	u8x8_d_st7565_erc12864_init_seq, %object
 2084              		.size	u8x8_d_st7565_erc12864_init_seq, 33
 2085              	u8x8_d_st7565_erc12864_init_seq:
 2086 0210 18       		.byte	24
 2087 0211 15       		.byte	21
 2088 0212 E2       		.byte	-30
 2089 0213 15       		.byte	21
 2090 0214 AE       		.byte	-82
 2091 0215 15       		.byte	21
 2092 0216 40       		.byte	64
 2093 0217 15       		.byte	21
 2094 0218 A0       		.byte	-96
 2095 0219 15       		.byte	21
 2096 021a C8       		.byte	-56
 2097 021b 15       		.byte	21
 2098 021c A6       		.byte	-90
 2099 021d 15       		.byte	21
 2100 021e A3       		.byte	-93
 2101 021f 15       		.byte	21
 2102 0220 2F       		.byte	47
 2103 0221 15       		.byte	21
 2104 0222 F8       		.byte	-8
 2105 0223 16       		.byte	22
 2106 0224 00       		.byte	0
 2107 0225 15       		.byte	21
 2108 0226 27       		.byte	39
 2109 0227 15       		.byte	21
 2110 0228 81       		.byte	-127
 2111 0229 16       		.byte	22
 2112 022a 18       		.byte	24
 2113 022b 15       		.byte	21
 2114 022c AE       		.byte	-82
 2115 022d 15       		.byte	21
 2116 022e A5       		.byte	-91
 2117 022f 19       		.byte	25
 2118 0230 FF       		.byte	-1
 2119 0231 000000   		.space	3
 2120              		.type	u8x8_d_st7565_erc12864_alt_init_seq, %object
 2121              		.size	u8x8_d_st7565_erc12864_alt_init_seq, 33
 2122              	u8x8_d_st7565_erc12864_alt_init_seq:
 2123 0234 18       		.byte	24
 2124 0235 15       		.byte	21
 2125 0236 E2       		.byte	-30
 2126 0237 15       		.byte	21
ARM GAS  C:\Users\brian\AppData\Local\Temp\cc1Lhyrd.s 			page 63


 2127 0238 AE       		.byte	-82
 2128 0239 15       		.byte	21
 2129 023a 40       		.byte	64
 2130 023b 15       		.byte	21
 2131 023c A0       		.byte	-96
 2132 023d 15       		.byte	21
 2133 023e C8       		.byte	-56
 2134 023f 15       		.byte	21
 2135 0240 A6       		.byte	-90
 2136 0241 15       		.byte	21
 2137 0242 A2       		.byte	-94
 2138 0243 15       		.byte	21
 2139 0244 2F       		.byte	47
 2140 0245 15       		.byte	21
 2141 0246 F8       		.byte	-8
 2142 0247 16       		.byte	22
 2143 0248 00       		.byte	0
 2144 0249 15       		.byte	21
 2145 024a 27       		.byte	39
 2146 024b 15       		.byte	21
 2147 024c 81       		.byte	-127
 2148 024d 16       		.byte	22
 2149 024e 05       		.byte	5
 2150 024f 15       		.byte	21
 2151 0250 AE       		.byte	-82
 2152 0251 15       		.byte	21
 2153 0252 A5       		.byte	-91
 2154 0253 19       		.byte	25
 2155 0254 FF       		.byte	-1
 2156 0255 000000   		.space	3
 2157              		.type	u8x8_d_nt7534_tg12864r_init_seq, %object
 2158              		.size	u8x8_d_nt7534_tg12864r_init_seq, 29
 2159              	u8x8_d_nt7534_tg12864r_init_seq:
 2160 0258 18       		.byte	24
 2161 0259 15       		.byte	21
 2162 025a E2       		.byte	-30
 2163 025b 15       		.byte	21
 2164 025c AE       		.byte	-82
 2165 025d 15       		.byte	21
 2166 025e 60       		.byte	96
 2167 025f 15       		.byte	21
 2168 0260 A0       		.byte	-96
 2169 0261 15       		.byte	21
 2170 0262 C8       		.byte	-56
 2171 0263 15       		.byte	21
 2172 0264 A6       		.byte	-90
 2173 0265 15       		.byte	21
 2174 0266 A3       		.byte	-93
 2175 0267 15       		.byte	21
 2176 0268 2F       		.byte	47
 2177 0269 15       		.byte	21
 2178 026a 27       		.byte	39
 2179 026b 15       		.byte	21
 2180 026c 81       		.byte	-127
 2181 026d 16       		.byte	22
 2182 026e 09       		.byte	9
 2183 026f 15       		.byte	21
ARM GAS  C:\Users\brian\AppData\Local\Temp\cc1Lhyrd.s 			page 64


 2184 0270 AE       		.byte	-82
 2185 0271 15       		.byte	21
 2186 0272 A5       		.byte	-91
 2187 0273 19       		.byte	25
 2188 0274 FF       		.byte	-1
 2189 0275 000000   		.space	3
 2190              		.type	u8x8_st7565_dogm132_display_info, %object
 2191              		.size	u8x8_st7565_dogm132_display_info, 24
 2192              	u8x8_st7565_dogm132_display_info:
 2193 0278 00       		.byte	0
 2194 0279 01       		.byte	1
 2195 027a 96       		.byte	-106
 2196 027b 32       		.byte	50
 2197 027c 01       		.byte	1
 2198 027d 01       		.byte	1
 2199 027e 32       		.byte	50
 2200 027f 78       		.byte	120
 2201 0280 00093D00 		.word	4000000
 2202 0284 00       		.byte	0
 2203 0285 04       		.byte	4
 2204 0286 28       		.byte	40
 2205 0287 50       		.byte	80
 2206 0288 11       		.byte	17
 2207 0289 04       		.byte	4
 2208 028a 00       		.byte	0
 2209 028b 00       		.byte	0
 2210 028c 8400     		.short	132
 2211 028e 2000     		.short	32
 2212              		.type	u8x8_d_st7565_dogm132_init_seq, %object
 2213              		.size	u8x8_d_st7565_dogm132_init_seq, 33
 2214              	u8x8_d_st7565_dogm132_init_seq:
 2215 0290 18       		.byte	24
 2216 0291 15       		.byte	21
 2217 0292 E2       		.byte	-30
 2218 0293 15       		.byte	21
 2219 0294 AE       		.byte	-82
 2220 0295 15       		.byte	21
 2221 0296 40       		.byte	64
 2222 0297 15       		.byte	21
 2223 0298 A1       		.byte	-95
 2224 0299 15       		.byte	21
 2225 029a C0       		.byte	-64
 2226 029b 15       		.byte	21
 2227 029c A6       		.byte	-90
 2228 029d 15       		.byte	21
 2229 029e A2       		.byte	-94
 2230 029f 15       		.byte	21
 2231 02a0 2F       		.byte	47
 2232 02a1 15       		.byte	21
 2233 02a2 F8       		.byte	-8
 2234 02a3 16       		.byte	22
 2235 02a4 00       		.byte	0
 2236 02a5 15       		.byte	21
 2237 02a6 23       		.byte	35
 2238 02a7 15       		.byte	21
 2239 02a8 81       		.byte	-127
 2240 02a9 16       		.byte	22
ARM GAS  C:\Users\brian\AppData\Local\Temp\cc1Lhyrd.s 			page 65


 2241 02aa 1F       		.byte	31
 2242 02ab 15       		.byte	21
 2243 02ac AE       		.byte	-82
 2244 02ad 15       		.byte	21
 2245 02ae A5       		.byte	-91
 2246 02af 19       		.byte	25
 2247 02b0 FF       		.byte	-1
 2248              		.text
 2249              	.Letext0:
 2250              		.file 2 "c:\\program files (x86)\\cypress\\psoc creator\\4.4\\psoc creator\\import\\gnu\\arm\\5.4.
 2251              		.file 3 "c:\\program files (x86)\\cypress\\psoc creator\\4.4\\psoc creator\\import\\gnu\\arm\\5.4.
 2252              		.file 4 "..\\u8g2\\csrc\\u8x8.h"