ARM GAS  C:\Users\brian\AppData\Local\Temp\ccER9KKd.s 			page 1


   1              		.syntax unified
   2              		.cpu cortex-m3
   3              		.fpu softvfp
   4              		.eabi_attribute 20, 1
   5              		.eabi_attribute 21, 1
   6              		.eabi_attribute 23, 3
   7              		.eabi_attribute 24, 1
   8              		.eabi_attribute 25, 1
   9              		.eabi_attribute 26, 1
  10              		.eabi_attribute 30, 1
  11              		.eabi_attribute 34, 1
  12              		.eabi_attribute 18, 4
  13              		.thumb
  14              		.syntax unified
  15              		.file	"u8x8_d_ks0108.c"
  16              		.text
  17              	.Ltext0:
  18              		.cfi_sections	.debug_frame
  19              		.section	.text.u8x8_ks0108_out,"ax",%progbits
  20              		.align	2
  21              		.thumb
  22              		.thumb_func
  23              		.type	u8x8_ks0108_out, %function
  24              	u8x8_ks0108_out:
  25              	.LFB0:
  26              		.file 1 "..\\u8g2\\csrc\\u8x8_d_ks0108.c"
   1:..\u8g2\csrc/u8x8_d_ks0108.c **** /*
   2:..\u8g2\csrc/u8x8_d_ks0108.c **** 
   3:..\u8g2\csrc/u8x8_d_ks0108.c ****   u8x8_d_ks0108.c 
   4:..\u8g2\csrc/u8x8_d_ks0108.c ****   
   5:..\u8g2\csrc/u8x8_d_ks0108.c ****   The classic 5V LCD
   6:..\u8g2\csrc/u8x8_d_ks0108.c ****   
   7:..\u8g2\csrc/u8x8_d_ks0108.c ****   Universal 8bit Graphics Library (https://github.com/olikraus/u8g2/)
   8:..\u8g2\csrc/u8x8_d_ks0108.c **** 
   9:..\u8g2\csrc/u8x8_d_ks0108.c ****   Copyright (c) 2016, olikraus@gmail.com
  10:..\u8g2\csrc/u8x8_d_ks0108.c ****   All rights reserved.
  11:..\u8g2\csrc/u8x8_d_ks0108.c **** 
  12:..\u8g2\csrc/u8x8_d_ks0108.c ****   Redistribution and use in source and binary forms, with or without modification, 
  13:..\u8g2\csrc/u8x8_d_ks0108.c ****   are permitted provided that the following conditions are met:
  14:..\u8g2\csrc/u8x8_d_ks0108.c **** 
  15:..\u8g2\csrc/u8x8_d_ks0108.c ****   * Redistributions of source code must retain the above copyright notice, this list 
  16:..\u8g2\csrc/u8x8_d_ks0108.c ****     of conditions and the following disclaimer.
  17:..\u8g2\csrc/u8x8_d_ks0108.c ****     
  18:..\u8g2\csrc/u8x8_d_ks0108.c ****   * Redistributions in binary form must reproduce the above copyright notice, this 
  19:..\u8g2\csrc/u8x8_d_ks0108.c ****     list of conditions and the following disclaimer in the documentation and/or other 
  20:..\u8g2\csrc/u8x8_d_ks0108.c ****     materials provided with the distribution.
  21:..\u8g2\csrc/u8x8_d_ks0108.c **** 
  22:..\u8g2\csrc/u8x8_d_ks0108.c ****   THIS SOFTWARE IS PROVIDED BY THE COPYRIGHT HOLDERS AND 
  23:..\u8g2\csrc/u8x8_d_ks0108.c ****   CONTRIBUTORS "AS IS" AND ANY EXPRESS OR IMPLIED WARRANTIES, 
  24:..\u8g2\csrc/u8x8_d_ks0108.c ****   INCLUDING, BUT NOT LIMITED TO, THE IMPLIED WARRANTIES OF 
  25:..\u8g2\csrc/u8x8_d_ks0108.c ****   MERCHANTABILITY AND FITNESS FOR A PARTICULAR PURPOSE ARE 
  26:..\u8g2\csrc/u8x8_d_ks0108.c ****   DISCLAIMED. IN NO EVENT SHALL THE COPYRIGHT HOLDER OR 
  27:..\u8g2\csrc/u8x8_d_ks0108.c ****   CONTRIBUTORS BE LIABLE FOR ANY DIRECT, INDIRECT, INCIDENTAL, 
  28:..\u8g2\csrc/u8x8_d_ks0108.c ****   SPECIAL, EXEMPLARY, OR CONSEQUENTIAL DAMAGES (INCLUDING, BUT 
  29:..\u8g2\csrc/u8x8_d_ks0108.c ****   NOT LIMITED TO, PROCUREMENT OF SUBSTITUTE GOODS OR SERVICES; 
  30:..\u8g2\csrc/u8x8_d_ks0108.c ****   LOSS OF USE, DATA, OR PROFITS; OR BUSINESS INTERRUPTION) HOWEVER 
  31:..\u8g2\csrc/u8x8_d_ks0108.c ****   CAUSED AND ON ANY THEORY OF LIABILITY, WHETHER IN CONTRACT, 
ARM GAS  C:\Users\brian\AppData\Local\Temp\ccER9KKd.s 			page 2


  32:..\u8g2\csrc/u8x8_d_ks0108.c ****   STRICT LIABILITY, OR TORT (INCLUDING NEGLIGENCE OR OTHERWISE) 
  33:..\u8g2\csrc/u8x8_d_ks0108.c ****   ARISING IN ANY WAY OUT OF THE USE OF THIS SOFTWARE, EVEN IF 
  34:..\u8g2\csrc/u8x8_d_ks0108.c ****   ADVISED OF THE POSSIBILITY OF SUCH DAMAGE.  
  35:..\u8g2\csrc/u8x8_d_ks0108.c **** 
  36:..\u8g2\csrc/u8x8_d_ks0108.c ****   
  37:..\u8g2\csrc/u8x8_d_ks0108.c **** */
  38:..\u8g2\csrc/u8x8_d_ks0108.c **** #include "u8x8.h"
  39:..\u8g2\csrc/u8x8_d_ks0108.c **** 
  40:..\u8g2\csrc/u8x8_d_ks0108.c **** 
  41:..\u8g2\csrc/u8x8_d_ks0108.c **** 
  42:..\u8g2\csrc/u8x8_d_ks0108.c **** 
  43:..\u8g2\csrc/u8x8_d_ks0108.c **** static const uint8_t u8x8_d_ks0108_init_seq[] = {
  44:..\u8g2\csrc/u8x8_d_ks0108.c ****   U8X8_C(0x0c0),		                /* start at the top  */  
  45:..\u8g2\csrc/u8x8_d_ks0108.c ****   U8X8_END()             			/* end of sequence */
  46:..\u8g2\csrc/u8x8_d_ks0108.c **** };
  47:..\u8g2\csrc/u8x8_d_ks0108.c **** 
  48:..\u8g2\csrc/u8x8_d_ks0108.c **** static const uint8_t u8x8_d_ks0108_powersave0_seq[] = {
  49:..\u8g2\csrc/u8x8_d_ks0108.c ****   U8X8_C(0x03f),		                /* display on */
  50:..\u8g2\csrc/u8x8_d_ks0108.c ****   U8X8_END()             			/* end of sequence */
  51:..\u8g2\csrc/u8x8_d_ks0108.c **** };
  52:..\u8g2\csrc/u8x8_d_ks0108.c **** 
  53:..\u8g2\csrc/u8x8_d_ks0108.c **** static const uint8_t u8x8_d_ks0108_powersave1_seq[] = {
  54:..\u8g2\csrc/u8x8_d_ks0108.c ****   U8X8_C(0x03e),		                /* display off */
  55:..\u8g2\csrc/u8x8_d_ks0108.c ****   U8X8_END()             			/* end of sequence */
  56:..\u8g2\csrc/u8x8_d_ks0108.c **** };
  57:..\u8g2\csrc/u8x8_d_ks0108.c **** 
  58:..\u8g2\csrc/u8x8_d_ks0108.c **** 
  59:..\u8g2\csrc/u8x8_d_ks0108.c **** struct u8x8_ks0108_vars
  60:..\u8g2\csrc/u8x8_d_ks0108.c **** {
  61:..\u8g2\csrc/u8x8_d_ks0108.c ****   uint8_t *ptr;
  62:..\u8g2\csrc/u8x8_d_ks0108.c ****   uint8_t x;
  63:..\u8g2\csrc/u8x8_d_ks0108.c ****   uint8_t c;
  64:..\u8g2\csrc/u8x8_d_ks0108.c ****   uint8_t arg_int;
  65:..\u8g2\csrc/u8x8_d_ks0108.c **** };
  66:..\u8g2\csrc/u8x8_d_ks0108.c **** 
  67:..\u8g2\csrc/u8x8_d_ks0108.c **** static void u8x8_ks0108_out(u8x8_t *u8x8, struct u8x8_ks0108_vars *v, void *arg_ptr)
  68:..\u8g2\csrc/u8x8_d_ks0108.c **** {
  27              		.loc 1 68 0
  28              		.cfi_startproc
  29              		@ args = 0, pretend = 0, frame = 0
  30              		@ frame_needed = 0, uses_anonymous_args = 0
  31              	.LVL0:
  32 0000 F8B5     		push	{r3, r4, r5, r6, r7, lr}
  33              		.cfi_def_cfa_offset 24
  34              		.cfi_offset 3, -24
  35              		.cfi_offset 4, -20
  36              		.cfi_offset 5, -16
  37              		.cfi_offset 6, -12
  38              		.cfi_offset 7, -8
  39              		.cfi_offset 14, -4
  40 0002 0646     		mov	r6, r0
  41 0004 0D46     		mov	r5, r1
  42 0006 1746     		mov	r7, r2
  69:..\u8g2\csrc/u8x8_d_ks0108.c ****   uint8_t cnt;
  70:..\u8g2\csrc/u8x8_d_ks0108.c ****   u8x8_cad_SendCmd(u8x8, 0x040 | ((v->x << 3) & 63) );
  43              		.loc 1 70 0
  44 0008 0979     		ldrb	r1, [r1, #4]	@ zero_extendqisi2
ARM GAS  C:\Users\brian\AppData\Local\Temp\ccER9KKd.s 			page 3


  45              	.LVL1:
  46 000a C900     		lsls	r1, r1, #3
  47 000c 01F03F01 		and	r1, r1, #63
  48 0010 41F04001 		orr	r1, r1, #64
  49 0014 FFF7FEFF 		bl	u8x8_cad_SendCmd
  50              	.LVL2:
  71:..\u8g2\csrc/u8x8_d_ks0108.c ****   u8x8_cad_SendCmd(u8x8, 0x0b8 | (((u8x8_tile_t *)arg_ptr)->y_pos));
  51              		.loc 1 71 0
  52 0018 B979     		ldrb	r1, [r7, #6]	@ zero_extendqisi2
  53 001a 41F0B801 		orr	r1, r1, #184
  54 001e 3046     		mov	r0, r6
  55 0020 FFF7FEFF 		bl	u8x8_cad_SendCmd
  56              	.LVL3:
  72:..\u8g2\csrc/u8x8_d_ks0108.c ****   
  73:..\u8g2\csrc/u8x8_d_ks0108.c ****   while( v->arg_int > 0 )
  57              		.loc 1 73 0
  58 0024 25E0     		b	.L2
  59              	.L6:
  74:..\u8g2\csrc/u8x8_d_ks0108.c ****   {
  75:..\u8g2\csrc/u8x8_d_ks0108.c ****       /* calculate tiles to next boundary (end or chip limit) */
  76:..\u8g2\csrc/u8x8_d_ks0108.c ****       cnt = v->x;
  60              		.loc 1 76 0
  61 0026 2B79     		ldrb	r3, [r5, #4]	@ zero_extendqisi2
  62              	.LVL4:
  77:..\u8g2\csrc/u8x8_d_ks0108.c ****       cnt += 8;
  63              		.loc 1 77 0
  64 0028 03F10801 		add	r1, r3, #8
  65              	.LVL5:
  78:..\u8g2\csrc/u8x8_d_ks0108.c ****       cnt &= 0x0f8;
  66              		.loc 1 78 0
  67 002c 01F0F801 		and	r1, r1, #248
  68              	.LVL6:
  79:..\u8g2\csrc/u8x8_d_ks0108.c ****       cnt -= v->x;
  69              		.loc 1 79 0
  70 0030 C91A     		subs	r1, r1, r3
  71              	.LVL7:
  72 0032 C9B2     		uxtb	r1, r1
  73              	.LVL8:
  80:..\u8g2\csrc/u8x8_d_ks0108.c ****             
  81:..\u8g2\csrc/u8x8_d_ks0108.c ****       if ( cnt > v->c )
  74              		.loc 1 81 0
  75 0034 6A79     		ldrb	r2, [r5, #5]	@ zero_extendqisi2
  76 0036 9142     		cmp	r1, r2
  77 0038 00D9     		bls	.L3
  82:..\u8g2\csrc/u8x8_d_ks0108.c **** 	cnt = v->c;
  78              		.loc 1 82 0
  79 003a 1146     		mov	r1, r2
  80              	.LVL9:
  81              	.L3:
  83:..\u8g2\csrc/u8x8_d_ks0108.c ****     
  84:..\u8g2\csrc/u8x8_d_ks0108.c ****       /* of cours we still could use cnt=1 here... */
  85:..\u8g2\csrc/u8x8_d_ks0108.c ****       /* but setting cnt to 1 is not very efficient */
  86:..\u8g2\csrc/u8x8_d_ks0108.c ****       //cnt = 1;
  87:..\u8g2\csrc/u8x8_d_ks0108.c ****     
  88:..\u8g2\csrc/u8x8_d_ks0108.c ****       v->x +=cnt;
  82              		.loc 1 88 0
  83 003c 0B44     		add	r3, r3, r1
ARM GAS  C:\Users\brian\AppData\Local\Temp\ccER9KKd.s 			page 4


  84 003e 2B71     		strb	r3, [r5, #4]
  89:..\u8g2\csrc/u8x8_d_ks0108.c ****       v->c-=cnt;
  85              		.loc 1 89 0
  86 0040 521A     		subs	r2, r2, r1
  87 0042 6A71     		strb	r2, [r5, #5]
  90:..\u8g2\csrc/u8x8_d_ks0108.c ****       cnt<<=3;
  88              		.loc 1 90 0
  89 0044 C900     		lsls	r1, r1, #3
  90              	.LVL10:
  91 0046 CCB2     		uxtb	r4, r1
  92              	.LVL11:
  91:..\u8g2\csrc/u8x8_d_ks0108.c ****       u8x8_cad_SendData(u8x8, cnt, v->ptr);	/* note: SendData can not handle more than 255 bytes */
  93              		.loc 1 91 0
  94 0048 2A68     		ldr	r2, [r5]
  95 004a 2146     		mov	r1, r4
  96 004c 3046     		mov	r0, r6
  97 004e FFF7FEFF 		bl	u8x8_cad_SendData
  98              	.LVL12:
  92:..\u8g2\csrc/u8x8_d_ks0108.c ****       v->ptr += cnt;
  99              		.loc 1 92 0
 100 0052 2968     		ldr	r1, [r5]
 101 0054 0C44     		add	r4, r4, r1
 102              	.LVL13:
 103 0056 2C60     		str	r4, [r5]
  93:..\u8g2\csrc/u8x8_d_ks0108.c ****     
  94:..\u8g2\csrc/u8x8_d_ks0108.c ****       if ( v->c == 0 )
 104              		.loc 1 94 0
 105 0058 6B79     		ldrb	r3, [r5, #5]	@ zero_extendqisi2
 106 005a 33B9     		cbnz	r3, .L4
  95:..\u8g2\csrc/u8x8_d_ks0108.c ****       {
  96:..\u8g2\csrc/u8x8_d_ks0108.c **** 	v->ptr = ((u8x8_tile_t *)arg_ptr)->tile_ptr;
 107              		.loc 1 96 0
 108 005c 3B68     		ldr	r3, [r7]
 109 005e 2B60     		str	r3, [r5]
  97:..\u8g2\csrc/u8x8_d_ks0108.c **** 	v->c = ((u8x8_tile_t *)arg_ptr)->cnt;
 110              		.loc 1 97 0
 111 0060 3B79     		ldrb	r3, [r7, #4]	@ zero_extendqisi2
 112 0062 6B71     		strb	r3, [r5, #5]
  98:..\u8g2\csrc/u8x8_d_ks0108.c **** 	v->arg_int--;
 113              		.loc 1 98 0
 114 0064 AB79     		ldrb	r3, [r5, #6]	@ zero_extendqisi2
 115 0066 013B     		subs	r3, r3, #1
 116 0068 AB71     		strb	r3, [r5, #6]
 117              	.L4:
  99:..\u8g2\csrc/u8x8_d_ks0108.c ****       }
 100:..\u8g2\csrc/u8x8_d_ks0108.c ****       if ( ((v->x) & 7) == 0 )
 118              		.loc 1 100 0
 119 006a 2B79     		ldrb	r3, [r5, #4]	@ zero_extendqisi2
 120 006c 13F0070F 		tst	r3, #7
 121 0070 02D0     		beq	.L1
 122              	.L2:
  73:..\u8g2\csrc/u8x8_d_ks0108.c ****   {
 123              		.loc 1 73 0
 124 0072 AB79     		ldrb	r3, [r5, #6]	@ zero_extendqisi2
 125 0074 002B     		cmp	r3, #0
 126 0076 D6D1     		bne	.L6
 127              	.L1:
ARM GAS  C:\Users\brian\AppData\Local\Temp\ccER9KKd.s 			page 5


 128 0078 F8BD     		pop	{r3, r4, r5, r6, r7, pc}
 129              		.cfi_endproc
 130              	.LFE0:
 131              		.size	u8x8_ks0108_out, .-u8x8_ks0108_out
 132 007a 00BF     		.section	.text.u8x8_d_ks0108_128x64,"ax",%progbits
 133              		.align	2
 134              		.global	u8x8_d_ks0108_128x64
 135              		.thumb
 136              		.thumb_func
 137              		.type	u8x8_d_ks0108_128x64, %function
 138              	u8x8_d_ks0108_128x64:
 139              	.LFB1:
 101:..\u8g2\csrc/u8x8_d_ks0108.c **** 	break;       
 102:..\u8g2\csrc/u8x8_d_ks0108.c ****   } 
 103:..\u8g2\csrc/u8x8_d_ks0108.c **** }
 104:..\u8g2\csrc/u8x8_d_ks0108.c **** 
 105:..\u8g2\csrc/u8x8_d_ks0108.c **** 
 106:..\u8g2\csrc/u8x8_d_ks0108.c **** static const u8x8_display_info_t u8x8_ks0108_128x64_display_info =
 107:..\u8g2\csrc/u8x8_d_ks0108.c **** {
 108:..\u8g2\csrc/u8x8_d_ks0108.c ****   /* chip_enable_level = */ 0,		/* KS0108: Not used */
 109:..\u8g2\csrc/u8x8_d_ks0108.c ****   /* chip_disable_level = */ 1,		/* KS0108: Not used */
 110:..\u8g2\csrc/u8x8_d_ks0108.c ****   
 111:..\u8g2\csrc/u8x8_d_ks0108.c ****   /* post_chip_enable_wait_ns = */ 100,
 112:..\u8g2\csrc/u8x8_d_ks0108.c ****   /* pre_chip_disable_wait_ns = */ 20,
 113:..\u8g2\csrc/u8x8_d_ks0108.c ****   /* reset_pulse_width_ms = */ 1, 
 114:..\u8g2\csrc/u8x8_d_ks0108.c ****   /* post_reset_wait_ms = */ 6, 		/* could be faster for the KS0108 */
 115:..\u8g2\csrc/u8x8_d_ks0108.c ****   /* sda_setup_time_ns = */ 12,		
 116:..\u8g2\csrc/u8x8_d_ks0108.c ****   /* sck_pulse_width_ns = */ 75,	/* KS0108: Not used */
 117:..\u8g2\csrc/u8x8_d_ks0108.c ****   /* sck_clock_hz = */ 4000000UL,	/* KS0108: Not used */
 118:..\u8g2\csrc/u8x8_d_ks0108.c ****   /* spi_mode = */ 0,				/* active high, rising edge */
 119:..\u8g2\csrc/u8x8_d_ks0108.c ****   /* i2c_bus_clock_100kHz = */ 4,	/* KS0108: Not used */
 120:..\u8g2\csrc/u8x8_d_ks0108.c ****   /* data_setup_time_ns = */ 200,
 121:..\u8g2\csrc/u8x8_d_ks0108.c ****   /* write_pulse_width_ns = */ 250,	/* KS0108: actially 450 ns, but additional 200 ns are added by 
 122:..\u8g2\csrc/u8x8_d_ks0108.c ****   /* tile_width = */ 16,		/* width of 16*8=128 pixel */
 123:..\u8g2\csrc/u8x8_d_ks0108.c ****   /* tile_hight = */ 8,
 124:..\u8g2\csrc/u8x8_d_ks0108.c ****   /* default_x_offset = */ 0,
 125:..\u8g2\csrc/u8x8_d_ks0108.c ****   /* flipmode_x_offset = */ 0,
 126:..\u8g2\csrc/u8x8_d_ks0108.c ****   /* pixel_width = */ 128,
 127:..\u8g2\csrc/u8x8_d_ks0108.c ****   /* pixel_height = */ 64
 128:..\u8g2\csrc/u8x8_d_ks0108.c **** };
 129:..\u8g2\csrc/u8x8_d_ks0108.c **** 
 130:..\u8g2\csrc/u8x8_d_ks0108.c **** uint8_t u8x8_d_ks0108_128x64(u8x8_t *u8x8, uint8_t msg, uint8_t arg_int, void *arg_ptr)
 131:..\u8g2\csrc/u8x8_d_ks0108.c **** {
 140              		.loc 1 131 0
 141              		.cfi_startproc
 142              		@ args = 0, pretend = 0, frame = 8
 143              		@ frame_needed = 0, uses_anonymous_args = 0
 144              	.LVL14:
 145 0000 70B5     		push	{r4, r5, r6, lr}
 146              		.cfi_def_cfa_offset 16
 147              		.cfi_offset 4, -16
 148              		.cfi_offset 5, -12
 149              		.cfi_offset 6, -8
 150              		.cfi_offset 14, -4
 151 0002 82B0     		sub	sp, sp, #8
 152              		.cfi_def_cfa_offset 24
 153 0004 0446     		mov	r4, r0
ARM GAS  C:\Users\brian\AppData\Local\Temp\ccER9KKd.s 			page 6


 154 0006 1D46     		mov	r5, r3
 132:..\u8g2\csrc/u8x8_d_ks0108.c ****   struct u8x8_ks0108_vars v;
 133:..\u8g2\csrc/u8x8_d_ks0108.c ****   switch(msg)
 155              		.loc 1 133 0
 156 0008 0939     		subs	r1, r1, #9
 157              	.LVL15:
 158 000a 0629     		cmp	r1, #6
 159 000c 00F2A880 		bhi	.L18
 160 0010 DFE801F0 		tbb	[pc, r1]
 161              	.LVL16:
 162              	.L12:
 163 0014 04       		.byte	(.L11-.L12)/2
 164 0015 09       		.byte	(.L13-.L12)/2
 165 0016 2E       		.byte	(.L14-.L12)/2
 166 0017 A6       		.byte	(.L18-.L12)/2
 167 0018 A6       		.byte	(.L18-.L12)/2
 168 0019 A6       		.byte	(.L18-.L12)/2
 169 001a 73       		.byte	(.L15-.L12)/2
 170 001b 00       		.p2align 1
 171              	.L11:
 134:..\u8g2\csrc/u8x8_d_ks0108.c ****   {
 135:..\u8g2\csrc/u8x8_d_ks0108.c ****     case U8X8_MSG_DISPLAY_SETUP_MEMORY:
 136:..\u8g2\csrc/u8x8_d_ks0108.c ****       u8x8_d_helper_display_setup_memory(u8x8, &u8x8_ks0108_128x64_display_info);
 172              		.loc 1 136 0
 173 001c 5349     		ldr	r1, .L21
 174 001e FFF7FEFF 		bl	u8x8_d_helper_display_setup_memory
 175              	.LVL17:
 137:..\u8g2\csrc/u8x8_d_ks0108.c ****       break;
 138:..\u8g2\csrc/u8x8_d_ks0108.c ****     case U8X8_MSG_DISPLAY_INIT:
 139:..\u8g2\csrc/u8x8_d_ks0108.c ****       u8x8_d_helper_display_init(u8x8);
 140:..\u8g2\csrc/u8x8_d_ks0108.c ****     
 141:..\u8g2\csrc/u8x8_d_ks0108.c ****       u8x8->cad_cb(u8x8, U8X8_MSG_CAD_START_TRANSFER, 1, NULL);
 142:..\u8g2\csrc/u8x8_d_ks0108.c ****       u8x8_cad_SendSequence(u8x8, u8x8_d_ks0108_init_seq);
 143:..\u8g2\csrc/u8x8_d_ks0108.c ****       u8x8->cad_cb(u8x8, U8X8_MSG_CAD_END_TRANSFER, 0, NULL);
 144:..\u8g2\csrc/u8x8_d_ks0108.c ****     
 145:..\u8g2\csrc/u8x8_d_ks0108.c ****       u8x8->cad_cb(u8x8, U8X8_MSG_CAD_START_TRANSFER, 2, NULL);
 146:..\u8g2\csrc/u8x8_d_ks0108.c ****       u8x8_cad_SendSequence(u8x8, u8x8_d_ks0108_init_seq);
 147:..\u8g2\csrc/u8x8_d_ks0108.c ****       u8x8->cad_cb(u8x8, U8X8_MSG_CAD_END_TRANSFER, 0, NULL);
 148:..\u8g2\csrc/u8x8_d_ks0108.c ****       break;
 149:..\u8g2\csrc/u8x8_d_ks0108.c ****     case U8X8_MSG_DISPLAY_SET_POWER_SAVE:
 150:..\u8g2\csrc/u8x8_d_ks0108.c ****       
 151:..\u8g2\csrc/u8x8_d_ks0108.c ****       if ( arg_int == 0 )
 152:..\u8g2\csrc/u8x8_d_ks0108.c ****       {
 153:..\u8g2\csrc/u8x8_d_ks0108.c **** 	u8x8->cad_cb(u8x8, U8X8_MSG_CAD_START_TRANSFER, 1, NULL);
 154:..\u8g2\csrc/u8x8_d_ks0108.c **** 	u8x8_cad_SendSequence(u8x8, u8x8_d_ks0108_powersave0_seq);
 155:..\u8g2\csrc/u8x8_d_ks0108.c **** 	u8x8->cad_cb(u8x8, U8X8_MSG_CAD_END_TRANSFER, 0, NULL);
 156:..\u8g2\csrc/u8x8_d_ks0108.c **** 
 157:..\u8g2\csrc/u8x8_d_ks0108.c **** 	u8x8->cad_cb(u8x8, U8X8_MSG_CAD_START_TRANSFER, 2, NULL);
 158:..\u8g2\csrc/u8x8_d_ks0108.c **** 	u8x8_cad_SendSequence(u8x8, u8x8_d_ks0108_powersave0_seq);
 159:..\u8g2\csrc/u8x8_d_ks0108.c **** 	u8x8->cad_cb(u8x8, U8X8_MSG_CAD_END_TRANSFER, 0, NULL);
 160:..\u8g2\csrc/u8x8_d_ks0108.c **** 	
 161:..\u8g2\csrc/u8x8_d_ks0108.c ****       }
 162:..\u8g2\csrc/u8x8_d_ks0108.c ****       else
 163:..\u8g2\csrc/u8x8_d_ks0108.c ****       {
 164:..\u8g2\csrc/u8x8_d_ks0108.c **** 	u8x8->cad_cb(u8x8, U8X8_MSG_CAD_START_TRANSFER, 1, NULL);
 165:..\u8g2\csrc/u8x8_d_ks0108.c **** 	u8x8_cad_SendSequence(u8x8, u8x8_d_ks0108_powersave1_seq);
 166:..\u8g2\csrc/u8x8_d_ks0108.c **** 	u8x8->cad_cb(u8x8, U8X8_MSG_CAD_END_TRANSFER, 0, NULL);
ARM GAS  C:\Users\brian\AppData\Local\Temp\ccER9KKd.s 			page 7


 167:..\u8g2\csrc/u8x8_d_ks0108.c **** 	
 168:..\u8g2\csrc/u8x8_d_ks0108.c **** 	u8x8->cad_cb(u8x8, U8X8_MSG_CAD_START_TRANSFER, 2, NULL);
 169:..\u8g2\csrc/u8x8_d_ks0108.c **** 	u8x8_cad_SendSequence(u8x8, u8x8_d_ks0108_powersave1_seq);
 170:..\u8g2\csrc/u8x8_d_ks0108.c **** 	u8x8->cad_cb(u8x8, U8X8_MSG_CAD_END_TRANSFER, 0, NULL);
 171:..\u8g2\csrc/u8x8_d_ks0108.c **** 	
 172:..\u8g2\csrc/u8x8_d_ks0108.c ****       }
 173:..\u8g2\csrc/u8x8_d_ks0108.c ****       break;
 174:..\u8g2\csrc/u8x8_d_ks0108.c **** // The KS0108 can not mirror the cols and rows, use U8g2 for rotation
 175:..\u8g2\csrc/u8x8_d_ks0108.c **** //    case U8X8_MSG_DISPLAY_SET_FLIP_MODE:
 176:..\u8g2\csrc/u8x8_d_ks0108.c **** //      break;
 177:..\u8g2\csrc/u8x8_d_ks0108.c **** // The KS0108 has no internal contrast command
 178:..\u8g2\csrc/u8x8_d_ks0108.c **** //    case U8X8_MSG_DISPLAY_SET_CONTRAST:
 179:..\u8g2\csrc/u8x8_d_ks0108.c **** //      break;
 180:..\u8g2\csrc/u8x8_d_ks0108.c ****     case U8X8_MSG_DISPLAY_DRAW_TILE:
 181:..\u8g2\csrc/u8x8_d_ks0108.c **** 
 182:..\u8g2\csrc/u8x8_d_ks0108.c ****       v.ptr = ((u8x8_tile_t *)arg_ptr)->tile_ptr;
 183:..\u8g2\csrc/u8x8_d_ks0108.c ****       v.x = ((u8x8_tile_t *)arg_ptr)->x_pos;
 184:..\u8g2\csrc/u8x8_d_ks0108.c ****       v.c = ((u8x8_tile_t *)arg_ptr)->cnt;
 185:..\u8g2\csrc/u8x8_d_ks0108.c ****       v.arg_int = arg_int;    
 186:..\u8g2\csrc/u8x8_d_ks0108.c ****       
 187:..\u8g2\csrc/u8x8_d_ks0108.c ****       
 188:..\u8g2\csrc/u8x8_d_ks0108.c ****       if ( v.x < 8 )
 189:..\u8g2\csrc/u8x8_d_ks0108.c ****       {
 190:..\u8g2\csrc/u8x8_d_ks0108.c **** 	u8x8->cad_cb(u8x8, U8X8_MSG_CAD_START_TRANSFER, 1, NULL);
 191:..\u8g2\csrc/u8x8_d_ks0108.c **** 	u8x8_ks0108_out(u8x8, &v, arg_ptr);
 192:..\u8g2\csrc/u8x8_d_ks0108.c **** 	u8x8->cad_cb(u8x8, U8X8_MSG_CAD_END_TRANSFER, 0, NULL);
 193:..\u8g2\csrc/u8x8_d_ks0108.c ****       }
 194:..\u8g2\csrc/u8x8_d_ks0108.c ****       if ( v.x < 16 )
 195:..\u8g2\csrc/u8x8_d_ks0108.c ****       {
 196:..\u8g2\csrc/u8x8_d_ks0108.c **** 	u8x8->cad_cb(u8x8, U8X8_MSG_CAD_START_TRANSFER, 2, NULL);
 197:..\u8g2\csrc/u8x8_d_ks0108.c **** 	u8x8_ks0108_out(u8x8, &v, arg_ptr);
 198:..\u8g2\csrc/u8x8_d_ks0108.c **** 	u8x8->cad_cb(u8x8, U8X8_MSG_CAD_END_TRANSFER, 0, NULL);
 199:..\u8g2\csrc/u8x8_d_ks0108.c ****       }
 200:..\u8g2\csrc/u8x8_d_ks0108.c ****       //if ( v.x < 24 )
 201:..\u8g2\csrc/u8x8_d_ks0108.c ****       //{
 202:..\u8g2\csrc/u8x8_d_ks0108.c **** 	//u8x8->cad_cb(u8x8, U8X8_MSG_CAD_START_TRANSFER, 4, NULL);
 203:..\u8g2\csrc/u8x8_d_ks0108.c **** 	//u8x8_ks0108_out(u8x8, &v, arg_ptr);
 204:..\u8g2\csrc/u8x8_d_ks0108.c **** 	//u8x8->cad_cb(u8x8, U8X8_MSG_CAD_END_TRANSFER, 0, NULL);
 205:..\u8g2\csrc/u8x8_d_ks0108.c ****       //}    
 206:..\u8g2\csrc/u8x8_d_ks0108.c ****       break;
 207:..\u8g2\csrc/u8x8_d_ks0108.c ****     default:
 208:..\u8g2\csrc/u8x8_d_ks0108.c ****       return 0;
 209:..\u8g2\csrc/u8x8_d_ks0108.c ****   }
 210:..\u8g2\csrc/u8x8_d_ks0108.c ****   return 1;
 176              		.loc 1 210 0
 177 0022 0120     		movs	r0, #1
 137:..\u8g2\csrc/u8x8_d_ks0108.c ****       break;
 178              		.loc 1 137 0
 179 0024 9FE0     		b	.L10
 180              	.LVL18:
 181              	.L13:
 139:..\u8g2\csrc/u8x8_d_ks0108.c ****     
 182              		.loc 1 139 0
 183 0026 FFF7FEFF 		bl	u8x8_d_helper_display_init
 184              	.LVL19:
 141:..\u8g2\csrc/u8x8_d_ks0108.c ****       u8x8_cad_SendSequence(u8x8, u8x8_d_ks0108_init_seq);
 185              		.loc 1 141 0
ARM GAS  C:\Users\brian\AppData\Local\Temp\ccER9KKd.s 			page 8


 186 002a E568     		ldr	r5, [r4, #12]
 187              	.LVL20:
 188 002c 0023     		movs	r3, #0
 189 002e 0122     		movs	r2, #1
 190 0030 1821     		movs	r1, #24
 191 0032 2046     		mov	r0, r4
 192 0034 A847     		blx	r5
 193              	.LVL21:
 142:..\u8g2\csrc/u8x8_d_ks0108.c ****       u8x8->cad_cb(u8x8, U8X8_MSG_CAD_END_TRANSFER, 0, NULL);
 194              		.loc 1 142 0
 195 0036 4E4D     		ldr	r5, .L21+4
 196 0038 2946     		mov	r1, r5
 197 003a 2046     		mov	r0, r4
 198 003c FFF7FEFF 		bl	u8x8_cad_SendSequence
 199              	.LVL22:
 143:..\u8g2\csrc/u8x8_d_ks0108.c ****     
 200              		.loc 1 143 0
 201 0040 E668     		ldr	r6, [r4, #12]
 202 0042 0023     		movs	r3, #0
 203 0044 1A46     		mov	r2, r3
 204 0046 1921     		movs	r1, #25
 205 0048 2046     		mov	r0, r4
 206 004a B047     		blx	r6
 207              	.LVL23:
 145:..\u8g2\csrc/u8x8_d_ks0108.c ****       u8x8_cad_SendSequence(u8x8, u8x8_d_ks0108_init_seq);
 208              		.loc 1 145 0
 209 004c E668     		ldr	r6, [r4, #12]
 210 004e 0023     		movs	r3, #0
 211 0050 0222     		movs	r2, #2
 212 0052 1821     		movs	r1, #24
 213 0054 2046     		mov	r0, r4
 214 0056 B047     		blx	r6
 215              	.LVL24:
 146:..\u8g2\csrc/u8x8_d_ks0108.c ****       u8x8->cad_cb(u8x8, U8X8_MSG_CAD_END_TRANSFER, 0, NULL);
 216              		.loc 1 146 0
 217 0058 2946     		mov	r1, r5
 218 005a 2046     		mov	r0, r4
 219 005c FFF7FEFF 		bl	u8x8_cad_SendSequence
 220              	.LVL25:
 147:..\u8g2\csrc/u8x8_d_ks0108.c ****       break;
 221              		.loc 1 147 0
 222 0060 E568     		ldr	r5, [r4, #12]
 223 0062 0023     		movs	r3, #0
 224 0064 1A46     		mov	r2, r3
 225 0066 1921     		movs	r1, #25
 226 0068 2046     		mov	r0, r4
 227 006a A847     		blx	r5
 228              	.LVL26:
 229              		.loc 1 210 0
 230 006c 0120     		movs	r0, #1
 148:..\u8g2\csrc/u8x8_d_ks0108.c ****     case U8X8_MSG_DISPLAY_SET_POWER_SAVE:
 231              		.loc 1 148 0
 232 006e 7AE0     		b	.L10
 233              	.LVL27:
 234              	.L14:
 151:..\u8g2\csrc/u8x8_d_ks0108.c ****       {
 235              		.loc 1 151 0
ARM GAS  C:\Users\brian\AppData\Local\Temp\ccER9KKd.s 			page 9


 236 0070 0ABB     		cbnz	r2, .L16
 153:..\u8g2\csrc/u8x8_d_ks0108.c **** 	u8x8_cad_SendSequence(u8x8, u8x8_d_ks0108_powersave0_seq);
 237              		.loc 1 153 0
 238 0072 C568     		ldr	r5, [r0, #12]
 239              	.LVL28:
 240 0074 0023     		movs	r3, #0
 241 0076 0122     		movs	r2, #1
 242              	.LVL29:
 243 0078 1821     		movs	r1, #24
 244 007a A847     		blx	r5
 245              	.LVL30:
 154:..\u8g2\csrc/u8x8_d_ks0108.c **** 	u8x8->cad_cb(u8x8, U8X8_MSG_CAD_END_TRANSFER, 0, NULL);
 246              		.loc 1 154 0
 247 007c 3D4D     		ldr	r5, .L21+8
 248 007e 2946     		mov	r1, r5
 249 0080 2046     		mov	r0, r4
 250 0082 FFF7FEFF 		bl	u8x8_cad_SendSequence
 251              	.LVL31:
 155:..\u8g2\csrc/u8x8_d_ks0108.c **** 
 252              		.loc 1 155 0
 253 0086 E668     		ldr	r6, [r4, #12]
 254 0088 0023     		movs	r3, #0
 255 008a 1A46     		mov	r2, r3
 256 008c 1921     		movs	r1, #25
 257 008e 2046     		mov	r0, r4
 258 0090 B047     		blx	r6
 259              	.LVL32:
 157:..\u8g2\csrc/u8x8_d_ks0108.c **** 	u8x8_cad_SendSequence(u8x8, u8x8_d_ks0108_powersave0_seq);
 260              		.loc 1 157 0
 261 0092 E668     		ldr	r6, [r4, #12]
 262 0094 0023     		movs	r3, #0
 263 0096 0222     		movs	r2, #2
 264 0098 1821     		movs	r1, #24
 265 009a 2046     		mov	r0, r4
 266 009c B047     		blx	r6
 267              	.LVL33:
 158:..\u8g2\csrc/u8x8_d_ks0108.c **** 	u8x8->cad_cb(u8x8, U8X8_MSG_CAD_END_TRANSFER, 0, NULL);
 268              		.loc 1 158 0
 269 009e 2946     		mov	r1, r5
 270 00a0 2046     		mov	r0, r4
 271 00a2 FFF7FEFF 		bl	u8x8_cad_SendSequence
 272              	.LVL34:
 159:..\u8g2\csrc/u8x8_d_ks0108.c **** 	
 273              		.loc 1 159 0
 274 00a6 E568     		ldr	r5, [r4, #12]
 275 00a8 0023     		movs	r3, #0
 276 00aa 1A46     		mov	r2, r3
 277 00ac 1921     		movs	r1, #25
 278 00ae 2046     		mov	r0, r4
 279 00b0 A847     		blx	r5
 280              	.LVL35:
 281              		.loc 1 210 0
 282 00b2 0120     		movs	r0, #1
 283 00b4 57E0     		b	.L10
 284              	.LVL36:
 285              	.L16:
 164:..\u8g2\csrc/u8x8_d_ks0108.c **** 	u8x8_cad_SendSequence(u8x8, u8x8_d_ks0108_powersave1_seq);
ARM GAS  C:\Users\brian\AppData\Local\Temp\ccER9KKd.s 			page 10


 286              		.loc 1 164 0
 287 00b6 C568     		ldr	r5, [r0, #12]
 288              	.LVL37:
 289 00b8 0023     		movs	r3, #0
 290 00ba 0122     		movs	r2, #1
 291              	.LVL38:
 292 00bc 1821     		movs	r1, #24
 293 00be A847     		blx	r5
 294              	.LVL39:
 165:..\u8g2\csrc/u8x8_d_ks0108.c **** 	u8x8->cad_cb(u8x8, U8X8_MSG_CAD_END_TRANSFER, 0, NULL);
 295              		.loc 1 165 0
 296 00c0 2D4D     		ldr	r5, .L21+12
 297 00c2 2946     		mov	r1, r5
 298 00c4 2046     		mov	r0, r4
 299 00c6 FFF7FEFF 		bl	u8x8_cad_SendSequence
 300              	.LVL40:
 166:..\u8g2\csrc/u8x8_d_ks0108.c **** 	
 301              		.loc 1 166 0
 302 00ca E668     		ldr	r6, [r4, #12]
 303 00cc 0023     		movs	r3, #0
 304 00ce 1A46     		mov	r2, r3
 305 00d0 1921     		movs	r1, #25
 306 00d2 2046     		mov	r0, r4
 307 00d4 B047     		blx	r6
 308              	.LVL41:
 168:..\u8g2\csrc/u8x8_d_ks0108.c **** 	u8x8_cad_SendSequence(u8x8, u8x8_d_ks0108_powersave1_seq);
 309              		.loc 1 168 0
 310 00d6 E668     		ldr	r6, [r4, #12]
 311 00d8 0023     		movs	r3, #0
 312 00da 0222     		movs	r2, #2
 313 00dc 1821     		movs	r1, #24
 314 00de 2046     		mov	r0, r4
 315 00e0 B047     		blx	r6
 316              	.LVL42:
 169:..\u8g2\csrc/u8x8_d_ks0108.c **** 	u8x8->cad_cb(u8x8, U8X8_MSG_CAD_END_TRANSFER, 0, NULL);
 317              		.loc 1 169 0
 318 00e2 2946     		mov	r1, r5
 319 00e4 2046     		mov	r0, r4
 320 00e6 FFF7FEFF 		bl	u8x8_cad_SendSequence
 321              	.LVL43:
 170:..\u8g2\csrc/u8x8_d_ks0108.c **** 	
 322              		.loc 1 170 0
 323 00ea E568     		ldr	r5, [r4, #12]
 324 00ec 0023     		movs	r3, #0
 325 00ee 1A46     		mov	r2, r3
 326 00f0 1921     		movs	r1, #25
 327 00f2 2046     		mov	r0, r4
 328 00f4 A847     		blx	r5
 329              	.LVL44:
 330              		.loc 1 210 0
 331 00f6 0120     		movs	r0, #1
 332 00f8 35E0     		b	.L10
 333              	.LVL45:
 334              	.L15:
 182:..\u8g2\csrc/u8x8_d_ks0108.c ****       v.x = ((u8x8_tile_t *)arg_ptr)->x_pos;
 335              		.loc 1 182 0
 336 00fa 2B68     		ldr	r3, [r5]
ARM GAS  C:\Users\brian\AppData\Local\Temp\ccER9KKd.s 			page 11


 337 00fc 0093     		str	r3, [sp]
 183:..\u8g2\csrc/u8x8_d_ks0108.c ****       v.c = ((u8x8_tile_t *)arg_ptr)->cnt;
 338              		.loc 1 183 0
 339 00fe 6B79     		ldrb	r3, [r5, #5]	@ zero_extendqisi2
 340 0100 8DF80430 		strb	r3, [sp, #4]
 184:..\u8g2\csrc/u8x8_d_ks0108.c ****       v.arg_int = arg_int;    
 341              		.loc 1 184 0
 342 0104 2979     		ldrb	r1, [r5, #4]	@ zero_extendqisi2
 343 0106 8DF80510 		strb	r1, [sp, #5]
 185:..\u8g2\csrc/u8x8_d_ks0108.c ****       
 344              		.loc 1 185 0
 345 010a 8DF80620 		strb	r2, [sp, #6]
 188:..\u8g2\csrc/u8x8_d_ks0108.c ****       {
 346              		.loc 1 188 0
 347 010e 072B     		cmp	r3, #7
 348 0110 0FD8     		bhi	.L17
 190:..\u8g2\csrc/u8x8_d_ks0108.c **** 	u8x8_ks0108_out(u8x8, &v, arg_ptr);
 349              		.loc 1 190 0
 350 0112 C668     		ldr	r6, [r0, #12]
 351 0114 0023     		movs	r3, #0
 352 0116 0122     		movs	r2, #1
 353              	.LVL46:
 354 0118 1821     		movs	r1, #24
 355 011a B047     		blx	r6
 356              	.LVL47:
 191:..\u8g2\csrc/u8x8_d_ks0108.c **** 	u8x8->cad_cb(u8x8, U8X8_MSG_CAD_END_TRANSFER, 0, NULL);
 357              		.loc 1 191 0
 358 011c 2A46     		mov	r2, r5
 359 011e 6946     		mov	r1, sp
 360 0120 2046     		mov	r0, r4
 361 0122 FFF7FEFF 		bl	u8x8_ks0108_out
 362              	.LVL48:
 192:..\u8g2\csrc/u8x8_d_ks0108.c ****       }
 363              		.loc 1 192 0
 364 0126 E668     		ldr	r6, [r4, #12]
 365 0128 0023     		movs	r3, #0
 366 012a 1A46     		mov	r2, r3
 367 012c 1921     		movs	r1, #25
 368 012e 2046     		mov	r0, r4
 369 0130 B047     		blx	r6
 370              	.LVL49:
 371              	.L17:
 194:..\u8g2\csrc/u8x8_d_ks0108.c ****       {
 372              		.loc 1 194 0
 373 0132 9DF80430 		ldrb	r3, [sp, #4]	@ zero_extendqisi2
 374 0136 0F2B     		cmp	r3, #15
 375 0138 14D8     		bhi	.L19
 196:..\u8g2\csrc/u8x8_d_ks0108.c **** 	u8x8_ks0108_out(u8x8, &v, arg_ptr);
 376              		.loc 1 196 0
 377 013a E668     		ldr	r6, [r4, #12]
 378 013c 0023     		movs	r3, #0
 379 013e 0222     		movs	r2, #2
 380 0140 1821     		movs	r1, #24
 381 0142 2046     		mov	r0, r4
 382 0144 B047     		blx	r6
 383              	.LVL50:
 197:..\u8g2\csrc/u8x8_d_ks0108.c **** 	u8x8->cad_cb(u8x8, U8X8_MSG_CAD_END_TRANSFER, 0, NULL);
ARM GAS  C:\Users\brian\AppData\Local\Temp\ccER9KKd.s 			page 12


 384              		.loc 1 197 0
 385 0146 2A46     		mov	r2, r5
 386 0148 6946     		mov	r1, sp
 387 014a 2046     		mov	r0, r4
 388 014c FFF7FEFF 		bl	u8x8_ks0108_out
 389              	.LVL51:
 198:..\u8g2\csrc/u8x8_d_ks0108.c ****       }
 390              		.loc 1 198 0
 391 0150 E568     		ldr	r5, [r4, #12]
 392              	.LVL52:
 393 0152 0023     		movs	r3, #0
 394 0154 1A46     		mov	r2, r3
 395 0156 1921     		movs	r1, #25
 396 0158 2046     		mov	r0, r4
 397 015a A847     		blx	r5
 398              	.LVL53:
 399              		.loc 1 210 0
 400 015c 0120     		movs	r0, #1
 401 015e 02E0     		b	.L10
 402              	.LVL54:
 403              	.L18:
 208:..\u8g2\csrc/u8x8_d_ks0108.c ****   }
 404              		.loc 1 208 0
 405 0160 0020     		movs	r0, #0
 406              	.LVL55:
 407 0162 00E0     		b	.L10
 408              	.LVL56:
 409              	.L19:
 410              		.loc 1 210 0
 411 0164 0120     		movs	r0, #1
 412              	.LVL57:
 413              	.L10:
 211:..\u8g2\csrc/u8x8_d_ks0108.c **** }
 414              		.loc 1 211 0
 415 0166 02B0     		add	sp, sp, #8
 416              		.cfi_def_cfa_offset 16
 417              		@ sp needed
 418 0168 70BD     		pop	{r4, r5, r6, pc}
 419              	.LVL58:
 420              	.L22:
 421 016a 00BF     		.align	2
 422              	.L21:
 423 016c 00000000 		.word	.LANCHOR0
 424 0170 18000000 		.word	.LANCHOR0+24
 425 0174 1C000000 		.word	.LANCHOR0+28
 426 0178 20000000 		.word	.LANCHOR0+32
 427              		.cfi_endproc
 428              	.LFE1:
 429              		.size	u8x8_d_ks0108_128x64, .-u8x8_d_ks0108_128x64
 430              		.section	.text.u8x8_d_ks0108_erm19264,"ax",%progbits
 431              		.align	2
 432              		.global	u8x8_d_ks0108_erm19264
 433              		.thumb
 434              		.thumb_func
 435              		.type	u8x8_d_ks0108_erm19264, %function
 436              	u8x8_d_ks0108_erm19264:
 437              	.LFB2:
ARM GAS  C:\Users\brian\AppData\Local\Temp\ccER9KKd.s 			page 13


 212:..\u8g2\csrc/u8x8_d_ks0108.c **** 
 213:..\u8g2\csrc/u8x8_d_ks0108.c **** static const u8x8_display_info_t u8x8_ks0108_192x64_display_info =
 214:..\u8g2\csrc/u8x8_d_ks0108.c **** {
 215:..\u8g2\csrc/u8x8_d_ks0108.c ****   /* chip_enable_level = */ 0,		/* KS0108: Not used */
 216:..\u8g2\csrc/u8x8_d_ks0108.c ****   /* chip_disable_level = */ 1,		/* KS0108: Not used */
 217:..\u8g2\csrc/u8x8_d_ks0108.c ****   
 218:..\u8g2\csrc/u8x8_d_ks0108.c ****   /* post_chip_enable_wait_ns = */ 100,
 219:..\u8g2\csrc/u8x8_d_ks0108.c ****   /* pre_chip_disable_wait_ns = */ 20,
 220:..\u8g2\csrc/u8x8_d_ks0108.c ****   /* reset_pulse_width_ms = */ 1, 
 221:..\u8g2\csrc/u8x8_d_ks0108.c ****   /* post_reset_wait_ms = */ 6, 		/* could be faster for the KS0108 */
 222:..\u8g2\csrc/u8x8_d_ks0108.c ****   /* sda_setup_time_ns = */ 12,		
 223:..\u8g2\csrc/u8x8_d_ks0108.c ****   /* sck_pulse_width_ns = */ 75,	/* KS0108: Not used */
 224:..\u8g2\csrc/u8x8_d_ks0108.c ****   /* sck_clock_hz = */ 4000000UL,	/* KS0108: Not used */
 225:..\u8g2\csrc/u8x8_d_ks0108.c ****   /* spi_mode = */ 0,				/* active high, rising edge */
 226:..\u8g2\csrc/u8x8_d_ks0108.c ****   /* i2c_bus_clock_100kHz = */ 4,	/* KS0108: Not used */
 227:..\u8g2\csrc/u8x8_d_ks0108.c ****   /* data_setup_time_ns = */ 200,
 228:..\u8g2\csrc/u8x8_d_ks0108.c ****   /* write_pulse_width_ns = */ 250,	/* KS0108: actially 450 ns, but additional 200 ns are added by 
 229:..\u8g2\csrc/u8x8_d_ks0108.c ****   /* tile_width = */ 24,		/* width of 24*8=192 pixel */
 230:..\u8g2\csrc/u8x8_d_ks0108.c ****   /* tile_hight = */ 8,
 231:..\u8g2\csrc/u8x8_d_ks0108.c ****   /* default_x_offset = */ 0,
 232:..\u8g2\csrc/u8x8_d_ks0108.c ****   /* flipmode_x_offset = */ 0,
 233:..\u8g2\csrc/u8x8_d_ks0108.c ****   /* pixel_width = */ 192,
 234:..\u8g2\csrc/u8x8_d_ks0108.c ****   /* pixel_height = */ 64
 235:..\u8g2\csrc/u8x8_d_ks0108.c **** };
 236:..\u8g2\csrc/u8x8_d_ks0108.c **** 
 237:..\u8g2\csrc/u8x8_d_ks0108.c **** 
 238:..\u8g2\csrc/u8x8_d_ks0108.c **** /* east rising (buydisplay.com) ERM19264 */
 239:..\u8g2\csrc/u8x8_d_ks0108.c **** /* left: 011, middle: 101, right: 110, no chip select: 111 */
 240:..\u8g2\csrc/u8x8_d_ks0108.c **** uint8_t u8x8_d_ks0108_erm19264(u8x8_t *u8x8, uint8_t msg, uint8_t arg_int, void *arg_ptr)
 241:..\u8g2\csrc/u8x8_d_ks0108.c **** {
 438              		.loc 1 241 0
 439              		.cfi_startproc
 440              		@ args = 0, pretend = 0, frame = 8
 441              		@ frame_needed = 0, uses_anonymous_args = 0
 442              	.LVL59:
 443 0000 70B5     		push	{r4, r5, r6, lr}
 444              		.cfi_def_cfa_offset 16
 445              		.cfi_offset 4, -16
 446              		.cfi_offset 5, -12
 447              		.cfi_offset 6, -8
 448              		.cfi_offset 14, -4
 449 0002 82B0     		sub	sp, sp, #8
 450              		.cfi_def_cfa_offset 24
 451 0004 0446     		mov	r4, r0
 452 0006 1D46     		mov	r5, r3
 242:..\u8g2\csrc/u8x8_d_ks0108.c ****   struct u8x8_ks0108_vars v;
 243:..\u8g2\csrc/u8x8_d_ks0108.c ****   switch(msg)
 453              		.loc 1 243 0
 454 0008 0939     		subs	r1, r1, #9
 455              	.LVL60:
 456 000a 0629     		cmp	r1, #6
 457 000c 00F2F080 		bhi	.L33
 458 0010 DFE811F0 		tbh	[pc, r1, lsl #1]
 459              	.LVL61:
 460              	.L26:
 461 0014 0700     		.2byte	(.L25-.L26)/2
 462 0016 0C00     		.2byte	(.L27-.L26)/2
ARM GAS  C:\Users\brian\AppData\Local\Temp\ccER9KKd.s 			page 14


 463 0018 4100     		.2byte	(.L28-.L26)/2
 464 001a EE00     		.2byte	(.L33-.L26)/2
 465 001c EE00     		.2byte	(.L33-.L26)/2
 466 001e EE00     		.2byte	(.L33-.L26)/2
 467 0020 A600     		.2byte	(.L29-.L26)/2
 468              		.p2align 1
 469              	.L25:
 244:..\u8g2\csrc/u8x8_d_ks0108.c ****   {
 245:..\u8g2\csrc/u8x8_d_ks0108.c ****     case U8X8_MSG_DISPLAY_SETUP_MEMORY:
 246:..\u8g2\csrc/u8x8_d_ks0108.c ****       u8x8_d_helper_display_setup_memory(u8x8, &u8x8_ks0108_192x64_display_info);
 470              		.loc 1 246 0
 471 0022 7649     		ldr	r1, .L36
 472 0024 FFF7FEFF 		bl	u8x8_d_helper_display_setup_memory
 473              	.LVL62:
 247:..\u8g2\csrc/u8x8_d_ks0108.c ****       break;
 248:..\u8g2\csrc/u8x8_d_ks0108.c ****     case U8X8_MSG_DISPLAY_INIT:
 249:..\u8g2\csrc/u8x8_d_ks0108.c ****       u8x8_d_helper_display_init(u8x8);
 250:..\u8g2\csrc/u8x8_d_ks0108.c ****     
 251:..\u8g2\csrc/u8x8_d_ks0108.c ****       u8x8->cad_cb(u8x8, U8X8_MSG_CAD_START_TRANSFER, 3, NULL);
 252:..\u8g2\csrc/u8x8_d_ks0108.c ****       u8x8_cad_SendSequence(u8x8, u8x8_d_ks0108_init_seq);
 253:..\u8g2\csrc/u8x8_d_ks0108.c ****       u8x8->cad_cb(u8x8, U8X8_MSG_CAD_END_TRANSFER, 7, NULL);
 254:..\u8g2\csrc/u8x8_d_ks0108.c ****     
 255:..\u8g2\csrc/u8x8_d_ks0108.c ****       u8x8->cad_cb(u8x8, U8X8_MSG_CAD_START_TRANSFER, 5, NULL);
 256:..\u8g2\csrc/u8x8_d_ks0108.c ****       u8x8_cad_SendSequence(u8x8, u8x8_d_ks0108_init_seq);
 257:..\u8g2\csrc/u8x8_d_ks0108.c ****       u8x8->cad_cb(u8x8, U8X8_MSG_CAD_END_TRANSFER, 7, NULL);
 258:..\u8g2\csrc/u8x8_d_ks0108.c ****     
 259:..\u8g2\csrc/u8x8_d_ks0108.c ****       u8x8->cad_cb(u8x8, U8X8_MSG_CAD_START_TRANSFER, 6, NULL);
 260:..\u8g2\csrc/u8x8_d_ks0108.c ****       u8x8_cad_SendSequence(u8x8, u8x8_d_ks0108_init_seq);
 261:..\u8g2\csrc/u8x8_d_ks0108.c ****       u8x8->cad_cb(u8x8, U8X8_MSG_CAD_END_TRANSFER, 7, NULL);
 262:..\u8g2\csrc/u8x8_d_ks0108.c ****       break;
 263:..\u8g2\csrc/u8x8_d_ks0108.c ****     case U8X8_MSG_DISPLAY_SET_POWER_SAVE:
 264:..\u8g2\csrc/u8x8_d_ks0108.c ****       
 265:..\u8g2\csrc/u8x8_d_ks0108.c ****       if ( arg_int == 0 )
 266:..\u8g2\csrc/u8x8_d_ks0108.c ****       {
 267:..\u8g2\csrc/u8x8_d_ks0108.c **** 	u8x8->cad_cb(u8x8, U8X8_MSG_CAD_START_TRANSFER, 3, NULL);
 268:..\u8g2\csrc/u8x8_d_ks0108.c **** 	u8x8_cad_SendSequence(u8x8, u8x8_d_ks0108_powersave0_seq);
 269:..\u8g2\csrc/u8x8_d_ks0108.c **** 	u8x8->cad_cb(u8x8, U8X8_MSG_CAD_END_TRANSFER, 7, NULL);
 270:..\u8g2\csrc/u8x8_d_ks0108.c **** 
 271:..\u8g2\csrc/u8x8_d_ks0108.c **** 	u8x8->cad_cb(u8x8, U8X8_MSG_CAD_START_TRANSFER, 5, NULL);
 272:..\u8g2\csrc/u8x8_d_ks0108.c **** 	u8x8_cad_SendSequence(u8x8, u8x8_d_ks0108_powersave0_seq);
 273:..\u8g2\csrc/u8x8_d_ks0108.c **** 	u8x8->cad_cb(u8x8, U8X8_MSG_CAD_END_TRANSFER, 7, NULL);
 274:..\u8g2\csrc/u8x8_d_ks0108.c **** 
 275:..\u8g2\csrc/u8x8_d_ks0108.c **** 	u8x8->cad_cb(u8x8, U8X8_MSG_CAD_START_TRANSFER, 6, NULL);
 276:..\u8g2\csrc/u8x8_d_ks0108.c **** 	u8x8_cad_SendSequence(u8x8, u8x8_d_ks0108_powersave0_seq);
 277:..\u8g2\csrc/u8x8_d_ks0108.c **** 	u8x8->cad_cb(u8x8, U8X8_MSG_CAD_END_TRANSFER, 7, NULL);
 278:..\u8g2\csrc/u8x8_d_ks0108.c **** 	
 279:..\u8g2\csrc/u8x8_d_ks0108.c ****       }
 280:..\u8g2\csrc/u8x8_d_ks0108.c ****       else
 281:..\u8g2\csrc/u8x8_d_ks0108.c ****       {
 282:..\u8g2\csrc/u8x8_d_ks0108.c **** 	u8x8->cad_cb(u8x8, U8X8_MSG_CAD_START_TRANSFER, 3, NULL);
 283:..\u8g2\csrc/u8x8_d_ks0108.c **** 	u8x8_cad_SendSequence(u8x8, u8x8_d_ks0108_powersave1_seq);
 284:..\u8g2\csrc/u8x8_d_ks0108.c **** 	u8x8->cad_cb(u8x8, U8X8_MSG_CAD_END_TRANSFER, 7, NULL);
 285:..\u8g2\csrc/u8x8_d_ks0108.c **** 
 286:..\u8g2\csrc/u8x8_d_ks0108.c **** 	u8x8->cad_cb(u8x8, U8X8_MSG_CAD_START_TRANSFER, 5, NULL);
 287:..\u8g2\csrc/u8x8_d_ks0108.c **** 	u8x8_cad_SendSequence(u8x8, u8x8_d_ks0108_powersave1_seq);
 288:..\u8g2\csrc/u8x8_d_ks0108.c **** 	u8x8->cad_cb(u8x8, U8X8_MSG_CAD_END_TRANSFER, 7, NULL);
 289:..\u8g2\csrc/u8x8_d_ks0108.c **** 
ARM GAS  C:\Users\brian\AppData\Local\Temp\ccER9KKd.s 			page 15


 290:..\u8g2\csrc/u8x8_d_ks0108.c **** 	u8x8->cad_cb(u8x8, U8X8_MSG_CAD_START_TRANSFER, 6, NULL);
 291:..\u8g2\csrc/u8x8_d_ks0108.c **** 	u8x8_cad_SendSequence(u8x8, u8x8_d_ks0108_powersave1_seq);
 292:..\u8g2\csrc/u8x8_d_ks0108.c **** 	u8x8->cad_cb(u8x8, U8X8_MSG_CAD_END_TRANSFER, 7, NULL);
 293:..\u8g2\csrc/u8x8_d_ks0108.c **** 	
 294:..\u8g2\csrc/u8x8_d_ks0108.c ****       }
 295:..\u8g2\csrc/u8x8_d_ks0108.c ****       break;
 296:..\u8g2\csrc/u8x8_d_ks0108.c **** // The KS0108 can not mirror the cols and rows, use U8g2 for rotation
 297:..\u8g2\csrc/u8x8_d_ks0108.c **** //    case U8X8_MSG_DISPLAY_SET_FLIP_MODE:
 298:..\u8g2\csrc/u8x8_d_ks0108.c **** //      break;
 299:..\u8g2\csrc/u8x8_d_ks0108.c **** // The KS0108 has no internal contrast command
 300:..\u8g2\csrc/u8x8_d_ks0108.c **** //    case U8X8_MSG_DISPLAY_SET_CONTRAST:
 301:..\u8g2\csrc/u8x8_d_ks0108.c **** //      break;
 302:..\u8g2\csrc/u8x8_d_ks0108.c ****     case U8X8_MSG_DISPLAY_DRAW_TILE:
 303:..\u8g2\csrc/u8x8_d_ks0108.c **** 
 304:..\u8g2\csrc/u8x8_d_ks0108.c ****       v.ptr = ((u8x8_tile_t *)arg_ptr)->tile_ptr;
 305:..\u8g2\csrc/u8x8_d_ks0108.c ****       v.x = ((u8x8_tile_t *)arg_ptr)->x_pos;
 306:..\u8g2\csrc/u8x8_d_ks0108.c ****       v.c = ((u8x8_tile_t *)arg_ptr)->cnt;
 307:..\u8g2\csrc/u8x8_d_ks0108.c ****       v.arg_int = arg_int;    
 308:..\u8g2\csrc/u8x8_d_ks0108.c ****       
 309:..\u8g2\csrc/u8x8_d_ks0108.c **** /*
 310:..\u8g2\csrc/u8x8_d_ks0108.c ****     3-bit CS value:
 311:..\u8g2\csrc/u8x8_d_ks0108.c ****     In u8x8_byte_set_ks0108_cs(u8x8_t *u8x8, uint8_t arg) the lowest
 312:..\u8g2\csrc/u8x8_d_ks0108.c ****     bit is assigned to CS and highest bit if the 3-bit value to CS2
 313:..\u8g2\csrc/u8x8_d_ks0108.c ****     
 314:..\u8g2\csrc/u8x8_d_ks0108.c ****     CS: left part of the display  --> 6
 315:..\u8g2\csrc/u8x8_d_ks0108.c ****     CS1: middle part --> 5
 316:..\u8g2\csrc/u8x8_d_ks0108.c ****     CS2: right part of the display --> 3
 317:..\u8g2\csrc/u8x8_d_ks0108.c **** 
 318:..\u8g2\csrc/u8x8_d_ks0108.c ****     Reference: https://github.com/olikraus/u8g2/issues/631
 319:..\u8g2\csrc/u8x8_d_ks0108.c **** */
 320:..\u8g2\csrc/u8x8_d_ks0108.c ****       if ( v.x < 8 )
 321:..\u8g2\csrc/u8x8_d_ks0108.c ****       {
 322:..\u8g2\csrc/u8x8_d_ks0108.c **** 	u8x8->cad_cb(u8x8, U8X8_MSG_CAD_START_TRANSFER, 6, NULL);  // 3-->6, issue 631
 323:..\u8g2\csrc/u8x8_d_ks0108.c **** 	u8x8_ks0108_out(u8x8, &v, arg_ptr);
 324:..\u8g2\csrc/u8x8_d_ks0108.c **** 	u8x8->cad_cb(u8x8, U8X8_MSG_CAD_END_TRANSFER, 7, NULL);
 325:..\u8g2\csrc/u8x8_d_ks0108.c ****       }
 326:..\u8g2\csrc/u8x8_d_ks0108.c ****       if ( v.x < 16 )
 327:..\u8g2\csrc/u8x8_d_ks0108.c ****       {
 328:..\u8g2\csrc/u8x8_d_ks0108.c **** 	u8x8->cad_cb(u8x8, U8X8_MSG_CAD_START_TRANSFER, 5, NULL);
 329:..\u8g2\csrc/u8x8_d_ks0108.c **** 	u8x8_ks0108_out(u8x8, &v, arg_ptr);
 330:..\u8g2\csrc/u8x8_d_ks0108.c **** 	u8x8->cad_cb(u8x8, U8X8_MSG_CAD_END_TRANSFER, 7, NULL);
 331:..\u8g2\csrc/u8x8_d_ks0108.c ****       }
 332:..\u8g2\csrc/u8x8_d_ks0108.c ****       if ( v.x < 24 )
 333:..\u8g2\csrc/u8x8_d_ks0108.c ****       {
 334:..\u8g2\csrc/u8x8_d_ks0108.c **** 	u8x8->cad_cb(u8x8, U8X8_MSG_CAD_START_TRANSFER, 3, NULL); // 6-->3, // issue 631
 335:..\u8g2\csrc/u8x8_d_ks0108.c **** 	u8x8_ks0108_out(u8x8, &v, arg_ptr);
 336:..\u8g2\csrc/u8x8_d_ks0108.c **** 	u8x8->cad_cb(u8x8, U8X8_MSG_CAD_END_TRANSFER, 7, NULL);
 337:..\u8g2\csrc/u8x8_d_ks0108.c ****       }    
 338:..\u8g2\csrc/u8x8_d_ks0108.c ****       break;
 339:..\u8g2\csrc/u8x8_d_ks0108.c ****     default:
 340:..\u8g2\csrc/u8x8_d_ks0108.c ****       return 0;
 341:..\u8g2\csrc/u8x8_d_ks0108.c ****   }
 342:..\u8g2\csrc/u8x8_d_ks0108.c ****   return 1;
 474              		.loc 1 342 0
 475 0028 0120     		movs	r0, #1
 247:..\u8g2\csrc/u8x8_d_ks0108.c ****       break;
 476              		.loc 1 247 0
ARM GAS  C:\Users\brian\AppData\Local\Temp\ccER9KKd.s 			page 16


 477 002a E4E0     		b	.L24
 478              	.LVL63:
 479              	.L27:
 249:..\u8g2\csrc/u8x8_d_ks0108.c ****     
 480              		.loc 1 249 0
 481 002c FFF7FEFF 		bl	u8x8_d_helper_display_init
 482              	.LVL64:
 251:..\u8g2\csrc/u8x8_d_ks0108.c ****       u8x8_cad_SendSequence(u8x8, u8x8_d_ks0108_init_seq);
 483              		.loc 1 251 0
 484 0030 E568     		ldr	r5, [r4, #12]
 485              	.LVL65:
 486 0032 0023     		movs	r3, #0
 487 0034 0322     		movs	r2, #3
 488 0036 1821     		movs	r1, #24
 489 0038 2046     		mov	r0, r4
 490 003a A847     		blx	r5
 491              	.LVL66:
 252:..\u8g2\csrc/u8x8_d_ks0108.c ****       u8x8->cad_cb(u8x8, U8X8_MSG_CAD_END_TRANSFER, 7, NULL);
 492              		.loc 1 252 0
 493 003c 704D     		ldr	r5, .L36+4
 494 003e 2946     		mov	r1, r5
 495 0040 2046     		mov	r0, r4
 496 0042 FFF7FEFF 		bl	u8x8_cad_SendSequence
 497              	.LVL67:
 253:..\u8g2\csrc/u8x8_d_ks0108.c ****     
 498              		.loc 1 253 0
 499 0046 E668     		ldr	r6, [r4, #12]
 500 0048 0023     		movs	r3, #0
 501 004a 0722     		movs	r2, #7
 502 004c 1921     		movs	r1, #25
 503 004e 2046     		mov	r0, r4
 504 0050 B047     		blx	r6
 505              	.LVL68:
 255:..\u8g2\csrc/u8x8_d_ks0108.c ****       u8x8_cad_SendSequence(u8x8, u8x8_d_ks0108_init_seq);
 506              		.loc 1 255 0
 507 0052 E668     		ldr	r6, [r4, #12]
 508 0054 0023     		movs	r3, #0
 509 0056 0522     		movs	r2, #5
 510 0058 1821     		movs	r1, #24
 511 005a 2046     		mov	r0, r4
 512 005c B047     		blx	r6
 513              	.LVL69:
 256:..\u8g2\csrc/u8x8_d_ks0108.c ****       u8x8->cad_cb(u8x8, U8X8_MSG_CAD_END_TRANSFER, 7, NULL);
 514              		.loc 1 256 0
 515 005e 2946     		mov	r1, r5
 516 0060 2046     		mov	r0, r4
 517 0062 FFF7FEFF 		bl	u8x8_cad_SendSequence
 518              	.LVL70:
 257:..\u8g2\csrc/u8x8_d_ks0108.c ****     
 519              		.loc 1 257 0
 520 0066 E668     		ldr	r6, [r4, #12]
 521 0068 0023     		movs	r3, #0
 522 006a 0722     		movs	r2, #7
 523 006c 1921     		movs	r1, #25
 524 006e 2046     		mov	r0, r4
 525 0070 B047     		blx	r6
 526              	.LVL71:
ARM GAS  C:\Users\brian\AppData\Local\Temp\ccER9KKd.s 			page 17


 259:..\u8g2\csrc/u8x8_d_ks0108.c ****       u8x8_cad_SendSequence(u8x8, u8x8_d_ks0108_init_seq);
 527              		.loc 1 259 0
 528 0072 E668     		ldr	r6, [r4, #12]
 529 0074 0023     		movs	r3, #0
 530 0076 0622     		movs	r2, #6
 531 0078 1821     		movs	r1, #24
 532 007a 2046     		mov	r0, r4
 533 007c B047     		blx	r6
 534              	.LVL72:
 260:..\u8g2\csrc/u8x8_d_ks0108.c ****       u8x8->cad_cb(u8x8, U8X8_MSG_CAD_END_TRANSFER, 7, NULL);
 535              		.loc 1 260 0
 536 007e 2946     		mov	r1, r5
 537 0080 2046     		mov	r0, r4
 538 0082 FFF7FEFF 		bl	u8x8_cad_SendSequence
 539              	.LVL73:
 261:..\u8g2\csrc/u8x8_d_ks0108.c ****       break;
 540              		.loc 1 261 0
 541 0086 E568     		ldr	r5, [r4, #12]
 542 0088 0023     		movs	r3, #0
 543 008a 0722     		movs	r2, #7
 544 008c 1921     		movs	r1, #25
 545 008e 2046     		mov	r0, r4
 546 0090 A847     		blx	r5
 547              	.LVL74:
 548              		.loc 1 342 0
 549 0092 0120     		movs	r0, #1
 262:..\u8g2\csrc/u8x8_d_ks0108.c ****     case U8X8_MSG_DISPLAY_SET_POWER_SAVE:
 550              		.loc 1 262 0
 551 0094 AFE0     		b	.L24
 552              	.LVL75:
 553              	.L28:
 265:..\u8g2\csrc/u8x8_d_ks0108.c ****       {
 554              		.loc 1 265 0
 555 0096 8ABB     		cbnz	r2, .L30
 267:..\u8g2\csrc/u8x8_d_ks0108.c **** 	u8x8_cad_SendSequence(u8x8, u8x8_d_ks0108_powersave0_seq);
 556              		.loc 1 267 0
 557 0098 C568     		ldr	r5, [r0, #12]
 558              	.LVL76:
 559 009a 0023     		movs	r3, #0
 560 009c 0322     		movs	r2, #3
 561              	.LVL77:
 562 009e 1821     		movs	r1, #24
 563 00a0 A847     		blx	r5
 564              	.LVL78:
 268:..\u8g2\csrc/u8x8_d_ks0108.c **** 	u8x8->cad_cb(u8x8, U8X8_MSG_CAD_END_TRANSFER, 7, NULL);
 565              		.loc 1 268 0
 566 00a2 584D     		ldr	r5, .L36+8
 567 00a4 2946     		mov	r1, r5
 568 00a6 2046     		mov	r0, r4
 569 00a8 FFF7FEFF 		bl	u8x8_cad_SendSequence
 570              	.LVL79:
 269:..\u8g2\csrc/u8x8_d_ks0108.c **** 
 571              		.loc 1 269 0
 572 00ac E668     		ldr	r6, [r4, #12]
 573 00ae 0023     		movs	r3, #0
 574 00b0 0722     		movs	r2, #7
 575 00b2 1921     		movs	r1, #25
ARM GAS  C:\Users\brian\AppData\Local\Temp\ccER9KKd.s 			page 18


 576 00b4 2046     		mov	r0, r4
 577 00b6 B047     		blx	r6
 578              	.LVL80:
 271:..\u8g2\csrc/u8x8_d_ks0108.c **** 	u8x8_cad_SendSequence(u8x8, u8x8_d_ks0108_powersave0_seq);
 579              		.loc 1 271 0
 580 00b8 E668     		ldr	r6, [r4, #12]
 581 00ba 0023     		movs	r3, #0
 582 00bc 0522     		movs	r2, #5
 583 00be 1821     		movs	r1, #24
 584 00c0 2046     		mov	r0, r4
 585 00c2 B047     		blx	r6
 586              	.LVL81:
 272:..\u8g2\csrc/u8x8_d_ks0108.c **** 	u8x8->cad_cb(u8x8, U8X8_MSG_CAD_END_TRANSFER, 7, NULL);
 587              		.loc 1 272 0
 588 00c4 2946     		mov	r1, r5
 589 00c6 2046     		mov	r0, r4
 590 00c8 FFF7FEFF 		bl	u8x8_cad_SendSequence
 591              	.LVL82:
 273:..\u8g2\csrc/u8x8_d_ks0108.c **** 
 592              		.loc 1 273 0
 593 00cc E668     		ldr	r6, [r4, #12]
 594 00ce 0023     		movs	r3, #0
 595 00d0 0722     		movs	r2, #7
 596 00d2 1921     		movs	r1, #25
 597 00d4 2046     		mov	r0, r4
 598 00d6 B047     		blx	r6
 599              	.LVL83:
 275:..\u8g2\csrc/u8x8_d_ks0108.c **** 	u8x8_cad_SendSequence(u8x8, u8x8_d_ks0108_powersave0_seq);
 600              		.loc 1 275 0
 601 00d8 E668     		ldr	r6, [r4, #12]
 602 00da 0023     		movs	r3, #0
 603 00dc 0622     		movs	r2, #6
 604 00de 1821     		movs	r1, #24
 605 00e0 2046     		mov	r0, r4
 606 00e2 B047     		blx	r6
 607              	.LVL84:
 276:..\u8g2\csrc/u8x8_d_ks0108.c **** 	u8x8->cad_cb(u8x8, U8X8_MSG_CAD_END_TRANSFER, 7, NULL);
 608              		.loc 1 276 0
 609 00e4 2946     		mov	r1, r5
 610 00e6 2046     		mov	r0, r4
 611 00e8 FFF7FEFF 		bl	u8x8_cad_SendSequence
 612              	.LVL85:
 277:..\u8g2\csrc/u8x8_d_ks0108.c **** 	
 613              		.loc 1 277 0
 614 00ec E568     		ldr	r5, [r4, #12]
 615 00ee 0023     		movs	r3, #0
 616 00f0 0722     		movs	r2, #7
 617 00f2 1921     		movs	r1, #25
 618 00f4 2046     		mov	r0, r4
 619 00f6 A847     		blx	r5
 620              	.LVL86:
 621              		.loc 1 342 0
 622 00f8 0120     		movs	r0, #1
 623 00fa 7CE0     		b	.L24
 624              	.LVL87:
 625              	.L30:
 282:..\u8g2\csrc/u8x8_d_ks0108.c **** 	u8x8_cad_SendSequence(u8x8, u8x8_d_ks0108_powersave1_seq);
ARM GAS  C:\Users\brian\AppData\Local\Temp\ccER9KKd.s 			page 19


 626              		.loc 1 282 0
 627 00fc C568     		ldr	r5, [r0, #12]
 628              	.LVL88:
 629 00fe 0023     		movs	r3, #0
 630 0100 0322     		movs	r2, #3
 631              	.LVL89:
 632 0102 1821     		movs	r1, #24
 633 0104 A847     		blx	r5
 634              	.LVL90:
 283:..\u8g2\csrc/u8x8_d_ks0108.c **** 	u8x8->cad_cb(u8x8, U8X8_MSG_CAD_END_TRANSFER, 7, NULL);
 635              		.loc 1 283 0
 636 0106 404D     		ldr	r5, .L36+12
 637 0108 2946     		mov	r1, r5
 638 010a 2046     		mov	r0, r4
 639 010c FFF7FEFF 		bl	u8x8_cad_SendSequence
 640              	.LVL91:
 284:..\u8g2\csrc/u8x8_d_ks0108.c **** 
 641              		.loc 1 284 0
 642 0110 E668     		ldr	r6, [r4, #12]
 643 0112 0023     		movs	r3, #0
 644 0114 0722     		movs	r2, #7
 645 0116 1921     		movs	r1, #25
 646 0118 2046     		mov	r0, r4
 647 011a B047     		blx	r6
 648              	.LVL92:
 286:..\u8g2\csrc/u8x8_d_ks0108.c **** 	u8x8_cad_SendSequence(u8x8, u8x8_d_ks0108_powersave1_seq);
 649              		.loc 1 286 0
 650 011c E668     		ldr	r6, [r4, #12]
 651 011e 0023     		movs	r3, #0
 652 0120 0522     		movs	r2, #5
 653 0122 1821     		movs	r1, #24
 654 0124 2046     		mov	r0, r4
 655 0126 B047     		blx	r6
 656              	.LVL93:
 287:..\u8g2\csrc/u8x8_d_ks0108.c **** 	u8x8->cad_cb(u8x8, U8X8_MSG_CAD_END_TRANSFER, 7, NULL);
 657              		.loc 1 287 0
 658 0128 2946     		mov	r1, r5
 659 012a 2046     		mov	r0, r4
 660 012c FFF7FEFF 		bl	u8x8_cad_SendSequence
 661              	.LVL94:
 288:..\u8g2\csrc/u8x8_d_ks0108.c **** 
 662              		.loc 1 288 0
 663 0130 E668     		ldr	r6, [r4, #12]
 664 0132 0023     		movs	r3, #0
 665 0134 0722     		movs	r2, #7
 666 0136 1921     		movs	r1, #25
 667 0138 2046     		mov	r0, r4
 668 013a B047     		blx	r6
 669              	.LVL95:
 290:..\u8g2\csrc/u8x8_d_ks0108.c **** 	u8x8_cad_SendSequence(u8x8, u8x8_d_ks0108_powersave1_seq);
 670              		.loc 1 290 0
 671 013c E668     		ldr	r6, [r4, #12]
 672 013e 0023     		movs	r3, #0
 673 0140 0622     		movs	r2, #6
 674 0142 1821     		movs	r1, #24
 675 0144 2046     		mov	r0, r4
 676 0146 B047     		blx	r6
ARM GAS  C:\Users\brian\AppData\Local\Temp\ccER9KKd.s 			page 20


 677              	.LVL96:
 291:..\u8g2\csrc/u8x8_d_ks0108.c **** 	u8x8->cad_cb(u8x8, U8X8_MSG_CAD_END_TRANSFER, 7, NULL);
 678              		.loc 1 291 0
 679 0148 2946     		mov	r1, r5
 680 014a 2046     		mov	r0, r4
 681 014c FFF7FEFF 		bl	u8x8_cad_SendSequence
 682              	.LVL97:
 292:..\u8g2\csrc/u8x8_d_ks0108.c **** 	
 683              		.loc 1 292 0
 684 0150 E568     		ldr	r5, [r4, #12]
 685 0152 0023     		movs	r3, #0
 686 0154 0722     		movs	r2, #7
 687 0156 1921     		movs	r1, #25
 688 0158 2046     		mov	r0, r4
 689 015a A847     		blx	r5
 690              	.LVL98:
 691              		.loc 1 342 0
 692 015c 0120     		movs	r0, #1
 693 015e 4AE0     		b	.L24
 694              	.LVL99:
 695              	.L29:
 304:..\u8g2\csrc/u8x8_d_ks0108.c ****       v.x = ((u8x8_tile_t *)arg_ptr)->x_pos;
 696              		.loc 1 304 0
 697 0160 2B68     		ldr	r3, [r5]
 698 0162 0093     		str	r3, [sp]
 305:..\u8g2\csrc/u8x8_d_ks0108.c ****       v.c = ((u8x8_tile_t *)arg_ptr)->cnt;
 699              		.loc 1 305 0
 700 0164 6B79     		ldrb	r3, [r5, #5]	@ zero_extendqisi2
 701 0166 8DF80430 		strb	r3, [sp, #4]
 306:..\u8g2\csrc/u8x8_d_ks0108.c ****       v.arg_int = arg_int;    
 702              		.loc 1 306 0
 703 016a 2979     		ldrb	r1, [r5, #4]	@ zero_extendqisi2
 704 016c 8DF80510 		strb	r1, [sp, #5]
 307:..\u8g2\csrc/u8x8_d_ks0108.c ****       
 705              		.loc 1 307 0
 706 0170 8DF80620 		strb	r2, [sp, #6]
 320:..\u8g2\csrc/u8x8_d_ks0108.c ****       {
 707              		.loc 1 320 0
 708 0174 072B     		cmp	r3, #7
 709 0176 0FD8     		bhi	.L31
 322:..\u8g2\csrc/u8x8_d_ks0108.c **** 	u8x8_ks0108_out(u8x8, &v, arg_ptr);
 710              		.loc 1 322 0
 711 0178 C668     		ldr	r6, [r0, #12]
 712 017a 0023     		movs	r3, #0
 713 017c 0622     		movs	r2, #6
 714              	.LVL100:
 715 017e 1821     		movs	r1, #24
 716 0180 B047     		blx	r6
 717              	.LVL101:
 323:..\u8g2\csrc/u8x8_d_ks0108.c **** 	u8x8->cad_cb(u8x8, U8X8_MSG_CAD_END_TRANSFER, 7, NULL);
 718              		.loc 1 323 0
 719 0182 2A46     		mov	r2, r5
 720 0184 6946     		mov	r1, sp
 721 0186 2046     		mov	r0, r4
 722 0188 FFF7FEFF 		bl	u8x8_ks0108_out
 723              	.LVL102:
 324:..\u8g2\csrc/u8x8_d_ks0108.c ****       }
ARM GAS  C:\Users\brian\AppData\Local\Temp\ccER9KKd.s 			page 21


 724              		.loc 1 324 0
 725 018c E668     		ldr	r6, [r4, #12]
 726 018e 0023     		movs	r3, #0
 727 0190 0722     		movs	r2, #7
 728 0192 1921     		movs	r1, #25
 729 0194 2046     		mov	r0, r4
 730 0196 B047     		blx	r6
 731              	.LVL103:
 732              	.L31:
 326:..\u8g2\csrc/u8x8_d_ks0108.c ****       {
 733              		.loc 1 326 0
 734 0198 9DF80430 		ldrb	r3, [sp, #4]	@ zero_extendqisi2
 735 019c 0F2B     		cmp	r3, #15
 736 019e 10D8     		bhi	.L32
 328:..\u8g2\csrc/u8x8_d_ks0108.c **** 	u8x8_ks0108_out(u8x8, &v, arg_ptr);
 737              		.loc 1 328 0
 738 01a0 E668     		ldr	r6, [r4, #12]
 739 01a2 0023     		movs	r3, #0
 740 01a4 0522     		movs	r2, #5
 741 01a6 1821     		movs	r1, #24
 742 01a8 2046     		mov	r0, r4
 743 01aa B047     		blx	r6
 744              	.LVL104:
 329:..\u8g2\csrc/u8x8_d_ks0108.c **** 	u8x8->cad_cb(u8x8, U8X8_MSG_CAD_END_TRANSFER, 7, NULL);
 745              		.loc 1 329 0
 746 01ac 2A46     		mov	r2, r5
 747 01ae 6946     		mov	r1, sp
 748 01b0 2046     		mov	r0, r4
 749 01b2 FFF7FEFF 		bl	u8x8_ks0108_out
 750              	.LVL105:
 330:..\u8g2\csrc/u8x8_d_ks0108.c ****       }
 751              		.loc 1 330 0
 752 01b6 E668     		ldr	r6, [r4, #12]
 753 01b8 0023     		movs	r3, #0
 754 01ba 0722     		movs	r2, #7
 755 01bc 1921     		movs	r1, #25
 756 01be 2046     		mov	r0, r4
 757 01c0 B047     		blx	r6
 758              	.LVL106:
 759              	.L32:
 332:..\u8g2\csrc/u8x8_d_ks0108.c ****       {
 760              		.loc 1 332 0
 761 01c2 9DF80430 		ldrb	r3, [sp, #4]	@ zero_extendqisi2
 762 01c6 172B     		cmp	r3, #23
 763 01c8 14D8     		bhi	.L34
 334:..\u8g2\csrc/u8x8_d_ks0108.c **** 	u8x8_ks0108_out(u8x8, &v, arg_ptr);
 764              		.loc 1 334 0
 765 01ca E668     		ldr	r6, [r4, #12]
 766 01cc 0023     		movs	r3, #0
 767 01ce 0322     		movs	r2, #3
 768 01d0 1821     		movs	r1, #24
 769 01d2 2046     		mov	r0, r4
 770 01d4 B047     		blx	r6
 771              	.LVL107:
 335:..\u8g2\csrc/u8x8_d_ks0108.c **** 	u8x8->cad_cb(u8x8, U8X8_MSG_CAD_END_TRANSFER, 7, NULL);
 772              		.loc 1 335 0
 773 01d6 2A46     		mov	r2, r5
ARM GAS  C:\Users\brian\AppData\Local\Temp\ccER9KKd.s 			page 22


 774 01d8 6946     		mov	r1, sp
 775 01da 2046     		mov	r0, r4
 776 01dc FFF7FEFF 		bl	u8x8_ks0108_out
 777              	.LVL108:
 336:..\u8g2\csrc/u8x8_d_ks0108.c ****       }    
 778              		.loc 1 336 0
 779 01e0 E568     		ldr	r5, [r4, #12]
 780              	.LVL109:
 781 01e2 0023     		movs	r3, #0
 782 01e4 0722     		movs	r2, #7
 783 01e6 1921     		movs	r1, #25
 784 01e8 2046     		mov	r0, r4
 785 01ea A847     		blx	r5
 786              	.LVL110:
 787              		.loc 1 342 0
 788 01ec 0120     		movs	r0, #1
 789 01ee 02E0     		b	.L24
 790              	.LVL111:
 791              	.L33:
 340:..\u8g2\csrc/u8x8_d_ks0108.c ****   }
 792              		.loc 1 340 0
 793 01f0 0020     		movs	r0, #0
 794              	.LVL112:
 795 01f2 00E0     		b	.L24
 796              	.LVL113:
 797              	.L34:
 798              		.loc 1 342 0
 799 01f4 0120     		movs	r0, #1
 800              	.LVL114:
 801              	.L24:
 343:..\u8g2\csrc/u8x8_d_ks0108.c **** }
 802              		.loc 1 343 0
 803 01f6 02B0     		add	sp, sp, #8
 804              		.cfi_def_cfa_offset 16
 805              		@ sp needed
 806 01f8 70BD     		pop	{r4, r5, r6, pc}
 807              	.LVL115:
 808              	.L37:
 809 01fa 00BF     		.align	2
 810              	.L36:
 811 01fc 24000000 		.word	.LANCHOR0+36
 812 0200 18000000 		.word	.LANCHOR0+24
 813 0204 1C000000 		.word	.LANCHOR0+28
 814 0208 20000000 		.word	.LANCHOR0+32
 815              		.cfi_endproc
 816              	.LFE2:
 817              		.size	u8x8_d_ks0108_erm19264, .-u8x8_d_ks0108_erm19264
 818              		.section	.rodata
 819              		.align	2
 820              		.set	.LANCHOR0,. + 0
 821              		.type	u8x8_ks0108_128x64_display_info, %object
 822              		.size	u8x8_ks0108_128x64_display_info, 24
 823              	u8x8_ks0108_128x64_display_info:
 824 0000 00       		.byte	0
 825 0001 01       		.byte	1
 826 0002 64       		.byte	100
 827 0003 14       		.byte	20
ARM GAS  C:\Users\brian\AppData\Local\Temp\ccER9KKd.s 			page 23


 828 0004 01       		.byte	1
 829 0005 06       		.byte	6
 830 0006 0C       		.byte	12
 831 0007 4B       		.byte	75
 832 0008 00093D00 		.word	4000000
 833 000c 00       		.byte	0
 834 000d 04       		.byte	4
 835 000e C8       		.byte	-56
 836 000f FA       		.byte	-6
 837 0010 10       		.byte	16
 838 0011 08       		.byte	8
 839 0012 00       		.byte	0
 840 0013 00       		.byte	0
 841 0014 8000     		.short	128
 842 0016 4000     		.short	64
 843              		.type	u8x8_d_ks0108_init_seq, %object
 844              		.size	u8x8_d_ks0108_init_seq, 3
 845              	u8x8_d_ks0108_init_seq:
 846 0018 15       		.byte	21
 847 0019 C0       		.byte	-64
 848 001a FF       		.byte	-1
 849 001b 00       		.space	1
 850              		.type	u8x8_d_ks0108_powersave0_seq, %object
 851              		.size	u8x8_d_ks0108_powersave0_seq, 3
 852              	u8x8_d_ks0108_powersave0_seq:
 853 001c 15       		.byte	21
 854 001d 3F       		.byte	63
 855 001e FF       		.byte	-1
 856 001f 00       		.space	1
 857              		.type	u8x8_d_ks0108_powersave1_seq, %object
 858              		.size	u8x8_d_ks0108_powersave1_seq, 3
 859              	u8x8_d_ks0108_powersave1_seq:
 860 0020 15       		.byte	21
 861 0021 3E       		.byte	62
 862 0022 FF       		.byte	-1
 863 0023 00       		.space	1
 864              		.type	u8x8_ks0108_192x64_display_info, %object
 865              		.size	u8x8_ks0108_192x64_display_info, 24
 866              	u8x8_ks0108_192x64_display_info:
 867 0024 00       		.byte	0
 868 0025 01       		.byte	1
 869 0026 64       		.byte	100
 870 0027 14       		.byte	20
 871 0028 01       		.byte	1
 872 0029 06       		.byte	6
 873 002a 0C       		.byte	12
 874 002b 4B       		.byte	75
 875 002c 00093D00 		.word	4000000
 876 0030 00       		.byte	0
 877 0031 04       		.byte	4
 878 0032 C8       		.byte	-56
 879 0033 FA       		.byte	-6
 880 0034 18       		.byte	24
 881 0035 08       		.byte	8
 882 0036 00       		.byte	0
 883 0037 00       		.byte	0
 884 0038 C000     		.short	192
ARM GAS  C:\Users\brian\AppData\Local\Temp\ccER9KKd.s 			page 24


 885 003a 4000     		.short	64
 886              		.text
 887              	.Letext0:
 888              		.file 2 "c:\\program files (x86)\\cypress\\psoc creator\\4.4\\psoc creator\\import\\gnu\\arm\\5.4.
 889              		.file 3 "c:\\program files (x86)\\cypress\\psoc creator\\4.4\\psoc creator\\import\\gnu\\arm\\5.4.
 890              		.file 4 "..\\u8g2\\csrc\\u8x8.h"