ARM GAS  C:\Users\brian\AppData\Local\Temp\ccpa9McL.s 			page 1


   1              		.syntax unified
   2              		.cpu cortex-m3
   3              		.fpu softvfp
   4              		.eabi_attribute 20, 1
   5              		.eabi_attribute 21, 1
   6              		.eabi_attribute 23, 3
   7              		.eabi_attribute 24, 1
   8              		.eabi_attribute 25, 1
   9              		.eabi_attribute 26, 1
  10              		.eabi_attribute 30, 1
  11              		.eabi_attribute 34, 1
  12              		.eabi_attribute 18, 4
  13              		.thumb
  14              		.syntax unified
  15              		.file	"u8x8_d_ssd1606_172x72.c"
  16              		.text
  17              	.Ltext0:
  18              		.cfi_sections	.debug_frame
  19              		.section	.text.u8x8_convert_tile_for_ssd1606,"ax",%progbits
  20              		.align	2
  21              		.thumb
  22              		.thumb_func
  23              		.type	u8x8_convert_tile_for_ssd1606, %function
  24              	u8x8_convert_tile_for_ssd1606:
  25              	.LFB0:
  26              		.file 1 "..\\u8g2\\csrc\\u8x8_d_ssd1606_172x72.c"
   1:..\u8g2\csrc/u8x8_d_ssd1606_172x72.c **** /*
   2:..\u8g2\csrc/u8x8_d_ssd1606_172x72.c **** 
   3:..\u8g2\csrc/u8x8_d_ssd1606_172x72.c ****   u8x8_d_ssd1606_172x72.c
   4:..\u8g2\csrc/u8x8_d_ssd1606_172x72.c **** 
   5:..\u8g2\csrc/u8x8_d_ssd1606_172x72.c ****   Universal 8bit Graphics Library (https://github.com/olikraus/u8g2/)
   6:..\u8g2\csrc/u8x8_d_ssd1606_172x72.c **** 
   7:..\u8g2\csrc/u8x8_d_ssd1606_172x72.c ****   Copyright (c) 2016, olikraus@gmail.com
   8:..\u8g2\csrc/u8x8_d_ssd1606_172x72.c ****   All rights reserved.
   9:..\u8g2\csrc/u8x8_d_ssd1606_172x72.c **** 
  10:..\u8g2\csrc/u8x8_d_ssd1606_172x72.c ****   Redistribution and use in source and binary forms, with or without modification, 
  11:..\u8g2\csrc/u8x8_d_ssd1606_172x72.c ****   are permitted provided that the following conditions are met:
  12:..\u8g2\csrc/u8x8_d_ssd1606_172x72.c **** 
  13:..\u8g2\csrc/u8x8_d_ssd1606_172x72.c ****   * Redistributions of source code must retain the above copyright notice, this list 
  14:..\u8g2\csrc/u8x8_d_ssd1606_172x72.c ****     of conditions and the following disclaimer.
  15:..\u8g2\csrc/u8x8_d_ssd1606_172x72.c ****     
  16:..\u8g2\csrc/u8x8_d_ssd1606_172x72.c ****   * Redistributions in binary form must reproduce the above copyright notice, this 
  17:..\u8g2\csrc/u8x8_d_ssd1606_172x72.c ****     list of conditions and the following disclaimer in the documentation and/or other 
  18:..\u8g2\csrc/u8x8_d_ssd1606_172x72.c ****     materials provided with the distribution.
  19:..\u8g2\csrc/u8x8_d_ssd1606_172x72.c **** 
  20:..\u8g2\csrc/u8x8_d_ssd1606_172x72.c ****   THIS SOFTWARE IS PROVIDED BY THE COPYRIGHT HOLDERS AND 
  21:..\u8g2\csrc/u8x8_d_ssd1606_172x72.c ****   CONTRIBUTORS "AS IS" AND ANY EXPRESS OR IMPLIED WARRANTIES, 
  22:..\u8g2\csrc/u8x8_d_ssd1606_172x72.c ****   INCLUDING, BUT NOT LIMITED TO, THE IMPLIED WARRANTIES OF 
  23:..\u8g2\csrc/u8x8_d_ssd1606_172x72.c ****   MERCHANTABILITY AND FITNESS FOR A PARTICULAR PURPOSE ARE 
  24:..\u8g2\csrc/u8x8_d_ssd1606_172x72.c ****   DISCLAIMED. IN NO EVENT SHALL THE COPYRIGHT HOLDER OR 
  25:..\u8g2\csrc/u8x8_d_ssd1606_172x72.c ****   CONTRIBUTORS BE LIABLE FOR ANY DIRECT, INDIRECT, INCIDENTAL, 
  26:..\u8g2\csrc/u8x8_d_ssd1606_172x72.c ****   SPECIAL, EXEMPLARY, OR CONSEQUENTIAL DAMAGES (INCLUDING, BUT 
  27:..\u8g2\csrc/u8x8_d_ssd1606_172x72.c ****   NOT LIMITED TO, PROCUREMENT OF SUBSTITUTE GOODS OR SERVICES; 
  28:..\u8g2\csrc/u8x8_d_ssd1606_172x72.c ****   LOSS OF USE, DATA, OR PROFITS; OR BUSINESS INTERRUPTION) HOWEVER 
  29:..\u8g2\csrc/u8x8_d_ssd1606_172x72.c ****   CAUSED AND ON ANY THEORY OF LIABILITY, WHETHER IN CONTRACT, 
  30:..\u8g2\csrc/u8x8_d_ssd1606_172x72.c ****   STRICT LIABILITY, OR TORT (INCLUDING NEGLIGENCE OR OTHERWISE) 
  31:..\u8g2\csrc/u8x8_d_ssd1606_172x72.c ****   ARISING IN ANY WAY OUT OF THE USE OF THIS SOFTWARE, EVEN IF 
ARM GAS  C:\Users\brian\AppData\Local\Temp\ccpa9McL.s 			page 2


  32:..\u8g2\csrc/u8x8_d_ssd1606_172x72.c ****   ADVISED OF THE POSSIBILITY OF SUCH DAMAGE.  
  33:..\u8g2\csrc/u8x8_d_ssd1606_172x72.c ****   
  34:..\u8g2\csrc/u8x8_d_ssd1606_172x72.c ****   SSD1606: 128x180x2 
  35:..\u8g2\csrc/u8x8_d_ssd1606_172x72.c ****   two-bit, four graylevels
  36:..\u8g2\csrc/u8x8_d_ssd1606_172x72.c ****   command 
  37:..\u8g2\csrc/u8x8_d_ssd1606_172x72.c ****     0x22: assign actions
  38:..\u8g2\csrc/u8x8_d_ssd1606_172x72.c ****     0x20: execute actions
  39:..\u8g2\csrc/u8x8_d_ssd1606_172x72.c ****   
  40:..\u8g2\csrc/u8x8_d_ssd1606_172x72.c ****   action for command 0x022 are (more or less guessed)
  41:..\u8g2\csrc/u8x8_d_ssd1606_172x72.c ****     bit 7:	Enable Clock
  42:..\u8g2\csrc/u8x8_d_ssd1606_172x72.c ****     bit 6:	Enable Charge Pump
  43:..\u8g2\csrc/u8x8_d_ssd1606_172x72.c ****     bit 5:	Load Temparture Value (???)
  44:..\u8g2\csrc/u8x8_d_ssd1606_172x72.c ****     bit 4:	Load LUT (???)
  45:..\u8g2\csrc/u8x8_d_ssd1606_172x72.c ****     bit 3:	Initial Display (???)
  46:..\u8g2\csrc/u8x8_d_ssd1606_172x72.c ****     bit 2:	Pattern Display --> Requires about 945ms with the LUT from below
  47:..\u8g2\csrc/u8x8_d_ssd1606_172x72.c ****     bit 1:	Disable Charge Pump
  48:..\u8g2\csrc/u8x8_d_ssd1606_172x72.c ****     bit 0:	Disable Clock
  49:..\u8g2\csrc/u8x8_d_ssd1606_172x72.c ****     
  50:..\u8g2\csrc/u8x8_d_ssd1606_172x72.c ****     Disable Charge Pump and Clock require about 267ms
  51:..\u8g2\csrc/u8x8_d_ssd1606_172x72.c ****     Enable Charge Pump and Clock require about 10ms
  52:..\u8g2\csrc/u8x8_d_ssd1606_172x72.c **** 
  53:..\u8g2\csrc/u8x8_d_ssd1606_172x72.c ****   Notes:
  54:..\u8g2\csrc/u8x8_d_ssd1606_172x72.c ****     - Introduced a refresh display message, which copies RAM to display
  55:..\u8g2\csrc/u8x8_d_ssd1606_172x72.c ****     - Charge pump and clock are only enabled for the transfer RAM to display
  56:..\u8g2\csrc/u8x8_d_ssd1606_172x72.c ****     - U8x8 will not really work because of the two buffers in the SSD1606, however U8g2 should be o
  57:..\u8g2\csrc/u8x8_d_ssd1606_172x72.c **** 
  58:..\u8g2\csrc/u8x8_d_ssd1606_172x72.c **** */
  59:..\u8g2\csrc/u8x8_d_ssd1606_172x72.c **** 
  60:..\u8g2\csrc/u8x8_d_ssd1606_172x72.c **** 
  61:..\u8g2\csrc/u8x8_d_ssd1606_172x72.c **** #include "u8x8.h"
  62:..\u8g2\csrc/u8x8_d_ssd1606_172x72.c **** 
  63:..\u8g2\csrc/u8x8_d_ssd1606_172x72.c **** 
  64:..\u8g2\csrc/u8x8_d_ssd1606_172x72.c **** #define L(a,b,c,d) (((a)<<6)|((b)<<4)|((c)<<2)|(d))
  65:..\u8g2\csrc/u8x8_d_ssd1606_172x72.c **** 
  66:..\u8g2\csrc/u8x8_d_ssd1606_172x72.c **** 
  67:..\u8g2\csrc/u8x8_d_ssd1606_172x72.c **** /* GDE021A1, 2.1" EPD */
  68:..\u8g2\csrc/u8x8_d_ssd1606_172x72.c **** static const uint8_t u8x8_d_ssd1606_172x72_gde021a1_init_seq[] = {
  69:..\u8g2\csrc/u8x8_d_ssd1606_172x72.c ****     
  70:..\u8g2\csrc/u8x8_d_ssd1606_172x72.c ****   U8X8_START_TRANSFER(),             	/* enable chip, delay is part of the transfer start */
  71:..\u8g2\csrc/u8x8_d_ssd1606_172x72.c **** 
  72:..\u8g2\csrc/u8x8_d_ssd1606_172x72.c ****   U8X8_CA(0x10, 0x00),	/* Deep Sleep mode Control: Disable */
  73:..\u8g2\csrc/u8x8_d_ssd1606_172x72.c ****   U8X8_CA(0x11, 0x03),	/* Define data entry mode, x&y inc, x first */
  74:..\u8g2\csrc/u8x8_d_ssd1606_172x72.c ****   U8X8_CAA(0x44, 0, 31),	/* RAM x start & end, each byte has 4 pixel, 32*4=128 */
  75:..\u8g2\csrc/u8x8_d_ssd1606_172x72.c ****   U8X8_CAA(0x45, 0, 179),	/* RAM y start & end, 179 MAX */
  76:..\u8g2\csrc/u8x8_d_ssd1606_172x72.c ****   
  77:..\u8g2\csrc/u8x8_d_ssd1606_172x72.c ****   U8X8_CA(0x4e, 0),	/* set x pos, 0..31 */
  78:..\u8g2\csrc/u8x8_d_ssd1606_172x72.c ****   U8X8_CA(0x4f, 0),	/* set y pos, 0...179 */
  79:..\u8g2\csrc/u8x8_d_ssd1606_172x72.c **** 
  80:..\u8g2\csrc/u8x8_d_ssd1606_172x72.c ****   U8X8_CA(0xf0, 0x1f),	/* set booster feedback to internal */
  81:..\u8g2\csrc/u8x8_d_ssd1606_172x72.c ****   U8X8_CA(0x22, 0xc0),	/* display update seq. option: enable clk, enable CP, .... todo: this is nev
  82:..\u8g2\csrc/u8x8_d_ssd1606_172x72.c ****   
  83:..\u8g2\csrc/u8x8_d_ssd1606_172x72.c ****   U8X8_C(0x32),	/* write LUT register*/
  84:..\u8g2\csrc/u8x8_d_ssd1606_172x72.c **** 
  85:..\u8g2\csrc/u8x8_d_ssd1606_172x72.c **** #ifdef ORIGINAL_LUT
  86:..\u8g2\csrc/u8x8_d_ssd1606_172x72.c ****   
  87:..\u8g2\csrc/u8x8_d_ssd1606_172x72.c ****   /* wavefrom part of the LUT: absolute LUT... this will always force the destination color */
  88:..\u8g2\csrc/u8x8_d_ssd1606_172x72.c ****   U8X8_A4(0x00,0x00,0x00,0x55),  /* step 0 */
ARM GAS  C:\Users\brian\AppData\Local\Temp\ccpa9McL.s 			page 3


  89:..\u8g2\csrc/u8x8_d_ssd1606_172x72.c ****   U8X8_A4(0x00,0x00,0x55,0x55),	/* step 1 */
  90:..\u8g2\csrc/u8x8_d_ssd1606_172x72.c ****   U8X8_A4(0x00,0x55,0x55,0x55),
  91:..\u8g2\csrc/u8x8_d_ssd1606_172x72.c ****   U8X8_A4(0xAA,0xAA,0xAA,0xAA),
  92:..\u8g2\csrc/u8x8_d_ssd1606_172x72.c ****   U8X8_A4(0x15,0x15,0x15,0x15),
  93:..\u8g2\csrc/u8x8_d_ssd1606_172x72.c ****   U8X8_A4(0x05,0x05,0x05,0x05),
  94:..\u8g2\csrc/u8x8_d_ssd1606_172x72.c ****   U8X8_A4(0x01,0x01,0x01,0x01),
  95:..\u8g2\csrc/u8x8_d_ssd1606_172x72.c ****   U8X8_A4(0x00,0x00,0x00,0x00),
  96:..\u8g2\csrc/u8x8_d_ssd1606_172x72.c ****   U8X8_A4(0x00,0x00,0x00,0x00),
  97:..\u8g2\csrc/u8x8_d_ssd1606_172x72.c ****   U8X8_A4(0x00,0x00,0x00,0x00),
  98:..\u8g2\csrc/u8x8_d_ssd1606_172x72.c ****   U8X8_A4(0x00,0x00,0x00,0x00),
  99:..\u8g2\csrc/u8x8_d_ssd1606_172x72.c ****   U8X8_A4(0x00,0x00,0x00,0x00),
 100:..\u8g2\csrc/u8x8_d_ssd1606_172x72.c ****   U8X8_A4(0x00,0x00,0x00,0x00),
 101:..\u8g2\csrc/u8x8_d_ssd1606_172x72.c ****   U8X8_A4(0x00,0x00,0x00,0x00),
 102:..\u8g2\csrc/u8x8_d_ssd1606_172x72.c ****   U8X8_A4(0x00,0x00,0x00,0x00),
 103:..\u8g2\csrc/u8x8_d_ssd1606_172x72.c ****   U8X8_A4(0x00,0x00,0x00,0x00),
 104:..\u8g2\csrc/u8x8_d_ssd1606_172x72.c ****   U8X8_A4(0x00,0x00,0x00,0x00),
 105:..\u8g2\csrc/u8x8_d_ssd1606_172x72.c ****   U8X8_A4(0x00,0x00,0x00,0x00),
 106:..\u8g2\csrc/u8x8_d_ssd1606_172x72.c ****   U8X8_A4(0x00,0x00,0x00,0x00),
 107:..\u8g2\csrc/u8x8_d_ssd1606_172x72.c ****   U8X8_A4(0x00,0x00,0x00,0x00),	/* step 19 */
 108:..\u8g2\csrc/u8x8_d_ssd1606_172x72.c ****   
 109:..\u8g2\csrc/u8x8_d_ssd1606_172x72.c ****   /* timing part of the LUT */
 110:..\u8g2\csrc/u8x8_d_ssd1606_172x72.c ****   U8X8_A8(0x22,0xFB,0x22,0x1B,0x00,0x00,0x00,0x00),
 111:..\u8g2\csrc/u8x8_d_ssd1606_172x72.c ****   U8X8_A(0x00),U8X8_A(0x00),
 112:..\u8g2\csrc/u8x8_d_ssd1606_172x72.c **** 
 113:..\u8g2\csrc/u8x8_d_ssd1606_172x72.c **** #else
 114:..\u8g2\csrc/u8x8_d_ssd1606_172x72.c **** 
 115:..\u8g2\csrc/u8x8_d_ssd1606_172x72.c ****   /* the following LUT will not change anything if the old and the new values are the same */
 116:..\u8g2\csrc/u8x8_d_ssd1606_172x72.c ****   /* 03 02 01 00	13 12 11 10 	23 22 21 20	33 32 31 30 				original */
 117:..\u8g2\csrc/u8x8_d_ssd1606_172x72.c ****   U8X8_A4(L(0, 0, 0, 0), 	L(0, 0, 0, 0), 	L(0, 0, 0, 0), 	L(0, 1, 1, 1)),		// 0x00,0x00,0x00,0x55,	
 118:..\u8g2\csrc/u8x8_d_ssd1606_172x72.c ****   U8X8_A4(L(0, 0, 0, 0), 	L(0, 0, 0, 0), 	L(1, 0, 1, 1), 	L(0, 1, 1, 1)),		// 0x00,0x00,0x55,0x55,	
 119:..\u8g2\csrc/u8x8_d_ssd1606_172x72.c ****   U8X8_A4(L(0, 0, 0, 0), 	L(1, 1, 0, 1), 	L(1, 0, 1, 1), 	L(0, 1, 1, 1)),		// 0x00,0x55,0x55,0x55,	
 120:..\u8g2\csrc/u8x8_d_ssd1606_172x72.c ****   U8X8_A4(L(2, 2, 2, 0), 	L(2, 2, 0, 2), 	L(2, 0, 2, 2), 	L(0, 2, 2, 2)),		// 0xAA,0xAA,0xAA,0xAA,	
 121:..\u8g2\csrc/u8x8_d_ssd1606_172x72.c ****   U8X8_A4(L(0, 1, 1, 0), 	L(0, 1, 0, 1), 	L(0, 0, 1, 1), 	L(0, 1, 1, 1)),		// 0x15,0x15,0x15,0x15,	
 122:..\u8g2\csrc/u8x8_d_ssd1606_172x72.c ****   U8X8_A4(L(0, 0, 1, 0), 	L(0, 0, 0, 1), 	L(0, 0, 1, 1), 	L(0, 0, 1, 1)),		// 0x05,0x05,0x05,0x05,	
 123:..\u8g2\csrc/u8x8_d_ssd1606_172x72.c ****   U8X8_A4(L(0, 0, 0, 0), 	L(0, 0, 0, 1), 	L(0, 0, 0, 1), 	L(0, 0, 0, 1)),		// 0x01,0x01,0x01,0x01,	
 124:..\u8g2\csrc/u8x8_d_ssd1606_172x72.c ****   U8X8_A4(0x00,0x00,0x00,0x00),
 125:..\u8g2\csrc/u8x8_d_ssd1606_172x72.c ****   U8X8_A4(0x00,0x00,0x00,0x00),
 126:..\u8g2\csrc/u8x8_d_ssd1606_172x72.c ****   U8X8_A4(0x00,0x00,0x00,0x00),
 127:..\u8g2\csrc/u8x8_d_ssd1606_172x72.c ****   U8X8_A4(0x00,0x00,0x00,0x00),
 128:..\u8g2\csrc/u8x8_d_ssd1606_172x72.c ****   U8X8_A4(0x00,0x00,0x00,0x00),
 129:..\u8g2\csrc/u8x8_d_ssd1606_172x72.c ****   U8X8_A4(0x00,0x00,0x00,0x00),
 130:..\u8g2\csrc/u8x8_d_ssd1606_172x72.c ****   U8X8_A4(0x00,0x00,0x00,0x00),
 131:..\u8g2\csrc/u8x8_d_ssd1606_172x72.c ****   U8X8_A4(0x00,0x00,0x00,0x00),
 132:..\u8g2\csrc/u8x8_d_ssd1606_172x72.c ****   U8X8_A4(0x00,0x00,0x00,0x00),
 133:..\u8g2\csrc/u8x8_d_ssd1606_172x72.c ****   U8X8_A4(0x00,0x00,0x00,0x00),
 134:..\u8g2\csrc/u8x8_d_ssd1606_172x72.c ****   U8X8_A4(0x00,0x00,0x00,0x00),
 135:..\u8g2\csrc/u8x8_d_ssd1606_172x72.c ****   U8X8_A4(0x00,0x00,0x00,0x00),
 136:..\u8g2\csrc/u8x8_d_ssd1606_172x72.c ****   U8X8_A4(0x00,0x00,0x00,0x00),	/* step 19 */
 137:..\u8g2\csrc/u8x8_d_ssd1606_172x72.c ****   
 138:..\u8g2\csrc/u8x8_d_ssd1606_172x72.c ****   /* timing part of the LUT */
 139:..\u8g2\csrc/u8x8_d_ssd1606_172x72.c ****   U8X8_A8(0x22,0xFB,0x22,0x1B,0x00,0x00,0x00,0x00),
 140:..\u8g2\csrc/u8x8_d_ssd1606_172x72.c ****   U8X8_A(0x00),U8X8_A(0x00),
 141:..\u8g2\csrc/u8x8_d_ssd1606_172x72.c **** 
 142:..\u8g2\csrc/u8x8_d_ssd1606_172x72.c **** #endif
 143:..\u8g2\csrc/u8x8_d_ssd1606_172x72.c ****   
 144:..\u8g2\csrc/u8x8_d_ssd1606_172x72.c ****   U8X8_CA(0x2c, 0xa0),	/* write vcom value*/
 145:..\u8g2\csrc/u8x8_d_ssd1606_172x72.c ****   U8X8_CA(0x3c, 0x63),	/* select boarder waveform */
ARM GAS  C:\Users\brian\AppData\Local\Temp\ccpa9McL.s 			page 4


 146:..\u8g2\csrc/u8x8_d_ssd1606_172x72.c ****   U8X8_CA(0x22, 0xc4),	/* display update seq. option: clk -> CP -> LUT -> initial display -> patter
 147:..\u8g2\csrc/u8x8_d_ssd1606_172x72.c ****     /* 0x0c4 is mentioned in chapter 9.2 of the GDE021A1 data sheet */
 148:..\u8g2\csrc/u8x8_d_ssd1606_172x72.c ****   
 149:..\u8g2\csrc/u8x8_d_ssd1606_172x72.c ****   U8X8_END_TRANSFER(),             	/* disable chip */
 150:..\u8g2\csrc/u8x8_d_ssd1606_172x72.c ****   U8X8_END()             			/* end of sequence */
 151:..\u8g2\csrc/u8x8_d_ssd1606_172x72.c **** };
 152:..\u8g2\csrc/u8x8_d_ssd1606_172x72.c **** 
 153:..\u8g2\csrc/u8x8_d_ssd1606_172x72.c **** static const uint8_t u8x8_d_ssd1606_to_display_seq[] = {
 154:..\u8g2\csrc/u8x8_d_ssd1606_172x72.c ****   U8X8_START_TRANSFER(),             	/* enable chip, delay is part of the transfer start */
 155:..\u8g2\csrc/u8x8_d_ssd1606_172x72.c ****   
 156:..\u8g2\csrc/u8x8_d_ssd1606_172x72.c ****   
 157:..\u8g2\csrc/u8x8_d_ssd1606_172x72.c ****   //U8X8_CA(0x22, 0xc0),	/* display update seq. option: Enable clock and charge pump */
 158:..\u8g2\csrc/u8x8_d_ssd1606_172x72.c ****   //U8X8_C(0x20),	/* execute sequence */
 159:..\u8g2\csrc/u8x8_d_ssd1606_172x72.c ****   //U8X8_DLY(10),
 160:..\u8g2\csrc/u8x8_d_ssd1606_172x72.c ****   /* strange, splitting 0x0c0 does not work reliable */
 161:..\u8g2\csrc/u8x8_d_ssd1606_172x72.c ****   
 162:..\u8g2\csrc/u8x8_d_ssd1606_172x72.c ****   U8X8_CA(0x22, 0xc4),	/* display update seq. option: clk -> CP -> LUT -> initial display -> patter
 163:..\u8g2\csrc/u8x8_d_ssd1606_172x72.c ****   U8X8_C(0x20),	/* execute sequence */
 164:..\u8g2\csrc/u8x8_d_ssd1606_172x72.c ****   U8X8_DLY(250),	/* the sequence above requires about 970ms */
 165:..\u8g2\csrc/u8x8_d_ssd1606_172x72.c ****   U8X8_DLY(250),
 166:..\u8g2\csrc/u8x8_d_ssd1606_172x72.c ****   U8X8_DLY(250),
 167:..\u8g2\csrc/u8x8_d_ssd1606_172x72.c ****   U8X8_DLY(230),
 168:..\u8g2\csrc/u8x8_d_ssd1606_172x72.c ****   
 169:..\u8g2\csrc/u8x8_d_ssd1606_172x72.c ****   U8X8_CA(0x22, 0x03),	/* disable clock and charge pump */
 170:..\u8g2\csrc/u8x8_d_ssd1606_172x72.c ****   U8X8_DLY(200),		/* this requres about 270ms */
 171:..\u8g2\csrc/u8x8_d_ssd1606_172x72.c ****   U8X8_DLY(90),  
 172:..\u8g2\csrc/u8x8_d_ssd1606_172x72.c ****   
 173:..\u8g2\csrc/u8x8_d_ssd1606_172x72.c ****   //U8X8_CA(0x10, 0x01), /* deep sleep mode */
 174:..\u8g2\csrc/u8x8_d_ssd1606_172x72.c ****   //U8X8_C(0x20), 		/* execute sequence */
 175:..\u8g2\csrc/u8x8_d_ssd1606_172x72.c ****   U8X8_DLY(50),  
 176:..\u8g2\csrc/u8x8_d_ssd1606_172x72.c ****   
 177:..\u8g2\csrc/u8x8_d_ssd1606_172x72.c ****   U8X8_END_TRANSFER(),             	/* disable chip */
 178:..\u8g2\csrc/u8x8_d_ssd1606_172x72.c ****   U8X8_END()             			/* end of sequence */
 179:..\u8g2\csrc/u8x8_d_ssd1606_172x72.c **** };
 180:..\u8g2\csrc/u8x8_d_ssd1606_172x72.c **** 
 181:..\u8g2\csrc/u8x8_d_ssd1606_172x72.c **** 
 182:..\u8g2\csrc/u8x8_d_ssd1606_172x72.c **** // static const uint8_t u8x8_d_ssd1606_172x72_powersave0_seq[] = {
 183:..\u8g2\csrc/u8x8_d_ssd1606_172x72.c **** //   U8X8_START_TRANSFER(),             	/* enable chip, delay is part of the transfer start */
 184:..\u8g2\csrc/u8x8_d_ssd1606_172x72.c **** //   U8X8_END_TRANSFER(),             	/* disable chip */
 185:..\u8g2\csrc/u8x8_d_ssd1606_172x72.c **** //   U8X8_END()             			/* end of sequence */
 186:..\u8g2\csrc/u8x8_d_ssd1606_172x72.c **** // };
 187:..\u8g2\csrc/u8x8_d_ssd1606_172x72.c **** 
 188:..\u8g2\csrc/u8x8_d_ssd1606_172x72.c **** 
 189:..\u8g2\csrc/u8x8_d_ssd1606_172x72.c **** // static const uint8_t u8x8_d_ssd1606_172x72_powersave1_seq[] = {
 190:..\u8g2\csrc/u8x8_d_ssd1606_172x72.c **** //   U8X8_START_TRANSFER(),             	/* enable chip, delay is part of the transfer start */
 191:..\u8g2\csrc/u8x8_d_ssd1606_172x72.c **** //   U8X8_END_TRANSFER(),             	/* disable chip */
 192:..\u8g2\csrc/u8x8_d_ssd1606_172x72.c **** //   U8X8_END()             			/* end of sequence */
 193:..\u8g2\csrc/u8x8_d_ssd1606_172x72.c **** // };
 194:..\u8g2\csrc/u8x8_d_ssd1606_172x72.c **** 
 195:..\u8g2\csrc/u8x8_d_ssd1606_172x72.c **** // static const uint8_t u8x8_d_ssd1606_172x72_flip0_seq[] = {
 196:..\u8g2\csrc/u8x8_d_ssd1606_172x72.c **** //   U8X8_START_TRANSFER(),             	/* enable chip, delay is part of the transfer start */
 197:..\u8g2\csrc/u8x8_d_ssd1606_172x72.c **** //   U8X8_END_TRANSFER(),             	/* disable chip */
 198:..\u8g2\csrc/u8x8_d_ssd1606_172x72.c **** //   U8X8_END()             			/* end of sequence */
 199:..\u8g2\csrc/u8x8_d_ssd1606_172x72.c **** // };
 200:..\u8g2\csrc/u8x8_d_ssd1606_172x72.c **** 
 201:..\u8g2\csrc/u8x8_d_ssd1606_172x72.c **** // static const uint8_t u8x8_d_ssd1606_172x72_flip1_seq[] = {
 202:..\u8g2\csrc/u8x8_d_ssd1606_172x72.c **** //   U8X8_START_TRANSFER(),             	/* enable chip, delay is part of the transfer start */
ARM GAS  C:\Users\brian\AppData\Local\Temp\ccpa9McL.s 			page 5


 203:..\u8g2\csrc/u8x8_d_ssd1606_172x72.c **** //   U8X8_END_TRANSFER(),             	/* disable chip */
 204:..\u8g2\csrc/u8x8_d_ssd1606_172x72.c **** //   U8X8_END()             			/* end of sequence */
 205:..\u8g2\csrc/u8x8_d_ssd1606_172x72.c **** // };
 206:..\u8g2\csrc/u8x8_d_ssd1606_172x72.c **** 
 207:..\u8g2\csrc/u8x8_d_ssd1606_172x72.c **** 
 208:..\u8g2\csrc/u8x8_d_ssd1606_172x72.c **** static uint8_t *u8x8_convert_tile_for_ssd1606(uint8_t *t)
 209:..\u8g2\csrc/u8x8_d_ssd1606_172x72.c **** {
  27              		.loc 1 209 0
  28              		.cfi_startproc
  29              		@ args = 0, pretend = 0, frame = 0
  30              		@ frame_needed = 0, uses_anonymous_args = 0
  31              	.LVL0:
  32 0000 70B5     		push	{r4, r5, r6, lr}
  33              		.cfi_def_cfa_offset 16
  34              		.cfi_offset 4, -16
  35              		.cfi_offset 5, -12
  36              		.cfi_offset 6, -8
  37              		.cfi_offset 14, -4
  38              	.LVL1:
 210:..\u8g2\csrc/u8x8_d_ssd1606_172x72.c ****   uint8_t i;
 211:..\u8g2\csrc/u8x8_d_ssd1606_172x72.c ****   uint16_t r;
 212:..\u8g2\csrc/u8x8_d_ssd1606_172x72.c ****   static uint8_t buf[16];
 213:..\u8g2\csrc/u8x8_d_ssd1606_172x72.c ****   uint8_t *pbuf = buf;
  39              		.loc 1 213 0
  40 0002 0B4E     		ldr	r6, .L5
 214:..\u8g2\csrc/u8x8_d_ssd1606_172x72.c **** 
 215:..\u8g2\csrc/u8x8_d_ssd1606_172x72.c ****   for( i = 0; i < 8; i++ )
  41              		.loc 1 215 0
  42 0004 0024     		movs	r4, #0
  43 0006 0EE0     		b	.L2
  44              	.LVL2:
  45              	.L3:
 216:..\u8g2\csrc/u8x8_d_ssd1606_172x72.c ****   {
 217:..\u8g2\csrc/u8x8_d_ssd1606_172x72.c ****     r = u8x8_upscale_byte(~(*t++));
  46              		.loc 1 217 0 discriminator 3
  47 0008 451C     		adds	r5, r0, #1
  48              	.LVL3:
  49 000a 0078     		ldrb	r0, [r0]	@ zero_extendqisi2
  50 000c C043     		mvns	r0, r0
  51 000e C0B2     		uxtb	r0, r0
  52 0010 FFF7FEFF 		bl	u8x8_upscale_byte
  53              	.LVL4:
 218:..\u8g2\csrc/u8x8_d_ssd1606_172x72.c ****     *pbuf++ = (r>>8) & 255;
  54              		.loc 1 218 0 discriminator 3
  55 0014 020A     		lsrs	r2, r0, #8
  56 0016 3346     		mov	r3, r6
  57 0018 03F8022B 		strb	r2, [r3], #2
  58              	.LVL5:
 219:..\u8g2\csrc/u8x8_d_ssd1606_172x72.c ****     *pbuf++ = r & 255;
  59              		.loc 1 219 0 discriminator 3
  60 001c 7070     		strb	r0, [r6, #1]
 215:..\u8g2\csrc/u8x8_d_ssd1606_172x72.c ****   {
  61              		.loc 1 215 0 discriminator 3
  62 001e 0134     		adds	r4, r4, #1
  63              	.LVL6:
  64 0020 E4B2     		uxtb	r4, r4
  65              	.LVL7:
ARM GAS  C:\Users\brian\AppData\Local\Temp\ccpa9McL.s 			page 6


  66              		.loc 1 219 0 discriminator 3
  67 0022 1E46     		mov	r6, r3
 217:..\u8g2\csrc/u8x8_d_ssd1606_172x72.c ****     *pbuf++ = (r>>8) & 255;
  68              		.loc 1 217 0 discriminator 3
  69 0024 2846     		mov	r0, r5
  70              	.LVL8:
  71              	.L2:
 215:..\u8g2\csrc/u8x8_d_ssd1606_172x72.c ****   {
  72              		.loc 1 215 0 discriminator 1
  73 0026 072C     		cmp	r4, #7
  74 0028 EED9     		bls	.L3
 220:..\u8g2\csrc/u8x8_d_ssd1606_172x72.c ****   }
 221:..\u8g2\csrc/u8x8_d_ssd1606_172x72.c ****   return buf;
 222:..\u8g2\csrc/u8x8_d_ssd1606_172x72.c **** }
  75              		.loc 1 222 0
  76 002a 0148     		ldr	r0, .L5
  77              	.LVL9:
  78 002c 70BD     		pop	{r4, r5, r6, pc}
  79              	.LVL10:
  80              	.L6:
  81 002e 00BF     		.align	2
  82              	.L5:
  83 0030 00000000 		.word	.LANCHOR0
  84              		.cfi_endproc
  85              	.LFE0:
  86              		.size	u8x8_convert_tile_for_ssd1606, .-u8x8_convert_tile_for_ssd1606
  87              		.section	.text.u8x8_d_ssd1606_draw_tile,"ax",%progbits
  88              		.align	2
  89              		.thumb
  90              		.thumb_func
  91              		.type	u8x8_d_ssd1606_draw_tile, %function
  92              	u8x8_d_ssd1606_draw_tile:
  93              	.LFB1:
 223:..\u8g2\csrc/u8x8_d_ssd1606_172x72.c **** 
 224:..\u8g2\csrc/u8x8_d_ssd1606_172x72.c **** static void u8x8_d_ssd1606_draw_tile(u8x8_t *u8x8, uint8_t arg_int, void *arg_ptr) U8X8_NOINLINE;
 225:..\u8g2\csrc/u8x8_d_ssd1606_172x72.c **** static void u8x8_d_ssd1606_draw_tile(u8x8_t *u8x8, uint8_t arg_int, void *arg_ptr)
 226:..\u8g2\csrc/u8x8_d_ssd1606_172x72.c **** {
  94              		.loc 1 226 0
  95              		.cfi_startproc
  96              		@ args = 0, pretend = 0, frame = 0
  97              		@ frame_needed = 0, uses_anonymous_args = 0
  98              	.LVL11:
  99 0000 2DE9F041 		push	{r4, r5, r6, r7, r8, lr}
 100              		.cfi_def_cfa_offset 24
 101              		.cfi_offset 4, -24
 102              		.cfi_offset 5, -20
 103              		.cfi_offset 6, -16
 104              		.cfi_offset 7, -12
 105              		.cfi_offset 8, -8
 106              		.cfi_offset 14, -4
 107 0004 0646     		mov	r6, r0
 108 0006 0F46     		mov	r7, r1
 109 0008 9046     		mov	r8, r2
 227:..\u8g2\csrc/u8x8_d_ssd1606_172x72.c ****   uint8_t x, c, page;
 228:..\u8g2\csrc/u8x8_d_ssd1606_172x72.c ****   uint8_t *ptr;
 229:..\u8g2\csrc/u8x8_d_ssd1606_172x72.c ****   u8x8_cad_StartTransfer(u8x8);
 110              		.loc 1 229 0
ARM GAS  C:\Users\brian\AppData\Local\Temp\ccpa9McL.s 			page 7


 111 000a FFF7FEFF 		bl	u8x8_cad_StartTransfer
 112              	.LVL12:
 230:..\u8g2\csrc/u8x8_d_ssd1606_172x72.c **** 
 231:..\u8g2\csrc/u8x8_d_ssd1606_172x72.c ****   page = u8x8->display_info->tile_height;
 113              		.loc 1 231 0
 114 000e 3368     		ldr	r3, [r6]
 115 0010 5B7C     		ldrb	r3, [r3, #17]	@ zero_extendqisi2
 116              	.LVL13:
 232:..\u8g2\csrc/u8x8_d_ssd1606_172x72.c ****   page --;
 117              		.loc 1 232 0
 118 0012 013B     		subs	r3, r3, #1
 119              	.LVL14:
 120 0014 DBB2     		uxtb	r3, r3
 121              	.LVL15:
 233:..\u8g2\csrc/u8x8_d_ssd1606_172x72.c ****   page -= (((u8x8_tile_t *)arg_ptr)->y_pos);
 122              		.loc 1 233 0
 123 0016 98F80640 		ldrb	r4, [r8, #6]	@ zero_extendqisi2
 124 001a 1C1B     		subs	r4, r3, r4
 125 001c E4B2     		uxtb	r4, r4
 126              	.LVL16:
 234:..\u8g2\csrc/u8x8_d_ssd1606_172x72.c ****   page *= 2;
 127              		.loc 1 234 0
 128 001e 6400     		lsls	r4, r4, #1
 129              	.LVL17:
 130 0020 E4B2     		uxtb	r4, r4
 131              	.LVL18:
 235:..\u8g2\csrc/u8x8_d_ssd1606_172x72.c **** 
 236:..\u8g2\csrc/u8x8_d_ssd1606_172x72.c **** 
 237:..\u8g2\csrc/u8x8_d_ssd1606_172x72.c ****   x = ((u8x8_tile_t *)arg_ptr)->x_pos;
 132              		.loc 1 237 0
 133 0022 98F80550 		ldrb	r5, [r8, #5]	@ zero_extendqisi2
 134              	.LVL19:
 238:..\u8g2\csrc/u8x8_d_ssd1606_172x72.c ****   x *= 8;
 135              		.loc 1 238 0
 136 0026 ED00     		lsls	r5, r5, #3
 137              	.LVL20:
 138 0028 EDB2     		uxtb	r5, r5
 139              	.LVL21:
 239:..\u8g2\csrc/u8x8_d_ssd1606_172x72.c ****   x += u8x8->x_offset;
 140              		.loc 1 239 0
 141 002a 96F82230 		ldrb	r3, [r6, #34]	@ zero_extendqisi2
 142 002e 1D44     		add	r5, r5, r3
 143              	.LVL22:
 144 0030 EDB2     		uxtb	r5, r5
 145              	.LVL23:
 240:..\u8g2\csrc/u8x8_d_ssd1606_172x72.c **** 
 241:..\u8g2\csrc/u8x8_d_ssd1606_172x72.c ****   u8x8_cad_SendCmd(u8x8, 0x00f );	/* scan start */
 146              		.loc 1 241 0
 147 0032 0F21     		movs	r1, #15
 148 0034 3046     		mov	r0, r6
 149 0036 FFF7FEFF 		bl	u8x8_cad_SendCmd
 150              	.LVL24:
 242:..\u8g2\csrc/u8x8_d_ssd1606_172x72.c ****   u8x8_cad_SendArg(u8x8, 0);
 151              		.loc 1 242 0
 152 003a 0021     		movs	r1, #0
 153 003c 3046     		mov	r0, r6
 154 003e FFF7FEFF 		bl	u8x8_cad_SendArg
ARM GAS  C:\Users\brian\AppData\Local\Temp\ccpa9McL.s 			page 8


 155              	.LVL25:
 243:..\u8g2\csrc/u8x8_d_ssd1606_172x72.c **** 
 244:..\u8g2\csrc/u8x8_d_ssd1606_172x72.c ****   u8x8_cad_SendCmd(u8x8, 0x011 );	/* cursor increment mode */
 156              		.loc 1 244 0
 157 0042 1121     		movs	r1, #17
 158 0044 3046     		mov	r0, r6
 159 0046 FFF7FEFF 		bl	u8x8_cad_SendCmd
 160              	.LVL26:
 245:..\u8g2\csrc/u8x8_d_ssd1606_172x72.c ****   u8x8_cad_SendArg(u8x8, 3);
 161              		.loc 1 245 0
 162 004a 0321     		movs	r1, #3
 163 004c 3046     		mov	r0, r6
 164 004e FFF7FEFF 		bl	u8x8_cad_SendArg
 165              	.LVL27:
 246:..\u8g2\csrc/u8x8_d_ssd1606_172x72.c **** 
 247:..\u8g2\csrc/u8x8_d_ssd1606_172x72.c ****   u8x8_cad_SendCmd(u8x8, 0x045 );	/* window start column */
 166              		.loc 1 247 0
 167 0052 4521     		movs	r1, #69
 168 0054 3046     		mov	r0, r6
 169 0056 FFF7FEFF 		bl	u8x8_cad_SendCmd
 170              	.LVL28:
 248:..\u8g2\csrc/u8x8_d_ssd1606_172x72.c ****   u8x8_cad_SendArg(u8x8, 0);
 171              		.loc 1 248 0
 172 005a 0021     		movs	r1, #0
 173 005c 3046     		mov	r0, r6
 174 005e FFF7FEFF 		bl	u8x8_cad_SendArg
 175              	.LVL29:
 249:..\u8g2\csrc/u8x8_d_ssd1606_172x72.c ****   u8x8_cad_SendArg(u8x8, 179);		/* end of display */
 176              		.loc 1 249 0
 177 0062 B321     		movs	r1, #179
 178 0064 3046     		mov	r0, r6
 179 0066 FFF7FEFF 		bl	u8x8_cad_SendArg
 180              	.LVL30:
 250:..\u8g2\csrc/u8x8_d_ssd1606_172x72.c **** 
 251:..\u8g2\csrc/u8x8_d_ssd1606_172x72.c ****   u8x8_cad_SendCmd(u8x8, 0x044 );	/* window end page */
 181              		.loc 1 251 0
 182 006a 4421     		movs	r1, #68
 183 006c 3046     		mov	r0, r6
 184 006e FFF7FEFF 		bl	u8x8_cad_SendCmd
 185              	.LVL31:
 252:..\u8g2\csrc/u8x8_d_ssd1606_172x72.c ****   u8x8_cad_SendArg(u8x8, page);
 186              		.loc 1 252 0
 187 0072 2146     		mov	r1, r4
 188 0074 3046     		mov	r0, r6
 189 0076 FFF7FEFF 		bl	u8x8_cad_SendArg
 190              	.LVL32:
 253:..\u8g2\csrc/u8x8_d_ssd1606_172x72.c ****   u8x8_cad_SendArg(u8x8, page+1);
 191              		.loc 1 253 0
 192 007a 611C     		adds	r1, r4, #1
 193 007c C9B2     		uxtb	r1, r1
 194 007e 3046     		mov	r0, r6
 195 0080 FFF7FEFF 		bl	u8x8_cad_SendArg
 196              	.LVL33:
 254:..\u8g2\csrc/u8x8_d_ssd1606_172x72.c **** 
 255:..\u8g2\csrc/u8x8_d_ssd1606_172x72.c ****   u8x8_cad_SendCmd(u8x8, 0x04f );	/* window column */
 197              		.loc 1 255 0
 198 0084 4F21     		movs	r1, #79
ARM GAS  C:\Users\brian\AppData\Local\Temp\ccpa9McL.s 			page 9


 199 0086 3046     		mov	r0, r6
 200 0088 FFF7FEFF 		bl	u8x8_cad_SendCmd
 201              	.LVL34:
 256:..\u8g2\csrc/u8x8_d_ssd1606_172x72.c ****   u8x8_cad_SendArg(u8x8, x);
 202              		.loc 1 256 0
 203 008c 2946     		mov	r1, r5
 204 008e 3046     		mov	r0, r6
 205 0090 FFF7FEFF 		bl	u8x8_cad_SendArg
 206              	.LVL35:
 257:..\u8g2\csrc/u8x8_d_ssd1606_172x72.c **** 
 258:..\u8g2\csrc/u8x8_d_ssd1606_172x72.c ****   u8x8_cad_SendCmd(u8x8, 0x04e );	/* window row */
 207              		.loc 1 258 0
 208 0094 4E21     		movs	r1, #78
 209 0096 3046     		mov	r0, r6
 210 0098 FFF7FEFF 		bl	u8x8_cad_SendCmd
 211              	.LVL36:
 259:..\u8g2\csrc/u8x8_d_ssd1606_172x72.c ****   u8x8_cad_SendArg(u8x8, page);
 212              		.loc 1 259 0
 213 009c 2146     		mov	r1, r4
 214 009e 3046     		mov	r0, r6
 215 00a0 FFF7FEFF 		bl	u8x8_cad_SendArg
 216              	.LVL37:
 260:..\u8g2\csrc/u8x8_d_ssd1606_172x72.c **** 
 261:..\u8g2\csrc/u8x8_d_ssd1606_172x72.c ****   u8x8_cad_SendCmd(u8x8, 0x024 );
 217              		.loc 1 261 0
 218 00a4 2421     		movs	r1, #36
 219 00a6 3046     		mov	r0, r6
 220 00a8 FFF7FEFF 		bl	u8x8_cad_SendCmd
 221              	.LVL38:
 222              	.L9:
 262:..\u8g2\csrc/u8x8_d_ssd1606_172x72.c ****   
 263:..\u8g2\csrc/u8x8_d_ssd1606_172x72.c ****   do
 264:..\u8g2\csrc/u8x8_d_ssd1606_172x72.c ****   {
 265:..\u8g2\csrc/u8x8_d_ssd1606_172x72.c ****     c = ((u8x8_tile_t *)arg_ptr)->cnt;
 223              		.loc 1 265 0
 224 00ac 98F80440 		ldrb	r4, [r8, #4]	@ zero_extendqisi2
 225              	.LVL39:
 266:..\u8g2\csrc/u8x8_d_ssd1606_172x72.c ****     ptr = ((u8x8_tile_t *)arg_ptr)->tile_ptr;
 226              		.loc 1 266 0
 227 00b0 D8F80050 		ldr	r5, [r8]
 228              	.LVL40:
 229              	.L8:
 267:..\u8g2\csrc/u8x8_d_ssd1606_172x72.c ****     do
 268:..\u8g2\csrc/u8x8_d_ssd1606_172x72.c ****     {
 269:..\u8g2\csrc/u8x8_d_ssd1606_172x72.c ****       u8x8_cad_SendData(u8x8, 16, u8x8_convert_tile_for_ssd1606(ptr));
 230              		.loc 1 269 0 discriminator 1
 231 00b4 2846     		mov	r0, r5
 232 00b6 FFF7FEFF 		bl	u8x8_convert_tile_for_ssd1606
 233              	.LVL41:
 234 00ba 0246     		mov	r2, r0
 235 00bc 1021     		movs	r1, #16
 236 00be 3046     		mov	r0, r6
 237 00c0 FFF7FEFF 		bl	u8x8_cad_SendData
 238              	.LVL42:
 270:..\u8g2\csrc/u8x8_d_ssd1606_172x72.c ****       ptr += 8;
 239              		.loc 1 270 0 discriminator 1
 240 00c4 0835     		adds	r5, r5, #8
ARM GAS  C:\Users\brian\AppData\Local\Temp\ccpa9McL.s 			page 10


 241              	.LVL43:
 271:..\u8g2\csrc/u8x8_d_ssd1606_172x72.c ****       x += 8;
 272:..\u8g2\csrc/u8x8_d_ssd1606_172x72.c ****       c--;
 242              		.loc 1 272 0 discriminator 1
 243 00c6 631E     		subs	r3, r4, #1
 244              	.LVL44:
 273:..\u8g2\csrc/u8x8_d_ssd1606_172x72.c ****     } while( c > 0 );
 245              		.loc 1 273 0 discriminator 1
 246 00c8 13F0FF04 		ands	r4, r3, #255
 247 00cc F2D1     		bne	.L8
 274:..\u8g2\csrc/u8x8_d_ssd1606_172x72.c ****     
 275:..\u8g2\csrc/u8x8_d_ssd1606_172x72.c ****     arg_int--;
 248              		.loc 1 275 0
 249 00ce 7B1E     		subs	r3, r7, #1
 250              	.LVL45:
 276:..\u8g2\csrc/u8x8_d_ssd1606_172x72.c ****   } while( arg_int > 0 );
 251              		.loc 1 276 0
 252 00d0 13F0FF07 		ands	r7, r3, #255
 253 00d4 EAD1     		bne	.L9
 277:..\u8g2\csrc/u8x8_d_ssd1606_172x72.c ****   
 278:..\u8g2\csrc/u8x8_d_ssd1606_172x72.c ****   u8x8_cad_EndTransfer(u8x8);
 254              		.loc 1 278 0
 255 00d6 3046     		mov	r0, r6
 256 00d8 FFF7FEFF 		bl	u8x8_cad_EndTransfer
 257              	.LVL46:
 258 00dc BDE8F081 		pop	{r4, r5, r6, r7, r8, pc}
 259              		.cfi_endproc
 260              	.LFE1:
 261              		.size	u8x8_d_ssd1606_draw_tile, .-u8x8_d_ssd1606_draw_tile
 262              		.section	.text.u8x8_d_ssd1606_172x72_generic,"ax",%progbits
 263              		.align	2
 264              		.thumb
 265              		.thumb_func
 266              		.type	u8x8_d_ssd1606_172x72_generic, %function
 267              	u8x8_d_ssd1606_172x72_generic:
 268              	.LFB2:
 279:..\u8g2\csrc/u8x8_d_ssd1606_172x72.c **** }
 280:..\u8g2\csrc/u8x8_d_ssd1606_172x72.c **** 
 281:..\u8g2\csrc/u8x8_d_ssd1606_172x72.c **** 
 282:..\u8g2\csrc/u8x8_d_ssd1606_172x72.c **** static uint8_t u8x8_d_ssd1606_172x72_generic(u8x8_t *u8x8, uint8_t msg, uint8_t arg_int, void *arg_
 283:..\u8g2\csrc/u8x8_d_ssd1606_172x72.c **** {
 269              		.loc 1 283 0
 270              		.cfi_startproc
 271              		@ args = 0, pretend = 0, frame = 0
 272              		@ frame_needed = 0, uses_anonymous_args = 0
 273              	.LVL47:
 274 0000 10B5     		push	{r4, lr}
 275              		.cfi_def_cfa_offset 8
 276              		.cfi_offset 4, -8
 277              		.cfi_offset 14, -4
 278 0002 0446     		mov	r4, r0
 279 0004 1046     		mov	r0, r2
 280              	.LVL48:
 284:..\u8g2\csrc/u8x8_d_ssd1606_172x72.c ****   switch(msg)
 281              		.loc 1 284 0
 282 0006 0A39     		subs	r1, r1, #10
 283              	.LVL49:
ARM GAS  C:\Users\brian\AppData\Local\Temp\ccpa9McL.s 			page 11


 284 0008 0629     		cmp	r1, #6
 285 000a 05D8     		bhi	.L12
 286 000c DFE801F0 		tbb	[pc, r1]
 287              	.LVL50:
 288              	.L14:
 289 0010 06       		.byte	(.L13-.L14)/2
 290 0011 34       		.byte	(.L18-.L14)/2
 291 0012 04       		.byte	(.L12-.L14)/2
 292 0013 34       		.byte	(.L18-.L14)/2
 293 0014 34       		.byte	(.L18-.L14)/2
 294 0015 27       		.byte	(.L16-.L14)/2
 295 0016 2E       		.byte	(.L17-.L14)/2
 296 0017 00       		.p2align 1
 297              	.L12:
 285:..\u8g2\csrc/u8x8_d_ssd1606_172x72.c ****   {
 286:..\u8g2\csrc/u8x8_d_ssd1606_172x72.c ****     /* handled by the calling function
 287:..\u8g2\csrc/u8x8_d_ssd1606_172x72.c ****     case U8X8_MSG_DISPLAY_SETUP_MEMORY:
 288:..\u8g2\csrc/u8x8_d_ssd1606_172x72.c ****       u8x8_d_helper_display_setup_memory(u8x8, &u8x8_ssd1606_172x72_display_info);
 289:..\u8g2\csrc/u8x8_d_ssd1606_172x72.c ****       break;
 290:..\u8g2\csrc/u8x8_d_ssd1606_172x72.c ****     */
 291:..\u8g2\csrc/u8x8_d_ssd1606_172x72.c ****     case U8X8_MSG_DISPLAY_INIT:
 292:..\u8g2\csrc/u8x8_d_ssd1606_172x72.c **** 
 293:..\u8g2\csrc/u8x8_d_ssd1606_172x72.c ****       u8x8_d_helper_display_init(u8x8);
 294:..\u8g2\csrc/u8x8_d_ssd1606_172x72.c ****       u8x8_cad_SendSequence(u8x8, u8x8_d_ssd1606_172x72_gde021a1_init_seq);    
 295:..\u8g2\csrc/u8x8_d_ssd1606_172x72.c ****     
 296:..\u8g2\csrc/u8x8_d_ssd1606_172x72.c ****       /* special code for the SSD1606... */
 297:..\u8g2\csrc/u8x8_d_ssd1606_172x72.c ****       /* ensure that the initial buffer is clear and all eInk is set to white */
 298:..\u8g2\csrc/u8x8_d_ssd1606_172x72.c ****       /* this is done here, because the LUT will be of that kind, that it uses the previous color *
 299:..\u8g2\csrc/u8x8_d_ssd1606_172x72.c ****       /* make everything black */
 300:..\u8g2\csrc/u8x8_d_ssd1606_172x72.c ****       u8x8_FillDisplay(u8x8);		
 301:..\u8g2\csrc/u8x8_d_ssd1606_172x72.c ****       /* write content to the display */
 302:..\u8g2\csrc/u8x8_d_ssd1606_172x72.c ****       u8x8_RefreshDisplay(u8x8);
 303:..\u8g2\csrc/u8x8_d_ssd1606_172x72.c ****       /* now make everything clear */
 304:..\u8g2\csrc/u8x8_d_ssd1606_172x72.c ****       u8x8_FillDisplay(u8x8);		
 305:..\u8g2\csrc/u8x8_d_ssd1606_172x72.c ****       /* write content to the display */
 306:..\u8g2\csrc/u8x8_d_ssd1606_172x72.c ****       u8x8_RefreshDisplay(u8x8);
 307:..\u8g2\csrc/u8x8_d_ssd1606_172x72.c ****       /* now make everything clear */
 308:..\u8g2\csrc/u8x8_d_ssd1606_172x72.c ****       u8x8_ClearDisplay(u8x8);		
 309:..\u8g2\csrc/u8x8_d_ssd1606_172x72.c ****       /* write content to the display */
 310:..\u8g2\csrc/u8x8_d_ssd1606_172x72.c ****       u8x8_RefreshDisplay(u8x8);
 311:..\u8g2\csrc/u8x8_d_ssd1606_172x72.c **** 
 312:..\u8g2\csrc/u8x8_d_ssd1606_172x72.c ****       u8x8_ClearDisplay(u8x8);		
 313:..\u8g2\csrc/u8x8_d_ssd1606_172x72.c ****       /* write content to the display */
 314:..\u8g2\csrc/u8x8_d_ssd1606_172x72.c ****       u8x8_RefreshDisplay(u8x8);
 315:..\u8g2\csrc/u8x8_d_ssd1606_172x72.c ****     
 316:..\u8g2\csrc/u8x8_d_ssd1606_172x72.c ****       break;
 317:..\u8g2\csrc/u8x8_d_ssd1606_172x72.c ****     case U8X8_MSG_DISPLAY_SET_POWER_SAVE:
 318:..\u8g2\csrc/u8x8_d_ssd1606_172x72.c **** /*
 319:..\u8g2\csrc/u8x8_d_ssd1606_172x72.c ****       if ( arg_int == 0 )
 320:..\u8g2\csrc/u8x8_d_ssd1606_172x72.c **** 	u8x8_cad_SendSequence(u8x8, u8x8_d_ssd1606_172x72_powersave0_seq);
 321:..\u8g2\csrc/u8x8_d_ssd1606_172x72.c ****       else
 322:..\u8g2\csrc/u8x8_d_ssd1606_172x72.c **** 	u8x8_cad_SendSequence(u8x8, u8x8_d_ssd1606_172x72_powersave1_seq);
 323:..\u8g2\csrc/u8x8_d_ssd1606_172x72.c **** */
 324:..\u8g2\csrc/u8x8_d_ssd1606_172x72.c ****       break;
 325:..\u8g2\csrc/u8x8_d_ssd1606_172x72.c ****     case U8X8_MSG_DISPLAY_SET_FLIP_MODE:
 326:..\u8g2\csrc/u8x8_d_ssd1606_172x72.c **** /*
 327:..\u8g2\csrc/u8x8_d_ssd1606_172x72.c ****       if ( arg_int == 0 )
ARM GAS  C:\Users\brian\AppData\Local\Temp\ccpa9McL.s 			page 12


 328:..\u8g2\csrc/u8x8_d_ssd1606_172x72.c ****       {
 329:..\u8g2\csrc/u8x8_d_ssd1606_172x72.c **** 	u8x8_cad_SendSequence(u8x8, u8x8_d_ssd1606_172x72_flip0_seq);
 330:..\u8g2\csrc/u8x8_d_ssd1606_172x72.c **** 	u8x8->x_offset = u8x8->display_info->default_x_offset;
 331:..\u8g2\csrc/u8x8_d_ssd1606_172x72.c ****       }
 332:..\u8g2\csrc/u8x8_d_ssd1606_172x72.c ****       else
 333:..\u8g2\csrc/u8x8_d_ssd1606_172x72.c ****       {
 334:..\u8g2\csrc/u8x8_d_ssd1606_172x72.c **** 	u8x8_cad_SendSequence(u8x8, u8x8_d_ssd1606_172x72_flip1_seq);
 335:..\u8g2\csrc/u8x8_d_ssd1606_172x72.c **** 	u8x8->x_offset = u8x8->display_info->flipmode_x_offset;
 336:..\u8g2\csrc/u8x8_d_ssd1606_172x72.c ****       }
 337:..\u8g2\csrc/u8x8_d_ssd1606_172x72.c **** */
 338:..\u8g2\csrc/u8x8_d_ssd1606_172x72.c ****       break;
 339:..\u8g2\csrc/u8x8_d_ssd1606_172x72.c **** #ifdef U8X8_WITH_SET_CONTRAST
 340:..\u8g2\csrc/u8x8_d_ssd1606_172x72.c ****     case U8X8_MSG_DISPLAY_SET_CONTRAST:
 341:..\u8g2\csrc/u8x8_d_ssd1606_172x72.c **** /*
 342:..\u8g2\csrc/u8x8_d_ssd1606_172x72.c ****       u8x8_cad_StartTransfer(u8x8);
 343:..\u8g2\csrc/u8x8_d_ssd1606_172x72.c ****       u8x8_cad_EndTransfer(u8x8);
 344:..\u8g2\csrc/u8x8_d_ssd1606_172x72.c **** */
 345:..\u8g2\csrc/u8x8_d_ssd1606_172x72.c ****       break;
 346:..\u8g2\csrc/u8x8_d_ssd1606_172x72.c **** #endif
 347:..\u8g2\csrc/u8x8_d_ssd1606_172x72.c ****     case U8X8_MSG_DISPLAY_DRAW_TILE:
 348:..\u8g2\csrc/u8x8_d_ssd1606_172x72.c ****       u8x8_d_ssd1606_draw_tile(u8x8, arg_int, arg_ptr);
 349:..\u8g2\csrc/u8x8_d_ssd1606_172x72.c ****       break;
 350:..\u8g2\csrc/u8x8_d_ssd1606_172x72.c ****     case U8X8_MSG_DISPLAY_REFRESH:
 351:..\u8g2\csrc/u8x8_d_ssd1606_172x72.c ****       u8x8_cad_SendSequence(u8x8, u8x8_d_ssd1606_to_display_seq);    
 352:..\u8g2\csrc/u8x8_d_ssd1606_172x72.c ****       break;
 353:..\u8g2\csrc/u8x8_d_ssd1606_172x72.c ****     default:
 354:..\u8g2\csrc/u8x8_d_ssd1606_172x72.c ****       return 0;
 298              		.loc 1 354 0
 299 0018 0020     		movs	r0, #0
 300 001a 10BD     		pop	{r4, pc}
 301              	.LVL51:
 302              	.L13:
 293:..\u8g2\csrc/u8x8_d_ssd1606_172x72.c ****       u8x8_cad_SendSequence(u8x8, u8x8_d_ssd1606_172x72_gde021a1_init_seq);    
 303              		.loc 1 293 0
 304 001c 2046     		mov	r0, r4
 305 001e FFF7FEFF 		bl	u8x8_d_helper_display_init
 306              	.LVL52:
 294:..\u8g2\csrc/u8x8_d_ssd1606_172x72.c ****     
 307              		.loc 1 294 0
 308 0022 1649     		ldr	r1, .L20
 309 0024 2046     		mov	r0, r4
 310 0026 FFF7FEFF 		bl	u8x8_cad_SendSequence
 311              	.LVL53:
 300:..\u8g2\csrc/u8x8_d_ssd1606_172x72.c ****       /* write content to the display */
 312              		.loc 1 300 0
 313 002a 2046     		mov	r0, r4
 314 002c FFF7FEFF 		bl	u8x8_FillDisplay
 315              	.LVL54:
 302:..\u8g2\csrc/u8x8_d_ssd1606_172x72.c ****       /* now make everything clear */
 316              		.loc 1 302 0
 317 0030 2046     		mov	r0, r4
 318 0032 FFF7FEFF 		bl	u8x8_RefreshDisplay
 319              	.LVL55:
 304:..\u8g2\csrc/u8x8_d_ssd1606_172x72.c ****       /* write content to the display */
 320              		.loc 1 304 0
 321 0036 2046     		mov	r0, r4
 322 0038 FFF7FEFF 		bl	u8x8_FillDisplay
ARM GAS  C:\Users\brian\AppData\Local\Temp\ccpa9McL.s 			page 13


 323              	.LVL56:
 306:..\u8g2\csrc/u8x8_d_ssd1606_172x72.c ****       /* now make everything clear */
 324              		.loc 1 306 0
 325 003c 2046     		mov	r0, r4
 326 003e FFF7FEFF 		bl	u8x8_RefreshDisplay
 327              	.LVL57:
 308:..\u8g2\csrc/u8x8_d_ssd1606_172x72.c ****       /* write content to the display */
 328              		.loc 1 308 0
 329 0042 2046     		mov	r0, r4
 330 0044 FFF7FEFF 		bl	u8x8_ClearDisplay
 331              	.LVL58:
 310:..\u8g2\csrc/u8x8_d_ssd1606_172x72.c **** 
 332              		.loc 1 310 0
 333 0048 2046     		mov	r0, r4
 334 004a FFF7FEFF 		bl	u8x8_RefreshDisplay
 335              	.LVL59:
 312:..\u8g2\csrc/u8x8_d_ssd1606_172x72.c ****       /* write content to the display */
 336              		.loc 1 312 0
 337 004e 2046     		mov	r0, r4
 338 0050 FFF7FEFF 		bl	u8x8_ClearDisplay
 339              	.LVL60:
 314:..\u8g2\csrc/u8x8_d_ssd1606_172x72.c ****     
 340              		.loc 1 314 0
 341 0054 2046     		mov	r0, r4
 342 0056 FFF7FEFF 		bl	u8x8_RefreshDisplay
 343              	.LVL61:
 355:..\u8g2\csrc/u8x8_d_ssd1606_172x72.c ****   }
 356:..\u8g2\csrc/u8x8_d_ssd1606_172x72.c ****   return 1;
 344              		.loc 1 356 0
 345 005a 0120     		movs	r0, #1
 316:..\u8g2\csrc/u8x8_d_ssd1606_172x72.c ****     case U8X8_MSG_DISPLAY_SET_POWER_SAVE:
 346              		.loc 1 316 0
 347 005c 10BD     		pop	{r4, pc}
 348              	.LVL62:
 349              	.L16:
 348:..\u8g2\csrc/u8x8_d_ssd1606_172x72.c ****       break;
 350              		.loc 1 348 0
 351 005e 1A46     		mov	r2, r3
 352 0060 0146     		mov	r1, r0
 353 0062 2046     		mov	r0, r4
 354 0064 FFF7FEFF 		bl	u8x8_d_ssd1606_draw_tile
 355              	.LVL63:
 356              		.loc 1 356 0
 357 0068 0120     		movs	r0, #1
 349:..\u8g2\csrc/u8x8_d_ssd1606_172x72.c ****     case U8X8_MSG_DISPLAY_REFRESH:
 358              		.loc 1 349 0
 359 006a 10BD     		pop	{r4, pc}
 360              	.LVL64:
 361              	.L17:
 351:..\u8g2\csrc/u8x8_d_ssd1606_172x72.c ****       break;
 362              		.loc 1 351 0
 363 006c 0449     		ldr	r1, .L20+4
 364 006e 2046     		mov	r0, r4
 365 0070 FFF7FEFF 		bl	u8x8_cad_SendSequence
 366              	.LVL65:
 367              		.loc 1 356 0
 368 0074 0120     		movs	r0, #1
ARM GAS  C:\Users\brian\AppData\Local\Temp\ccpa9McL.s 			page 14


 352:..\u8g2\csrc/u8x8_d_ssd1606_172x72.c ****     default:
 369              		.loc 1 352 0
 370 0076 10BD     		pop	{r4, pc}
 371              	.LVL66:
 372              	.L18:
 373              		.loc 1 356 0
 374 0078 0120     		movs	r0, #1
 357:..\u8g2\csrc/u8x8_d_ssd1606_172x72.c **** }
 375              		.loc 1 357 0
 376 007a 10BD     		pop	{r4, pc}
 377              	.LVL67:
 378              	.L21:
 379              		.align	2
 380              	.L20:
 381 007c 00000000 		.word	.LANCHOR1
 382 0080 EC000000 		.word	.LANCHOR1+236
 383              		.cfi_endproc
 384              	.LFE2:
 385              		.size	u8x8_d_ssd1606_172x72_generic, .-u8x8_d_ssd1606_172x72_generic
 386              		.section	.text.u8x8_d_ssd1606_172x72,"ax",%progbits
 387              		.align	2
 388              		.global	u8x8_d_ssd1606_172x72
 389              		.thumb
 390              		.thumb_func
 391              		.type	u8x8_d_ssd1606_172x72, %function
 392              	u8x8_d_ssd1606_172x72:
 393              	.LFB3:
 358:..\u8g2\csrc/u8x8_d_ssd1606_172x72.c **** 
 359:..\u8g2\csrc/u8x8_d_ssd1606_172x72.c **** 
 360:..\u8g2\csrc/u8x8_d_ssd1606_172x72.c **** static const u8x8_display_info_t u8x8_ssd1606_172x72_display_info =
 361:..\u8g2\csrc/u8x8_d_ssd1606_172x72.c **** {
 362:..\u8g2\csrc/u8x8_d_ssd1606_172x72.c ****   /* chip_enable_level = */ 0,
 363:..\u8g2\csrc/u8x8_d_ssd1606_172x72.c ****   /* chip_disable_level = */ 1,
 364:..\u8g2\csrc/u8x8_d_ssd1606_172x72.c ****   
 365:..\u8g2\csrc/u8x8_d_ssd1606_172x72.c ****   /* post_chip_enable_wait_ns = */ 120,
 366:..\u8g2\csrc/u8x8_d_ssd1606_172x72.c ****   /* pre_chip_disable_wait_ns = */ 60,
 367:..\u8g2\csrc/u8x8_d_ssd1606_172x72.c ****   /* reset_pulse_width_ms = */ 100, 	
 368:..\u8g2\csrc/u8x8_d_ssd1606_172x72.c ****   /* post_reset_wait_ms = */ 100, 
 369:..\u8g2\csrc/u8x8_d_ssd1606_172x72.c ****   /* sda_setup_time_ns = */ 50,		/* SSD1606: */
 370:..\u8g2\csrc/u8x8_d_ssd1606_172x72.c ****   /* sck_pulse_width_ns = */ 100,	/* SSD1606: 100ns */
 371:..\u8g2\csrc/u8x8_d_ssd1606_172x72.c ****   /* sck_clock_hz = */ 4000000UL,	/* since Arduino 1.6.0, the SPI bus speed in Hz. Should be  10000
 372:..\u8g2\csrc/u8x8_d_ssd1606_172x72.c ****   /* spi_mode = */ 0,		/* active high, rising edge */
 373:..\u8g2\csrc/u8x8_d_ssd1606_172x72.c ****   /* i2c_bus_clock_100kHz = */ 4,
 374:..\u8g2\csrc/u8x8_d_ssd1606_172x72.c ****   /* data_setup_time_ns = */ 40,
 375:..\u8g2\csrc/u8x8_d_ssd1606_172x72.c ****   /* write_pulse_width_ns = */ 150,	
 376:..\u8g2\csrc/u8x8_d_ssd1606_172x72.c ****   /* tile_width = */ 22,		/* 22*8 = 176 */
 377:..\u8g2\csrc/u8x8_d_ssd1606_172x72.c ****   /* tile_hight = */ 9,		/* 9*8 = 72 */
 378:..\u8g2\csrc/u8x8_d_ssd1606_172x72.c ****   /* default_x_offset = */ 0,
 379:..\u8g2\csrc/u8x8_d_ssd1606_172x72.c ****   /* flipmode_x_offset = */ 0,
 380:..\u8g2\csrc/u8x8_d_ssd1606_172x72.c ****   /* pixel_width = */ 172,
 381:..\u8g2\csrc/u8x8_d_ssd1606_172x72.c ****   /* pixel_height = */ 72		
 382:..\u8g2\csrc/u8x8_d_ssd1606_172x72.c **** };
 383:..\u8g2\csrc/u8x8_d_ssd1606_172x72.c **** 
 384:..\u8g2\csrc/u8x8_d_ssd1606_172x72.c **** uint8_t u8x8_d_ssd1606_172x72(u8x8_t *u8x8, uint8_t msg, uint8_t arg_int, void *arg_ptr)
 385:..\u8g2\csrc/u8x8_d_ssd1606_172x72.c **** {
 394              		.loc 1 385 0
 395              		.cfi_startproc
ARM GAS  C:\Users\brian\AppData\Local\Temp\ccpa9McL.s 			page 15


 396              		@ args = 0, pretend = 0, frame = 0
 397              		@ frame_needed = 0, uses_anonymous_args = 0
 398              	.LVL68:
 399 0000 08B5     		push	{r3, lr}
 400              		.cfi_def_cfa_offset 8
 401              		.cfi_offset 3, -8
 402              		.cfi_offset 14, -4
 386:..\u8g2\csrc/u8x8_d_ssd1606_172x72.c ****     if ( msg == U8X8_MSG_DISPLAY_SETUP_MEMORY )
 403              		.loc 1 386 0
 404 0002 0929     		cmp	r1, #9
 405 0004 04D1     		bne	.L23
 387:..\u8g2\csrc/u8x8_d_ssd1606_172x72.c ****     {
 388:..\u8g2\csrc/u8x8_d_ssd1606_172x72.c ****       u8x8_d_helper_display_setup_memory(u8x8, &u8x8_ssd1606_172x72_display_info);
 406              		.loc 1 388 0
 407 0006 0449     		ldr	r1, .L26
 408              	.LVL69:
 409 0008 FFF7FEFF 		bl	u8x8_d_helper_display_setup_memory
 410              	.LVL70:
 389:..\u8g2\csrc/u8x8_d_ssd1606_172x72.c ****       return 1;
 411              		.loc 1 389 0
 412 000c 0120     		movs	r0, #1
 413 000e 08BD     		pop	{r3, pc}
 414              	.LVL71:
 415              	.L23:
 390:..\u8g2\csrc/u8x8_d_ssd1606_172x72.c ****     }
 391:..\u8g2\csrc/u8x8_d_ssd1606_172x72.c ****     return u8x8_d_ssd1606_172x72_generic(u8x8, msg, arg_int, arg_ptr);
 416              		.loc 1 391 0
 417 0010 FFF7FEFF 		bl	u8x8_d_ssd1606_172x72_generic
 418              	.LVL72:
 392:..\u8g2\csrc/u8x8_d_ssd1606_172x72.c **** }
 419              		.loc 1 392 0
 420 0014 08BD     		pop	{r3, pc}
 421              	.L27:
 422 0016 00BF     		.align	2
 423              	.L26:
 424 0018 08010000 		.word	.LANCHOR1+264
 425              		.cfi_endproc
 426              	.LFE3:
 427              		.size	u8x8_d_ssd1606_172x72, .-u8x8_d_ssd1606_172x72
 428              		.section	.rodata
 429              		.align	2
 430              		.set	.LANCHOR1,. + 0
 431              		.type	u8x8_d_ssd1606_172x72_gde021a1_init_seq, %object
 432              		.size	u8x8_d_ssd1606_172x72_gde021a1_init_seq, 233
 433              	u8x8_d_ssd1606_172x72_gde021a1_init_seq:
 434 0000 18       		.byte	24
 435 0001 15       		.byte	21
 436 0002 10       		.byte	16
 437 0003 16       		.byte	22
 438 0004 00       		.byte	0
 439 0005 15       		.byte	21
 440 0006 11       		.byte	17
 441 0007 16       		.byte	22
 442 0008 03       		.byte	3
 443 0009 15       		.byte	21
 444 000a 44       		.byte	68
 445 000b 16       		.byte	22
ARM GAS  C:\Users\brian\AppData\Local\Temp\ccpa9McL.s 			page 16


 446 000c 00       		.byte	0
 447 000d 16       		.byte	22
 448 000e 1F       		.byte	31
 449 000f 15       		.byte	21
 450 0010 45       		.byte	69
 451 0011 16       		.byte	22
 452 0012 00       		.byte	0
 453 0013 16       		.byte	22
 454 0014 B3       		.byte	-77
 455 0015 15       		.byte	21
 456 0016 4E       		.byte	78
 457 0017 16       		.byte	22
 458 0018 00       		.byte	0
 459 0019 15       		.byte	21
 460 001a 4F       		.byte	79
 461 001b 16       		.byte	22
 462 001c 00       		.byte	0
 463 001d 15       		.byte	21
 464 001e F0       		.byte	-16
 465 001f 16       		.byte	22
 466 0020 1F       		.byte	31
 467 0021 15       		.byte	21
 468 0022 22       		.byte	34
 469 0023 16       		.byte	22
 470 0024 C0       		.byte	-64
 471 0025 15       		.byte	21
 472 0026 32       		.byte	50
 473 0027 16       		.byte	22
 474 0028 00       		.byte	0
 475 0029 16       		.byte	22
 476 002a 00       		.byte	0
 477 002b 16       		.byte	22
 478 002c 00       		.byte	0
 479 002d 16       		.byte	22
 480 002e 15       		.byte	21
 481 002f 16       		.byte	22
 482 0030 00       		.byte	0
 483 0031 16       		.byte	22
 484 0032 00       		.byte	0
 485 0033 16       		.byte	22
 486 0034 45       		.byte	69
 487 0035 16       		.byte	22
 488 0036 15       		.byte	21
 489 0037 16       		.byte	22
 490 0038 00       		.byte	0
 491 0039 16       		.byte	22
 492 003a 51       		.byte	81
 493 003b 16       		.byte	22
 494 003c 45       		.byte	69
 495 003d 16       		.byte	22
 496 003e 15       		.byte	21
 497 003f 16       		.byte	22
 498 0040 A8       		.byte	-88
 499 0041 16       		.byte	22
 500 0042 A2       		.byte	-94
 501 0043 16       		.byte	22
 502 0044 8A       		.byte	-118
ARM GAS  C:\Users\brian\AppData\Local\Temp\ccpa9McL.s 			page 17


 503 0045 16       		.byte	22
 504 0046 2A       		.byte	42
 505 0047 16       		.byte	22
 506 0048 14       		.byte	20
 507 0049 16       		.byte	22
 508 004a 11       		.byte	17
 509 004b 16       		.byte	22
 510 004c 05       		.byte	5
 511 004d 16       		.byte	22
 512 004e 15       		.byte	21
 513 004f 16       		.byte	22
 514 0050 04       		.byte	4
 515 0051 16       		.byte	22
 516 0052 01       		.byte	1
 517 0053 16       		.byte	22
 518 0054 05       		.byte	5
 519 0055 16       		.byte	22
 520 0056 05       		.byte	5
 521 0057 16       		.byte	22
 522 0058 00       		.byte	0
 523 0059 16       		.byte	22
 524 005a 01       		.byte	1
 525 005b 16       		.byte	22
 526 005c 01       		.byte	1
 527 005d 16       		.byte	22
 528 005e 01       		.byte	1
 529 005f 16       		.byte	22
 530 0060 00       		.byte	0
 531 0061 16       		.byte	22
 532 0062 00       		.byte	0
 533 0063 16       		.byte	22
 534 0064 00       		.byte	0
 535 0065 16       		.byte	22
 536 0066 00       		.byte	0
 537 0067 16       		.byte	22
 538 0068 00       		.byte	0
 539 0069 16       		.byte	22
 540 006a 00       		.byte	0
 541 006b 16       		.byte	22
 542 006c 00       		.byte	0
 543 006d 16       		.byte	22
 544 006e 00       		.byte	0
 545 006f 16       		.byte	22
 546 0070 00       		.byte	0
 547 0071 16       		.byte	22
 548 0072 00       		.byte	0
 549 0073 16       		.byte	22
 550 0074 00       		.byte	0
 551 0075 16       		.byte	22
 552 0076 00       		.byte	0
 553 0077 16       		.byte	22
 554 0078 00       		.byte	0
 555 0079 16       		.byte	22
 556 007a 00       		.byte	0
 557 007b 16       		.byte	22
 558 007c 00       		.byte	0
 559 007d 16       		.byte	22
ARM GAS  C:\Users\brian\AppData\Local\Temp\ccpa9McL.s 			page 18


 560 007e 00       		.byte	0
 561 007f 16       		.byte	22
 562 0080 00       		.byte	0
 563 0081 16       		.byte	22
 564 0082 00       		.byte	0
 565 0083 16       		.byte	22
 566 0084 00       		.byte	0
 567 0085 16       		.byte	22
 568 0086 00       		.byte	0
 569 0087 16       		.byte	22
 570 0088 00       		.byte	0
 571 0089 16       		.byte	22
 572 008a 00       		.byte	0
 573 008b 16       		.byte	22
 574 008c 00       		.byte	0
 575 008d 16       		.byte	22
 576 008e 00       		.byte	0
 577 008f 16       		.byte	22
 578 0090 00       		.byte	0
 579 0091 16       		.byte	22
 580 0092 00       		.byte	0
 581 0093 16       		.byte	22
 582 0094 00       		.byte	0
 583 0095 16       		.byte	22
 584 0096 00       		.byte	0
 585 0097 16       		.byte	22
 586 0098 00       		.byte	0
 587 0099 16       		.byte	22
 588 009a 00       		.byte	0
 589 009b 16       		.byte	22
 590 009c 00       		.byte	0
 591 009d 16       		.byte	22
 592 009e 00       		.byte	0
 593 009f 16       		.byte	22
 594 00a0 00       		.byte	0
 595 00a1 16       		.byte	22
 596 00a2 00       		.byte	0
 597 00a3 16       		.byte	22
 598 00a4 00       		.byte	0
 599 00a5 16       		.byte	22
 600 00a6 00       		.byte	0
 601 00a7 16       		.byte	22
 602 00a8 00       		.byte	0
 603 00a9 16       		.byte	22
 604 00aa 00       		.byte	0
 605 00ab 16       		.byte	22
 606 00ac 00       		.byte	0
 607 00ad 16       		.byte	22
 608 00ae 00       		.byte	0
 609 00af 16       		.byte	22
 610 00b0 00       		.byte	0
 611 00b1 16       		.byte	22
 612 00b2 00       		.byte	0
 613 00b3 16       		.byte	22
 614 00b4 00       		.byte	0
 615 00b5 16       		.byte	22
 616 00b6 00       		.byte	0
ARM GAS  C:\Users\brian\AppData\Local\Temp\ccpa9McL.s 			page 19


 617 00b7 16       		.byte	22
 618 00b8 00       		.byte	0
 619 00b9 16       		.byte	22
 620 00ba 00       		.byte	0
 621 00bb 16       		.byte	22
 622 00bc 00       		.byte	0
 623 00bd 16       		.byte	22
 624 00be 00       		.byte	0
 625 00bf 16       		.byte	22
 626 00c0 00       		.byte	0
 627 00c1 16       		.byte	22
 628 00c2 00       		.byte	0
 629 00c3 16       		.byte	22
 630 00c4 00       		.byte	0
 631 00c5 16       		.byte	22
 632 00c6 00       		.byte	0
 633 00c7 16       		.byte	22
 634 00c8 22       		.byte	34
 635 00c9 16       		.byte	22
 636 00ca FB       		.byte	-5
 637 00cb 16       		.byte	22
 638 00cc 22       		.byte	34
 639 00cd 16       		.byte	22
 640 00ce 1B       		.byte	27
 641 00cf 16       		.byte	22
 642 00d0 00       		.byte	0
 643 00d1 16       		.byte	22
 644 00d2 00       		.byte	0
 645 00d3 16       		.byte	22
 646 00d4 00       		.byte	0
 647 00d5 16       		.byte	22
 648 00d6 00       		.byte	0
 649 00d7 16       		.byte	22
 650 00d8 00       		.byte	0
 651 00d9 16       		.byte	22
 652 00da 00       		.byte	0
 653 00db 15       		.byte	21
 654 00dc 2C       		.byte	44
 655 00dd 16       		.byte	22
 656 00de A0       		.byte	-96
 657 00df 15       		.byte	21
 658 00e0 3C       		.byte	60
 659 00e1 16       		.byte	22
 660 00e2 63       		.byte	99
 661 00e3 15       		.byte	21
 662 00e4 22       		.byte	34
 663 00e5 16       		.byte	22
 664 00e6 C4       		.byte	-60
 665 00e7 19       		.byte	25
 666 00e8 FF       		.byte	-1
 667 00e9 000000   		.space	3
 668              		.type	u8x8_d_ssd1606_to_display_seq, %object
 669              		.size	u8x8_d_ssd1606_to_display_seq, 27
 670              	u8x8_d_ssd1606_to_display_seq:
 671 00ec 18       		.byte	24
 672 00ed 15       		.byte	21
 673 00ee 22       		.byte	34
ARM GAS  C:\Users\brian\AppData\Local\Temp\ccpa9McL.s 			page 20


 674 00ef 16       		.byte	22
 675 00f0 C4       		.byte	-60
 676 00f1 15       		.byte	21
 677 00f2 20       		.byte	32
 678 00f3 FE       		.byte	-2
 679 00f4 FA       		.byte	-6
 680 00f5 FE       		.byte	-2
 681 00f6 FA       		.byte	-6
 682 00f7 FE       		.byte	-2
 683 00f8 FA       		.byte	-6
 684 00f9 FE       		.byte	-2
 685 00fa E6       		.byte	-26
 686 00fb 15       		.byte	21
 687 00fc 22       		.byte	34
 688 00fd 16       		.byte	22
 689 00fe 03       		.byte	3
 690 00ff FE       		.byte	-2
 691 0100 C8       		.byte	-56
 692 0101 FE       		.byte	-2
 693 0102 5A       		.byte	90
 694 0103 FE       		.byte	-2
 695 0104 32       		.byte	50
 696 0105 19       		.byte	25
 697 0106 FF       		.byte	-1
 698 0107 00       		.space	1
 699              		.type	u8x8_ssd1606_172x72_display_info, %object
 700              		.size	u8x8_ssd1606_172x72_display_info, 24
 701              	u8x8_ssd1606_172x72_display_info:
 702 0108 00       		.byte	0
 703 0109 01       		.byte	1
 704 010a 78       		.byte	120
 705 010b 3C       		.byte	60
 706 010c 64       		.byte	100
 707 010d 64       		.byte	100
 708 010e 32       		.byte	50
 709 010f 64       		.byte	100
 710 0110 00093D00 		.word	4000000
 711 0114 00       		.byte	0
 712 0115 04       		.byte	4
 713 0116 28       		.byte	40
 714 0117 96       		.byte	-106
 715 0118 16       		.byte	22
 716 0119 09       		.byte	9
 717 011a 00       		.byte	0
 718 011b 00       		.byte	0
 719 011c AC00     		.short	172
 720 011e 4800     		.short	72
 721              		.bss
 722              		.align	2
 723              		.set	.LANCHOR0,. + 0
 724              		.type	buf.5686, %object
 725              		.size	buf.5686, 16
 726              	buf.5686:
 727 0000 00000000 		.space	16
 727      00000000 
 727      00000000 
 727      00000000 
ARM GAS  C:\Users\brian\AppData\Local\Temp\ccpa9McL.s 			page 21


 728              		.text
 729              	.Letext0:
 730              		.file 2 "c:\\program files (x86)\\cypress\\psoc creator\\4.4\\psoc creator\\import\\gnu\\arm\\5.4.
 731              		.file 3 "c:\\program files (x86)\\cypress\\psoc creator\\4.4\\psoc creator\\import\\gnu\\arm\\5.4.
 732              		.file 4 "..\\u8g2\\csrc\\u8x8.h"