ARM GAS  C:\Users\brian\AppData\Local\Temp\ccTcIi8F.s 			page 1


   1              		.syntax unified
   2              		.cpu cortex-m3
   3              		.fpu softvfp
   4              		.eabi_attribute 20, 1
   5              		.eabi_attribute 21, 1
   6              		.eabi_attribute 23, 3
   7              		.eabi_attribute 24, 1
   8              		.eabi_attribute 25, 1
   9              		.eabi_attribute 26, 1
  10              		.eabi_attribute 30, 1
  11              		.eabi_attribute 34, 1
  12              		.eabi_attribute 18, 4
  13              		.thumb
  14              		.syntax unified
  15              		.file	"u8x8_d_sh1108.c"
  16              		.text
  17              	.Ltext0:
  18              		.cfi_sections	.debug_frame
  19              		.section	.text.u8x8_d_sh1108_generic,"ax",%progbits
  20              		.align	2
  21              		.thumb
  22              		.thumb_func
  23              		.type	u8x8_d_sh1108_generic, %function
  24              	u8x8_d_sh1108_generic:
  25              	.LFB0:
  26              		.file 1 "..\\u8g2\\csrc\\u8x8_d_sh1108.c"
   1:..\u8g2\csrc/u8x8_d_sh1108.c **** /*
   2:..\u8g2\csrc/u8x8_d_sh1108.c **** 
   3:..\u8g2\csrc/u8x8_d_sh1108.c ****   u8x8_d_sh1108.c
   4:..\u8g2\csrc/u8x8_d_sh1108.c **** 
   5:..\u8g2\csrc/u8x8_d_sh1108.c ****   Universal 8bit Graphics Library (https://github.com/olikraus/u8g2/)
   6:..\u8g2\csrc/u8x8_d_sh1108.c **** 
   7:..\u8g2\csrc/u8x8_d_sh1108.c ****   Copyright (c) 2018, olikraus@gmail.com
   8:..\u8g2\csrc/u8x8_d_sh1108.c ****   All rights reserved.
   9:..\u8g2\csrc/u8x8_d_sh1108.c **** 
  10:..\u8g2\csrc/u8x8_d_sh1108.c ****   Redistribution and use in source and binary forms, with or without modification, 
  11:..\u8g2\csrc/u8x8_d_sh1108.c ****   are permitted provided that the following conditions are met:
  12:..\u8g2\csrc/u8x8_d_sh1108.c **** 
  13:..\u8g2\csrc/u8x8_d_sh1108.c ****   * Redistributions of source code must retain the above copyright notice, this list 
  14:..\u8g2\csrc/u8x8_d_sh1108.c ****     of conditions and the following disclaimer.
  15:..\u8g2\csrc/u8x8_d_sh1108.c ****     
  16:..\u8g2\csrc/u8x8_d_sh1108.c ****   * Redistributions in binary form must reproduce the above copyright notice, this 
  17:..\u8g2\csrc/u8x8_d_sh1108.c ****     list of conditions and the following disclaimer in the documentation and/or other 
  18:..\u8g2\csrc/u8x8_d_sh1108.c ****     materials provided with the distribution.
  19:..\u8g2\csrc/u8x8_d_sh1108.c **** 
  20:..\u8g2\csrc/u8x8_d_sh1108.c ****   THIS SOFTWARE IS PROVIDED BY THE COPYRIGHT HOLDERS AND 
  21:..\u8g2\csrc/u8x8_d_sh1108.c ****   CONTRIBUTORS "AS IS" AND ANY EXPRESS OR IMPLIED WARRANTIES, 
  22:..\u8g2\csrc/u8x8_d_sh1108.c ****   INCLUDING, BUT NOT LIMITED TO, THE IMPLIED WARRANTIES OF 
  23:..\u8g2\csrc/u8x8_d_sh1108.c ****   MERCHANTABILITY AND FITNESS FOR A PARTICULAR PURPOSE ARE 
  24:..\u8g2\csrc/u8x8_d_sh1108.c ****   DISCLAIMED. IN NO EVENT SHALL THE COPYRIGHT HOLDER OR 
  25:..\u8g2\csrc/u8x8_d_sh1108.c ****   CONTRIBUTORS BE LIABLE FOR ANY DIRECT, INDIRECT, INCIDENTAL, 
  26:..\u8g2\csrc/u8x8_d_sh1108.c ****   SPECIAL, EXEMPLARY, OR CONSEQUENTIAL DAMAGES (INCLUDING, BUT 
  27:..\u8g2\csrc/u8x8_d_sh1108.c ****   NOT LIMITED TO, PROCUREMENT OF SUBSTITUTE GOODS OR SERVICES; 
  28:..\u8g2\csrc/u8x8_d_sh1108.c ****   LOSS OF USE, DATA, OR PROFITS; OR BUSINESS INTERRUPTION) HOWEVER 
  29:..\u8g2\csrc/u8x8_d_sh1108.c ****   CAUSED AND ON ANY THEORY OF LIABILITY, WHETHER IN CONTRACT, 
  30:..\u8g2\csrc/u8x8_d_sh1108.c ****   STRICT LIABILITY, OR TORT (INCLUDING NEGLIGENCE OR OTHERWISE) 
  31:..\u8g2\csrc/u8x8_d_sh1108.c ****   ARISING IN ANY WAY OUT OF THE USE OF THIS SOFTWARE, EVEN IF 
ARM GAS  C:\Users\brian\AppData\Local\Temp\ccTcIi8F.s 			page 2


  32:..\u8g2\csrc/u8x8_d_sh1108.c ****   ADVISED OF THE POSSIBILITY OF SUCH DAMAGE.  
  33:..\u8g2\csrc/u8x8_d_sh1108.c ****   
  34:..\u8g2\csrc/u8x8_d_sh1108.c **** */
  35:..\u8g2\csrc/u8x8_d_sh1108.c **** 
  36:..\u8g2\csrc/u8x8_d_sh1108.c **** 
  37:..\u8g2\csrc/u8x8_d_sh1108.c **** #include "u8x8.h"
  38:..\u8g2\csrc/u8x8_d_sh1108.c **** 
  39:..\u8g2\csrc/u8x8_d_sh1108.c **** /* 
  40:..\u8g2\csrc/u8x8_d_sh1108.c ****   code copyied from sh1107
  41:..\u8g2\csrc/u8x8_d_sh1108.c ****   SH1108: 160x160 controller from Sino Wealth
  42:..\u8g2\csrc/u8x8_d_sh1108.c **** */
  43:..\u8g2\csrc/u8x8_d_sh1108.c **** 
  44:..\u8g2\csrc/u8x8_d_sh1108.c **** 
  45:..\u8g2\csrc/u8x8_d_sh1108.c **** 
  46:..\u8g2\csrc/u8x8_d_sh1108.c **** static const uint8_t u8x8_d_sh1108_noname_powersave0_seq[] = {
  47:..\u8g2\csrc/u8x8_d_sh1108.c ****   U8X8_START_TRANSFER(),             	/* enable chip, delay is part of the transfer start */
  48:..\u8g2\csrc/u8x8_d_sh1108.c ****   U8X8_C(0x0af),		                /* display on */
  49:..\u8g2\csrc/u8x8_d_sh1108.c ****   U8X8_END_TRANSFER(),             	/* disable chip */
  50:..\u8g2\csrc/u8x8_d_sh1108.c ****   U8X8_END()             			/* end of sequence */
  51:..\u8g2\csrc/u8x8_d_sh1108.c **** };
  52:..\u8g2\csrc/u8x8_d_sh1108.c **** 
  53:..\u8g2\csrc/u8x8_d_sh1108.c **** static const uint8_t u8x8_d_sh1108_noname_powersave1_seq[] = {
  54:..\u8g2\csrc/u8x8_d_sh1108.c ****   U8X8_START_TRANSFER(),             	/* enable chip, delay is part of the transfer start */
  55:..\u8g2\csrc/u8x8_d_sh1108.c ****   U8X8_C(0x0ae),		                /* display off */
  56:..\u8g2\csrc/u8x8_d_sh1108.c ****   U8X8_END_TRANSFER(),             	/* disable chip */
  57:..\u8g2\csrc/u8x8_d_sh1108.c ****   U8X8_END()             			/* end of sequence */
  58:..\u8g2\csrc/u8x8_d_sh1108.c **** };
  59:..\u8g2\csrc/u8x8_d_sh1108.c **** 
  60:..\u8g2\csrc/u8x8_d_sh1108.c **** static const uint8_t u8x8_d_sh1108_160x160_noname_powersave0_seq[] = {
  61:..\u8g2\csrc/u8x8_d_sh1108.c ****   U8X8_START_TRANSFER(),             	/* enable chip, delay is part of the transfer start */
  62:..\u8g2\csrc/u8x8_d_sh1108.c ****   U8X8_C(0x0a0),				/* segment remap a0/a1*/
  63:..\u8g2\csrc/u8x8_d_sh1108.c ****   U8X8_C(0x0c0),				/* c0: scan dir normal, c8: reverse */
  64:..\u8g2\csrc/u8x8_d_sh1108.c ****   U8X8_END_TRANSFER(),             	/* disable chip */
  65:..\u8g2\csrc/u8x8_d_sh1108.c ****   U8X8_END()             			/* end of sequence */
  66:..\u8g2\csrc/u8x8_d_sh1108.c **** };
  67:..\u8g2\csrc/u8x8_d_sh1108.c **** 
  68:..\u8g2\csrc/u8x8_d_sh1108.c **** static const uint8_t u8x8_d_sh1108_160x160_noname_powersave1_seq[] = {
  69:..\u8g2\csrc/u8x8_d_sh1108.c ****   U8X8_START_TRANSFER(),             	/* enable chip, delay is part of the transfer start */
  70:..\u8g2\csrc/u8x8_d_sh1108.c ****   U8X8_C(0x0a1),				/* segment remap a0/a1*/
  71:..\u8g2\csrc/u8x8_d_sh1108.c ****   U8X8_C(0x0c8),				/* c0: scan dir normal, c8: reverse */
  72:..\u8g2\csrc/u8x8_d_sh1108.c ****   U8X8_END_TRANSFER(),             	/* disable chip */
  73:..\u8g2\csrc/u8x8_d_sh1108.c ****   U8X8_END()             			/* end of sequence */
  74:..\u8g2\csrc/u8x8_d_sh1108.c **** };
  75:..\u8g2\csrc/u8x8_d_sh1108.c **** 
  76:..\u8g2\csrc/u8x8_d_sh1108.c **** 
  77:..\u8g2\csrc/u8x8_d_sh1108.c **** static uint8_t u8x8_d_sh1108_generic(u8x8_t *u8x8, uint8_t msg, uint8_t arg_int, void *arg_ptr)
  78:..\u8g2\csrc/u8x8_d_sh1108.c **** {
  27              		.loc 1 78 0
  28              		.cfi_startproc
  29              		@ args = 0, pretend = 0, frame = 0
  30              		@ frame_needed = 0, uses_anonymous_args = 0
  31              	.LVL0:
  32 0000 F8B5     		push	{r3, r4, r5, r6, r7, lr}
  33              		.cfi_def_cfa_offset 24
  34              		.cfi_offset 3, -24
  35              		.cfi_offset 4, -20
  36              		.cfi_offset 5, -16
ARM GAS  C:\Users\brian\AppData\Local\Temp\ccTcIi8F.s 			page 3


  37              		.cfi_offset 6, -12
  38              		.cfi_offset 7, -8
  39              		.cfi_offset 14, -4
  40 0002 0546     		mov	r5, r0
  41 0004 1446     		mov	r4, r2
  42 0006 1E46     		mov	r6, r3
  79:..\u8g2\csrc/u8x8_d_sh1108.c ****   uint8_t x, c;
  80:..\u8g2\csrc/u8x8_d_sh1108.c ****   uint8_t *ptr;
  81:..\u8g2\csrc/u8x8_d_sh1108.c ****   switch(msg)
  43              		.loc 1 81 0
  44 0008 0B39     		subs	r1, r1, #11
  45              	.LVL1:
  46 000a 0429     		cmp	r1, #4
  47 000c 5ED8     		bhi	.L11
  48 000e DFE801F0 		tbb	[pc, r1]
  49              	.LVL2:
  50              	.L4:
  51 0012 03       		.byte	(.L3-.L4)/2
  52 0013 5D       		.byte	(.L11-.L4)/2
  53 0014 0E       		.byte	(.L5-.L4)/2
  54 0015 21       		.byte	(.L6-.L4)/2
  55 0016 30       		.byte	(.L7-.L4)/2
  56 0017 00       		.p2align 1
  57              	.L3:
  82:..\u8g2\csrc/u8x8_d_sh1108.c ****   {
  83:..\u8g2\csrc/u8x8_d_sh1108.c ****     /* handled by the calling function
  84:..\u8g2\csrc/u8x8_d_sh1108.c ****     case U8X8_MSG_DISPLAY_SETUP_MEMORY:
  85:..\u8g2\csrc/u8x8_d_sh1108.c ****       u8x8_d_helper_display_setup_memory(u8x8, &u8x8_sh1108_64x128_noname_display_info);
  86:..\u8g2\csrc/u8x8_d_sh1108.c ****       break;
  87:..\u8g2\csrc/u8x8_d_sh1108.c ****     */
  88:..\u8g2\csrc/u8x8_d_sh1108.c ****     /* handled by the calling function
  89:..\u8g2\csrc/u8x8_d_sh1108.c ****     case U8X8_MSG_DISPLAY_INIT:
  90:..\u8g2\csrc/u8x8_d_sh1108.c ****       u8x8_d_helper_display_init(u8x8);
  91:..\u8g2\csrc/u8x8_d_sh1108.c ****       u8x8_cad_SendSequence(u8x8, u8x8_d_sh1108_64x128_noname_init_seq);    
  92:..\u8g2\csrc/u8x8_d_sh1108.c ****       break;
  93:..\u8g2\csrc/u8x8_d_sh1108.c ****     */
  94:..\u8g2\csrc/u8x8_d_sh1108.c ****     case U8X8_MSG_DISPLAY_SET_POWER_SAVE:
  95:..\u8g2\csrc/u8x8_d_sh1108.c ****       if ( arg_int == 0 )
  58              		.loc 1 95 0
  59 0018 22B9     		cbnz	r2, .L8
  96:..\u8g2\csrc/u8x8_d_sh1108.c **** 	u8x8_cad_SendSequence(u8x8, u8x8_d_sh1108_noname_powersave0_seq);
  60              		.loc 1 96 0
  61 001a 2D49     		ldr	r1, .L13
  62 001c FFF7FEFF 		bl	u8x8_cad_SendSequence
  63              	.LVL3:
  97:..\u8g2\csrc/u8x8_d_sh1108.c ****       else
  98:..\u8g2\csrc/u8x8_d_sh1108.c **** 	u8x8_cad_SendSequence(u8x8, u8x8_d_sh1108_noname_powersave1_seq);
  99:..\u8g2\csrc/u8x8_d_sh1108.c ****       break;
 100:..\u8g2\csrc/u8x8_d_sh1108.c ****     case U8X8_MSG_DISPLAY_SET_FLIP_MODE:
 101:..\u8g2\csrc/u8x8_d_sh1108.c ****       if ( arg_int == 0 )
 102:..\u8g2\csrc/u8x8_d_sh1108.c ****       {
 103:..\u8g2\csrc/u8x8_d_sh1108.c **** 	u8x8_cad_SendSequence(u8x8, u8x8_d_sh1108_160x160_noname_powersave0_seq);
 104:..\u8g2\csrc/u8x8_d_sh1108.c **** 	u8x8->x_offset = u8x8->display_info->default_x_offset;
 105:..\u8g2\csrc/u8x8_d_sh1108.c ****       }
 106:..\u8g2\csrc/u8x8_d_sh1108.c ****       else
 107:..\u8g2\csrc/u8x8_d_sh1108.c ****       {
 108:..\u8g2\csrc/u8x8_d_sh1108.c **** 	u8x8_cad_SendSequence(u8x8, u8x8_d_sh1108_160x160_noname_powersave1_seq);
ARM GAS  C:\Users\brian\AppData\Local\Temp\ccTcIi8F.s 			page 4


 109:..\u8g2\csrc/u8x8_d_sh1108.c **** 	u8x8->x_offset = u8x8->display_info->flipmode_x_offset;
 110:..\u8g2\csrc/u8x8_d_sh1108.c ****       }
 111:..\u8g2\csrc/u8x8_d_sh1108.c ****       break;
 112:..\u8g2\csrc/u8x8_d_sh1108.c **** #ifdef U8X8_WITH_SET_CONTRAST
 113:..\u8g2\csrc/u8x8_d_sh1108.c ****     case U8X8_MSG_DISPLAY_SET_CONTRAST:
 114:..\u8g2\csrc/u8x8_d_sh1108.c ****       u8x8_cad_StartTransfer(u8x8);
 115:..\u8g2\csrc/u8x8_d_sh1108.c ****       u8x8_cad_SendCmd(u8x8, 0x081 );
 116:..\u8g2\csrc/u8x8_d_sh1108.c ****       u8x8_cad_SendArg(u8x8, arg_int );	/* sh1108 has range from 0 to 255 */
 117:..\u8g2\csrc/u8x8_d_sh1108.c ****       u8x8_cad_EndTransfer(u8x8);
 118:..\u8g2\csrc/u8x8_d_sh1108.c ****       break;
 119:..\u8g2\csrc/u8x8_d_sh1108.c **** #endif
 120:..\u8g2\csrc/u8x8_d_sh1108.c ****     case U8X8_MSG_DISPLAY_DRAW_TILE:
 121:..\u8g2\csrc/u8x8_d_sh1108.c ****       u8x8_cad_StartTransfer(u8x8);
 122:..\u8g2\csrc/u8x8_d_sh1108.c ****       x = ((u8x8_tile_t *)arg_ptr)->x_pos;    
 123:..\u8g2\csrc/u8x8_d_sh1108.c ****       x *= 8;
 124:..\u8g2\csrc/u8x8_d_sh1108.c ****       x += u8x8->x_offset;
 125:..\u8g2\csrc/u8x8_d_sh1108.c **** 
 126:..\u8g2\csrc/u8x8_d_sh1108.c ****       //u8x8_cad_SendCmd(u8x8, 0x040 ); /* set line offset to 0 */
 127:..\u8g2\csrc/u8x8_d_sh1108.c **** 
 128:..\u8g2\csrc/u8x8_d_sh1108.c ****       // set column address
 129:..\u8g2\csrc/u8x8_d_sh1108.c ****       u8x8_cad_SendCmd(u8x8, 0x010 | (x >> 4));
 130:..\u8g2\csrc/u8x8_d_sh1108.c ****       u8x8_cad_SendCmd(u8x8, 0x000 | ((x & 15))); 
 131:..\u8g2\csrc/u8x8_d_sh1108.c ****       
 132:..\u8g2\csrc/u8x8_d_sh1108.c ****       // set page address
 133:..\u8g2\csrc/u8x8_d_sh1108.c ****       u8x8_cad_SendCmd(u8x8, 0x0b0 ); 		// page cmd is a two byte command
 134:..\u8g2\csrc/u8x8_d_sh1108.c ****       u8x8_cad_SendArg(u8x8, (((u8x8_tile_t *)arg_ptr)->y_pos)); 
 135:..\u8g2\csrc/u8x8_d_sh1108.c ****     
 136:..\u8g2\csrc/u8x8_d_sh1108.c ****       do
 137:..\u8g2\csrc/u8x8_d_sh1108.c ****       {
 138:..\u8g2\csrc/u8x8_d_sh1108.c **** 	c = ((u8x8_tile_t *)arg_ptr)->cnt;
 139:..\u8g2\csrc/u8x8_d_sh1108.c **** 	ptr = ((u8x8_tile_t *)arg_ptr)->tile_ptr;
 140:..\u8g2\csrc/u8x8_d_sh1108.c **** 	u8x8_cad_SendData(u8x8, c*8, ptr); 	/* note: SendData can not handle more than 255 bytes */
 141:..\u8g2\csrc/u8x8_d_sh1108.c **** 	arg_int--;
 142:..\u8g2\csrc/u8x8_d_sh1108.c ****       } while( arg_int > 0 );
 143:..\u8g2\csrc/u8x8_d_sh1108.c ****       
 144:..\u8g2\csrc/u8x8_d_sh1108.c ****       u8x8_cad_EndTransfer(u8x8);
 145:..\u8g2\csrc/u8x8_d_sh1108.c ****       break;
 146:..\u8g2\csrc/u8x8_d_sh1108.c ****     default:
 147:..\u8g2\csrc/u8x8_d_sh1108.c ****       return 0;
 148:..\u8g2\csrc/u8x8_d_sh1108.c ****   }
 149:..\u8g2\csrc/u8x8_d_sh1108.c ****   return 1;
  64              		.loc 1 149 0
  65 0020 0120     		movs	r0, #1
  66 0022 F8BD     		pop	{r3, r4, r5, r6, r7, pc}
  67              	.LVL4:
  68              	.L8:
  98:..\u8g2\csrc/u8x8_d_sh1108.c ****       break;
  69              		.loc 1 98 0
  70 0024 2B49     		ldr	r1, .L13+4
  71 0026 FFF7FEFF 		bl	u8x8_cad_SendSequence
  72              	.LVL5:
  73              		.loc 1 149 0
  74 002a 0120     		movs	r0, #1
  75 002c F8BD     		pop	{r3, r4, r5, r6, r7, pc}
  76              	.LVL6:
  77              	.L5:
 101:..\u8g2\csrc/u8x8_d_sh1108.c ****       {
ARM GAS  C:\Users\brian\AppData\Local\Temp\ccTcIi8F.s 			page 5


  78              		.loc 1 101 0
  79 002e 42B9     		cbnz	r2, .L9
 103:..\u8g2\csrc/u8x8_d_sh1108.c **** 	u8x8->x_offset = u8x8->display_info->default_x_offset;
  80              		.loc 1 103 0
  81 0030 2949     		ldr	r1, .L13+8
  82 0032 FFF7FEFF 		bl	u8x8_cad_SendSequence
  83              	.LVL7:
 104:..\u8g2\csrc/u8x8_d_sh1108.c ****       }
  84              		.loc 1 104 0
  85 0036 2B68     		ldr	r3, [r5]
  86 0038 9B7C     		ldrb	r3, [r3, #18]	@ zero_extendqisi2
  87 003a 85F82230 		strb	r3, [r5, #34]
  88              		.loc 1 149 0
  89 003e 0120     		movs	r0, #1
  90 0040 F8BD     		pop	{r3, r4, r5, r6, r7, pc}
  91              	.LVL8:
  92              	.L9:
 108:..\u8g2\csrc/u8x8_d_sh1108.c **** 	u8x8->x_offset = u8x8->display_info->flipmode_x_offset;
  93              		.loc 1 108 0
  94 0042 2649     		ldr	r1, .L13+12
  95 0044 FFF7FEFF 		bl	u8x8_cad_SendSequence
  96              	.LVL9:
 109:..\u8g2\csrc/u8x8_d_sh1108.c ****       }
  97              		.loc 1 109 0
  98 0048 2B68     		ldr	r3, [r5]
  99 004a DB7C     		ldrb	r3, [r3, #19]	@ zero_extendqisi2
 100 004c 85F82230 		strb	r3, [r5, #34]
 101              		.loc 1 149 0
 102 0050 0120     		movs	r0, #1
 103 0052 F8BD     		pop	{r3, r4, r5, r6, r7, pc}
 104              	.LVL10:
 105              	.L6:
 114:..\u8g2\csrc/u8x8_d_sh1108.c ****       u8x8_cad_SendCmd(u8x8, 0x081 );
 106              		.loc 1 114 0
 107 0054 FFF7FEFF 		bl	u8x8_cad_StartTransfer
 108              	.LVL11:
 115:..\u8g2\csrc/u8x8_d_sh1108.c ****       u8x8_cad_SendArg(u8x8, arg_int );	/* sh1108 has range from 0 to 255 */
 109              		.loc 1 115 0
 110 0058 8121     		movs	r1, #129
 111 005a 2846     		mov	r0, r5
 112 005c FFF7FEFF 		bl	u8x8_cad_SendCmd
 113              	.LVL12:
 116:..\u8g2\csrc/u8x8_d_sh1108.c ****       u8x8_cad_EndTransfer(u8x8);
 114              		.loc 1 116 0
 115 0060 2146     		mov	r1, r4
 116 0062 2846     		mov	r0, r5
 117 0064 FFF7FEFF 		bl	u8x8_cad_SendArg
 118              	.LVL13:
 117:..\u8g2\csrc/u8x8_d_sh1108.c ****       break;
 119              		.loc 1 117 0
 120 0068 2846     		mov	r0, r5
 121 006a FFF7FEFF 		bl	u8x8_cad_EndTransfer
 122              	.LVL14:
 123              		.loc 1 149 0
 124 006e 0120     		movs	r0, #1
 118:..\u8g2\csrc/u8x8_d_sh1108.c **** #endif
 125              		.loc 1 118 0
ARM GAS  C:\Users\brian\AppData\Local\Temp\ccTcIi8F.s 			page 6


 126 0070 F8BD     		pop	{r3, r4, r5, r6, r7, pc}
 127              	.LVL15:
 128              	.L7:
 121:..\u8g2\csrc/u8x8_d_sh1108.c ****       x = ((u8x8_tile_t *)arg_ptr)->x_pos;    
 129              		.loc 1 121 0
 130 0072 FFF7FEFF 		bl	u8x8_cad_StartTransfer
 131              	.LVL16:
 122:..\u8g2\csrc/u8x8_d_sh1108.c ****       x *= 8;
 132              		.loc 1 122 0
 133 0076 7779     		ldrb	r7, [r6, #5]	@ zero_extendqisi2
 134              	.LVL17:
 123:..\u8g2\csrc/u8x8_d_sh1108.c ****       x += u8x8->x_offset;
 135              		.loc 1 123 0
 136 0078 FF00     		lsls	r7, r7, #3
 137              	.LVL18:
 138 007a FFB2     		uxtb	r7, r7
 139              	.LVL19:
 124:..\u8g2\csrc/u8x8_d_sh1108.c **** 
 140              		.loc 1 124 0
 141 007c 95F82230 		ldrb	r3, [r5, #34]	@ zero_extendqisi2
 142 0080 1F44     		add	r7, r7, r3
 143              	.LVL20:
 144 0082 FFB2     		uxtb	r7, r7
 145              	.LVL21:
 129:..\u8g2\csrc/u8x8_d_sh1108.c ****       u8x8_cad_SendCmd(u8x8, 0x000 | ((x & 15))); 
 146              		.loc 1 129 0
 147 0084 3909     		lsrs	r1, r7, #4
 148 0086 41F01001 		orr	r1, r1, #16
 149 008a 2846     		mov	r0, r5
 150 008c FFF7FEFF 		bl	u8x8_cad_SendCmd
 151              	.LVL22:
 130:..\u8g2\csrc/u8x8_d_sh1108.c ****       
 152              		.loc 1 130 0
 153 0090 07F00F01 		and	r1, r7, #15
 154 0094 2846     		mov	r0, r5
 155 0096 FFF7FEFF 		bl	u8x8_cad_SendCmd
 156              	.LVL23:
 133:..\u8g2\csrc/u8x8_d_sh1108.c ****       u8x8_cad_SendArg(u8x8, (((u8x8_tile_t *)arg_ptr)->y_pos)); 
 157              		.loc 1 133 0
 158 009a B021     		movs	r1, #176
 159 009c 2846     		mov	r0, r5
 160 009e FFF7FEFF 		bl	u8x8_cad_SendCmd
 161              	.LVL24:
 134:..\u8g2\csrc/u8x8_d_sh1108.c ****     
 162              		.loc 1 134 0
 163 00a2 B179     		ldrb	r1, [r6, #6]	@ zero_extendqisi2
 164 00a4 2846     		mov	r0, r5
 165 00a6 FFF7FEFF 		bl	u8x8_cad_SendArg
 166              	.LVL25:
 167              	.L10:
 138:..\u8g2\csrc/u8x8_d_sh1108.c **** 	ptr = ((u8x8_tile_t *)arg_ptr)->tile_ptr;
 168              		.loc 1 138 0 discriminator 1
 169 00aa 3179     		ldrb	r1, [r6, #4]	@ zero_extendqisi2
 170              	.LVL26:
 140:..\u8g2\csrc/u8x8_d_sh1108.c **** 	arg_int--;
 171              		.loc 1 140 0 discriminator 1
 172 00ac C900     		lsls	r1, r1, #3
ARM GAS  C:\Users\brian\AppData\Local\Temp\ccTcIi8F.s 			page 7


 173              	.LVL27:
 174 00ae 3268     		ldr	r2, [r6]
 175 00b0 01F0F801 		and	r1, r1, #248
 176 00b4 2846     		mov	r0, r5
 177 00b6 FFF7FEFF 		bl	u8x8_cad_SendData
 178              	.LVL28:
 141:..\u8g2\csrc/u8x8_d_sh1108.c ****       } while( arg_int > 0 );
 179              		.loc 1 141 0 discriminator 1
 180 00ba 621E     		subs	r2, r4, #1
 181              	.LVL29:
 142:..\u8g2\csrc/u8x8_d_sh1108.c ****       
 182              		.loc 1 142 0 discriminator 1
 183 00bc 12F0FF04 		ands	r4, r2, #255
 184 00c0 F3D1     		bne	.L10
 144:..\u8g2\csrc/u8x8_d_sh1108.c ****       break;
 185              		.loc 1 144 0
 186 00c2 2846     		mov	r0, r5
 187 00c4 FFF7FEFF 		bl	u8x8_cad_EndTransfer
 188              	.LVL30:
 189              		.loc 1 149 0
 190 00c8 0120     		movs	r0, #1
 145:..\u8g2\csrc/u8x8_d_sh1108.c ****     default:
 191              		.loc 1 145 0
 192 00ca F8BD     		pop	{r3, r4, r5, r6, r7, pc}
 193              	.LVL31:
 194              	.L11:
 147:..\u8g2\csrc/u8x8_d_sh1108.c ****   }
 195              		.loc 1 147 0
 196 00cc 0020     		movs	r0, #0
 197              	.LVL32:
 150:..\u8g2\csrc/u8x8_d_sh1108.c **** }
 198              		.loc 1 150 0
 199 00ce F8BD     		pop	{r3, r4, r5, r6, r7, pc}
 200              	.LVL33:
 201              	.L14:
 202              		.align	2
 203              	.L13:
 204 00d0 00000000 		.word	.LANCHOR0
 205 00d4 08000000 		.word	.LANCHOR0+8
 206 00d8 10000000 		.word	.LANCHOR0+16
 207 00dc 18000000 		.word	.LANCHOR0+24
 208              		.cfi_endproc
 209              	.LFE0:
 210              		.size	u8x8_d_sh1108_generic, .-u8x8_d_sh1108_generic
 211              		.section	.text.u8x8_d_sh1108_160x160,"ax",%progbits
 212              		.align	2
 213              		.global	u8x8_d_sh1108_160x160
 214              		.thumb
 215              		.thumb_func
 216              		.type	u8x8_d_sh1108_160x160, %function
 217              	u8x8_d_sh1108_160x160:
 218              	.LFB1:
 151:..\u8g2\csrc/u8x8_d_sh1108.c **** 
 152:..\u8g2\csrc/u8x8_d_sh1108.c **** /*==================================================*/
 153:..\u8g2\csrc/u8x8_d_sh1108.c **** 
 154:..\u8g2\csrc/u8x8_d_sh1108.c **** /* issue #619, 160x160 OLED */
 155:..\u8g2\csrc/u8x8_d_sh1108.c **** static const uint8_t u8x8_d_sh1108_160x160_noname_init_seq[] = {
ARM GAS  C:\Users\brian\AppData\Local\Temp\ccTcIi8F.s 			page 8


 156:..\u8g2\csrc/u8x8_d_sh1108.c ****     
 157:..\u8g2\csrc/u8x8_d_sh1108.c ****   U8X8_START_TRANSFER(),             	/* enable chip, delay is part of the transfer start */
 158:..\u8g2\csrc/u8x8_d_sh1108.c ****     
 159:..\u8g2\csrc/u8x8_d_sh1108.c ****   U8X8_C(0x0ae),		                /* display off */
 160:..\u8g2\csrc/u8x8_d_sh1108.c ****   U8X8_CA(0x0d5, 0x060),		/* clock divide ratio and oscillator frequency */
 161:..\u8g2\csrc/u8x8_d_sh1108.c ****   U8X8_CA(0x0a9, 0x003), 		/* set display resolution, 0=64x160, 1=96x160, 2=128x160, 3=160x160 */
 162:..\u8g2\csrc/u8x8_d_sh1108.c ****   U8X8_C(0x020),		                /* addressing mode */
 163:..\u8g2\csrc/u8x8_d_sh1108.c ****   U8X8_CA(0x081, 0x01f), 		/* set contrast control */
 164:..\u8g2\csrc/u8x8_d_sh1108.c ****   U8X8_CA(0x0ad, 0x80),			/* DC/DC control 80=Use external Vpp, 89=Use internal DC/DC*/
 165:..\u8g2\csrc/u8x8_d_sh1108.c ****   U8X8_C(0x030),				/* set discharge VSL level, 0x030..0x03f */
 166:..\u8g2\csrc/u8x8_d_sh1108.c ****   U8X8_CA(0x0d9, 0x028), 		/* pre-charge period */
 167:..\u8g2\csrc/u8x8_d_sh1108.c ****   U8X8_CA(0x0db, 0x035), 		/* vcomh deselect level */    
 168:..\u8g2\csrc/u8x8_d_sh1108.c ****   U8X8_CA(0x0dc, 0x035),		/* VSEGM Deselect Level */
 169:..\u8g2\csrc/u8x8_d_sh1108.c **** 
 170:..\u8g2\csrc/u8x8_d_sh1108.c ****   U8X8_C(0x0a0),				/* segment remap a0/a1*/
 171:..\u8g2\csrc/u8x8_d_sh1108.c ****   U8X8_C(0x0c0),				/* c0: scan dir normal, c8: reverse */
 172:..\u8g2\csrc/u8x8_d_sh1108.c ****   
 173:..\u8g2\csrc/u8x8_d_sh1108.c ****   U8X8_C(0x0a4),				/* output ram to display */
 174:..\u8g2\csrc/u8x8_d_sh1108.c ****   U8X8_C(0x0a6),				/* none inverted normal display mode */
 175:..\u8g2\csrc/u8x8_d_sh1108.c ****     
 176:..\u8g2\csrc/u8x8_d_sh1108.c ****   U8X8_END_TRANSFER(),             	/* disable chip */
 177:..\u8g2\csrc/u8x8_d_sh1108.c ****   U8X8_END()             			/* end of sequence */
 178:..\u8g2\csrc/u8x8_d_sh1108.c **** };
 179:..\u8g2\csrc/u8x8_d_sh1108.c **** 
 180:..\u8g2\csrc/u8x8_d_sh1108.c **** static const u8x8_display_info_t u8x8_sh1108_160x160_noname_display_info =
 181:..\u8g2\csrc/u8x8_d_sh1108.c **** {
 182:..\u8g2\csrc/u8x8_d_sh1108.c ****   /* chip_enable_level = */ 0,
 183:..\u8g2\csrc/u8x8_d_sh1108.c ****   /* chip_disable_level = */ 1,
 184:..\u8g2\csrc/u8x8_d_sh1108.c ****   
 185:..\u8g2\csrc/u8x8_d_sh1108.c ****   /* post_chip_enable_wait_ns = */ 60,
 186:..\u8g2\csrc/u8x8_d_sh1108.c ****   /* pre_chip_disable_wait_ns = */ 120,
 187:..\u8g2\csrc/u8x8_d_sh1108.c ****   /* reset_pulse_width_ms = */ 100, 	/* sh1108: 3 us */
 188:..\u8g2\csrc/u8x8_d_sh1108.c ****   /* post_reset_wait_ms = */ 100, /* sometimes OLEDs need much longer setup time */
 189:..\u8g2\csrc/u8x8_d_sh1108.c ****   /* sda_setup_time_ns = */ 100,		/* sh1108: 100ns */
 190:..\u8g2\csrc/u8x8_d_sh1108.c ****   /* sck_pulse_width_ns = */ 100,	/* sh1108: 100ns */
 191:..\u8g2\csrc/u8x8_d_sh1108.c ****   /* sck_clock_hz = */ 4000000UL,	/* since Arduino 1.6.0, the SPI bus speed in Hz. Should be  10000
 192:..\u8g2\csrc/u8x8_d_sh1108.c ****   /* spi_mode = */ 0,		/* active high, rising edge */
 193:..\u8g2\csrc/u8x8_d_sh1108.c ****   /* i2c_bus_clock_100kHz = */ 4,
 194:..\u8g2\csrc/u8x8_d_sh1108.c ****   /* data_setup_time_ns = */ 40,
 195:..\u8g2\csrc/u8x8_d_sh1108.c ****   /* write_pulse_width_ns = */ 150,	/* sh1108: cycle time is 300ns, so use 300/2 = 150 */
 196:..\u8g2\csrc/u8x8_d_sh1108.c ****   /* tile_width = */ 20,
 197:..\u8g2\csrc/u8x8_d_sh1108.c ****   /* tile_height = */ 20,
 198:..\u8g2\csrc/u8x8_d_sh1108.c ****   /* default_x_offset = */ 0,
 199:..\u8g2\csrc/u8x8_d_sh1108.c ****   /* flipmode_x_offset = */ 0,
 200:..\u8g2\csrc/u8x8_d_sh1108.c ****   /* pixel_width = */ 160,
 201:..\u8g2\csrc/u8x8_d_sh1108.c ****   /* pixel_height = */ 160
 202:..\u8g2\csrc/u8x8_d_sh1108.c **** };
 203:..\u8g2\csrc/u8x8_d_sh1108.c **** 
 204:..\u8g2\csrc/u8x8_d_sh1108.c **** uint8_t u8x8_d_sh1108_160x160(u8x8_t *u8x8, uint8_t msg, uint8_t arg_int, void *arg_ptr)
 205:..\u8g2\csrc/u8x8_d_sh1108.c **** {
 219              		.loc 1 205 0
 220              		.cfi_startproc
 221              		@ args = 0, pretend = 0, frame = 0
 222              		@ frame_needed = 0, uses_anonymous_args = 0
 223              	.LVL34:
 224 0000 38B5     		push	{r3, r4, r5, lr}
 225              		.cfi_def_cfa_offset 16
ARM GAS  C:\Users\brian\AppData\Local\Temp\ccTcIi8F.s 			page 9


 226              		.cfi_offset 3, -16
 227              		.cfi_offset 4, -12
 228              		.cfi_offset 5, -8
 229              		.cfi_offset 14, -4
 230 0002 0546     		mov	r5, r0
 231 0004 0C46     		mov	r4, r1
 206:..\u8g2\csrc/u8x8_d_sh1108.c ****     
 207:..\u8g2\csrc/u8x8_d_sh1108.c ****   if ( u8x8_d_sh1108_generic(u8x8, msg, arg_int, arg_ptr) != 0 )
 232              		.loc 1 207 0
 233 0006 FFF7FEFF 		bl	u8x8_d_sh1108_generic
 234              	.LVL35:
 235 000a 98B9     		cbnz	r0, .L19
 236 000c 0346     		mov	r3, r0
 208:..\u8g2\csrc/u8x8_d_sh1108.c ****     return 1;
 209:..\u8g2\csrc/u8x8_d_sh1108.c ****   
 210:..\u8g2\csrc/u8x8_d_sh1108.c ****   switch(msg)
 237              		.loc 1 210 0
 238 000e 092C     		cmp	r4, #9
 239 0010 0AD0     		beq	.L17
 240 0012 0A2C     		cmp	r4, #10
 241 0014 0FD1     		bne	.L16
 211:..\u8g2\csrc/u8x8_d_sh1108.c ****   {
 212:..\u8g2\csrc/u8x8_d_sh1108.c ****     case U8X8_MSG_DISPLAY_INIT:
 213:..\u8g2\csrc/u8x8_d_sh1108.c ****       u8x8_d_helper_display_init(u8x8);
 242              		.loc 1 213 0
 243 0016 2846     		mov	r0, r5
 244 0018 FFF7FEFF 		bl	u8x8_d_helper_display_init
 245              	.LVL36:
 214:..\u8g2\csrc/u8x8_d_sh1108.c ****       u8x8_cad_SendSequence(u8x8, u8x8_d_sh1108_160x160_noname_init_seq);
 246              		.loc 1 214 0
 247 001c 0749     		ldr	r1, .L21
 248 001e 2846     		mov	r0, r5
 249 0020 FFF7FEFF 		bl	u8x8_cad_SendSequence
 250              	.LVL37:
 215:..\u8g2\csrc/u8x8_d_sh1108.c ****       break;
 216:..\u8g2\csrc/u8x8_d_sh1108.c ****     case U8X8_MSG_DISPLAY_SETUP_MEMORY:
 217:..\u8g2\csrc/u8x8_d_sh1108.c ****       u8x8_d_helper_display_setup_memory(u8x8, &u8x8_sh1108_160x160_noname_display_info);
 218:..\u8g2\csrc/u8x8_d_sh1108.c ****       break;
 219:..\u8g2\csrc/u8x8_d_sh1108.c ****     default:
 220:..\u8g2\csrc/u8x8_d_sh1108.c ****       return 0;
 221:..\u8g2\csrc/u8x8_d_sh1108.c ****   }
 222:..\u8g2\csrc/u8x8_d_sh1108.c ****   return 1;
 251              		.loc 1 222 0
 252 0024 0123     		movs	r3, #1
 215:..\u8g2\csrc/u8x8_d_sh1108.c ****       break;
 253              		.loc 1 215 0
 254 0026 06E0     		b	.L16
 255              	.L17:
 217:..\u8g2\csrc/u8x8_d_sh1108.c ****       break;
 256              		.loc 1 217 0
 257 0028 0549     		ldr	r1, .L21+4
 258 002a 2846     		mov	r0, r5
 259 002c FFF7FEFF 		bl	u8x8_d_helper_display_setup_memory
 260              	.LVL38:
 261              		.loc 1 222 0
 262 0030 0123     		movs	r3, #1
 218:..\u8g2\csrc/u8x8_d_sh1108.c ****     default:
ARM GAS  C:\Users\brian\AppData\Local\Temp\ccTcIi8F.s 			page 10


 263              		.loc 1 218 0
 264 0032 00E0     		b	.L16
 265              	.L19:
 208:..\u8g2\csrc/u8x8_d_sh1108.c ****   
 266              		.loc 1 208 0
 267 0034 0123     		movs	r3, #1
 268              	.L16:
 223:..\u8g2\csrc/u8x8_d_sh1108.c **** }
 269              		.loc 1 223 0
 270 0036 1846     		mov	r0, r3
 271 0038 38BD     		pop	{r3, r4, r5, pc}
 272              	.LVL39:
 273              	.L22:
 274 003a 00BF     		.align	2
 275              	.L21:
 276 003c 20000000 		.word	.LANCHOR0+32
 277 0040 50000000 		.word	.LANCHOR0+80
 278              		.cfi_endproc
 279              	.LFE1:
 280              		.size	u8x8_d_sh1108_160x160, .-u8x8_d_sh1108_160x160
 281              		.section	.rodata
 282              		.align	2
 283              		.set	.LANCHOR0,. + 0
 284              		.type	u8x8_d_sh1108_noname_powersave0_seq, %object
 285              		.size	u8x8_d_sh1108_noname_powersave0_seq, 5
 286              	u8x8_d_sh1108_noname_powersave0_seq:
 287 0000 18       		.byte	24
 288 0001 15       		.byte	21
 289 0002 AF       		.byte	-81
 290 0003 19       		.byte	25
 291 0004 FF       		.byte	-1
 292 0005 000000   		.space	3
 293              		.type	u8x8_d_sh1108_noname_powersave1_seq, %object
 294              		.size	u8x8_d_sh1108_noname_powersave1_seq, 5
 295              	u8x8_d_sh1108_noname_powersave1_seq:
 296 0008 18       		.byte	24
 297 0009 15       		.byte	21
 298 000a AE       		.byte	-82
 299 000b 19       		.byte	25
 300 000c FF       		.byte	-1
 301 000d 000000   		.space	3
 302              		.type	u8x8_d_sh1108_160x160_noname_powersave0_seq, %object
 303              		.size	u8x8_d_sh1108_160x160_noname_powersave0_seq, 7
 304              	u8x8_d_sh1108_160x160_noname_powersave0_seq:
 305 0010 18       		.byte	24
 306 0011 15       		.byte	21
 307 0012 A0       		.byte	-96
 308 0013 15       		.byte	21
 309 0014 C0       		.byte	-64
 310 0015 19       		.byte	25
 311 0016 FF       		.byte	-1
 312 0017 00       		.space	1
 313              		.type	u8x8_d_sh1108_160x160_noname_powersave1_seq, %object
 314              		.size	u8x8_d_sh1108_160x160_noname_powersave1_seq, 7
 315              	u8x8_d_sh1108_160x160_noname_powersave1_seq:
 316 0018 18       		.byte	24
 317 0019 15       		.byte	21
ARM GAS  C:\Users\brian\AppData\Local\Temp\ccTcIi8F.s 			page 11


 318 001a A1       		.byte	-95
 319 001b 15       		.byte	21
 320 001c C8       		.byte	-56
 321 001d 19       		.byte	25
 322 001e FF       		.byte	-1
 323 001f 00       		.space	1
 324              		.type	u8x8_d_sh1108_160x160_noname_init_seq, %object
 325              		.size	u8x8_d_sh1108_160x160_noname_init_seq, 45
 326              	u8x8_d_sh1108_160x160_noname_init_seq:
 327 0020 18       		.byte	24
 328 0021 15       		.byte	21
 329 0022 AE       		.byte	-82
 330 0023 15       		.byte	21
 331 0024 D5       		.byte	-43
 332 0025 16       		.byte	22
 333 0026 60       		.byte	96
 334 0027 15       		.byte	21
 335 0028 A9       		.byte	-87
 336 0029 16       		.byte	22
 337 002a 03       		.byte	3
 338 002b 15       		.byte	21
 339 002c 20       		.byte	32
 340 002d 15       		.byte	21
 341 002e 81       		.byte	-127
 342 002f 16       		.byte	22
 343 0030 1F       		.byte	31
 344 0031 15       		.byte	21
 345 0032 AD       		.byte	-83
 346 0033 16       		.byte	22
 347 0034 80       		.byte	-128
 348 0035 15       		.byte	21
 349 0036 30       		.byte	48
 350 0037 15       		.byte	21
 351 0038 D9       		.byte	-39
 352 0039 16       		.byte	22
 353 003a 28       		.byte	40
 354 003b 15       		.byte	21
 355 003c DB       		.byte	-37
 356 003d 16       		.byte	22
 357 003e 35       		.byte	53
 358 003f 15       		.byte	21
 359 0040 DC       		.byte	-36
 360 0041 16       		.byte	22
 361 0042 35       		.byte	53
 362 0043 15       		.byte	21
 363 0044 A0       		.byte	-96
 364 0045 15       		.byte	21
 365 0046 C0       		.byte	-64
 366 0047 15       		.byte	21
 367 0048 A4       		.byte	-92
 368 0049 15       		.byte	21
 369 004a A6       		.byte	-90
 370 004b 19       		.byte	25
 371 004c FF       		.byte	-1
 372 004d 000000   		.space	3
 373              		.type	u8x8_sh1108_160x160_noname_display_info, %object
 374              		.size	u8x8_sh1108_160x160_noname_display_info, 24
ARM GAS  C:\Users\brian\AppData\Local\Temp\ccTcIi8F.s 			page 12


 375              	u8x8_sh1108_160x160_noname_display_info:
 376 0050 00       		.byte	0
 377 0051 01       		.byte	1
 378 0052 3C       		.byte	60
 379 0053 78       		.byte	120
 380 0054 64       		.byte	100
 381 0055 64       		.byte	100
 382 0056 64       		.byte	100
 383 0057 64       		.byte	100
 384 0058 00093D00 		.word	4000000
 385 005c 00       		.byte	0
 386 005d 04       		.byte	4
 387 005e 28       		.byte	40
 388 005f 96       		.byte	-106
 389 0060 14       		.byte	20
 390 0061 14       		.byte	20
 391 0062 00       		.byte	0
 392 0063 00       		.byte	0
 393 0064 A000     		.short	160
 394 0066 A000     		.short	160
 395              		.text
 396              	.Letext0:
 397              		.file 2 "c:\\program files (x86)\\cypress\\psoc creator\\4.4\\psoc creator\\import\\gnu\\arm\\5.4.
 398              		.file 3 "c:\\program files (x86)\\cypress\\psoc creator\\4.4\\psoc creator\\import\\gnu\\arm\\5.4.
 399              		.file 4 "..\\u8g2\\csrc\\u8x8.h"