ARM GAS  C:\Users\brian\AppData\Local\Temp\ccsLIFJH.s 			page 1


   1              		.syntax unified
   2              		.cpu cortex-m3
   3              		.fpu softvfp
   4              		.eabi_attribute 20, 1
   5              		.eabi_attribute 21, 1
   6              		.eabi_attribute 23, 3
   7              		.eabi_attribute 24, 1
   8              		.eabi_attribute 25, 1
   9              		.eabi_attribute 26, 1
  10              		.eabi_attribute 30, 1
  11              		.eabi_attribute 34, 1
  12              		.eabi_attribute 18, 4
  13              		.thumb
  14              		.syntax unified
  15              		.file	"u8x8_d_st7586s_ymc240160.c"
  16              		.text
  17              	.Ltext0:
  18              		.cfi_sections	.debug_frame
  19              		.section	.text.u8x8_d_st7586s_ymc240160,"ax",%progbits
  20              		.align	2
  21              		.global	u8x8_d_st7586s_ymc240160
  22              		.thumb
  23              		.thumb_func
  24              		.type	u8x8_d_st7586s_ymc240160, %function
  25              	u8x8_d_st7586s_ymc240160:
  26              	.LFB0:
  27              		.file 1 "..\\u8g2\\csrc\\u8x8_d_st7586s_ymc240160.c"
   1:..\u8g2\csrc/u8x8_d_st7586s_ymc240160.c **** /*
   2:..\u8g2\csrc/u8x8_d_st7586s_ymc240160.c ****   u8x8_d_st7586s_ymc240160.c
   3:..\u8g2\csrc/u8x8_d_st7586s_ymc240160.c **** 
   4:..\u8g2\csrc/u8x8_d_st7586s_ymc240160.c ****   Display: 240x160 pixel
   5:..\u8g2\csrc/u8x8_d_st7586s_ymc240160.c ****   ST7586s: 384 x 160 x 2
   6:..\u8g2\csrc/u8x8_d_st7586s_ymc240160.c **** 
   7:..\u8g2\csrc/u8x8_d_st7586s_ymc240160.c ****   takeover from https://github.com/olikraus/u8g2/issues/1183
   8:..\u8g2\csrc/u8x8_d_st7586s_ymc240160.c ****   
   9:..\u8g2\csrc/u8x8_d_st7586s_ymc240160.c ****   Universal 8bit Graphics Library (https://github.com/olikraus/u8g2/)
  10:..\u8g2\csrc/u8x8_d_st7586s_ymc240160.c ****   
  11:..\u8g2\csrc/u8x8_d_st7586s_ymc240160.c ****   Copyright (c) 2020, olikraus@gmail.com
  12:..\u8g2\csrc/u8x8_d_st7586s_ymc240160.c ****   
  13:..\u8g2\csrc/u8x8_d_st7586s_ymc240160.c ****   All rights reserved.
  14:..\u8g2\csrc/u8x8_d_st7586s_ymc240160.c ****   Redistribution and use in source and binary forms, with or without modification, 
  15:..\u8g2\csrc/u8x8_d_st7586s_ymc240160.c ****   are permitted provided that the following conditions are met:
  16:..\u8g2\csrc/u8x8_d_st7586s_ymc240160.c ****   * Redistributions of source code must retain the above copyright notice, this list 
  17:..\u8g2\csrc/u8x8_d_st7586s_ymc240160.c ****     of conditions and the following disclaimer.
  18:..\u8g2\csrc/u8x8_d_st7586s_ymc240160.c ****     
  19:..\u8g2\csrc/u8x8_d_st7586s_ymc240160.c ****   * Redistributions in binary form must reproduce the above copyright notice, this 
  20:..\u8g2\csrc/u8x8_d_st7586s_ymc240160.c ****     list of conditions and the following disclaimer in the documentation and/or other 
  21:..\u8g2\csrc/u8x8_d_st7586s_ymc240160.c ****     materials provided with the distribution.
  22:..\u8g2\csrc/u8x8_d_st7586s_ymc240160.c ****   THIS SOFTWARE IS PROVIDED BY THE COPYRIGHT HOLDERS AND 
  23:..\u8g2\csrc/u8x8_d_st7586s_ymc240160.c ****   CONTRIBUTORS "AS IS" AND ANY EXPRESS OR IMPLIED WARRANTIES, 
  24:..\u8g2\csrc/u8x8_d_st7586s_ymc240160.c ****   INCLUDING, BUT NOT LIMITED TO, THE IMPLIED WARRANTIES OF 
  25:..\u8g2\csrc/u8x8_d_st7586s_ymc240160.c ****   MERCHANTABILITY AND FITNESS FOR A PARTICULAR PURPOSE ARE 
  26:..\u8g2\csrc/u8x8_d_st7586s_ymc240160.c ****   DISCLAIMED. IN NO EVENT SHALL THE COPYRIGHT HOLDER OR 
  27:..\u8g2\csrc/u8x8_d_st7586s_ymc240160.c ****   CONTRIBUTORS BE LIABLE FOR ANY DIRECT, INDIRECT, INCIDENTAL, 
  28:..\u8g2\csrc/u8x8_d_st7586s_ymc240160.c ****   SPECIAL, EXEMPLARY, OR CONSEQUENTIAL DAMAGES (INCLUDING, BUT 
  29:..\u8g2\csrc/u8x8_d_st7586s_ymc240160.c ****   NOT LIMITED TO, PROCUREMENT OF SUBSTITUTE GOODS OR SERVICES; 
  30:..\u8g2\csrc/u8x8_d_st7586s_ymc240160.c ****   LOSS OF USE, DATA, OR PROFITS; OR BUSINESS INTERRUPTION) HOWEVER 
ARM GAS  C:\Users\brian\AppData\Local\Temp\ccsLIFJH.s 			page 2


  31:..\u8g2\csrc/u8x8_d_st7586s_ymc240160.c ****   CAUSED AND ON ANY THEORY OF LIABILITY, WHETHER IN CONTRACT, 
  32:..\u8g2\csrc/u8x8_d_st7586s_ymc240160.c ****   STRICT LIABILITY, OR TORT (INCLUDING NEGLIGENCE OR OTHERWISE) 
  33:..\u8g2\csrc/u8x8_d_st7586s_ymc240160.c ****   ARISING IN ANY WAY OUT OF THE USE OF THIS SOFTWARE, EVEN IF 
  34:..\u8g2\csrc/u8x8_d_st7586s_ymc240160.c ****   ADVISED OF THE POSSIBILITY OF SUCH DAMAGE.  
  35:..\u8g2\csrc/u8x8_d_st7586s_ymc240160.c ****   
  36:..\u8g2\csrc/u8x8_d_st7586s_ymc240160.c **** */
  37:..\u8g2\csrc/u8x8_d_st7586s_ymc240160.c **** 
  38:..\u8g2\csrc/u8x8_d_st7586s_ymc240160.c **** #include "u8g2.h"
  39:..\u8g2\csrc/u8x8_d_st7586s_ymc240160.c **** 
  40:..\u8g2\csrc/u8x8_d_st7586s_ymc240160.c **** 
  41:..\u8g2\csrc/u8x8_d_st7586s_ymc240160.c **** static const uint8_t u8x8_d_st7586s_sleep_on[] = {
  42:..\u8g2\csrc/u8x8_d_st7586s_ymc240160.c ****   U8X8_START_TRANSFER(),  /* enable chip, delay is part of the transfer start */
  43:..\u8g2\csrc/u8x8_d_st7586s_ymc240160.c ****   U8X8_C(0x010), /* set power save mode */
  44:..\u8g2\csrc/u8x8_d_st7586s_ymc240160.c ****   U8X8_END_TRANSFER(),  /* disable chip */
  45:..\u8g2\csrc/u8x8_d_st7586s_ymc240160.c ****   U8X8_END()                  /* end of sequence */
  46:..\u8g2\csrc/u8x8_d_st7586s_ymc240160.c **** };
  47:..\u8g2\csrc/u8x8_d_st7586s_ymc240160.c **** 
  48:..\u8g2\csrc/u8x8_d_st7586s_ymc240160.c **** static const uint8_t u8x8_d_st7586s_sleep_off[] = {
  49:..\u8g2\csrc/u8x8_d_st7586s_ymc240160.c ****   U8X8_START_TRANSFER(),  /* enable chip, delay is part of the transfer start */
  50:..\u8g2\csrc/u8x8_d_st7586s_ymc240160.c ****   U8X8_C(0x011), //Sleep out
  51:..\u8g2\csrc/u8x8_d_st7586s_ymc240160.c ****   U8X8_DLY(50), /* delay 50 ms */
  52:..\u8g2\csrc/u8x8_d_st7586s_ymc240160.c ****   U8X8_END_TRANSFER(),  /* disable chip */
  53:..\u8g2\csrc/u8x8_d_st7586s_ymc240160.c ****   U8X8_END()                  /* end of sequence */
  54:..\u8g2\csrc/u8x8_d_st7586s_ymc240160.c **** };
  55:..\u8g2\csrc/u8x8_d_st7586s_ymc240160.c **** 
  56:..\u8g2\csrc/u8x8_d_st7586s_ymc240160.c **** static const uint8_t u8x8_d_st7586s_ymc240160_flip0_seq[] = {
  57:..\u8g2\csrc/u8x8_d_st7586s_ymc240160.c ****   U8X8_START_TRANSFER(),             	/* enable chip, delay is part of the transfer start */
  58:..\u8g2\csrc/u8x8_d_st7586s_ymc240160.c ****   U8X8_C(0x036),  /* Scan Direction Setting */
  59:..\u8g2\csrc/u8x8_d_st7586s_ymc240160.c ****   U8X8_A(0x080),	/* COM159 -> COM0 SEG383 -> SEG0 */
  60:..\u8g2\csrc/u8x8_d_st7586s_ymc240160.c ****   U8X8_C(0x037),	/* Start line 0 */
  61:..\u8g2\csrc/u8x8_d_st7586s_ymc240160.c ****   U8X8_A(0x000),
  62:..\u8g2\csrc/u8x8_d_st7586s_ymc240160.c ****   U8X8_END_TRANSFER(),  /* disable chip */
  63:..\u8g2\csrc/u8x8_d_st7586s_ymc240160.c ****   U8X8_END()           	/* end of sequence */
  64:..\u8g2\csrc/u8x8_d_st7586s_ymc240160.c **** };
  65:..\u8g2\csrc/u8x8_d_st7586s_ymc240160.c **** 
  66:..\u8g2\csrc/u8x8_d_st7586s_ymc240160.c **** static const uint8_t u8x8_d_st7586s_ymc240160_flip1_seq[] = {
  67:..\u8g2\csrc/u8x8_d_st7586s_ymc240160.c ****   U8X8_START_TRANSFER(),             	/* enable chip, delay is part of the transfer start */
  68:..\u8g2\csrc/u8x8_d_st7586s_ymc240160.c ****   U8X8_C(0x036),  /* Scan Direction Setting */
  69:..\u8g2\csrc/u8x8_d_st7586s_ymc240160.c ****   U8X8_A(0x000),  /* COM0 -> COM159 SEG0 -> SEG383 */
  70:..\u8g2\csrc/u8x8_d_st7586s_ymc240160.c ****   U8X8_C(0x037),  /* Start line 0 */
  71:..\u8g2\csrc/u8x8_d_st7586s_ymc240160.c ****   U8X8_A(0x000),
  72:..\u8g2\csrc/u8x8_d_st7586s_ymc240160.c ****   U8X8_END_TRANSFER(),  /* disable chip */
  73:..\u8g2\csrc/u8x8_d_st7586s_ymc240160.c ****   U8X8_END()            /* end of sequence */
  74:..\u8g2\csrc/u8x8_d_st7586s_ymc240160.c **** };
  75:..\u8g2\csrc/u8x8_d_st7586s_ymc240160.c **** 
  76:..\u8g2\csrc/u8x8_d_st7586s_ymc240160.c **** static const uint8_t u8x8_d_st7586s_ymc240160_init_seq[] = {
  77:..\u8g2\csrc/u8x8_d_st7586s_ymc240160.c ****   U8X8_START_TRANSFER(),/* enable chip */
  78:..\u8g2\csrc/u8x8_d_st7586s_ymc240160.c ****   U8X8_END_TRANSFER(),/* disable chip */
  79:..\u8g2\csrc/u8x8_d_st7586s_ymc240160.c ****  // U8G_ESC_RST(1), /* hardware reset */
  80:..\u8g2\csrc/u8x8_d_st7586s_ymc240160.c ****   U8X8_DLY(60),   /* Delay 60 ms */
  81:..\u8g2\csrc/u8x8_d_st7586s_ymc240160.c ****   U8X8_START_TRANSFER(),/* enable chip */
  82:..\u8g2\csrc/u8x8_d_st7586s_ymc240160.c **** 
  83:..\u8g2\csrc/u8x8_d_st7586s_ymc240160.c ****   U8X8_C(0x001), // Soft reset
  84:..\u8g2\csrc/u8x8_d_st7586s_ymc240160.c ****   U8X8_DLY(60), // Delay 120 ms
  85:..\u8g2\csrc/u8x8_d_st7586s_ymc240160.c **** 
  86:..\u8g2\csrc/u8x8_d_st7586s_ymc240160.c ****   U8X8_C(0x011), // Sleep Out
  87:..\u8g2\csrc/u8x8_d_st7586s_ymc240160.c ****   U8X8_C(0x028), // Display OFF
ARM GAS  C:\Users\brian\AppData\Local\Temp\ccsLIFJH.s 			page 3


  88:..\u8g2\csrc/u8x8_d_st7586s_ymc240160.c ****   U8X8_DLY(25), // Delay 50 ms
  89:..\u8g2\csrc/u8x8_d_st7586s_ymc240160.c **** 
  90:..\u8g2\csrc/u8x8_d_st7586s_ymc240160.c ****   U8X8_CAA(0x0C0,0x036,0x01),// Vop = 136h data sheet suggested 0x0145 but this caused streaks
  91:..\u8g2\csrc/u8x8_d_st7586s_ymc240160.c **** 
  92:..\u8g2\csrc/u8x8_d_st7586s_ymc240160.c ****   U8X8_CA(0x0C3,0x000), // BIAS = 1/14
  93:..\u8g2\csrc/u8x8_d_st7586s_ymc240160.c **** 
  94:..\u8g2\csrc/u8x8_d_st7586s_ymc240160.c ****   U8X8_CA(0x0C4,0x007), // Booster = x8
  95:..\u8g2\csrc/u8x8_d_st7586s_ymc240160.c **** 
  96:..\u8g2\csrc/u8x8_d_st7586s_ymc240160.c ****   U8X8_CA(0x0D0,0x01D), // Enable Analog Circuit
  97:..\u8g2\csrc/u8x8_d_st7586s_ymc240160.c **** 
  98:..\u8g2\csrc/u8x8_d_st7586s_ymc240160.c ****   U8X8_CA(0x0B3,0x000), // Set FOSC divider
  99:..\u8g2\csrc/u8x8_d_st7586s_ymc240160.c **** 
 100:..\u8g2\csrc/u8x8_d_st7586s_ymc240160.c ****   U8X8_CA(0x0B5,0x000), // N-Line = 0
 101:..\u8g2\csrc/u8x8_d_st7586s_ymc240160.c **** 
 102:..\u8g2\csrc/u8x8_d_st7586s_ymc240160.c ****   U8X8_C(0x039), // 0x39 Monochrome mode. 0x38 - gray Mode
 103:..\u8g2\csrc/u8x8_d_st7586s_ymc240160.c **** 
 104:..\u8g2\csrc/u8x8_d_st7586s_ymc240160.c ****   U8X8_C(0x03A), // Enable DDRAM Interface
 105:..\u8g2\csrc/u8x8_d_st7586s_ymc240160.c ****   U8X8_A(0x002), // monochrome and 4-level
 106:..\u8g2\csrc/u8x8_d_st7586s_ymc240160.c **** 
 107:..\u8g2\csrc/u8x8_d_st7586s_ymc240160.c ****   U8X8_C(0x036), // Scan Direction Setting
 108:..\u8g2\csrc/u8x8_d_st7586s_ymc240160.c ****   U8X8_A(0x080), // COM:C159->C0   SEG: SEG383->SEG0
 109:..\u8g2\csrc/u8x8_d_st7586s_ymc240160.c **** 
 110:..\u8g2\csrc/u8x8_d_st7586s_ymc240160.c ****   U8X8_C(0x0B1), // First output COM
 111:..\u8g2\csrc/u8x8_d_st7586s_ymc240160.c ****   U8X8_A(0x000), // 
 112:..\u8g2\csrc/u8x8_d_st7586s_ymc240160.c ****   
 113:..\u8g2\csrc/u8x8_d_st7586s_ymc240160.c ****   U8X8_C(0x0B0), // Duty Setting (num rows - 1)
 114:..\u8g2\csrc/u8x8_d_st7586s_ymc240160.c ****   U8X8_A(0x09F), 
 115:..\u8g2\csrc/u8x8_d_st7586s_ymc240160.c **** 
 116:..\u8g2\csrc/u8x8_d_st7586s_ymc240160.c ****   U8X8_C(0x020), // Display inversion off
 117:..\u8g2\csrc/u8x8_d_st7586s_ymc240160.c **** 
 118:..\u8g2\csrc/u8x8_d_st7586s_ymc240160.c ****   U8X8_C(0x02A), // Column Address Setting
 119:..\u8g2\csrc/u8x8_d_st7586s_ymc240160.c ****   U8X8_A(0x000), // COL0 -> COL127
 120:..\u8g2\csrc/u8x8_d_st7586s_ymc240160.c ****   U8X8_A(0x000), // 
 121:..\u8g2\csrc/u8x8_d_st7586s_ymc240160.c ****   U8X8_A(0x000), //
 122:..\u8g2\csrc/u8x8_d_st7586s_ymc240160.c ****   U8X8_A(0x04F), // 80*3=240 pixels
 123:..\u8g2\csrc/u8x8_d_st7586s_ymc240160.c **** 
 124:..\u8g2\csrc/u8x8_d_st7586s_ymc240160.c ****   U8X8_C(0x02B), // Row Address Setting
 125:..\u8g2\csrc/u8x8_d_st7586s_ymc240160.c ****   U8X8_A(0x000), // ROW0 -> ROW159
 126:..\u8g2\csrc/u8x8_d_st7586s_ymc240160.c ****   U8X8_A(0x000), //
 127:..\u8g2\csrc/u8x8_d_st7586s_ymc240160.c ****   U8X8_A(0x000), //
 128:..\u8g2\csrc/u8x8_d_st7586s_ymc240160.c ****   U8X8_A(0x09F), // 160 pixels
 129:..\u8g2\csrc/u8x8_d_st7586s_ymc240160.c **** 
 130:..\u8g2\csrc/u8x8_d_st7586s_ymc240160.c ****   U8X8_C(0x029), // Display ON
 131:..\u8g2\csrc/u8x8_d_st7586s_ymc240160.c ****   U8X8_END_TRANSFER(),/* disable chip */
 132:..\u8g2\csrc/u8x8_d_st7586s_ymc240160.c ****   U8X8_END()  /* end of sequence */
 133:..\u8g2\csrc/u8x8_d_st7586s_ymc240160.c **** };
 134:..\u8g2\csrc/u8x8_d_st7586s_ymc240160.c **** 
 135:..\u8g2\csrc/u8x8_d_st7586s_ymc240160.c **** static const u8x8_display_info_t u8x8_st7586s_ymc240160_display_info =
 136:..\u8g2\csrc/u8x8_d_st7586s_ymc240160.c **** {
 137:..\u8g2\csrc/u8x8_d_st7586s_ymc240160.c ****   /* chip_enable_level = */ 0,
 138:..\u8g2\csrc/u8x8_d_st7586s_ymc240160.c ****   /* chip_disable_level = */ 1,
 139:..\u8g2\csrc/u8x8_d_st7586s_ymc240160.c **** 
 140:..\u8g2\csrc/u8x8_d_st7586s_ymc240160.c ****   /* post_chip_enable_wait_ns = */ 5,
 141:..\u8g2\csrc/u8x8_d_st7586s_ymc240160.c ****   /* pre_chip_disable_wait_ns = */ 5,
 142:..\u8g2\csrc/u8x8_d_st7586s_ymc240160.c ****   /* reset_pulse_width_ms = */ 1,
 143:..\u8g2\csrc/u8x8_d_st7586s_ymc240160.c ****   /* post_reset_wait_ms = */ 6,
 144:..\u8g2\csrc/u8x8_d_st7586s_ymc240160.c ****   /* sda_setup_time_ns = */ 20,
ARM GAS  C:\Users\brian\AppData\Local\Temp\ccsLIFJH.s 			page 4


 145:..\u8g2\csrc/u8x8_d_st7586s_ymc240160.c ****   /* sck_pulse_width_ns = */  100,  /* datasheet ST7586S */
 146:..\u8g2\csrc/u8x8_d_st7586s_ymc240160.c ****   /* sck_clock_hz = */ 8000000UL, /* since Arduino 1.6.0, the SPI bus speed in Hz. Should be  10000
 147:..\u8g2\csrc/u8x8_d_st7586s_ymc240160.c ****   /* ST7586+Atmega128RFA1 works with 8MHz */
 148:..\u8g2\csrc/u8x8_d_st7586s_ymc240160.c ****   /* spi_mode = */ 3,   /* active high, rising edge */
 149:..\u8g2\csrc/u8x8_d_st7586s_ymc240160.c ****   /* i2c_bus_clock_100kHz = */ 4,
 150:..\u8g2\csrc/u8x8_d_st7586s_ymc240160.c ****   /* data_setup_time_ns = */ 20, /* datasheet suggests min 20 */
 151:..\u8g2\csrc/u8x8_d_st7586s_ymc240160.c ****   /* write_pulse_width_ns = */ 40,
 152:..\u8g2\csrc/u8x8_d_st7586s_ymc240160.c ****   /* tile_width = */ 30,
 153:..\u8g2\csrc/u8x8_d_st7586s_ymc240160.c ****   /* tile_height = */ 20,
 154:..\u8g2\csrc/u8x8_d_st7586s_ymc240160.c ****   /* default_x_offset = */ 0,  /* abused as flag to know if we are flipped */
 155:..\u8g2\csrc/u8x8_d_st7586s_ymc240160.c ****   /* flipmode_x_offset = */ 1, /* as pixel order different for normal/flipped  */
 156:..\u8g2\csrc/u8x8_d_st7586s_ymc240160.c ****   /* pixel_width = */ 240,
 157:..\u8g2\csrc/u8x8_d_st7586s_ymc240160.c ****   /* pixel_height = */ 160
 158:..\u8g2\csrc/u8x8_d_st7586s_ymc240160.c **** };
 159:..\u8g2\csrc/u8x8_d_st7586s_ymc240160.c **** 
 160:..\u8g2\csrc/u8x8_d_st7586s_ymc240160.c **** /*  takeover from https://github.com/olikraus/u8g2/issues/1183 */
 161:..\u8g2\csrc/u8x8_d_st7586s_ymc240160.c **** uint8_t u8x8_d_st7586s_ymc240160(u8x8_t *u8x8, uint8_t msg, uint8_t arg_int, void *arg_ptr) 
 162:..\u8g2\csrc/u8x8_d_st7586s_ymc240160.c **** {  
  28              		.loc 1 162 0
  29              		.cfi_startproc
  30              		@ args = 0, pretend = 0, frame = 8
  31              		@ frame_needed = 0, uses_anonymous_args = 0
  32              	.LVL0:
  33 0000 70B5     		push	{r4, r5, r6, lr}
  34              		.cfi_def_cfa_offset 16
  35              		.cfi_offset 4, -16
  36              		.cfi_offset 5, -12
  37              		.cfi_offset 6, -8
  38              		.cfi_offset 14, -4
  39 0002 82B0     		sub	sp, sp, #8
  40              		.cfi_def_cfa_offset 24
  41 0004 0646     		mov	r6, r0
  42 0006 1446     		mov	r4, r2
  43 0008 1D46     		mov	r5, r3
 163:..\u8g2\csrc/u8x8_d_st7586s_ymc240160.c ****   uint8_t c;
 164:..\u8g2\csrc/u8x8_d_st7586s_ymc240160.c ****   uint8_t *ptr;
 165:..\u8g2\csrc/u8x8_d_st7586s_ymc240160.c ****   uint8_t i, byte;
 166:..\u8g2\csrc/u8x8_d_st7586s_ymc240160.c ****   uint32_t input;
 167:..\u8g2\csrc/u8x8_d_st7586s_ymc240160.c ****   uint8_t output[8];
 168:..\u8g2\csrc/u8x8_d_st7586s_ymc240160.c **** //  uint8_t output[4];
 169:..\u8g2\csrc/u8x8_d_st7586s_ymc240160.c ****   switch (msg) {
  44              		.loc 1 169 0
  45 000a 0939     		subs	r1, r1, #9
  46              	.LVL1:
  47 000c 0629     		cmp	r1, #6
  48 000e 00F29A80 		bhi	.L19
  49 0012 DFE801F0 		tbb	[pc, r1]
  50              	.LVL2:
  51              	.L4:
  52 0016 62       		.byte	(.L3-.L4)/2
  53 0017 5A       		.byte	(.L5-.L4)/2
  54 0018 7A       		.byte	(.L6-.L4)/2
  55 0019 98       		.byte	(.L19-.L4)/2
  56 001a 67       		.byte	(.L7-.L4)/2
  57 001b 85       		.byte	(.L8-.L4)/2
  58 001c 04       		.byte	(.L9-.L4)/2
  59 001d 00       		.p2align 1
ARM GAS  C:\Users\brian\AppData\Local\Temp\ccsLIFJH.s 			page 5


  60              	.L9:
 170:..\u8g2\csrc/u8x8_d_st7586s_ymc240160.c ****     case U8X8_MSG_DISPLAY_DRAW_TILE:
 171:..\u8g2\csrc/u8x8_d_st7586s_ymc240160.c ****     u8x8_cad_StartTransfer(u8x8); // OK Start transfer
  61              		.loc 1 171 0
  62 001e FFF7FEFF 		bl	u8x8_cad_StartTransfer
  63              	.LVL3:
 172:..\u8g2\csrc/u8x8_d_st7586s_ymc240160.c ****     u8x8_cad_SendCmd(u8x8, 0x02B);  /* Row Address Setting */
  64              		.loc 1 172 0
  65 0022 2B21     		movs	r1, #43
  66 0024 3046     		mov	r0, r6
  67 0026 FFF7FEFF 		bl	u8x8_cad_SendCmd
  68              	.LVL4:
 173:..\u8g2\csrc/u8x8_d_st7586s_ymc240160.c ****     u8x8_cad_SendArg(u8x8, 0x000);
  69              		.loc 1 173 0
  70 002a 0021     		movs	r1, #0
  71 002c 3046     		mov	r0, r6
  72 002e FFF7FEFF 		bl	u8x8_cad_SendArg
  73              	.LVL5:
 174:..\u8g2\csrc/u8x8_d_st7586s_ymc240160.c ****     u8x8_cad_SendArg(u8x8, 0x008 * ((u8x8_tile_t *)arg_ptr)->y_pos);
  74              		.loc 1 174 0
  75 0032 A979     		ldrb	r1, [r5, #6]	@ zero_extendqisi2
  76 0034 C900     		lsls	r1, r1, #3
  77 0036 01F0F801 		and	r1, r1, #248
  78 003a 3046     		mov	r0, r6
  79 003c FFF7FEFF 		bl	u8x8_cad_SendArg
  80              	.LVL6:
 175:..\u8g2\csrc/u8x8_d_st7586s_ymc240160.c ****     u8x8_cad_SendArg(u8x8, 0x000);
  81              		.loc 1 175 0
  82 0040 0021     		movs	r1, #0
  83 0042 3046     		mov	r0, r6
  84 0044 FFF7FEFF 		bl	u8x8_cad_SendArg
  85              	.LVL7:
 176:..\u8g2\csrc/u8x8_d_st7586s_ymc240160.c **** //    u8x8_cad_SendArg(u8x8, 0x09F); // should set end row based on display dimensions
 177:..\u8g2\csrc/u8x8_d_st7586s_ymc240160.c ****     u8x8_cad_SendArg(u8x8, u8x8->display_info->pixel_height - 1);  /* should this be u8x8->display_
  86              		.loc 1 177 0
  87 0048 3368     		ldr	r3, [r6]
  88 004a D98A     		ldrh	r1, [r3, #22]
  89 004c 0139     		subs	r1, r1, #1
  90 004e C9B2     		uxtb	r1, r1
  91 0050 3046     		mov	r0, r6
  92 0052 FFF7FEFF 		bl	u8x8_cad_SendArg
  93              	.LVL8:
 178:..\u8g2\csrc/u8x8_d_st7586s_ymc240160.c ****     u8x8_cad_SendCmd(u8x8, 0x02C);  /* cmd write display data to ram */
  94              		.loc 1 178 0
  95 0056 2C21     		movs	r1, #44
  96 0058 3046     		mov	r0, r6
  97 005a FFF7FEFF 		bl	u8x8_cad_SendCmd
  98              	.LVL9:
 179:..\u8g2\csrc/u8x8_d_st7586s_ymc240160.c ****     c = ((u8x8_tile_t *) arg_ptr)->cnt; //
  99              		.loc 1 179 0
 100 005e 2C79     		ldrb	r4, [r5, #4]	@ zero_extendqisi2
 101              	.LVL10:
 180:..\u8g2\csrc/u8x8_d_st7586s_ymc240160.c ****     c *= 8;
 102              		.loc 1 180 0
 103 0060 E400     		lsls	r4, r4, #3
 104              	.LVL11:
 105 0062 E4B2     		uxtb	r4, r4
ARM GAS  C:\Users\brian\AppData\Local\Temp\ccsLIFJH.s 			page 6


 106              	.LVL12:
 181:..\u8g2\csrc/u8x8_d_st7586s_ymc240160.c ****     ptr = ((u8x8_tile_t *) arg_ptr)->tile_ptr;  //
 107              		.loc 1 181 0
 108 0064 2D68     		ldr	r5, [r5]
 109              	.LVL13:
 182:..\u8g2\csrc/u8x8_d_st7586s_ymc240160.c **** 
 183:..\u8g2\csrc/u8x8_d_st7586s_ymc240160.c ****     while (c > 0) 
 110              		.loc 1 183 0
 111 0066 29E0     		b	.L10
 112              	.L16:
 184:..\u8g2\csrc/u8x8_d_st7586s_ymc240160.c ****     {
 185:..\u8g2\csrc/u8x8_d_st7586s_ymc240160.c ****       input = (((uint32_t)ptr[0] << 16) | ((uint32_t)ptr[1] << 8) | (uint32_t)ptr[2]);
 113              		.loc 1 185 0
 114 0068 2A78     		ldrb	r2, [r5]	@ zero_extendqisi2
 115 006a 6B78     		ldrb	r3, [r5, #1]	@ zero_extendqisi2
 116 006c 1B02     		lsls	r3, r3, #8
 117 006e 43EA0242 		orr	r2, r3, r2, lsl #16
 118 0072 AB78     		ldrb	r3, [r5, #2]	@ zero_extendqisi2
 119 0074 1A43     		orrs	r2, r2, r3
 120              	.LVL14:
 186:..\u8g2\csrc/u8x8_d_st7586s_ymc240160.c ****       for (i=0; i<8; i++)
 121              		.loc 1 186 0
 122 0076 0023     		movs	r3, #0
 123 0078 16E0     		b	.L11
 124              	.LVL15:
 125              	.L15:
 187:..\u8g2\csrc/u8x8_d_st7586s_ymc240160.c ****       {
 188:..\u8g2\csrc/u8x8_d_st7586s_ymc240160.c ****         byte = 0;
 189:..\u8g2\csrc/u8x8_d_st7586s_ymc240160.c ****         if (input & 0x800000)          // if bit 23
 126              		.loc 1 189 0
 127 007a 12F4000F 		tst	r2, #8388608
 128 007e 01D1     		bne	.L20
 188:..\u8g2\csrc/u8x8_d_st7586s_ymc240160.c ****         if (input & 0x800000)          // if bit 23
 129              		.loc 1 188 0
 130 0080 0021     		movs	r1, #0
 131 0082 00E0     		b	.L12
 132              	.L20:
 190:..\u8g2\csrc/u8x8_d_st7586s_ymc240160.c ****             byte = byte | 0xC0;  //set pixel 1
 133              		.loc 1 190 0
 134 0084 C021     		movs	r1, #192
 135              	.L12:
 136              	.LVL16:
 191:..\u8g2\csrc/u8x8_d_st7586s_ymc240160.c ****         if (input & 0x400000)          // if bit 22
 137              		.loc 1 191 0
 138 0086 12F4800F 		tst	r2, #4194304
 139 008a 01D0     		beq	.L13
 192:..\u8g2\csrc/u8x8_d_st7586s_ymc240160.c ****             byte = byte | 0x18;  //set pixel 2
 140              		.loc 1 192 0
 141 008c 41F01801 		orr	r1, r1, #24
 142              	.LVL17:
 143              	.L13:
 193:..\u8g2\csrc/u8x8_d_st7586s_ymc240160.c ****         if (input & 0x200000)          // if bit 22
 144              		.loc 1 193 0
 145 0090 12F4001F 		tst	r2, #2097152
 146 0094 01D0     		beq	.L14
 194:..\u8g2\csrc/u8x8_d_st7586s_ymc240160.c ****             byte = byte | 0x3;  //set pixel 3
 147              		.loc 1 194 0
ARM GAS  C:\Users\brian\AppData\Local\Temp\ccsLIFJH.s 			page 7


 148 0096 41F00301 		orr	r1, r1, #3
 149              	.LVL18:
 150              	.L14:
 195:..\u8g2\csrc/u8x8_d_st7586s_ymc240160.c ****         output[i] = byte;
 151              		.loc 1 195 0 discriminator 2
 152 009a 02A8     		add	r0, sp, #8
 153 009c 1844     		add	r0, r0, r3
 154 009e 00F8081C 		strb	r1, [r0, #-8]
 196:..\u8g2\csrc/u8x8_d_st7586s_ymc240160.c ****         input <<= 3;
 155              		.loc 1 196 0 discriminator 2
 156 00a2 D200     		lsls	r2, r2, #3
 157              	.LVL19:
 186:..\u8g2\csrc/u8x8_d_st7586s_ymc240160.c ****       {
 158              		.loc 1 186 0 discriminator 2
 159 00a4 0133     		adds	r3, r3, #1
 160              	.LVL20:
 161 00a6 DBB2     		uxtb	r3, r3
 162              	.LVL21:
 163              	.L11:
 186:..\u8g2\csrc/u8x8_d_st7586s_ymc240160.c ****       {
 164              		.loc 1 186 0 is_stmt 0 discriminator 1
 165 00a8 072B     		cmp	r3, #7
 166 00aa E6D9     		bls	.L15
 197:..\u8g2\csrc/u8x8_d_st7586s_ymc240160.c ****       }
 198:..\u8g2\csrc/u8x8_d_st7586s_ymc240160.c ****       u8x8_cad_SendData(u8x8, 8, output);
 167              		.loc 1 198 0 is_stmt 1
 168 00ac 6A46     		mov	r2, sp
 169              	.LVL22:
 170 00ae 0821     		movs	r1, #8
 171 00b0 3046     		mov	r0, r6
 172 00b2 FFF7FEFF 		bl	u8x8_cad_SendData
 173              	.LVL23:
 199:..\u8g2\csrc/u8x8_d_st7586s_ymc240160.c ****       ptr += 3;
 174              		.loc 1 199 0
 175 00b6 0335     		adds	r5, r5, #3
 176              	.LVL24:
 200:..\u8g2\csrc/u8x8_d_st7586s_ymc240160.c ****       c -= 3;
 177              		.loc 1 200 0
 178 00b8 033C     		subs	r4, r4, #3
 179              	.LVL25:
 180 00ba E4B2     		uxtb	r4, r4
 181              	.LVL26:
 182              	.L10:
 183:..\u8g2\csrc/u8x8_d_st7586s_ymc240160.c ****     {
 183              		.loc 1 183 0
 184 00bc 002C     		cmp	r4, #0
 185 00be D3D1     		bne	.L16
 201:..\u8g2\csrc/u8x8_d_st7586s_ymc240160.c ****     }
 202:..\u8g2\csrc/u8x8_d_st7586s_ymc240160.c ****     u8x8_cad_EndTransfer(u8x8); 
 186              		.loc 1 202 0
 187 00c0 3046     		mov	r0, r6
 188 00c2 FFF7FEFF 		bl	u8x8_cad_EndTransfer
 189              	.LVL27:
 203:..\u8g2\csrc/u8x8_d_st7586s_ymc240160.c ****     break;
 204:..\u8g2\csrc/u8x8_d_st7586s_ymc240160.c ****   case U8X8_MSG_DISPLAY_INIT:
 205:..\u8g2\csrc/u8x8_d_st7586s_ymc240160.c ****     u8x8_d_helper_display_init(u8x8);
 206:..\u8g2\csrc/u8x8_d_st7586s_ymc240160.c ****     u8x8_cad_SendSequence(u8x8, u8x8_d_st7586s_ymc240160_init_seq);
ARM GAS  C:\Users\brian\AppData\Local\Temp\ccsLIFJH.s 			page 8


 207:..\u8g2\csrc/u8x8_d_st7586s_ymc240160.c ****     break;
 208:..\u8g2\csrc/u8x8_d_st7586s_ymc240160.c ****   case U8X8_MSG_DISPLAY_SETUP_MEMORY:
 209:..\u8g2\csrc/u8x8_d_st7586s_ymc240160.c ****     u8x8_d_helper_display_setup_memory(u8x8, &u8x8_st7586s_ymc240160_display_info);
 210:..\u8g2\csrc/u8x8_d_st7586s_ymc240160.c ****     break;
 211:..\u8g2\csrc/u8x8_d_st7586s_ymc240160.c ****   case U8X8_MSG_DISPLAY_SET_FLIP_MODE:
 212:..\u8g2\csrc/u8x8_d_st7586s_ymc240160.c ****   	if ( arg_int == 0 )
 213:..\u8g2\csrc/u8x8_d_st7586s_ymc240160.c ****     {
 214:..\u8g2\csrc/u8x8_d_st7586s_ymc240160.c ****        u8x8_cad_SendSequence(u8x8, u8x8_d_st7586s_ymc240160_flip0_seq);
 215:..\u8g2\csrc/u8x8_d_st7586s_ymc240160.c ****        u8x8->x_offset = u8x8->display_info->default_x_offset;
 216:..\u8g2\csrc/u8x8_d_st7586s_ymc240160.c ****     }
 217:..\u8g2\csrc/u8x8_d_st7586s_ymc240160.c ****     else
 218:..\u8g2\csrc/u8x8_d_st7586s_ymc240160.c ****     {
 219:..\u8g2\csrc/u8x8_d_st7586s_ymc240160.c ****       u8x8_cad_SendSequence(u8x8, u8x8_d_st7586s_ymc240160_flip1_seq);
 220:..\u8g2\csrc/u8x8_d_st7586s_ymc240160.c ****       u8x8->x_offset = u8x8->display_info->flipmode_x_offset;
 221:..\u8g2\csrc/u8x8_d_st7586s_ymc240160.c ****     }	
 222:..\u8g2\csrc/u8x8_d_st7586s_ymc240160.c ****     break;
 223:..\u8g2\csrc/u8x8_d_st7586s_ymc240160.c ****   case U8X8_MSG_DISPLAY_SET_POWER_SAVE:
 224:..\u8g2\csrc/u8x8_d_st7586s_ymc240160.c ****     if (arg_int == 0)
 225:..\u8g2\csrc/u8x8_d_st7586s_ymc240160.c ****       u8x8_cad_SendSequence(u8x8, u8x8_d_st7586s_sleep_off);
 226:..\u8g2\csrc/u8x8_d_st7586s_ymc240160.c ****     else
 227:..\u8g2\csrc/u8x8_d_st7586s_ymc240160.c ****       u8x8_cad_SendSequence(u8x8, u8x8_d_st7586s_sleep_on);
 228:..\u8g2\csrc/u8x8_d_st7586s_ymc240160.c ****     break;
 229:..\u8g2\csrc/u8x8_d_st7586s_ymc240160.c **** #ifdef U8X8_WITH_SET_CONTRAST
 230:..\u8g2\csrc/u8x8_d_st7586s_ymc240160.c ****   case U8X8_MSG_DISPLAY_SET_CONTRAST:
 231:..\u8g2\csrc/u8x8_d_st7586s_ymc240160.c ****     u8x8_cad_StartTransfer(u8x8);
 232:..\u8g2\csrc/u8x8_d_st7586s_ymc240160.c ****     u8x8_cad_SendCmd(u8x8, 0x0C0);
 233:..\u8g2\csrc/u8x8_d_st7586s_ymc240160.c ****     u8x8_cad_SendArg(u8x8, arg_int);
 234:..\u8g2\csrc/u8x8_d_st7586s_ymc240160.c ****     u8x8_cad_SendArg(u8x8, 1);
 235:..\u8g2\csrc/u8x8_d_st7586s_ymc240160.c ****     u8x8_cad_EndTransfer(u8x8);
 236:..\u8g2\csrc/u8x8_d_st7586s_ymc240160.c ****     break;
 237:..\u8g2\csrc/u8x8_d_st7586s_ymc240160.c **** #endif
 238:..\u8g2\csrc/u8x8_d_st7586s_ymc240160.c ****   default:
 239:..\u8g2\csrc/u8x8_d_st7586s_ymc240160.c ****     return 0;
 240:..\u8g2\csrc/u8x8_d_st7586s_ymc240160.c ****   }
 241:..\u8g2\csrc/u8x8_d_st7586s_ymc240160.c ****   return 1;
 190              		.loc 1 241 0
 191 00c6 0120     		movs	r0, #1
 203:..\u8g2\csrc/u8x8_d_st7586s_ymc240160.c ****     break;
 192              		.loc 1 203 0
 193 00c8 3EE0     		b	.L2
 194              	.LVL28:
 195              	.L5:
 205:..\u8g2\csrc/u8x8_d_st7586s_ymc240160.c ****     u8x8_cad_SendSequence(u8x8, u8x8_d_st7586s_ymc240160_init_seq);
 196              		.loc 1 205 0
 197 00ca FFF7FEFF 		bl	u8x8_d_helper_display_init
 198              	.LVL29:
 206:..\u8g2\csrc/u8x8_d_st7586s_ymc240160.c ****     break;
 199              		.loc 1 206 0
 200 00ce 1F49     		ldr	r1, .L22
 201 00d0 3046     		mov	r0, r6
 202 00d2 FFF7FEFF 		bl	u8x8_cad_SendSequence
 203              	.LVL30:
 204              		.loc 1 241 0
 205 00d6 0120     		movs	r0, #1
 207:..\u8g2\csrc/u8x8_d_st7586s_ymc240160.c ****   case U8X8_MSG_DISPLAY_SETUP_MEMORY:
 206              		.loc 1 207 0
 207 00d8 36E0     		b	.L2
ARM GAS  C:\Users\brian\AppData\Local\Temp\ccsLIFJH.s 			page 9


 208              	.LVL31:
 209              	.L3:
 209:..\u8g2\csrc/u8x8_d_st7586s_ymc240160.c ****     break;
 210              		.loc 1 209 0
 211 00da 1D49     		ldr	r1, .L22+4
 212 00dc FFF7FEFF 		bl	u8x8_d_helper_display_setup_memory
 213              	.LVL32:
 214              		.loc 1 241 0
 215 00e0 0120     		movs	r0, #1
 210:..\u8g2\csrc/u8x8_d_st7586s_ymc240160.c ****   case U8X8_MSG_DISPLAY_SET_FLIP_MODE:
 216              		.loc 1 210 0
 217 00e2 31E0     		b	.L2
 218              	.LVL33:
 219              	.L7:
 212:..\u8g2\csrc/u8x8_d_st7586s_ymc240160.c ****     {
 220              		.loc 1 212 0
 221 00e4 42B9     		cbnz	r2, .L17
 214:..\u8g2\csrc/u8x8_d_st7586s_ymc240160.c ****        u8x8->x_offset = u8x8->display_info->default_x_offset;
 222              		.loc 1 214 0
 223 00e6 1B49     		ldr	r1, .L22+8
 224 00e8 FFF7FEFF 		bl	u8x8_cad_SendSequence
 225              	.LVL34:
 215:..\u8g2\csrc/u8x8_d_st7586s_ymc240160.c ****     }
 226              		.loc 1 215 0
 227 00ec 3368     		ldr	r3, [r6]
 228 00ee 9B7C     		ldrb	r3, [r3, #18]	@ zero_extendqisi2
 229 00f0 86F82230 		strb	r3, [r6, #34]
 230              		.loc 1 241 0
 231 00f4 0120     		movs	r0, #1
 232 00f6 27E0     		b	.L2
 233              	.LVL35:
 234              	.L17:
 219:..\u8g2\csrc/u8x8_d_st7586s_ymc240160.c ****       u8x8->x_offset = u8x8->display_info->flipmode_x_offset;
 235              		.loc 1 219 0
 236 00f8 1749     		ldr	r1, .L22+12
 237 00fa FFF7FEFF 		bl	u8x8_cad_SendSequence
 238              	.LVL36:
 220:..\u8g2\csrc/u8x8_d_st7586s_ymc240160.c ****     }	
 239              		.loc 1 220 0
 240 00fe 3368     		ldr	r3, [r6]
 241 0100 DB7C     		ldrb	r3, [r3, #19]	@ zero_extendqisi2
 242 0102 86F82230 		strb	r3, [r6, #34]
 243              		.loc 1 241 0
 244 0106 0120     		movs	r0, #1
 245 0108 1EE0     		b	.L2
 246              	.LVL37:
 247              	.L6:
 224:..\u8g2\csrc/u8x8_d_st7586s_ymc240160.c ****       u8x8_cad_SendSequence(u8x8, u8x8_d_st7586s_sleep_off);
 248              		.loc 1 224 0
 249 010a 22B9     		cbnz	r2, .L18
 225:..\u8g2\csrc/u8x8_d_st7586s_ymc240160.c ****     else
 250              		.loc 1 225 0
 251 010c 1349     		ldr	r1, .L22+16
 252 010e FFF7FEFF 		bl	u8x8_cad_SendSequence
 253              	.LVL38:
 254              		.loc 1 241 0
 255 0112 0120     		movs	r0, #1
ARM GAS  C:\Users\brian\AppData\Local\Temp\ccsLIFJH.s 			page 10


 256 0114 18E0     		b	.L2
 257              	.LVL39:
 258              	.L18:
 227:..\u8g2\csrc/u8x8_d_st7586s_ymc240160.c ****     break;
 259              		.loc 1 227 0
 260 0116 1249     		ldr	r1, .L22+20
 261 0118 FFF7FEFF 		bl	u8x8_cad_SendSequence
 262              	.LVL40:
 263              		.loc 1 241 0
 264 011c 0120     		movs	r0, #1
 265 011e 13E0     		b	.L2
 266              	.LVL41:
 267              	.L8:
 231:..\u8g2\csrc/u8x8_d_st7586s_ymc240160.c ****     u8x8_cad_SendCmd(u8x8, 0x0C0);
 268              		.loc 1 231 0
 269 0120 FFF7FEFF 		bl	u8x8_cad_StartTransfer
 270              	.LVL42:
 232:..\u8g2\csrc/u8x8_d_st7586s_ymc240160.c ****     u8x8_cad_SendArg(u8x8, arg_int);
 271              		.loc 1 232 0
 272 0124 C021     		movs	r1, #192
 273 0126 3046     		mov	r0, r6
 274 0128 FFF7FEFF 		bl	u8x8_cad_SendCmd
 275              	.LVL43:
 233:..\u8g2\csrc/u8x8_d_st7586s_ymc240160.c ****     u8x8_cad_SendArg(u8x8, 1);
 276              		.loc 1 233 0
 277 012c 2146     		mov	r1, r4
 278 012e 3046     		mov	r0, r6
 279 0130 FFF7FEFF 		bl	u8x8_cad_SendArg
 280              	.LVL44:
 234:..\u8g2\csrc/u8x8_d_st7586s_ymc240160.c ****     u8x8_cad_EndTransfer(u8x8);
 281              		.loc 1 234 0
 282 0134 0121     		movs	r1, #1
 283 0136 3046     		mov	r0, r6
 284 0138 FFF7FEFF 		bl	u8x8_cad_SendArg
 285              	.LVL45:
 235:..\u8g2\csrc/u8x8_d_st7586s_ymc240160.c ****     break;
 286              		.loc 1 235 0
 287 013c 3046     		mov	r0, r6
 288 013e FFF7FEFF 		bl	u8x8_cad_EndTransfer
 289              	.LVL46:
 290              		.loc 1 241 0
 291 0142 0120     		movs	r0, #1
 236:..\u8g2\csrc/u8x8_d_st7586s_ymc240160.c **** #endif
 292              		.loc 1 236 0
 293 0144 00E0     		b	.L2
 294              	.LVL47:
 295              	.L19:
 239:..\u8g2\csrc/u8x8_d_st7586s_ymc240160.c ****   }
 296              		.loc 1 239 0
 297 0146 0020     		movs	r0, #0
 298              	.LVL48:
 299              	.L2:
 242:..\u8g2\csrc/u8x8_d_st7586s_ymc240160.c **** }
 300              		.loc 1 242 0
 301 0148 02B0     		add	sp, sp, #8
 302              		.cfi_def_cfa_offset 16
 303              		@ sp needed
ARM GAS  C:\Users\brian\AppData\Local\Temp\ccsLIFJH.s 			page 11


 304 014a 70BD     		pop	{r4, r5, r6, pc}
 305              	.LVL49:
 306              	.L23:
 307              		.align	2
 308              	.L22:
 309 014c 00000000 		.word	.LANCHOR0
 310 0150 58000000 		.word	.LANCHOR0+88
 311 0154 70000000 		.word	.LANCHOR0+112
 312 0158 7C000000 		.word	.LANCHOR0+124
 313 015c 88000000 		.word	.LANCHOR0+136
 314 0160 90000000 		.word	.LANCHOR0+144
 315              		.cfi_endproc
 316              	.LFE0:
 317              		.size	u8x8_d_st7586s_ymc240160, .-u8x8_d_st7586s_ymc240160
 318              		.section	.rodata
 319              		.align	2
 320              		.set	.LANCHOR0,. + 0
 321              		.type	u8x8_d_st7586s_ymc240160_init_seq, %object
 322              		.size	u8x8_d_st7586s_ymc240160_init_seq, 85
 323              	u8x8_d_st7586s_ymc240160_init_seq:
 324 0000 18       		.byte	24
 325 0001 19       		.byte	25
 326 0002 FE       		.byte	-2
 327 0003 3C       		.byte	60
 328 0004 18       		.byte	24
 329 0005 15       		.byte	21
 330 0006 01       		.byte	1
 331 0007 FE       		.byte	-2
 332 0008 3C       		.byte	60
 333 0009 15       		.byte	21
 334 000a 11       		.byte	17
 335 000b 15       		.byte	21
 336 000c 28       		.byte	40
 337 000d FE       		.byte	-2
 338 000e 19       		.byte	25
 339 000f 15       		.byte	21
 340 0010 C0       		.byte	-64
 341 0011 16       		.byte	22
 342 0012 36       		.byte	54
 343 0013 16       		.byte	22
 344 0014 01       		.byte	1
 345 0015 15       		.byte	21
 346 0016 C3       		.byte	-61
 347 0017 16       		.byte	22
 348 0018 00       		.byte	0
 349 0019 15       		.byte	21
 350 001a C4       		.byte	-60
 351 001b 16       		.byte	22
 352 001c 07       		.byte	7
 353 001d 15       		.byte	21
 354 001e D0       		.byte	-48
 355 001f 16       		.byte	22
 356 0020 1D       		.byte	29
 357 0021 15       		.byte	21
 358 0022 B3       		.byte	-77
 359 0023 16       		.byte	22
 360 0024 00       		.byte	0
ARM GAS  C:\Users\brian\AppData\Local\Temp\ccsLIFJH.s 			page 12


 361 0025 15       		.byte	21
 362 0026 B5       		.byte	-75
 363 0027 16       		.byte	22
 364 0028 00       		.byte	0
 365 0029 15       		.byte	21
 366 002a 39       		.byte	57
 367 002b 15       		.byte	21
 368 002c 3A       		.byte	58
 369 002d 16       		.byte	22
 370 002e 02       		.byte	2
 371 002f 15       		.byte	21
 372 0030 36       		.byte	54
 373 0031 16       		.byte	22
 374 0032 80       		.byte	-128
 375 0033 15       		.byte	21
 376 0034 B1       		.byte	-79
 377 0035 16       		.byte	22
 378 0036 00       		.byte	0
 379 0037 15       		.byte	21
 380 0038 B0       		.byte	-80
 381 0039 16       		.byte	22
 382 003a 9F       		.byte	-97
 383 003b 15       		.byte	21
 384 003c 20       		.byte	32
 385 003d 15       		.byte	21
 386 003e 2A       		.byte	42
 387 003f 16       		.byte	22
 388 0040 00       		.byte	0
 389 0041 16       		.byte	22
 390 0042 00       		.byte	0
 391 0043 16       		.byte	22
 392 0044 00       		.byte	0
 393 0045 16       		.byte	22
 394 0046 4F       		.byte	79
 395 0047 15       		.byte	21
 396 0048 2B       		.byte	43
 397 0049 16       		.byte	22
 398 004a 00       		.byte	0
 399 004b 16       		.byte	22
 400 004c 00       		.byte	0
 401 004d 16       		.byte	22
 402 004e 00       		.byte	0
 403 004f 16       		.byte	22
 404 0050 9F       		.byte	-97
 405 0051 15       		.byte	21
 406 0052 29       		.byte	41
 407 0053 19       		.byte	25
 408 0054 FF       		.byte	-1
 409 0055 000000   		.space	3
 410              		.type	u8x8_st7586s_ymc240160_display_info, %object
 411              		.size	u8x8_st7586s_ymc240160_display_info, 24
 412              	u8x8_st7586s_ymc240160_display_info:
 413 0058 00       		.byte	0
 414 0059 01       		.byte	1
 415 005a 05       		.byte	5
 416 005b 05       		.byte	5
 417 005c 01       		.byte	1
ARM GAS  C:\Users\brian\AppData\Local\Temp\ccsLIFJH.s 			page 13


 418 005d 06       		.byte	6
 419 005e 14       		.byte	20
 420 005f 64       		.byte	100
 421 0060 00127A00 		.word	8000000
 422 0064 03       		.byte	3
 423 0065 04       		.byte	4
 424 0066 14       		.byte	20
 425 0067 28       		.byte	40
 426 0068 1E       		.byte	30
 427 0069 14       		.byte	20
 428 006a 00       		.byte	0
 429 006b 01       		.byte	1
 430 006c F000     		.short	240
 431 006e A000     		.short	160
 432              		.type	u8x8_d_st7586s_ymc240160_flip0_seq, %object
 433              		.size	u8x8_d_st7586s_ymc240160_flip0_seq, 11
 434              	u8x8_d_st7586s_ymc240160_flip0_seq:
 435 0070 18       		.byte	24
 436 0071 15       		.byte	21
 437 0072 36       		.byte	54
 438 0073 16       		.byte	22
 439 0074 80       		.byte	-128
 440 0075 15       		.byte	21
 441 0076 37       		.byte	55
 442 0077 16       		.byte	22
 443 0078 00       		.byte	0
 444 0079 19       		.byte	25
 445 007a FF       		.byte	-1
 446 007b 00       		.space	1
 447              		.type	u8x8_d_st7586s_ymc240160_flip1_seq, %object
 448              		.size	u8x8_d_st7586s_ymc240160_flip1_seq, 11
 449              	u8x8_d_st7586s_ymc240160_flip1_seq:
 450 007c 18       		.byte	24
 451 007d 15       		.byte	21
 452 007e 36       		.byte	54
 453 007f 16       		.byte	22
 454 0080 00       		.byte	0
 455 0081 15       		.byte	21
 456 0082 37       		.byte	55
 457 0083 16       		.byte	22
 458 0084 00       		.byte	0
 459 0085 19       		.byte	25
 460 0086 FF       		.byte	-1
 461 0087 00       		.space	1
 462              		.type	u8x8_d_st7586s_sleep_off, %object
 463              		.size	u8x8_d_st7586s_sleep_off, 7
 464              	u8x8_d_st7586s_sleep_off:
 465 0088 18       		.byte	24
 466 0089 15       		.byte	21
 467 008a 11       		.byte	17
 468 008b FE       		.byte	-2
 469 008c 32       		.byte	50
 470 008d 19       		.byte	25
 471 008e FF       		.byte	-1
 472 008f 00       		.space	1
 473              		.type	u8x8_d_st7586s_sleep_on, %object
 474              		.size	u8x8_d_st7586s_sleep_on, 5
ARM GAS  C:\Users\brian\AppData\Local\Temp\ccsLIFJH.s 			page 14


 475              	u8x8_d_st7586s_sleep_on:
 476 0090 18       		.byte	24
 477 0091 15       		.byte	21
 478 0092 10       		.byte	16
 479 0093 19       		.byte	25
 480 0094 FF       		.byte	-1
 481              		.text
 482              	.Letext0:
 483              		.file 2 "c:\\program files (x86)\\cypress\\psoc creator\\4.4\\psoc creator\\import\\gnu\\arm\\5.4.
 484              		.file 3 "c:\\program files (x86)\\cypress\\psoc creator\\4.4\\psoc creator\\import\\gnu\\arm\\5.4.
 485              		.file 4 "..\\u8g2\\csrc\\u8x8.h"