ARM GAS  C:\Users\brian\AppData\Local\Temp\cckfkOf3.s 			page 1


   1              		.syntax unified
   2              		.cpu cortex-m3
   3              		.fpu softvfp
   4              		.eabi_attribute 20, 1
   5              		.eabi_attribute 21, 1
   6              		.eabi_attribute 23, 3
   7              		.eabi_attribute 24, 1
   8              		.eabi_attribute 25, 1
   9              		.eabi_attribute 26, 1
  10              		.eabi_attribute 30, 1
  11              		.eabi_attribute 34, 1
  12              		.eabi_attribute 18, 4
  13              		.thumb
  14              		.syntax unified
  15              		.file	"u8x8_d_st75256.c"
  16              		.text
  17              	.Ltext0:
  18              		.cfi_sections	.debug_frame
  19              		.section	.text.u8x8_d_st75256_256x128_generic,"ax",%progbits
  20              		.align	2
  21              		.thumb
  22              		.thumb_func
  23              		.type	u8x8_d_st75256_256x128_generic, %function
  24              	u8x8_d_st75256_256x128_generic:
  25              	.LFB0:
  26              		.file 1 "..\\u8g2\\csrc\\u8x8_d_st75256.c"
   1:..\u8g2\csrc/u8x8_d_st75256.c **** /*
   2:..\u8g2\csrc/u8x8_d_st75256.c **** 
   3:..\u8g2\csrc/u8x8_d_st75256.c ****   u8x8_d_st75256.c
   4:..\u8g2\csrc/u8x8_d_st75256.c **** 
   5:..\u8g2\csrc/u8x8_d_st75256.c ****   Universal 8bit Graphics Library (https://github.com/olikraus/u8g2/)
   6:..\u8g2\csrc/u8x8_d_st75256.c **** 
   7:..\u8g2\csrc/u8x8_d_st75256.c ****   Copyright (c) 2017, olikraus@gmail.com
   8:..\u8g2\csrc/u8x8_d_st75256.c ****   All rights reserved.
   9:..\u8g2\csrc/u8x8_d_st75256.c **** 
  10:..\u8g2\csrc/u8x8_d_st75256.c ****   Redistribution and use in source and binary forms, with or without modification, 
  11:..\u8g2\csrc/u8x8_d_st75256.c ****   are permitted provided that the following conditions are met:
  12:..\u8g2\csrc/u8x8_d_st75256.c **** 
  13:..\u8g2\csrc/u8x8_d_st75256.c ****   * Redistributions of source code must retain the above copyright notice, this list 
  14:..\u8g2\csrc/u8x8_d_st75256.c ****     of conditions and the following disclaimer.
  15:..\u8g2\csrc/u8x8_d_st75256.c ****     
  16:..\u8g2\csrc/u8x8_d_st75256.c ****   * Redistributions in binary form must reproduce the above copyright notice, this 
  17:..\u8g2\csrc/u8x8_d_st75256.c ****     list of conditions and the following disclaimer in the documentation and/or other 
  18:..\u8g2\csrc/u8x8_d_st75256.c ****     materials provided with the distribution.
  19:..\u8g2\csrc/u8x8_d_st75256.c **** 
  20:..\u8g2\csrc/u8x8_d_st75256.c ****   THIS SOFTWARE IS PROVIDED BY THE COPYRIGHT HOLDERS AND 
  21:..\u8g2\csrc/u8x8_d_st75256.c ****   CONTRIBUTORS "AS IS" AND ANY EXPRESS OR IMPLIED WARRANTIES, 
  22:..\u8g2\csrc/u8x8_d_st75256.c ****   INCLUDING, BUT NOT LIMITED TO, THE IMPLIED WARRANTIES OF 
  23:..\u8g2\csrc/u8x8_d_st75256.c ****   MERCHANTABILITY AND FITNESS FOR A PARTICULAR PURPOSE ARE 
  24:..\u8g2\csrc/u8x8_d_st75256.c ****   DISCLAIMED. IN NO EVENT SHALL THE COPYRIGHT HOLDER OR 
  25:..\u8g2\csrc/u8x8_d_st75256.c ****   CONTRIBUTORS BE LIABLE FOR ANY DIRECT, INDIRECT, INCIDENTAL, 
  26:..\u8g2\csrc/u8x8_d_st75256.c ****   SPECIAL, EXEMPLARY, OR CONSEQUENTIAL DAMAGES (INCLUDING, BUT 
  27:..\u8g2\csrc/u8x8_d_st75256.c ****   NOT LIMITED TO, PROCUREMENT OF SUBSTITUTE GOODS OR SERVICES; 
  28:..\u8g2\csrc/u8x8_d_st75256.c ****   LOSS OF USE, DATA, OR PROFITS; OR BUSINESS INTERRUPTION) HOWEVER 
  29:..\u8g2\csrc/u8x8_d_st75256.c ****   CAUSED AND ON ANY THEORY OF LIABILITY, WHETHER IN CONTRACT, 
  30:..\u8g2\csrc/u8x8_d_st75256.c ****   STRICT LIABILITY, OR TORT (INCLUDING NEGLIGENCE OR OTHERWISE) 
  31:..\u8g2\csrc/u8x8_d_st75256.c ****   ARISING IN ANY WAY OUT OF THE USE OF THIS SOFTWARE, EVEN IF 
ARM GAS  C:\Users\brian\AppData\Local\Temp\cckfkOf3.s 			page 2


  32:..\u8g2\csrc/u8x8_d_st75256.c ****   ADVISED OF THE POSSIBILITY OF SUCH DAMAGE.  
  33:..\u8g2\csrc/u8x8_d_st75256.c **** 
  34:..\u8g2\csrc/u8x8_d_st75256.c ****   0x030	ext 00
  35:..\u8g2\csrc/u8x8_d_st75256.c ****   0x031	ext 01
  36:..\u8g2\csrc/u8x8_d_st75256.c ****   0x038	ext 10
  37:..\u8g2\csrc/u8x8_d_st75256.c ****   0x039	ext 11
  38:..\u8g2\csrc/u8x8_d_st75256.c ****   
  39:..\u8g2\csrc/u8x8_d_st75256.c ****   cad 011
  40:..\u8g2\csrc/u8x8_d_st75256.c ****   
  41:..\u8g2\csrc/u8x8_d_st75256.c ****   
  42:..\u8g2\csrc/u8x8_d_st75256.c ****   code examples:
  43:..\u8g2\csrc/u8x8_d_st75256.c ****   http://www.it610.com/article/2601023.htm
  44:..\u8g2\csrc/u8x8_d_st75256.c ****   
  45:..\u8g2\csrc/u8x8_d_st75256.c ****   normal mode:
  46:..\u8g2\csrc/u8x8_d_st75256.c **** 	0x00c	bit format
  47:..\u8g2\csrc/u8x8_d_st75256.c ****   U8X8_CA( 0xbc, 0x00 ),	data scan dir 
  48:..\u8g2\csrc/u8x8_d_st75256.c ****   U8X8_A( 0xa6 ),				
  49:..\u8g2\csrc/u8x8_d_st75256.c ****   y: 0 offset
  50:..\u8g2\csrc/u8x8_d_st75256.c ****   
  51:..\u8g2\csrc/u8x8_d_st75256.c ****   flip mode:
  52:..\u8g2\csrc/u8x8_d_st75256.c **** 	0x008	bit format
  53:..\u8g2\csrc/u8x8_d_st75256.c ****   U8X8_CA( 0xbc, 0x03 ),	data scan dir 
  54:..\u8g2\csrc/u8x8_d_st75256.c ****   U8X8_A( 0xa6 ),				
  55:..\u8g2\csrc/u8x8_d_st75256.c ****   y: 5 offset
  56:..\u8g2\csrc/u8x8_d_st75256.c **** 	
  57:..\u8g2\csrc/u8x8_d_st75256.c ****   
  58:..\u8g2\csrc/u8x8_d_st75256.c **** */
  59:..\u8g2\csrc/u8x8_d_st75256.c **** 
  60:..\u8g2\csrc/u8x8_d_st75256.c **** 
  61:..\u8g2\csrc/u8x8_d_st75256.c **** #include "u8x8.h"
  62:..\u8g2\csrc/u8x8_d_st75256.c **** 
  63:..\u8g2\csrc/u8x8_d_st75256.c **** 
  64:..\u8g2\csrc/u8x8_d_st75256.c **** /* not a real power down for the st75256... just a display off */
  65:..\u8g2\csrc/u8x8_d_st75256.c **** static const uint8_t u8x8_d_st75256_256x128_powersave0_seq[] = {
  66:..\u8g2\csrc/u8x8_d_st75256.c ****   U8X8_START_TRANSFER(),             	/* enable chip, delay is part of the transfer start */
  67:..\u8g2\csrc/u8x8_d_st75256.c ****   U8X8_C( 0x030 ),				/* select 00 commands */  
  68:..\u8g2\csrc/u8x8_d_st75256.c ****   U8X8_C( 0x94 ),				/* sleep out */
  69:..\u8g2\csrc/u8x8_d_st75256.c ****   U8X8_DLY(10),
  70:..\u8g2\csrc/u8x8_d_st75256.c ****   U8X8_C( 0xaf ),				/* display on */
  71:..\u8g2\csrc/u8x8_d_st75256.c ****   U8X8_END_TRANSFER(),             	/* disable chip */
  72:..\u8g2\csrc/u8x8_d_st75256.c ****   U8X8_END()             			/* end of sequence */
  73:..\u8g2\csrc/u8x8_d_st75256.c **** };
  74:..\u8g2\csrc/u8x8_d_st75256.c **** 
  75:..\u8g2\csrc/u8x8_d_st75256.c **** static const uint8_t u8x8_d_st75256_256x128_powersave1_seq[] = {
  76:..\u8g2\csrc/u8x8_d_st75256.c ****   U8X8_START_TRANSFER(),             	/* enable chip, delay is part of the transfer start */
  77:..\u8g2\csrc/u8x8_d_st75256.c ****   U8X8_C( 0x030 ),				/* select 00 commands */
  78:..\u8g2\csrc/u8x8_d_st75256.c ****   U8X8_C( 0xae ),				/* display off */
  79:..\u8g2\csrc/u8x8_d_st75256.c ****   U8X8_C( 0x95 ),				/* sleep in */
  80:..\u8g2\csrc/u8x8_d_st75256.c ****   U8X8_END_TRANSFER(),             	/* disable chip */
  81:..\u8g2\csrc/u8x8_d_st75256.c ****   U8X8_END()             			/* end of sequence */
  82:..\u8g2\csrc/u8x8_d_st75256.c **** };
  83:..\u8g2\csrc/u8x8_d_st75256.c **** 
  84:..\u8g2\csrc/u8x8_d_st75256.c **** static const uint8_t u8x8_d_st75256_jlx256128_flip0_seq[] = {
  85:..\u8g2\csrc/u8x8_d_st75256.c ****   U8X8_START_TRANSFER(),             	/* enable chip, delay is part of the transfer start */
  86:..\u8g2\csrc/u8x8_d_st75256.c ****   U8X8_C( 0x030 ),				/* select 00 commands */
  87:..\u8g2\csrc/u8x8_d_st75256.c ****   U8X8_CA( 0xbc, 0x00 ),			/* data scan dir */
  88:..\u8g2\csrc/u8x8_d_st75256.c ****   U8X8_A( 0xa6 ),				/* ??? */
ARM GAS  C:\Users\brian\AppData\Local\Temp\cckfkOf3.s 			page 3


  89:..\u8g2\csrc/u8x8_d_st75256.c **** 
  90:..\u8g2\csrc/u8x8_d_st75256.c ****   //U8X8_C( 0x030 ),				/* select 00 commands */
  91:..\u8g2\csrc/u8x8_d_st75256.c ****   U8X8_C( 0x00c ),				/* data format LSB top */
  92:..\u8g2\csrc/u8x8_d_st75256.c ****   U8X8_END_TRANSFER(),             	/* disable chip */
  93:..\u8g2\csrc/u8x8_d_st75256.c ****   U8X8_END()             			/* end of sequence */
  94:..\u8g2\csrc/u8x8_d_st75256.c **** };
  95:..\u8g2\csrc/u8x8_d_st75256.c **** 
  96:..\u8g2\csrc/u8x8_d_st75256.c **** static const uint8_t u8x8_d_st75256_jlx256128_flip1_seq[] = {
  97:..\u8g2\csrc/u8x8_d_st75256.c ****   U8X8_START_TRANSFER(),             	/* enable chip, delay is part of the transfer start */
  98:..\u8g2\csrc/u8x8_d_st75256.c ****   U8X8_C( 0x030 ),				/* select 00 commands */
  99:..\u8g2\csrc/u8x8_d_st75256.c ****   U8X8_CA( 0xbc, 0x03 ),			/* data scan dir */
 100:..\u8g2\csrc/u8x8_d_st75256.c ****   U8X8_A( 0xa6 ),				/* ??? */
 101:..\u8g2\csrc/u8x8_d_st75256.c **** 
 102:..\u8g2\csrc/u8x8_d_st75256.c ****   //U8X8_C( 0x030 ),				/* select 00 commands */
 103:..\u8g2\csrc/u8x8_d_st75256.c ****   U8X8_C( 0x008 ),				/* data format MSB top */
 104:..\u8g2\csrc/u8x8_d_st75256.c ****   U8X8_END_TRANSFER(),             	/* disable chip */
 105:..\u8g2\csrc/u8x8_d_st75256.c ****   U8X8_END()             			/* end of sequence */
 106:..\u8g2\csrc/u8x8_d_st75256.c **** };
 107:..\u8g2\csrc/u8x8_d_st75256.c **** 
 108:..\u8g2\csrc/u8x8_d_st75256.c **** static const uint8_t u8x8_d_st75256_jlx172104_flip0_seq[] = {
 109:..\u8g2\csrc/u8x8_d_st75256.c ****   U8X8_START_TRANSFER(),             	/* enable chip, delay is part of the transfer start */
 110:..\u8g2\csrc/u8x8_d_st75256.c ****   U8X8_C( 0x030 ),				/* select 00 commands */
 111:..\u8g2\csrc/u8x8_d_st75256.c ****   U8X8_CA( 0xbc, 0x02 ),			/* data scan dir */
 112:..\u8g2\csrc/u8x8_d_st75256.c ****   U8X8_A( 0xa6 ),				/* ??? */
 113:..\u8g2\csrc/u8x8_d_st75256.c **** 
 114:..\u8g2\csrc/u8x8_d_st75256.c ****   //U8X8_C( 0x030 ),				/* select 00 commands */
 115:..\u8g2\csrc/u8x8_d_st75256.c ****   U8X8_C( 0x00c ),				/* data format LSB top */
 116:..\u8g2\csrc/u8x8_d_st75256.c ****   U8X8_END_TRANSFER(),             	/* disable chip */
 117:..\u8g2\csrc/u8x8_d_st75256.c ****   U8X8_END()             			/* end of sequence */
 118:..\u8g2\csrc/u8x8_d_st75256.c **** };
 119:..\u8g2\csrc/u8x8_d_st75256.c **** 
 120:..\u8g2\csrc/u8x8_d_st75256.c **** static const uint8_t u8x8_d_st75256_jlx172104_flip1_seq[] = {
 121:..\u8g2\csrc/u8x8_d_st75256.c ****   U8X8_START_TRANSFER(),             	/* enable chip, delay is part of the transfer start */
 122:..\u8g2\csrc/u8x8_d_st75256.c ****   U8X8_C( 0x030 ),				/* select 00 commands */
 123:..\u8g2\csrc/u8x8_d_st75256.c ****   U8X8_CA( 0xbc, 0x01 ),			/* data scan dir */
 124:..\u8g2\csrc/u8x8_d_st75256.c ****   U8X8_A( 0xa6 ),				/* ??? */
 125:..\u8g2\csrc/u8x8_d_st75256.c **** 
 126:..\u8g2\csrc/u8x8_d_st75256.c ****   //U8X8_C( 0x030 ),				/* select 00 commands */
 127:..\u8g2\csrc/u8x8_d_st75256.c ****   U8X8_C( 0x008 ),				/* data format MSB top */
 128:..\u8g2\csrc/u8x8_d_st75256.c ****   U8X8_END_TRANSFER(),             	/* disable chip */
 129:..\u8g2\csrc/u8x8_d_st75256.c ****   U8X8_END()             			/* end of sequence */
 130:..\u8g2\csrc/u8x8_d_st75256.c **** };
 131:..\u8g2\csrc/u8x8_d_st75256.c **** 
 132:..\u8g2\csrc/u8x8_d_st75256.c **** static const uint8_t u8x8_d_st75256_jlx256160_flip0_seq[] = {
 133:..\u8g2\csrc/u8x8_d_st75256.c ****   U8X8_START_TRANSFER(),             	/* enable chip, delay is part of the transfer start */
 134:..\u8g2\csrc/u8x8_d_st75256.c ****   U8X8_C( 0x030 ),				/* select 00 commands */
 135:..\u8g2\csrc/u8x8_d_st75256.c ****   U8X8_CA( 0xbc, 0x00 ),			/* data scan dir */
 136:..\u8g2\csrc/u8x8_d_st75256.c ****   U8X8_A( 0xa6 ),				/* ??? */
 137:..\u8g2\csrc/u8x8_d_st75256.c **** 
 138:..\u8g2\csrc/u8x8_d_st75256.c ****   //U8X8_C( 0x030 ),				/* select 00 commands */
 139:..\u8g2\csrc/u8x8_d_st75256.c ****   U8X8_C( 0x00c ),				/* data format LSB top */
 140:..\u8g2\csrc/u8x8_d_st75256.c ****   U8X8_END_TRANSFER(),             	/* disable chip */
 141:..\u8g2\csrc/u8x8_d_st75256.c ****   U8X8_END()             			/* end of sequence */
 142:..\u8g2\csrc/u8x8_d_st75256.c **** };
 143:..\u8g2\csrc/u8x8_d_st75256.c **** 
 144:..\u8g2\csrc/u8x8_d_st75256.c **** static const uint8_t u8x8_d_st75256_jlx256160_flip1_seq[] = {
 145:..\u8g2\csrc/u8x8_d_st75256.c ****   U8X8_START_TRANSFER(),             	/* enable chip, delay is part of the transfer start */
ARM GAS  C:\Users\brian\AppData\Local\Temp\cckfkOf3.s 			page 4


 146:..\u8g2\csrc/u8x8_d_st75256.c ****   U8X8_C( 0x030 ),				/* select 00 commands */
 147:..\u8g2\csrc/u8x8_d_st75256.c ****   U8X8_CA( 0xbc, 0x03 ),			/* data scan dir */
 148:..\u8g2\csrc/u8x8_d_st75256.c ****   U8X8_A( 0xa6 ),				/* ??? */
 149:..\u8g2\csrc/u8x8_d_st75256.c **** 
 150:..\u8g2\csrc/u8x8_d_st75256.c ****   //U8X8_C( 0x030 ),				/* select 00 commands */
 151:..\u8g2\csrc/u8x8_d_st75256.c ****   U8X8_C( 0x008 ),				/* data format MSB top */
 152:..\u8g2\csrc/u8x8_d_st75256.c ****   U8X8_END_TRANSFER(),             	/* disable chip */
 153:..\u8g2\csrc/u8x8_d_st75256.c ****   U8X8_END()             			/* end of sequence */
 154:..\u8g2\csrc/u8x8_d_st75256.c **** };
 155:..\u8g2\csrc/u8x8_d_st75256.c **** 
 156:..\u8g2\csrc/u8x8_d_st75256.c **** 
 157:..\u8g2\csrc/u8x8_d_st75256.c **** static uint8_t u8x8_d_st75256_256x128_generic(u8x8_t *u8x8, uint8_t msg, uint8_t arg_int, void *arg
 158:..\u8g2\csrc/u8x8_d_st75256.c **** {
  27              		.loc 1 158 0
  28              		.cfi_startproc
  29              		@ args = 0, pretend = 0, frame = 0
  30              		@ frame_needed = 0, uses_anonymous_args = 0
  31              	.LVL0:
  32 0000 2DE9F041 		push	{r4, r5, r6, r7, r8, lr}
  33              		.cfi_def_cfa_offset 24
  34              		.cfi_offset 4, -24
  35              		.cfi_offset 5, -20
  36              		.cfi_offset 6, -16
  37              		.cfi_offset 7, -12
  38              		.cfi_offset 8, -8
  39              		.cfi_offset 14, -4
  40 0004 0646     		mov	r6, r0
  41 0006 1546     		mov	r5, r2
 159:..\u8g2\csrc/u8x8_d_st75256.c ****   uint8_t x, c;
 160:..\u8g2\csrc/u8x8_d_st75256.c ****   uint8_t *ptr;
 161:..\u8g2\csrc/u8x8_d_st75256.c ****   switch(msg)
  42              		.loc 1 161 0
  43 0008 0E29     		cmp	r1, #14
  44 000a 11D0     		beq	.L3
  45 000c 9846     		mov	r8, r3
  46 000e 0F29     		cmp	r1, #15
  47 0010 28D0     		beq	.L4
  48 0012 0B29     		cmp	r1, #11
  49 0014 70D1     		bne	.L10
 162:..\u8g2\csrc/u8x8_d_st75256.c ****   {
 163:..\u8g2\csrc/u8x8_d_st75256.c ****     /* handled by the calling function
 164:..\u8g2\csrc/u8x8_d_st75256.c ****     case U8X8_MSG_DISPLAY_SETUP_MEMORY:
 165:..\u8g2\csrc/u8x8_d_st75256.c ****       u8x8_d_helper_display_setup_memory(u8x8, &u8x8_st75256_256x128_display_info);
 166:..\u8g2\csrc/u8x8_d_st75256.c ****       break;
 167:..\u8g2\csrc/u8x8_d_st75256.c ****     */
 168:..\u8g2\csrc/u8x8_d_st75256.c ****     /* handled by the calling function
 169:..\u8g2\csrc/u8x8_d_st75256.c ****     case U8X8_MSG_DISPLAY_INIT:
 170:..\u8g2\csrc/u8x8_d_st75256.c ****       u8x8_d_helper_display_init(u8x8);
 171:..\u8g2\csrc/u8x8_d_st75256.c ****       u8x8_cad_SendSequence(u8x8, u8x8_d_st75256_256x128_init_seq);    
 172:..\u8g2\csrc/u8x8_d_st75256.c ****       break;
 173:..\u8g2\csrc/u8x8_d_st75256.c ****     */
 174:..\u8g2\csrc/u8x8_d_st75256.c ****     case U8X8_MSG_DISPLAY_SET_POWER_SAVE:
 175:..\u8g2\csrc/u8x8_d_st75256.c ****       if ( arg_int == 0 )
  50              		.loc 1 175 0
  51 0016 2AB9     		cbnz	r2, .L6
 176:..\u8g2\csrc/u8x8_d_st75256.c ****         u8x8_cad_SendSequence(u8x8, u8x8_d_st75256_256x128_powersave0_seq);
  52              		.loc 1 176 0
ARM GAS  C:\Users\brian\AppData\Local\Temp\cckfkOf3.s 			page 5


  53 0018 3949     		ldr	r1, .L12
  54              	.LVL1:
  55 001a FFF7FEFF 		bl	u8x8_cad_SendSequence
  56              	.LVL2:
 177:..\u8g2\csrc/u8x8_d_st75256.c ****       else
 178:..\u8g2\csrc/u8x8_d_st75256.c ****         u8x8_cad_SendSequence(u8x8, u8x8_d_st75256_256x128_powersave1_seq);
 179:..\u8g2\csrc/u8x8_d_st75256.c **** 
 180:..\u8g2\csrc/u8x8_d_st75256.c ****       break;
 181:..\u8g2\csrc/u8x8_d_st75256.c **** #ifdef U8X8_WITH_SET_CONTRAST
 182:..\u8g2\csrc/u8x8_d_st75256.c ****     case U8X8_MSG_DISPLAY_SET_CONTRAST:
 183:..\u8g2\csrc/u8x8_d_st75256.c **** 
 184:..\u8g2\csrc/u8x8_d_st75256.c ****       u8x8_cad_StartTransfer(u8x8);
 185:..\u8g2\csrc/u8x8_d_st75256.c ****       
 186:..\u8g2\csrc/u8x8_d_st75256.c ****       u8x8_cad_SendCmd(u8x8, 0x030 );
 187:..\u8g2\csrc/u8x8_d_st75256.c ****       u8x8_cad_SendCmd(u8x8, 0x081 );  /* there are 9 bit for the volume control */
 188:..\u8g2\csrc/u8x8_d_st75256.c ****       u8x8_cad_SendArg(u8x8, (arg_int & 0x1f)<<1 );	/* lower 6 bit */
 189:..\u8g2\csrc/u8x8_d_st75256.c ****       u8x8_cad_SendArg(u8x8, (arg_int>>5));		/* upper 3 bit */
 190:..\u8g2\csrc/u8x8_d_st75256.c ****       
 191:..\u8g2\csrc/u8x8_d_st75256.c ****       u8x8_cad_EndTransfer(u8x8);
 192:..\u8g2\csrc/u8x8_d_st75256.c ****       break;
 193:..\u8g2\csrc/u8x8_d_st75256.c **** #endif
 194:..\u8g2\csrc/u8x8_d_st75256.c ****     case U8X8_MSG_DISPLAY_DRAW_TILE:
 195:..\u8g2\csrc/u8x8_d_st75256.c ****       
 196:..\u8g2\csrc/u8x8_d_st75256.c ****       u8x8_cad_StartTransfer(u8x8);
 197:..\u8g2\csrc/u8x8_d_st75256.c ****       x = ((u8x8_tile_t *)arg_ptr)->x_pos;    
 198:..\u8g2\csrc/u8x8_d_st75256.c ****       x *= 8;
 199:..\u8g2\csrc/u8x8_d_st75256.c ****       
 200:..\u8g2\csrc/u8x8_d_st75256.c ****       u8x8_cad_SendCmd(u8x8, 0x030 );	/* select command set */
 201:..\u8g2\csrc/u8x8_d_st75256.c ****       u8x8_cad_SendCmd(u8x8, 0x075 );	/* row */
 202:..\u8g2\csrc/u8x8_d_st75256.c ****       u8x8_cad_SendArg(u8x8, u8x8->x_offset + (((u8x8_tile_t *)arg_ptr)->y_pos));	/* x offset is us
 203:..\u8g2\csrc/u8x8_d_st75256.c ****       u8x8_cad_SendArg(u8x8, 0x04f);
 204:..\u8g2\csrc/u8x8_d_st75256.c ****       //u8x8_cad_SendArg(u8x8, (((u8x8_tile_t *)arg_ptr)->y_pos));
 205:..\u8g2\csrc/u8x8_d_st75256.c ****       u8x8_cad_SendCmd(u8x8, 0x015 );	/* col */
 206:..\u8g2\csrc/u8x8_d_st75256.c ****       u8x8_cad_SendArg(u8x8, x);
 207:..\u8g2\csrc/u8x8_d_st75256.c ****       u8x8_cad_SendArg(u8x8, 255);
 208:..\u8g2\csrc/u8x8_d_st75256.c ****       u8x8_cad_SendCmd(u8x8, 0x05c );	
 209:..\u8g2\csrc/u8x8_d_st75256.c ****           
 210:..\u8g2\csrc/u8x8_d_st75256.c ****       do
 211:..\u8g2\csrc/u8x8_d_st75256.c ****       {
 212:..\u8g2\csrc/u8x8_d_st75256.c ****         c = ((u8x8_tile_t *)arg_ptr)->cnt;
 213:..\u8g2\csrc/u8x8_d_st75256.c ****         ptr = ((u8x8_tile_t *)arg_ptr)->tile_ptr;
 214:..\u8g2\csrc/u8x8_d_st75256.c ****         /* SendData can not handle more than 255 bytes, treat c > 31 correctly  */
 215:..\u8g2\csrc/u8x8_d_st75256.c ****         if ( c > 31 )
 216:..\u8g2\csrc/u8x8_d_st75256.c ****         {
 217:..\u8g2\csrc/u8x8_d_st75256.c ****           u8x8_cad_SendData(u8x8, 248, ptr); 	/* 31*8=248 */
 218:..\u8g2\csrc/u8x8_d_st75256.c ****           ptr+=248;
 219:..\u8g2\csrc/u8x8_d_st75256.c ****           c -= 31;
 220:..\u8g2\csrc/u8x8_d_st75256.c ****         }
 221:..\u8g2\csrc/u8x8_d_st75256.c ****         
 222:..\u8g2\csrc/u8x8_d_st75256.c ****         u8x8_cad_SendData(u8x8, c*8, ptr); 	
 223:..\u8g2\csrc/u8x8_d_st75256.c ****         arg_int--;
 224:..\u8g2\csrc/u8x8_d_st75256.c ****       } while( arg_int > 0 );
 225:..\u8g2\csrc/u8x8_d_st75256.c ****       
 226:..\u8g2\csrc/u8x8_d_st75256.c ****       u8x8_cad_EndTransfer(u8x8);
 227:..\u8g2\csrc/u8x8_d_st75256.c ****       break;
 228:..\u8g2\csrc/u8x8_d_st75256.c ****     default:
 229:..\u8g2\csrc/u8x8_d_st75256.c ****       return 0;
ARM GAS  C:\Users\brian\AppData\Local\Temp\cckfkOf3.s 			page 6


 230:..\u8g2\csrc/u8x8_d_st75256.c ****   }
 231:..\u8g2\csrc/u8x8_d_st75256.c ****   return 1;
  57              		.loc 1 231 0
  58 001e 0120     		movs	r0, #1
  59 0020 BDE8F081 		pop	{r4, r5, r6, r7, r8, pc}
  60              	.LVL3:
  61              	.L6:
 178:..\u8g2\csrc/u8x8_d_st75256.c **** 
  62              		.loc 1 178 0
  63 0024 3749     		ldr	r1, .L12+4
  64              	.LVL4:
  65 0026 FFF7FEFF 		bl	u8x8_cad_SendSequence
  66              	.LVL5:
  67              		.loc 1 231 0
  68 002a 0120     		movs	r0, #1
  69 002c BDE8F081 		pop	{r4, r5, r6, r7, r8, pc}
  70              	.LVL6:
  71              	.L3:
 184:..\u8g2\csrc/u8x8_d_st75256.c ****       
  72              		.loc 1 184 0
  73 0030 FFF7FEFF 		bl	u8x8_cad_StartTransfer
  74              	.LVL7:
 186:..\u8g2\csrc/u8x8_d_st75256.c ****       u8x8_cad_SendCmd(u8x8, 0x081 );  /* there are 9 bit for the volume control */
  75              		.loc 1 186 0
  76 0034 3021     		movs	r1, #48
  77 0036 3046     		mov	r0, r6
  78 0038 FFF7FEFF 		bl	u8x8_cad_SendCmd
  79              	.LVL8:
 187:..\u8g2\csrc/u8x8_d_st75256.c ****       u8x8_cad_SendArg(u8x8, (arg_int & 0x1f)<<1 );	/* lower 6 bit */
  80              		.loc 1 187 0
  81 003c 8121     		movs	r1, #129
  82 003e 3046     		mov	r0, r6
  83 0040 FFF7FEFF 		bl	u8x8_cad_SendCmd
  84              	.LVL9:
 188:..\u8g2\csrc/u8x8_d_st75256.c ****       u8x8_cad_SendArg(u8x8, (arg_int>>5));		/* upper 3 bit */
  85              		.loc 1 188 0
  86 0044 6900     		lsls	r1, r5, #1
  87 0046 01F03E01 		and	r1, r1, #62
  88 004a 3046     		mov	r0, r6
  89 004c FFF7FEFF 		bl	u8x8_cad_SendArg
  90              	.LVL10:
 189:..\u8g2\csrc/u8x8_d_st75256.c ****       
  91              		.loc 1 189 0
  92 0050 6909     		lsrs	r1, r5, #5
  93 0052 3046     		mov	r0, r6
  94 0054 FFF7FEFF 		bl	u8x8_cad_SendArg
  95              	.LVL11:
 191:..\u8g2\csrc/u8x8_d_st75256.c ****       break;
  96              		.loc 1 191 0
  97 0058 3046     		mov	r0, r6
  98 005a FFF7FEFF 		bl	u8x8_cad_EndTransfer
  99              	.LVL12:
 100              		.loc 1 231 0
 101 005e 0120     		movs	r0, #1
 192:..\u8g2\csrc/u8x8_d_st75256.c **** #endif
 102              		.loc 1 192 0
 103 0060 BDE8F081 		pop	{r4, r5, r6, r7, r8, pc}
ARM GAS  C:\Users\brian\AppData\Local\Temp\cckfkOf3.s 			page 7


 104              	.LVL13:
 105              	.L4:
 196:..\u8g2\csrc/u8x8_d_st75256.c ****       x = ((u8x8_tile_t *)arg_ptr)->x_pos;    
 106              		.loc 1 196 0
 107 0064 FFF7FEFF 		bl	u8x8_cad_StartTransfer
 108              	.LVL14:
 197:..\u8g2\csrc/u8x8_d_st75256.c ****       x *= 8;
 109              		.loc 1 197 0
 110 0068 98F80540 		ldrb	r4, [r8, #5]	@ zero_extendqisi2
 111              	.LVL15:
 198:..\u8g2\csrc/u8x8_d_st75256.c ****       
 112              		.loc 1 198 0
 113 006c E400     		lsls	r4, r4, #3
 114              	.LVL16:
 115 006e E4B2     		uxtb	r4, r4
 116              	.LVL17:
 200:..\u8g2\csrc/u8x8_d_st75256.c ****       u8x8_cad_SendCmd(u8x8, 0x075 );	/* row */
 117              		.loc 1 200 0
 118 0070 3021     		movs	r1, #48
 119 0072 3046     		mov	r0, r6
 120 0074 FFF7FEFF 		bl	u8x8_cad_SendCmd
 121              	.LVL18:
 201:..\u8g2\csrc/u8x8_d_st75256.c ****       u8x8_cad_SendArg(u8x8, u8x8->x_offset + (((u8x8_tile_t *)arg_ptr)->y_pos));	/* x offset is us
 122              		.loc 1 201 0
 123 0078 7521     		movs	r1, #117
 124 007a 3046     		mov	r0, r6
 125 007c FFF7FEFF 		bl	u8x8_cad_SendCmd
 126              	.LVL19:
 202:..\u8g2\csrc/u8x8_d_st75256.c ****       u8x8_cad_SendArg(u8x8, 0x04f);
 127              		.loc 1 202 0
 128 0080 96F82210 		ldrb	r1, [r6, #34]	@ zero_extendqisi2
 129 0084 98F80630 		ldrb	r3, [r8, #6]	@ zero_extendqisi2
 130 0088 1944     		add	r1, r1, r3
 131 008a C9B2     		uxtb	r1, r1
 132 008c 3046     		mov	r0, r6
 133 008e FFF7FEFF 		bl	u8x8_cad_SendArg
 134              	.LVL20:
 203:..\u8g2\csrc/u8x8_d_st75256.c ****       //u8x8_cad_SendArg(u8x8, (((u8x8_tile_t *)arg_ptr)->y_pos));
 135              		.loc 1 203 0
 136 0092 4F21     		movs	r1, #79
 137 0094 3046     		mov	r0, r6
 138 0096 FFF7FEFF 		bl	u8x8_cad_SendArg
 139              	.LVL21:
 205:..\u8g2\csrc/u8x8_d_st75256.c ****       u8x8_cad_SendArg(u8x8, x);
 140              		.loc 1 205 0
 141 009a 1521     		movs	r1, #21
 142 009c 3046     		mov	r0, r6
 143 009e FFF7FEFF 		bl	u8x8_cad_SendCmd
 144              	.LVL22:
 206:..\u8g2\csrc/u8x8_d_st75256.c ****       u8x8_cad_SendArg(u8x8, 255);
 145              		.loc 1 206 0
 146 00a2 2146     		mov	r1, r4
 147 00a4 3046     		mov	r0, r6
 148 00a6 FFF7FEFF 		bl	u8x8_cad_SendArg
 149              	.LVL23:
 207:..\u8g2\csrc/u8x8_d_st75256.c ****       u8x8_cad_SendCmd(u8x8, 0x05c );	
 150              		.loc 1 207 0
ARM GAS  C:\Users\brian\AppData\Local\Temp\cckfkOf3.s 			page 8


 151 00aa FF21     		movs	r1, #255
 152 00ac 3046     		mov	r0, r6
 153 00ae FFF7FEFF 		bl	u8x8_cad_SendArg
 154              	.LVL24:
 208:..\u8g2\csrc/u8x8_d_st75256.c ****           
 155              		.loc 1 208 0
 156 00b2 5C21     		movs	r1, #92
 157 00b4 3046     		mov	r0, r6
 158 00b6 FFF7FEFF 		bl	u8x8_cad_SendCmd
 159              	.LVL25:
 160              	.L8:
 212:..\u8g2\csrc/u8x8_d_st75256.c ****         ptr = ((u8x8_tile_t *)arg_ptr)->tile_ptr;
 161              		.loc 1 212 0
 162 00ba 98F80440 		ldrb	r4, [r8, #4]	@ zero_extendqisi2
 163              	.LVL26:
 213:..\u8g2\csrc/u8x8_d_st75256.c ****         /* SendData can not handle more than 255 bytes, treat c > 31 correctly  */
 164              		.loc 1 213 0
 165 00be D8F80070 		ldr	r7, [r8]
 166              	.LVL27:
 215:..\u8g2\csrc/u8x8_d_st75256.c ****         {
 167              		.loc 1 215 0
 168 00c2 1F2C     		cmp	r4, #31
 169 00c4 07D9     		bls	.L7
 217:..\u8g2\csrc/u8x8_d_st75256.c ****           ptr+=248;
 170              		.loc 1 217 0
 171 00c6 3A46     		mov	r2, r7
 172 00c8 F821     		movs	r1, #248
 173 00ca 3046     		mov	r0, r6
 174 00cc FFF7FEFF 		bl	u8x8_cad_SendData
 175              	.LVL28:
 218:..\u8g2\csrc/u8x8_d_st75256.c ****           c -= 31;
 176              		.loc 1 218 0
 177 00d0 F837     		adds	r7, r7, #248
 178              	.LVL29:
 219:..\u8g2\csrc/u8x8_d_st75256.c ****         }
 179              		.loc 1 219 0
 180 00d2 1F3C     		subs	r4, r4, #31
 181              	.LVL30:
 182 00d4 E4B2     		uxtb	r4, r4
 183              	.LVL31:
 184              	.L7:
 222:..\u8g2\csrc/u8x8_d_st75256.c ****         arg_int--;
 185              		.loc 1 222 0
 186 00d6 E100     		lsls	r1, r4, #3
 187 00d8 3A46     		mov	r2, r7
 188 00da 01F0F801 		and	r1, r1, #248
 189 00de 3046     		mov	r0, r6
 190 00e0 FFF7FEFF 		bl	u8x8_cad_SendData
 191              	.LVL32:
 223:..\u8g2\csrc/u8x8_d_st75256.c ****       } while( arg_int > 0 );
 192              		.loc 1 223 0
 193 00e4 6A1E     		subs	r2, r5, #1
 194              	.LVL33:
 224:..\u8g2\csrc/u8x8_d_st75256.c ****       
 195              		.loc 1 224 0
 196 00e6 12F0FF05 		ands	r5, r2, #255
 197 00ea E6D1     		bne	.L8
ARM GAS  C:\Users\brian\AppData\Local\Temp\cckfkOf3.s 			page 9


 226:..\u8g2\csrc/u8x8_d_st75256.c ****       break;
 198              		.loc 1 226 0
 199 00ec 3046     		mov	r0, r6
 200 00ee FFF7FEFF 		bl	u8x8_cad_EndTransfer
 201              	.LVL34:
 202              		.loc 1 231 0
 203 00f2 0120     		movs	r0, #1
 227:..\u8g2\csrc/u8x8_d_st75256.c ****     default:
 204              		.loc 1 227 0
 205 00f4 BDE8F081 		pop	{r4, r5, r6, r7, r8, pc}
 206              	.LVL35:
 207              	.L10:
 229:..\u8g2\csrc/u8x8_d_st75256.c ****   }
 208              		.loc 1 229 0
 209 00f8 0020     		movs	r0, #0
 210              	.LVL36:
 232:..\u8g2\csrc/u8x8_d_st75256.c **** }
 211              		.loc 1 232 0
 212 00fa BDE8F081 		pop	{r4, r5, r6, r7, r8, pc}
 213              	.LVL37:
 214              	.L13:
 215 00fe 00BF     		.align	2
 216              	.L12:
 217 0100 00000000 		.word	.LANCHOR0
 218 0104 0C000000 		.word	.LANCHOR0+12
 219              		.cfi_endproc
 220              	.LFE0:
 221              		.size	u8x8_d_st75256_256x128_generic, .-u8x8_d_st75256_256x128_generic
 222              		.section	.text.u8x8_d_st75256_jlx256128,"ax",%progbits
 223              		.align	2
 224              		.global	u8x8_d_st75256_jlx256128
 225              		.thumb
 226              		.thumb_func
 227              		.type	u8x8_d_st75256_jlx256128, %function
 228              	u8x8_d_st75256_jlx256128:
 229              	.LFB1:
 233:..\u8g2\csrc/u8x8_d_st75256.c **** 
 234:..\u8g2\csrc/u8x8_d_st75256.c **** /*=============================================*/
 235:..\u8g2\csrc/u8x8_d_st75256.c **** /* JLX256128 */
 236:..\u8g2\csrc/u8x8_d_st75256.c **** 
 237:..\u8g2\csrc/u8x8_d_st75256.c **** static const u8x8_display_info_t u8x8_st75256_256x128_display_info =
 238:..\u8g2\csrc/u8x8_d_st75256.c **** {
 239:..\u8g2\csrc/u8x8_d_st75256.c ****   /* chip_enable_level = */ 0,
 240:..\u8g2\csrc/u8x8_d_st75256.c ****   /* chip_disable_level = */ 1,
 241:..\u8g2\csrc/u8x8_d_st75256.c ****   
 242:..\u8g2\csrc/u8x8_d_st75256.c ****   /* post_chip_enable_wait_ns = */ 20,
 243:..\u8g2\csrc/u8x8_d_st75256.c ****   /* pre_chip_disable_wait_ns = */ 20,
 244:..\u8g2\csrc/u8x8_d_st75256.c ****   /* reset_pulse_width_ms = */ 5, 	
 245:..\u8g2\csrc/u8x8_d_st75256.c ****   /* post_reset_wait_ms = */ 5, 		/**/
 246:..\u8g2\csrc/u8x8_d_st75256.c ****   /* sda_setup_time_ns = */ 20,		/* */
 247:..\u8g2\csrc/u8x8_d_st75256.c ****   /* sck_pulse_width_ns = */ 40,	/*  */
 248:..\u8g2\csrc/u8x8_d_st75256.c ****   /* sck_clock_hz = */ 4000000UL,	/* since Arduino 1.6.0, the SPI bus speed in Hz. Should be  10000
 249:..\u8g2\csrc/u8x8_d_st75256.c ****   /* spi_mode = */ 0,		/* active high, rising edge */
 250:..\u8g2\csrc/u8x8_d_st75256.c ****   /* i2c_bus_clock_100kHz = */ 4,	/* 400KHz */
 251:..\u8g2\csrc/u8x8_d_st75256.c ****   /* data_setup_time_ns = */ 15,
 252:..\u8g2\csrc/u8x8_d_st75256.c ****   /* write_pulse_width_ns = */ 70,	
 253:..\u8g2\csrc/u8x8_d_st75256.c ****   /* tile_width = */ 32,
ARM GAS  C:\Users\brian\AppData\Local\Temp\cckfkOf3.s 			page 10


 254:..\u8g2\csrc/u8x8_d_st75256.c ****   /* tile_hight = */ 16,
 255:..\u8g2\csrc/u8x8_d_st75256.c ****   /* default_x_offset = */ 0,	/* must be 0, because this is checked also for normal mode */
 256:..\u8g2\csrc/u8x8_d_st75256.c ****   /* flipmode_x_offset = */ 5,		/* used as y offset */
 257:..\u8g2\csrc/u8x8_d_st75256.c ****   /* pixel_width = */ 256,
 258:..\u8g2\csrc/u8x8_d_st75256.c ****   /* pixel_height = */ 128
 259:..\u8g2\csrc/u8x8_d_st75256.c **** };
 260:..\u8g2\csrc/u8x8_d_st75256.c **** 
 261:..\u8g2\csrc/u8x8_d_st75256.c **** 
 262:..\u8g2\csrc/u8x8_d_st75256.c **** static const uint8_t u8x8_d_st75256_256x128_init_seq[] = {
 263:..\u8g2\csrc/u8x8_d_st75256.c ****   U8X8_START_TRANSFER(),             	/* enable chip, delay is part of the transfer start */
 264:..\u8g2\csrc/u8x8_d_st75256.c ****   
 265:..\u8g2\csrc/u8x8_d_st75256.c ****   U8X8_DLY(20),
 266:..\u8g2\csrc/u8x8_d_st75256.c **** 
 267:..\u8g2\csrc/u8x8_d_st75256.c ****   U8X8_C( 0x030 ),				/* select 00 commands */
 268:..\u8g2\csrc/u8x8_d_st75256.c ****   U8X8_C( 0x094 ),				/* sleep out */
 269:..\u8g2\csrc/u8x8_d_st75256.c **** 
 270:..\u8g2\csrc/u8x8_d_st75256.c ****   //U8X8_C( 0x030 ),				/* select 00 commands */
 271:..\u8g2\csrc/u8x8_d_st75256.c ****   U8X8_C( 0x0ae ),				/* display off */
 272:..\u8g2\csrc/u8x8_d_st75256.c **** 
 273:..\u8g2\csrc/u8x8_d_st75256.c ****   U8X8_C( 0x031 ),				/* select 01 commands */
 274:..\u8g2\csrc/u8x8_d_st75256.c ****   U8X8_CA( 0x0d7, 0x09f ),		/* disable auto read */  
 275:..\u8g2\csrc/u8x8_d_st75256.c **** 
 276:..\u8g2\csrc/u8x8_d_st75256.c ****   //U8X8_C( 0x031 ),				/* select 01 commands */
 277:..\u8g2\csrc/u8x8_d_st75256.c ****   U8X8_C( 0x032 ),				/* analog circuit set */
 278:..\u8g2\csrc/u8x8_d_st75256.c ****   U8X8_A( 0x000 ),				/* code example: OSC Frequency adjustment */
 279:..\u8g2\csrc/u8x8_d_st75256.c ****   U8X8_A( 0x001 ),				/* Frequency on booster capacitors 1 = 6KHz? */
 280:..\u8g2\csrc/u8x8_d_st75256.c ****   U8X8_A( 0x000 ),				/* Bias: 1: 1/13, 2: 1/12, 3: 1/11, 4:1/10, 5:1/9 */
 281:..\u8g2\csrc/u8x8_d_st75256.c ****     
 282:..\u8g2\csrc/u8x8_d_st75256.c ****   //U8X8_C( 0x031 ),				/* select 01 commands */
 283:..\u8g2\csrc/u8x8_d_st75256.c ****   U8X8_C( 0x020 ),				/* gray levels */
 284:..\u8g2\csrc/u8x8_d_st75256.c ****   U8X8_A( 0x01 ),
 285:..\u8g2\csrc/u8x8_d_st75256.c ****   U8X8_A( 0x03 ),
 286:..\u8g2\csrc/u8x8_d_st75256.c ****   U8X8_A( 0x05 ),
 287:..\u8g2\csrc/u8x8_d_st75256.c ****   U8X8_A( 0x07 ),
 288:..\u8g2\csrc/u8x8_d_st75256.c ****   U8X8_A( 0x09),
 289:..\u8g2\csrc/u8x8_d_st75256.c ****   U8X8_A( 0x0b ),
 290:..\u8g2\csrc/u8x8_d_st75256.c ****   U8X8_A( 0x0d ),
 291:..\u8g2\csrc/u8x8_d_st75256.c ****   U8X8_A( 0x10 ),
 292:..\u8g2\csrc/u8x8_d_st75256.c ****   U8X8_A( 0x11 ),
 293:..\u8g2\csrc/u8x8_d_st75256.c ****   U8X8_A( 0x13 ),
 294:..\u8g2\csrc/u8x8_d_st75256.c ****   U8X8_A( 0x15 ),
 295:..\u8g2\csrc/u8x8_d_st75256.c ****   U8X8_A( 0x17 ),
 296:..\u8g2\csrc/u8x8_d_st75256.c ****   U8X8_A( 0x19 ),
 297:..\u8g2\csrc/u8x8_d_st75256.c ****   U8X8_A( 0x1b ),
 298:..\u8g2\csrc/u8x8_d_st75256.c ****   U8X8_A( 0x1d ),
 299:..\u8g2\csrc/u8x8_d_st75256.c ****   U8X8_A( 0x1f ),
 300:..\u8g2\csrc/u8x8_d_st75256.c ****  
 301:..\u8g2\csrc/u8x8_d_st75256.c ****   
 302:..\u8g2\csrc/u8x8_d_st75256.c ****   U8X8_C( 0x030 ),				/* select 00 commands */
 303:..\u8g2\csrc/u8x8_d_st75256.c ****   U8X8_CAA(0x75, 0, 0x4f),		/* row range */
 304:..\u8g2\csrc/u8x8_d_st75256.c ****   U8X8_CAA(0x15, 0, 255),		/* col range */
 305:..\u8g2\csrc/u8x8_d_st75256.c ****   
 306:..\u8g2\csrc/u8x8_d_st75256.c ****   //U8X8_C( 0x030 ),				/* select 00 commands */
 307:..\u8g2\csrc/u8x8_d_st75256.c ****   U8X8_CA( 0xbc, 0x00 ),			/* data scan dir */
 308:..\u8g2\csrc/u8x8_d_st75256.c ****   U8X8_A( 0xa6 ),				/* ??? */
 309:..\u8g2\csrc/u8x8_d_st75256.c **** 
 310:..\u8g2\csrc/u8x8_d_st75256.c ****   //U8X8_C( 0x030 ),				/* select 00 commands */
ARM GAS  C:\Users\brian\AppData\Local\Temp\cckfkOf3.s 			page 11


 311:..\u8g2\csrc/u8x8_d_st75256.c ****   U8X8_C( 0x00c ),				/* data format LSB top */
 312:..\u8g2\csrc/u8x8_d_st75256.c **** 
 313:..\u8g2\csrc/u8x8_d_st75256.c ****   //U8X8_C( 0x030 ),				/* select 00 commands */ 
 314:..\u8g2\csrc/u8x8_d_st75256.c ****   U8X8_C( 0xca ),				/* display control, 3 args follow  */
 315:..\u8g2\csrc/u8x8_d_st75256.c ****   U8X8_A( 0x00 ),				/* 0x00: no clock division, 0x04: devide clock */
 316:..\u8g2\csrc/u8x8_d_st75256.c ****   U8X8_A( 0x7f ),				/* 1/160 duty value from the DS example code */
 317:..\u8g2\csrc/u8x8_d_st75256.c ****   U8X8_A( 0x20 ),				/* nline off */ 
 318:..\u8g2\csrc/u8x8_d_st75256.c **** 
 319:..\u8g2\csrc/u8x8_d_st75256.c ****   //U8X8_C( 0x030 ),				/* select 00 commands */ 
 320:..\u8g2\csrc/u8x8_d_st75256.c ****   U8X8_CA( 0x0f0, 0x010 ),		/* monochrome mode  = 0x010*/
 321:..\u8g2\csrc/u8x8_d_st75256.c **** 
 322:..\u8g2\csrc/u8x8_d_st75256.c ****   //U8X8_C( 0x030 ),				/* select 00 commands */
 323:..\u8g2\csrc/u8x8_d_st75256.c ****   U8X8_CAA( 0x81, 0x36, 0x05 ),	/* Volume control */
 324:..\u8g2\csrc/u8x8_d_st75256.c **** 
 325:..\u8g2\csrc/u8x8_d_st75256.c ****   //U8X8_C( 0x030 ),				/* select 00 commands */
 326:..\u8g2\csrc/u8x8_d_st75256.c ****   U8X8_CA( 0x020, 0x00b ),		/* Power control: Regulator, follower & booster on */
 327:..\u8g2\csrc/u8x8_d_st75256.c ****   U8X8_DLY(100),
 328:..\u8g2\csrc/u8x8_d_st75256.c **** 
 329:..\u8g2\csrc/u8x8_d_st75256.c ****   U8X8_END_TRANSFER(),             	/* disable chip */
 330:..\u8g2\csrc/u8x8_d_st75256.c ****   U8X8_END()             			/* end of sequence */
 331:..\u8g2\csrc/u8x8_d_st75256.c **** };
 332:..\u8g2\csrc/u8x8_d_st75256.c **** 
 333:..\u8g2\csrc/u8x8_d_st75256.c **** 
 334:..\u8g2\csrc/u8x8_d_st75256.c **** uint8_t u8x8_d_st75256_jlx256128(u8x8_t *u8x8, uint8_t msg, uint8_t arg_int, void *arg_ptr)
 335:..\u8g2\csrc/u8x8_d_st75256.c **** {
 230              		.loc 1 335 0
 231              		.cfi_startproc
 232              		@ args = 0, pretend = 0, frame = 0
 233              		@ frame_needed = 0, uses_anonymous_args = 0
 234              	.LVL38:
 235 0000 70B5     		push	{r4, r5, r6, lr}
 236              		.cfi_def_cfa_offset 16
 237              		.cfi_offset 4, -16
 238              		.cfi_offset 5, -12
 239              		.cfi_offset 6, -8
 240              		.cfi_offset 14, -4
 241 0002 0546     		mov	r5, r0
 242 0004 0C46     		mov	r4, r1
 243 0006 1646     		mov	r6, r2
 336:..\u8g2\csrc/u8x8_d_st75256.c ****   if ( u8x8_d_st75256_256x128_generic(u8x8, msg, arg_int, arg_ptr) != 0 )
 244              		.loc 1 336 0
 245 0008 FFF7FEFF 		bl	u8x8_d_st75256_256x128_generic
 246              	.LVL39:
 247 000c 50BB     		cbnz	r0, .L19
 248 000e 0346     		mov	r3, r0
 337:..\u8g2\csrc/u8x8_d_st75256.c ****     return 1;
 338:..\u8g2\csrc/u8x8_d_st75256.c ****   if ( msg == U8X8_MSG_DISPLAY_SETUP_MEMORY )
 249              		.loc 1 338 0
 250 0010 092C     		cmp	r4, #9
 251 0012 05D1     		bne	.L16
 339:..\u8g2\csrc/u8x8_d_st75256.c ****   {
 340:..\u8g2\csrc/u8x8_d_st75256.c ****     //u8x8_SetI2CAddress(u8x8, 0x078);		/* lowest I2C adr of the ST75256 */
 341:..\u8g2\csrc/u8x8_d_st75256.c ****     u8x8_d_helper_display_setup_memory(u8x8, &u8x8_st75256_256x128_display_info);
 252              		.loc 1 341 0
 253 0014 1549     		ldr	r1, .L21
 254 0016 2846     		mov	r0, r5
 255 0018 FFF7FEFF 		bl	u8x8_d_helper_display_setup_memory
ARM GAS  C:\Users\brian\AppData\Local\Temp\cckfkOf3.s 			page 12


 256              	.LVL40:
 342:..\u8g2\csrc/u8x8_d_st75256.c ****     return 1;
 257              		.loc 1 342 0
 258 001c 0123     		movs	r3, #1
 259 001e 22E0     		b	.L15
 260              	.L16:
 343:..\u8g2\csrc/u8x8_d_st75256.c ****   }
 344:..\u8g2\csrc/u8x8_d_st75256.c ****   else if ( msg == U8X8_MSG_DISPLAY_INIT )
 261              		.loc 1 344 0
 262 0020 0A2C     		cmp	r4, #10
 263 0022 08D1     		bne	.L17
 345:..\u8g2\csrc/u8x8_d_st75256.c ****   {
 346:..\u8g2\csrc/u8x8_d_st75256.c ****     u8x8_d_helper_display_init(u8x8);
 264              		.loc 1 346 0
 265 0024 2846     		mov	r0, r5
 266 0026 FFF7FEFF 		bl	u8x8_d_helper_display_init
 267              	.LVL41:
 347:..\u8g2\csrc/u8x8_d_st75256.c ****     u8x8_cad_SendSequence(u8x8, u8x8_d_st75256_256x128_init_seq);    
 268              		.loc 1 347 0
 269 002a 1149     		ldr	r1, .L21+4
 270 002c 2846     		mov	r0, r5
 271 002e FFF7FEFF 		bl	u8x8_cad_SendSequence
 272              	.LVL42:
 348:..\u8g2\csrc/u8x8_d_st75256.c ****     return 1;
 273              		.loc 1 348 0
 274 0032 0123     		movs	r3, #1
 275 0034 17E0     		b	.L15
 276              	.L17:
 349:..\u8g2\csrc/u8x8_d_st75256.c ****   }
 350:..\u8g2\csrc/u8x8_d_st75256.c ****   else if  ( msg == U8X8_MSG_DISPLAY_SET_FLIP_MODE )
 277              		.loc 1 350 0
 278 0036 0D2C     		cmp	r4, #13
 279 0038 15D1     		bne	.L15
 351:..\u8g2\csrc/u8x8_d_st75256.c ****   {
 352:..\u8g2\csrc/u8x8_d_st75256.c ****     if ( arg_int == 0 )
 280              		.loc 1 352 0
 281 003a 4EB9     		cbnz	r6, .L18
 353:..\u8g2\csrc/u8x8_d_st75256.c ****     {
 354:..\u8g2\csrc/u8x8_d_st75256.c ****       u8x8_cad_SendSequence(u8x8, u8x8_d_st75256_jlx256128_flip0_seq);
 282              		.loc 1 354 0
 283 003c 0D49     		ldr	r1, .L21+8
 284 003e 2846     		mov	r0, r5
 285 0040 FFF7FEFF 		bl	u8x8_cad_SendSequence
 286              	.LVL43:
 355:..\u8g2\csrc/u8x8_d_st75256.c ****       u8x8->x_offset = u8x8->display_info->default_x_offset;
 287              		.loc 1 355 0
 288 0044 2B68     		ldr	r3, [r5]
 289 0046 9B7C     		ldrb	r3, [r3, #18]	@ zero_extendqisi2
 290 0048 85F82230 		strb	r3, [r5, #34]
 356:..\u8g2\csrc/u8x8_d_st75256.c ****     }
 357:..\u8g2\csrc/u8x8_d_st75256.c ****     else
 358:..\u8g2\csrc/u8x8_d_st75256.c ****     {
 359:..\u8g2\csrc/u8x8_d_st75256.c ****       u8x8_cad_SendSequence(u8x8, u8x8_d_st75256_jlx256128_flip1_seq);
 360:..\u8g2\csrc/u8x8_d_st75256.c ****       u8x8->x_offset = u8x8->display_info->flipmode_x_offset;
 361:..\u8g2\csrc/u8x8_d_st75256.c ****     }
 362:..\u8g2\csrc/u8x8_d_st75256.c ****     return 1;
 291              		.loc 1 362 0
ARM GAS  C:\Users\brian\AppData\Local\Temp\cckfkOf3.s 			page 13


 292 004c 0123     		movs	r3, #1
 293 004e 0AE0     		b	.L15
 294              	.L18:
 359:..\u8g2\csrc/u8x8_d_st75256.c ****       u8x8->x_offset = u8x8->display_info->flipmode_x_offset;
 295              		.loc 1 359 0
 296 0050 0949     		ldr	r1, .L21+12
 297 0052 2846     		mov	r0, r5
 298 0054 FFF7FEFF 		bl	u8x8_cad_SendSequence
 299              	.LVL44:
 360:..\u8g2\csrc/u8x8_d_st75256.c ****     }
 300              		.loc 1 360 0
 301 0058 2B68     		ldr	r3, [r5]
 302 005a DB7C     		ldrb	r3, [r3, #19]	@ zero_extendqisi2
 303 005c 85F82230 		strb	r3, [r5, #34]
 304              		.loc 1 362 0
 305 0060 0123     		movs	r3, #1
 306 0062 00E0     		b	.L15
 307              	.L19:
 337:..\u8g2\csrc/u8x8_d_st75256.c ****   if ( msg == U8X8_MSG_DISPLAY_SETUP_MEMORY )
 308              		.loc 1 337 0
 309 0064 0123     		movs	r3, #1
 310              	.L15:
 363:..\u8g2\csrc/u8x8_d_st75256.c ****   }
 364:..\u8g2\csrc/u8x8_d_st75256.c ****   return 0;
 365:..\u8g2\csrc/u8x8_d_st75256.c **** }
 311              		.loc 1 365 0
 312 0066 1846     		mov	r0, r3
 313 0068 70BD     		pop	{r4, r5, r6, pc}
 314              	.LVL45:
 315              	.L22:
 316 006a 00BF     		.align	2
 317              	.L21:
 318 006c 18000000 		.word	.LANCHOR0+24
 319 0070 30000000 		.word	.LANCHOR0+48
 320 0074 9C000000 		.word	.LANCHOR0+156
 321 0078 AC000000 		.word	.LANCHOR0+172
 322              		.cfi_endproc
 323              	.LFE1:
 324              		.size	u8x8_d_st75256_jlx256128, .-u8x8_d_st75256_jlx256128
 325              		.section	.text.u8x8_d_st75256_wo256x128,"ax",%progbits
 326              		.align	2
 327              		.global	u8x8_d_st75256_wo256x128
 328              		.thumb
 329              		.thumb_func
 330              		.type	u8x8_d_st75256_wo256x128, %function
 331              	u8x8_d_st75256_wo256x128:
 332              	.LFB2:
 366:..\u8g2\csrc/u8x8_d_st75256.c **** 
 367:..\u8g2\csrc/u8x8_d_st75256.c **** 
 368:..\u8g2\csrc/u8x8_d_st75256.c **** 
 369:..\u8g2\csrc/u8x8_d_st75256.c **** /*=============================================*/
 370:..\u8g2\csrc/u8x8_d_st75256.c **** /* WO256X128, https://github.com/olikraus/u8g2/issues/891  */
 371:..\u8g2\csrc/u8x8_d_st75256.c **** 
 372:..\u8g2\csrc/u8x8_d_st75256.c **** static const u8x8_display_info_t u8x8_st75256_wo256x128_display_info =
 373:..\u8g2\csrc/u8x8_d_st75256.c **** {
 374:..\u8g2\csrc/u8x8_d_st75256.c ****   /* chip_enable_level = */ 0,
 375:..\u8g2\csrc/u8x8_d_st75256.c ****   /* chip_disable_level = */ 1,
ARM GAS  C:\Users\brian\AppData\Local\Temp\cckfkOf3.s 			page 14


 376:..\u8g2\csrc/u8x8_d_st75256.c ****   
 377:..\u8g2\csrc/u8x8_d_st75256.c ****   /* post_chip_enable_wait_ns = */ 20,
 378:..\u8g2\csrc/u8x8_d_st75256.c ****   /* pre_chip_disable_wait_ns = */ 20,
 379:..\u8g2\csrc/u8x8_d_st75256.c ****   /* reset_pulse_width_ms = */ 5, 	
 380:..\u8g2\csrc/u8x8_d_st75256.c ****   /* post_reset_wait_ms = */ 5, 		/**/
 381:..\u8g2\csrc/u8x8_d_st75256.c ****   /* sda_setup_time_ns = */ 20,		/* */
 382:..\u8g2\csrc/u8x8_d_st75256.c ****   /* sck_pulse_width_ns = */ 40,	/*  */
 383:..\u8g2\csrc/u8x8_d_st75256.c ****   /* sck_clock_hz = */ 4000000UL,	/* since Arduino 1.6.0, the SPI bus speed in Hz. Should be  10000
 384:..\u8g2\csrc/u8x8_d_st75256.c ****   /* spi_mode = */ 0,		/* active high, rising edge */
 385:..\u8g2\csrc/u8x8_d_st75256.c ****   /* i2c_bus_clock_100kHz = */ 4,	/* 400KHz */
 386:..\u8g2\csrc/u8x8_d_st75256.c ****   /* data_setup_time_ns = */ 15,
 387:..\u8g2\csrc/u8x8_d_st75256.c ****   /* write_pulse_width_ns = */ 70,	
 388:..\u8g2\csrc/u8x8_d_st75256.c ****   /* tile_width = */ 32,
 389:..\u8g2\csrc/u8x8_d_st75256.c ****   /* tile_hight = */ 16,
 390:..\u8g2\csrc/u8x8_d_st75256.c ****   /* default_x_offset = */ 5,	/* must be 0, because this is checked also for normal mode */
 391:..\u8g2\csrc/u8x8_d_st75256.c ****   /* flipmode_x_offset = */ 0,		/* used as y offset */
 392:..\u8g2\csrc/u8x8_d_st75256.c ****   /* pixel_width = */ 256,
 393:..\u8g2\csrc/u8x8_d_st75256.c ****   /* pixel_height = */ 128
 394:..\u8g2\csrc/u8x8_d_st75256.c **** };
 395:..\u8g2\csrc/u8x8_d_st75256.c **** 
 396:..\u8g2\csrc/u8x8_d_st75256.c **** 
 397:..\u8g2\csrc/u8x8_d_st75256.c **** static const uint8_t u8x8_d_st75256_wo256x128_init_seq[] = {
 398:..\u8g2\csrc/u8x8_d_st75256.c ****   U8X8_START_TRANSFER(),             	/* enable chip, delay is part of the transfer start */
 399:..\u8g2\csrc/u8x8_d_st75256.c ****   
 400:..\u8g2\csrc/u8x8_d_st75256.c ****   U8X8_DLY(20),
 401:..\u8g2\csrc/u8x8_d_st75256.c **** 
 402:..\u8g2\csrc/u8x8_d_st75256.c ****   U8X8_C( 0x030 ),				/* select 00 commands */
 403:..\u8g2\csrc/u8x8_d_st75256.c ****   U8X8_C( 0x094 ),				/* sleep out */
 404:..\u8g2\csrc/u8x8_d_st75256.c **** 
 405:..\u8g2\csrc/u8x8_d_st75256.c ****   //U8X8_C( 0x030 ),				/* select 00 commands */
 406:..\u8g2\csrc/u8x8_d_st75256.c ****   U8X8_C( 0x0ae ),				/* display off */
 407:..\u8g2\csrc/u8x8_d_st75256.c **** 
 408:..\u8g2\csrc/u8x8_d_st75256.c ****   U8X8_C( 0x031 ),				/* select 01 commands */
 409:..\u8g2\csrc/u8x8_d_st75256.c ****   U8X8_CA( 0x0d7, 0x09f ),		/* disable auto read */  
 410:..\u8g2\csrc/u8x8_d_st75256.c **** 
 411:..\u8g2\csrc/u8x8_d_st75256.c ****   //U8X8_C( 0x031 ),				/* select 01 commands */
 412:..\u8g2\csrc/u8x8_d_st75256.c ****   U8X8_C( 0x032 ),				/* analog circuit set */
 413:..\u8g2\csrc/u8x8_d_st75256.c ****   U8X8_A( 0x000 ),				/* code example: OSC Frequency adjustment */
 414:..\u8g2\csrc/u8x8_d_st75256.c ****   U8X8_A( 0x001 ),				/* Frequency on booster capacitors 1 = 6KHz? */
 415:..\u8g2\csrc/u8x8_d_st75256.c ****   U8X8_A( 0x000 ),				/* Bias: 1: 1/13, 2: 1/12, 3: 1/11, 4:1/10, 5:1/9 */
 416:..\u8g2\csrc/u8x8_d_st75256.c ****     
 417:..\u8g2\csrc/u8x8_d_st75256.c ****   //U8X8_C( 0x031 ),				/* select 01 commands */
 418:..\u8g2\csrc/u8x8_d_st75256.c ****   U8X8_C( 0x020 ),				/* gray levels */
 419:..\u8g2\csrc/u8x8_d_st75256.c ****   U8X8_A( 0x01 ),
 420:..\u8g2\csrc/u8x8_d_st75256.c ****   U8X8_A( 0x03 ),
 421:..\u8g2\csrc/u8x8_d_st75256.c ****   U8X8_A( 0x05 ),
 422:..\u8g2\csrc/u8x8_d_st75256.c ****   U8X8_A( 0x07 ),
 423:..\u8g2\csrc/u8x8_d_st75256.c ****   U8X8_A( 0x09),
 424:..\u8g2\csrc/u8x8_d_st75256.c ****   U8X8_A( 0x0b ),
 425:..\u8g2\csrc/u8x8_d_st75256.c ****   U8X8_A( 0x0d ),
 426:..\u8g2\csrc/u8x8_d_st75256.c ****   U8X8_A( 0x10 ),
 427:..\u8g2\csrc/u8x8_d_st75256.c ****   U8X8_A( 0x11 ),
 428:..\u8g2\csrc/u8x8_d_st75256.c ****   U8X8_A( 0x13 ),
 429:..\u8g2\csrc/u8x8_d_st75256.c ****   U8X8_A( 0x15 ),
 430:..\u8g2\csrc/u8x8_d_st75256.c ****   U8X8_A( 0x17 ),
 431:..\u8g2\csrc/u8x8_d_st75256.c ****   U8X8_A( 0x19 ),
 432:..\u8g2\csrc/u8x8_d_st75256.c ****   U8X8_A( 0x1b ),
ARM GAS  C:\Users\brian\AppData\Local\Temp\cckfkOf3.s 			page 15


 433:..\u8g2\csrc/u8x8_d_st75256.c ****   U8X8_A( 0x1d ),
 434:..\u8g2\csrc/u8x8_d_st75256.c ****   U8X8_A( 0x1f ),
 435:..\u8g2\csrc/u8x8_d_st75256.c ****  
 436:..\u8g2\csrc/u8x8_d_st75256.c ****   
 437:..\u8g2\csrc/u8x8_d_st75256.c ****   U8X8_C( 0x030 ),				/* select 00 commands */
 438:..\u8g2\csrc/u8x8_d_st75256.c ****   U8X8_CAA(0x75, 0, 0x4f),		/* row range */
 439:..\u8g2\csrc/u8x8_d_st75256.c ****   U8X8_CAA(0x15, 0, 255),		/* col range */
 440:..\u8g2\csrc/u8x8_d_st75256.c ****   
 441:..\u8g2\csrc/u8x8_d_st75256.c ****   //U8X8_C( 0x030 ),				/* select 00 commands */
 442:..\u8g2\csrc/u8x8_d_st75256.c ****   U8X8_CA( 0xbc, 0x01 ),			/* data scan dir */
 443:..\u8g2\csrc/u8x8_d_st75256.c ****   U8X8_A( 0xa6 ),				/* ??? */
 444:..\u8g2\csrc/u8x8_d_st75256.c **** 
 445:..\u8g2\csrc/u8x8_d_st75256.c ****   //U8X8_C( 0x030 ),				/* select 00 commands */
 446:..\u8g2\csrc/u8x8_d_st75256.c ****   U8X8_C( 0x008 ),				/* data format LSB top */
 447:..\u8g2\csrc/u8x8_d_st75256.c **** 
 448:..\u8g2\csrc/u8x8_d_st75256.c ****   //U8X8_C( 0x030 ),				/* select 00 commands */ 
 449:..\u8g2\csrc/u8x8_d_st75256.c ****   U8X8_C( 0xca ),				/* display control, 3 args follow  */
 450:..\u8g2\csrc/u8x8_d_st75256.c ****   U8X8_A( 0x00 ),				/* 0x00: no clock division, 0x04: devide clock */
 451:..\u8g2\csrc/u8x8_d_st75256.c ****   U8X8_A( 0x7f ),				/* 1/160 duty value from the DS example code */
 452:..\u8g2\csrc/u8x8_d_st75256.c ****   U8X8_A( 0x20 ),				/* nline off */ 
 453:..\u8g2\csrc/u8x8_d_st75256.c **** 
 454:..\u8g2\csrc/u8x8_d_st75256.c ****   //U8X8_C( 0x030 ),				/* select 00 commands */ 
 455:..\u8g2\csrc/u8x8_d_st75256.c ****   U8X8_CA( 0x0f0, 0x010 ),		/* monochrome mode  = 0x010*/
 456:..\u8g2\csrc/u8x8_d_st75256.c **** 
 457:..\u8g2\csrc/u8x8_d_st75256.c ****   //U8X8_C( 0x030 ),				/* select 00 commands */
 458:..\u8g2\csrc/u8x8_d_st75256.c ****   U8X8_CAA( 0x81, 0x36, 0x05 ),	/* Volume control */
 459:..\u8g2\csrc/u8x8_d_st75256.c **** 
 460:..\u8g2\csrc/u8x8_d_st75256.c ****   //U8X8_C( 0x030 ),				/* select 00 commands */
 461:..\u8g2\csrc/u8x8_d_st75256.c ****   U8X8_CA( 0x020, 0x00b ),		/* Power control: Regulator, follower & booster on */
 462:..\u8g2\csrc/u8x8_d_st75256.c ****   U8X8_DLY(100),
 463:..\u8g2\csrc/u8x8_d_st75256.c **** 
 464:..\u8g2\csrc/u8x8_d_st75256.c ****   U8X8_END_TRANSFER(),             	/* disable chip */
 465:..\u8g2\csrc/u8x8_d_st75256.c ****   U8X8_END()             			/* end of sequence */
 466:..\u8g2\csrc/u8x8_d_st75256.c **** };
 467:..\u8g2\csrc/u8x8_d_st75256.c **** 
 468:..\u8g2\csrc/u8x8_d_st75256.c **** 
 469:..\u8g2\csrc/u8x8_d_st75256.c **** uint8_t u8x8_d_st75256_wo256x128(u8x8_t *u8x8, uint8_t msg, uint8_t arg_int, void *arg_ptr)
 470:..\u8g2\csrc/u8x8_d_st75256.c **** {
 333              		.loc 1 470 0
 334              		.cfi_startproc
 335              		@ args = 0, pretend = 0, frame = 0
 336              		@ frame_needed = 0, uses_anonymous_args = 0
 337              	.LVL46:
 338 0000 70B5     		push	{r4, r5, r6, lr}
 339              		.cfi_def_cfa_offset 16
 340              		.cfi_offset 4, -16
 341              		.cfi_offset 5, -12
 342              		.cfi_offset 6, -8
 343              		.cfi_offset 14, -4
 344 0002 0546     		mov	r5, r0
 345 0004 0C46     		mov	r4, r1
 346 0006 1646     		mov	r6, r2
 471:..\u8g2\csrc/u8x8_d_st75256.c ****   if ( u8x8_d_st75256_256x128_generic(u8x8, msg, arg_int, arg_ptr) != 0 )
 347              		.loc 1 471 0
 348 0008 FFF7FEFF 		bl	u8x8_d_st75256_256x128_generic
 349              	.LVL47:
 350 000c 50BB     		cbnz	r0, .L28
ARM GAS  C:\Users\brian\AppData\Local\Temp\cckfkOf3.s 			page 16


 351 000e 0346     		mov	r3, r0
 472:..\u8g2\csrc/u8x8_d_st75256.c ****     return 1;
 473:..\u8g2\csrc/u8x8_d_st75256.c ****   if ( msg == U8X8_MSG_DISPLAY_SETUP_MEMORY )
 352              		.loc 1 473 0
 353 0010 092C     		cmp	r4, #9
 354 0012 05D1     		bne	.L25
 474:..\u8g2\csrc/u8x8_d_st75256.c ****   {
 475:..\u8g2\csrc/u8x8_d_st75256.c ****     //u8x8_SetI2CAddress(u8x8, 0x078);		/* lowest I2C adr of the ST75256 */
 476:..\u8g2\csrc/u8x8_d_st75256.c ****     u8x8_d_helper_display_setup_memory(u8x8, &u8x8_st75256_wo256x128_display_info);
 355              		.loc 1 476 0
 356 0014 1549     		ldr	r1, .L30
 357 0016 2846     		mov	r0, r5
 358 0018 FFF7FEFF 		bl	u8x8_d_helper_display_setup_memory
 359              	.LVL48:
 477:..\u8g2\csrc/u8x8_d_st75256.c ****     return 1;
 360              		.loc 1 477 0
 361 001c 0123     		movs	r3, #1
 362 001e 22E0     		b	.L24
 363              	.L25:
 478:..\u8g2\csrc/u8x8_d_st75256.c ****   }
 479:..\u8g2\csrc/u8x8_d_st75256.c ****   else if ( msg == U8X8_MSG_DISPLAY_INIT )
 364              		.loc 1 479 0
 365 0020 0A2C     		cmp	r4, #10
 366 0022 08D1     		bne	.L26
 480:..\u8g2\csrc/u8x8_d_st75256.c ****   {
 481:..\u8g2\csrc/u8x8_d_st75256.c ****     u8x8_d_helper_display_init(u8x8);
 367              		.loc 1 481 0
 368 0024 2846     		mov	r0, r5
 369 0026 FFF7FEFF 		bl	u8x8_d_helper_display_init
 370              	.LVL49:
 482:..\u8g2\csrc/u8x8_d_st75256.c ****     u8x8_cad_SendSequence(u8x8, u8x8_d_st75256_wo256x128_init_seq);    
 371              		.loc 1 482 0
 372 002a 1149     		ldr	r1, .L30+4
 373 002c 2846     		mov	r0, r5
 374 002e FFF7FEFF 		bl	u8x8_cad_SendSequence
 375              	.LVL50:
 483:..\u8g2\csrc/u8x8_d_st75256.c ****     return 1;
 376              		.loc 1 483 0
 377 0032 0123     		movs	r3, #1
 378 0034 17E0     		b	.L24
 379              	.L26:
 484:..\u8g2\csrc/u8x8_d_st75256.c ****   }
 485:..\u8g2\csrc/u8x8_d_st75256.c ****   else if  ( msg == U8X8_MSG_DISPLAY_SET_FLIP_MODE )
 380              		.loc 1 485 0
 381 0036 0D2C     		cmp	r4, #13
 382 0038 15D1     		bne	.L24
 486:..\u8g2\csrc/u8x8_d_st75256.c ****   {
 487:..\u8g2\csrc/u8x8_d_st75256.c ****     if ( arg_int == 0 )
 383              		.loc 1 487 0
 384 003a 4EB9     		cbnz	r6, .L27
 488:..\u8g2\csrc/u8x8_d_st75256.c ****     {
 489:..\u8g2\csrc/u8x8_d_st75256.c ****       u8x8_cad_SendSequence(u8x8, u8x8_d_st75256_jlx172104_flip1_seq);	// this matches the init seq
 385              		.loc 1 489 0
 386 003c 0D49     		ldr	r1, .L30+8
 387 003e 2846     		mov	r0, r5
 388 0040 FFF7FEFF 		bl	u8x8_cad_SendSequence
 389              	.LVL51:
ARM GAS  C:\Users\brian\AppData\Local\Temp\cckfkOf3.s 			page 17


 490:..\u8g2\csrc/u8x8_d_st75256.c ****       u8x8->x_offset = u8x8->display_info->default_x_offset;
 390              		.loc 1 490 0
 391 0044 2B68     		ldr	r3, [r5]
 392 0046 9B7C     		ldrb	r3, [r3, #18]	@ zero_extendqisi2
 393 0048 85F82230 		strb	r3, [r5, #34]
 491:..\u8g2\csrc/u8x8_d_st75256.c ****     }
 492:..\u8g2\csrc/u8x8_d_st75256.c ****     else
 493:..\u8g2\csrc/u8x8_d_st75256.c ****     {
 494:..\u8g2\csrc/u8x8_d_st75256.c ****       u8x8_cad_SendSequence(u8x8, u8x8_d_st75256_jlx172104_flip0_seq);
 495:..\u8g2\csrc/u8x8_d_st75256.c ****       u8x8->x_offset = u8x8->display_info->flipmode_x_offset;
 496:..\u8g2\csrc/u8x8_d_st75256.c ****     }
 497:..\u8g2\csrc/u8x8_d_st75256.c ****     return 1;
 394              		.loc 1 497 0
 395 004c 0123     		movs	r3, #1
 396 004e 0AE0     		b	.L24
 397              	.L27:
 494:..\u8g2\csrc/u8x8_d_st75256.c ****       u8x8->x_offset = u8x8->display_info->flipmode_x_offset;
 398              		.loc 1 494 0
 399 0050 0949     		ldr	r1, .L30+12
 400 0052 2846     		mov	r0, r5
 401 0054 FFF7FEFF 		bl	u8x8_cad_SendSequence
 402              	.LVL52:
 495:..\u8g2\csrc/u8x8_d_st75256.c ****     }
 403              		.loc 1 495 0
 404 0058 2B68     		ldr	r3, [r5]
 405 005a DB7C     		ldrb	r3, [r3, #19]	@ zero_extendqisi2
 406 005c 85F82230 		strb	r3, [r5, #34]
 407              		.loc 1 497 0
 408 0060 0123     		movs	r3, #1
 409 0062 00E0     		b	.L24
 410              	.L28:
 472:..\u8g2\csrc/u8x8_d_st75256.c ****   if ( msg == U8X8_MSG_DISPLAY_SETUP_MEMORY )
 411              		.loc 1 472 0
 412 0064 0123     		movs	r3, #1
 413              	.L24:
 498:..\u8g2\csrc/u8x8_d_st75256.c ****   }
 499:..\u8g2\csrc/u8x8_d_st75256.c ****   return 0;
 500:..\u8g2\csrc/u8x8_d_st75256.c **** }
 414              		.loc 1 500 0
 415 0066 1846     		mov	r0, r3
 416 0068 70BD     		pop	{r4, r5, r6, pc}
 417              	.LVL53:
 418              	.L31:
 419 006a 00BF     		.align	2
 420              	.L30:
 421 006c BC000000 		.word	.LANCHOR0+188
 422 0070 D4000000 		.word	.LANCHOR0+212
 423 0074 40010000 		.word	.LANCHOR0+320
 424 0078 50010000 		.word	.LANCHOR0+336
 425              		.cfi_endproc
 426              	.LFE2:
 427              		.size	u8x8_d_st75256_wo256x128, .-u8x8_d_st75256_wo256x128
 428              		.section	.text.u8x8_d_st75256_jlx25664,"ax",%progbits
 429              		.align	2
 430              		.global	u8x8_d_st75256_jlx25664
 431              		.thumb
 432              		.thumb_func
ARM GAS  C:\Users\brian\AppData\Local\Temp\cckfkOf3.s 			page 18


 433              		.type	u8x8_d_st75256_jlx25664, %function
 434              	u8x8_d_st75256_jlx25664:
 435              	.LFB3:
 501:..\u8g2\csrc/u8x8_d_st75256.c **** 
 502:..\u8g2\csrc/u8x8_d_st75256.c **** 
 503:..\u8g2\csrc/u8x8_d_st75256.c **** /*=============================================*/
 504:..\u8g2\csrc/u8x8_d_st75256.c **** /* JLX25664 */
 505:..\u8g2\csrc/u8x8_d_st75256.c **** 
 506:..\u8g2\csrc/u8x8_d_st75256.c **** static const u8x8_display_info_t u8x8_st75256_256x64_display_info =
 507:..\u8g2\csrc/u8x8_d_st75256.c **** {
 508:..\u8g2\csrc/u8x8_d_st75256.c ****   /* chip_enable_level = */ 0,
 509:..\u8g2\csrc/u8x8_d_st75256.c ****   /* chip_disable_level = */ 1,
 510:..\u8g2\csrc/u8x8_d_st75256.c ****   
 511:..\u8g2\csrc/u8x8_d_st75256.c ****   /* post_chip_enable_wait_ns = */ 20,
 512:..\u8g2\csrc/u8x8_d_st75256.c ****   /* pre_chip_disable_wait_ns = */ 20,
 513:..\u8g2\csrc/u8x8_d_st75256.c ****   /* reset_pulse_width_ms = */ 5, 	
 514:..\u8g2\csrc/u8x8_d_st75256.c ****   /* post_reset_wait_ms = */ 5, 		/**/
 515:..\u8g2\csrc/u8x8_d_st75256.c ****   /* sda_setup_time_ns = */ 20,		/* */
 516:..\u8g2\csrc/u8x8_d_st75256.c ****   /* sck_pulse_width_ns = */ 40,	/*  */
 517:..\u8g2\csrc/u8x8_d_st75256.c ****   /* sck_clock_hz = */ 4000000UL,	/* since Arduino 1.6.0, the SPI bus speed in Hz. Should be  10000
 518:..\u8g2\csrc/u8x8_d_st75256.c ****   /* spi_mode = */ 0,		/* active high, rising edge */
 519:..\u8g2\csrc/u8x8_d_st75256.c ****   /* i2c_bus_clock_100kHz = */ 4,	/* 400KHz */
 520:..\u8g2\csrc/u8x8_d_st75256.c ****   /* data_setup_time_ns = */ 15,
 521:..\u8g2\csrc/u8x8_d_st75256.c ****   /* write_pulse_width_ns = */ 70,	
 522:..\u8g2\csrc/u8x8_d_st75256.c ****   /* tile_width = */ 32,
 523:..\u8g2\csrc/u8x8_d_st75256.c ****   /* tile_hight = */ 8,
 524:..\u8g2\csrc/u8x8_d_st75256.c ****   /* default_x_offset = */ 0,	/* must be 0, because this is checked also for normal mode */
 525:..\u8g2\csrc/u8x8_d_st75256.c ****   /* flipmode_x_offset = */ 13,		/* used as y offset */
 526:..\u8g2\csrc/u8x8_d_st75256.c ****   /* pixel_width = */ 256,
 527:..\u8g2\csrc/u8x8_d_st75256.c ****   /* pixel_height = */ 64
 528:..\u8g2\csrc/u8x8_d_st75256.c **** };
 529:..\u8g2\csrc/u8x8_d_st75256.c **** 
 530:..\u8g2\csrc/u8x8_d_st75256.c **** 
 531:..\u8g2\csrc/u8x8_d_st75256.c **** static const uint8_t u8x8_d_st75256_256x64_init_seq[] = {
 532:..\u8g2\csrc/u8x8_d_st75256.c ****   U8X8_START_TRANSFER(),             	/* enable chip, delay is part of the transfer start */
 533:..\u8g2\csrc/u8x8_d_st75256.c ****   
 534:..\u8g2\csrc/u8x8_d_st75256.c ****   U8X8_DLY(20),
 535:..\u8g2\csrc/u8x8_d_st75256.c **** 
 536:..\u8g2\csrc/u8x8_d_st75256.c ****   U8X8_C( 0x030 ),				/* select 00 commands */
 537:..\u8g2\csrc/u8x8_d_st75256.c ****   U8X8_C( 0x094 ),				/* sleep out */
 538:..\u8g2\csrc/u8x8_d_st75256.c **** 
 539:..\u8g2\csrc/u8x8_d_st75256.c ****   //U8X8_C( 0x030 ),				/* select 00 commands */
 540:..\u8g2\csrc/u8x8_d_st75256.c ****   U8X8_C( 0x0ae ),				/* display off */
 541:..\u8g2\csrc/u8x8_d_st75256.c **** 
 542:..\u8g2\csrc/u8x8_d_st75256.c ****   U8X8_C( 0x031 ),				/* select 01 commands */
 543:..\u8g2\csrc/u8x8_d_st75256.c ****   U8X8_CA( 0x0d7, 0x09f ),		/* disable auto read */  
 544:..\u8g2\csrc/u8x8_d_st75256.c **** 
 545:..\u8g2\csrc/u8x8_d_st75256.c ****   //U8X8_C( 0x031 ),				/* select 01 commands */
 546:..\u8g2\csrc/u8x8_d_st75256.c ****   U8X8_C( 0x032 ),				/* analog circuit set */
 547:..\u8g2\csrc/u8x8_d_st75256.c ****   U8X8_A( 0x000 ),				/* code example: OSC Frequency adjustment */
 548:..\u8g2\csrc/u8x8_d_st75256.c ****   U8X8_A( 0x001 ),				/* Frequency on booster capacitors 1 = 6KHz? */
 549:..\u8g2\csrc/u8x8_d_st75256.c ****   U8X8_A( 0x005 ),				/* Bias: 1: 1/13, 2: 1/12, 3: 1/11, 4:1/10, 5:1/9 */
 550:..\u8g2\csrc/u8x8_d_st75256.c ****     
 551:..\u8g2\csrc/u8x8_d_st75256.c ****   //U8X8_C( 0x031 ),				/* select 01 commands */
 552:..\u8g2\csrc/u8x8_d_st75256.c ****   U8X8_C( 0x020 ),				/* gray levels */
 553:..\u8g2\csrc/u8x8_d_st75256.c ****   U8X8_A( 0x01 ),
 554:..\u8g2\csrc/u8x8_d_st75256.c ****   U8X8_A( 0x03 ),
ARM GAS  C:\Users\brian\AppData\Local\Temp\cckfkOf3.s 			page 19


 555:..\u8g2\csrc/u8x8_d_st75256.c ****   U8X8_A( 0x05 ),
 556:..\u8g2\csrc/u8x8_d_st75256.c ****   U8X8_A( 0x07 ),
 557:..\u8g2\csrc/u8x8_d_st75256.c ****   U8X8_A( 0x09),
 558:..\u8g2\csrc/u8x8_d_st75256.c ****   U8X8_A( 0x0b ),
 559:..\u8g2\csrc/u8x8_d_st75256.c ****   U8X8_A( 0x0d ),
 560:..\u8g2\csrc/u8x8_d_st75256.c ****   U8X8_A( 0x10 ),
 561:..\u8g2\csrc/u8x8_d_st75256.c ****   U8X8_A( 0x11 ),
 562:..\u8g2\csrc/u8x8_d_st75256.c ****   U8X8_A( 0x13 ),
 563:..\u8g2\csrc/u8x8_d_st75256.c ****   U8X8_A( 0x15 ),
 564:..\u8g2\csrc/u8x8_d_st75256.c ****   U8X8_A( 0x17 ),
 565:..\u8g2\csrc/u8x8_d_st75256.c ****   U8X8_A( 0x19 ),
 566:..\u8g2\csrc/u8x8_d_st75256.c ****   U8X8_A( 0x1b ),
 567:..\u8g2\csrc/u8x8_d_st75256.c ****   U8X8_A( 0x1d ),
 568:..\u8g2\csrc/u8x8_d_st75256.c ****   U8X8_A( 0x1f ),
 569:..\u8g2\csrc/u8x8_d_st75256.c ****  
 570:..\u8g2\csrc/u8x8_d_st75256.c ****   
 571:..\u8g2\csrc/u8x8_d_st75256.c ****   U8X8_C( 0x030 ),				/* select 00 commands */
 572:..\u8g2\csrc/u8x8_d_st75256.c ****   U8X8_CAA(0x75, 0, 0x1f),		/* row range */
 573:..\u8g2\csrc/u8x8_d_st75256.c ****   U8X8_CAA(0x15, 0, 255),		/* col range */
 574:..\u8g2\csrc/u8x8_d_st75256.c ****   
 575:..\u8g2\csrc/u8x8_d_st75256.c ****   //U8X8_C( 0x030 ),				/* select 00 commands */
 576:..\u8g2\csrc/u8x8_d_st75256.c ****   U8X8_CA( 0xbc, 0x00 ),			/* data scan dir */
 577:..\u8g2\csrc/u8x8_d_st75256.c ****   U8X8_A( 0xa6 ),				/* ??? */
 578:..\u8g2\csrc/u8x8_d_st75256.c **** 
 579:..\u8g2\csrc/u8x8_d_st75256.c ****   //U8X8_C( 0x030 ),				/* select 00 commands */
 580:..\u8g2\csrc/u8x8_d_st75256.c ****   U8X8_C( 0x00c ),				/* data format LSB top */
 581:..\u8g2\csrc/u8x8_d_st75256.c **** 
 582:..\u8g2\csrc/u8x8_d_st75256.c ****   //U8X8_C( 0x030 ),				/* select 00 commands */ 
 583:..\u8g2\csrc/u8x8_d_st75256.c ****   U8X8_C( 0xca ),				/* display control, 3 args follow  */
 584:..\u8g2\csrc/u8x8_d_st75256.c ****   U8X8_A( 0x00 ),				/* 0x00: no clock division, 0x04: devide clock */
 585:..\u8g2\csrc/u8x8_d_st75256.c ****   U8X8_A( 0x3f ),				/* 64 duty value from the DS example code */
 586:..\u8g2\csrc/u8x8_d_st75256.c ****   U8X8_A( 0x20 ),				/* nline off */ 
 587:..\u8g2\csrc/u8x8_d_st75256.c **** 
 588:..\u8g2\csrc/u8x8_d_st75256.c ****   //U8X8_C( 0x030 ),				/* select 00 commands */ 
 589:..\u8g2\csrc/u8x8_d_st75256.c ****   U8X8_CA( 0x0f0, 0x010 ),		/* monochrome mode  = 0x010*/
 590:..\u8g2\csrc/u8x8_d_st75256.c **** 
 591:..\u8g2\csrc/u8x8_d_st75256.c ****   //U8X8_C( 0x030 ),				/* select 00 commands */
 592:..\u8g2\csrc/u8x8_d_st75256.c ****   U8X8_CAA( 0x81, 012, 0x02 ),	/* Volume control */
 593:..\u8g2\csrc/u8x8_d_st75256.c **** 
 594:..\u8g2\csrc/u8x8_d_st75256.c ****   //U8X8_C( 0x030 ),				/* select 00 commands */
 595:..\u8g2\csrc/u8x8_d_st75256.c ****   U8X8_CA( 0x020, 0x00b ),		/* Power control: Regulator, follower & booster on */
 596:..\u8g2\csrc/u8x8_d_st75256.c ****   U8X8_DLY(100),
 597:..\u8g2\csrc/u8x8_d_st75256.c **** 
 598:..\u8g2\csrc/u8x8_d_st75256.c ****   U8X8_END_TRANSFER(),             	/* disable chip */
 599:..\u8g2\csrc/u8x8_d_st75256.c ****   U8X8_END()             			/* end of sequence */
 600:..\u8g2\csrc/u8x8_d_st75256.c **** };
 601:..\u8g2\csrc/u8x8_d_st75256.c **** 
 602:..\u8g2\csrc/u8x8_d_st75256.c **** 
 603:..\u8g2\csrc/u8x8_d_st75256.c **** uint8_t u8x8_d_st75256_jlx25664(u8x8_t *u8x8, uint8_t msg, uint8_t arg_int, void *arg_ptr)
 604:..\u8g2\csrc/u8x8_d_st75256.c **** {
 436              		.loc 1 604 0
 437              		.cfi_startproc
 438              		@ args = 0, pretend = 0, frame = 0
 439              		@ frame_needed = 0, uses_anonymous_args = 0
 440              	.LVL54:
 441 0000 70B5     		push	{r4, r5, r6, lr}
 442              		.cfi_def_cfa_offset 16
ARM GAS  C:\Users\brian\AppData\Local\Temp\cckfkOf3.s 			page 20


 443              		.cfi_offset 4, -16
 444              		.cfi_offset 5, -12
 445              		.cfi_offset 6, -8
 446              		.cfi_offset 14, -4
 447 0002 0546     		mov	r5, r0
 448 0004 0C46     		mov	r4, r1
 449 0006 1646     		mov	r6, r2
 605:..\u8g2\csrc/u8x8_d_st75256.c ****   if ( u8x8_d_st75256_256x128_generic(u8x8, msg, arg_int, arg_ptr) != 0 )
 450              		.loc 1 605 0
 451 0008 FFF7FEFF 		bl	u8x8_d_st75256_256x128_generic
 452              	.LVL55:
 453 000c 50BB     		cbnz	r0, .L37
 454 000e 0346     		mov	r3, r0
 606:..\u8g2\csrc/u8x8_d_st75256.c ****     return 1;
 607:..\u8g2\csrc/u8x8_d_st75256.c ****   if ( msg == U8X8_MSG_DISPLAY_SETUP_MEMORY )
 455              		.loc 1 607 0
 456 0010 092C     		cmp	r4, #9
 457 0012 05D1     		bne	.L34
 608:..\u8g2\csrc/u8x8_d_st75256.c ****   {
 609:..\u8g2\csrc/u8x8_d_st75256.c ****     //u8x8_SetI2CAddress(u8x8, 0x078);		/* lowest I2C adr of the ST75256 */
 610:..\u8g2\csrc/u8x8_d_st75256.c ****     u8x8_d_helper_display_setup_memory(u8x8, &u8x8_st75256_256x64_display_info);
 458              		.loc 1 610 0
 459 0014 1549     		ldr	r1, .L39
 460 0016 2846     		mov	r0, r5
 461 0018 FFF7FEFF 		bl	u8x8_d_helper_display_setup_memory
 462              	.LVL56:
 611:..\u8g2\csrc/u8x8_d_st75256.c ****     return 1;
 463              		.loc 1 611 0
 464 001c 0123     		movs	r3, #1
 465 001e 22E0     		b	.L33
 466              	.L34:
 612:..\u8g2\csrc/u8x8_d_st75256.c ****   }
 613:..\u8g2\csrc/u8x8_d_st75256.c ****   else if ( msg == U8X8_MSG_DISPLAY_INIT )
 467              		.loc 1 613 0
 468 0020 0A2C     		cmp	r4, #10
 469 0022 08D1     		bne	.L35
 614:..\u8g2\csrc/u8x8_d_st75256.c ****   {
 615:..\u8g2\csrc/u8x8_d_st75256.c ****     u8x8_d_helper_display_init(u8x8);
 470              		.loc 1 615 0
 471 0024 2846     		mov	r0, r5
 472 0026 FFF7FEFF 		bl	u8x8_d_helper_display_init
 473              	.LVL57:
 616:..\u8g2\csrc/u8x8_d_st75256.c ****     u8x8_cad_SendSequence(u8x8, u8x8_d_st75256_256x64_init_seq);    
 474              		.loc 1 616 0
 475 002a 1149     		ldr	r1, .L39+4
 476 002c 2846     		mov	r0, r5
 477 002e FFF7FEFF 		bl	u8x8_cad_SendSequence
 478              	.LVL58:
 617:..\u8g2\csrc/u8x8_d_st75256.c ****     return 1;
 479              		.loc 1 617 0
 480 0032 0123     		movs	r3, #1
 481 0034 17E0     		b	.L33
 482              	.L35:
 618:..\u8g2\csrc/u8x8_d_st75256.c ****   }
 619:..\u8g2\csrc/u8x8_d_st75256.c ****   else if  ( msg == U8X8_MSG_DISPLAY_SET_FLIP_MODE )
 483              		.loc 1 619 0
 484 0036 0D2C     		cmp	r4, #13
ARM GAS  C:\Users\brian\AppData\Local\Temp\cckfkOf3.s 			page 21


 485 0038 15D1     		bne	.L33
 620:..\u8g2\csrc/u8x8_d_st75256.c ****   {
 621:..\u8g2\csrc/u8x8_d_st75256.c ****     if ( arg_int == 0 )
 486              		.loc 1 621 0
 487 003a 4EB9     		cbnz	r6, .L36
 622:..\u8g2\csrc/u8x8_d_st75256.c ****     {
 623:..\u8g2\csrc/u8x8_d_st75256.c ****       u8x8_cad_SendSequence(u8x8, u8x8_d_st75256_jlx256128_flip0_seq);
 488              		.loc 1 623 0
 489 003c 0D49     		ldr	r1, .L39+8
 490 003e 2846     		mov	r0, r5
 491 0040 FFF7FEFF 		bl	u8x8_cad_SendSequence
 492              	.LVL59:
 624:..\u8g2\csrc/u8x8_d_st75256.c ****       u8x8->x_offset = u8x8->display_info->default_x_offset;
 493              		.loc 1 624 0
 494 0044 2B68     		ldr	r3, [r5]
 495 0046 9B7C     		ldrb	r3, [r3, #18]	@ zero_extendqisi2
 496 0048 85F82230 		strb	r3, [r5, #34]
 625:..\u8g2\csrc/u8x8_d_st75256.c ****     }
 626:..\u8g2\csrc/u8x8_d_st75256.c ****     else
 627:..\u8g2\csrc/u8x8_d_st75256.c ****     {
 628:..\u8g2\csrc/u8x8_d_st75256.c ****       u8x8_cad_SendSequence(u8x8, u8x8_d_st75256_jlx256128_flip1_seq);
 629:..\u8g2\csrc/u8x8_d_st75256.c ****       u8x8->x_offset = u8x8->display_info->flipmode_x_offset;
 630:..\u8g2\csrc/u8x8_d_st75256.c ****     }
 631:..\u8g2\csrc/u8x8_d_st75256.c ****     return 1;
 497              		.loc 1 631 0
 498 004c 0123     		movs	r3, #1
 499 004e 0AE0     		b	.L33
 500              	.L36:
 628:..\u8g2\csrc/u8x8_d_st75256.c ****       u8x8->x_offset = u8x8->display_info->flipmode_x_offset;
 501              		.loc 1 628 0
 502 0050 0949     		ldr	r1, .L39+12
 503 0052 2846     		mov	r0, r5
 504 0054 FFF7FEFF 		bl	u8x8_cad_SendSequence
 505              	.LVL60:
 629:..\u8g2\csrc/u8x8_d_st75256.c ****     }
 506              		.loc 1 629 0
 507 0058 2B68     		ldr	r3, [r5]
 508 005a DB7C     		ldrb	r3, [r3, #19]	@ zero_extendqisi2
 509 005c 85F82230 		strb	r3, [r5, #34]
 510              		.loc 1 631 0
 511 0060 0123     		movs	r3, #1
 512 0062 00E0     		b	.L33
 513              	.L37:
 606:..\u8g2\csrc/u8x8_d_st75256.c ****   if ( msg == U8X8_MSG_DISPLAY_SETUP_MEMORY )
 514              		.loc 1 606 0
 515 0064 0123     		movs	r3, #1
 516              	.L33:
 632:..\u8g2\csrc/u8x8_d_st75256.c ****   }
 633:..\u8g2\csrc/u8x8_d_st75256.c ****   return 0;
 634:..\u8g2\csrc/u8x8_d_st75256.c **** }
 517              		.loc 1 634 0
 518 0066 1846     		mov	r0, r3
 519 0068 70BD     		pop	{r4, r5, r6, pc}
 520              	.LVL61:
 521              	.L40:
 522 006a 00BF     		.align	2
 523              	.L39:
ARM GAS  C:\Users\brian\AppData\Local\Temp\cckfkOf3.s 			page 22


 524 006c 60010000 		.word	.LANCHOR0+352
 525 0070 78010000 		.word	.LANCHOR0+376
 526 0074 9C000000 		.word	.LANCHOR0+156
 527 0078 AC000000 		.word	.LANCHOR0+172
 528              		.cfi_endproc
 529              	.LFE3:
 530              		.size	u8x8_d_st75256_jlx25664, .-u8x8_d_st75256_jlx25664
 531              		.section	.text.u8x8_d_st75256_jlx172104,"ax",%progbits
 532              		.align	2
 533              		.global	u8x8_d_st75256_jlx172104
 534              		.thumb
 535              		.thumb_func
 536              		.type	u8x8_d_st75256_jlx172104, %function
 537              	u8x8_d_st75256_jlx172104:
 538              	.LFB4:
 635:..\u8g2\csrc/u8x8_d_st75256.c **** 
 636:..\u8g2\csrc/u8x8_d_st75256.c **** 
 637:..\u8g2\csrc/u8x8_d_st75256.c **** /*=============================================*/
 638:..\u8g2\csrc/u8x8_d_st75256.c **** /* JLX172104 LCD */
 639:..\u8g2\csrc/u8x8_d_st75256.c **** 
 640:..\u8g2\csrc/u8x8_d_st75256.c **** static const u8x8_display_info_t u8x8_st75256_172x104_display_info =
 641:..\u8g2\csrc/u8x8_d_st75256.c **** {
 642:..\u8g2\csrc/u8x8_d_st75256.c ****   /* chip_enable_level = */ 0,
 643:..\u8g2\csrc/u8x8_d_st75256.c ****   /* chip_disable_level = */ 1,
 644:..\u8g2\csrc/u8x8_d_st75256.c ****   
 645:..\u8g2\csrc/u8x8_d_st75256.c ****   /* post_chip_enable_wait_ns = */ 20,
 646:..\u8g2\csrc/u8x8_d_st75256.c ****   /* pre_chip_disable_wait_ns = */ 20,
 647:..\u8g2\csrc/u8x8_d_st75256.c ****   /* reset_pulse_width_ms = */ 5, 	
 648:..\u8g2\csrc/u8x8_d_st75256.c ****   /* post_reset_wait_ms = */ 5, 		/**/
 649:..\u8g2\csrc/u8x8_d_st75256.c ****   /* sda_setup_time_ns = */ 20,		/* */
 650:..\u8g2\csrc/u8x8_d_st75256.c ****   /* sck_pulse_width_ns = */ 40,	/*  */
 651:..\u8g2\csrc/u8x8_d_st75256.c ****   /* sck_clock_hz = */ 4000000UL,	/* since Arduino 1.6.0, the SPI bus speed in Hz. Should be  10000
 652:..\u8g2\csrc/u8x8_d_st75256.c ****   /* spi_mode = */ 0,		/* active high, rising edge */
 653:..\u8g2\csrc/u8x8_d_st75256.c ****   /* i2c_bus_clock_100kHz = */ 4,	/* 400KHz */
 654:..\u8g2\csrc/u8x8_d_st75256.c ****   /* data_setup_time_ns = */ 15,
 655:..\u8g2\csrc/u8x8_d_st75256.c ****   /* write_pulse_width_ns = */ 70,	
 656:..\u8g2\csrc/u8x8_d_st75256.c ****   /* tile_width = */ 22,			/* 22=176 */
 657:..\u8g2\csrc/u8x8_d_st75256.c ****   /* tile_hight = */ 13,
 658:..\u8g2\csrc/u8x8_d_st75256.c ****   /* default_x_offset = */ 84,	/*  */
 659:..\u8g2\csrc/u8x8_d_st75256.c ****   /* flipmode_x_offset = */ 0,		
 660:..\u8g2\csrc/u8x8_d_st75256.c ****   /* pixel_width = */ 172,
 661:..\u8g2\csrc/u8x8_d_st75256.c ****   /* pixel_height = */ 104
 662:..\u8g2\csrc/u8x8_d_st75256.c **** };
 663:..\u8g2\csrc/u8x8_d_st75256.c **** 
 664:..\u8g2\csrc/u8x8_d_st75256.c **** static const uint8_t u8x8_d_st75256_jlx172104_init_seq[] = {
 665:..\u8g2\csrc/u8x8_d_st75256.c ****   U8X8_START_TRANSFER(),             	/* enable chip, delay is part of the transfer start */
 666:..\u8g2\csrc/u8x8_d_st75256.c ****   
 667:..\u8g2\csrc/u8x8_d_st75256.c ****   U8X8_DLY(20),
 668:..\u8g2\csrc/u8x8_d_st75256.c **** 
 669:..\u8g2\csrc/u8x8_d_st75256.c ****   U8X8_C( 0x030 ),				/* select 00 commands */
 670:..\u8g2\csrc/u8x8_d_st75256.c ****   U8X8_C( 0x094 ),				/* sleep out */
 671:..\u8g2\csrc/u8x8_d_st75256.c **** 
 672:..\u8g2\csrc/u8x8_d_st75256.c ****   //U8X8_C( 0x030 ),				/* select 00 commands */
 673:..\u8g2\csrc/u8x8_d_st75256.c ****   U8X8_C( 0x0ae ),				/* display off */
 674:..\u8g2\csrc/u8x8_d_st75256.c **** 
 675:..\u8g2\csrc/u8x8_d_st75256.c ****   U8X8_C( 0x031 ),				/* select 01 commands */
 676:..\u8g2\csrc/u8x8_d_st75256.c ****   U8X8_CA( 0x0d7, 0x09f ),		/* disable auto read */  
ARM GAS  C:\Users\brian\AppData\Local\Temp\cckfkOf3.s 			page 23


 677:..\u8g2\csrc/u8x8_d_st75256.c **** 
 678:..\u8g2\csrc/u8x8_d_st75256.c ****   //U8X8_C( 0x031 ),				/* select 01 commands */
 679:..\u8g2\csrc/u8x8_d_st75256.c ****   U8X8_C( 0x032 ),				/* analog circuit set */
 680:..\u8g2\csrc/u8x8_d_st75256.c ****   U8X8_A( 0x000 ),				/* code example: OSC Frequency adjustment */
 681:..\u8g2\csrc/u8x8_d_st75256.c ****   U8X8_A( 0x001 ),				/* Frequency on booster capacitors 1 = 6KHz? */
 682:..\u8g2\csrc/u8x8_d_st75256.c ****   U8X8_A( 0x003 ),				/* Bias: 1: 1/13, 2: 1/12, 3: 1/11, 4:1/10, 5:1/9 */
 683:..\u8g2\csrc/u8x8_d_st75256.c ****     
 684:..\u8g2\csrc/u8x8_d_st75256.c ****   //U8X8_C( 0x031 ),				/* select 01 commands */
 685:..\u8g2\csrc/u8x8_d_st75256.c ****   U8X8_C( 0x020 ),				/* gray levels */
 686:..\u8g2\csrc/u8x8_d_st75256.c ****   U8X8_A( 0x01 ),
 687:..\u8g2\csrc/u8x8_d_st75256.c ****   U8X8_A( 0x03 ),
 688:..\u8g2\csrc/u8x8_d_st75256.c ****   U8X8_A( 0x05 ),
 689:..\u8g2\csrc/u8x8_d_st75256.c ****   U8X8_A( 0x07 ),
 690:..\u8g2\csrc/u8x8_d_st75256.c ****   U8X8_A( 0x09),
 691:..\u8g2\csrc/u8x8_d_st75256.c ****   U8X8_A( 0x0b ),
 692:..\u8g2\csrc/u8x8_d_st75256.c ****   U8X8_A( 0x0d ),
 693:..\u8g2\csrc/u8x8_d_st75256.c ****   U8X8_A( 0x10 ),
 694:..\u8g2\csrc/u8x8_d_st75256.c ****   U8X8_A( 0x11 ),
 695:..\u8g2\csrc/u8x8_d_st75256.c ****   U8X8_A( 0x13 ),
 696:..\u8g2\csrc/u8x8_d_st75256.c ****   U8X8_A( 0x15 ),
 697:..\u8g2\csrc/u8x8_d_st75256.c ****   U8X8_A( 0x17 ),
 698:..\u8g2\csrc/u8x8_d_st75256.c ****   U8X8_A( 0x19 ),
 699:..\u8g2\csrc/u8x8_d_st75256.c ****   U8X8_A( 0x1b ),
 700:..\u8g2\csrc/u8x8_d_st75256.c ****   U8X8_A( 0x1d ),
 701:..\u8g2\csrc/u8x8_d_st75256.c ****   U8X8_A( 0x1f ),
 702:..\u8g2\csrc/u8x8_d_st75256.c ****  
 703:..\u8g2\csrc/u8x8_d_st75256.c ****   
 704:..\u8g2\csrc/u8x8_d_st75256.c ****   U8X8_C( 0x030 ),				/* select 00 commands */
 705:..\u8g2\csrc/u8x8_d_st75256.c ****   U8X8_CAA(0x75, 0, 0x4f),		/* row range */
 706:..\u8g2\csrc/u8x8_d_st75256.c ****   U8X8_CAA(0x15, 0, 255),		/* col range */
 707:..\u8g2\csrc/u8x8_d_st75256.c ****   
 708:..\u8g2\csrc/u8x8_d_st75256.c ****   //U8X8_C( 0x030 ),				/* select 00 commands */
 709:..\u8g2\csrc/u8x8_d_st75256.c ****   U8X8_CA( 0xbc, 0x02 ),			/* data scan dir */
 710:..\u8g2\csrc/u8x8_d_st75256.c ****   U8X8_A( 0xa6 ),				/* ??? */
 711:..\u8g2\csrc/u8x8_d_st75256.c **** 
 712:..\u8g2\csrc/u8x8_d_st75256.c ****   //U8X8_C( 0x030 ),				/* select 00 commands */
 713:..\u8g2\csrc/u8x8_d_st75256.c ****   U8X8_C( 0x00c ),				/* data format LSB top */
 714:..\u8g2\csrc/u8x8_d_st75256.c **** 
 715:..\u8g2\csrc/u8x8_d_st75256.c ****   //U8X8_C( 0x030 ),				/* select 00 commands */ 
 716:..\u8g2\csrc/u8x8_d_st75256.c ****   U8X8_C( 0xca ),				/* display control, 3 args follow  */
 717:..\u8g2\csrc/u8x8_d_st75256.c ****   U8X8_A( 0x00 ),				/* 0x00: no clock division, 0x04: devide clock */
 718:..\u8g2\csrc/u8x8_d_st75256.c ****   U8X8_A( 0x9f ),				/* 1/160 duty value from the DS example code */
 719:..\u8g2\csrc/u8x8_d_st75256.c ****   U8X8_A( 0x20 ),				/* nline off */ 
 720:..\u8g2\csrc/u8x8_d_st75256.c **** 
 721:..\u8g2\csrc/u8x8_d_st75256.c ****   //U8X8_C( 0x030 ),				/* select 00 commands */ 
 722:..\u8g2\csrc/u8x8_d_st75256.c ****   U8X8_CA( 0x0f0, 0x010 ),		/* monochrome mode  = 0x010*/
 723:..\u8g2\csrc/u8x8_d_st75256.c **** 
 724:..\u8g2\csrc/u8x8_d_st75256.c ****   //U8X8_C( 0x030 ),				/* select 00 commands */
 725:..\u8g2\csrc/u8x8_d_st75256.c ****   U8X8_CAA( 0x81, 0x08, 0x04 ),	/* Volume control */
 726:..\u8g2\csrc/u8x8_d_st75256.c **** 
 727:..\u8g2\csrc/u8x8_d_st75256.c ****   //U8X8_C( 0x030 ),				/* select 00 commands */
 728:..\u8g2\csrc/u8x8_d_st75256.c ****   U8X8_CA( 0x020, 0x00b ),		/* Power control: Regulator, follower & booster on */
 729:..\u8g2\csrc/u8x8_d_st75256.c ****   U8X8_DLY(100),
 730:..\u8g2\csrc/u8x8_d_st75256.c **** 
 731:..\u8g2\csrc/u8x8_d_st75256.c ****   U8X8_END_TRANSFER(),             	/* disable chip */
 732:..\u8g2\csrc/u8x8_d_st75256.c ****   U8X8_END()             			/* end of sequence */
 733:..\u8g2\csrc/u8x8_d_st75256.c **** };    
ARM GAS  C:\Users\brian\AppData\Local\Temp\cckfkOf3.s 			page 24


 734:..\u8g2\csrc/u8x8_d_st75256.c **** 
 735:..\u8g2\csrc/u8x8_d_st75256.c **** 
 736:..\u8g2\csrc/u8x8_d_st75256.c **** uint8_t u8x8_d_st75256_jlx172104(u8x8_t *u8x8, uint8_t msg, uint8_t arg_int, void *arg_ptr)
 737:..\u8g2\csrc/u8x8_d_st75256.c **** {
 539              		.loc 1 737 0
 540              		.cfi_startproc
 541              		@ args = 0, pretend = 0, frame = 0
 542              		@ frame_needed = 0, uses_anonymous_args = 0
 543              	.LVL62:
 544 0000 2DE9F041 		push	{r4, r5, r6, r7, r8, lr}
 545              		.cfi_def_cfa_offset 24
 546              		.cfi_offset 4, -24
 547              		.cfi_offset 5, -20
 548              		.cfi_offset 6, -16
 549              		.cfi_offset 7, -12
 550              		.cfi_offset 8, -8
 551              		.cfi_offset 14, -4
 552 0004 0646     		mov	r6, r0
 553 0006 1546     		mov	r5, r2
 554 0008 1F46     		mov	r7, r3
 738:..\u8g2\csrc/u8x8_d_st75256.c ****   uint8_t x, c;
 739:..\u8g2\csrc/u8x8_d_st75256.c ****   uint8_t *ptr;
 740:..\u8g2\csrc/u8x8_d_st75256.c **** 
 741:..\u8g2\csrc/u8x8_d_st75256.c ****   switch(msg)
 555              		.loc 1 741 0
 556 000a 0939     		subs	r1, r1, #9
 557              	.LVL63:
 558 000c 0629     		cmp	r1, #6
 559 000e 00F2A080 		bhi	.L56
 560 0012 DFE801F0 		tbb	[pc, r1]
 561              	.LVL64:
 562              	.L44:
 563 0016 53       		.byte	(.L43-.L44)/2
 564 0017 59       		.byte	(.L45-.L44)/2
 565 0018 62       		.byte	(.L46-.L44)/2
 566 0019 9E       		.byte	(.L56-.L44)/2
 567 001a 6F       		.byte	(.L47-.L44)/2
 568 001b 84       		.byte	(.L48-.L44)/2
 569 001c 04       		.byte	(.L49-.L44)/2
 570 001d 00       		.p2align 1
 571              	.L49:
 742:..\u8g2\csrc/u8x8_d_st75256.c ****   {
 743:..\u8g2\csrc/u8x8_d_st75256.c ****             case U8X8_MSG_DISPLAY_DRAW_TILE:
 744:..\u8g2\csrc/u8x8_d_st75256.c ****               
 745:..\u8g2\csrc/u8x8_d_st75256.c ****               u8x8_cad_StartTransfer(u8x8);
 572              		.loc 1 745 0
 573 001e FFF7FEFF 		bl	u8x8_cad_StartTransfer
 574              	.LVL65:
 746:..\u8g2\csrc/u8x8_d_st75256.c ****               x = ((u8x8_tile_t *)arg_ptr)->x_pos;    
 575              		.loc 1 746 0
 576 0022 7C79     		ldrb	r4, [r7, #5]	@ zero_extendqisi2
 577              	.LVL66:
 747:..\u8g2\csrc/u8x8_d_st75256.c ****               x *= 8;
 578              		.loc 1 747 0
 579 0024 E400     		lsls	r4, r4, #3
 580              	.LVL67:
 581 0026 5FFA84F8 		uxtb	r8, r4
ARM GAS  C:\Users\brian\AppData\Local\Temp\cckfkOf3.s 			page 25


 582              	.LVL68:
 748:..\u8g2\csrc/u8x8_d_st75256.c ****               
 749:..\u8g2\csrc/u8x8_d_st75256.c ****               u8x8_cad_SendCmd(u8x8, 0x030 );	/* select command set */
 583              		.loc 1 749 0
 584 002a 3021     		movs	r1, #48
 585 002c 3046     		mov	r0, r6
 586 002e FFF7FEFF 		bl	u8x8_cad_SendCmd
 587              	.LVL69:
 750:..\u8g2\csrc/u8x8_d_st75256.c ****               u8x8_cad_SendCmd(u8x8, 0x075 );	/* row */
 588              		.loc 1 750 0
 589 0032 7521     		movs	r1, #117
 590 0034 3046     		mov	r0, r6
 591 0036 FFF7FEFF 		bl	u8x8_cad_SendCmd
 592              	.LVL70:
 751:..\u8g2\csrc/u8x8_d_st75256.c **** 	      if ( u8x8->x_offset == 0 )		/* 0 means flip mode 1, then adjust y value */
 593              		.loc 1 751 0
 594 003a 96F82230 		ldrb	r3, [r6, #34]	@ zero_extendqisi2
 595 003e 33B9     		cbnz	r3, .L50
 752:..\u8g2\csrc/u8x8_d_st75256.c **** 		u8x8_cad_SendArg(u8x8, 8+(((u8x8_tile_t *)arg_ptr)->y_pos));
 596              		.loc 1 752 0
 597 0040 B979     		ldrb	r1, [r7, #6]	@ zero_extendqisi2
 598 0042 0831     		adds	r1, r1, #8
 599 0044 C9B2     		uxtb	r1, r1
 600 0046 3046     		mov	r0, r6
 601 0048 FFF7FEFF 		bl	u8x8_cad_SendArg
 602              	.LVL71:
 603 004c 03E0     		b	.L51
 604              	.L50:
 753:..\u8g2\csrc/u8x8_d_st75256.c **** 	      else
 754:..\u8g2\csrc/u8x8_d_st75256.c **** 		u8x8_cad_SendArg(u8x8, (((u8x8_tile_t *)arg_ptr)->y_pos));
 605              		.loc 1 754 0
 606 004e B979     		ldrb	r1, [r7, #6]	@ zero_extendqisi2
 607 0050 3046     		mov	r0, r6
 608 0052 FFF7FEFF 		bl	u8x8_cad_SendArg
 609              	.LVL72:
 610              	.L51:
 755:..\u8g2\csrc/u8x8_d_st75256.c ****               u8x8_cad_SendArg(u8x8, 0x04f);
 611              		.loc 1 755 0
 612 0056 4F21     		movs	r1, #79
 613 0058 3046     		mov	r0, r6
 614 005a FFF7FEFF 		bl	u8x8_cad_SendArg
 615              	.LVL73:
 756:..\u8g2\csrc/u8x8_d_st75256.c ****               //u8x8_cad_SendArg(u8x8, (((u8x8_tile_t *)arg_ptr)->y_pos));
 757:..\u8g2\csrc/u8x8_d_st75256.c ****               u8x8_cad_SendCmd(u8x8, 0x015 );	/* col */
 616              		.loc 1 757 0
 617 005e 1521     		movs	r1, #21
 618 0060 3046     		mov	r0, r6
 619 0062 FFF7FEFF 		bl	u8x8_cad_SendCmd
 620              	.LVL74:
 758:..\u8g2\csrc/u8x8_d_st75256.c ****               u8x8_cad_SendArg(u8x8, x+u8x8->x_offset);
 621              		.loc 1 758 0
 622 0066 96F82210 		ldrb	r1, [r6, #34]	@ zero_extendqisi2
 623 006a 4144     		add	r1, r1, r8
 624 006c C9B2     		uxtb	r1, r1
 625 006e 3046     		mov	r0, r6
 626 0070 FFF7FEFF 		bl	u8x8_cad_SendArg
 627              	.LVL75:
ARM GAS  C:\Users\brian\AppData\Local\Temp\cckfkOf3.s 			page 26


 759:..\u8g2\csrc/u8x8_d_st75256.c ****               u8x8_cad_SendArg(u8x8, 255);
 628              		.loc 1 759 0
 629 0074 FF21     		movs	r1, #255
 630 0076 3046     		mov	r0, r6
 631 0078 FFF7FEFF 		bl	u8x8_cad_SendArg
 632              	.LVL76:
 760:..\u8g2\csrc/u8x8_d_st75256.c ****               u8x8_cad_SendCmd(u8x8, 0x05c );	
 633              		.loc 1 760 0
 634 007c 5C21     		movs	r1, #92
 635 007e 3046     		mov	r0, r6
 636 0080 FFF7FEFF 		bl	u8x8_cad_SendCmd
 637              	.LVL77:
 638              	.L53:
 761:..\u8g2\csrc/u8x8_d_st75256.c ****             
 762:..\u8g2\csrc/u8x8_d_st75256.c ****               
 763:..\u8g2\csrc/u8x8_d_st75256.c ****               /* this procedure assumes, that the overall width is 172 */
 764:..\u8g2\csrc/u8x8_d_st75256.c ****               do
 765:..\u8g2\csrc/u8x8_d_st75256.c ****               {
 766:..\u8g2\csrc/u8x8_d_st75256.c ****                 c = ((u8x8_tile_t *)arg_ptr)->cnt;
 639              		.loc 1 766 0
 640 0084 3B79     		ldrb	r3, [r7, #4]	@ zero_extendqisi2
 641              	.LVL78:
 767:..\u8g2\csrc/u8x8_d_st75256.c ****                 ptr = ((u8x8_tile_t *)arg_ptr)->tile_ptr;
 642              		.loc 1 767 0
 643 0086 3A68     		ldr	r2, [r7]
 644              	.LVL79:
 768:..\u8g2\csrc/u8x8_d_st75256.c ****                 c *= 8;
 645              		.loc 1 768 0
 646 0088 DB00     		lsls	r3, r3, #3
 647              	.LVL80:
 648 008a DCB2     		uxtb	r4, r3
 649              	.LVL81:
 769:..\u8g2\csrc/u8x8_d_st75256.c **** 
 770:..\u8g2\csrc/u8x8_d_st75256.c ****                 if ( c + x > 172u )
 650              		.loc 1 770 0
 651 008c 04EB0803 		add	r3, r4, r8
 652 0090 AC2B     		cmp	r3, #172
 653 0092 02D9     		bls	.L52
 654              	.LVL82:
 771:..\u8g2\csrc/u8x8_d_st75256.c ****                 {
 772:..\u8g2\csrc/u8x8_d_st75256.c ****                         c = 172u;
 773:..\u8g2\csrc/u8x8_d_st75256.c ****                         c -= x;
 655              		.loc 1 773 0
 656 0094 C8F1AC03 		rsb	r3, r8, #172
 657 0098 DCB2     		uxtb	r4, r3
 658              	.LVL83:
 659              	.L52:
 774:..\u8g2\csrc/u8x8_d_st75256.c ****                 }
 775:..\u8g2\csrc/u8x8_d_st75256.c ****                       
 776:..\u8g2\csrc/u8x8_d_st75256.c ****                 u8x8_cad_SendData(u8x8, c, ptr); 	
 660              		.loc 1 776 0
 661 009a 2146     		mov	r1, r4
 662 009c 3046     		mov	r0, r6
 663 009e FFF7FEFF 		bl	u8x8_cad_SendData
 664              	.LVL84:
 777:..\u8g2\csrc/u8x8_d_st75256.c ****                 x += c;
 665              		.loc 1 777 0
ARM GAS  C:\Users\brian\AppData\Local\Temp\cckfkOf3.s 			page 27


 666 00a2 4444     		add	r4, r4, r8
 667              	.LVL85:
 668 00a4 5FFA84F8 		uxtb	r8, r4
 669              	.LVL86:
 778:..\u8g2\csrc/u8x8_d_st75256.c ****                 arg_int--;
 670              		.loc 1 778 0
 671 00a8 013D     		subs	r5, r5, #1
 672              	.LVL87:
 779:..\u8g2\csrc/u8x8_d_st75256.c ****               } while( arg_int > 0 );
 673              		.loc 1 779 0
 674 00aa 15F0FF05 		ands	r5, r5, #255
 675              	.LVL88:
 676 00ae E9D1     		bne	.L53
 780:..\u8g2\csrc/u8x8_d_st75256.c ****               
 781:..\u8g2\csrc/u8x8_d_st75256.c ****               u8x8_cad_EndTransfer(u8x8);
 677              		.loc 1 781 0
 678 00b0 3046     		mov	r0, r6
 679 00b2 FFF7FEFF 		bl	u8x8_cad_EndTransfer
 680              	.LVL89:
 782:..\u8g2\csrc/u8x8_d_st75256.c ****               return 1;
 681              		.loc 1 782 0
 682 00b6 0120     		movs	r0, #1
 683 00b8 BDE8F081 		pop	{r4, r5, r6, r7, r8, pc}
 684              	.LVL90:
 685              	.L43:
 783:..\u8g2\csrc/u8x8_d_st75256.c ****         case U8X8_MSG_DISPLAY_SETUP_MEMORY:
 784:..\u8g2\csrc/u8x8_d_st75256.c ****             //u8x8_SetI2CAddress(u8x8, 0x078);		/* lowest I2C adr of the ST75256 */
 785:..\u8g2\csrc/u8x8_d_st75256.c ****             u8x8_d_helper_display_setup_memory(u8x8, &u8x8_st75256_172x104_display_info);
 686              		.loc 1 785 0
 687 00bc 2649     		ldr	r1, .L58
 688 00be FFF7FEFF 		bl	u8x8_d_helper_display_setup_memory
 689              	.LVL91:
 786:..\u8g2\csrc/u8x8_d_st75256.c ****             return 1;
 690              		.loc 1 786 0
 691 00c2 0120     		movs	r0, #1
 692 00c4 BDE8F081 		pop	{r4, r5, r6, r7, r8, pc}
 693              	.LVL92:
 694              	.L45:
 787:..\u8g2\csrc/u8x8_d_st75256.c ****         case U8X8_MSG_DISPLAY_INIT:
 788:..\u8g2\csrc/u8x8_d_st75256.c ****             u8x8_d_helper_display_init(u8x8);
 695              		.loc 1 788 0
 696 00c8 FFF7FEFF 		bl	u8x8_d_helper_display_init
 697              	.LVL93:
 789:..\u8g2\csrc/u8x8_d_st75256.c ****             u8x8_cad_SendSequence(u8x8, u8x8_d_st75256_jlx172104_init_seq);
 698              		.loc 1 789 0
 699 00cc 2349     		ldr	r1, .L58+4
 700 00ce 3046     		mov	r0, r6
 701 00d0 FFF7FEFF 		bl	u8x8_cad_SendSequence
 702              	.LVL94:
 790:..\u8g2\csrc/u8x8_d_st75256.c ****             return 1;
 703              		.loc 1 790 0
 704 00d4 0120     		movs	r0, #1
 705 00d6 BDE8F081 		pop	{r4, r5, r6, r7, r8, pc}
 706              	.LVL95:
 707              	.L46:
 791:..\u8g2\csrc/u8x8_d_st75256.c ****         case U8X8_MSG_DISPLAY_SET_POWER_SAVE:
 792:..\u8g2\csrc/u8x8_d_st75256.c ****               if ( arg_int == 0 )
ARM GAS  C:\Users\brian\AppData\Local\Temp\cckfkOf3.s 			page 28


 708              		.loc 1 792 0
 709 00da 2AB9     		cbnz	r2, .L54
 793:..\u8g2\csrc/u8x8_d_st75256.c ****                 u8x8_cad_SendSequence(u8x8, u8x8_d_st75256_256x128_powersave0_seq);
 710              		.loc 1 793 0
 711 00dc 2049     		ldr	r1, .L58+8
 712 00de FFF7FEFF 		bl	u8x8_cad_SendSequence
 713              	.LVL96:
 794:..\u8g2\csrc/u8x8_d_st75256.c ****               else
 795:..\u8g2\csrc/u8x8_d_st75256.c ****                 u8x8_cad_SendSequence(u8x8, u8x8_d_st75256_256x128_powersave1_seq);
 796:..\u8g2\csrc/u8x8_d_st75256.c **** 
 797:..\u8g2\csrc/u8x8_d_st75256.c ****               return 1;
 714              		.loc 1 797 0
 715 00e2 0120     		movs	r0, #1
 716 00e4 BDE8F081 		pop	{r4, r5, r6, r7, r8, pc}
 717              	.LVL97:
 718              	.L54:
 795:..\u8g2\csrc/u8x8_d_st75256.c **** 
 719              		.loc 1 795 0
 720 00e8 1E49     		ldr	r1, .L58+12
 721 00ea FFF7FEFF 		bl	u8x8_cad_SendSequence
 722              	.LVL98:
 723              		.loc 1 797 0
 724 00ee 0120     		movs	r0, #1
 725 00f0 BDE8F081 		pop	{r4, r5, r6, r7, r8, pc}
 726              	.LVL99:
 727              	.L47:
 798:..\u8g2\csrc/u8x8_d_st75256.c **** 	case U8X8_MSG_DISPLAY_SET_FLIP_MODE:
 799:..\u8g2\csrc/u8x8_d_st75256.c **** 	    if ( arg_int == 0 )
 728              		.loc 1 799 0
 729 00f4 4AB9     		cbnz	r2, .L55
 800:..\u8g2\csrc/u8x8_d_st75256.c **** 	    {
 801:..\u8g2\csrc/u8x8_d_st75256.c **** 	      u8x8_cad_SendSequence(u8x8, u8x8_d_st75256_jlx172104_flip0_seq);
 730              		.loc 1 801 0
 731 00f6 1C49     		ldr	r1, .L58+16
 732 00f8 FFF7FEFF 		bl	u8x8_cad_SendSequence
 733              	.LVL100:
 802:..\u8g2\csrc/u8x8_d_st75256.c **** 	      u8x8->x_offset = u8x8->display_info->default_x_offset;
 734              		.loc 1 802 0
 735 00fc 3368     		ldr	r3, [r6]
 736 00fe 9B7C     		ldrb	r3, [r3, #18]	@ zero_extendqisi2
 737 0100 86F82230 		strb	r3, [r6, #34]
 803:..\u8g2\csrc/u8x8_d_st75256.c **** 	    }
 804:..\u8g2\csrc/u8x8_d_st75256.c **** 	    else
 805:..\u8g2\csrc/u8x8_d_st75256.c **** 	    {
 806:..\u8g2\csrc/u8x8_d_st75256.c **** 	      u8x8_cad_SendSequence(u8x8, u8x8_d_st75256_jlx172104_flip1_seq); 
 807:..\u8g2\csrc/u8x8_d_st75256.c **** 	      u8x8->x_offset = u8x8->display_info->flipmode_x_offset;
 808:..\u8g2\csrc/u8x8_d_st75256.c **** 	    }
 809:..\u8g2\csrc/u8x8_d_st75256.c **** 	    return 1;
 738              		.loc 1 809 0
 739 0104 0120     		movs	r0, #1
 740 0106 BDE8F081 		pop	{r4, r5, r6, r7, r8, pc}
 741              	.LVL101:
 742              	.L55:
 806:..\u8g2\csrc/u8x8_d_st75256.c **** 	      u8x8->x_offset = u8x8->display_info->flipmode_x_offset;
 743              		.loc 1 806 0
 744 010a 1849     		ldr	r1, .L58+20
 745 010c FFF7FEFF 		bl	u8x8_cad_SendSequence
ARM GAS  C:\Users\brian\AppData\Local\Temp\cckfkOf3.s 			page 29


 746              	.LVL102:
 807:..\u8g2\csrc/u8x8_d_st75256.c **** 	    }
 747              		.loc 1 807 0
 748 0110 3368     		ldr	r3, [r6]
 749 0112 DB7C     		ldrb	r3, [r3, #19]	@ zero_extendqisi2
 750 0114 86F82230 		strb	r3, [r6, #34]
 751              		.loc 1 809 0
 752 0118 0120     		movs	r0, #1
 753 011a BDE8F081 		pop	{r4, r5, r6, r7, r8, pc}
 754              	.LVL103:
 755              	.L48:
 810:..\u8g2\csrc/u8x8_d_st75256.c **** 		
 811:..\u8g2\csrc/u8x8_d_st75256.c **** #ifdef U8X8_WITH_SET_CONTRAST
 812:..\u8g2\csrc/u8x8_d_st75256.c ****         case U8X8_MSG_DISPLAY_SET_CONTRAST:
 813:..\u8g2\csrc/u8x8_d_st75256.c **** 
 814:..\u8g2\csrc/u8x8_d_st75256.c ****               u8x8_cad_StartTransfer(u8x8);
 756              		.loc 1 814 0
 757 011e FFF7FEFF 		bl	u8x8_cad_StartTransfer
 758              	.LVL104:
 815:..\u8g2\csrc/u8x8_d_st75256.c ****               
 816:..\u8g2\csrc/u8x8_d_st75256.c ****               u8x8_cad_SendCmd(u8x8, 0x030 );
 759              		.loc 1 816 0
 760 0122 3021     		movs	r1, #48
 761 0124 3046     		mov	r0, r6
 762 0126 FFF7FEFF 		bl	u8x8_cad_SendCmd
 763              	.LVL105:
 817:..\u8g2\csrc/u8x8_d_st75256.c ****               u8x8_cad_SendCmd(u8x8, 0x081 );  /* there are 9 bit for the volume control */
 764              		.loc 1 817 0
 765 012a 8121     		movs	r1, #129
 766 012c 3046     		mov	r0, r6
 767 012e FFF7FEFF 		bl	u8x8_cad_SendCmd
 768              	.LVL106:
 818:..\u8g2\csrc/u8x8_d_st75256.c ****               u8x8_cad_SendArg(u8x8, (arg_int & 0x1f)<<1 );	/* lower 6 bit */
 769              		.loc 1 818 0
 770 0132 6900     		lsls	r1, r5, #1
 771 0134 01F03E01 		and	r1, r1, #62
 772 0138 3046     		mov	r0, r6
 773 013a FFF7FEFF 		bl	u8x8_cad_SendArg
 774              	.LVL107:
 819:..\u8g2\csrc/u8x8_d_st75256.c ****               u8x8_cad_SendArg(u8x8, (arg_int>>5));		/* upper 3 bit */
 775              		.loc 1 819 0
 776 013e 6909     		lsrs	r1, r5, #5
 777 0140 3046     		mov	r0, r6
 778 0142 FFF7FEFF 		bl	u8x8_cad_SendArg
 779              	.LVL108:
 820:..\u8g2\csrc/u8x8_d_st75256.c ****               
 821:..\u8g2\csrc/u8x8_d_st75256.c ****               u8x8_cad_EndTransfer(u8x8);
 780              		.loc 1 821 0
 781 0146 3046     		mov	r0, r6
 782 0148 FFF7FEFF 		bl	u8x8_cad_EndTransfer
 783              	.LVL109:
 822:..\u8g2\csrc/u8x8_d_st75256.c ****               return 1;
 784              		.loc 1 822 0
 785 014c 0120     		movs	r0, #1
 786 014e BDE8F081 		pop	{r4, r5, r6, r7, r8, pc}
 787              	.LVL110:
 788              	.L56:
ARM GAS  C:\Users\brian\AppData\Local\Temp\cckfkOf3.s 			page 30


 823:..\u8g2\csrc/u8x8_d_st75256.c **** #endif
 824:..\u8g2\csrc/u8x8_d_st75256.c ****   }
 825:..\u8g2\csrc/u8x8_d_st75256.c ****   return 0;
 789              		.loc 1 825 0
 790 0152 0020     		movs	r0, #0
 791              	.LVL111:
 826:..\u8g2\csrc/u8x8_d_st75256.c **** }
 792              		.loc 1 826 0
 793 0154 BDE8F081 		pop	{r4, r5, r6, r7, r8, pc}
 794              	.LVL112:
 795              	.L59:
 796              		.align	2
 797              	.L58:
 798 0158 E4010000 		.word	.LANCHOR0+484
 799 015c FC010000 		.word	.LANCHOR0+508
 800 0160 00000000 		.word	.LANCHOR0
 801 0164 0C000000 		.word	.LANCHOR0+12
 802 0168 50010000 		.word	.LANCHOR0+336
 803 016c 40010000 		.word	.LANCHOR0+320
 804              		.cfi_endproc
 805              	.LFE4:
 806              		.size	u8x8_d_st75256_jlx172104, .-u8x8_d_st75256_jlx172104
 807              		.section	.text.u8x8_d_st75256_jlx240160,"ax",%progbits
 808              		.align	2
 809              		.global	u8x8_d_st75256_jlx240160
 810              		.thumb
 811              		.thumb_func
 812              		.type	u8x8_d_st75256_jlx240160, %function
 813              	u8x8_d_st75256_jlx240160:
 814              	.LFB5:
 827:..\u8g2\csrc/u8x8_d_st75256.c **** 
 828:..\u8g2\csrc/u8x8_d_st75256.c **** /*=============================================*/
 829:..\u8g2\csrc/u8x8_d_st75256.c **** /* JLX240160 */
 830:..\u8g2\csrc/u8x8_d_st75256.c **** 
 831:..\u8g2\csrc/u8x8_d_st75256.c **** static const u8x8_display_info_t u8x8_st75256_240x160_display_info =
 832:..\u8g2\csrc/u8x8_d_st75256.c **** {
 833:..\u8g2\csrc/u8x8_d_st75256.c ****   /* chip_enable_level = */ 0,
 834:..\u8g2\csrc/u8x8_d_st75256.c ****   /* chip_disable_level = */ 1,
 835:..\u8g2\csrc/u8x8_d_st75256.c ****   
 836:..\u8g2\csrc/u8x8_d_st75256.c ****   /* post_chip_enable_wait_ns = */ 20,
 837:..\u8g2\csrc/u8x8_d_st75256.c ****   /* pre_chip_disable_wait_ns = */ 20,
 838:..\u8g2\csrc/u8x8_d_st75256.c ****   /* reset_pulse_width_ms = */ 5, 	
 839:..\u8g2\csrc/u8x8_d_st75256.c ****   /* post_reset_wait_ms = */ 5, 		/**/
 840:..\u8g2\csrc/u8x8_d_st75256.c ****   /* sda_setup_time_ns = */ 20,		/* */
 841:..\u8g2\csrc/u8x8_d_st75256.c ****   /* sck_pulse_width_ns = */ 40,	/*  */
 842:..\u8g2\csrc/u8x8_d_st75256.c ****   /* sck_clock_hz = */ 4000000UL,	/* since Arduino 1.6.0, the SPI bus speed in Hz. Should be  10000
 843:..\u8g2\csrc/u8x8_d_st75256.c ****   /* spi_mode = */ 0,		/* active high, rising edge */
 844:..\u8g2\csrc/u8x8_d_st75256.c ****   /* i2c_bus_clock_100kHz = */ 4,	/* 400KHz */
 845:..\u8g2\csrc/u8x8_d_st75256.c ****   /* data_setup_time_ns = */ 15,
 846:..\u8g2\csrc/u8x8_d_st75256.c ****   /* write_pulse_width_ns = */ 70,	
 847:..\u8g2\csrc/u8x8_d_st75256.c ****   /* tile_width = */ 30,
 848:..\u8g2\csrc/u8x8_d_st75256.c ****   /* tile_hight = */ 20,
 849:..\u8g2\csrc/u8x8_d_st75256.c ****   /* default_x_offset = */ 16,	/*  x offset in flipmode 0 */
 850:..\u8g2\csrc/u8x8_d_st75256.c ****   /* flipmode_x_offset = */ 0,		/* */
 851:..\u8g2\csrc/u8x8_d_st75256.c ****   /* pixel_width = */ 240,
 852:..\u8g2\csrc/u8x8_d_st75256.c ****   /* pixel_height = */ 160
 853:..\u8g2\csrc/u8x8_d_st75256.c **** };
ARM GAS  C:\Users\brian\AppData\Local\Temp\cckfkOf3.s 			page 31


 854:..\u8g2\csrc/u8x8_d_st75256.c **** 
 855:..\u8g2\csrc/u8x8_d_st75256.c **** 
 856:..\u8g2\csrc/u8x8_d_st75256.c **** static const uint8_t u8x8_d_st75256_240x160_init_seq[] = {
 857:..\u8g2\csrc/u8x8_d_st75256.c ****   U8X8_START_TRANSFER(),             	/* enable chip, delay is part of the transfer start */
 858:..\u8g2\csrc/u8x8_d_st75256.c ****   
 859:..\u8g2\csrc/u8x8_d_st75256.c ****   U8X8_DLY(20),
 860:..\u8g2\csrc/u8x8_d_st75256.c **** 
 861:..\u8g2\csrc/u8x8_d_st75256.c ****   U8X8_C( 0x030 ),				/* select 00 commands */
 862:..\u8g2\csrc/u8x8_d_st75256.c ****   U8X8_C( 0x094 ),				/* sleep out */
 863:..\u8g2\csrc/u8x8_d_st75256.c **** 
 864:..\u8g2\csrc/u8x8_d_st75256.c ****   //U8X8_C( 0x030 ),				/* select 00 commands */
 865:..\u8g2\csrc/u8x8_d_st75256.c ****   U8X8_C( 0x0ae ),				/* display off */
 866:..\u8g2\csrc/u8x8_d_st75256.c **** 
 867:..\u8g2\csrc/u8x8_d_st75256.c ****   U8X8_C( 0x031 ),				/* select 01 commands */
 868:..\u8g2\csrc/u8x8_d_st75256.c ****   U8X8_CA( 0x0d7, 0x09f ),		/* disable auto read */  
 869:..\u8g2\csrc/u8x8_d_st75256.c **** 
 870:..\u8g2\csrc/u8x8_d_st75256.c ****   //U8X8_C( 0x031 ),				/* select 01 commands */
 871:..\u8g2\csrc/u8x8_d_st75256.c ****   U8X8_C( 0x032 ),				/* analog circuit set */
 872:..\u8g2\csrc/u8x8_d_st75256.c ****   U8X8_A( 0x000 ),				/* code example: OSC Frequency adjustment */
 873:..\u8g2\csrc/u8x8_d_st75256.c ****   U8X8_A( 0x001 ),				/* Frequency on booster capacitors 1 = 6KHz? */
 874:..\u8g2\csrc/u8x8_d_st75256.c ****   U8X8_A( 0x000 ),				/* Bias: 1: 1/13, 2: 1/12, 3: 1/11, 4:1/10, 5:1/9 */
 875:..\u8g2\csrc/u8x8_d_st75256.c ****     
 876:..\u8g2\csrc/u8x8_d_st75256.c ****   //U8X8_C( 0x031 ),				/* select 01 commands */
 877:..\u8g2\csrc/u8x8_d_st75256.c ****   U8X8_C( 0x020 ),				/* gray levels */
 878:..\u8g2\csrc/u8x8_d_st75256.c ****   U8X8_A( 0x01 ),
 879:..\u8g2\csrc/u8x8_d_st75256.c ****   U8X8_A( 0x03 ),
 880:..\u8g2\csrc/u8x8_d_st75256.c ****   U8X8_A( 0x05 ),
 881:..\u8g2\csrc/u8x8_d_st75256.c ****   U8X8_A( 0x07 ),
 882:..\u8g2\csrc/u8x8_d_st75256.c ****   U8X8_A( 0x09),
 883:..\u8g2\csrc/u8x8_d_st75256.c ****   U8X8_A( 0x0b ),
 884:..\u8g2\csrc/u8x8_d_st75256.c ****   U8X8_A( 0x0d ),
 885:..\u8g2\csrc/u8x8_d_st75256.c ****   U8X8_A( 0x10 ),
 886:..\u8g2\csrc/u8x8_d_st75256.c ****   U8X8_A( 0x11 ),
 887:..\u8g2\csrc/u8x8_d_st75256.c ****   U8X8_A( 0x13 ),
 888:..\u8g2\csrc/u8x8_d_st75256.c ****   U8X8_A( 0x15 ),
 889:..\u8g2\csrc/u8x8_d_st75256.c ****   U8X8_A( 0x17 ),
 890:..\u8g2\csrc/u8x8_d_st75256.c ****   U8X8_A( 0x19 ),
 891:..\u8g2\csrc/u8x8_d_st75256.c ****   U8X8_A( 0x1b ),
 892:..\u8g2\csrc/u8x8_d_st75256.c ****   U8X8_A( 0x1d ),
 893:..\u8g2\csrc/u8x8_d_st75256.c ****   U8X8_A( 0x1f ),
 894:..\u8g2\csrc/u8x8_d_st75256.c ****  
 895:..\u8g2\csrc/u8x8_d_st75256.c ****   
 896:..\u8g2\csrc/u8x8_d_st75256.c ****   U8X8_C( 0x030 ),				/* select 00 commands */
 897:..\u8g2\csrc/u8x8_d_st75256.c ****   U8X8_CAA(0x75, 0, 0x4f),		/* row range */
 898:..\u8g2\csrc/u8x8_d_st75256.c ****   U8X8_CAA(0x15, 0, 239),		/* col range */
 899:..\u8g2\csrc/u8x8_d_st75256.c ****   
 900:..\u8g2\csrc/u8x8_d_st75256.c ****   //U8X8_C( 0x030 ),				/* select 00 commands */
 901:..\u8g2\csrc/u8x8_d_st75256.c ****   U8X8_CA( 0xbc, 0x02 ),			/* data scan dir */
 902:..\u8g2\csrc/u8x8_d_st75256.c ****   U8X8_A( 0xa6 ),				/* ??? */
 903:..\u8g2\csrc/u8x8_d_st75256.c **** 
 904:..\u8g2\csrc/u8x8_d_st75256.c ****   //U8X8_C( 0x030 ),				/* select 00 commands */
 905:..\u8g2\csrc/u8x8_d_st75256.c ****   U8X8_C( 0x00c ),				/* data format LSB top */
 906:..\u8g2\csrc/u8x8_d_st75256.c **** 
 907:..\u8g2\csrc/u8x8_d_st75256.c ****   //U8X8_C( 0x030 ),				/* select 00 commands */ 
 908:..\u8g2\csrc/u8x8_d_st75256.c ****   U8X8_C( 0xca ),				/* display control, 3 args follow  */
 909:..\u8g2\csrc/u8x8_d_st75256.c ****   U8X8_A( 0x00 ),				/* 0x00: no clock division, 0x04: devide clock */
 910:..\u8g2\csrc/u8x8_d_st75256.c ****   U8X8_A( 159 ),				/* 1/160 duty value from the DS example code */
ARM GAS  C:\Users\brian\AppData\Local\Temp\cckfkOf3.s 			page 32


 911:..\u8g2\csrc/u8x8_d_st75256.c ****   U8X8_A( 0x20 ),				/* nline off */ 
 912:..\u8g2\csrc/u8x8_d_st75256.c **** 
 913:..\u8g2\csrc/u8x8_d_st75256.c ****   //U8X8_C( 0x030 ),				/* select 00 commands */ 
 914:..\u8g2\csrc/u8x8_d_st75256.c ****   U8X8_CA( 0x0f0, 0x010 ),		/* monochrome mode  = 0x010*/
 915:..\u8g2\csrc/u8x8_d_st75256.c **** 
 916:..\u8g2\csrc/u8x8_d_st75256.c ****   //U8X8_C( 0x030 ),				/* select 00 commands */
 917:..\u8g2\csrc/u8x8_d_st75256.c ****   U8X8_CAA( 0x81, 0x18, 0x04 ),	/* Volume control */
 918:..\u8g2\csrc/u8x8_d_st75256.c **** 
 919:..\u8g2\csrc/u8x8_d_st75256.c ****   //U8X8_C( 0x030 ),				/* select 00 commands */
 920:..\u8g2\csrc/u8x8_d_st75256.c ****   U8X8_CA( 0x020, 0x00b ),		/* Power control: Regulator, follower & booster on */
 921:..\u8g2\csrc/u8x8_d_st75256.c ****   U8X8_DLY(100),
 922:..\u8g2\csrc/u8x8_d_st75256.c **** 
 923:..\u8g2\csrc/u8x8_d_st75256.c ****   U8X8_END_TRANSFER(),             	/* disable chip */
 924:..\u8g2\csrc/u8x8_d_st75256.c ****   U8X8_END()             			/* end of sequence */
 925:..\u8g2\csrc/u8x8_d_st75256.c **** };
 926:..\u8g2\csrc/u8x8_d_st75256.c **** 
 927:..\u8g2\csrc/u8x8_d_st75256.c **** 
 928:..\u8g2\csrc/u8x8_d_st75256.c **** uint8_t u8x8_d_st75256_jlx240160(u8x8_t *u8x8, uint8_t msg, uint8_t arg_int, void *arg_ptr)
 929:..\u8g2\csrc/u8x8_d_st75256.c **** {
 815              		.loc 1 929 0
 816              		.cfi_startproc
 817              		@ args = 0, pretend = 0, frame = 0
 818              		@ frame_needed = 0, uses_anonymous_args = 0
 819              	.LVL113:
 820 0000 2DE9F041 		push	{r4, r5, r6, r7, r8, lr}
 821              		.cfi_def_cfa_offset 24
 822              		.cfi_offset 4, -24
 823              		.cfi_offset 5, -20
 824              		.cfi_offset 6, -16
 825              		.cfi_offset 7, -12
 826              		.cfi_offset 8, -8
 827              		.cfi_offset 14, -4
 828 0004 0646     		mov	r6, r0
 829 0006 1546     		mov	r5, r2
 830 0008 1F46     		mov	r7, r3
 930:..\u8g2\csrc/u8x8_d_st75256.c ****   uint8_t x, c;
 931:..\u8g2\csrc/u8x8_d_st75256.c ****   uint8_t *ptr;
 932:..\u8g2\csrc/u8x8_d_st75256.c **** 
 933:..\u8g2\csrc/u8x8_d_st75256.c ****   switch(msg)
 831              		.loc 1 933 0
 832 000a 0939     		subs	r1, r1, #9
 833              	.LVL114:
 834 000c 0629     		cmp	r1, #6
 835 000e 00F2A080 		bhi	.L75
 836 0012 DFE801F0 		tbb	[pc, r1]
 837              	.LVL115:
 838              	.L63:
 839 0016 53       		.byte	(.L62-.L63)/2
 840 0017 59       		.byte	(.L64-.L63)/2
 841 0018 62       		.byte	(.L65-.L63)/2
 842 0019 9E       		.byte	(.L75-.L63)/2
 843 001a 6F       		.byte	(.L66-.L63)/2
 844 001b 84       		.byte	(.L67-.L63)/2
 845 001c 04       		.byte	(.L68-.L63)/2
 846 001d 00       		.p2align 1
 847              	.L68:
 934:..\u8g2\csrc/u8x8_d_st75256.c ****   {
ARM GAS  C:\Users\brian\AppData\Local\Temp\cckfkOf3.s 			page 33


 935:..\u8g2\csrc/u8x8_d_st75256.c ****             case U8X8_MSG_DISPLAY_DRAW_TILE:
 936:..\u8g2\csrc/u8x8_d_st75256.c ****               
 937:..\u8g2\csrc/u8x8_d_st75256.c ****               u8x8_cad_StartTransfer(u8x8);
 848              		.loc 1 937 0
 849 001e FFF7FEFF 		bl	u8x8_cad_StartTransfer
 850              	.LVL116:
 938:..\u8g2\csrc/u8x8_d_st75256.c ****               x = ((u8x8_tile_t *)arg_ptr)->x_pos;    
 851              		.loc 1 938 0
 852 0022 7C79     		ldrb	r4, [r7, #5]	@ zero_extendqisi2
 853              	.LVL117:
 939:..\u8g2\csrc/u8x8_d_st75256.c ****               x *= 8;
 854              		.loc 1 939 0
 855 0024 E400     		lsls	r4, r4, #3
 856              	.LVL118:
 857 0026 5FFA84F8 		uxtb	r8, r4
 858              	.LVL119:
 940:..\u8g2\csrc/u8x8_d_st75256.c ****               
 941:..\u8g2\csrc/u8x8_d_st75256.c ****               u8x8_cad_SendCmd(u8x8, 0x030 );	/* select command set */
 859              		.loc 1 941 0
 860 002a 3021     		movs	r1, #48
 861 002c 3046     		mov	r0, r6
 862 002e FFF7FEFF 		bl	u8x8_cad_SendCmd
 863              	.LVL120:
 942:..\u8g2\csrc/u8x8_d_st75256.c ****               u8x8_cad_SendCmd(u8x8, 0x075 );	/* row */
 864              		.loc 1 942 0
 865 0032 7521     		movs	r1, #117
 866 0034 3046     		mov	r0, r6
 867 0036 FFF7FEFF 		bl	u8x8_cad_SendCmd
 868              	.LVL121:
 943:..\u8g2\csrc/u8x8_d_st75256.c **** 	      if ( u8x8->x_offset == 0 )		/* 0 means flip mode 1 */
 869              		.loc 1 943 0
 870 003a 96F82230 		ldrb	r3, [r6, #34]	@ zero_extendqisi2
 871 003e 33B9     		cbnz	r3, .L69
 944:..\u8g2\csrc/u8x8_d_st75256.c **** 		u8x8_cad_SendArg(u8x8, 1+(((u8x8_tile_t *)arg_ptr)->y_pos));
 872              		.loc 1 944 0
 873 0040 B979     		ldrb	r1, [r7, #6]	@ zero_extendqisi2
 874 0042 0131     		adds	r1, r1, #1
 875 0044 C9B2     		uxtb	r1, r1
 876 0046 3046     		mov	r0, r6
 877 0048 FFF7FEFF 		bl	u8x8_cad_SendArg
 878              	.LVL122:
 879 004c 03E0     		b	.L70
 880              	.L69:
 945:..\u8g2\csrc/u8x8_d_st75256.c **** 	      else
 946:..\u8g2\csrc/u8x8_d_st75256.c **** 		u8x8_cad_SendArg(u8x8, (((u8x8_tile_t *)arg_ptr)->y_pos));
 881              		.loc 1 946 0
 882 004e B979     		ldrb	r1, [r7, #6]	@ zero_extendqisi2
 883 0050 3046     		mov	r0, r6
 884 0052 FFF7FEFF 		bl	u8x8_cad_SendArg
 885              	.LVL123:
 886              	.L70:
 947:..\u8g2\csrc/u8x8_d_st75256.c ****               u8x8_cad_SendArg(u8x8, 0x04f);
 887              		.loc 1 947 0
 888 0056 4F21     		movs	r1, #79
 889 0058 3046     		mov	r0, r6
 890 005a FFF7FEFF 		bl	u8x8_cad_SendArg
 891              	.LVL124:
ARM GAS  C:\Users\brian\AppData\Local\Temp\cckfkOf3.s 			page 34


 948:..\u8g2\csrc/u8x8_d_st75256.c ****               //u8x8_cad_SendArg(u8x8, (((u8x8_tile_t *)arg_ptr)->y_pos));
 949:..\u8g2\csrc/u8x8_d_st75256.c ****               u8x8_cad_SendCmd(u8x8, 0x015 );	/* col */
 892              		.loc 1 949 0
 893 005e 1521     		movs	r1, #21
 894 0060 3046     		mov	r0, r6
 895 0062 FFF7FEFF 		bl	u8x8_cad_SendCmd
 896              	.LVL125:
 950:..\u8g2\csrc/u8x8_d_st75256.c ****               u8x8_cad_SendArg(u8x8, x+u8x8->x_offset);
 897              		.loc 1 950 0
 898 0066 96F82210 		ldrb	r1, [r6, #34]	@ zero_extendqisi2
 899 006a 4144     		add	r1, r1, r8
 900 006c C9B2     		uxtb	r1, r1
 901 006e 3046     		mov	r0, r6
 902 0070 FFF7FEFF 		bl	u8x8_cad_SendArg
 903              	.LVL126:
 951:..\u8g2\csrc/u8x8_d_st75256.c ****               u8x8_cad_SendArg(u8x8, 255);
 904              		.loc 1 951 0
 905 0074 FF21     		movs	r1, #255
 906 0076 3046     		mov	r0, r6
 907 0078 FFF7FEFF 		bl	u8x8_cad_SendArg
 908              	.LVL127:
 952:..\u8g2\csrc/u8x8_d_st75256.c ****               u8x8_cad_SendCmd(u8x8, 0x05c );	
 909              		.loc 1 952 0
 910 007c 5C21     		movs	r1, #92
 911 007e 3046     		mov	r0, r6
 912 0080 FFF7FEFF 		bl	u8x8_cad_SendCmd
 913              	.LVL128:
 914              	.L72:
 953:..\u8g2\csrc/u8x8_d_st75256.c ****             
 954:..\u8g2\csrc/u8x8_d_st75256.c ****               
 955:..\u8g2\csrc/u8x8_d_st75256.c ****               do
 956:..\u8g2\csrc/u8x8_d_st75256.c ****               {
 957:..\u8g2\csrc/u8x8_d_st75256.c ****                 c = ((u8x8_tile_t *)arg_ptr)->cnt;
 915              		.loc 1 957 0
 916 0084 3B79     		ldrb	r3, [r7, #4]	@ zero_extendqisi2
 917              	.LVL129:
 958:..\u8g2\csrc/u8x8_d_st75256.c ****                 ptr = ((u8x8_tile_t *)arg_ptr)->tile_ptr;
 918              		.loc 1 958 0
 919 0086 3A68     		ldr	r2, [r7]
 920              	.LVL130:
 959:..\u8g2\csrc/u8x8_d_st75256.c ****                 c *= 8;
 921              		.loc 1 959 0
 922 0088 DB00     		lsls	r3, r3, #3
 923              	.LVL131:
 924 008a DCB2     		uxtb	r4, r3
 925              	.LVL132:
 960:..\u8g2\csrc/u8x8_d_st75256.c **** 
 961:..\u8g2\csrc/u8x8_d_st75256.c ****                 if ( c + x > 240u )
 926              		.loc 1 961 0
 927 008c 04EB0803 		add	r3, r4, r8
 928 0090 F02B     		cmp	r3, #240
 929 0092 02D9     		bls	.L71
 930              	.LVL133:
 962:..\u8g2\csrc/u8x8_d_st75256.c ****                 {
 963:..\u8g2\csrc/u8x8_d_st75256.c ****                         c = 240u;
 964:..\u8g2\csrc/u8x8_d_st75256.c ****                         c -= x;
 931              		.loc 1 964 0
ARM GAS  C:\Users\brian\AppData\Local\Temp\cckfkOf3.s 			page 35


 932 0094 C8F1F003 		rsb	r3, r8, #240
 933 0098 DCB2     		uxtb	r4, r3
 934              	.LVL134:
 935              	.L71:
 965:..\u8g2\csrc/u8x8_d_st75256.c ****                 }
 966:..\u8g2\csrc/u8x8_d_st75256.c ****                       
 967:..\u8g2\csrc/u8x8_d_st75256.c ****                 u8x8_cad_SendData(u8x8, c, ptr); 	
 936              		.loc 1 967 0
 937 009a 2146     		mov	r1, r4
 938 009c 3046     		mov	r0, r6
 939 009e FFF7FEFF 		bl	u8x8_cad_SendData
 940              	.LVL135:
 968:..\u8g2\csrc/u8x8_d_st75256.c ****                 x += c;
 941              		.loc 1 968 0
 942 00a2 4444     		add	r4, r4, r8
 943              	.LVL136:
 944 00a4 5FFA84F8 		uxtb	r8, r4
 945              	.LVL137:
 969:..\u8g2\csrc/u8x8_d_st75256.c ****                 arg_int--;
 946              		.loc 1 969 0
 947 00a8 013D     		subs	r5, r5, #1
 948              	.LVL138:
 970:..\u8g2\csrc/u8x8_d_st75256.c ****               } while( arg_int > 0 );
 949              		.loc 1 970 0
 950 00aa 15F0FF05 		ands	r5, r5, #255
 951              	.LVL139:
 952 00ae E9D1     		bne	.L72
 971:..\u8g2\csrc/u8x8_d_st75256.c ****               
 972:..\u8g2\csrc/u8x8_d_st75256.c ****               u8x8_cad_EndTransfer(u8x8);
 953              		.loc 1 972 0
 954 00b0 3046     		mov	r0, r6
 955 00b2 FFF7FEFF 		bl	u8x8_cad_EndTransfer
 956              	.LVL140:
 973:..\u8g2\csrc/u8x8_d_st75256.c ****               return 1;
 957              		.loc 1 973 0
 958 00b6 0120     		movs	r0, #1
 959 00b8 BDE8F081 		pop	{r4, r5, r6, r7, r8, pc}
 960              	.LVL141:
 961              	.L62:
 974:..\u8g2\csrc/u8x8_d_st75256.c ****         case U8X8_MSG_DISPLAY_SETUP_MEMORY:
 975:..\u8g2\csrc/u8x8_d_st75256.c ****             //u8x8_SetI2CAddress(u8x8, 0x078);		/* lowest I2C adr of the ST75256 */
 976:..\u8g2\csrc/u8x8_d_st75256.c **** 	    u8x8_d_helper_display_setup_memory(u8x8, &u8x8_st75256_240x160_display_info);
 962              		.loc 1 976 0
 963 00bc 2649     		ldr	r1, .L77
 964 00be FFF7FEFF 		bl	u8x8_d_helper_display_setup_memory
 965              	.LVL142:
 977:..\u8g2\csrc/u8x8_d_st75256.c ****             return 1;
 966              		.loc 1 977 0
 967 00c2 0120     		movs	r0, #1
 968 00c4 BDE8F081 		pop	{r4, r5, r6, r7, r8, pc}
 969              	.LVL143:
 970              	.L64:
 978:..\u8g2\csrc/u8x8_d_st75256.c ****         case U8X8_MSG_DISPLAY_INIT:
 979:..\u8g2\csrc/u8x8_d_st75256.c **** 	    u8x8_d_helper_display_init(u8x8);
 971              		.loc 1 979 0
 972 00c8 FFF7FEFF 		bl	u8x8_d_helper_display_init
 973              	.LVL144:
ARM GAS  C:\Users\brian\AppData\Local\Temp\cckfkOf3.s 			page 36


 980:..\u8g2\csrc/u8x8_d_st75256.c **** 	    u8x8_cad_SendSequence(u8x8, u8x8_d_st75256_240x160_init_seq);    
 974              		.loc 1 980 0
 975 00cc 2349     		ldr	r1, .L77+4
 976 00ce 3046     		mov	r0, r6
 977 00d0 FFF7FEFF 		bl	u8x8_cad_SendSequence
 978              	.LVL145:
 981:..\u8g2\csrc/u8x8_d_st75256.c ****             return 1;
 979              		.loc 1 981 0
 980 00d4 0120     		movs	r0, #1
 981 00d6 BDE8F081 		pop	{r4, r5, r6, r7, r8, pc}
 982              	.LVL146:
 983              	.L65:
 982:..\u8g2\csrc/u8x8_d_st75256.c ****         case U8X8_MSG_DISPLAY_SET_POWER_SAVE:
 983:..\u8g2\csrc/u8x8_d_st75256.c ****               if ( arg_int == 0 )
 984              		.loc 1 983 0
 985 00da 2AB9     		cbnz	r2, .L73
 984:..\u8g2\csrc/u8x8_d_st75256.c ****                 u8x8_cad_SendSequence(u8x8, u8x8_d_st75256_256x128_powersave0_seq);
 986              		.loc 1 984 0
 987 00dc 2049     		ldr	r1, .L77+8
 988 00de FFF7FEFF 		bl	u8x8_cad_SendSequence
 989              	.LVL147:
 985:..\u8g2\csrc/u8x8_d_st75256.c ****               else
 986:..\u8g2\csrc/u8x8_d_st75256.c ****                 u8x8_cad_SendSequence(u8x8, u8x8_d_st75256_256x128_powersave1_seq);
 987:..\u8g2\csrc/u8x8_d_st75256.c **** 
 988:..\u8g2\csrc/u8x8_d_st75256.c ****               return 1;
 990              		.loc 1 988 0
 991 00e2 0120     		movs	r0, #1
 992 00e4 BDE8F081 		pop	{r4, r5, r6, r7, r8, pc}
 993              	.LVL148:
 994              	.L73:
 986:..\u8g2\csrc/u8x8_d_st75256.c **** 
 995              		.loc 1 986 0
 996 00e8 1E49     		ldr	r1, .L77+12
 997 00ea FFF7FEFF 		bl	u8x8_cad_SendSequence
 998              	.LVL149:
 999              		.loc 1 988 0
 1000 00ee 0120     		movs	r0, #1
 1001 00f0 BDE8F081 		pop	{r4, r5, r6, r7, r8, pc}
 1002              	.LVL150:
 1003              	.L66:
 989:..\u8g2\csrc/u8x8_d_st75256.c **** 	case U8X8_MSG_DISPLAY_SET_FLIP_MODE:
 990:..\u8g2\csrc/u8x8_d_st75256.c **** 	    if ( arg_int == 0 )
 1004              		.loc 1 990 0
 1005 00f4 4AB9     		cbnz	r2, .L74
 991:..\u8g2\csrc/u8x8_d_st75256.c **** 	    {
 992:..\u8g2\csrc/u8x8_d_st75256.c **** 	      u8x8_cad_SendSequence(u8x8, u8x8_d_st75256_jlx172104_flip0_seq);
 1006              		.loc 1 992 0
 1007 00f6 1C49     		ldr	r1, .L77+16
 1008 00f8 FFF7FEFF 		bl	u8x8_cad_SendSequence
 1009              	.LVL151:
 993:..\u8g2\csrc/u8x8_d_st75256.c **** 	      u8x8->x_offset = u8x8->display_info->default_x_offset;
 1010              		.loc 1 993 0
 1011 00fc 3368     		ldr	r3, [r6]
 1012 00fe 9B7C     		ldrb	r3, [r3, #18]	@ zero_extendqisi2
 1013 0100 86F82230 		strb	r3, [r6, #34]
 994:..\u8g2\csrc/u8x8_d_st75256.c **** 	    }
 995:..\u8g2\csrc/u8x8_d_st75256.c **** 	    else
ARM GAS  C:\Users\brian\AppData\Local\Temp\cckfkOf3.s 			page 37


 996:..\u8g2\csrc/u8x8_d_st75256.c **** 	    {
 997:..\u8g2\csrc/u8x8_d_st75256.c **** 	      u8x8_cad_SendSequence(u8x8, u8x8_d_st75256_jlx172104_flip1_seq);
 998:..\u8g2\csrc/u8x8_d_st75256.c **** 	      u8x8->x_offset = u8x8->display_info->flipmode_x_offset;
 999:..\u8g2\csrc/u8x8_d_st75256.c **** 	    }
1000:..\u8g2\csrc/u8x8_d_st75256.c **** 	    return 1;
 1014              		.loc 1 1000 0
 1015 0104 0120     		movs	r0, #1
 1016 0106 BDE8F081 		pop	{r4, r5, r6, r7, r8, pc}
 1017              	.LVL152:
 1018              	.L74:
 997:..\u8g2\csrc/u8x8_d_st75256.c **** 	      u8x8->x_offset = u8x8->display_info->flipmode_x_offset;
 1019              		.loc 1 997 0
 1020 010a 1849     		ldr	r1, .L77+20
 1021 010c FFF7FEFF 		bl	u8x8_cad_SendSequence
 1022              	.LVL153:
 998:..\u8g2\csrc/u8x8_d_st75256.c **** 	    }
 1023              		.loc 1 998 0
 1024 0110 3368     		ldr	r3, [r6]
 1025 0112 DB7C     		ldrb	r3, [r3, #19]	@ zero_extendqisi2
 1026 0114 86F82230 		strb	r3, [r6, #34]
 1027              		.loc 1 1000 0
 1028 0118 0120     		movs	r0, #1
 1029 011a BDE8F081 		pop	{r4, r5, r6, r7, r8, pc}
 1030              	.LVL154:
 1031              	.L67:
1001:..\u8g2\csrc/u8x8_d_st75256.c **** 		
1002:..\u8g2\csrc/u8x8_d_st75256.c **** #ifdef U8X8_WITH_SET_CONTRAST
1003:..\u8g2\csrc/u8x8_d_st75256.c ****         case U8X8_MSG_DISPLAY_SET_CONTRAST:
1004:..\u8g2\csrc/u8x8_d_st75256.c **** 
1005:..\u8g2\csrc/u8x8_d_st75256.c ****               u8x8_cad_StartTransfer(u8x8);
 1032              		.loc 1 1005 0
 1033 011e FFF7FEFF 		bl	u8x8_cad_StartTransfer
 1034              	.LVL155:
1006:..\u8g2\csrc/u8x8_d_st75256.c ****               
1007:..\u8g2\csrc/u8x8_d_st75256.c ****               u8x8_cad_SendCmd(u8x8, 0x030 );
 1035              		.loc 1 1007 0
 1036 0122 3021     		movs	r1, #48
 1037 0124 3046     		mov	r0, r6
 1038 0126 FFF7FEFF 		bl	u8x8_cad_SendCmd
 1039              	.LVL156:
1008:..\u8g2\csrc/u8x8_d_st75256.c ****               u8x8_cad_SendCmd(u8x8, 0x081 );  /* there are 9 bit for the volume control */
 1040              		.loc 1 1008 0
 1041 012a 8121     		movs	r1, #129
 1042 012c 3046     		mov	r0, r6
 1043 012e FFF7FEFF 		bl	u8x8_cad_SendCmd
 1044              	.LVL157:
1009:..\u8g2\csrc/u8x8_d_st75256.c ****               u8x8_cad_SendArg(u8x8, (arg_int & 0x1f)<<1 );	/* lower 6 bit */
 1045              		.loc 1 1009 0
 1046 0132 6900     		lsls	r1, r5, #1
 1047 0134 01F03E01 		and	r1, r1, #62
 1048 0138 3046     		mov	r0, r6
 1049 013a FFF7FEFF 		bl	u8x8_cad_SendArg
 1050              	.LVL158:
1010:..\u8g2\csrc/u8x8_d_st75256.c ****               u8x8_cad_SendArg(u8x8, (arg_int>>5));		/* upper 3 bit */
 1051              		.loc 1 1010 0
 1052 013e 6909     		lsrs	r1, r5, #5
 1053 0140 3046     		mov	r0, r6
ARM GAS  C:\Users\brian\AppData\Local\Temp\cckfkOf3.s 			page 38


 1054 0142 FFF7FEFF 		bl	u8x8_cad_SendArg
 1055              	.LVL159:
1011:..\u8g2\csrc/u8x8_d_st75256.c ****               
1012:..\u8g2\csrc/u8x8_d_st75256.c ****               u8x8_cad_EndTransfer(u8x8);
 1056              		.loc 1 1012 0
 1057 0146 3046     		mov	r0, r6
 1058 0148 FFF7FEFF 		bl	u8x8_cad_EndTransfer
 1059              	.LVL160:
1013:..\u8g2\csrc/u8x8_d_st75256.c ****               return 1;
 1060              		.loc 1 1013 0
 1061 014c 0120     		movs	r0, #1
 1062 014e BDE8F081 		pop	{r4, r5, r6, r7, r8, pc}
 1063              	.LVL161:
 1064              	.L75:
1014:..\u8g2\csrc/u8x8_d_st75256.c **** #endif
1015:..\u8g2\csrc/u8x8_d_st75256.c ****   }
1016:..\u8g2\csrc/u8x8_d_st75256.c ****   return 0;
 1065              		.loc 1 1016 0
 1066 0152 0020     		movs	r0, #0
 1067              	.LVL162:
1017:..\u8g2\csrc/u8x8_d_st75256.c ****   
1018:..\u8g2\csrc/u8x8_d_st75256.c ****   
1019:..\u8g2\csrc/u8x8_d_st75256.c ****   
1020:..\u8g2\csrc/u8x8_d_st75256.c **** }
 1068              		.loc 1 1020 0
 1069 0154 BDE8F081 		pop	{r4, r5, r6, r7, r8, pc}
 1070              	.LVL163:
 1071              	.L78:
 1072              		.align	2
 1073              	.L77:
 1074 0158 68020000 		.word	.LANCHOR0+616
 1075 015c 80020000 		.word	.LANCHOR0+640
 1076 0160 00000000 		.word	.LANCHOR0
 1077 0164 0C000000 		.word	.LANCHOR0+12
 1078 0168 50010000 		.word	.LANCHOR0+336
 1079 016c 40010000 		.word	.LANCHOR0+320
 1080              		.cfi_endproc
 1081              	.LFE5:
 1082              		.size	u8x8_d_st75256_jlx240160, .-u8x8_d_st75256_jlx240160
 1083              		.section	.text.u8x8_d_st75256_jlx256160,"ax",%progbits
 1084              		.align	2
 1085              		.global	u8x8_d_st75256_jlx256160
 1086              		.thumb
 1087              		.thumb_func
 1088              		.type	u8x8_d_st75256_jlx256160, %function
 1089              	u8x8_d_st75256_jlx256160:
 1090              	.LFB6:
1021:..\u8g2\csrc/u8x8_d_st75256.c **** 
1022:..\u8g2\csrc/u8x8_d_st75256.c **** 
1023:..\u8g2\csrc/u8x8_d_st75256.c **** /*=============================================*/
1024:..\u8g2\csrc/u8x8_d_st75256.c **** /* JLX256160 */
1025:..\u8g2\csrc/u8x8_d_st75256.c **** 
1026:..\u8g2\csrc/u8x8_d_st75256.c **** static const u8x8_display_info_t u8x8_st75256_256x160_display_info =
1027:..\u8g2\csrc/u8x8_d_st75256.c **** {
1028:..\u8g2\csrc/u8x8_d_st75256.c ****   /* chip_enable_level = */ 0,
1029:..\u8g2\csrc/u8x8_d_st75256.c ****   /* chip_disable_level = */ 1,
1030:..\u8g2\csrc/u8x8_d_st75256.c ****   
ARM GAS  C:\Users\brian\AppData\Local\Temp\cckfkOf3.s 			page 39


1031:..\u8g2\csrc/u8x8_d_st75256.c ****   /* post_chip_enable_wait_ns = */ 20,
1032:..\u8g2\csrc/u8x8_d_st75256.c ****   /* pre_chip_disable_wait_ns = */ 20,
1033:..\u8g2\csrc/u8x8_d_st75256.c ****   /* reset_pulse_width_ms = */ 5, 	
1034:..\u8g2\csrc/u8x8_d_st75256.c ****   /* post_reset_wait_ms = */ 5, 		/**/
1035:..\u8g2\csrc/u8x8_d_st75256.c ****   /* sda_setup_time_ns = */ 20,		/* */
1036:..\u8g2\csrc/u8x8_d_st75256.c ****   /* sck_pulse_width_ns = */ 40,	/*  */
1037:..\u8g2\csrc/u8x8_d_st75256.c ****   /* sck_clock_hz = */ 4000000UL,	/* since Arduino 1.6.0, the SPI bus speed in Hz. Should be  10000
1038:..\u8g2\csrc/u8x8_d_st75256.c ****   /* spi_mode = */ 0,		/* active high, rising edge */
1039:..\u8g2\csrc/u8x8_d_st75256.c ****   /* i2c_bus_clock_100kHz = */ 4,	/* 400KHz */
1040:..\u8g2\csrc/u8x8_d_st75256.c ****   /* data_setup_time_ns = */ 15,
1041:..\u8g2\csrc/u8x8_d_st75256.c ****   /* write_pulse_width_ns = */ 70,	
1042:..\u8g2\csrc/u8x8_d_st75256.c ****   /* tile_width = */ 32,
1043:..\u8g2\csrc/u8x8_d_st75256.c ****   /* tile_hight = */ 20,
1044:..\u8g2\csrc/u8x8_d_st75256.c ****   /* default_x_offset = */ 0,
1045:..\u8g2\csrc/u8x8_d_st75256.c ****   /* flipmode_x_offset = */ 1,	/* x offset is used as y offset in flipmode */
1046:..\u8g2\csrc/u8x8_d_st75256.c ****   /* pixel_width = */ 256,
1047:..\u8g2\csrc/u8x8_d_st75256.c ****   /* pixel_height = */ 160
1048:..\u8g2\csrc/u8x8_d_st75256.c **** };
1049:..\u8g2\csrc/u8x8_d_st75256.c **** 
1050:..\u8g2\csrc/u8x8_d_st75256.c **** 
1051:..\u8g2\csrc/u8x8_d_st75256.c **** static const uint8_t u8x8_d_st75256_256x160_init_seq[] = {
1052:..\u8g2\csrc/u8x8_d_st75256.c ****   U8X8_START_TRANSFER(),             	/* enable chip, delay is part of the transfer start */
1053:..\u8g2\csrc/u8x8_d_st75256.c ****   
1054:..\u8g2\csrc/u8x8_d_st75256.c ****   U8X8_DLY(20),
1055:..\u8g2\csrc/u8x8_d_st75256.c **** 
1056:..\u8g2\csrc/u8x8_d_st75256.c ****   U8X8_C( 0x030 ),				/* select 00 commands */
1057:..\u8g2\csrc/u8x8_d_st75256.c ****   U8X8_C( 0x094 ),				/* sleep out */
1058:..\u8g2\csrc/u8x8_d_st75256.c **** 
1059:..\u8g2\csrc/u8x8_d_st75256.c ****   //U8X8_C( 0x030 ),				/* select 00 commands */
1060:..\u8g2\csrc/u8x8_d_st75256.c ****   U8X8_C( 0x0ae ),				/* display off */
1061:..\u8g2\csrc/u8x8_d_st75256.c **** 
1062:..\u8g2\csrc/u8x8_d_st75256.c ****   U8X8_C( 0x031 ),				/* select 01 commands */
1063:..\u8g2\csrc/u8x8_d_st75256.c ****   U8X8_CA( 0x0d7, 0x09f ),		/* disable auto read */  
1064:..\u8g2\csrc/u8x8_d_st75256.c **** 
1065:..\u8g2\csrc/u8x8_d_st75256.c ****   //U8X8_C( 0x031 ),				/* select 01 commands */
1066:..\u8g2\csrc/u8x8_d_st75256.c ****   U8X8_C( 0x032 ),				/* analog circuit set */
1067:..\u8g2\csrc/u8x8_d_st75256.c ****   U8X8_A( 0x000 ),				/* code example: OSC Frequency adjustment */
1068:..\u8g2\csrc/u8x8_d_st75256.c ****   U8X8_A( 0x001 ),				/* Frequency on booster capacitors 1 = 6KHz? */
1069:..\u8g2\csrc/u8x8_d_st75256.c ****   U8X8_A( 0x000 ),				/* Bias: 1: 1/13, 2: 1/12, 3: 1/11, 4:1/10, 5:1/9 */
1070:..\u8g2\csrc/u8x8_d_st75256.c ****     
1071:..\u8g2\csrc/u8x8_d_st75256.c ****   //U8X8_C( 0x031 ),				/* select 01 commands */
1072:..\u8g2\csrc/u8x8_d_st75256.c ****   U8X8_C( 0x020 ),				/* gray levels */
1073:..\u8g2\csrc/u8x8_d_st75256.c ****   U8X8_A( 0x01 ),
1074:..\u8g2\csrc/u8x8_d_st75256.c ****   U8X8_A( 0x03 ),
1075:..\u8g2\csrc/u8x8_d_st75256.c ****   U8X8_A( 0x05 ),
1076:..\u8g2\csrc/u8x8_d_st75256.c ****   U8X8_A( 0x07 ),
1077:..\u8g2\csrc/u8x8_d_st75256.c ****   U8X8_A( 0x09),
1078:..\u8g2\csrc/u8x8_d_st75256.c ****   U8X8_A( 0x0b ),
1079:..\u8g2\csrc/u8x8_d_st75256.c ****   U8X8_A( 0x0d ),
1080:..\u8g2\csrc/u8x8_d_st75256.c ****   U8X8_A( 0x10 ),
1081:..\u8g2\csrc/u8x8_d_st75256.c ****   U8X8_A( 0x11 ),
1082:..\u8g2\csrc/u8x8_d_st75256.c ****   U8X8_A( 0x13 ),
1083:..\u8g2\csrc/u8x8_d_st75256.c ****   U8X8_A( 0x15 ),
1084:..\u8g2\csrc/u8x8_d_st75256.c ****   U8X8_A( 0x17 ),
1085:..\u8g2\csrc/u8x8_d_st75256.c ****   U8X8_A( 0x19 ),
1086:..\u8g2\csrc/u8x8_d_st75256.c ****   U8X8_A( 0x1b ),
1087:..\u8g2\csrc/u8x8_d_st75256.c ****   U8X8_A( 0x1d ),
ARM GAS  C:\Users\brian\AppData\Local\Temp\cckfkOf3.s 			page 40


1088:..\u8g2\csrc/u8x8_d_st75256.c ****   U8X8_A( 0x1f ),
1089:..\u8g2\csrc/u8x8_d_st75256.c ****  
1090:..\u8g2\csrc/u8x8_d_st75256.c ****   
1091:..\u8g2\csrc/u8x8_d_st75256.c ****   U8X8_C( 0x030 ),				/* select 00 commands */
1092:..\u8g2\csrc/u8x8_d_st75256.c ****   U8X8_CAA(0x75, 0, 0x28),		/* row range */
1093:..\u8g2\csrc/u8x8_d_st75256.c ****   U8X8_CAA(0x15, 0, 0xFF),		/* col range */
1094:..\u8g2\csrc/u8x8_d_st75256.c ****   
1095:..\u8g2\csrc/u8x8_d_st75256.c ****   //U8X8_C( 0x030 ),				/* select 00 commands */
1096:..\u8g2\csrc/u8x8_d_st75256.c ****   U8X8_CA( 0xbc, 0x00 ),			/* data scan dir */
1097:..\u8g2\csrc/u8x8_d_st75256.c ****   U8X8_A( 0xa6 ),				/* ??? */
1098:..\u8g2\csrc/u8x8_d_st75256.c **** 
1099:..\u8g2\csrc/u8x8_d_st75256.c ****   //U8X8_C( 0x030 ),				/* select 00 commands */
1100:..\u8g2\csrc/u8x8_d_st75256.c ****   U8X8_C( 0x00c ),				/* data format LSB top */
1101:..\u8g2\csrc/u8x8_d_st75256.c **** 
1102:..\u8g2\csrc/u8x8_d_st75256.c ****   //U8X8_C( 0x030 ),				/* select 00 commands */ 
1103:..\u8g2\csrc/u8x8_d_st75256.c ****   U8X8_C( 0xca ),				/* display control, 3 args follow  */
1104:..\u8g2\csrc/u8x8_d_st75256.c ****   U8X8_A( 0x00 ),				/* 0x00: no clock division, 0x04: devide clock */
1105:..\u8g2\csrc/u8x8_d_st75256.c ****   U8X8_A( 159 ),				/* 1/160 duty value from the DS example code */
1106:..\u8g2\csrc/u8x8_d_st75256.c ****   U8X8_A( 0x20 ),				/* nline off */ 
1107:..\u8g2\csrc/u8x8_d_st75256.c **** 
1108:..\u8g2\csrc/u8x8_d_st75256.c ****   //U8X8_C( 0x030 ),				/* select 00 commands */ 
1109:..\u8g2\csrc/u8x8_d_st75256.c ****   U8X8_CA( 0x0f0, 0x010 ),		/* monochrome mode  = 0x010*/
1110:..\u8g2\csrc/u8x8_d_st75256.c **** 
1111:..\u8g2\csrc/u8x8_d_st75256.c ****   //U8X8_C( 0x030 ),				/* select 00 commands */
1112:..\u8g2\csrc/u8x8_d_st75256.c ****   U8X8_CAA( 0x81, 0x18, 0x05 ),	/* Volume control */
1113:..\u8g2\csrc/u8x8_d_st75256.c **** 
1114:..\u8g2\csrc/u8x8_d_st75256.c ****   //U8X8_C( 0x030 ),				/* select 00 commands */
1115:..\u8g2\csrc/u8x8_d_st75256.c ****   U8X8_CA( 0x020, 0x00b ),		/* Power control: Regulator, follower & booster on */
1116:..\u8g2\csrc/u8x8_d_st75256.c ****   U8X8_DLY(100),
1117:..\u8g2\csrc/u8x8_d_st75256.c **** 
1118:..\u8g2\csrc/u8x8_d_st75256.c ****   U8X8_END_TRANSFER(),             	/* disable chip */
1119:..\u8g2\csrc/u8x8_d_st75256.c ****   U8X8_END()             			/* end of sequence */
1120:..\u8g2\csrc/u8x8_d_st75256.c **** };
1121:..\u8g2\csrc/u8x8_d_st75256.c **** 
1122:..\u8g2\csrc/u8x8_d_st75256.c **** 
1123:..\u8g2\csrc/u8x8_d_st75256.c **** uint8_t u8x8_d_st75256_jlx256160(u8x8_t *u8x8, uint8_t msg, uint8_t arg_int, void *arg_ptr)
1124:..\u8g2\csrc/u8x8_d_st75256.c **** {
 1091              		.loc 1 1124 0
 1092              		.cfi_startproc
 1093              		@ args = 0, pretend = 0, frame = 0
 1094              		@ frame_needed = 0, uses_anonymous_args = 0
 1095              	.LVL164:
 1096 0000 2DE9F041 		push	{r4, r5, r6, r7, r8, lr}
 1097              		.cfi_def_cfa_offset 24
 1098              		.cfi_offset 4, -24
 1099              		.cfi_offset 5, -20
 1100              		.cfi_offset 6, -16
 1101              		.cfi_offset 7, -12
 1102              		.cfi_offset 8, -8
 1103              		.cfi_offset 14, -4
 1104 0004 0646     		mov	r6, r0
 1105 0006 1546     		mov	r5, r2
 1106 0008 9846     		mov	r8, r3
1125:..\u8g2\csrc/u8x8_d_st75256.c ****   uint8_t x, c;
1126:..\u8g2\csrc/u8x8_d_st75256.c ****   uint8_t *ptr;
1127:..\u8g2\csrc/u8x8_d_st75256.c **** 
1128:..\u8g2\csrc/u8x8_d_st75256.c ****   switch(msg)
ARM GAS  C:\Users\brian\AppData\Local\Temp\cckfkOf3.s 			page 41


 1107              		.loc 1 1128 0
 1108 000a 0939     		subs	r1, r1, #9
 1109              	.LVL165:
 1110 000c 0629     		cmp	r1, #6
 1111 000e 00F2A680 		bhi	.L94
 1112 0012 DFE801F0 		tbb	[pc, r1]
 1113              	.LVL166:
 1114              	.L82:
 1115 0016 59       		.byte	(.L81-.L82)/2
 1116 0017 5F       		.byte	(.L83-.L82)/2
 1117 0018 68       		.byte	(.L84-.L82)/2
 1118 0019 A4       		.byte	(.L94-.L82)/2
 1119 001a 75       		.byte	(.L85-.L82)/2
 1120 001b 8A       		.byte	(.L86-.L82)/2
 1121 001c 04       		.byte	(.L87-.L82)/2
 1122 001d 00       		.p2align 1
 1123              	.L87:
1129:..\u8g2\csrc/u8x8_d_st75256.c ****   {
1130:..\u8g2\csrc/u8x8_d_st75256.c ****             case U8X8_MSG_DISPLAY_DRAW_TILE:
1131:..\u8g2\csrc/u8x8_d_st75256.c ****               
1132:..\u8g2\csrc/u8x8_d_st75256.c ****               u8x8_cad_StartTransfer(u8x8);
 1124              		.loc 1 1132 0
 1125 001e FFF7FEFF 		bl	u8x8_cad_StartTransfer
 1126              	.LVL167:
1133:..\u8g2\csrc/u8x8_d_st75256.c ****               x = ((u8x8_tile_t *)arg_ptr)->x_pos;    
 1127              		.loc 1 1133 0
 1128 0022 98F80540 		ldrb	r4, [r8, #5]	@ zero_extendqisi2
 1129              	.LVL168:
1134:..\u8g2\csrc/u8x8_d_st75256.c ****               x *= 8;
 1130              		.loc 1 1134 0
 1131 0026 E400     		lsls	r4, r4, #3
 1132              	.LVL169:
 1133 0028 E4B2     		uxtb	r4, r4
 1134              	.LVL170:
1135:..\u8g2\csrc/u8x8_d_st75256.c ****               
1136:..\u8g2\csrc/u8x8_d_st75256.c ****               u8x8_cad_SendCmd(u8x8, 0x030 );	/* select command set */
 1135              		.loc 1 1136 0
 1136 002a 3021     		movs	r1, #48
 1137 002c 3046     		mov	r0, r6
 1138 002e FFF7FEFF 		bl	u8x8_cad_SendCmd
 1139              	.LVL171:
1137:..\u8g2\csrc/u8x8_d_st75256.c ****               u8x8_cad_SendCmd(u8x8, 0x075 );	/* row */
 1140              		.loc 1 1137 0
 1141 0032 7521     		movs	r1, #117
 1142 0034 3046     		mov	r0, r6
 1143 0036 FFF7FEFF 		bl	u8x8_cad_SendCmd
 1144              	.LVL172:
1138:..\u8g2\csrc/u8x8_d_st75256.c **** 	      if ( u8x8->x_offset == 1 )		/* 1 means flip mode 1 */
 1145              		.loc 1 1138 0
 1146 003a 96F82230 		ldrb	r3, [r6, #34]	@ zero_extendqisi2
 1147 003e 012B     		cmp	r3, #1
 1148 0040 07D1     		bne	.L88
1139:..\u8g2\csrc/u8x8_d_st75256.c **** 		u8x8_cad_SendArg(u8x8, 1+(((u8x8_tile_t *)arg_ptr)->y_pos));
 1149              		.loc 1 1139 0
 1150 0042 98F80610 		ldrb	r1, [r8, #6]	@ zero_extendqisi2
 1151 0046 0131     		adds	r1, r1, #1
 1152 0048 C9B2     		uxtb	r1, r1
ARM GAS  C:\Users\brian\AppData\Local\Temp\cckfkOf3.s 			page 42


 1153 004a 3046     		mov	r0, r6
 1154 004c FFF7FEFF 		bl	u8x8_cad_SendArg
 1155              	.LVL173:
 1156 0050 04E0     		b	.L89
 1157              	.L88:
1140:..\u8g2\csrc/u8x8_d_st75256.c **** 	      else
1141:..\u8g2\csrc/u8x8_d_st75256.c **** 		u8x8_cad_SendArg(u8x8, (((u8x8_tile_t *)arg_ptr)->y_pos));
 1158              		.loc 1 1141 0
 1159 0052 98F80610 		ldrb	r1, [r8, #6]	@ zero_extendqisi2
 1160 0056 3046     		mov	r0, r6
 1161 0058 FFF7FEFF 		bl	u8x8_cad_SendArg
 1162              	.LVL174:
 1163              	.L89:
1142:..\u8g2\csrc/u8x8_d_st75256.c ****               u8x8_cad_SendArg(u8x8, 0x04f);
 1164              		.loc 1 1142 0
 1165 005c 4F21     		movs	r1, #79
 1166 005e 3046     		mov	r0, r6
 1167 0060 FFF7FEFF 		bl	u8x8_cad_SendArg
 1168              	.LVL175:
1143:..\u8g2\csrc/u8x8_d_st75256.c ****               //u8x8_cad_SendArg(u8x8, (((u8x8_tile_t *)arg_ptr)->y_pos));
1144:..\u8g2\csrc/u8x8_d_st75256.c ****               u8x8_cad_SendCmd(u8x8, 0x015 );	/* col */
 1169              		.loc 1 1144 0
 1170 0064 1521     		movs	r1, #21
 1171 0066 3046     		mov	r0, r6
 1172 0068 FFF7FEFF 		bl	u8x8_cad_SendCmd
 1173              	.LVL176:
1145:..\u8g2\csrc/u8x8_d_st75256.c ****               u8x8_cad_SendArg(u8x8, x+u8x8->display_info->default_x_offset);
 1174              		.loc 1 1145 0
 1175 006c 3368     		ldr	r3, [r6]
 1176 006e 997C     		ldrb	r1, [r3, #18]	@ zero_extendqisi2
 1177 0070 2144     		add	r1, r1, r4
 1178 0072 C9B2     		uxtb	r1, r1
 1179 0074 3046     		mov	r0, r6
 1180 0076 FFF7FEFF 		bl	u8x8_cad_SendArg
 1181              	.LVL177:
1146:..\u8g2\csrc/u8x8_d_st75256.c ****               u8x8_cad_SendArg(u8x8, 255);
 1182              		.loc 1 1146 0
 1183 007a FF21     		movs	r1, #255
 1184 007c 3046     		mov	r0, r6
 1185 007e FFF7FEFF 		bl	u8x8_cad_SendArg
 1186              	.LVL178:
1147:..\u8g2\csrc/u8x8_d_st75256.c ****               u8x8_cad_SendCmd(u8x8, 0x05c );	
 1187              		.loc 1 1147 0
 1188 0082 5C21     		movs	r1, #92
 1189 0084 3046     		mov	r0, r6
 1190 0086 FFF7FEFF 		bl	u8x8_cad_SendCmd
 1191              	.LVL179:
 1192              	.L91:
1148:..\u8g2\csrc/u8x8_d_st75256.c ****             
1149:..\u8g2\csrc/u8x8_d_st75256.c ****               
1150:..\u8g2\csrc/u8x8_d_st75256.c ****               do
1151:..\u8g2\csrc/u8x8_d_st75256.c ****               {
1152:..\u8g2\csrc/u8x8_d_st75256.c ****                 c = ((u8x8_tile_t *)arg_ptr)->cnt;
 1193              		.loc 1 1152 0
 1194 008a 98F80440 		ldrb	r4, [r8, #4]	@ zero_extendqisi2
 1195              	.LVL180:
1153:..\u8g2\csrc/u8x8_d_st75256.c ****                 ptr = ((u8x8_tile_t *)arg_ptr)->tile_ptr;
ARM GAS  C:\Users\brian\AppData\Local\Temp\cckfkOf3.s 			page 43


 1196              		.loc 1 1153 0
 1197 008e D8F80070 		ldr	r7, [r8]
 1198              	.LVL181:
1154:..\u8g2\csrc/u8x8_d_st75256.c **** 		/* SendData can not handle more than 255 bytes, treat c > 31 correctly  */
1155:..\u8g2\csrc/u8x8_d_st75256.c **** 		if ( c > 31 )
 1199              		.loc 1 1155 0
 1200 0092 1F2C     		cmp	r4, #31
 1201 0094 07D9     		bls	.L90
1156:..\u8g2\csrc/u8x8_d_st75256.c **** 		{
1157:..\u8g2\csrc/u8x8_d_st75256.c **** 		  u8x8_cad_SendData(u8x8, 248, ptr); 	/* 31*8=248 */
 1202              		.loc 1 1157 0
 1203 0096 3A46     		mov	r2, r7
 1204 0098 F821     		movs	r1, #248
 1205 009a 3046     		mov	r0, r6
 1206 009c FFF7FEFF 		bl	u8x8_cad_SendData
 1207              	.LVL182:
1158:..\u8g2\csrc/u8x8_d_st75256.c **** 		  ptr+=248;
 1208              		.loc 1 1158 0
 1209 00a0 F837     		adds	r7, r7, #248
 1210              	.LVL183:
1159:..\u8g2\csrc/u8x8_d_st75256.c **** 		  c -= 31;
 1211              		.loc 1 1159 0
 1212 00a2 1F3C     		subs	r4, r4, #31
 1213              	.LVL184:
 1214 00a4 E4B2     		uxtb	r4, r4
 1215              	.LVL185:
 1216              	.L90:
1160:..\u8g2\csrc/u8x8_d_st75256.c **** 		}
1161:..\u8g2\csrc/u8x8_d_st75256.c **** 		
1162:..\u8g2\csrc/u8x8_d_st75256.c **** 		u8x8_cad_SendData(u8x8, c*8, ptr); 	
 1217              		.loc 1 1162 0
 1218 00a6 E100     		lsls	r1, r4, #3
 1219 00a8 3A46     		mov	r2, r7
 1220 00aa 01F0F801 		and	r1, r1, #248
 1221 00ae 3046     		mov	r0, r6
 1222 00b0 FFF7FEFF 		bl	u8x8_cad_SendData
 1223              	.LVL186:
1163:..\u8g2\csrc/u8x8_d_st75256.c ****                 arg_int--;
 1224              		.loc 1 1163 0
 1225 00b4 6A1E     		subs	r2, r5, #1
 1226              	.LVL187:
1164:..\u8g2\csrc/u8x8_d_st75256.c ****               } while( arg_int > 0 );
 1227              		.loc 1 1164 0
 1228 00b6 12F0FF05 		ands	r5, r2, #255
 1229 00ba E6D1     		bne	.L91
1165:..\u8g2\csrc/u8x8_d_st75256.c ****               
1166:..\u8g2\csrc/u8x8_d_st75256.c ****               u8x8_cad_EndTransfer(u8x8);
 1230              		.loc 1 1166 0
 1231 00bc 3046     		mov	r0, r6
 1232 00be FFF7FEFF 		bl	u8x8_cad_EndTransfer
 1233              	.LVL188:
1167:..\u8g2\csrc/u8x8_d_st75256.c ****               return 1;
 1234              		.loc 1 1167 0
 1235 00c2 0120     		movs	r0, #1
 1236 00c4 BDE8F081 		pop	{r4, r5, r6, r7, r8, pc}
 1237              	.LVL189:
 1238              	.L81:
ARM GAS  C:\Users\brian\AppData\Local\Temp\cckfkOf3.s 			page 44


1168:..\u8g2\csrc/u8x8_d_st75256.c ****         case U8X8_MSG_DISPLAY_SETUP_MEMORY:
1169:..\u8g2\csrc/u8x8_d_st75256.c ****             //u8x8_SetI2CAddress(u8x8, 0x078);		/* lowest I2C adr of the ST75256 */
1170:..\u8g2\csrc/u8x8_d_st75256.c **** 	    u8x8_d_helper_display_setup_memory(u8x8, &u8x8_st75256_256x160_display_info);
 1239              		.loc 1 1170 0
 1240 00c8 2649     		ldr	r1, .L96
 1241 00ca FFF7FEFF 		bl	u8x8_d_helper_display_setup_memory
 1242              	.LVL190:
1171:..\u8g2\csrc/u8x8_d_st75256.c ****             return 1;
 1243              		.loc 1 1171 0
 1244 00ce 0120     		movs	r0, #1
 1245 00d0 BDE8F081 		pop	{r4, r5, r6, r7, r8, pc}
 1246              	.LVL191:
 1247              	.L83:
1172:..\u8g2\csrc/u8x8_d_st75256.c ****         case U8X8_MSG_DISPLAY_INIT:
1173:..\u8g2\csrc/u8x8_d_st75256.c **** 	    u8x8_d_helper_display_init(u8x8);
 1248              		.loc 1 1173 0
 1249 00d4 FFF7FEFF 		bl	u8x8_d_helper_display_init
 1250              	.LVL192:
1174:..\u8g2\csrc/u8x8_d_st75256.c **** 	    u8x8_cad_SendSequence(u8x8, u8x8_d_st75256_256x160_init_seq);    
 1251              		.loc 1 1174 0
 1252 00d8 2349     		ldr	r1, .L96+4
 1253 00da 3046     		mov	r0, r6
 1254 00dc FFF7FEFF 		bl	u8x8_cad_SendSequence
 1255              	.LVL193:
1175:..\u8g2\csrc/u8x8_d_st75256.c ****             return 1;
 1256              		.loc 1 1175 0
 1257 00e0 0120     		movs	r0, #1
 1258 00e2 BDE8F081 		pop	{r4, r5, r6, r7, r8, pc}
 1259              	.LVL194:
 1260              	.L84:
1176:..\u8g2\csrc/u8x8_d_st75256.c ****         case U8X8_MSG_DISPLAY_SET_POWER_SAVE:
1177:..\u8g2\csrc/u8x8_d_st75256.c ****               if ( arg_int == 0 )
 1261              		.loc 1 1177 0
 1262 00e6 2AB9     		cbnz	r2, .L92
1178:..\u8g2\csrc/u8x8_d_st75256.c ****                 u8x8_cad_SendSequence(u8x8, u8x8_d_st75256_256x128_powersave0_seq);
 1263              		.loc 1 1178 0
 1264 00e8 2049     		ldr	r1, .L96+8
 1265 00ea FFF7FEFF 		bl	u8x8_cad_SendSequence
 1266              	.LVL195:
1179:..\u8g2\csrc/u8x8_d_st75256.c ****               else
1180:..\u8g2\csrc/u8x8_d_st75256.c ****                 u8x8_cad_SendSequence(u8x8, u8x8_d_st75256_256x128_powersave1_seq);
1181:..\u8g2\csrc/u8x8_d_st75256.c **** 
1182:..\u8g2\csrc/u8x8_d_st75256.c ****               return 1;
 1267              		.loc 1 1182 0
 1268 00ee 0120     		movs	r0, #1
 1269 00f0 BDE8F081 		pop	{r4, r5, r6, r7, r8, pc}
 1270              	.LVL196:
 1271              	.L92:
1180:..\u8g2\csrc/u8x8_d_st75256.c **** 
 1272              		.loc 1 1180 0
 1273 00f4 1E49     		ldr	r1, .L96+12
 1274 00f6 FFF7FEFF 		bl	u8x8_cad_SendSequence
 1275              	.LVL197:
 1276              		.loc 1 1182 0
 1277 00fa 0120     		movs	r0, #1
 1278 00fc BDE8F081 		pop	{r4, r5, r6, r7, r8, pc}
 1279              	.LVL198:
ARM GAS  C:\Users\brian\AppData\Local\Temp\cckfkOf3.s 			page 45


 1280              	.L85:
1183:..\u8g2\csrc/u8x8_d_st75256.c **** 	case U8X8_MSG_DISPLAY_SET_FLIP_MODE:
1184:..\u8g2\csrc/u8x8_d_st75256.c **** 	    if ( arg_int == 0 )
 1281              		.loc 1 1184 0
 1282 0100 4AB9     		cbnz	r2, .L93
1185:..\u8g2\csrc/u8x8_d_st75256.c **** 	    {
1186:..\u8g2\csrc/u8x8_d_st75256.c **** 	      u8x8_cad_SendSequence(u8x8, u8x8_d_st75256_jlx256160_flip0_seq);
 1283              		.loc 1 1186 0
 1284 0102 1C49     		ldr	r1, .L96+16
 1285 0104 FFF7FEFF 		bl	u8x8_cad_SendSequence
 1286              	.LVL199:
1187:..\u8g2\csrc/u8x8_d_st75256.c **** 	      u8x8->x_offset = u8x8->display_info->default_x_offset;
 1287              		.loc 1 1187 0
 1288 0108 3368     		ldr	r3, [r6]
 1289 010a 9B7C     		ldrb	r3, [r3, #18]	@ zero_extendqisi2
 1290 010c 86F82230 		strb	r3, [r6, #34]
1188:..\u8g2\csrc/u8x8_d_st75256.c **** 	    }
1189:..\u8g2\csrc/u8x8_d_st75256.c **** 	    else
1190:..\u8g2\csrc/u8x8_d_st75256.c **** 	    {
1191:..\u8g2\csrc/u8x8_d_st75256.c **** 	      u8x8_cad_SendSequence(u8x8, u8x8_d_st75256_jlx256160_flip1_seq);
1192:..\u8g2\csrc/u8x8_d_st75256.c **** 	      u8x8->x_offset = u8x8->display_info->flipmode_x_offset;
1193:..\u8g2\csrc/u8x8_d_st75256.c **** 	    }
1194:..\u8g2\csrc/u8x8_d_st75256.c **** 	    return 1;
 1291              		.loc 1 1194 0
 1292 0110 0120     		movs	r0, #1
 1293 0112 BDE8F081 		pop	{r4, r5, r6, r7, r8, pc}
 1294              	.LVL200:
 1295              	.L93:
1191:..\u8g2\csrc/u8x8_d_st75256.c **** 	      u8x8->x_offset = u8x8->display_info->flipmode_x_offset;
 1296              		.loc 1 1191 0
 1297 0116 1849     		ldr	r1, .L96+20
 1298 0118 FFF7FEFF 		bl	u8x8_cad_SendSequence
 1299              	.LVL201:
1192:..\u8g2\csrc/u8x8_d_st75256.c **** 	    }
 1300              		.loc 1 1192 0
 1301 011c 3368     		ldr	r3, [r6]
 1302 011e DB7C     		ldrb	r3, [r3, #19]	@ zero_extendqisi2
 1303 0120 86F82230 		strb	r3, [r6, #34]
 1304              		.loc 1 1194 0
 1305 0124 0120     		movs	r0, #1
 1306 0126 BDE8F081 		pop	{r4, r5, r6, r7, r8, pc}
 1307              	.LVL202:
 1308              	.L86:
1195:..\u8g2\csrc/u8x8_d_st75256.c **** 		
1196:..\u8g2\csrc/u8x8_d_st75256.c **** #ifdef U8X8_WITH_SET_CONTRAST
1197:..\u8g2\csrc/u8x8_d_st75256.c ****         case U8X8_MSG_DISPLAY_SET_CONTRAST:
1198:..\u8g2\csrc/u8x8_d_st75256.c **** 
1199:..\u8g2\csrc/u8x8_d_st75256.c ****               u8x8_cad_StartTransfer(u8x8);
 1309              		.loc 1 1199 0
 1310 012a FFF7FEFF 		bl	u8x8_cad_StartTransfer
 1311              	.LVL203:
1200:..\u8g2\csrc/u8x8_d_st75256.c ****               
1201:..\u8g2\csrc/u8x8_d_st75256.c ****               u8x8_cad_SendCmd(u8x8, 0x030 );
 1312              		.loc 1 1201 0
 1313 012e 3021     		movs	r1, #48
 1314 0130 3046     		mov	r0, r6
 1315 0132 FFF7FEFF 		bl	u8x8_cad_SendCmd
ARM GAS  C:\Users\brian\AppData\Local\Temp\cckfkOf3.s 			page 46


 1316              	.LVL204:
1202:..\u8g2\csrc/u8x8_d_st75256.c ****               u8x8_cad_SendCmd(u8x8, 0x081 );  /* there are 9 bit for the volume control */
 1317              		.loc 1 1202 0
 1318 0136 8121     		movs	r1, #129
 1319 0138 3046     		mov	r0, r6
 1320 013a FFF7FEFF 		bl	u8x8_cad_SendCmd
 1321              	.LVL205:
1203:..\u8g2\csrc/u8x8_d_st75256.c ****               u8x8_cad_SendArg(u8x8, (arg_int & 0x1f)<<1 );	/* lower 6 bit */
 1322              		.loc 1 1203 0
 1323 013e 6900     		lsls	r1, r5, #1
 1324 0140 01F03E01 		and	r1, r1, #62
 1325 0144 3046     		mov	r0, r6
 1326 0146 FFF7FEFF 		bl	u8x8_cad_SendArg
 1327              	.LVL206:
1204:..\u8g2\csrc/u8x8_d_st75256.c ****               u8x8_cad_SendArg(u8x8, (arg_int>>5));		/* upper 3 bit */
 1328              		.loc 1 1204 0
 1329 014a 6909     		lsrs	r1, r5, #5
 1330 014c 3046     		mov	r0, r6
 1331 014e FFF7FEFF 		bl	u8x8_cad_SendArg
 1332              	.LVL207:
1205:..\u8g2\csrc/u8x8_d_st75256.c ****               
1206:..\u8g2\csrc/u8x8_d_st75256.c ****               u8x8_cad_EndTransfer(u8x8);
 1333              		.loc 1 1206 0
 1334 0152 3046     		mov	r0, r6
 1335 0154 FFF7FEFF 		bl	u8x8_cad_EndTransfer
 1336              	.LVL208:
1207:..\u8g2\csrc/u8x8_d_st75256.c ****               return 1;
 1337              		.loc 1 1207 0
 1338 0158 0120     		movs	r0, #1
 1339 015a BDE8F081 		pop	{r4, r5, r6, r7, r8, pc}
 1340              	.LVL209:
 1341              	.L94:
1208:..\u8g2\csrc/u8x8_d_st75256.c **** #endif
1209:..\u8g2\csrc/u8x8_d_st75256.c ****   }
1210:..\u8g2\csrc/u8x8_d_st75256.c ****   return 0;
 1342              		.loc 1 1210 0
 1343 015e 0020     		movs	r0, #0
 1344              	.LVL210:
1211:..\u8g2\csrc/u8x8_d_st75256.c **** }
 1345              		.loc 1 1211 0
 1346 0160 BDE8F081 		pop	{r4, r5, r6, r7, r8, pc}
 1347              	.LVL211:
 1348              	.L97:
 1349              		.align	2
 1350              	.L96:
 1351 0164 EC020000 		.word	.LANCHOR0+748
 1352 0168 04030000 		.word	.LANCHOR0+772
 1353 016c 00000000 		.word	.LANCHOR0
 1354 0170 0C000000 		.word	.LANCHOR0+12
 1355 0174 70030000 		.word	.LANCHOR0+880
 1356 0178 80030000 		.word	.LANCHOR0+896
 1357              		.cfi_endproc
 1358              	.LFE6:
 1359              		.size	u8x8_d_st75256_jlx256160, .-u8x8_d_st75256_jlx256160
 1360              		.section	.text.u8x8_d_st75256_jlx256160m,"ax",%progbits
 1361              		.align	2
 1362              		.global	u8x8_d_st75256_jlx256160m
ARM GAS  C:\Users\brian\AppData\Local\Temp\cckfkOf3.s 			page 47


 1363              		.thumb
 1364              		.thumb_func
 1365              		.type	u8x8_d_st75256_jlx256160m, %function
 1366              	u8x8_d_st75256_jlx256160m:
 1367              	.LFB7:
1212:..\u8g2\csrc/u8x8_d_st75256.c **** 
1213:..\u8g2\csrc/u8x8_d_st75256.c **** 
1214:..\u8g2\csrc/u8x8_d_st75256.c **** /*=============================================*/
1215:..\u8g2\csrc/u8x8_d_st75256.c **** /* JLX256160 mirror version #930 */
1216:..\u8g2\csrc/u8x8_d_st75256.c **** 
1217:..\u8g2\csrc/u8x8_d_st75256.c **** 
1218:..\u8g2\csrc/u8x8_d_st75256.c **** static const uint8_t u8x8_d_st75256_256x160m_init_seq[] = {
1219:..\u8g2\csrc/u8x8_d_st75256.c ****   U8X8_START_TRANSFER(),             	/* enable chip, delay is part of the transfer start */
1220:..\u8g2\csrc/u8x8_d_st75256.c ****   
1221:..\u8g2\csrc/u8x8_d_st75256.c ****   U8X8_DLY(20),
1222:..\u8g2\csrc/u8x8_d_st75256.c **** 
1223:..\u8g2\csrc/u8x8_d_st75256.c ****   U8X8_C( 0x030 ),				/* select 00 commands */
1224:..\u8g2\csrc/u8x8_d_st75256.c ****   U8X8_C( 0x094 ),				/* sleep out */
1225:..\u8g2\csrc/u8x8_d_st75256.c **** 
1226:..\u8g2\csrc/u8x8_d_st75256.c ****   //U8X8_C( 0x030 ),				/* select 00 commands */
1227:..\u8g2\csrc/u8x8_d_st75256.c ****   U8X8_C( 0x0ae ),				/* display off */
1228:..\u8g2\csrc/u8x8_d_st75256.c **** 
1229:..\u8g2\csrc/u8x8_d_st75256.c ****   U8X8_C( 0x031 ),				/* select 01 commands */
1230:..\u8g2\csrc/u8x8_d_st75256.c ****   U8X8_CA( 0x0d7, 0x09f ),		/* disable auto read */  
1231:..\u8g2\csrc/u8x8_d_st75256.c **** 
1232:..\u8g2\csrc/u8x8_d_st75256.c ****   //U8X8_C( 0x031 ),				/* select 01 commands */
1233:..\u8g2\csrc/u8x8_d_st75256.c ****   U8X8_C( 0x032 ),				/* analog circuit set */
1234:..\u8g2\csrc/u8x8_d_st75256.c ****   U8X8_A( 0x000 ),				/* code example: OSC Frequency adjustment */
1235:..\u8g2\csrc/u8x8_d_st75256.c ****   U8X8_A( 0x001 ),				/* Frequency on booster capacitors 1 = 6KHz? */
1236:..\u8g2\csrc/u8x8_d_st75256.c ****   U8X8_A( 0x000 ),				/* Bias: 1: 1/13, 2: 1/12, 3: 1/11, 4:1/10, 5:1/9 */
1237:..\u8g2\csrc/u8x8_d_st75256.c ****     
1238:..\u8g2\csrc/u8x8_d_st75256.c ****   //U8X8_C( 0x031 ),				/* select 01 commands */
1239:..\u8g2\csrc/u8x8_d_st75256.c ****   U8X8_C( 0x020 ),				/* gray levels */
1240:..\u8g2\csrc/u8x8_d_st75256.c ****   U8X8_A( 0x01 ),
1241:..\u8g2\csrc/u8x8_d_st75256.c ****   U8X8_A( 0x03 ),
1242:..\u8g2\csrc/u8x8_d_st75256.c ****   U8X8_A( 0x05 ),
1243:..\u8g2\csrc/u8x8_d_st75256.c ****   U8X8_A( 0x07 ),
1244:..\u8g2\csrc/u8x8_d_st75256.c ****   U8X8_A( 0x09),
1245:..\u8g2\csrc/u8x8_d_st75256.c ****   U8X8_A( 0x0b ),
1246:..\u8g2\csrc/u8x8_d_st75256.c ****   U8X8_A( 0x0d ),
1247:..\u8g2\csrc/u8x8_d_st75256.c ****   U8X8_A( 0x10 ),
1248:..\u8g2\csrc/u8x8_d_st75256.c ****   U8X8_A( 0x11 ),
1249:..\u8g2\csrc/u8x8_d_st75256.c ****   U8X8_A( 0x13 ),
1250:..\u8g2\csrc/u8x8_d_st75256.c ****   U8X8_A( 0x15 ),
1251:..\u8g2\csrc/u8x8_d_st75256.c ****   U8X8_A( 0x17 ),
1252:..\u8g2\csrc/u8x8_d_st75256.c ****   U8X8_A( 0x19 ),
1253:..\u8g2\csrc/u8x8_d_st75256.c ****   U8X8_A( 0x1b ),
1254:..\u8g2\csrc/u8x8_d_st75256.c ****   U8X8_A( 0x1d ),
1255:..\u8g2\csrc/u8x8_d_st75256.c ****   U8X8_A( 0x1f ),
1256:..\u8g2\csrc/u8x8_d_st75256.c ****  
1257:..\u8g2\csrc/u8x8_d_st75256.c ****   
1258:..\u8g2\csrc/u8x8_d_st75256.c ****   U8X8_C( 0x030 ),				/* select 00 commands */
1259:..\u8g2\csrc/u8x8_d_st75256.c ****   U8X8_CAA(0x75, 0, 0x28),		/* row range */
1260:..\u8g2\csrc/u8x8_d_st75256.c ****   U8X8_CAA(0x15, 0, 0xFF),		/* col range */
1261:..\u8g2\csrc/u8x8_d_st75256.c ****   
1262:..\u8g2\csrc/u8x8_d_st75256.c ****   //U8X8_C( 0x030 ),				/* select 00 commands */
1263:..\u8g2\csrc/u8x8_d_st75256.c ****   U8X8_CA( 0xbc, 0x02 ),			/* data scan dir  ( CHANGED FOR MIRROR VERSION ) */
ARM GAS  C:\Users\brian\AppData\Local\Temp\cckfkOf3.s 			page 48


1264:..\u8g2\csrc/u8x8_d_st75256.c ****   U8X8_A( 0xa6 ),				/* ??? */
1265:..\u8g2\csrc/u8x8_d_st75256.c **** 
1266:..\u8g2\csrc/u8x8_d_st75256.c ****   //U8X8_C( 0x030 ),				/* select 00 commands */
1267:..\u8g2\csrc/u8x8_d_st75256.c ****   U8X8_C( 0x00c ),				/* data format LSB top */
1268:..\u8g2\csrc/u8x8_d_st75256.c **** 
1269:..\u8g2\csrc/u8x8_d_st75256.c ****   //U8X8_C( 0x030 ),				/* select 00 commands */ 
1270:..\u8g2\csrc/u8x8_d_st75256.c ****   U8X8_C( 0xca ),				/* display control, 3 args follow  */
1271:..\u8g2\csrc/u8x8_d_st75256.c ****   U8X8_A( 0x00 ),				/* 0x00: no clock division, 0x04: devide clock */
1272:..\u8g2\csrc/u8x8_d_st75256.c ****   U8X8_A( 159 ),				/* 1/160 duty value from the DS example code */
1273:..\u8g2\csrc/u8x8_d_st75256.c ****   U8X8_A( 0x20 ),				/* nline off */ 
1274:..\u8g2\csrc/u8x8_d_st75256.c **** 
1275:..\u8g2\csrc/u8x8_d_st75256.c ****   //U8X8_C( 0x030 ),				/* select 00 commands */ 
1276:..\u8g2\csrc/u8x8_d_st75256.c ****   U8X8_CA( 0x0f0, 0x010 ),		/* monochrome mode  = 0x010*/
1277:..\u8g2\csrc/u8x8_d_st75256.c **** 
1278:..\u8g2\csrc/u8x8_d_st75256.c ****   //U8X8_C( 0x030 ),				/* select 00 commands */
1279:..\u8g2\csrc/u8x8_d_st75256.c ****   U8X8_CAA( 0x81, 0x18, 0x05 ),	/* Volume control */
1280:..\u8g2\csrc/u8x8_d_st75256.c **** 
1281:..\u8g2\csrc/u8x8_d_st75256.c ****   //U8X8_C( 0x030 ),				/* select 00 commands */
1282:..\u8g2\csrc/u8x8_d_st75256.c ****   U8X8_CA( 0x020, 0x00b ),		/* Power control: Regulator, follower & booster on */
1283:..\u8g2\csrc/u8x8_d_st75256.c ****   U8X8_DLY(100),
1284:..\u8g2\csrc/u8x8_d_st75256.c **** 
1285:..\u8g2\csrc/u8x8_d_st75256.c ****   U8X8_END_TRANSFER(),             	/* disable chip */
1286:..\u8g2\csrc/u8x8_d_st75256.c ****   U8X8_END()             			/* end of sequence */
1287:..\u8g2\csrc/u8x8_d_st75256.c **** };
1288:..\u8g2\csrc/u8x8_d_st75256.c **** 
1289:..\u8g2\csrc/u8x8_d_st75256.c **** uint8_t u8x8_d_st75256_jlx256160m(u8x8_t *u8x8, uint8_t msg, uint8_t arg_int, void *arg_ptr)
1290:..\u8g2\csrc/u8x8_d_st75256.c **** {
 1368              		.loc 1 1290 0
 1369              		.cfi_startproc
 1370              		@ args = 0, pretend = 0, frame = 0
 1371              		@ frame_needed = 0, uses_anonymous_args = 0
 1372              	.LVL212:
 1373 0000 2DE9F041 		push	{r4, r5, r6, r7, r8, lr}
 1374              		.cfi_def_cfa_offset 24
 1375              		.cfi_offset 4, -24
 1376              		.cfi_offset 5, -20
 1377              		.cfi_offset 6, -16
 1378              		.cfi_offset 7, -12
 1379              		.cfi_offset 8, -8
 1380              		.cfi_offset 14, -4
 1381 0004 0646     		mov	r6, r0
 1382 0006 1546     		mov	r5, r2
 1383 0008 9846     		mov	r8, r3
1291:..\u8g2\csrc/u8x8_d_st75256.c ****   uint8_t x, c;
1292:..\u8g2\csrc/u8x8_d_st75256.c ****   uint8_t *ptr;
1293:..\u8g2\csrc/u8x8_d_st75256.c **** 
1294:..\u8g2\csrc/u8x8_d_st75256.c ****   switch(msg)
 1384              		.loc 1 1294 0
 1385 000a 0939     		subs	r1, r1, #9
 1386              	.LVL213:
 1387 000c 0629     		cmp	r1, #6
 1388 000e 00F2A680 		bhi	.L113
 1389 0012 DFE801F0 		tbb	[pc, r1]
 1390              	.LVL214:
 1391              	.L101:
 1392 0016 59       		.byte	(.L100-.L101)/2
 1393 0017 5F       		.byte	(.L102-.L101)/2
ARM GAS  C:\Users\brian\AppData\Local\Temp\cckfkOf3.s 			page 49


 1394 0018 68       		.byte	(.L103-.L101)/2
 1395 0019 A4       		.byte	(.L113-.L101)/2
 1396 001a 75       		.byte	(.L104-.L101)/2
 1397 001b 8A       		.byte	(.L105-.L101)/2
 1398 001c 04       		.byte	(.L106-.L101)/2
 1399 001d 00       		.p2align 1
 1400              	.L106:
1295:..\u8g2\csrc/u8x8_d_st75256.c ****   {
1296:..\u8g2\csrc/u8x8_d_st75256.c ****             case U8X8_MSG_DISPLAY_DRAW_TILE:
1297:..\u8g2\csrc/u8x8_d_st75256.c ****               
1298:..\u8g2\csrc/u8x8_d_st75256.c ****               u8x8_cad_StartTransfer(u8x8);
 1401              		.loc 1 1298 0
 1402 001e FFF7FEFF 		bl	u8x8_cad_StartTransfer
 1403              	.LVL215:
1299:..\u8g2\csrc/u8x8_d_st75256.c ****               x = ((u8x8_tile_t *)arg_ptr)->x_pos;    
 1404              		.loc 1 1299 0
 1405 0022 98F80540 		ldrb	r4, [r8, #5]	@ zero_extendqisi2
 1406              	.LVL216:
1300:..\u8g2\csrc/u8x8_d_st75256.c ****               x *= 8;
 1407              		.loc 1 1300 0
 1408 0026 E400     		lsls	r4, r4, #3
 1409              	.LVL217:
 1410 0028 E4B2     		uxtb	r4, r4
 1411              	.LVL218:
1301:..\u8g2\csrc/u8x8_d_st75256.c ****               
1302:..\u8g2\csrc/u8x8_d_st75256.c ****               u8x8_cad_SendCmd(u8x8, 0x030 );	/* select command set */
 1412              		.loc 1 1302 0
 1413 002a 3021     		movs	r1, #48
 1414 002c 3046     		mov	r0, r6
 1415 002e FFF7FEFF 		bl	u8x8_cad_SendCmd
 1416              	.LVL219:
1303:..\u8g2\csrc/u8x8_d_st75256.c ****               u8x8_cad_SendCmd(u8x8, 0x075 );	/* row */
 1417              		.loc 1 1303 0
 1418 0032 7521     		movs	r1, #117
 1419 0034 3046     		mov	r0, r6
 1420 0036 FFF7FEFF 		bl	u8x8_cad_SendCmd
 1421              	.LVL220:
1304:..\u8g2\csrc/u8x8_d_st75256.c **** 	      if ( u8x8->x_offset == 1 )		/* 1 means flip mode 1 */
 1422              		.loc 1 1304 0
 1423 003a 96F82230 		ldrb	r3, [r6, #34]	@ zero_extendqisi2
 1424 003e 012B     		cmp	r3, #1
 1425 0040 07D1     		bne	.L107
1305:..\u8g2\csrc/u8x8_d_st75256.c **** 		u8x8_cad_SendArg(u8x8, 1+(((u8x8_tile_t *)arg_ptr)->y_pos));
 1426              		.loc 1 1305 0
 1427 0042 98F80610 		ldrb	r1, [r8, #6]	@ zero_extendqisi2
 1428 0046 0131     		adds	r1, r1, #1
 1429 0048 C9B2     		uxtb	r1, r1
 1430 004a 3046     		mov	r0, r6
 1431 004c FFF7FEFF 		bl	u8x8_cad_SendArg
 1432              	.LVL221:
 1433 0050 04E0     		b	.L108
 1434              	.L107:
1306:..\u8g2\csrc/u8x8_d_st75256.c **** 	      else
1307:..\u8g2\csrc/u8x8_d_st75256.c **** 		u8x8_cad_SendArg(u8x8, (((u8x8_tile_t *)arg_ptr)->y_pos));
 1435              		.loc 1 1307 0
 1436 0052 98F80610 		ldrb	r1, [r8, #6]	@ zero_extendqisi2
 1437 0056 3046     		mov	r0, r6
ARM GAS  C:\Users\brian\AppData\Local\Temp\cckfkOf3.s 			page 50


 1438 0058 FFF7FEFF 		bl	u8x8_cad_SendArg
 1439              	.LVL222:
 1440              	.L108:
1308:..\u8g2\csrc/u8x8_d_st75256.c ****               u8x8_cad_SendArg(u8x8, 0x04f);
 1441              		.loc 1 1308 0
 1442 005c 4F21     		movs	r1, #79
 1443 005e 3046     		mov	r0, r6
 1444 0060 FFF7FEFF 		bl	u8x8_cad_SendArg
 1445              	.LVL223:
1309:..\u8g2\csrc/u8x8_d_st75256.c ****               //u8x8_cad_SendArg(u8x8, (((u8x8_tile_t *)arg_ptr)->y_pos));
1310:..\u8g2\csrc/u8x8_d_st75256.c ****               u8x8_cad_SendCmd(u8x8, 0x015 );	/* col */
 1446              		.loc 1 1310 0
 1447 0064 1521     		movs	r1, #21
 1448 0066 3046     		mov	r0, r6
 1449 0068 FFF7FEFF 		bl	u8x8_cad_SendCmd
 1450              	.LVL224:
1311:..\u8g2\csrc/u8x8_d_st75256.c ****               u8x8_cad_SendArg(u8x8, x+u8x8->display_info->default_x_offset);
 1451              		.loc 1 1311 0
 1452 006c 3368     		ldr	r3, [r6]
 1453 006e 997C     		ldrb	r1, [r3, #18]	@ zero_extendqisi2
 1454 0070 2144     		add	r1, r1, r4
 1455 0072 C9B2     		uxtb	r1, r1
 1456 0074 3046     		mov	r0, r6
 1457 0076 FFF7FEFF 		bl	u8x8_cad_SendArg
 1458              	.LVL225:
1312:..\u8g2\csrc/u8x8_d_st75256.c ****               u8x8_cad_SendArg(u8x8, 255);
 1459              		.loc 1 1312 0
 1460 007a FF21     		movs	r1, #255
 1461 007c 3046     		mov	r0, r6
 1462 007e FFF7FEFF 		bl	u8x8_cad_SendArg
 1463              	.LVL226:
1313:..\u8g2\csrc/u8x8_d_st75256.c ****               u8x8_cad_SendCmd(u8x8, 0x05c );	
 1464              		.loc 1 1313 0
 1465 0082 5C21     		movs	r1, #92
 1466 0084 3046     		mov	r0, r6
 1467 0086 FFF7FEFF 		bl	u8x8_cad_SendCmd
 1468              	.LVL227:
 1469              	.L110:
1314:..\u8g2\csrc/u8x8_d_st75256.c ****             
1315:..\u8g2\csrc/u8x8_d_st75256.c ****               
1316:..\u8g2\csrc/u8x8_d_st75256.c ****               do
1317:..\u8g2\csrc/u8x8_d_st75256.c ****               {
1318:..\u8g2\csrc/u8x8_d_st75256.c ****                 c = ((u8x8_tile_t *)arg_ptr)->cnt;
 1470              		.loc 1 1318 0
 1471 008a 98F80440 		ldrb	r4, [r8, #4]	@ zero_extendqisi2
 1472              	.LVL228:
1319:..\u8g2\csrc/u8x8_d_st75256.c ****                 ptr = ((u8x8_tile_t *)arg_ptr)->tile_ptr;
 1473              		.loc 1 1319 0
 1474 008e D8F80070 		ldr	r7, [r8]
 1475              	.LVL229:
1320:..\u8g2\csrc/u8x8_d_st75256.c **** 		/* SendData can not handle more than 255 bytes, treat c > 31 correctly  */
1321:..\u8g2\csrc/u8x8_d_st75256.c **** 		if ( c > 31 )
 1476              		.loc 1 1321 0
 1477 0092 1F2C     		cmp	r4, #31
 1478 0094 07D9     		bls	.L109
1322:..\u8g2\csrc/u8x8_d_st75256.c **** 		{
1323:..\u8g2\csrc/u8x8_d_st75256.c **** 		  u8x8_cad_SendData(u8x8, 248, ptr); 	/* 31*8=248 */
ARM GAS  C:\Users\brian\AppData\Local\Temp\cckfkOf3.s 			page 51


 1479              		.loc 1 1323 0
 1480 0096 3A46     		mov	r2, r7
 1481 0098 F821     		movs	r1, #248
 1482 009a 3046     		mov	r0, r6
 1483 009c FFF7FEFF 		bl	u8x8_cad_SendData
 1484              	.LVL230:
1324:..\u8g2\csrc/u8x8_d_st75256.c **** 		  ptr+=248;
 1485              		.loc 1 1324 0
 1486 00a0 F837     		adds	r7, r7, #248
 1487              	.LVL231:
1325:..\u8g2\csrc/u8x8_d_st75256.c **** 		  c -= 31;
 1488              		.loc 1 1325 0
 1489 00a2 1F3C     		subs	r4, r4, #31
 1490              	.LVL232:
 1491 00a4 E4B2     		uxtb	r4, r4
 1492              	.LVL233:
 1493              	.L109:
1326:..\u8g2\csrc/u8x8_d_st75256.c **** 		}
1327:..\u8g2\csrc/u8x8_d_st75256.c **** 		
1328:..\u8g2\csrc/u8x8_d_st75256.c **** 		u8x8_cad_SendData(u8x8, c*8, ptr); 	
 1494              		.loc 1 1328 0
 1495 00a6 E100     		lsls	r1, r4, #3
 1496 00a8 3A46     		mov	r2, r7
 1497 00aa 01F0F801 		and	r1, r1, #248
 1498 00ae 3046     		mov	r0, r6
 1499 00b0 FFF7FEFF 		bl	u8x8_cad_SendData
 1500              	.LVL234:
1329:..\u8g2\csrc/u8x8_d_st75256.c ****                 arg_int--;
 1501              		.loc 1 1329 0
 1502 00b4 6A1E     		subs	r2, r5, #1
 1503              	.LVL235:
1330:..\u8g2\csrc/u8x8_d_st75256.c ****               } while( arg_int > 0 );
 1504              		.loc 1 1330 0
 1505 00b6 12F0FF05 		ands	r5, r2, #255
 1506 00ba E6D1     		bne	.L110
1331:..\u8g2\csrc/u8x8_d_st75256.c ****               
1332:..\u8g2\csrc/u8x8_d_st75256.c ****               u8x8_cad_EndTransfer(u8x8);
 1507              		.loc 1 1332 0
 1508 00bc 3046     		mov	r0, r6
 1509 00be FFF7FEFF 		bl	u8x8_cad_EndTransfer
 1510              	.LVL236:
1333:..\u8g2\csrc/u8x8_d_st75256.c ****               return 1;
 1511              		.loc 1 1333 0
 1512 00c2 0120     		movs	r0, #1
 1513 00c4 BDE8F081 		pop	{r4, r5, r6, r7, r8, pc}
 1514              	.LVL237:
 1515              	.L100:
1334:..\u8g2\csrc/u8x8_d_st75256.c ****         case U8X8_MSG_DISPLAY_SETUP_MEMORY:
1335:..\u8g2\csrc/u8x8_d_st75256.c ****             //u8x8_SetI2CAddress(u8x8, 0x078);		/* lowest I2C adr of the ST75256 */
1336:..\u8g2\csrc/u8x8_d_st75256.c **** 	    u8x8_d_helper_display_setup_memory(u8x8, &u8x8_st75256_256x160_display_info);
 1516              		.loc 1 1336 0
 1517 00c8 2649     		ldr	r1, .L115
 1518 00ca FFF7FEFF 		bl	u8x8_d_helper_display_setup_memory
 1519              	.LVL238:
1337:..\u8g2\csrc/u8x8_d_st75256.c ****             return 1;
 1520              		.loc 1 1337 0
 1521 00ce 0120     		movs	r0, #1
ARM GAS  C:\Users\brian\AppData\Local\Temp\cckfkOf3.s 			page 52


 1522 00d0 BDE8F081 		pop	{r4, r5, r6, r7, r8, pc}
 1523              	.LVL239:
 1524              	.L102:
1338:..\u8g2\csrc/u8x8_d_st75256.c ****         case U8X8_MSG_DISPLAY_INIT:
1339:..\u8g2\csrc/u8x8_d_st75256.c **** 	    u8x8_d_helper_display_init(u8x8);
 1525              		.loc 1 1339 0
 1526 00d4 FFF7FEFF 		bl	u8x8_d_helper_display_init
 1527              	.LVL240:
1340:..\u8g2\csrc/u8x8_d_st75256.c **** 	    u8x8_cad_SendSequence(u8x8, u8x8_d_st75256_256x160m_init_seq);    
 1528              		.loc 1 1340 0
 1529 00d8 2349     		ldr	r1, .L115+4
 1530 00da 3046     		mov	r0, r6
 1531 00dc FFF7FEFF 		bl	u8x8_cad_SendSequence
 1532              	.LVL241:
1341:..\u8g2\csrc/u8x8_d_st75256.c ****             return 1;
 1533              		.loc 1 1341 0
 1534 00e0 0120     		movs	r0, #1
 1535 00e2 BDE8F081 		pop	{r4, r5, r6, r7, r8, pc}
 1536              	.LVL242:
 1537              	.L103:
1342:..\u8g2\csrc/u8x8_d_st75256.c ****         case U8X8_MSG_DISPLAY_SET_POWER_SAVE:
1343:..\u8g2\csrc/u8x8_d_st75256.c ****               if ( arg_int == 0 )
 1538              		.loc 1 1343 0
 1539 00e6 2AB9     		cbnz	r2, .L111
1344:..\u8g2\csrc/u8x8_d_st75256.c ****                 u8x8_cad_SendSequence(u8x8, u8x8_d_st75256_256x128_powersave0_seq);
 1540              		.loc 1 1344 0
 1541 00e8 2049     		ldr	r1, .L115+8
 1542 00ea FFF7FEFF 		bl	u8x8_cad_SendSequence
 1543              	.LVL243:
1345:..\u8g2\csrc/u8x8_d_st75256.c ****               else
1346:..\u8g2\csrc/u8x8_d_st75256.c ****                 u8x8_cad_SendSequence(u8x8, u8x8_d_st75256_256x128_powersave1_seq);
1347:..\u8g2\csrc/u8x8_d_st75256.c **** 
1348:..\u8g2\csrc/u8x8_d_st75256.c ****               return 1;
 1544              		.loc 1 1348 0
 1545 00ee 0120     		movs	r0, #1
 1546 00f0 BDE8F081 		pop	{r4, r5, r6, r7, r8, pc}
 1547              	.LVL244:
 1548              	.L111:
1346:..\u8g2\csrc/u8x8_d_st75256.c **** 
 1549              		.loc 1 1346 0
 1550 00f4 1E49     		ldr	r1, .L115+12
 1551 00f6 FFF7FEFF 		bl	u8x8_cad_SendSequence
 1552              	.LVL245:
 1553              		.loc 1 1348 0
 1554 00fa 0120     		movs	r0, #1
 1555 00fc BDE8F081 		pop	{r4, r5, r6, r7, r8, pc}
 1556              	.LVL246:
 1557              	.L104:
1349:..\u8g2\csrc/u8x8_d_st75256.c **** 	case U8X8_MSG_DISPLAY_SET_FLIP_MODE:
1350:..\u8g2\csrc/u8x8_d_st75256.c **** 	    if ( arg_int == 0 )
 1558              		.loc 1 1350 0
 1559 0100 4AB9     		cbnz	r2, .L112
1351:..\u8g2\csrc/u8x8_d_st75256.c **** 	    {
1352:..\u8g2\csrc/u8x8_d_st75256.c **** 	      u8x8_cad_SendSequence(u8x8, u8x8_d_st75256_jlx172104_flip0_seq);
 1560              		.loc 1 1352 0
 1561 0102 1C49     		ldr	r1, .L115+16
 1562 0104 FFF7FEFF 		bl	u8x8_cad_SendSequence
ARM GAS  C:\Users\brian\AppData\Local\Temp\cckfkOf3.s 			page 53


 1563              	.LVL247:
1353:..\u8g2\csrc/u8x8_d_st75256.c **** 	      u8x8->x_offset = u8x8->display_info->default_x_offset;
 1564              		.loc 1 1353 0
 1565 0108 3368     		ldr	r3, [r6]
 1566 010a 9B7C     		ldrb	r3, [r3, #18]	@ zero_extendqisi2
 1567 010c 86F82230 		strb	r3, [r6, #34]
1354:..\u8g2\csrc/u8x8_d_st75256.c **** 	    }
1355:..\u8g2\csrc/u8x8_d_st75256.c **** 	    else
1356:..\u8g2\csrc/u8x8_d_st75256.c **** 	    {
1357:..\u8g2\csrc/u8x8_d_st75256.c **** 	      u8x8_cad_SendSequence(u8x8, u8x8_d_st75256_jlx172104_flip1_seq);
1358:..\u8g2\csrc/u8x8_d_st75256.c **** 	      u8x8->x_offset = u8x8->display_info->flipmode_x_offset;
1359:..\u8g2\csrc/u8x8_d_st75256.c **** 	    }
1360:..\u8g2\csrc/u8x8_d_st75256.c **** 	    return 1;
 1568              		.loc 1 1360 0
 1569 0110 0120     		movs	r0, #1
 1570 0112 BDE8F081 		pop	{r4, r5, r6, r7, r8, pc}
 1571              	.LVL248:
 1572              	.L112:
1357:..\u8g2\csrc/u8x8_d_st75256.c **** 	      u8x8->x_offset = u8x8->display_info->flipmode_x_offset;
 1573              		.loc 1 1357 0
 1574 0116 1849     		ldr	r1, .L115+20
 1575 0118 FFF7FEFF 		bl	u8x8_cad_SendSequence
 1576              	.LVL249:
1358:..\u8g2\csrc/u8x8_d_st75256.c **** 	    }
 1577              		.loc 1 1358 0
 1578 011c 3368     		ldr	r3, [r6]
 1579 011e DB7C     		ldrb	r3, [r3, #19]	@ zero_extendqisi2
 1580 0120 86F82230 		strb	r3, [r6, #34]
 1581              		.loc 1 1360 0
 1582 0124 0120     		movs	r0, #1
 1583 0126 BDE8F081 		pop	{r4, r5, r6, r7, r8, pc}
 1584              	.LVL250:
 1585              	.L105:
1361:..\u8g2\csrc/u8x8_d_st75256.c **** 		
1362:..\u8g2\csrc/u8x8_d_st75256.c **** #ifdef U8X8_WITH_SET_CONTRAST
1363:..\u8g2\csrc/u8x8_d_st75256.c ****         case U8X8_MSG_DISPLAY_SET_CONTRAST:
1364:..\u8g2\csrc/u8x8_d_st75256.c **** 
1365:..\u8g2\csrc/u8x8_d_st75256.c ****               u8x8_cad_StartTransfer(u8x8);
 1586              		.loc 1 1365 0
 1587 012a FFF7FEFF 		bl	u8x8_cad_StartTransfer
 1588              	.LVL251:
1366:..\u8g2\csrc/u8x8_d_st75256.c ****               
1367:..\u8g2\csrc/u8x8_d_st75256.c ****               u8x8_cad_SendCmd(u8x8, 0x030 );
 1589              		.loc 1 1367 0
 1590 012e 3021     		movs	r1, #48
 1591 0130 3046     		mov	r0, r6
 1592 0132 FFF7FEFF 		bl	u8x8_cad_SendCmd
 1593              	.LVL252:
1368:..\u8g2\csrc/u8x8_d_st75256.c ****               u8x8_cad_SendCmd(u8x8, 0x081 );  /* there are 9 bit for the volume control */
 1594              		.loc 1 1368 0
 1595 0136 8121     		movs	r1, #129
 1596 0138 3046     		mov	r0, r6
 1597 013a FFF7FEFF 		bl	u8x8_cad_SendCmd
 1598              	.LVL253:
1369:..\u8g2\csrc/u8x8_d_st75256.c ****               u8x8_cad_SendArg(u8x8, (arg_int & 0x1f)<<1 );	/* lower 6 bit */
 1599              		.loc 1 1369 0
 1600 013e 6900     		lsls	r1, r5, #1
ARM GAS  C:\Users\brian\AppData\Local\Temp\cckfkOf3.s 			page 54


 1601 0140 01F03E01 		and	r1, r1, #62
 1602 0144 3046     		mov	r0, r6
 1603 0146 FFF7FEFF 		bl	u8x8_cad_SendArg
 1604              	.LVL254:
1370:..\u8g2\csrc/u8x8_d_st75256.c ****               u8x8_cad_SendArg(u8x8, (arg_int>>5));		/* upper 3 bit */
 1605              		.loc 1 1370 0
 1606 014a 6909     		lsrs	r1, r5, #5
 1607 014c 3046     		mov	r0, r6
 1608 014e FFF7FEFF 		bl	u8x8_cad_SendArg
 1609              	.LVL255:
1371:..\u8g2\csrc/u8x8_d_st75256.c ****               
1372:..\u8g2\csrc/u8x8_d_st75256.c ****               u8x8_cad_EndTransfer(u8x8);
 1610              		.loc 1 1372 0
 1611 0152 3046     		mov	r0, r6
 1612 0154 FFF7FEFF 		bl	u8x8_cad_EndTransfer
 1613              	.LVL256:
1373:..\u8g2\csrc/u8x8_d_st75256.c ****               return 1;
 1614              		.loc 1 1373 0
 1615 0158 0120     		movs	r0, #1
 1616 015a BDE8F081 		pop	{r4, r5, r6, r7, r8, pc}
 1617              	.LVL257:
 1618              	.L113:
1374:..\u8g2\csrc/u8x8_d_st75256.c **** #endif
1375:..\u8g2\csrc/u8x8_d_st75256.c ****   }
1376:..\u8g2\csrc/u8x8_d_st75256.c ****   return 0;
 1619              		.loc 1 1376 0
 1620 015e 0020     		movs	r0, #0
 1621              	.LVL258:
1377:..\u8g2\csrc/u8x8_d_st75256.c **** }
 1622              		.loc 1 1377 0
 1623 0160 BDE8F081 		pop	{r4, r5, r6, r7, r8, pc}
 1624              	.LVL259:
 1625              	.L116:
 1626              		.align	2
 1627              	.L115:
 1628 0164 EC020000 		.word	.LANCHOR0+748
 1629 0168 90030000 		.word	.LANCHOR0+912
 1630 016c 00000000 		.word	.LANCHOR0
 1631 0170 0C000000 		.word	.LANCHOR0+12
 1632 0174 50010000 		.word	.LANCHOR0+336
 1633 0178 40010000 		.word	.LANCHOR0+320
 1634              		.cfi_endproc
 1635              	.LFE7:
 1636              		.size	u8x8_d_st75256_jlx256160m, .-u8x8_d_st75256_jlx256160m
 1637              		.section	.text.u8x8_d_st75256_jlx256160_alt,"ax",%progbits
 1638              		.align	2
 1639              		.global	u8x8_d_st75256_jlx256160_alt
 1640              		.thumb
 1641              		.thumb_func
 1642              		.type	u8x8_d_st75256_jlx256160_alt, %function
 1643              	u8x8_d_st75256_jlx256160_alt:
 1644              	.LFB8:
1378:..\u8g2\csrc/u8x8_d_st75256.c **** 
1379:..\u8g2\csrc/u8x8_d_st75256.c **** 
1380:..\u8g2\csrc/u8x8_d_st75256.c **** 
1381:..\u8g2\csrc/u8x8_d_st75256.c **** 
1382:..\u8g2\csrc/u8x8_d_st75256.c **** /*=============================================*/
ARM GAS  C:\Users\brian\AppData\Local\Temp\cckfkOf3.s 			page 55


1383:..\u8g2\csrc/u8x8_d_st75256.c **** /* JLX256160 alternative version from issue #561 */
1384:..\u8g2\csrc/u8x8_d_st75256.c **** 
1385:..\u8g2\csrc/u8x8_d_st75256.c **** static const u8x8_display_info_t u8x8_st75256_256x160_alt_display_info =
1386:..\u8g2\csrc/u8x8_d_st75256.c **** {
1387:..\u8g2\csrc/u8x8_d_st75256.c ****   /* chip_enable_level = */ 0,
1388:..\u8g2\csrc/u8x8_d_st75256.c ****   /* chip_disable_level = */ 1,
1389:..\u8g2\csrc/u8x8_d_st75256.c ****   
1390:..\u8g2\csrc/u8x8_d_st75256.c ****   /* post_chip_enable_wait_ns = */ 20,
1391:..\u8g2\csrc/u8x8_d_st75256.c ****   /* pre_chip_disable_wait_ns = */ 20,
1392:..\u8g2\csrc/u8x8_d_st75256.c ****   /* reset_pulse_width_ms = */ 5, 	
1393:..\u8g2\csrc/u8x8_d_st75256.c ****   /* post_reset_wait_ms = */ 5, 		/**/
1394:..\u8g2\csrc/u8x8_d_st75256.c ****   /* sda_setup_time_ns = */ 20,		/* */
1395:..\u8g2\csrc/u8x8_d_st75256.c ****   /* sck_pulse_width_ns = */ 40,	/*  */
1396:..\u8g2\csrc/u8x8_d_st75256.c ****   /* sck_clock_hz = */ 4000000UL,	/* since Arduino 1.6.0, the SPI bus speed in Hz. Should be  10000
1397:..\u8g2\csrc/u8x8_d_st75256.c ****   /* spi_mode = */ 0,		/* active high, rising edge */
1398:..\u8g2\csrc/u8x8_d_st75256.c ****   /* i2c_bus_clock_100kHz = */ 4,	/* 400KHz */
1399:..\u8g2\csrc/u8x8_d_st75256.c ****   /* data_setup_time_ns = */ 15,
1400:..\u8g2\csrc/u8x8_d_st75256.c ****   /* write_pulse_width_ns = */ 70,	
1401:..\u8g2\csrc/u8x8_d_st75256.c ****   /* tile_width = */ 32,
1402:..\u8g2\csrc/u8x8_d_st75256.c ****   /* tile_hight = */ 20,
1403:..\u8g2\csrc/u8x8_d_st75256.c ****   /* default_x_offset = */ 0,	/*  x offset in flipmode 0 */
1404:..\u8g2\csrc/u8x8_d_st75256.c ****   /* flipmode_x_offset = */ 0,		/* */
1405:..\u8g2\csrc/u8x8_d_st75256.c ****   /* pixel_width = */ 256,
1406:..\u8g2\csrc/u8x8_d_st75256.c ****   /* pixel_height = */ 160
1407:..\u8g2\csrc/u8x8_d_st75256.c **** };
1408:..\u8g2\csrc/u8x8_d_st75256.c **** 
1409:..\u8g2\csrc/u8x8_d_st75256.c **** 
1410:..\u8g2\csrc/u8x8_d_st75256.c **** static const uint8_t u8x8_d_st75256_256x160_alt_init_seq[] = {
1411:..\u8g2\csrc/u8x8_d_st75256.c ****   U8X8_START_TRANSFER(),             	/* enable chip, delay is part of the transfer start */
1412:..\u8g2\csrc/u8x8_d_st75256.c ****   
1413:..\u8g2\csrc/u8x8_d_st75256.c ****   U8X8_DLY(20),
1414:..\u8g2\csrc/u8x8_d_st75256.c **** 
1415:..\u8g2\csrc/u8x8_d_st75256.c ****   U8X8_C( 0x030 ),				/* select 00 commands */
1416:..\u8g2\csrc/u8x8_d_st75256.c ****   U8X8_C( 0x094 ),				/* sleep out */
1417:..\u8g2\csrc/u8x8_d_st75256.c **** 
1418:..\u8g2\csrc/u8x8_d_st75256.c ****   //U8X8_C( 0x030 ),				/* select 00 commands */
1419:..\u8g2\csrc/u8x8_d_st75256.c ****   U8X8_C( 0x0ae ),				/* display off */
1420:..\u8g2\csrc/u8x8_d_st75256.c **** 
1421:..\u8g2\csrc/u8x8_d_st75256.c ****   U8X8_C( 0x031 ),				/* select 01 commands */
1422:..\u8g2\csrc/u8x8_d_st75256.c ****   U8X8_CA( 0x0d7, 0x09f ),		/* disable auto read */  
1423:..\u8g2\csrc/u8x8_d_st75256.c **** 
1424:..\u8g2\csrc/u8x8_d_st75256.c ****   //U8X8_C( 0x031 ),				/* select 01 commands */
1425:..\u8g2\csrc/u8x8_d_st75256.c ****   U8X8_C( 0x032 ),				/* analog circuit set */
1426:..\u8g2\csrc/u8x8_d_st75256.c ****   U8X8_A( 0x000 ),				/* code example: OSC Frequency adjustment */
1427:..\u8g2\csrc/u8x8_d_st75256.c ****   U8X8_A( 0x001 ),				/* Frequency on booster capacitors 1 = 6KHz? */
1428:..\u8g2\csrc/u8x8_d_st75256.c ****   U8X8_A( 0x000 ),				/* Bias: 1: 1/13, 2: 1/12, 3: 1/11, 4:1/10, 5:1/9 */
1429:..\u8g2\csrc/u8x8_d_st75256.c ****     
1430:..\u8g2\csrc/u8x8_d_st75256.c ****   //U8X8_C( 0x031 ),				/* select 01 commands */
1431:..\u8g2\csrc/u8x8_d_st75256.c ****   U8X8_C( 0x020 ),				/* gray levels */
1432:..\u8g2\csrc/u8x8_d_st75256.c ****   U8X8_A( 0x01 ),
1433:..\u8g2\csrc/u8x8_d_st75256.c ****   U8X8_A( 0x03 ),
1434:..\u8g2\csrc/u8x8_d_st75256.c ****   U8X8_A( 0x05 ),
1435:..\u8g2\csrc/u8x8_d_st75256.c ****   U8X8_A( 0x07 ),
1436:..\u8g2\csrc/u8x8_d_st75256.c ****   U8X8_A( 0x09),
1437:..\u8g2\csrc/u8x8_d_st75256.c ****   U8X8_A( 0x0b ),
1438:..\u8g2\csrc/u8x8_d_st75256.c ****   U8X8_A( 0x0d ),
1439:..\u8g2\csrc/u8x8_d_st75256.c ****   U8X8_A( 0x10 ),
ARM GAS  C:\Users\brian\AppData\Local\Temp\cckfkOf3.s 			page 56


1440:..\u8g2\csrc/u8x8_d_st75256.c ****   U8X8_A( 0x11 ),
1441:..\u8g2\csrc/u8x8_d_st75256.c ****   U8X8_A( 0x13 ),
1442:..\u8g2\csrc/u8x8_d_st75256.c ****   U8X8_A( 0x15 ),
1443:..\u8g2\csrc/u8x8_d_st75256.c ****   U8X8_A( 0x17 ),
1444:..\u8g2\csrc/u8x8_d_st75256.c ****   U8X8_A( 0x19 ),
1445:..\u8g2\csrc/u8x8_d_st75256.c ****   U8X8_A( 0x1b ),
1446:..\u8g2\csrc/u8x8_d_st75256.c ****   U8X8_A( 0x1d ),
1447:..\u8g2\csrc/u8x8_d_st75256.c ****   U8X8_A( 0x1f ),
1448:..\u8g2\csrc/u8x8_d_st75256.c ****  
1449:..\u8g2\csrc/u8x8_d_st75256.c ****   
1450:..\u8g2\csrc/u8x8_d_st75256.c ****   U8X8_C( 0x030 ),				/* select 00 commands */
1451:..\u8g2\csrc/u8x8_d_st75256.c ****   U8X8_CAA(0x75, 0, 0x4f),		/* row range */
1452:..\u8g2\csrc/u8x8_d_st75256.c ****   U8X8_CAA(0x15, 0, 255),		/* col range */
1453:..\u8g2\csrc/u8x8_d_st75256.c ****   
1454:..\u8g2\csrc/u8x8_d_st75256.c ****   //U8X8_C( 0x030 ),				/* select 00 commands */
1455:..\u8g2\csrc/u8x8_d_st75256.c ****   U8X8_CA( 0xbc, 0x02 ),			/* data scan dir */
1456:..\u8g2\csrc/u8x8_d_st75256.c ****   U8X8_A( 0xa6 ),				/* ??? */
1457:..\u8g2\csrc/u8x8_d_st75256.c **** 
1458:..\u8g2\csrc/u8x8_d_st75256.c ****   //U8X8_C( 0x030 ),				/* select 00 commands */
1459:..\u8g2\csrc/u8x8_d_st75256.c ****   U8X8_C( 0x00c ),				/* data format LSB top */
1460:..\u8g2\csrc/u8x8_d_st75256.c **** 
1461:..\u8g2\csrc/u8x8_d_st75256.c ****   //U8X8_C( 0x030 ),				/* select 00 commands */ 
1462:..\u8g2\csrc/u8x8_d_st75256.c ****   U8X8_C( 0xca ),				/* display control, 3 args follow  */
1463:..\u8g2\csrc/u8x8_d_st75256.c ****   U8X8_A( 0x00 ),				/* 0x00: no clock division, 0x04: devide clock */
1464:..\u8g2\csrc/u8x8_d_st75256.c ****   U8X8_A( 159 ),				/* 1/160 duty value from the DS example code */
1465:..\u8g2\csrc/u8x8_d_st75256.c ****   U8X8_A( 0x20 ),				/* nline off */ 
1466:..\u8g2\csrc/u8x8_d_st75256.c **** 
1467:..\u8g2\csrc/u8x8_d_st75256.c ****   //U8X8_C( 0x030 ),				/* select 00 commands */ 
1468:..\u8g2\csrc/u8x8_d_st75256.c ****   U8X8_CA( 0x0f0, 0x010 ),		/* monochrome mode  = 0x010*/
1469:..\u8g2\csrc/u8x8_d_st75256.c **** 
1470:..\u8g2\csrc/u8x8_d_st75256.c ****   //U8X8_C( 0x030 ),				/* select 00 commands */
1471:..\u8g2\csrc/u8x8_d_st75256.c ****   U8X8_CAA( 0x81, 0x18, 0x05 ),	/* Volume control */
1472:..\u8g2\csrc/u8x8_d_st75256.c **** 
1473:..\u8g2\csrc/u8x8_d_st75256.c ****   //U8X8_C( 0x030 ),				/* select 00 commands */
1474:..\u8g2\csrc/u8x8_d_st75256.c ****   U8X8_CA( 0x020, 0x00b ),		/* Power control: Regulator, follower & booster on */
1475:..\u8g2\csrc/u8x8_d_st75256.c ****   U8X8_DLY(100),
1476:..\u8g2\csrc/u8x8_d_st75256.c **** 
1477:..\u8g2\csrc/u8x8_d_st75256.c ****   U8X8_END_TRANSFER(),             	/* disable chip */
1478:..\u8g2\csrc/u8x8_d_st75256.c ****   U8X8_END()             			/* end of sequence */
1479:..\u8g2\csrc/u8x8_d_st75256.c **** };
1480:..\u8g2\csrc/u8x8_d_st75256.c **** 
1481:..\u8g2\csrc/u8x8_d_st75256.c **** 
1482:..\u8g2\csrc/u8x8_d_st75256.c **** uint8_t u8x8_d_st75256_jlx256160_alt(u8x8_t *u8x8, uint8_t msg, uint8_t arg_int, void *arg_ptr)
1483:..\u8g2\csrc/u8x8_d_st75256.c **** {
 1645              		.loc 1 1483 0
 1646              		.cfi_startproc
 1647              		@ args = 0, pretend = 0, frame = 0
 1648              		@ frame_needed = 0, uses_anonymous_args = 0
 1649              	.LVL260:
 1650 0000 2DE9F041 		push	{r4, r5, r6, r7, r8, lr}
 1651              		.cfi_def_cfa_offset 24
 1652              		.cfi_offset 4, -24
 1653              		.cfi_offset 5, -20
 1654              		.cfi_offset 6, -16
 1655              		.cfi_offset 7, -12
 1656              		.cfi_offset 8, -8
 1657              		.cfi_offset 14, -4
ARM GAS  C:\Users\brian\AppData\Local\Temp\cckfkOf3.s 			page 57


 1658 0004 0646     		mov	r6, r0
 1659 0006 1546     		mov	r5, r2
 1660 0008 9846     		mov	r8, r3
1484:..\u8g2\csrc/u8x8_d_st75256.c ****   uint8_t x, c;
1485:..\u8g2\csrc/u8x8_d_st75256.c ****   uint8_t *ptr;
1486:..\u8g2\csrc/u8x8_d_st75256.c **** 
1487:..\u8g2\csrc/u8x8_d_st75256.c ****   switch(msg)
 1661              		.loc 1 1487 0
 1662 000a 0939     		subs	r1, r1, #9
 1663              	.LVL261:
 1664 000c 0629     		cmp	r1, #6
 1665 000e 00F2A580 		bhi	.L132
 1666 0012 DFE801F0 		tbb	[pc, r1]
 1667              	.LVL262:
 1668              	.L120:
 1669 0016 58       		.byte	(.L119-.L120)/2
 1670 0017 5E       		.byte	(.L121-.L120)/2
 1671 0018 67       		.byte	(.L122-.L120)/2
 1672 0019 A3       		.byte	(.L132-.L120)/2
 1673 001a 74       		.byte	(.L123-.L120)/2
 1674 001b 89       		.byte	(.L124-.L120)/2
 1675 001c 04       		.byte	(.L125-.L120)/2
 1676 001d 00       		.p2align 1
 1677              	.L125:
1488:..\u8g2\csrc/u8x8_d_st75256.c ****   {
1489:..\u8g2\csrc/u8x8_d_st75256.c ****             case U8X8_MSG_DISPLAY_DRAW_TILE:
1490:..\u8g2\csrc/u8x8_d_st75256.c ****               
1491:..\u8g2\csrc/u8x8_d_st75256.c ****               u8x8_cad_StartTransfer(u8x8);
 1678              		.loc 1 1491 0
 1679 001e FFF7FEFF 		bl	u8x8_cad_StartTransfer
 1680              	.LVL263:
1492:..\u8g2\csrc/u8x8_d_st75256.c ****               x = ((u8x8_tile_t *)arg_ptr)->x_pos;    
 1681              		.loc 1 1492 0
 1682 0022 98F80540 		ldrb	r4, [r8, #5]	@ zero_extendqisi2
 1683              	.LVL264:
1493:..\u8g2\csrc/u8x8_d_st75256.c ****               x *= 8;
 1684              		.loc 1 1493 0
 1685 0026 E400     		lsls	r4, r4, #3
 1686              	.LVL265:
 1687 0028 E4B2     		uxtb	r4, r4
 1688              	.LVL266:
1494:..\u8g2\csrc/u8x8_d_st75256.c ****               
1495:..\u8g2\csrc/u8x8_d_st75256.c ****               u8x8_cad_SendCmd(u8x8, 0x030 );	/* select command set */
 1689              		.loc 1 1495 0
 1690 002a 3021     		movs	r1, #48
 1691 002c 3046     		mov	r0, r6
 1692 002e FFF7FEFF 		bl	u8x8_cad_SendCmd
 1693              	.LVL267:
1496:..\u8g2\csrc/u8x8_d_st75256.c ****               u8x8_cad_SendCmd(u8x8, 0x075 );	/* row */
 1694              		.loc 1 1496 0
 1695 0032 7521     		movs	r1, #117
 1696 0034 3046     		mov	r0, r6
 1697 0036 FFF7FEFF 		bl	u8x8_cad_SendCmd
 1698              	.LVL268:
1497:..\u8g2\csrc/u8x8_d_st75256.c **** 	      if ( u8x8->x_offset == 0 )		/* 0 means flip mode 1 */
 1699              		.loc 1 1497 0
 1700 003a 96F82230 		ldrb	r3, [r6, #34]	@ zero_extendqisi2
ARM GAS  C:\Users\brian\AppData\Local\Temp\cckfkOf3.s 			page 58


 1701 003e 3BB9     		cbnz	r3, .L126
1498:..\u8g2\csrc/u8x8_d_st75256.c **** 		u8x8_cad_SendArg(u8x8, 1+(((u8x8_tile_t *)arg_ptr)->y_pos));
 1702              		.loc 1 1498 0
 1703 0040 98F80610 		ldrb	r1, [r8, #6]	@ zero_extendqisi2
 1704 0044 0131     		adds	r1, r1, #1
 1705 0046 C9B2     		uxtb	r1, r1
 1706 0048 3046     		mov	r0, r6
 1707 004a FFF7FEFF 		bl	u8x8_cad_SendArg
 1708              	.LVL269:
 1709 004e 04E0     		b	.L127
 1710              	.L126:
1499:..\u8g2\csrc/u8x8_d_st75256.c **** 	      else
1500:..\u8g2\csrc/u8x8_d_st75256.c **** 		u8x8_cad_SendArg(u8x8, (((u8x8_tile_t *)arg_ptr)->y_pos));
 1711              		.loc 1 1500 0
 1712 0050 98F80610 		ldrb	r1, [r8, #6]	@ zero_extendqisi2
 1713 0054 3046     		mov	r0, r6
 1714 0056 FFF7FEFF 		bl	u8x8_cad_SendArg
 1715              	.LVL270:
 1716              	.L127:
1501:..\u8g2\csrc/u8x8_d_st75256.c ****               u8x8_cad_SendArg(u8x8, 0x04f);
 1717              		.loc 1 1501 0
 1718 005a 4F21     		movs	r1, #79
 1719 005c 3046     		mov	r0, r6
 1720 005e FFF7FEFF 		bl	u8x8_cad_SendArg
 1721              	.LVL271:
1502:..\u8g2\csrc/u8x8_d_st75256.c ****               //u8x8_cad_SendArg(u8x8, (((u8x8_tile_t *)arg_ptr)->y_pos));
1503:..\u8g2\csrc/u8x8_d_st75256.c ****               u8x8_cad_SendCmd(u8x8, 0x015 );	/* col */
 1722              		.loc 1 1503 0
 1723 0062 1521     		movs	r1, #21
 1724 0064 3046     		mov	r0, r6
 1725 0066 FFF7FEFF 		bl	u8x8_cad_SendCmd
 1726              	.LVL272:
1504:..\u8g2\csrc/u8x8_d_st75256.c ****               u8x8_cad_SendArg(u8x8, x+u8x8->x_offset);
 1727              		.loc 1 1504 0
 1728 006a 96F82210 		ldrb	r1, [r6, #34]	@ zero_extendqisi2
 1729 006e 2144     		add	r1, r1, r4
 1730 0070 C9B2     		uxtb	r1, r1
 1731 0072 3046     		mov	r0, r6
 1732 0074 FFF7FEFF 		bl	u8x8_cad_SendArg
 1733              	.LVL273:
1505:..\u8g2\csrc/u8x8_d_st75256.c ****               u8x8_cad_SendArg(u8x8, 255);
 1734              		.loc 1 1505 0
 1735 0078 FF21     		movs	r1, #255
 1736 007a 3046     		mov	r0, r6
 1737 007c FFF7FEFF 		bl	u8x8_cad_SendArg
 1738              	.LVL274:
1506:..\u8g2\csrc/u8x8_d_st75256.c ****               u8x8_cad_SendCmd(u8x8, 0x05c );	
 1739              		.loc 1 1506 0
 1740 0080 5C21     		movs	r1, #92
 1741 0082 3046     		mov	r0, r6
 1742 0084 FFF7FEFF 		bl	u8x8_cad_SendCmd
 1743              	.LVL275:
 1744              	.L129:
1507:..\u8g2\csrc/u8x8_d_st75256.c ****             
1508:..\u8g2\csrc/u8x8_d_st75256.c ****               
1509:..\u8g2\csrc/u8x8_d_st75256.c ****               do
1510:..\u8g2\csrc/u8x8_d_st75256.c ****               {
ARM GAS  C:\Users\brian\AppData\Local\Temp\cckfkOf3.s 			page 59


1511:..\u8g2\csrc/u8x8_d_st75256.c ****                 c = ((u8x8_tile_t *)arg_ptr)->cnt;
 1745              		.loc 1 1511 0
 1746 0088 98F80440 		ldrb	r4, [r8, #4]	@ zero_extendqisi2
 1747              	.LVL276:
1512:..\u8g2\csrc/u8x8_d_st75256.c ****                 ptr = ((u8x8_tile_t *)arg_ptr)->tile_ptr;
 1748              		.loc 1 1512 0
 1749 008c D8F80070 		ldr	r7, [r8]
 1750              	.LVL277:
1513:..\u8g2\csrc/u8x8_d_st75256.c **** 		/* SendData can not handle more than 255 bytes, treat c > 31 correctly  */
1514:..\u8g2\csrc/u8x8_d_st75256.c **** 		if ( c > 31 )
 1751              		.loc 1 1514 0
 1752 0090 1F2C     		cmp	r4, #31
 1753 0092 07D9     		bls	.L128
1515:..\u8g2\csrc/u8x8_d_st75256.c **** 		{
1516:..\u8g2\csrc/u8x8_d_st75256.c **** 		  u8x8_cad_SendData(u8x8, 248, ptr); 	/* 31*8=248 */
 1754              		.loc 1 1516 0
 1755 0094 3A46     		mov	r2, r7
 1756 0096 F821     		movs	r1, #248
 1757 0098 3046     		mov	r0, r6
 1758 009a FFF7FEFF 		bl	u8x8_cad_SendData
 1759              	.LVL278:
1517:..\u8g2\csrc/u8x8_d_st75256.c **** 		  ptr+=248;
 1760              		.loc 1 1517 0
 1761 009e F837     		adds	r7, r7, #248
 1762              	.LVL279:
1518:..\u8g2\csrc/u8x8_d_st75256.c **** 		  c -= 31;
 1763              		.loc 1 1518 0
 1764 00a0 1F3C     		subs	r4, r4, #31
 1765              	.LVL280:
 1766 00a2 E4B2     		uxtb	r4, r4
 1767              	.LVL281:
 1768              	.L128:
1519:..\u8g2\csrc/u8x8_d_st75256.c **** 		}
1520:..\u8g2\csrc/u8x8_d_st75256.c **** 		
1521:..\u8g2\csrc/u8x8_d_st75256.c **** 		u8x8_cad_SendData(u8x8, c*8, ptr); 	
 1769              		.loc 1 1521 0
 1770 00a4 E100     		lsls	r1, r4, #3
 1771 00a6 3A46     		mov	r2, r7
 1772 00a8 01F0F801 		and	r1, r1, #248
 1773 00ac 3046     		mov	r0, r6
 1774 00ae FFF7FEFF 		bl	u8x8_cad_SendData
 1775              	.LVL282:
1522:..\u8g2\csrc/u8x8_d_st75256.c ****                 arg_int--;
 1776              		.loc 1 1522 0
 1777 00b2 6A1E     		subs	r2, r5, #1
 1778              	.LVL283:
1523:..\u8g2\csrc/u8x8_d_st75256.c ****               } while( arg_int > 0 );
 1779              		.loc 1 1523 0
 1780 00b4 12F0FF05 		ands	r5, r2, #255
 1781 00b8 E6D1     		bne	.L129
1524:..\u8g2\csrc/u8x8_d_st75256.c ****               
1525:..\u8g2\csrc/u8x8_d_st75256.c ****               u8x8_cad_EndTransfer(u8x8);
 1782              		.loc 1 1525 0
 1783 00ba 3046     		mov	r0, r6
 1784 00bc FFF7FEFF 		bl	u8x8_cad_EndTransfer
 1785              	.LVL284:
1526:..\u8g2\csrc/u8x8_d_st75256.c ****               return 1;
ARM GAS  C:\Users\brian\AppData\Local\Temp\cckfkOf3.s 			page 60


 1786              		.loc 1 1526 0
 1787 00c0 0120     		movs	r0, #1
 1788 00c2 BDE8F081 		pop	{r4, r5, r6, r7, r8, pc}
 1789              	.LVL285:
 1790              	.L119:
1527:..\u8g2\csrc/u8x8_d_st75256.c ****         case U8X8_MSG_DISPLAY_SETUP_MEMORY:
1528:..\u8g2\csrc/u8x8_d_st75256.c ****             //u8x8_SetI2CAddress(u8x8, 0x078);		/* lowest I2C adr of the ST75256 */
1529:..\u8g2\csrc/u8x8_d_st75256.c **** 	    u8x8_d_helper_display_setup_memory(u8x8, &u8x8_st75256_256x160_alt_display_info);
 1791              		.loc 1 1529 0
 1792 00c6 2749     		ldr	r1, .L134
 1793 00c8 FFF7FEFF 		bl	u8x8_d_helper_display_setup_memory
 1794              	.LVL286:
1530:..\u8g2\csrc/u8x8_d_st75256.c ****             return 1;
 1795              		.loc 1 1530 0
 1796 00cc 0120     		movs	r0, #1
 1797 00ce BDE8F081 		pop	{r4, r5, r6, r7, r8, pc}
 1798              	.LVL287:
 1799              	.L121:
1531:..\u8g2\csrc/u8x8_d_st75256.c ****         case U8X8_MSG_DISPLAY_INIT:
1532:..\u8g2\csrc/u8x8_d_st75256.c **** 	    u8x8_d_helper_display_init(u8x8);
 1800              		.loc 1 1532 0
 1801 00d2 FFF7FEFF 		bl	u8x8_d_helper_display_init
 1802              	.LVL288:
1533:..\u8g2\csrc/u8x8_d_st75256.c **** 	    u8x8_cad_SendSequence(u8x8, u8x8_d_st75256_256x160_alt_init_seq);    
 1803              		.loc 1 1533 0
 1804 00d6 2449     		ldr	r1, .L134+4
 1805 00d8 3046     		mov	r0, r6
 1806 00da FFF7FEFF 		bl	u8x8_cad_SendSequence
 1807              	.LVL289:
1534:..\u8g2\csrc/u8x8_d_st75256.c ****             return 1;
 1808              		.loc 1 1534 0
 1809 00de 0120     		movs	r0, #1
 1810 00e0 BDE8F081 		pop	{r4, r5, r6, r7, r8, pc}
 1811              	.LVL290:
 1812              	.L122:
1535:..\u8g2\csrc/u8x8_d_st75256.c ****         case U8X8_MSG_DISPLAY_SET_POWER_SAVE:
1536:..\u8g2\csrc/u8x8_d_st75256.c ****               if ( arg_int == 0 )
 1813              		.loc 1 1536 0
 1814 00e4 2AB9     		cbnz	r2, .L130
1537:..\u8g2\csrc/u8x8_d_st75256.c ****                 u8x8_cad_SendSequence(u8x8, u8x8_d_st75256_256x128_powersave0_seq);
 1815              		.loc 1 1537 0
 1816 00e6 2149     		ldr	r1, .L134+8
 1817 00e8 FFF7FEFF 		bl	u8x8_cad_SendSequence
 1818              	.LVL291:
1538:..\u8g2\csrc/u8x8_d_st75256.c ****               else
1539:..\u8g2\csrc/u8x8_d_st75256.c ****                 u8x8_cad_SendSequence(u8x8, u8x8_d_st75256_256x128_powersave1_seq);
1540:..\u8g2\csrc/u8x8_d_st75256.c **** 
1541:..\u8g2\csrc/u8x8_d_st75256.c ****               return 1;
 1819              		.loc 1 1541 0
 1820 00ec 0120     		movs	r0, #1
 1821 00ee BDE8F081 		pop	{r4, r5, r6, r7, r8, pc}
 1822              	.LVL292:
 1823              	.L130:
1539:..\u8g2\csrc/u8x8_d_st75256.c **** 
 1824              		.loc 1 1539 0
 1825 00f2 1F49     		ldr	r1, .L134+12
 1826 00f4 FFF7FEFF 		bl	u8x8_cad_SendSequence
ARM GAS  C:\Users\brian\AppData\Local\Temp\cckfkOf3.s 			page 61


 1827              	.LVL293:
 1828              		.loc 1 1541 0
 1829 00f8 0120     		movs	r0, #1
 1830 00fa BDE8F081 		pop	{r4, r5, r6, r7, r8, pc}
 1831              	.LVL294:
 1832              	.L123:
1542:..\u8g2\csrc/u8x8_d_st75256.c **** 	case U8X8_MSG_DISPLAY_SET_FLIP_MODE:
1543:..\u8g2\csrc/u8x8_d_st75256.c **** 	    if ( arg_int == 0 )
 1833              		.loc 1 1543 0
 1834 00fe 4AB9     		cbnz	r2, .L131
1544:..\u8g2\csrc/u8x8_d_st75256.c **** 	    {
1545:..\u8g2\csrc/u8x8_d_st75256.c **** 	      u8x8_cad_SendSequence(u8x8, u8x8_d_st75256_jlx172104_flip0_seq);
 1835              		.loc 1 1545 0
 1836 0100 1C49     		ldr	r1, .L134+16
 1837 0102 FFF7FEFF 		bl	u8x8_cad_SendSequence
 1838              	.LVL295:
1546:..\u8g2\csrc/u8x8_d_st75256.c **** 	      u8x8->x_offset = u8x8->display_info->default_x_offset;
 1839              		.loc 1 1546 0
 1840 0106 3368     		ldr	r3, [r6]
 1841 0108 9B7C     		ldrb	r3, [r3, #18]	@ zero_extendqisi2
 1842 010a 86F82230 		strb	r3, [r6, #34]
1547:..\u8g2\csrc/u8x8_d_st75256.c **** 	    }
1548:..\u8g2\csrc/u8x8_d_st75256.c **** 	    else
1549:..\u8g2\csrc/u8x8_d_st75256.c **** 	    {
1550:..\u8g2\csrc/u8x8_d_st75256.c **** 	      u8x8_cad_SendSequence(u8x8, u8x8_d_st75256_jlx172104_flip1_seq);
1551:..\u8g2\csrc/u8x8_d_st75256.c **** 	      u8x8->x_offset = u8x8->display_info->flipmode_x_offset;
1552:..\u8g2\csrc/u8x8_d_st75256.c **** 	    }
1553:..\u8g2\csrc/u8x8_d_st75256.c **** 	    return 1;
 1843              		.loc 1 1553 0
 1844 010e 0120     		movs	r0, #1
 1845 0110 BDE8F081 		pop	{r4, r5, r6, r7, r8, pc}
 1846              	.LVL296:
 1847              	.L131:
1550:..\u8g2\csrc/u8x8_d_st75256.c **** 	      u8x8->x_offset = u8x8->display_info->flipmode_x_offset;
 1848              		.loc 1 1550 0
 1849 0114 1849     		ldr	r1, .L134+20
 1850 0116 FFF7FEFF 		bl	u8x8_cad_SendSequence
 1851              	.LVL297:
1551:..\u8g2\csrc/u8x8_d_st75256.c **** 	    }
 1852              		.loc 1 1551 0
 1853 011a 3368     		ldr	r3, [r6]
 1854 011c DB7C     		ldrb	r3, [r3, #19]	@ zero_extendqisi2
 1855 011e 86F82230 		strb	r3, [r6, #34]
 1856              		.loc 1 1553 0
 1857 0122 0120     		movs	r0, #1
 1858 0124 BDE8F081 		pop	{r4, r5, r6, r7, r8, pc}
 1859              	.LVL298:
 1860              	.L124:
1554:..\u8g2\csrc/u8x8_d_st75256.c **** 		
1555:..\u8g2\csrc/u8x8_d_st75256.c **** #ifdef U8X8_WITH_SET_CONTRAST
1556:..\u8g2\csrc/u8x8_d_st75256.c ****         case U8X8_MSG_DISPLAY_SET_CONTRAST:
1557:..\u8g2\csrc/u8x8_d_st75256.c **** 
1558:..\u8g2\csrc/u8x8_d_st75256.c ****               u8x8_cad_StartTransfer(u8x8);
 1861              		.loc 1 1558 0
 1862 0128 FFF7FEFF 		bl	u8x8_cad_StartTransfer
 1863              	.LVL299:
1559:..\u8g2\csrc/u8x8_d_st75256.c ****               
ARM GAS  C:\Users\brian\AppData\Local\Temp\cckfkOf3.s 			page 62


1560:..\u8g2\csrc/u8x8_d_st75256.c ****               u8x8_cad_SendCmd(u8x8, 0x030 );
 1864              		.loc 1 1560 0
 1865 012c 3021     		movs	r1, #48
 1866 012e 3046     		mov	r0, r6
 1867 0130 FFF7FEFF 		bl	u8x8_cad_SendCmd
 1868              	.LVL300:
1561:..\u8g2\csrc/u8x8_d_st75256.c ****               u8x8_cad_SendCmd(u8x8, 0x081 );  /* there are 9 bit for the volume control */
 1869              		.loc 1 1561 0
 1870 0134 8121     		movs	r1, #129
 1871 0136 3046     		mov	r0, r6
 1872 0138 FFF7FEFF 		bl	u8x8_cad_SendCmd
 1873              	.LVL301:
1562:..\u8g2\csrc/u8x8_d_st75256.c ****               u8x8_cad_SendArg(u8x8, (arg_int & 0x1f)<<1 );	/* lower 6 bit */
 1874              		.loc 1 1562 0
 1875 013c 6900     		lsls	r1, r5, #1
 1876 013e 01F03E01 		and	r1, r1, #62
 1877 0142 3046     		mov	r0, r6
 1878 0144 FFF7FEFF 		bl	u8x8_cad_SendArg
 1879              	.LVL302:
1563:..\u8g2\csrc/u8x8_d_st75256.c ****               u8x8_cad_SendArg(u8x8, (arg_int>>5));		/* upper 3 bit */
 1880              		.loc 1 1563 0
 1881 0148 6909     		lsrs	r1, r5, #5
 1882 014a 3046     		mov	r0, r6
 1883 014c FFF7FEFF 		bl	u8x8_cad_SendArg
 1884              	.LVL303:
1564:..\u8g2\csrc/u8x8_d_st75256.c ****               
1565:..\u8g2\csrc/u8x8_d_st75256.c ****               u8x8_cad_EndTransfer(u8x8);
 1885              		.loc 1 1565 0
 1886 0150 3046     		mov	r0, r6
 1887 0152 FFF7FEFF 		bl	u8x8_cad_EndTransfer
 1888              	.LVL304:
1566:..\u8g2\csrc/u8x8_d_st75256.c ****               return 1;
 1889              		.loc 1 1566 0
 1890 0156 0120     		movs	r0, #1
 1891 0158 BDE8F081 		pop	{r4, r5, r6, r7, r8, pc}
 1892              	.LVL305:
 1893              	.L132:
1567:..\u8g2\csrc/u8x8_d_st75256.c **** #endif
1568:..\u8g2\csrc/u8x8_d_st75256.c ****   }
1569:..\u8g2\csrc/u8x8_d_st75256.c ****   return 0;
 1894              		.loc 1 1569 0
 1895 015c 0020     		movs	r0, #0
 1896              	.LVL306:
1570:..\u8g2\csrc/u8x8_d_st75256.c **** 
1571:..\u8g2\csrc/u8x8_d_st75256.c **** } 
 1897              		.loc 1 1571 0
 1898 015e BDE8F081 		pop	{r4, r5, r6, r7, r8, pc}
 1899              	.LVL307:
 1900              	.L135:
 1901 0162 00BF     		.align	2
 1902              	.L134:
 1903 0164 FC030000 		.word	.LANCHOR0+1020
 1904 0168 14040000 		.word	.LANCHOR0+1044
 1905 016c 00000000 		.word	.LANCHOR0
 1906 0170 0C000000 		.word	.LANCHOR0+12
 1907 0174 50010000 		.word	.LANCHOR0+336
 1908 0178 40010000 		.word	.LANCHOR0+320
ARM GAS  C:\Users\brian\AppData\Local\Temp\cckfkOf3.s 			page 63


 1909              		.cfi_endproc
 1910              	.LFE8:
 1911              		.size	u8x8_d_st75256_jlx256160_alt, .-u8x8_d_st75256_jlx256160_alt
 1912              		.section	.text.u8x8_d_st75256_jlx19296,"ax",%progbits
 1913              		.align	2
 1914              		.global	u8x8_d_st75256_jlx19296
 1915              		.thumb
 1916              		.thumb_func
 1917              		.type	u8x8_d_st75256_jlx19296, %function
 1918              	u8x8_d_st75256_jlx19296:
 1919              	.LFB9:
1572:..\u8g2\csrc/u8x8_d_st75256.c **** 
1573:..\u8g2\csrc/u8x8_d_st75256.c **** 
1574:..\u8g2\csrc/u8x8_d_st75256.c **** /*=============================================*/
1575:..\u8g2\csrc/u8x8_d_st75256.c **** /* JLX19296 LCD */
1576:..\u8g2\csrc/u8x8_d_st75256.c **** 
1577:..\u8g2\csrc/u8x8_d_st75256.c **** static const u8x8_display_info_t u8x8_st75256_192x96_display_info =
1578:..\u8g2\csrc/u8x8_d_st75256.c **** {
1579:..\u8g2\csrc/u8x8_d_st75256.c ****   /* chip_enable_level = */ 0,
1580:..\u8g2\csrc/u8x8_d_st75256.c ****   /* chip_disable_level = */ 1,
1581:..\u8g2\csrc/u8x8_d_st75256.c ****   
1582:..\u8g2\csrc/u8x8_d_st75256.c ****   /* post_chip_enable_wait_ns = */ 20,
1583:..\u8g2\csrc/u8x8_d_st75256.c ****   /* pre_chip_disable_wait_ns = */ 20,
1584:..\u8g2\csrc/u8x8_d_st75256.c ****   /* reset_pulse_width_ms = */ 5, 	
1585:..\u8g2\csrc/u8x8_d_st75256.c ****   /* post_reset_wait_ms = */ 5, 		/**/
1586:..\u8g2\csrc/u8x8_d_st75256.c ****   /* sda_setup_time_ns = */ 20,		/* */
1587:..\u8g2\csrc/u8x8_d_st75256.c ****   /* sck_pulse_width_ns = */ 40,	/*  */
1588:..\u8g2\csrc/u8x8_d_st75256.c ****   /* sck_clock_hz = */ 4000000UL,	/* since Arduino 1.6.0, the SPI bus speed in Hz. Should be  10000
1589:..\u8g2\csrc/u8x8_d_st75256.c ****   /* spi_mode = */ 0,		/* active high, rising edge */
1590:..\u8g2\csrc/u8x8_d_st75256.c ****   /* i2c_bus_clock_100kHz = */ 4,	/* 400KHz */
1591:..\u8g2\csrc/u8x8_d_st75256.c ****   /* data_setup_time_ns = */ 15,
1592:..\u8g2\csrc/u8x8_d_st75256.c ****   /* write_pulse_width_ns = */ 70,	
1593:..\u8g2\csrc/u8x8_d_st75256.c ****   /* tile_width = */ 24,	
1594:..\u8g2\csrc/u8x8_d_st75256.c ****   /* tile_hight = */ 12,
1595:..\u8g2\csrc/u8x8_d_st75256.c ****   /* default_x_offset = */ 0,	/*  */
1596:..\u8g2\csrc/u8x8_d_st75256.c ****   /* flipmode_x_offset = */ 64,
1597:..\u8g2\csrc/u8x8_d_st75256.c ****   /* pixel_width = */ 192,
1598:..\u8g2\csrc/u8x8_d_st75256.c ****   /* pixel_height = */ 96
1599:..\u8g2\csrc/u8x8_d_st75256.c **** };
1600:..\u8g2\csrc/u8x8_d_st75256.c **** 
1601:..\u8g2\csrc/u8x8_d_st75256.c **** static const uint8_t u8x8_d_st75256_jlx19296_init_seq[] = {
1602:..\u8g2\csrc/u8x8_d_st75256.c ****   U8X8_START_TRANSFER(),             	/* enable chip, delay is part of the transfer start */
1603:..\u8g2\csrc/u8x8_d_st75256.c ****   
1604:..\u8g2\csrc/u8x8_d_st75256.c ****   U8X8_DLY(20),
1605:..\u8g2\csrc/u8x8_d_st75256.c **** 
1606:..\u8g2\csrc/u8x8_d_st75256.c ****   U8X8_C( 0x030 ),				/* select 00 commands */
1607:..\u8g2\csrc/u8x8_d_st75256.c ****   U8X8_C( 0x094 ),				/* sleep out */
1608:..\u8g2\csrc/u8x8_d_st75256.c **** 
1609:..\u8g2\csrc/u8x8_d_st75256.c ****   //U8X8_C( 0x030 ),				/* select 00 commands */
1610:..\u8g2\csrc/u8x8_d_st75256.c ****   U8X8_C( 0x0ae ),				/* display off */
1611:..\u8g2\csrc/u8x8_d_st75256.c **** 
1612:..\u8g2\csrc/u8x8_d_st75256.c ****   U8X8_C( 0x031 ),				/* select 01 commands */
1613:..\u8g2\csrc/u8x8_d_st75256.c ****   U8X8_CA( 0x0d7, 0x09f ),		/* disable auto read */  
1614:..\u8g2\csrc/u8x8_d_st75256.c **** 
1615:..\u8g2\csrc/u8x8_d_st75256.c ****   //U8X8_C( 0x031 ),				/* select 01 commands */
1616:..\u8g2\csrc/u8x8_d_st75256.c ****   U8X8_C( 0x032 ),				/* analog circuit set */
1617:..\u8g2\csrc/u8x8_d_st75256.c ****   U8X8_A( 0x000 ),				/* code example: OSC Frequency adjustment */
ARM GAS  C:\Users\brian\AppData\Local\Temp\cckfkOf3.s 			page 64


1618:..\u8g2\csrc/u8x8_d_st75256.c ****   U8X8_A( 0x001 ),				/* Frequency on booster capacitors 1 = 6KHz? */
1619:..\u8g2\csrc/u8x8_d_st75256.c ****   U8X8_A( 0x003 ),				/* Bias: 1: 1/13, 2: 1/12, 3: 1/11, 4:1/10, 5:1/9 */
1620:..\u8g2\csrc/u8x8_d_st75256.c ****     
1621:..\u8g2\csrc/u8x8_d_st75256.c ****   //U8X8_C( 0x031 ),				/* select 01 commands */
1622:..\u8g2\csrc/u8x8_d_st75256.c ****   U8X8_C( 0x020 ),				/* gray levels */
1623:..\u8g2\csrc/u8x8_d_st75256.c ****   U8X8_A( 0x01 ),
1624:..\u8g2\csrc/u8x8_d_st75256.c ****   U8X8_A( 0x03 ),
1625:..\u8g2\csrc/u8x8_d_st75256.c ****   U8X8_A( 0x05 ),
1626:..\u8g2\csrc/u8x8_d_st75256.c ****   U8X8_A( 0x07 ),
1627:..\u8g2\csrc/u8x8_d_st75256.c ****   U8X8_A( 0x09),
1628:..\u8g2\csrc/u8x8_d_st75256.c ****   U8X8_A( 0x0b ),
1629:..\u8g2\csrc/u8x8_d_st75256.c ****   U8X8_A( 0x0d ),
1630:..\u8g2\csrc/u8x8_d_st75256.c ****   U8X8_A( 0x10 ),
1631:..\u8g2\csrc/u8x8_d_st75256.c ****   U8X8_A( 0x11 ),
1632:..\u8g2\csrc/u8x8_d_st75256.c ****   U8X8_A( 0x13 ),
1633:..\u8g2\csrc/u8x8_d_st75256.c ****   U8X8_A( 0x15 ),
1634:..\u8g2\csrc/u8x8_d_st75256.c ****   U8X8_A( 0x17 ),
1635:..\u8g2\csrc/u8x8_d_st75256.c ****   U8X8_A( 0x19 ),
1636:..\u8g2\csrc/u8x8_d_st75256.c ****   U8X8_A( 0x1b ),
1637:..\u8g2\csrc/u8x8_d_st75256.c ****   U8X8_A( 0x1d ),
1638:..\u8g2\csrc/u8x8_d_st75256.c ****   U8X8_A( 0x1f ),
1639:..\u8g2\csrc/u8x8_d_st75256.c ****  
1640:..\u8g2\csrc/u8x8_d_st75256.c ****   
1641:..\u8g2\csrc/u8x8_d_st75256.c ****   U8X8_C( 0x030 ),				/* select 00 commands */
1642:..\u8g2\csrc/u8x8_d_st75256.c ****   U8X8_CAA(0x75, 0, 0x4f),		/* row range */
1643:..\u8g2\csrc/u8x8_d_st75256.c ****   U8X8_CAA(0x15, 0, 255),		/* col range */
1644:..\u8g2\csrc/u8x8_d_st75256.c ****   
1645:..\u8g2\csrc/u8x8_d_st75256.c ****   //U8X8_C( 0x030 ),				/* select 00 commands */
1646:..\u8g2\csrc/u8x8_d_st75256.c ****   U8X8_CA( 0xbc, 0x00 ),			/* data scan dir */
1647:..\u8g2\csrc/u8x8_d_st75256.c ****   U8X8_A( 0xa6 ),				/* ??? */
1648:..\u8g2\csrc/u8x8_d_st75256.c **** 
1649:..\u8g2\csrc/u8x8_d_st75256.c ****   //U8X8_C( 0x030 ),				/* select 00 commands */
1650:..\u8g2\csrc/u8x8_d_st75256.c ****   U8X8_C( 0x00c ),				/* data format LSB top */
1651:..\u8g2\csrc/u8x8_d_st75256.c **** 
1652:..\u8g2\csrc/u8x8_d_st75256.c ****   //U8X8_C( 0x030 ),				/* select 00 commands */ 
1653:..\u8g2\csrc/u8x8_d_st75256.c ****   U8X8_C( 0xca ),				/* display control, 3 args follow  */
1654:..\u8g2\csrc/u8x8_d_st75256.c ****   U8X8_A( 0x00 ),				/* 0x00: no clock division, 0x04: devide clock */
1655:..\u8g2\csrc/u8x8_d_st75256.c ****   U8X8_A( 0x9f ),				/* 1/160 duty value from the DS example code */
1656:..\u8g2\csrc/u8x8_d_st75256.c ****   U8X8_A( 0x20 ),				/* nline off */ 
1657:..\u8g2\csrc/u8x8_d_st75256.c **** 
1658:..\u8g2\csrc/u8x8_d_st75256.c ****   //U8X8_C( 0x030 ),				/* select 00 commands */ 
1659:..\u8g2\csrc/u8x8_d_st75256.c ****   U8X8_CA( 0x0f0, 0x010 ),		/* monochrome mode  = 0x010*/
1660:..\u8g2\csrc/u8x8_d_st75256.c **** 
1661:..\u8g2\csrc/u8x8_d_st75256.c ****   //U8X8_C( 0x030 ),				/* select 00 commands */
1662:..\u8g2\csrc/u8x8_d_st75256.c ****   U8X8_CAA( 0x81, 0x2e, 0x03 ),	/* Volume control */
1663:..\u8g2\csrc/u8x8_d_st75256.c **** 
1664:..\u8g2\csrc/u8x8_d_st75256.c ****   //U8X8_C( 0x030 ),				/* select 00 commands */
1665:..\u8g2\csrc/u8x8_d_st75256.c ****   U8X8_CA( 0x020, 0x00b ),		/* Power control: Regulator, follower & booster on */
1666:..\u8g2\csrc/u8x8_d_st75256.c ****   U8X8_DLY(100),
1667:..\u8g2\csrc/u8x8_d_st75256.c **** 
1668:..\u8g2\csrc/u8x8_d_st75256.c ****   U8X8_END_TRANSFER(),             	/* disable chip */
1669:..\u8g2\csrc/u8x8_d_st75256.c ****   U8X8_END()             			/* end of sequence */
1670:..\u8g2\csrc/u8x8_d_st75256.c **** };    
1671:..\u8g2\csrc/u8x8_d_st75256.c **** 
1672:..\u8g2\csrc/u8x8_d_st75256.c **** 
1673:..\u8g2\csrc/u8x8_d_st75256.c **** uint8_t u8x8_d_st75256_jlx19296(u8x8_t *u8x8, uint8_t msg, uint8_t arg_int, void *arg_ptr)
1674:..\u8g2\csrc/u8x8_d_st75256.c **** {
ARM GAS  C:\Users\brian\AppData\Local\Temp\cckfkOf3.s 			page 65


 1920              		.loc 1 1674 0
 1921              		.cfi_startproc
 1922              		@ args = 0, pretend = 0, frame = 0
 1923              		@ frame_needed = 0, uses_anonymous_args = 0
 1924              	.LVL308:
 1925 0000 2DE9F041 		push	{r4, r5, r6, r7, r8, lr}
 1926              		.cfi_def_cfa_offset 24
 1927              		.cfi_offset 4, -24
 1928              		.cfi_offset 5, -20
 1929              		.cfi_offset 6, -16
 1930              		.cfi_offset 7, -12
 1931              		.cfi_offset 8, -8
 1932              		.cfi_offset 14, -4
 1933 0004 0646     		mov	r6, r0
 1934 0006 1546     		mov	r5, r2
 1935 0008 1F46     		mov	r7, r3
1675:..\u8g2\csrc/u8x8_d_st75256.c ****   uint8_t x, c;
1676:..\u8g2\csrc/u8x8_d_st75256.c ****   uint8_t *ptr;
1677:..\u8g2\csrc/u8x8_d_st75256.c **** 
1678:..\u8g2\csrc/u8x8_d_st75256.c ****   switch(msg)
 1936              		.loc 1 1678 0
 1937 000a 0939     		subs	r1, r1, #9
 1938              	.LVL309:
 1939 000c 0629     		cmp	r1, #6
 1940 000e 00F2A280 		bhi	.L151
 1941 0012 DFE801F0 		tbb	[pc, r1]
 1942              	.LVL310:
 1943              	.L139:
 1944 0016 55       		.byte	(.L138-.L139)/2
 1945 0017 5B       		.byte	(.L140-.L139)/2
 1946 0018 64       		.byte	(.L141-.L139)/2
 1947 0019 A0       		.byte	(.L151-.L139)/2
 1948 001a 71       		.byte	(.L142-.L139)/2
 1949 001b 86       		.byte	(.L143-.L139)/2
 1950 001c 04       		.byte	(.L144-.L139)/2
 1951 001d 00       		.p2align 1
 1952              	.L144:
1679:..\u8g2\csrc/u8x8_d_st75256.c ****   {
1680:..\u8g2\csrc/u8x8_d_st75256.c ****             case U8X8_MSG_DISPLAY_DRAW_TILE:
1681:..\u8g2\csrc/u8x8_d_st75256.c ****               
1682:..\u8g2\csrc/u8x8_d_st75256.c ****               u8x8_cad_StartTransfer(u8x8);
 1953              		.loc 1 1682 0
 1954 001e FFF7FEFF 		bl	u8x8_cad_StartTransfer
 1955              	.LVL311:
1683:..\u8g2\csrc/u8x8_d_st75256.c ****               x = ((u8x8_tile_t *)arg_ptr)->x_pos;    
 1956              		.loc 1 1683 0
 1957 0022 7C79     		ldrb	r4, [r7, #5]	@ zero_extendqisi2
 1958              	.LVL312:
1684:..\u8g2\csrc/u8x8_d_st75256.c ****               x *= 8;
 1959              		.loc 1 1684 0
 1960 0024 E400     		lsls	r4, r4, #3
 1961              	.LVL313:
 1962 0026 5FFA84F8 		uxtb	r8, r4
 1963              	.LVL314:
1685:..\u8g2\csrc/u8x8_d_st75256.c ****               
1686:..\u8g2\csrc/u8x8_d_st75256.c ****               u8x8_cad_SendCmd(u8x8, 0x030 );	/* select command set */
 1964              		.loc 1 1686 0
ARM GAS  C:\Users\brian\AppData\Local\Temp\cckfkOf3.s 			page 66


 1965 002a 3021     		movs	r1, #48
 1966 002c 3046     		mov	r0, r6
 1967 002e FFF7FEFF 		bl	u8x8_cad_SendCmd
 1968              	.LVL315:
1687:..\u8g2\csrc/u8x8_d_st75256.c ****               u8x8_cad_SendCmd(u8x8, 0x075 );	/* row */
 1969              		.loc 1 1687 0
 1970 0032 7521     		movs	r1, #117
 1971 0034 3046     		mov	r0, r6
 1972 0036 FFF7FEFF 		bl	u8x8_cad_SendCmd
 1973              	.LVL316:
1688:..\u8g2\csrc/u8x8_d_st75256.c **** 	      if ( u8x8->x_offset == 0 )		/* 0 means flip mode 1, then adjust y value */
 1974              		.loc 1 1688 0
 1975 003a 96F82230 		ldrb	r3, [r6, #34]	@ zero_extendqisi2
 1976 003e 33B9     		cbnz	r3, .L145
1689:..\u8g2\csrc/u8x8_d_st75256.c **** 		u8x8_cad_SendArg(u8x8, 8+(((u8x8_tile_t *)arg_ptr)->y_pos));
 1977              		.loc 1 1689 0
 1978 0040 B979     		ldrb	r1, [r7, #6]	@ zero_extendqisi2
 1979 0042 0831     		adds	r1, r1, #8
 1980 0044 C9B2     		uxtb	r1, r1
 1981 0046 3046     		mov	r0, r6
 1982 0048 FFF7FEFF 		bl	u8x8_cad_SendArg
 1983              	.LVL317:
 1984 004c 05E0     		b	.L146
 1985              	.L145:
1690:..\u8g2\csrc/u8x8_d_st75256.c **** 	      else
1691:..\u8g2\csrc/u8x8_d_st75256.c **** 		u8x8_cad_SendArg(u8x8, 1+(((u8x8_tile_t *)arg_ptr)->y_pos));
 1986              		.loc 1 1691 0
 1987 004e B979     		ldrb	r1, [r7, #6]	@ zero_extendqisi2
 1988 0050 0131     		adds	r1, r1, #1
 1989 0052 C9B2     		uxtb	r1, r1
 1990 0054 3046     		mov	r0, r6
 1991 0056 FFF7FEFF 		bl	u8x8_cad_SendArg
 1992              	.LVL318:
 1993              	.L146:
1692:..\u8g2\csrc/u8x8_d_st75256.c ****               u8x8_cad_SendArg(u8x8, 0x04f);
 1994              		.loc 1 1692 0
 1995 005a 4F21     		movs	r1, #79
 1996 005c 3046     		mov	r0, r6
 1997 005e FFF7FEFF 		bl	u8x8_cad_SendArg
 1998              	.LVL319:
1693:..\u8g2\csrc/u8x8_d_st75256.c ****               //u8x8_cad_SendArg(u8x8, (((u8x8_tile_t *)arg_ptr)->y_pos));
1694:..\u8g2\csrc/u8x8_d_st75256.c ****               u8x8_cad_SendCmd(u8x8, 0x015 );	/* col */
 1999              		.loc 1 1694 0
 2000 0062 1521     		movs	r1, #21
 2001 0064 3046     		mov	r0, r6
 2002 0066 FFF7FEFF 		bl	u8x8_cad_SendCmd
 2003              	.LVL320:
1695:..\u8g2\csrc/u8x8_d_st75256.c ****               u8x8_cad_SendArg(u8x8, x+u8x8->x_offset);
 2004              		.loc 1 1695 0
 2005 006a 96F82210 		ldrb	r1, [r6, #34]	@ zero_extendqisi2
 2006 006e 4144     		add	r1, r1, r8
 2007 0070 C9B2     		uxtb	r1, r1
 2008 0072 3046     		mov	r0, r6
 2009 0074 FFF7FEFF 		bl	u8x8_cad_SendArg
 2010              	.LVL321:
1696:..\u8g2\csrc/u8x8_d_st75256.c ****               u8x8_cad_SendArg(u8x8, 255);
 2011              		.loc 1 1696 0
ARM GAS  C:\Users\brian\AppData\Local\Temp\cckfkOf3.s 			page 67


 2012 0078 FF21     		movs	r1, #255
 2013 007a 3046     		mov	r0, r6
 2014 007c FFF7FEFF 		bl	u8x8_cad_SendArg
 2015              	.LVL322:
1697:..\u8g2\csrc/u8x8_d_st75256.c ****               u8x8_cad_SendCmd(u8x8, 0x05c );	
 2016              		.loc 1 1697 0
 2017 0080 5C21     		movs	r1, #92
 2018 0082 3046     		mov	r0, r6
 2019 0084 FFF7FEFF 		bl	u8x8_cad_SendCmd
 2020              	.LVL323:
 2021              	.L148:
1698:..\u8g2\csrc/u8x8_d_st75256.c ****             
1699:..\u8g2\csrc/u8x8_d_st75256.c ****               
1700:..\u8g2\csrc/u8x8_d_st75256.c ****               do
1701:..\u8g2\csrc/u8x8_d_st75256.c ****               {
1702:..\u8g2\csrc/u8x8_d_st75256.c ****                 c = ((u8x8_tile_t *)arg_ptr)->cnt;
 2022              		.loc 1 1702 0
 2023 0088 3B79     		ldrb	r3, [r7, #4]	@ zero_extendqisi2
 2024              	.LVL324:
1703:..\u8g2\csrc/u8x8_d_st75256.c ****                 ptr = ((u8x8_tile_t *)arg_ptr)->tile_ptr;
 2025              		.loc 1 1703 0
 2026 008a 3A68     		ldr	r2, [r7]
 2027              	.LVL325:
1704:..\u8g2\csrc/u8x8_d_st75256.c ****                 c *= 8;
 2028              		.loc 1 1704 0
 2029 008c DB00     		lsls	r3, r3, #3
 2030              	.LVL326:
 2031 008e DCB2     		uxtb	r4, r3
 2032              	.LVL327:
1705:..\u8g2\csrc/u8x8_d_st75256.c **** 
1706:..\u8g2\csrc/u8x8_d_st75256.c ****                 if ( c + x > 192u )
 2033              		.loc 1 1706 0
 2034 0090 04EB0803 		add	r3, r4, r8
 2035 0094 C02B     		cmp	r3, #192
 2036 0096 02D9     		bls	.L147
 2037              	.LVL328:
1707:..\u8g2\csrc/u8x8_d_st75256.c ****                 {
1708:..\u8g2\csrc/u8x8_d_st75256.c ****                         c = 192u;
1709:..\u8g2\csrc/u8x8_d_st75256.c ****                         c -= x;
 2038              		.loc 1 1709 0
 2039 0098 C8F1C003 		rsb	r3, r8, #192
 2040 009c DCB2     		uxtb	r4, r3
 2041              	.LVL329:
 2042              	.L147:
1710:..\u8g2\csrc/u8x8_d_st75256.c ****                 }
1711:..\u8g2\csrc/u8x8_d_st75256.c ****                       
1712:..\u8g2\csrc/u8x8_d_st75256.c ****                 u8x8_cad_SendData(u8x8, c, ptr); 	
 2043              		.loc 1 1712 0
 2044 009e 2146     		mov	r1, r4
 2045 00a0 3046     		mov	r0, r6
 2046 00a2 FFF7FEFF 		bl	u8x8_cad_SendData
 2047              	.LVL330:
1713:..\u8g2\csrc/u8x8_d_st75256.c ****                 x += c;
 2048              		.loc 1 1713 0
 2049 00a6 4444     		add	r4, r4, r8
 2050              	.LVL331:
 2051 00a8 5FFA84F8 		uxtb	r8, r4
ARM GAS  C:\Users\brian\AppData\Local\Temp\cckfkOf3.s 			page 68


 2052              	.LVL332:
1714:..\u8g2\csrc/u8x8_d_st75256.c ****                 arg_int--;
 2053              		.loc 1 1714 0
 2054 00ac 013D     		subs	r5, r5, #1
 2055              	.LVL333:
1715:..\u8g2\csrc/u8x8_d_st75256.c ****               } while( arg_int > 0 );
 2056              		.loc 1 1715 0
 2057 00ae 15F0FF05 		ands	r5, r5, #255
 2058              	.LVL334:
 2059 00b2 E9D1     		bne	.L148
1716:..\u8g2\csrc/u8x8_d_st75256.c ****               
1717:..\u8g2\csrc/u8x8_d_st75256.c ****               u8x8_cad_EndTransfer(u8x8);
 2060              		.loc 1 1717 0
 2061 00b4 3046     		mov	r0, r6
 2062 00b6 FFF7FEFF 		bl	u8x8_cad_EndTransfer
 2063              	.LVL335:
1718:..\u8g2\csrc/u8x8_d_st75256.c ****               return 1;
 2064              		.loc 1 1718 0
 2065 00ba 0120     		movs	r0, #1
 2066 00bc BDE8F081 		pop	{r4, r5, r6, r7, r8, pc}
 2067              	.LVL336:
 2068              	.L138:
1719:..\u8g2\csrc/u8x8_d_st75256.c ****         case U8X8_MSG_DISPLAY_SETUP_MEMORY:
1720:..\u8g2\csrc/u8x8_d_st75256.c ****             //u8x8_SetI2CAddress(u8x8, 0x078);		/* lowest I2C adr of the ST75256 */
1721:..\u8g2\csrc/u8x8_d_st75256.c ****             u8x8_d_helper_display_setup_memory(u8x8, &u8x8_st75256_192x96_display_info);
 2069              		.loc 1 1721 0
 2070 00c0 2649     		ldr	r1, .L153
 2071 00c2 FFF7FEFF 		bl	u8x8_d_helper_display_setup_memory
 2072              	.LVL337:
1722:..\u8g2\csrc/u8x8_d_st75256.c ****             return 1;
 2073              		.loc 1 1722 0
 2074 00c6 0120     		movs	r0, #1
 2075 00c8 BDE8F081 		pop	{r4, r5, r6, r7, r8, pc}
 2076              	.LVL338:
 2077              	.L140:
1723:..\u8g2\csrc/u8x8_d_st75256.c ****         case U8X8_MSG_DISPLAY_INIT:
1724:..\u8g2\csrc/u8x8_d_st75256.c ****             u8x8_d_helper_display_init(u8x8);
 2078              		.loc 1 1724 0
 2079 00cc FFF7FEFF 		bl	u8x8_d_helper_display_init
 2080              	.LVL339:
1725:..\u8g2\csrc/u8x8_d_st75256.c ****             u8x8_cad_SendSequence(u8x8, u8x8_d_st75256_jlx19296_init_seq);
 2081              		.loc 1 1725 0
 2082 00d0 2349     		ldr	r1, .L153+4
 2083 00d2 3046     		mov	r0, r6
 2084 00d4 FFF7FEFF 		bl	u8x8_cad_SendSequence
 2085              	.LVL340:
1726:..\u8g2\csrc/u8x8_d_st75256.c ****             return 1;
 2086              		.loc 1 1726 0
 2087 00d8 0120     		movs	r0, #1
 2088 00da BDE8F081 		pop	{r4, r5, r6, r7, r8, pc}
 2089              	.LVL341:
 2090              	.L141:
1727:..\u8g2\csrc/u8x8_d_st75256.c ****         case U8X8_MSG_DISPLAY_SET_POWER_SAVE:
1728:..\u8g2\csrc/u8x8_d_st75256.c ****               if ( arg_int == 0 )
 2091              		.loc 1 1728 0
 2092 00de 2AB9     		cbnz	r2, .L149
1729:..\u8g2\csrc/u8x8_d_st75256.c ****                 u8x8_cad_SendSequence(u8x8, u8x8_d_st75256_256x128_powersave0_seq);
ARM GAS  C:\Users\brian\AppData\Local\Temp\cckfkOf3.s 			page 69


 2093              		.loc 1 1729 0
 2094 00e0 2049     		ldr	r1, .L153+8
 2095 00e2 FFF7FEFF 		bl	u8x8_cad_SendSequence
 2096              	.LVL342:
1730:..\u8g2\csrc/u8x8_d_st75256.c ****               else
1731:..\u8g2\csrc/u8x8_d_st75256.c ****                 u8x8_cad_SendSequence(u8x8, u8x8_d_st75256_256x128_powersave1_seq);
1732:..\u8g2\csrc/u8x8_d_st75256.c **** 
1733:..\u8g2\csrc/u8x8_d_st75256.c ****               return 1;
 2097              		.loc 1 1733 0
 2098 00e6 0120     		movs	r0, #1
 2099 00e8 BDE8F081 		pop	{r4, r5, r6, r7, r8, pc}
 2100              	.LVL343:
 2101              	.L149:
1731:..\u8g2\csrc/u8x8_d_st75256.c **** 
 2102              		.loc 1 1731 0
 2103 00ec 1E49     		ldr	r1, .L153+12
 2104 00ee FFF7FEFF 		bl	u8x8_cad_SendSequence
 2105              	.LVL344:
 2106              		.loc 1 1733 0
 2107 00f2 0120     		movs	r0, #1
 2108 00f4 BDE8F081 		pop	{r4, r5, r6, r7, r8, pc}
 2109              	.LVL345:
 2110              	.L142:
1734:..\u8g2\csrc/u8x8_d_st75256.c **** 	case U8X8_MSG_DISPLAY_SET_FLIP_MODE:
1735:..\u8g2\csrc/u8x8_d_st75256.c **** 	    if ( arg_int == 0 )
 2111              		.loc 1 1735 0
 2112 00f8 4AB9     		cbnz	r2, .L150
1736:..\u8g2\csrc/u8x8_d_st75256.c **** 	    {
1737:..\u8g2\csrc/u8x8_d_st75256.c **** 	      u8x8_cad_SendSequence(u8x8, u8x8_d_st75256_jlx256160_flip0_seq);
 2113              		.loc 1 1737 0
 2114 00fa 1C49     		ldr	r1, .L153+16
 2115 00fc FFF7FEFF 		bl	u8x8_cad_SendSequence
 2116              	.LVL346:
1738:..\u8g2\csrc/u8x8_d_st75256.c **** 	      u8x8->x_offset = u8x8->display_info->default_x_offset;
 2117              		.loc 1 1738 0
 2118 0100 3368     		ldr	r3, [r6]
 2119 0102 9B7C     		ldrb	r3, [r3, #18]	@ zero_extendqisi2
 2120 0104 86F82230 		strb	r3, [r6, #34]
1739:..\u8g2\csrc/u8x8_d_st75256.c **** 	    }
1740:..\u8g2\csrc/u8x8_d_st75256.c **** 	    else
1741:..\u8g2\csrc/u8x8_d_st75256.c **** 	    {
1742:..\u8g2\csrc/u8x8_d_st75256.c **** 	      u8x8_cad_SendSequence(u8x8, u8x8_d_st75256_jlx256160_flip1_seq);
1743:..\u8g2\csrc/u8x8_d_st75256.c **** 	      u8x8->x_offset = u8x8->display_info->flipmode_x_offset;
1744:..\u8g2\csrc/u8x8_d_st75256.c **** 	    }
1745:..\u8g2\csrc/u8x8_d_st75256.c **** 	    return 1;
 2121              		.loc 1 1745 0
 2122 0108 0120     		movs	r0, #1
 2123 010a BDE8F081 		pop	{r4, r5, r6, r7, r8, pc}
 2124              	.LVL347:
 2125              	.L150:
1742:..\u8g2\csrc/u8x8_d_st75256.c **** 	      u8x8->x_offset = u8x8->display_info->flipmode_x_offset;
 2126              		.loc 1 1742 0
 2127 010e 1849     		ldr	r1, .L153+20
 2128 0110 FFF7FEFF 		bl	u8x8_cad_SendSequence
 2129              	.LVL348:
1743:..\u8g2\csrc/u8x8_d_st75256.c **** 	    }
 2130              		.loc 1 1743 0
ARM GAS  C:\Users\brian\AppData\Local\Temp\cckfkOf3.s 			page 70


 2131 0114 3368     		ldr	r3, [r6]
 2132 0116 DB7C     		ldrb	r3, [r3, #19]	@ zero_extendqisi2
 2133 0118 86F82230 		strb	r3, [r6, #34]
 2134              		.loc 1 1745 0
 2135 011c 0120     		movs	r0, #1
 2136 011e BDE8F081 		pop	{r4, r5, r6, r7, r8, pc}
 2137              	.LVL349:
 2138              	.L143:
1746:..\u8g2\csrc/u8x8_d_st75256.c **** 	    /*
1747:..\u8g2\csrc/u8x8_d_st75256.c **** 	    if ( arg_int == 0 )
1748:..\u8g2\csrc/u8x8_d_st75256.c **** 	    {
1749:..\u8g2\csrc/u8x8_d_st75256.c **** 	      u8x8_cad_SendSequence(u8x8, u8x8_d_st75256_jlx172104_flip0_seq);
1750:..\u8g2\csrc/u8x8_d_st75256.c **** 	      u8x8->x_offset = u8x8->display_info->default_x_offset;
1751:..\u8g2\csrc/u8x8_d_st75256.c **** 	    }
1752:..\u8g2\csrc/u8x8_d_st75256.c **** 	    else
1753:..\u8g2\csrc/u8x8_d_st75256.c **** 	    {
1754:..\u8g2\csrc/u8x8_d_st75256.c **** 	      u8x8_cad_SendSequence(u8x8, u8x8_d_st75256_jlx172104_flip1_seq); 
1755:..\u8g2\csrc/u8x8_d_st75256.c **** 	      u8x8->x_offset = u8x8->display_info->flipmode_x_offset;
1756:..\u8g2\csrc/u8x8_d_st75256.c **** 	    }
1757:..\u8g2\csrc/u8x8_d_st75256.c **** 	    return 1;
1758:..\u8g2\csrc/u8x8_d_st75256.c **** 	    */
1759:..\u8g2\csrc/u8x8_d_st75256.c **** 		
1760:..\u8g2\csrc/u8x8_d_st75256.c **** #ifdef U8X8_WITH_SET_CONTRAST
1761:..\u8g2\csrc/u8x8_d_st75256.c ****         case U8X8_MSG_DISPLAY_SET_CONTRAST:
1762:..\u8g2\csrc/u8x8_d_st75256.c **** 
1763:..\u8g2\csrc/u8x8_d_st75256.c ****               u8x8_cad_StartTransfer(u8x8);
 2139              		.loc 1 1763 0
 2140 0122 FFF7FEFF 		bl	u8x8_cad_StartTransfer
 2141              	.LVL350:
1764:..\u8g2\csrc/u8x8_d_st75256.c ****               
1765:..\u8g2\csrc/u8x8_d_st75256.c ****               u8x8_cad_SendCmd(u8x8, 0x030 );
 2142              		.loc 1 1765 0
 2143 0126 3021     		movs	r1, #48
 2144 0128 3046     		mov	r0, r6
 2145 012a FFF7FEFF 		bl	u8x8_cad_SendCmd
 2146              	.LVL351:
1766:..\u8g2\csrc/u8x8_d_st75256.c ****               u8x8_cad_SendCmd(u8x8, 0x081 );  /* there are 9 bit for the volume control */
 2147              		.loc 1 1766 0
 2148 012e 8121     		movs	r1, #129
 2149 0130 3046     		mov	r0, r6
 2150 0132 FFF7FEFF 		bl	u8x8_cad_SendCmd
 2151              	.LVL352:
1767:..\u8g2\csrc/u8x8_d_st75256.c ****               u8x8_cad_SendArg(u8x8, (arg_int & 0x1f)<<1 );	/* lower 6 bit */
 2152              		.loc 1 1767 0
 2153 0136 6900     		lsls	r1, r5, #1
 2154 0138 01F03E01 		and	r1, r1, #62
 2155 013c 3046     		mov	r0, r6
 2156 013e FFF7FEFF 		bl	u8x8_cad_SendArg
 2157              	.LVL353:
1768:..\u8g2\csrc/u8x8_d_st75256.c ****               u8x8_cad_SendArg(u8x8, (arg_int>>5));		/* upper 3 bit */
 2158              		.loc 1 1768 0
 2159 0142 6909     		lsrs	r1, r5, #5
 2160 0144 3046     		mov	r0, r6
 2161 0146 FFF7FEFF 		bl	u8x8_cad_SendArg
 2162              	.LVL354:
1769:..\u8g2\csrc/u8x8_d_st75256.c ****               
1770:..\u8g2\csrc/u8x8_d_st75256.c ****               u8x8_cad_EndTransfer(u8x8);
ARM GAS  C:\Users\brian\AppData\Local\Temp\cckfkOf3.s 			page 71


 2163              		.loc 1 1770 0
 2164 014a 3046     		mov	r0, r6
 2165 014c FFF7FEFF 		bl	u8x8_cad_EndTransfer
 2166              	.LVL355:
1771:..\u8g2\csrc/u8x8_d_st75256.c ****               return 1;
 2167              		.loc 1 1771 0
 2168 0150 0120     		movs	r0, #1
 2169 0152 BDE8F081 		pop	{r4, r5, r6, r7, r8, pc}
 2170              	.LVL356:
 2171              	.L151:
1772:..\u8g2\csrc/u8x8_d_st75256.c **** #endif
1773:..\u8g2\csrc/u8x8_d_st75256.c ****   }
1774:..\u8g2\csrc/u8x8_d_st75256.c ****   return 0;
 2172              		.loc 1 1774 0
 2173 0156 0020     		movs	r0, #0
 2174              	.LVL357:
1775:..\u8g2\csrc/u8x8_d_st75256.c **** }
 2175              		.loc 1 1775 0
 2176 0158 BDE8F081 		pop	{r4, r5, r6, r7, r8, pc}
 2177              	.LVL358:
 2178              	.L154:
 2179              		.align	2
 2180              	.L153:
 2181 015c 80040000 		.word	.LANCHOR0+1152
 2182 0160 98040000 		.word	.LANCHOR0+1176
 2183 0164 00000000 		.word	.LANCHOR0
 2184 0168 0C000000 		.word	.LANCHOR0+12
 2185 016c 70030000 		.word	.LANCHOR0+880
 2186 0170 80030000 		.word	.LANCHOR0+896
 2187              		.cfi_endproc
 2188              	.LFE9:
 2189              		.size	u8x8_d_st75256_jlx19296, .-u8x8_d_st75256_jlx19296
 2190              		.section	.rodata
 2191              		.align	2
 2192              		.set	.LANCHOR0,. + 0
 2193              		.type	u8x8_d_st75256_256x128_powersave0_seq, %object
 2194              		.size	u8x8_d_st75256_256x128_powersave0_seq, 11
 2195              	u8x8_d_st75256_256x128_powersave0_seq:
 2196 0000 18       		.byte	24
 2197 0001 15       		.byte	21
 2198 0002 30       		.byte	48
 2199 0003 15       		.byte	21
 2200 0004 94       		.byte	-108
 2201 0005 FE       		.byte	-2
 2202 0006 0A       		.byte	10
 2203 0007 15       		.byte	21
 2204 0008 AF       		.byte	-81
 2205 0009 19       		.byte	25
 2206 000a FF       		.byte	-1
 2207 000b 00       		.space	1
 2208              		.type	u8x8_d_st75256_256x128_powersave1_seq, %object
 2209              		.size	u8x8_d_st75256_256x128_powersave1_seq, 9
 2210              	u8x8_d_st75256_256x128_powersave1_seq:
 2211 000c 18       		.byte	24
 2212 000d 15       		.byte	21
 2213 000e 30       		.byte	48
 2214 000f 15       		.byte	21
ARM GAS  C:\Users\brian\AppData\Local\Temp\cckfkOf3.s 			page 72


 2215 0010 AE       		.byte	-82
 2216 0011 15       		.byte	21
 2217 0012 95       		.byte	-107
 2218 0013 19       		.byte	25
 2219 0014 FF       		.byte	-1
 2220 0015 000000   		.space	3
 2221              		.type	u8x8_st75256_256x128_display_info, %object
 2222              		.size	u8x8_st75256_256x128_display_info, 24
 2223              	u8x8_st75256_256x128_display_info:
 2224 0018 00       		.byte	0
 2225 0019 01       		.byte	1
 2226 001a 14       		.byte	20
 2227 001b 14       		.byte	20
 2228 001c 05       		.byte	5
 2229 001d 05       		.byte	5
 2230 001e 14       		.byte	20
 2231 001f 28       		.byte	40
 2232 0020 00093D00 		.word	4000000
 2233 0024 00       		.byte	0
 2234 0025 04       		.byte	4
 2235 0026 0F       		.byte	15
 2236 0027 46       		.byte	70
 2237 0028 20       		.byte	32
 2238 0029 10       		.byte	16
 2239 002a 00       		.byte	0
 2240 002b 05       		.byte	5
 2241 002c 0001     		.short	256
 2242 002e 8000     		.short	128
 2243              		.type	u8x8_d_st75256_256x128_init_seq, %object
 2244              		.size	u8x8_d_st75256_256x128_init_seq, 105
 2245              	u8x8_d_st75256_256x128_init_seq:
 2246 0030 18       		.byte	24
 2247 0031 FE       		.byte	-2
 2248 0032 14       		.byte	20
 2249 0033 15       		.byte	21
 2250 0034 30       		.byte	48
 2251 0035 15       		.byte	21
 2252 0036 94       		.byte	-108
 2253 0037 15       		.byte	21
 2254 0038 AE       		.byte	-82
 2255 0039 15       		.byte	21
 2256 003a 31       		.byte	49
 2257 003b 15       		.byte	21
 2258 003c D7       		.byte	-41
 2259 003d 16       		.byte	22
 2260 003e 9F       		.byte	-97
 2261 003f 15       		.byte	21
 2262 0040 32       		.byte	50
 2263 0041 16       		.byte	22
 2264 0042 00       		.byte	0
 2265 0043 16       		.byte	22
 2266 0044 01       		.byte	1
 2267 0045 16       		.byte	22
 2268 0046 00       		.byte	0
 2269 0047 15       		.byte	21
 2270 0048 20       		.byte	32
 2271 0049 16       		.byte	22
ARM GAS  C:\Users\brian\AppData\Local\Temp\cckfkOf3.s 			page 73


 2272 004a 01       		.byte	1
 2273 004b 16       		.byte	22
 2274 004c 03       		.byte	3
 2275 004d 16       		.byte	22
 2276 004e 05       		.byte	5
 2277 004f 16       		.byte	22
 2278 0050 07       		.byte	7
 2279 0051 16       		.byte	22
 2280 0052 09       		.byte	9
 2281 0053 16       		.byte	22
 2282 0054 0B       		.byte	11
 2283 0055 16       		.byte	22
 2284 0056 0D       		.byte	13
 2285 0057 16       		.byte	22
 2286 0058 10       		.byte	16
 2287 0059 16       		.byte	22
 2288 005a 11       		.byte	17
 2289 005b 16       		.byte	22
 2290 005c 13       		.byte	19
 2291 005d 16       		.byte	22
 2292 005e 15       		.byte	21
 2293 005f 16       		.byte	22
 2294 0060 17       		.byte	23
 2295 0061 16       		.byte	22
 2296 0062 19       		.byte	25
 2297 0063 16       		.byte	22
 2298 0064 1B       		.byte	27
 2299 0065 16       		.byte	22
 2300 0066 1D       		.byte	29
 2301 0067 16       		.byte	22
 2302 0068 1F       		.byte	31
 2303 0069 15       		.byte	21
 2304 006a 30       		.byte	48
 2305 006b 15       		.byte	21
 2306 006c 75       		.byte	117
 2307 006d 16       		.byte	22
 2308 006e 00       		.byte	0
 2309 006f 16       		.byte	22
 2310 0070 4F       		.byte	79
 2311 0071 15       		.byte	21
 2312 0072 15       		.byte	21
 2313 0073 16       		.byte	22
 2314 0074 00       		.byte	0
 2315 0075 16       		.byte	22
 2316 0076 FF       		.byte	-1
 2317 0077 15       		.byte	21
 2318 0078 BC       		.byte	-68
 2319 0079 16       		.byte	22
 2320 007a 00       		.byte	0
 2321 007b 16       		.byte	22
 2322 007c A6       		.byte	-90
 2323 007d 15       		.byte	21
 2324 007e 0C       		.byte	12
 2325 007f 15       		.byte	21
 2326 0080 CA       		.byte	-54
 2327 0081 16       		.byte	22
 2328 0082 00       		.byte	0
ARM GAS  C:\Users\brian\AppData\Local\Temp\cckfkOf3.s 			page 74


 2329 0083 16       		.byte	22
 2330 0084 7F       		.byte	127
 2331 0085 16       		.byte	22
 2332 0086 20       		.byte	32
 2333 0087 15       		.byte	21
 2334 0088 F0       		.byte	-16
 2335 0089 16       		.byte	22
 2336 008a 10       		.byte	16
 2337 008b 15       		.byte	21
 2338 008c 81       		.byte	-127
 2339 008d 16       		.byte	22
 2340 008e 36       		.byte	54
 2341 008f 16       		.byte	22
 2342 0090 05       		.byte	5
 2343 0091 15       		.byte	21
 2344 0092 20       		.byte	32
 2345 0093 16       		.byte	22
 2346 0094 0B       		.byte	11
 2347 0095 FE       		.byte	-2
 2348 0096 64       		.byte	100
 2349 0097 19       		.byte	25
 2350 0098 FF       		.byte	-1
 2351 0099 000000   		.space	3
 2352              		.type	u8x8_d_st75256_jlx256128_flip0_seq, %object
 2353              		.size	u8x8_d_st75256_jlx256128_flip0_seq, 13
 2354              	u8x8_d_st75256_jlx256128_flip0_seq:
 2355 009c 18       		.byte	24
 2356 009d 15       		.byte	21
 2357 009e 30       		.byte	48
 2358 009f 15       		.byte	21
 2359 00a0 BC       		.byte	-68
 2360 00a1 16       		.byte	22
 2361 00a2 00       		.byte	0
 2362 00a3 16       		.byte	22
 2363 00a4 A6       		.byte	-90
 2364 00a5 15       		.byte	21
 2365 00a6 0C       		.byte	12
 2366 00a7 19       		.byte	25
 2367 00a8 FF       		.byte	-1
 2368 00a9 000000   		.space	3
 2369              		.type	u8x8_d_st75256_jlx256128_flip1_seq, %object
 2370              		.size	u8x8_d_st75256_jlx256128_flip1_seq, 13
 2371              	u8x8_d_st75256_jlx256128_flip1_seq:
 2372 00ac 18       		.byte	24
 2373 00ad 15       		.byte	21
 2374 00ae 30       		.byte	48
 2375 00af 15       		.byte	21
 2376 00b0 BC       		.byte	-68
 2377 00b1 16       		.byte	22
 2378 00b2 03       		.byte	3
 2379 00b3 16       		.byte	22
 2380 00b4 A6       		.byte	-90
 2381 00b5 15       		.byte	21
 2382 00b6 08       		.byte	8
 2383 00b7 19       		.byte	25
 2384 00b8 FF       		.byte	-1
 2385 00b9 000000   		.space	3
ARM GAS  C:\Users\brian\AppData\Local\Temp\cckfkOf3.s 			page 75


 2386              		.type	u8x8_st75256_wo256x128_display_info, %object
 2387              		.size	u8x8_st75256_wo256x128_display_info, 24
 2388              	u8x8_st75256_wo256x128_display_info:
 2389 00bc 00       		.byte	0
 2390 00bd 01       		.byte	1
 2391 00be 14       		.byte	20
 2392 00bf 14       		.byte	20
 2393 00c0 05       		.byte	5
 2394 00c1 05       		.byte	5
 2395 00c2 14       		.byte	20
 2396 00c3 28       		.byte	40
 2397 00c4 00093D00 		.word	4000000
 2398 00c8 00       		.byte	0
 2399 00c9 04       		.byte	4
 2400 00ca 0F       		.byte	15
 2401 00cb 46       		.byte	70
 2402 00cc 20       		.byte	32
 2403 00cd 10       		.byte	16
 2404 00ce 05       		.byte	5
 2405 00cf 00       		.byte	0
 2406 00d0 0001     		.short	256
 2407 00d2 8000     		.short	128
 2408              		.type	u8x8_d_st75256_wo256x128_init_seq, %object
 2409              		.size	u8x8_d_st75256_wo256x128_init_seq, 105
 2410              	u8x8_d_st75256_wo256x128_init_seq:
 2411 00d4 18       		.byte	24
 2412 00d5 FE       		.byte	-2
 2413 00d6 14       		.byte	20
 2414 00d7 15       		.byte	21
 2415 00d8 30       		.byte	48
 2416 00d9 15       		.byte	21
 2417 00da 94       		.byte	-108
 2418 00db 15       		.byte	21
 2419 00dc AE       		.byte	-82
 2420 00dd 15       		.byte	21
 2421 00de 31       		.byte	49
 2422 00df 15       		.byte	21
 2423 00e0 D7       		.byte	-41
 2424 00e1 16       		.byte	22
 2425 00e2 9F       		.byte	-97
 2426 00e3 15       		.byte	21
 2427 00e4 32       		.byte	50
 2428 00e5 16       		.byte	22
 2429 00e6 00       		.byte	0
 2430 00e7 16       		.byte	22
 2431 00e8 01       		.byte	1
 2432 00e9 16       		.byte	22
 2433 00ea 00       		.byte	0
 2434 00eb 15       		.byte	21
 2435 00ec 20       		.byte	32
 2436 00ed 16       		.byte	22
 2437 00ee 01       		.byte	1
 2438 00ef 16       		.byte	22
 2439 00f0 03       		.byte	3
 2440 00f1 16       		.byte	22
 2441 00f2 05       		.byte	5
 2442 00f3 16       		.byte	22
ARM GAS  C:\Users\brian\AppData\Local\Temp\cckfkOf3.s 			page 76


 2443 00f4 07       		.byte	7
 2444 00f5 16       		.byte	22
 2445 00f6 09       		.byte	9
 2446 00f7 16       		.byte	22
 2447 00f8 0B       		.byte	11
 2448 00f9 16       		.byte	22
 2449 00fa 0D       		.byte	13
 2450 00fb 16       		.byte	22
 2451 00fc 10       		.byte	16
 2452 00fd 16       		.byte	22
 2453 00fe 11       		.byte	17
 2454 00ff 16       		.byte	22
 2455 0100 13       		.byte	19
 2456 0101 16       		.byte	22
 2457 0102 15       		.byte	21
 2458 0103 16       		.byte	22
 2459 0104 17       		.byte	23
 2460 0105 16       		.byte	22
 2461 0106 19       		.byte	25
 2462 0107 16       		.byte	22
 2463 0108 1B       		.byte	27
 2464 0109 16       		.byte	22
 2465 010a 1D       		.byte	29
 2466 010b 16       		.byte	22
 2467 010c 1F       		.byte	31
 2468 010d 15       		.byte	21
 2469 010e 30       		.byte	48
 2470 010f 15       		.byte	21
 2471 0110 75       		.byte	117
 2472 0111 16       		.byte	22
 2473 0112 00       		.byte	0
 2474 0113 16       		.byte	22
 2475 0114 4F       		.byte	79
 2476 0115 15       		.byte	21
 2477 0116 15       		.byte	21
 2478 0117 16       		.byte	22
 2479 0118 00       		.byte	0
 2480 0119 16       		.byte	22
 2481 011a FF       		.byte	-1
 2482 011b 15       		.byte	21
 2483 011c BC       		.byte	-68
 2484 011d 16       		.byte	22
 2485 011e 01       		.byte	1
 2486 011f 16       		.byte	22
 2487 0120 A6       		.byte	-90
 2488 0121 15       		.byte	21
 2489 0122 08       		.byte	8
 2490 0123 15       		.byte	21
 2491 0124 CA       		.byte	-54
 2492 0125 16       		.byte	22
 2493 0126 00       		.byte	0
 2494 0127 16       		.byte	22
 2495 0128 7F       		.byte	127
 2496 0129 16       		.byte	22
 2497 012a 20       		.byte	32
 2498 012b 15       		.byte	21
 2499 012c F0       		.byte	-16
ARM GAS  C:\Users\brian\AppData\Local\Temp\cckfkOf3.s 			page 77


 2500 012d 16       		.byte	22
 2501 012e 10       		.byte	16
 2502 012f 15       		.byte	21
 2503 0130 81       		.byte	-127
 2504 0131 16       		.byte	22
 2505 0132 36       		.byte	54
 2506 0133 16       		.byte	22
 2507 0134 05       		.byte	5
 2508 0135 15       		.byte	21
 2509 0136 20       		.byte	32
 2510 0137 16       		.byte	22
 2511 0138 0B       		.byte	11
 2512 0139 FE       		.byte	-2
 2513 013a 64       		.byte	100
 2514 013b 19       		.byte	25
 2515 013c FF       		.byte	-1
 2516 013d 000000   		.space	3
 2517              		.type	u8x8_d_st75256_jlx172104_flip1_seq, %object
 2518              		.size	u8x8_d_st75256_jlx172104_flip1_seq, 13
 2519              	u8x8_d_st75256_jlx172104_flip1_seq:
 2520 0140 18       		.byte	24
 2521 0141 15       		.byte	21
 2522 0142 30       		.byte	48
 2523 0143 15       		.byte	21
 2524 0144 BC       		.byte	-68
 2525 0145 16       		.byte	22
 2526 0146 01       		.byte	1
 2527 0147 16       		.byte	22
 2528 0148 A6       		.byte	-90
 2529 0149 15       		.byte	21
 2530 014a 08       		.byte	8
 2531 014b 19       		.byte	25
 2532 014c FF       		.byte	-1
 2533 014d 000000   		.space	3
 2534              		.type	u8x8_d_st75256_jlx172104_flip0_seq, %object
 2535              		.size	u8x8_d_st75256_jlx172104_flip0_seq, 13
 2536              	u8x8_d_st75256_jlx172104_flip0_seq:
 2537 0150 18       		.byte	24
 2538 0151 15       		.byte	21
 2539 0152 30       		.byte	48
 2540 0153 15       		.byte	21
 2541 0154 BC       		.byte	-68
 2542 0155 16       		.byte	22
 2543 0156 02       		.byte	2
 2544 0157 16       		.byte	22
 2545 0158 A6       		.byte	-90
 2546 0159 15       		.byte	21
 2547 015a 0C       		.byte	12
 2548 015b 19       		.byte	25
 2549 015c FF       		.byte	-1
 2550 015d 000000   		.space	3
 2551              		.type	u8x8_st75256_256x64_display_info, %object
 2552              		.size	u8x8_st75256_256x64_display_info, 24
 2553              	u8x8_st75256_256x64_display_info:
 2554 0160 00       		.byte	0
 2555 0161 01       		.byte	1
 2556 0162 14       		.byte	20
ARM GAS  C:\Users\brian\AppData\Local\Temp\cckfkOf3.s 			page 78


 2557 0163 14       		.byte	20
 2558 0164 05       		.byte	5
 2559 0165 05       		.byte	5
 2560 0166 14       		.byte	20
 2561 0167 28       		.byte	40
 2562 0168 00093D00 		.word	4000000
 2563 016c 00       		.byte	0
 2564 016d 04       		.byte	4
 2565 016e 0F       		.byte	15
 2566 016f 46       		.byte	70
 2567 0170 20       		.byte	32
 2568 0171 08       		.byte	8
 2569 0172 00       		.byte	0
 2570 0173 0D       		.byte	13
 2571 0174 0001     		.short	256
 2572 0176 4000     		.short	64
 2573              		.type	u8x8_d_st75256_256x64_init_seq, %object
 2574              		.size	u8x8_d_st75256_256x64_init_seq, 105
 2575              	u8x8_d_st75256_256x64_init_seq:
 2576 0178 18       		.byte	24
 2577 0179 FE       		.byte	-2
 2578 017a 14       		.byte	20
 2579 017b 15       		.byte	21
 2580 017c 30       		.byte	48
 2581 017d 15       		.byte	21
 2582 017e 94       		.byte	-108
 2583 017f 15       		.byte	21
 2584 0180 AE       		.byte	-82
 2585 0181 15       		.byte	21
 2586 0182 31       		.byte	49
 2587 0183 15       		.byte	21
 2588 0184 D7       		.byte	-41
 2589 0185 16       		.byte	22
 2590 0186 9F       		.byte	-97
 2591 0187 15       		.byte	21
 2592 0188 32       		.byte	50
 2593 0189 16       		.byte	22
 2594 018a 00       		.byte	0
 2595 018b 16       		.byte	22
 2596 018c 01       		.byte	1
 2597 018d 16       		.byte	22
 2598 018e 05       		.byte	5
 2599 018f 15       		.byte	21
 2600 0190 20       		.byte	32
 2601 0191 16       		.byte	22
 2602 0192 01       		.byte	1
 2603 0193 16       		.byte	22
 2604 0194 03       		.byte	3
 2605 0195 16       		.byte	22
 2606 0196 05       		.byte	5
 2607 0197 16       		.byte	22
 2608 0198 07       		.byte	7
 2609 0199 16       		.byte	22
 2610 019a 09       		.byte	9
 2611 019b 16       		.byte	22
 2612 019c 0B       		.byte	11
 2613 019d 16       		.byte	22
ARM GAS  C:\Users\brian\AppData\Local\Temp\cckfkOf3.s 			page 79


 2614 019e 0D       		.byte	13
 2615 019f 16       		.byte	22
 2616 01a0 10       		.byte	16
 2617 01a1 16       		.byte	22
 2618 01a2 11       		.byte	17
 2619 01a3 16       		.byte	22
 2620 01a4 13       		.byte	19
 2621 01a5 16       		.byte	22
 2622 01a6 15       		.byte	21
 2623 01a7 16       		.byte	22
 2624 01a8 17       		.byte	23
 2625 01a9 16       		.byte	22
 2626 01aa 19       		.byte	25
 2627 01ab 16       		.byte	22
 2628 01ac 1B       		.byte	27
 2629 01ad 16       		.byte	22
 2630 01ae 1D       		.byte	29
 2631 01af 16       		.byte	22
 2632 01b0 1F       		.byte	31
 2633 01b1 15       		.byte	21
 2634 01b2 30       		.byte	48
 2635 01b3 15       		.byte	21
 2636 01b4 75       		.byte	117
 2637 01b5 16       		.byte	22
 2638 01b6 00       		.byte	0
 2639 01b7 16       		.byte	22
 2640 01b8 1F       		.byte	31
 2641 01b9 15       		.byte	21
 2642 01ba 15       		.byte	21
 2643 01bb 16       		.byte	22
 2644 01bc 00       		.byte	0
 2645 01bd 16       		.byte	22
 2646 01be FF       		.byte	-1
 2647 01bf 15       		.byte	21
 2648 01c0 BC       		.byte	-68
 2649 01c1 16       		.byte	22
 2650 01c2 00       		.byte	0
 2651 01c3 16       		.byte	22
 2652 01c4 A6       		.byte	-90
 2653 01c5 15       		.byte	21
 2654 01c6 0C       		.byte	12
 2655 01c7 15       		.byte	21
 2656 01c8 CA       		.byte	-54
 2657 01c9 16       		.byte	22
 2658 01ca 00       		.byte	0
 2659 01cb 16       		.byte	22
 2660 01cc 3F       		.byte	63
 2661 01cd 16       		.byte	22
 2662 01ce 20       		.byte	32
 2663 01cf 15       		.byte	21
 2664 01d0 F0       		.byte	-16
 2665 01d1 16       		.byte	22
 2666 01d2 10       		.byte	16
 2667 01d3 15       		.byte	21
 2668 01d4 81       		.byte	-127
 2669 01d5 16       		.byte	22
 2670 01d6 0A       		.byte	10
ARM GAS  C:\Users\brian\AppData\Local\Temp\cckfkOf3.s 			page 80


 2671 01d7 16       		.byte	22
 2672 01d8 02       		.byte	2
 2673 01d9 15       		.byte	21
 2674 01da 20       		.byte	32
 2675 01db 16       		.byte	22
 2676 01dc 0B       		.byte	11
 2677 01dd FE       		.byte	-2
 2678 01de 64       		.byte	100
 2679 01df 19       		.byte	25
 2680 01e0 FF       		.byte	-1
 2681 01e1 000000   		.space	3
 2682              		.type	u8x8_st75256_172x104_display_info, %object
 2683              		.size	u8x8_st75256_172x104_display_info, 24
 2684              	u8x8_st75256_172x104_display_info:
 2685 01e4 00       		.byte	0
 2686 01e5 01       		.byte	1
 2687 01e6 14       		.byte	20
 2688 01e7 14       		.byte	20
 2689 01e8 05       		.byte	5
 2690 01e9 05       		.byte	5
 2691 01ea 14       		.byte	20
 2692 01eb 28       		.byte	40
 2693 01ec 00093D00 		.word	4000000
 2694 01f0 00       		.byte	0
 2695 01f1 04       		.byte	4
 2696 01f2 0F       		.byte	15
 2697 01f3 46       		.byte	70
 2698 01f4 16       		.byte	22
 2699 01f5 0D       		.byte	13
 2700 01f6 54       		.byte	84
 2701 01f7 00       		.byte	0
 2702 01f8 AC00     		.short	172
 2703 01fa 6800     		.short	104
 2704              		.type	u8x8_d_st75256_jlx172104_init_seq, %object
 2705              		.size	u8x8_d_st75256_jlx172104_init_seq, 105
 2706              	u8x8_d_st75256_jlx172104_init_seq:
 2707 01fc 18       		.byte	24
 2708 01fd FE       		.byte	-2
 2709 01fe 14       		.byte	20
 2710 01ff 15       		.byte	21
 2711 0200 30       		.byte	48
 2712 0201 15       		.byte	21
 2713 0202 94       		.byte	-108
 2714 0203 15       		.byte	21
 2715 0204 AE       		.byte	-82
 2716 0205 15       		.byte	21
 2717 0206 31       		.byte	49
 2718 0207 15       		.byte	21
 2719 0208 D7       		.byte	-41
 2720 0209 16       		.byte	22
 2721 020a 9F       		.byte	-97
 2722 020b 15       		.byte	21
 2723 020c 32       		.byte	50
 2724 020d 16       		.byte	22
 2725 020e 00       		.byte	0
 2726 020f 16       		.byte	22
 2727 0210 01       		.byte	1
ARM GAS  C:\Users\brian\AppData\Local\Temp\cckfkOf3.s 			page 81


 2728 0211 16       		.byte	22
 2729 0212 03       		.byte	3
 2730 0213 15       		.byte	21
 2731 0214 20       		.byte	32
 2732 0215 16       		.byte	22
 2733 0216 01       		.byte	1
 2734 0217 16       		.byte	22
 2735 0218 03       		.byte	3
 2736 0219 16       		.byte	22
 2737 021a 05       		.byte	5
 2738 021b 16       		.byte	22
 2739 021c 07       		.byte	7
 2740 021d 16       		.byte	22
 2741 021e 09       		.byte	9
 2742 021f 16       		.byte	22
 2743 0220 0B       		.byte	11
 2744 0221 16       		.byte	22
 2745 0222 0D       		.byte	13
 2746 0223 16       		.byte	22
 2747 0224 10       		.byte	16
 2748 0225 16       		.byte	22
 2749 0226 11       		.byte	17
 2750 0227 16       		.byte	22
 2751 0228 13       		.byte	19
 2752 0229 16       		.byte	22
 2753 022a 15       		.byte	21
 2754 022b 16       		.byte	22
 2755 022c 17       		.byte	23
 2756 022d 16       		.byte	22
 2757 022e 19       		.byte	25
 2758 022f 16       		.byte	22
 2759 0230 1B       		.byte	27
 2760 0231 16       		.byte	22
 2761 0232 1D       		.byte	29
 2762 0233 16       		.byte	22
 2763 0234 1F       		.byte	31
 2764 0235 15       		.byte	21
 2765 0236 30       		.byte	48
 2766 0237 15       		.byte	21
 2767 0238 75       		.byte	117
 2768 0239 16       		.byte	22
 2769 023a 00       		.byte	0
 2770 023b 16       		.byte	22
 2771 023c 4F       		.byte	79
 2772 023d 15       		.byte	21
 2773 023e 15       		.byte	21
 2774 023f 16       		.byte	22
 2775 0240 00       		.byte	0
 2776 0241 16       		.byte	22
 2777 0242 FF       		.byte	-1
 2778 0243 15       		.byte	21
 2779 0244 BC       		.byte	-68
 2780 0245 16       		.byte	22
 2781 0246 02       		.byte	2
 2782 0247 16       		.byte	22
 2783 0248 A6       		.byte	-90
 2784 0249 15       		.byte	21
ARM GAS  C:\Users\brian\AppData\Local\Temp\cckfkOf3.s 			page 82


 2785 024a 0C       		.byte	12
 2786 024b 15       		.byte	21
 2787 024c CA       		.byte	-54
 2788 024d 16       		.byte	22
 2789 024e 00       		.byte	0
 2790 024f 16       		.byte	22
 2791 0250 9F       		.byte	-97
 2792 0251 16       		.byte	22
 2793 0252 20       		.byte	32
 2794 0253 15       		.byte	21
 2795 0254 F0       		.byte	-16
 2796 0255 16       		.byte	22
 2797 0256 10       		.byte	16
 2798 0257 15       		.byte	21
 2799 0258 81       		.byte	-127
 2800 0259 16       		.byte	22
 2801 025a 08       		.byte	8
 2802 025b 16       		.byte	22
 2803 025c 04       		.byte	4
 2804 025d 15       		.byte	21
 2805 025e 20       		.byte	32
 2806 025f 16       		.byte	22
 2807 0260 0B       		.byte	11
 2808 0261 FE       		.byte	-2
 2809 0262 64       		.byte	100
 2810 0263 19       		.byte	25
 2811 0264 FF       		.byte	-1
 2812 0265 000000   		.space	3
 2813              		.type	u8x8_st75256_240x160_display_info, %object
 2814              		.size	u8x8_st75256_240x160_display_info, 24
 2815              	u8x8_st75256_240x160_display_info:
 2816 0268 00       		.byte	0
 2817 0269 01       		.byte	1
 2818 026a 14       		.byte	20
 2819 026b 14       		.byte	20
 2820 026c 05       		.byte	5
 2821 026d 05       		.byte	5
 2822 026e 14       		.byte	20
 2823 026f 28       		.byte	40
 2824 0270 00093D00 		.word	4000000
 2825 0274 00       		.byte	0
 2826 0275 04       		.byte	4
 2827 0276 0F       		.byte	15
 2828 0277 46       		.byte	70
 2829 0278 1E       		.byte	30
 2830 0279 14       		.byte	20
 2831 027a 10       		.byte	16
 2832 027b 00       		.byte	0
 2833 027c F000     		.short	240
 2834 027e A000     		.short	160
 2835              		.type	u8x8_d_st75256_240x160_init_seq, %object
 2836              		.size	u8x8_d_st75256_240x160_init_seq, 105
 2837              	u8x8_d_st75256_240x160_init_seq:
 2838 0280 18       		.byte	24
 2839 0281 FE       		.byte	-2
 2840 0282 14       		.byte	20
 2841 0283 15       		.byte	21
ARM GAS  C:\Users\brian\AppData\Local\Temp\cckfkOf3.s 			page 83


 2842 0284 30       		.byte	48
 2843 0285 15       		.byte	21
 2844 0286 94       		.byte	-108
 2845 0287 15       		.byte	21
 2846 0288 AE       		.byte	-82
 2847 0289 15       		.byte	21
 2848 028a 31       		.byte	49
 2849 028b 15       		.byte	21
 2850 028c D7       		.byte	-41
 2851 028d 16       		.byte	22
 2852 028e 9F       		.byte	-97
 2853 028f 15       		.byte	21
 2854 0290 32       		.byte	50
 2855 0291 16       		.byte	22
 2856 0292 00       		.byte	0
 2857 0293 16       		.byte	22
 2858 0294 01       		.byte	1
 2859 0295 16       		.byte	22
 2860 0296 00       		.byte	0
 2861 0297 15       		.byte	21
 2862 0298 20       		.byte	32
 2863 0299 16       		.byte	22
 2864 029a 01       		.byte	1
 2865 029b 16       		.byte	22
 2866 029c 03       		.byte	3
 2867 029d 16       		.byte	22
 2868 029e 05       		.byte	5
 2869 029f 16       		.byte	22
 2870 02a0 07       		.byte	7
 2871 02a1 16       		.byte	22
 2872 02a2 09       		.byte	9
 2873 02a3 16       		.byte	22
 2874 02a4 0B       		.byte	11
 2875 02a5 16       		.byte	22
 2876 02a6 0D       		.byte	13
 2877 02a7 16       		.byte	22
 2878 02a8 10       		.byte	16
 2879 02a9 16       		.byte	22
 2880 02aa 11       		.byte	17
 2881 02ab 16       		.byte	22
 2882 02ac 13       		.byte	19
 2883 02ad 16       		.byte	22
 2884 02ae 15       		.byte	21
 2885 02af 16       		.byte	22
 2886 02b0 17       		.byte	23
 2887 02b1 16       		.byte	22
 2888 02b2 19       		.byte	25
 2889 02b3 16       		.byte	22
 2890 02b4 1B       		.byte	27
 2891 02b5 16       		.byte	22
 2892 02b6 1D       		.byte	29
 2893 02b7 16       		.byte	22
 2894 02b8 1F       		.byte	31
 2895 02b9 15       		.byte	21
 2896 02ba 30       		.byte	48
 2897 02bb 15       		.byte	21
 2898 02bc 75       		.byte	117
ARM GAS  C:\Users\brian\AppData\Local\Temp\cckfkOf3.s 			page 84


 2899 02bd 16       		.byte	22
 2900 02be 00       		.byte	0
 2901 02bf 16       		.byte	22
 2902 02c0 4F       		.byte	79
 2903 02c1 15       		.byte	21
 2904 02c2 15       		.byte	21
 2905 02c3 16       		.byte	22
 2906 02c4 00       		.byte	0
 2907 02c5 16       		.byte	22
 2908 02c6 EF       		.byte	-17
 2909 02c7 15       		.byte	21
 2910 02c8 BC       		.byte	-68
 2911 02c9 16       		.byte	22
 2912 02ca 02       		.byte	2
 2913 02cb 16       		.byte	22
 2914 02cc A6       		.byte	-90
 2915 02cd 15       		.byte	21
 2916 02ce 0C       		.byte	12
 2917 02cf 15       		.byte	21
 2918 02d0 CA       		.byte	-54
 2919 02d1 16       		.byte	22
 2920 02d2 00       		.byte	0
 2921 02d3 16       		.byte	22
 2922 02d4 9F       		.byte	-97
 2923 02d5 16       		.byte	22
 2924 02d6 20       		.byte	32
 2925 02d7 15       		.byte	21
 2926 02d8 F0       		.byte	-16
 2927 02d9 16       		.byte	22
 2928 02da 10       		.byte	16
 2929 02db 15       		.byte	21
 2930 02dc 81       		.byte	-127
 2931 02dd 16       		.byte	22
 2932 02de 18       		.byte	24
 2933 02df 16       		.byte	22
 2934 02e0 04       		.byte	4
 2935 02e1 15       		.byte	21
 2936 02e2 20       		.byte	32
 2937 02e3 16       		.byte	22
 2938 02e4 0B       		.byte	11
 2939 02e5 FE       		.byte	-2
 2940 02e6 64       		.byte	100
 2941 02e7 19       		.byte	25
 2942 02e8 FF       		.byte	-1
 2943 02e9 000000   		.space	3
 2944              		.type	u8x8_st75256_256x160_display_info, %object
 2945              		.size	u8x8_st75256_256x160_display_info, 24
 2946              	u8x8_st75256_256x160_display_info:
 2947 02ec 00       		.byte	0
 2948 02ed 01       		.byte	1
 2949 02ee 14       		.byte	20
 2950 02ef 14       		.byte	20
 2951 02f0 05       		.byte	5
 2952 02f1 05       		.byte	5
 2953 02f2 14       		.byte	20
 2954 02f3 28       		.byte	40
 2955 02f4 00093D00 		.word	4000000
ARM GAS  C:\Users\brian\AppData\Local\Temp\cckfkOf3.s 			page 85


 2956 02f8 00       		.byte	0
 2957 02f9 04       		.byte	4
 2958 02fa 0F       		.byte	15
 2959 02fb 46       		.byte	70
 2960 02fc 20       		.byte	32
 2961 02fd 14       		.byte	20
 2962 02fe 00       		.byte	0
 2963 02ff 01       		.byte	1
 2964 0300 0001     		.short	256
 2965 0302 A000     		.short	160
 2966              		.type	u8x8_d_st75256_256x160_init_seq, %object
 2967              		.size	u8x8_d_st75256_256x160_init_seq, 105
 2968              	u8x8_d_st75256_256x160_init_seq:
 2969 0304 18       		.byte	24
 2970 0305 FE       		.byte	-2
 2971 0306 14       		.byte	20
 2972 0307 15       		.byte	21
 2973 0308 30       		.byte	48
 2974 0309 15       		.byte	21
 2975 030a 94       		.byte	-108
 2976 030b 15       		.byte	21
 2977 030c AE       		.byte	-82
 2978 030d 15       		.byte	21
 2979 030e 31       		.byte	49
 2980 030f 15       		.byte	21
 2981 0310 D7       		.byte	-41
 2982 0311 16       		.byte	22
 2983 0312 9F       		.byte	-97
 2984 0313 15       		.byte	21
 2985 0314 32       		.byte	50
 2986 0315 16       		.byte	22
 2987 0316 00       		.byte	0
 2988 0317 16       		.byte	22
 2989 0318 01       		.byte	1
 2990 0319 16       		.byte	22
 2991 031a 00       		.byte	0
 2992 031b 15       		.byte	21
 2993 031c 20       		.byte	32
 2994 031d 16       		.byte	22
 2995 031e 01       		.byte	1
 2996 031f 16       		.byte	22
 2997 0320 03       		.byte	3
 2998 0321 16       		.byte	22
 2999 0322 05       		.byte	5
 3000 0323 16       		.byte	22
 3001 0324 07       		.byte	7
 3002 0325 16       		.byte	22
 3003 0326 09       		.byte	9
 3004 0327 16       		.byte	22
 3005 0328 0B       		.byte	11
 3006 0329 16       		.byte	22
 3007 032a 0D       		.byte	13
 3008 032b 16       		.byte	22
 3009 032c 10       		.byte	16
 3010 032d 16       		.byte	22
 3011 032e 11       		.byte	17
 3012 032f 16       		.byte	22
ARM GAS  C:\Users\brian\AppData\Local\Temp\cckfkOf3.s 			page 86


 3013 0330 13       		.byte	19
 3014 0331 16       		.byte	22
 3015 0332 15       		.byte	21
 3016 0333 16       		.byte	22
 3017 0334 17       		.byte	23
 3018 0335 16       		.byte	22
 3019 0336 19       		.byte	25
 3020 0337 16       		.byte	22
 3021 0338 1B       		.byte	27
 3022 0339 16       		.byte	22
 3023 033a 1D       		.byte	29
 3024 033b 16       		.byte	22
 3025 033c 1F       		.byte	31
 3026 033d 15       		.byte	21
 3027 033e 30       		.byte	48
 3028 033f 15       		.byte	21
 3029 0340 75       		.byte	117
 3030 0341 16       		.byte	22
 3031 0342 00       		.byte	0
 3032 0343 16       		.byte	22
 3033 0344 28       		.byte	40
 3034 0345 15       		.byte	21
 3035 0346 15       		.byte	21
 3036 0347 16       		.byte	22
 3037 0348 00       		.byte	0
 3038 0349 16       		.byte	22
 3039 034a FF       		.byte	-1
 3040 034b 15       		.byte	21
 3041 034c BC       		.byte	-68
 3042 034d 16       		.byte	22
 3043 034e 00       		.byte	0
 3044 034f 16       		.byte	22
 3045 0350 A6       		.byte	-90
 3046 0351 15       		.byte	21
 3047 0352 0C       		.byte	12
 3048 0353 15       		.byte	21
 3049 0354 CA       		.byte	-54
 3050 0355 16       		.byte	22
 3051 0356 00       		.byte	0
 3052 0357 16       		.byte	22
 3053 0358 9F       		.byte	-97
 3054 0359 16       		.byte	22
 3055 035a 20       		.byte	32
 3056 035b 15       		.byte	21
 3057 035c F0       		.byte	-16
 3058 035d 16       		.byte	22
 3059 035e 10       		.byte	16
 3060 035f 15       		.byte	21
 3061 0360 81       		.byte	-127
 3062 0361 16       		.byte	22
 3063 0362 18       		.byte	24
 3064 0363 16       		.byte	22
 3065 0364 05       		.byte	5
 3066 0365 15       		.byte	21
 3067 0366 20       		.byte	32
 3068 0367 16       		.byte	22
 3069 0368 0B       		.byte	11
ARM GAS  C:\Users\brian\AppData\Local\Temp\cckfkOf3.s 			page 87


 3070 0369 FE       		.byte	-2
 3071 036a 64       		.byte	100
 3072 036b 19       		.byte	25
 3073 036c FF       		.byte	-1
 3074 036d 000000   		.space	3
 3075              		.type	u8x8_d_st75256_jlx256160_flip0_seq, %object
 3076              		.size	u8x8_d_st75256_jlx256160_flip0_seq, 13
 3077              	u8x8_d_st75256_jlx256160_flip0_seq:
 3078 0370 18       		.byte	24
 3079 0371 15       		.byte	21
 3080 0372 30       		.byte	48
 3081 0373 15       		.byte	21
 3082 0374 BC       		.byte	-68
 3083 0375 16       		.byte	22
 3084 0376 00       		.byte	0
 3085 0377 16       		.byte	22
 3086 0378 A6       		.byte	-90
 3087 0379 15       		.byte	21
 3088 037a 0C       		.byte	12
 3089 037b 19       		.byte	25
 3090 037c FF       		.byte	-1
 3091 037d 000000   		.space	3
 3092              		.type	u8x8_d_st75256_jlx256160_flip1_seq, %object
 3093              		.size	u8x8_d_st75256_jlx256160_flip1_seq, 13
 3094              	u8x8_d_st75256_jlx256160_flip1_seq:
 3095 0380 18       		.byte	24
 3096 0381 15       		.byte	21
 3097 0382 30       		.byte	48
 3098 0383 15       		.byte	21
 3099 0384 BC       		.byte	-68
 3100 0385 16       		.byte	22
 3101 0386 03       		.byte	3
 3102 0387 16       		.byte	22
 3103 0388 A6       		.byte	-90
 3104 0389 15       		.byte	21
 3105 038a 08       		.byte	8
 3106 038b 19       		.byte	25
 3107 038c FF       		.byte	-1
 3108 038d 000000   		.space	3
 3109              		.type	u8x8_d_st75256_256x160m_init_seq, %object
 3110              		.size	u8x8_d_st75256_256x160m_init_seq, 105
 3111              	u8x8_d_st75256_256x160m_init_seq:
 3112 0390 18       		.byte	24
 3113 0391 FE       		.byte	-2
 3114 0392 14       		.byte	20
 3115 0393 15       		.byte	21
 3116 0394 30       		.byte	48
 3117 0395 15       		.byte	21
 3118 0396 94       		.byte	-108
 3119 0397 15       		.byte	21
 3120 0398 AE       		.byte	-82
 3121 0399 15       		.byte	21
 3122 039a 31       		.byte	49
 3123 039b 15       		.byte	21
 3124 039c D7       		.byte	-41
 3125 039d 16       		.byte	22
 3126 039e 9F       		.byte	-97
ARM GAS  C:\Users\brian\AppData\Local\Temp\cckfkOf3.s 			page 88


 3127 039f 15       		.byte	21
 3128 03a0 32       		.byte	50
 3129 03a1 16       		.byte	22
 3130 03a2 00       		.byte	0
 3131 03a3 16       		.byte	22
 3132 03a4 01       		.byte	1
 3133 03a5 16       		.byte	22
 3134 03a6 00       		.byte	0
 3135 03a7 15       		.byte	21
 3136 03a8 20       		.byte	32
 3137 03a9 16       		.byte	22
 3138 03aa 01       		.byte	1
 3139 03ab 16       		.byte	22
 3140 03ac 03       		.byte	3
 3141 03ad 16       		.byte	22
 3142 03ae 05       		.byte	5
 3143 03af 16       		.byte	22
 3144 03b0 07       		.byte	7
 3145 03b1 16       		.byte	22
 3146 03b2 09       		.byte	9
 3147 03b3 16       		.byte	22
 3148 03b4 0B       		.byte	11
 3149 03b5 16       		.byte	22
 3150 03b6 0D       		.byte	13
 3151 03b7 16       		.byte	22
 3152 03b8 10       		.byte	16
 3153 03b9 16       		.byte	22
 3154 03ba 11       		.byte	17
 3155 03bb 16       		.byte	22
 3156 03bc 13       		.byte	19
 3157 03bd 16       		.byte	22
 3158 03be 15       		.byte	21
 3159 03bf 16       		.byte	22
 3160 03c0 17       		.byte	23
 3161 03c1 16       		.byte	22
 3162 03c2 19       		.byte	25
 3163 03c3 16       		.byte	22
 3164 03c4 1B       		.byte	27
 3165 03c5 16       		.byte	22
 3166 03c6 1D       		.byte	29
 3167 03c7 16       		.byte	22
 3168 03c8 1F       		.byte	31
 3169 03c9 15       		.byte	21
 3170 03ca 30       		.byte	48
 3171 03cb 15       		.byte	21
 3172 03cc 75       		.byte	117
 3173 03cd 16       		.byte	22
 3174 03ce 00       		.byte	0
 3175 03cf 16       		.byte	22
 3176 03d0 28       		.byte	40
 3177 03d1 15       		.byte	21
 3178 03d2 15       		.byte	21
 3179 03d3 16       		.byte	22
 3180 03d4 00       		.byte	0
 3181 03d5 16       		.byte	22
 3182 03d6 FF       		.byte	-1
 3183 03d7 15       		.byte	21
ARM GAS  C:\Users\brian\AppData\Local\Temp\cckfkOf3.s 			page 89


 3184 03d8 BC       		.byte	-68
 3185 03d9 16       		.byte	22
 3186 03da 02       		.byte	2
 3187 03db 16       		.byte	22
 3188 03dc A6       		.byte	-90
 3189 03dd 15       		.byte	21
 3190 03de 0C       		.byte	12
 3191 03df 15       		.byte	21
 3192 03e0 CA       		.byte	-54
 3193 03e1 16       		.byte	22
 3194 03e2 00       		.byte	0
 3195 03e3 16       		.byte	22
 3196 03e4 9F       		.byte	-97
 3197 03e5 16       		.byte	22
 3198 03e6 20       		.byte	32
 3199 03e7 15       		.byte	21
 3200 03e8 F0       		.byte	-16
 3201 03e9 16       		.byte	22
 3202 03ea 10       		.byte	16
 3203 03eb 15       		.byte	21
 3204 03ec 81       		.byte	-127
 3205 03ed 16       		.byte	22
 3206 03ee 18       		.byte	24
 3207 03ef 16       		.byte	22
 3208 03f0 05       		.byte	5
 3209 03f1 15       		.byte	21
 3210 03f2 20       		.byte	32
 3211 03f3 16       		.byte	22
 3212 03f4 0B       		.byte	11
 3213 03f5 FE       		.byte	-2
 3214 03f6 64       		.byte	100
 3215 03f7 19       		.byte	25
 3216 03f8 FF       		.byte	-1
 3217 03f9 000000   		.space	3
 3218              		.type	u8x8_st75256_256x160_alt_display_info, %object
 3219              		.size	u8x8_st75256_256x160_alt_display_info, 24
 3220              	u8x8_st75256_256x160_alt_display_info:
 3221 03fc 00       		.byte	0
 3222 03fd 01       		.byte	1
 3223 03fe 14       		.byte	20
 3224 03ff 14       		.byte	20
 3225 0400 05       		.byte	5
 3226 0401 05       		.byte	5
 3227 0402 14       		.byte	20
 3228 0403 28       		.byte	40
 3229 0404 00093D00 		.word	4000000
 3230 0408 00       		.byte	0
 3231 0409 04       		.byte	4
 3232 040a 0F       		.byte	15
 3233 040b 46       		.byte	70
 3234 040c 20       		.byte	32
 3235 040d 14       		.byte	20
 3236 040e 00       		.byte	0
 3237 040f 00       		.byte	0
 3238 0410 0001     		.short	256
 3239 0412 A000     		.short	160
 3240              		.type	u8x8_d_st75256_256x160_alt_init_seq, %object
ARM GAS  C:\Users\brian\AppData\Local\Temp\cckfkOf3.s 			page 90


 3241              		.size	u8x8_d_st75256_256x160_alt_init_seq, 105
 3242              	u8x8_d_st75256_256x160_alt_init_seq:
 3243 0414 18       		.byte	24
 3244 0415 FE       		.byte	-2
 3245 0416 14       		.byte	20
 3246 0417 15       		.byte	21
 3247 0418 30       		.byte	48
 3248 0419 15       		.byte	21
 3249 041a 94       		.byte	-108
 3250 041b 15       		.byte	21
 3251 041c AE       		.byte	-82
 3252 041d 15       		.byte	21
 3253 041e 31       		.byte	49
 3254 041f 15       		.byte	21
 3255 0420 D7       		.byte	-41
 3256 0421 16       		.byte	22
 3257 0422 9F       		.byte	-97
 3258 0423 15       		.byte	21
 3259 0424 32       		.byte	50
 3260 0425 16       		.byte	22
 3261 0426 00       		.byte	0
 3262 0427 16       		.byte	22
 3263 0428 01       		.byte	1
 3264 0429 16       		.byte	22
 3265 042a 00       		.byte	0
 3266 042b 15       		.byte	21
 3267 042c 20       		.byte	32
 3268 042d 16       		.byte	22
 3269 042e 01       		.byte	1
 3270 042f 16       		.byte	22
 3271 0430 03       		.byte	3
 3272 0431 16       		.byte	22
 3273 0432 05       		.byte	5
 3274 0433 16       		.byte	22
 3275 0434 07       		.byte	7
 3276 0435 16       		.byte	22
 3277 0436 09       		.byte	9
 3278 0437 16       		.byte	22
 3279 0438 0B       		.byte	11
 3280 0439 16       		.byte	22
 3281 043a 0D       		.byte	13
 3282 043b 16       		.byte	22
 3283 043c 10       		.byte	16
 3284 043d 16       		.byte	22
 3285 043e 11       		.byte	17
 3286 043f 16       		.byte	22
 3287 0440 13       		.byte	19
 3288 0441 16       		.byte	22
 3289 0442 15       		.byte	21
 3290 0443 16       		.byte	22
 3291 0444 17       		.byte	23
 3292 0445 16       		.byte	22
 3293 0446 19       		.byte	25
 3294 0447 16       		.byte	22
 3295 0448 1B       		.byte	27
 3296 0449 16       		.byte	22
 3297 044a 1D       		.byte	29
ARM GAS  C:\Users\brian\AppData\Local\Temp\cckfkOf3.s 			page 91


 3298 044b 16       		.byte	22
 3299 044c 1F       		.byte	31
 3300 044d 15       		.byte	21
 3301 044e 30       		.byte	48
 3302 044f 15       		.byte	21
 3303 0450 75       		.byte	117
 3304 0451 16       		.byte	22
 3305 0452 00       		.byte	0
 3306 0453 16       		.byte	22
 3307 0454 4F       		.byte	79
 3308 0455 15       		.byte	21
 3309 0456 15       		.byte	21
 3310 0457 16       		.byte	22
 3311 0458 00       		.byte	0
 3312 0459 16       		.byte	22
 3313 045a FF       		.byte	-1
 3314 045b 15       		.byte	21
 3315 045c BC       		.byte	-68
 3316 045d 16       		.byte	22
 3317 045e 02       		.byte	2
 3318 045f 16       		.byte	22
 3319 0460 A6       		.byte	-90
 3320 0461 15       		.byte	21
 3321 0462 0C       		.byte	12
 3322 0463 15       		.byte	21
 3323 0464 CA       		.byte	-54
 3324 0465 16       		.byte	22
 3325 0466 00       		.byte	0
 3326 0467 16       		.byte	22
 3327 0468 9F       		.byte	-97
 3328 0469 16       		.byte	22
 3329 046a 20       		.byte	32
 3330 046b 15       		.byte	21
 3331 046c F0       		.byte	-16
 3332 046d 16       		.byte	22
 3333 046e 10       		.byte	16
 3334 046f 15       		.byte	21
 3335 0470 81       		.byte	-127
 3336 0471 16       		.byte	22
 3337 0472 18       		.byte	24
 3338 0473 16       		.byte	22
 3339 0474 05       		.byte	5
 3340 0475 15       		.byte	21
 3341 0476 20       		.byte	32
 3342 0477 16       		.byte	22
 3343 0478 0B       		.byte	11
 3344 0479 FE       		.byte	-2
 3345 047a 64       		.byte	100
 3346 047b 19       		.byte	25
 3347 047c FF       		.byte	-1
 3348 047d 000000   		.space	3
 3349              		.type	u8x8_st75256_192x96_display_info, %object
 3350              		.size	u8x8_st75256_192x96_display_info, 24
 3351              	u8x8_st75256_192x96_display_info:
 3352 0480 00       		.byte	0
 3353 0481 01       		.byte	1
 3354 0482 14       		.byte	20
ARM GAS  C:\Users\brian\AppData\Local\Temp\cckfkOf3.s 			page 92


 3355 0483 14       		.byte	20
 3356 0484 05       		.byte	5
 3357 0485 05       		.byte	5
 3358 0486 14       		.byte	20
 3359 0487 28       		.byte	40
 3360 0488 00093D00 		.word	4000000
 3361 048c 00       		.byte	0
 3362 048d 04       		.byte	4
 3363 048e 0F       		.byte	15
 3364 048f 46       		.byte	70
 3365 0490 18       		.byte	24
 3366 0491 0C       		.byte	12
 3367 0492 00       		.byte	0
 3368 0493 40       		.byte	64
 3369 0494 C000     		.short	192
 3370 0496 6000     		.short	96
 3371              		.type	u8x8_d_st75256_jlx19296_init_seq, %object
 3372              		.size	u8x8_d_st75256_jlx19296_init_seq, 105
 3373              	u8x8_d_st75256_jlx19296_init_seq:
 3374 0498 18       		.byte	24
 3375 0499 FE       		.byte	-2
 3376 049a 14       		.byte	20
 3377 049b 15       		.byte	21
 3378 049c 30       		.byte	48
 3379 049d 15       		.byte	21
 3380 049e 94       		.byte	-108
 3381 049f 15       		.byte	21
 3382 04a0 AE       		.byte	-82
 3383 04a1 15       		.byte	21
 3384 04a2 31       		.byte	49
 3385 04a3 15       		.byte	21
 3386 04a4 D7       		.byte	-41
 3387 04a5 16       		.byte	22
 3388 04a6 9F       		.byte	-97
 3389 04a7 15       		.byte	21
 3390 04a8 32       		.byte	50
 3391 04a9 16       		.byte	22
 3392 04aa 00       		.byte	0
 3393 04ab 16       		.byte	22
 3394 04ac 01       		.byte	1
 3395 04ad 16       		.byte	22
 3396 04ae 03       		.byte	3
 3397 04af 15       		.byte	21
 3398 04b0 20       		.byte	32
 3399 04b1 16       		.byte	22
 3400 04b2 01       		.byte	1
 3401 04b3 16       		.byte	22
 3402 04b4 03       		.byte	3
 3403 04b5 16       		.byte	22
 3404 04b6 05       		.byte	5
 3405 04b7 16       		.byte	22
 3406 04b8 07       		.byte	7
 3407 04b9 16       		.byte	22
 3408 04ba 09       		.byte	9
 3409 04bb 16       		.byte	22
 3410 04bc 0B       		.byte	11
 3411 04bd 16       		.byte	22
ARM GAS  C:\Users\brian\AppData\Local\Temp\cckfkOf3.s 			page 93


 3412 04be 0D       		.byte	13
 3413 04bf 16       		.byte	22
 3414 04c0 10       		.byte	16
 3415 04c1 16       		.byte	22
 3416 04c2 11       		.byte	17
 3417 04c3 16       		.byte	22
 3418 04c4 13       		.byte	19
 3419 04c5 16       		.byte	22
 3420 04c6 15       		.byte	21
 3421 04c7 16       		.byte	22
 3422 04c8 17       		.byte	23
 3423 04c9 16       		.byte	22
 3424 04ca 19       		.byte	25
 3425 04cb 16       		.byte	22
 3426 04cc 1B       		.byte	27
 3427 04cd 16       		.byte	22
 3428 04ce 1D       		.byte	29
 3429 04cf 16       		.byte	22
 3430 04d0 1F       		.byte	31
 3431 04d1 15       		.byte	21
 3432 04d2 30       		.byte	48
 3433 04d3 15       		.byte	21
 3434 04d4 75       		.byte	117
 3435 04d5 16       		.byte	22
 3436 04d6 00       		.byte	0
 3437 04d7 16       		.byte	22
 3438 04d8 4F       		.byte	79
 3439 04d9 15       		.byte	21
 3440 04da 15       		.byte	21
 3441 04db 16       		.byte	22
 3442 04dc 00       		.byte	0
 3443 04dd 16       		.byte	22
 3444 04de FF       		.byte	-1
 3445 04df 15       		.byte	21
 3446 04e0 BC       		.byte	-68
 3447 04e1 16       		.byte	22
 3448 04e2 00       		.byte	0
 3449 04e3 16       		.byte	22
 3450 04e4 A6       		.byte	-90
 3451 04e5 15       		.byte	21
 3452 04e6 0C       		.byte	12
 3453 04e7 15       		.byte	21
 3454 04e8 CA       		.byte	-54
 3455 04e9 16       		.byte	22
 3456 04ea 00       		.byte	0
 3457 04eb 16       		.byte	22
 3458 04ec 9F       		.byte	-97
 3459 04ed 16       		.byte	22
 3460 04ee 20       		.byte	32
 3461 04ef 15       		.byte	21
 3462 04f0 F0       		.byte	-16
 3463 04f1 16       		.byte	22
 3464 04f2 10       		.byte	16
 3465 04f3 15       		.byte	21
 3466 04f4 81       		.byte	-127
 3467 04f5 16       		.byte	22
 3468 04f6 2E       		.byte	46
ARM GAS  C:\Users\brian\AppData\Local\Temp\cckfkOf3.s 			page 94


 3469 04f7 16       		.byte	22
 3470 04f8 03       		.byte	3
 3471 04f9 15       		.byte	21
 3472 04fa 20       		.byte	32
 3473 04fb 16       		.byte	22
 3474 04fc 0B       		.byte	11
 3475 04fd FE       		.byte	-2
 3476 04fe 64       		.byte	100
 3477 04ff 19       		.byte	25
 3478 0500 FF       		.byte	-1
 3479              		.text
 3480              	.Letext0:
 3481              		.file 2 "c:\\program files (x86)\\cypress\\psoc creator\\4.4\\psoc creator\\import\\gnu\\arm\\5.4.
 3482              		.file 3 "c:\\program files (x86)\\cypress\\psoc creator\\4.4\\psoc creator\\import\\gnu\\arm\\5.4.
 3483              		.file 4 "..\\u8g2\\csrc\\u8x8.h"
 3484              		.section	.debug_info,"",%progbits
 3485              	.Ldebug_info0:
 3486 0000 791C0000 		.4byte	0x1c79
 3487 0004 0400     		.2byte	0x4
 3488 0006 00000000 		.4byte	.Ldebug_abbrev0
 3489 000a 04       		.byte	0x4
 3490 000b 01       		.uleb128 0x1
 3491 000c 66060000 		.4byte	.LASF111
 3492 0010 0C       		.byte	0xc
 3493 0011 AF040000 		.4byte	.LASF112
 3494 0015 A0050000 		.4byte	.LASF113
 3495 0019 00000000 		.4byte	.Ldebug_ranges0+0
 3496 001d 00000000 		.4byte	0
 3497 0021 00000000 		.4byte	.Ldebug_line0
 3498 0025 02       		.uleb128 0x2
 3499 0026 01       		.byte	0x1
 3500 0027 06       		.byte	0x6
 3501 0028 DF000000 		.4byte	.LASF0
 3502 002c 03       		.uleb128 0x3
 3503 002d 52000000 		.4byte	.LASF3
 3504 0031 02       		.byte	0x2
 3505 0032 1D       		.byte	0x1d
 3506 0033 37000000 		.4byte	0x37
 3507 0037 02       		.uleb128 0x2
 3508 0038 01       		.byte	0x1
 3509 0039 08       		.byte	0x8
 3510 003a 28060000 		.4byte	.LASF1
 3511 003e 02       		.uleb128 0x2
 3512 003f 02       		.byte	0x2
 3513 0040 05       		.byte	0x5
 3514 0041 36060000 		.4byte	.LASF2
 3515 0045 03       		.uleb128 0x3
 3516 0046 91070000 		.4byte	.LASF4
 3517 004a 02       		.byte	0x2
 3518 004b 2B       		.byte	0x2b
 3519 004c 50000000 		.4byte	0x50
 3520 0050 02       		.uleb128 0x2
 3521 0051 02       		.byte	0x2
 3522 0052 07       		.byte	0x7
 3523 0053 8E030000 		.4byte	.LASF5
 3524 0057 02       		.uleb128 0x2
 3525 0058 04       		.byte	0x4
ARM GAS  C:\Users\brian\AppData\Local\Temp\cckfkOf3.s 			page 95


 3526 0059 05       		.byte	0x5
 3527 005a 24010000 		.4byte	.LASF6
 3528 005e 03       		.uleb128 0x3
 3529 005f 3C020000 		.4byte	.LASF7
 3530 0063 02       		.byte	0x2
 3531 0064 41       		.byte	0x41
 3532 0065 69000000 		.4byte	0x69
 3533 0069 02       		.uleb128 0x2
 3534 006a 04       		.byte	0x4
 3535 006b 07       		.byte	0x7
 3536 006c E9020000 		.4byte	.LASF8
 3537 0070 02       		.uleb128 0x2
 3538 0071 08       		.byte	0x8
 3539 0072 05       		.byte	0x5
 3540 0073 D1000000 		.4byte	.LASF9
 3541 0077 02       		.uleb128 0x2
 3542 0078 08       		.byte	0x8
 3543 0079 07       		.byte	0x7
 3544 007a 75000000 		.4byte	.LASF10
 3545 007e 04       		.uleb128 0x4
 3546 007f 04       		.byte	0x4
 3547 0080 05       		.byte	0x5
 3548 0081 696E7400 		.ascii	"int\000"
 3549 0085 02       		.uleb128 0x2
 3550 0086 04       		.byte	0x4
 3551 0087 07       		.byte	0x7
 3552 0088 C8020000 		.4byte	.LASF11
 3553 008c 03       		.uleb128 0x3
 3554 008d CB080000 		.4byte	.LASF12
 3555 0091 03       		.byte	0x3
 3556 0092 18       		.byte	0x18
 3557 0093 2C000000 		.4byte	0x2c
 3558 0097 03       		.uleb128 0x3
 3559 0098 BF010000 		.4byte	.LASF13
 3560 009c 03       		.byte	0x3
 3561 009d 24       		.byte	0x24
 3562 009e 45000000 		.4byte	0x45
 3563 00a2 03       		.uleb128 0x3
 3564 00a3 4D070000 		.4byte	.LASF14
 3565 00a7 03       		.byte	0x3
 3566 00a8 30       		.byte	0x30
 3567 00a9 5E000000 		.4byte	0x5e
 3568 00ad 05       		.uleb128 0x5
 3569 00ae 04       		.byte	0x4
 3570 00af 02       		.uleb128 0x2
 3571 00b0 08       		.byte	0x8
 3572 00b1 04       		.byte	0x4
 3573 00b2 A3040000 		.4byte	.LASF15
 3574 00b6 03       		.uleb128 0x3
 3575 00b7 EB070000 		.4byte	.LASF16
 3576 00bb 04       		.byte	0x4
 3577 00bc CD       		.byte	0xcd
 3578 00bd C1000000 		.4byte	0xc1
 3579 00c1 06       		.uleb128 0x6
 3580 00c2 1D040000 		.4byte	.LASF37
 3581 00c6 2C       		.byte	0x2c
 3582 00c7 04       		.byte	0x4
ARM GAS  C:\Users\brian\AppData\Local\Temp\cckfkOf3.s 			page 96


 3583 00c8 5001     		.2byte	0x150
 3584 00ca C6010000 		.4byte	0x1c6
 3585 00ce 07       		.uleb128 0x7
 3586 00cf FD030000 		.4byte	.LASF17
 3587 00d3 04       		.byte	0x4
 3588 00d4 5201     		.2byte	0x152
 3589 00d6 74030000 		.4byte	0x374
 3590 00da 00       		.byte	0
 3591 00db 07       		.uleb128 0x7
 3592 00dc C8010000 		.4byte	.LASF18
 3593 00e0 04       		.byte	0x4
 3594 00e1 5301     		.2byte	0x153
 3595 00e3 49030000 		.4byte	0x349
 3596 00e7 04       		.byte	0x4
 3597 00e8 07       		.uleb128 0x7
 3598 00e9 00010000 		.4byte	.LASF19
 3599 00ed 04       		.byte	0x4
 3600 00ee 5401     		.2byte	0x154
 3601 00f0 14030000 		.4byte	0x314
 3602 00f4 08       		.byte	0x8
 3603 00f5 07       		.uleb128 0x7
 3604 00f6 F0040000 		.4byte	.LASF20
 3605 00fa 04       		.byte	0x4
 3606 00fb 5501     		.2byte	0x155
 3607 00fd 14030000 		.4byte	0x314
 3608 0101 0C       		.byte	0xc
 3609 0102 07       		.uleb128 0x7
 3610 0103 5C000000 		.4byte	.LASF21
 3611 0107 04       		.byte	0x4
 3612 0108 5601     		.2byte	0x156
 3613 010a 14030000 		.4byte	0x314
 3614 010e 10       		.byte	0x10
 3615 010f 07       		.uleb128 0x7
 3616 0110 DD010000 		.4byte	.LASF22
 3617 0114 04       		.byte	0x4
 3618 0115 5701     		.2byte	0x157
 3619 0117 14030000 		.4byte	0x314
 3620 011b 14       		.byte	0x14
 3621 011c 07       		.uleb128 0x7
 3622 011d F2070000 		.4byte	.LASF23
 3623 0121 04       		.byte	0x4
 3624 0122 5801     		.2byte	0x158
 3625 0124 A2000000 		.4byte	0xa2
 3626 0128 18       		.byte	0x18
 3627 0129 07       		.uleb128 0x7
 3628 012a A3080000 		.4byte	.LASF24
 3629 012e 04       		.byte	0x4
 3630 012f 5901     		.2byte	0x159
 3631 0131 7F030000 		.4byte	0x37f
 3632 0135 1C       		.byte	0x1c
 3633 0136 07       		.uleb128 0x7
 3634 0137 5C040000 		.4byte	.LASF25
 3635 013b 04       		.byte	0x4
 3636 013c 5A01     		.2byte	0x15a
 3637 013e 97000000 		.4byte	0x97
 3638 0142 20       		.byte	0x20
 3639 0143 07       		.uleb128 0x7
ARM GAS  C:\Users\brian\AppData\Local\Temp\cckfkOf3.s 			page 97


 3640 0144 48050000 		.4byte	.LASF26
 3641 0148 04       		.byte	0x4
 3642 0149 5B01     		.2byte	0x15b
 3643 014b 8C000000 		.4byte	0x8c
 3644 014f 22       		.byte	0x22
 3645 0150 07       		.uleb128 0x7
 3646 0151 EB000000 		.4byte	.LASF27
 3647 0155 04       		.byte	0x4
 3648 0156 5C01     		.2byte	0x15c
 3649 0158 8C000000 		.4byte	0x8c
 3650 015c 23       		.byte	0x23
 3651 015d 07       		.uleb128 0x7
 3652 015e DD020000 		.4byte	.LASF28
 3653 0162 04       		.byte	0x4
 3654 0163 5D01     		.2byte	0x15d
 3655 0165 8C000000 		.4byte	0x8c
 3656 0169 24       		.byte	0x24
 3657 016a 07       		.uleb128 0x7
 3658 016b D3080000 		.4byte	.LASF29
 3659 016f 04       		.byte	0x4
 3660 0170 6001     		.2byte	0x160
 3661 0172 8C000000 		.4byte	0x8c
 3662 0176 25       		.byte	0x25
 3663 0177 07       		.uleb128 0x7
 3664 0178 BA000000 		.4byte	.LASF30
 3665 017c 04       		.byte	0x4
 3666 017d 6201     		.2byte	0x162
 3667 017f 8C000000 		.4byte	0x8c
 3668 0183 26       		.byte	0x26
 3669 0184 07       		.uleb128 0x7
 3670 0185 C5000000 		.4byte	.LASF31
 3671 0189 04       		.byte	0x4
 3672 018a 6301     		.2byte	0x163
 3673 018c 8C000000 		.4byte	0x8c
 3674 0190 27       		.byte	0x27
 3675 0191 07       		.uleb128 0x7
 3676 0192 F6080000 		.4byte	.LASF32
 3677 0196 04       		.byte	0x4
 3678 0197 6401     		.2byte	0x164
 3679 0199 8C000000 		.4byte	0x8c
 3680 019d 28       		.byte	0x28
 3681 019e 07       		.uleb128 0x7
 3682 019f A1030000 		.4byte	.LASF33
 3683 01a3 04       		.byte	0x4
 3684 01a4 6501     		.2byte	0x165
 3685 01a6 8C000000 		.4byte	0x8c
 3686 01aa 29       		.byte	0x29
 3687 01ab 07       		.uleb128 0x7
 3688 01ac 5F080000 		.4byte	.LASF34
 3689 01b0 04       		.byte	0x4
 3690 01b1 6601     		.2byte	0x166
 3691 01b3 8C000000 		.4byte	0x8c
 3692 01b7 2A       		.byte	0x2a
 3693 01b8 07       		.uleb128 0x7
 3694 01b9 B4020000 		.4byte	.LASF35
 3695 01bd 04       		.byte	0x4
 3696 01be 6701     		.2byte	0x167
ARM GAS  C:\Users\brian\AppData\Local\Temp\cckfkOf3.s 			page 98


 3697 01c0 8C000000 		.4byte	0x8c
 3698 01c4 2B       		.byte	0x2b
 3699 01c5 00       		.byte	0
 3700 01c6 03       		.uleb128 0x3
 3701 01c7 28020000 		.4byte	.LASF36
 3702 01cb 04       		.byte	0x4
 3703 01cc CE       		.byte	0xce
 3704 01cd D1010000 		.4byte	0x1d1
 3705 01d1 08       		.uleb128 0x8
 3706 01d2 47090000 		.4byte	.LASF38
 3707 01d6 18       		.byte	0x18
 3708 01d7 04       		.byte	0x4
 3709 01d8 E7       		.byte	0xe7
 3710 01d9 CC020000 		.4byte	0x2cc
 3711 01dd 09       		.uleb128 0x9
 3712 01de 76070000 		.4byte	.LASF39
 3713 01e2 04       		.byte	0x4
 3714 01e3 EB       		.byte	0xeb
 3715 01e4 8C000000 		.4byte	0x8c
 3716 01e8 00       		.byte	0
 3717 01e9 09       		.uleb128 0x9
 3718 01ea 90080000 		.4byte	.LASF40
 3719 01ee 04       		.byte	0x4
 3720 01ef EC       		.byte	0xec
 3721 01f0 8C000000 		.4byte	0x8c
 3722 01f4 01       		.byte	0x1
 3723 01f5 09       		.uleb128 0x9
 3724 01f6 D2070000 		.4byte	.LASF41
 3725 01fa 04       		.byte	0x4
 3726 01fb EE       		.byte	0xee
 3727 01fc 8C000000 		.4byte	0x8c
 3728 0200 02       		.byte	0x2
 3729 0201 09       		.uleb128 0x9
 3730 0202 0B010000 		.4byte	.LASF42
 3731 0206 04       		.byte	0x4
 3732 0207 EF       		.byte	0xef
 3733 0208 8C000000 		.4byte	0x8c
 3734 020c 03       		.byte	0x3
 3735 020d 09       		.uleb128 0x9
 3736 020e 3D000000 		.4byte	.LASF43
 3737 0212 04       		.byte	0x4
 3738 0213 F0       		.byte	0xf0
 3739 0214 8C000000 		.4byte	0x8c
 3740 0218 04       		.byte	0x4
 3741 0219 09       		.uleb128 0x9
 3742 021a A7000000 		.4byte	.LASF44
 3743 021e 04       		.byte	0x4
 3744 021f F1       		.byte	0xf1
 3745 0220 8C000000 		.4byte	0x8c
 3746 0224 05       		.byte	0x5
 3747 0225 09       		.uleb128 0x9
 3748 0226 47020000 		.4byte	.LASF45
 3749 022a 04       		.byte	0x4
 3750 022b F8       		.byte	0xf8
 3751 022c 8C000000 		.4byte	0x8c
 3752 0230 06       		.byte	0x6
 3753 0231 09       		.uleb128 0x9
ARM GAS  C:\Users\brian\AppData\Local\Temp\cckfkOf3.s 			page 99


 3754 0232 0A040000 		.4byte	.LASF46
 3755 0236 04       		.byte	0x4
 3756 0237 FC       		.byte	0xfc
 3757 0238 8C000000 		.4byte	0x8c
 3758 023c 07       		.byte	0x7
 3759 023d 09       		.uleb128 0x9
 3760 023e A0090000 		.4byte	.LASF47
 3761 0242 04       		.byte	0x4
 3762 0243 FF       		.byte	0xff
 3763 0244 A2000000 		.4byte	0xa2
 3764 0248 08       		.byte	0x8
 3765 0249 07       		.uleb128 0x7
 3766 024a 6D070000 		.4byte	.LASF48
 3767 024e 04       		.byte	0x4
 3768 024f 0901     		.2byte	0x109
 3769 0251 8C000000 		.4byte	0x8c
 3770 0255 0C       		.byte	0xc
 3771 0256 07       		.uleb128 0x7
 3772 0257 38070000 		.4byte	.LASF49
 3773 025b 04       		.byte	0x4
 3774 025c 0C01     		.2byte	0x10c
 3775 025e 8C000000 		.4byte	0x8c
 3776 0262 0D       		.byte	0xd
 3777 0263 07       		.uleb128 0x7
 3778 0264 0D070000 		.4byte	.LASF50
 3779 0268 04       		.byte	0x4
 3780 0269 1201     		.2byte	0x112
 3781 026b 8C000000 		.4byte	0x8c
 3782 026f 0E       		.byte	0xe
 3783 0270 07       		.uleb128 0x7
 3784 0271 33050000 		.4byte	.LASF51
 3785 0275 04       		.byte	0x4
 3786 0276 1401     		.2byte	0x114
 3787 0278 8C000000 		.4byte	0x8c
 3788 027c 0F       		.byte	0xf
 3789 027d 07       		.uleb128 0x7
 3790 027e EB080000 		.4byte	.LASF52
 3791 0282 04       		.byte	0x4
 3792 0283 1701     		.2byte	0x117
 3793 0285 8C000000 		.4byte	0x8c
 3794 0289 10       		.byte	0x10
 3795 028a 07       		.uleb128 0x7
 3796 028b 94050000 		.4byte	.LASF53
 3797 028f 04       		.byte	0x4
 3798 0290 1801     		.2byte	0x118
 3799 0292 8C000000 		.4byte	0x8c
 3800 0296 11       		.byte	0x11
 3801 0297 07       		.uleb128 0x7
 3802 0298 4B040000 		.4byte	.LASF54
 3803 029c 04       		.byte	0x4
 3804 029d 1A01     		.2byte	0x11a
 3805 029f 8C000000 		.4byte	0x8c
 3806 02a3 12       		.byte	0x12
 3807 02a4 07       		.uleb128 0x7
 3808 02a5 65040000 		.4byte	.LASF55
 3809 02a9 04       		.byte	0x4
 3810 02aa 1B01     		.2byte	0x11b
ARM GAS  C:\Users\brian\AppData\Local\Temp\cckfkOf3.s 			page 100


 3811 02ac 8C000000 		.4byte	0x8c
 3812 02b0 13       		.byte	0x13
 3813 02b1 07       		.uleb128 0x7
 3814 02b2 DF080000 		.4byte	.LASF56
 3815 02b6 04       		.byte	0x4
 3816 02b7 2301     		.2byte	0x123
 3817 02b9 97000000 		.4byte	0x97
 3818 02bd 14       		.byte	0x14
 3819 02be 07       		.uleb128 0x7
 3820 02bf 93090000 		.4byte	.LASF57
 3821 02c3 04       		.byte	0x4
 3822 02c4 2401     		.2byte	0x124
 3823 02c6 97000000 		.4byte	0x97
 3824 02ca 16       		.byte	0x16
 3825 02cb 00       		.byte	0
 3826 02cc 03       		.uleb128 0x3
 3827 02cd A8020000 		.4byte	.LASF58
 3828 02d1 04       		.byte	0x4
 3829 02d2 CF       		.byte	0xcf
 3830 02d3 D7020000 		.4byte	0x2d7
 3831 02d7 08       		.uleb128 0x8
 3832 02d8 64000000 		.4byte	.LASF59
 3833 02dc 08       		.byte	0x8
 3834 02dd 04       		.byte	0x4
 3835 02de DE       		.byte	0xde
 3836 02df 14030000 		.4byte	0x314
 3837 02e3 09       		.uleb128 0x9
 3838 02e4 88070000 		.4byte	.LASF60
 3839 02e8 04       		.byte	0x4
 3840 02e9 E0       		.byte	0xe0
 3841 02ea 6E030000 		.4byte	0x36e
 3842 02ee 00       		.byte	0
 3843 02ef 0A       		.uleb128 0xa
 3844 02f0 636E7400 		.ascii	"cnt\000"
 3845 02f4 04       		.byte	0x4
 3846 02f5 E1       		.byte	0xe1
 3847 02f6 8C000000 		.4byte	0x8c
 3848 02fa 04       		.byte	0x4
 3849 02fb 09       		.uleb128 0x9
 3850 02fc 7C020000 		.4byte	.LASF61
 3851 0300 04       		.byte	0x4
 3852 0301 E2       		.byte	0xe2
 3853 0302 8C000000 		.4byte	0x8c
 3854 0306 05       		.byte	0x5
 3855 0307 09       		.uleb128 0x9
 3856 0308 11090000 		.4byte	.LASF62
 3857 030c 04       		.byte	0x4
 3858 030d E3       		.byte	0xe3
 3859 030e 8C000000 		.4byte	0x8c
 3860 0312 06       		.byte	0x6
 3861 0313 00       		.byte	0
 3862 0314 03       		.uleb128 0x3
 3863 0315 1C060000 		.4byte	.LASF63
 3864 0319 04       		.byte	0x4
 3865 031a D1       		.byte	0xd1
 3866 031b 1F030000 		.4byte	0x31f
 3867 031f 0B       		.uleb128 0xb
ARM GAS  C:\Users\brian\AppData\Local\Temp\cckfkOf3.s 			page 101


 3868 0320 04       		.byte	0x4
 3869 0321 25030000 		.4byte	0x325
 3870 0325 0C       		.uleb128 0xc
 3871 0326 8C000000 		.4byte	0x8c
 3872 032a 43030000 		.4byte	0x343
 3873 032e 0D       		.uleb128 0xd
 3874 032f 43030000 		.4byte	0x343
 3875 0333 0D       		.uleb128 0xd
 3876 0334 8C000000 		.4byte	0x8c
 3877 0338 0D       		.uleb128 0xd
 3878 0339 8C000000 		.4byte	0x8c
 3879 033d 0D       		.uleb128 0xd
 3880 033e AD000000 		.4byte	0xad
 3881 0342 00       		.byte	0
 3882 0343 0B       		.uleb128 0xb
 3883 0344 04       		.byte	0x4
 3884 0345 B6000000 		.4byte	0xb6
 3885 0349 03       		.uleb128 0x3
 3886 034a D0010000 		.4byte	.LASF64
 3887 034e 04       		.byte	0x4
 3888 034f D2       		.byte	0xd2
 3889 0350 54030000 		.4byte	0x354
 3890 0354 0B       		.uleb128 0xb
 3891 0355 04       		.byte	0x4
 3892 0356 5A030000 		.4byte	0x35a
 3893 035a 0C       		.uleb128 0xc
 3894 035b 97000000 		.4byte	0x97
 3895 035f 6E030000 		.4byte	0x36e
 3896 0363 0D       		.uleb128 0xd
 3897 0364 43030000 		.4byte	0x343
 3898 0368 0D       		.uleb128 0xd
 3899 0369 8C000000 		.4byte	0x8c
 3900 036d 00       		.byte	0
 3901 036e 0B       		.uleb128 0xb
 3902 036f 04       		.byte	0x4
 3903 0370 8C000000 		.4byte	0x8c
 3904 0374 0B       		.uleb128 0xb
 3905 0375 04       		.byte	0x4
 3906 0376 7A030000 		.4byte	0x37a
 3907 037a 0E       		.uleb128 0xe
 3908 037b C6010000 		.4byte	0x1c6
 3909 037f 0B       		.uleb128 0xb
 3910 0380 04       		.byte	0x4
 3911 0381 85030000 		.4byte	0x385
 3912 0385 0E       		.uleb128 0xe
 3913 0386 8C000000 		.4byte	0x8c
 3914 038a 0F       		.uleb128 0xf
 3915 038b 40080000 		.4byte	.LASF114
 3916 038f 01       		.byte	0x1
 3917 0390 9D       		.byte	0x9d
 3918 0391 8C000000 		.4byte	0x8c
 3919 0395 00000000 		.4byte	.LFB0
 3920 0399 08010000 		.4byte	.LFE0-.LFB0
 3921 039d 01       		.uleb128 0x1
 3922 039e 9C       		.byte	0x9c
 3923 039f F0050000 		.4byte	0x5f0
 3924 03a3 10       		.uleb128 0x10
ARM GAS  C:\Users\brian\AppData\Local\Temp\cckfkOf3.s 			page 102


 3925 03a4 40060000 		.4byte	.LASF65
 3926 03a8 01       		.byte	0x1
 3927 03a9 9D       		.byte	0x9d
 3928 03aa 43030000 		.4byte	0x343
 3929 03ae 00000000 		.4byte	.LLST0
 3930 03b2 11       		.uleb128 0x11
 3931 03b3 6D736700 		.ascii	"msg\000"
 3932 03b7 01       		.byte	0x1
 3933 03b8 9D       		.byte	0x9d
 3934 03b9 8C000000 		.4byte	0x8c
 3935 03bd 84000000 		.4byte	.LLST1
 3936 03c1 10       		.uleb128 0x10
 3937 03c2 D5020000 		.4byte	.LASF66
 3938 03c6 01       		.byte	0x1
 3939 03c7 9D       		.byte	0x9d
 3940 03c8 8C000000 		.4byte	0x8c
 3941 03cc FB000000 		.4byte	.LLST2
 3942 03d0 10       		.uleb128 0x10
 3943 03d1 88080000 		.4byte	.LASF67
 3944 03d5 01       		.byte	0x1
 3945 03d6 9D       		.byte	0x9d
 3946 03d7 AD000000 		.4byte	0xad
 3947 03db 88010000 		.4byte	.LLST3
 3948 03df 12       		.uleb128 0x12
 3949 03e0 7800     		.ascii	"x\000"
 3950 03e2 01       		.byte	0x1
 3951 03e3 9F       		.byte	0x9f
 3952 03e4 8C000000 		.4byte	0x8c
 3953 03e8 F6010000 		.4byte	.LLST4
 3954 03ec 12       		.uleb128 0x12
 3955 03ed 6300     		.ascii	"c\000"
 3956 03ef 01       		.byte	0x1
 3957 03f0 9F       		.byte	0x9f
 3958 03f1 8C000000 		.4byte	0x8c
 3959 03f5 20020000 		.4byte	.LLST5
 3960 03f9 12       		.uleb128 0x12
 3961 03fa 70747200 		.ascii	"ptr\000"
 3962 03fe 01       		.byte	0x1
 3963 03ff A0       		.byte	0xa0
 3964 0400 6E030000 		.4byte	0x36e
 3965 0404 4B020000 		.4byte	.LLST6
 3966 0408 13       		.uleb128 0x13
 3967 0409 1E000000 		.4byte	.LVL2
 3968 040d 1C1C0000 		.4byte	0x1c1c
 3969 0411 25040000 		.4byte	0x425
 3970 0415 14       		.uleb128 0x14
 3971 0416 01       		.uleb128 0x1
 3972 0417 50       		.byte	0x50
 3973 0418 02       		.uleb128 0x2
 3974 0419 76       		.byte	0x76
 3975 041a 00       		.sleb128 0
 3976 041b 14       		.uleb128 0x14
 3977 041c 01       		.uleb128 0x1
 3978 041d 51       		.byte	0x51
 3979 041e 05       		.uleb128 0x5
 3980 041f 03       		.byte	0x3
 3981 0420 00000000 		.4byte	.LANCHOR0
ARM GAS  C:\Users\brian\AppData\Local\Temp\cckfkOf3.s 			page 103


 3982 0424 00       		.byte	0
 3983 0425 13       		.uleb128 0x13
 3984 0426 2A000000 		.4byte	.LVL5
 3985 042a 1C1C0000 		.4byte	0x1c1c
 3986 042e 3C040000 		.4byte	0x43c
 3987 0432 14       		.uleb128 0x14
 3988 0433 01       		.uleb128 0x1
 3989 0434 51       		.byte	0x51
 3990 0435 05       		.uleb128 0x5
 3991 0436 03       		.byte	0x3
 3992 0437 0C000000 		.4byte	.LANCHOR0+12
 3993 043b 00       		.byte	0
 3994 043c 15       		.uleb128 0x15
 3995 043d 34000000 		.4byte	.LVL7
 3996 0441 281C0000 		.4byte	0x1c28
 3997 0445 13       		.uleb128 0x13
 3998 0446 3C000000 		.4byte	.LVL8
 3999 044a 341C0000 		.4byte	0x1c34
 4000 044e 5F040000 		.4byte	0x45f
 4001 0452 14       		.uleb128 0x14
 4002 0453 01       		.uleb128 0x1
 4003 0454 50       		.byte	0x50
 4004 0455 02       		.uleb128 0x2
 4005 0456 76       		.byte	0x76
 4006 0457 00       		.sleb128 0
 4007 0458 14       		.uleb128 0x14
 4008 0459 01       		.uleb128 0x1
 4009 045a 51       		.byte	0x51
 4010 045b 02       		.uleb128 0x2
 4011 045c 08       		.byte	0x8
 4012 045d 30       		.byte	0x30
 4013 045e 00       		.byte	0
 4014 045f 13       		.uleb128 0x13
 4015 0460 44000000 		.4byte	.LVL9
 4016 0464 341C0000 		.4byte	0x1c34
 4017 0468 79040000 		.4byte	0x479
 4018 046c 14       		.uleb128 0x14
 4019 046d 01       		.uleb128 0x1
 4020 046e 50       		.byte	0x50
 4021 046f 02       		.uleb128 0x2
 4022 0470 76       		.byte	0x76
 4023 0471 00       		.sleb128 0
 4024 0472 14       		.uleb128 0x14
 4025 0473 01       		.uleb128 0x1
 4026 0474 51       		.byte	0x51
 4027 0475 02       		.uleb128 0x2
 4028 0476 09       		.byte	0x9
 4029 0477 81       		.byte	0x81
 4030 0478 00       		.byte	0
 4031 0479 13       		.uleb128 0x13
 4032 047a 50000000 		.4byte	.LVL10
 4033 047e 401C0000 		.4byte	0x1c40
 4034 0482 98040000 		.4byte	0x498
 4035 0486 14       		.uleb128 0x14
 4036 0487 01       		.uleb128 0x1
 4037 0488 50       		.byte	0x50
 4038 0489 02       		.uleb128 0x2
ARM GAS  C:\Users\brian\AppData\Local\Temp\cckfkOf3.s 			page 104


 4039 048a 76       		.byte	0x76
 4040 048b 00       		.sleb128 0
 4041 048c 14       		.uleb128 0x14
 4042 048d 01       		.uleb128 0x1
 4043 048e 51       		.byte	0x51
 4044 048f 07       		.uleb128 0x7
 4045 0490 75       		.byte	0x75
 4046 0491 00       		.sleb128 0
 4047 0492 31       		.byte	0x31
 4048 0493 24       		.byte	0x24
 4049 0494 08       		.byte	0x8
 4050 0495 3E       		.byte	0x3e
 4051 0496 1A       		.byte	0x1a
 4052 0497 00       		.byte	0
 4053 0498 13       		.uleb128 0x13
 4054 0499 58000000 		.4byte	.LVL11
 4055 049d 401C0000 		.4byte	0x1c40
 4056 04a1 B4040000 		.4byte	0x4b4
 4057 04a5 14       		.uleb128 0x14
 4058 04a6 01       		.uleb128 0x1
 4059 04a7 50       		.byte	0x50
 4060 04a8 02       		.uleb128 0x2
 4061 04a9 76       		.byte	0x76
 4062 04aa 00       		.sleb128 0
 4063 04ab 14       		.uleb128 0x14
 4064 04ac 01       		.uleb128 0x1
 4065 04ad 51       		.byte	0x51
 4066 04ae 04       		.uleb128 0x4
 4067 04af 75       		.byte	0x75
 4068 04b0 00       		.sleb128 0
 4069 04b1 35       		.byte	0x35
 4070 04b2 25       		.byte	0x25
 4071 04b3 00       		.byte	0
 4072 04b4 13       		.uleb128 0x13
 4073 04b5 5E000000 		.4byte	.LVL12
 4074 04b9 4C1C0000 		.4byte	0x1c4c
 4075 04bd C8040000 		.4byte	0x4c8
 4076 04c1 14       		.uleb128 0x14
 4077 04c2 01       		.uleb128 0x1
 4078 04c3 50       		.byte	0x50
 4079 04c4 02       		.uleb128 0x2
 4080 04c5 76       		.byte	0x76
 4081 04c6 00       		.sleb128 0
 4082 04c7 00       		.byte	0
 4083 04c8 15       		.uleb128 0x15
 4084 04c9 68000000 		.4byte	.LVL14
 4085 04cd 281C0000 		.4byte	0x1c28
 4086 04d1 13       		.uleb128 0x13
 4087 04d2 78000000 		.4byte	.LVL18
 4088 04d6 341C0000 		.4byte	0x1c34
 4089 04da EB040000 		.4byte	0x4eb
 4090 04de 14       		.uleb128 0x14
 4091 04df 01       		.uleb128 0x1
 4092 04e0 50       		.byte	0x50
 4093 04e1 02       		.uleb128 0x2
 4094 04e2 76       		.byte	0x76
 4095 04e3 00       		.sleb128 0
ARM GAS  C:\Users\brian\AppData\Local\Temp\cckfkOf3.s 			page 105


 4096 04e4 14       		.uleb128 0x14
 4097 04e5 01       		.uleb128 0x1
 4098 04e6 51       		.byte	0x51
 4099 04e7 02       		.uleb128 0x2
 4100 04e8 08       		.byte	0x8
 4101 04e9 30       		.byte	0x30
 4102 04ea 00       		.byte	0
 4103 04eb 13       		.uleb128 0x13
 4104 04ec 80000000 		.4byte	.LVL19
 4105 04f0 341C0000 		.4byte	0x1c34
 4106 04f4 05050000 		.4byte	0x505
 4107 04f8 14       		.uleb128 0x14
 4108 04f9 01       		.uleb128 0x1
 4109 04fa 50       		.byte	0x50
 4110 04fb 02       		.uleb128 0x2
 4111 04fc 76       		.byte	0x76
 4112 04fd 00       		.sleb128 0
 4113 04fe 14       		.uleb128 0x14
 4114 04ff 01       		.uleb128 0x1
 4115 0500 51       		.byte	0x51
 4116 0501 02       		.uleb128 0x2
 4117 0502 08       		.byte	0x8
 4118 0503 75       		.byte	0x75
 4119 0504 00       		.byte	0
 4120 0505 13       		.uleb128 0x13
 4121 0506 92000000 		.4byte	.LVL20
 4122 050a 401C0000 		.4byte	0x1c40
 4123 050e 19050000 		.4byte	0x519
 4124 0512 14       		.uleb128 0x14
 4125 0513 01       		.uleb128 0x1
 4126 0514 50       		.byte	0x50
 4127 0515 02       		.uleb128 0x2
 4128 0516 76       		.byte	0x76
 4129 0517 00       		.sleb128 0
 4130 0518 00       		.byte	0
 4131 0519 13       		.uleb128 0x13
 4132 051a 9A000000 		.4byte	.LVL21
 4133 051e 401C0000 		.4byte	0x1c40
 4134 0522 33050000 		.4byte	0x533
 4135 0526 14       		.uleb128 0x14
 4136 0527 01       		.uleb128 0x1
 4137 0528 50       		.byte	0x50
 4138 0529 02       		.uleb128 0x2
 4139 052a 76       		.byte	0x76
 4140 052b 00       		.sleb128 0
 4141 052c 14       		.uleb128 0x14
 4142 052d 01       		.uleb128 0x1
 4143 052e 51       		.byte	0x51
 4144 052f 02       		.uleb128 0x2
 4145 0530 08       		.byte	0x8
 4146 0531 4F       		.byte	0x4f
 4147 0532 00       		.byte	0
 4148 0533 13       		.uleb128 0x13
 4149 0534 A2000000 		.4byte	.LVL22
 4150 0538 341C0000 		.4byte	0x1c34
 4151 053c 4C050000 		.4byte	0x54c
 4152 0540 14       		.uleb128 0x14
ARM GAS  C:\Users\brian\AppData\Local\Temp\cckfkOf3.s 			page 106


 4153 0541 01       		.uleb128 0x1
 4154 0542 50       		.byte	0x50
 4155 0543 02       		.uleb128 0x2
 4156 0544 76       		.byte	0x76
 4157 0545 00       		.sleb128 0
 4158 0546 14       		.uleb128 0x14
 4159 0547 01       		.uleb128 0x1
 4160 0548 51       		.byte	0x51
 4161 0549 01       		.uleb128 0x1
 4162 054a 45       		.byte	0x45
 4163 054b 00       		.byte	0
 4164 054c 13       		.uleb128 0x13
 4165 054d AA000000 		.4byte	.LVL23
 4166 0551 401C0000 		.4byte	0x1c40
 4167 0555 66050000 		.4byte	0x566
 4168 0559 14       		.uleb128 0x14
 4169 055a 01       		.uleb128 0x1
 4170 055b 50       		.byte	0x50
 4171 055c 02       		.uleb128 0x2
 4172 055d 76       		.byte	0x76
 4173 055e 00       		.sleb128 0
 4174 055f 14       		.uleb128 0x14
 4175 0560 01       		.uleb128 0x1
 4176 0561 51       		.byte	0x51
 4177 0562 02       		.uleb128 0x2
 4178 0563 74       		.byte	0x74
 4179 0564 00       		.sleb128 0
 4180 0565 00       		.byte	0
 4181 0566 13       		.uleb128 0x13
 4182 0567 B2000000 		.4byte	.LVL24
 4183 056b 401C0000 		.4byte	0x1c40
 4184 056f 80050000 		.4byte	0x580
 4185 0573 14       		.uleb128 0x14
 4186 0574 01       		.uleb128 0x1
 4187 0575 50       		.byte	0x50
 4188 0576 02       		.uleb128 0x2
 4189 0577 76       		.byte	0x76
 4190 0578 00       		.sleb128 0
 4191 0579 14       		.uleb128 0x14
 4192 057a 01       		.uleb128 0x1
 4193 057b 51       		.byte	0x51
 4194 057c 02       		.uleb128 0x2
 4195 057d 09       		.byte	0x9
 4196 057e FF       		.byte	0xff
 4197 057f 00       		.byte	0
 4198 0580 13       		.uleb128 0x13
 4199 0581 BA000000 		.4byte	.LVL25
 4200 0585 341C0000 		.4byte	0x1c34
 4201 0589 9A050000 		.4byte	0x59a
 4202 058d 14       		.uleb128 0x14
 4203 058e 01       		.uleb128 0x1
 4204 058f 50       		.byte	0x50
 4205 0590 02       		.uleb128 0x2
 4206 0591 76       		.byte	0x76
 4207 0592 00       		.sleb128 0
 4208 0593 14       		.uleb128 0x14
 4209 0594 01       		.uleb128 0x1
ARM GAS  C:\Users\brian\AppData\Local\Temp\cckfkOf3.s 			page 107


 4210 0595 51       		.byte	0x51
 4211 0596 02       		.uleb128 0x2
 4212 0597 08       		.byte	0x8
 4213 0598 5C       		.byte	0x5c
 4214 0599 00       		.byte	0
 4215 059a 13       		.uleb128 0x13
 4216 059b D0000000 		.4byte	.LVL28
 4217 059f 581C0000 		.4byte	0x1c58
 4218 05a3 BA050000 		.4byte	0x5ba
 4219 05a7 14       		.uleb128 0x14
 4220 05a8 01       		.uleb128 0x1
 4221 05a9 50       		.byte	0x50
 4222 05aa 02       		.uleb128 0x2
 4223 05ab 76       		.byte	0x76
 4224 05ac 00       		.sleb128 0
 4225 05ad 14       		.uleb128 0x14
 4226 05ae 01       		.uleb128 0x1
 4227 05af 51       		.byte	0x51
 4228 05b0 02       		.uleb128 0x2
 4229 05b1 09       		.byte	0x9
 4230 05b2 F8       		.byte	0xf8
 4231 05b3 14       		.uleb128 0x14
 4232 05b4 01       		.uleb128 0x1
 4233 05b5 52       		.byte	0x52
 4234 05b6 02       		.uleb128 0x2
 4235 05b7 77       		.byte	0x77
 4236 05b8 00       		.sleb128 0
 4237 05b9 00       		.byte	0
 4238 05ba 13       		.uleb128 0x13
 4239 05bb E4000000 		.4byte	.LVL32
 4240 05bf 581C0000 		.4byte	0x1c58
 4241 05c3 DF050000 		.4byte	0x5df
 4242 05c7 14       		.uleb128 0x14
 4243 05c8 01       		.uleb128 0x1
 4244 05c9 50       		.byte	0x50
 4245 05ca 02       		.uleb128 0x2
 4246 05cb 76       		.byte	0x76
 4247 05cc 00       		.sleb128 0
 4248 05cd 14       		.uleb128 0x14
 4249 05ce 01       		.uleb128 0x1
 4250 05cf 51       		.byte	0x51
 4251 05d0 07       		.uleb128 0x7
 4252 05d1 74       		.byte	0x74
 4253 05d2 00       		.sleb128 0
 4254 05d3 33       		.byte	0x33
 4255 05d4 24       		.byte	0x24
 4256 05d5 08       		.byte	0x8
 4257 05d6 F8       		.byte	0xf8
 4258 05d7 1A       		.byte	0x1a
 4259 05d8 14       		.uleb128 0x14
 4260 05d9 01       		.uleb128 0x1
 4261 05da 52       		.byte	0x52
 4262 05db 02       		.uleb128 0x2
 4263 05dc 77       		.byte	0x77
 4264 05dd 00       		.sleb128 0
 4265 05de 00       		.byte	0
 4266 05df 16       		.uleb128 0x16
ARM GAS  C:\Users\brian\AppData\Local\Temp\cckfkOf3.s 			page 108


 4267 05e0 F2000000 		.4byte	.LVL34
 4268 05e4 4C1C0000 		.4byte	0x1c4c
 4269 05e8 14       		.uleb128 0x14
 4270 05e9 01       		.uleb128 0x1
 4271 05ea 50       		.byte	0x50
 4272 05eb 02       		.uleb128 0x2
 4273 05ec 76       		.byte	0x76
 4274 05ed 00       		.sleb128 0
 4275 05ee 00       		.byte	0
 4276 05ef 00       		.byte	0
 4277 05f0 17       		.uleb128 0x17
 4278 05f1 F4060000 		.4byte	.LASF68
 4279 05f5 01       		.byte	0x1
 4280 05f6 4E01     		.2byte	0x14e
 4281 05f8 8C000000 		.4byte	0x8c
 4282 05fc 00000000 		.4byte	.LFB1
 4283 0600 7C000000 		.4byte	.LFE1-.LFB1
 4284 0604 01       		.uleb128 0x1
 4285 0605 9C       		.byte	0x9c
 4286 0606 F6060000 		.4byte	0x6f6
 4287 060a 18       		.uleb128 0x18
 4288 060b 40060000 		.4byte	.LASF65
 4289 060f 01       		.byte	0x1
 4290 0610 4E01     		.2byte	0x14e
 4291 0612 43030000 		.4byte	0x343
 4292 0616 5E020000 		.4byte	.LLST7
 4293 061a 19       		.uleb128 0x19
 4294 061b 6D736700 		.ascii	"msg\000"
 4295 061f 01       		.byte	0x1
 4296 0620 4E01     		.2byte	0x14e
 4297 0622 8C000000 		.4byte	0x8c
 4298 0626 8A020000 		.4byte	.LLST8
 4299 062a 18       		.uleb128 0x18
 4300 062b D5020000 		.4byte	.LASF66
 4301 062f 01       		.byte	0x1
 4302 0630 4E01     		.2byte	0x14e
 4303 0632 8C000000 		.4byte	0x8c
 4304 0636 AB020000 		.4byte	.LLST9
 4305 063a 18       		.uleb128 0x18
 4306 063b 88080000 		.4byte	.LASF67
 4307 063f 01       		.byte	0x1
 4308 0640 4E01     		.2byte	0x14e
 4309 0642 AD000000 		.4byte	0xad
 4310 0646 CC020000 		.4byte	.LLST10
 4311 064a 13       		.uleb128 0x13
 4312 064b 0C000000 		.4byte	.LVL39
 4313 064f 8A030000 		.4byte	0x38a
 4314 0653 71060000 		.4byte	0x671
 4315 0657 14       		.uleb128 0x14
 4316 0658 01       		.uleb128 0x1
 4317 0659 50       		.byte	0x50
 4318 065a 02       		.uleb128 0x2
 4319 065b 75       		.byte	0x75
 4320 065c 00       		.sleb128 0
 4321 065d 14       		.uleb128 0x14
 4322 065e 01       		.uleb128 0x1
 4323 065f 51       		.byte	0x51
ARM GAS  C:\Users\brian\AppData\Local\Temp\cckfkOf3.s 			page 109


 4324 0660 02       		.uleb128 0x2
 4325 0661 74       		.byte	0x74
 4326 0662 00       		.sleb128 0
 4327 0663 14       		.uleb128 0x14
 4328 0664 01       		.uleb128 0x1
 4329 0665 52       		.byte	0x52
 4330 0666 02       		.uleb128 0x2
 4331 0667 76       		.byte	0x76
 4332 0668 00       		.sleb128 0
 4333 0669 14       		.uleb128 0x14
 4334 066a 01       		.uleb128 0x1
 4335 066b 53       		.byte	0x53
 4336 066c 03       		.uleb128 0x3
 4337 066d F3       		.byte	0xf3
 4338 066e 01       		.uleb128 0x1
 4339 066f 53       		.byte	0x53
 4340 0670 00       		.byte	0
 4341 0671 13       		.uleb128 0x13
 4342 0672 1C000000 		.4byte	.LVL40
 4343 0676 641C0000 		.4byte	0x1c64
 4344 067a 8E060000 		.4byte	0x68e
 4345 067e 14       		.uleb128 0x14
 4346 067f 01       		.uleb128 0x1
 4347 0680 50       		.byte	0x50
 4348 0681 02       		.uleb128 0x2
 4349 0682 75       		.byte	0x75
 4350 0683 00       		.sleb128 0
 4351 0684 14       		.uleb128 0x14
 4352 0685 01       		.uleb128 0x1
 4353 0686 51       		.byte	0x51
 4354 0687 05       		.uleb128 0x5
 4355 0688 03       		.byte	0x3
 4356 0689 18000000 		.4byte	.LANCHOR0+24
 4357 068d 00       		.byte	0
 4358 068e 13       		.uleb128 0x13
 4359 068f 2A000000 		.4byte	.LVL41
 4360 0693 701C0000 		.4byte	0x1c70
 4361 0697 A2060000 		.4byte	0x6a2
 4362 069b 14       		.uleb128 0x14
 4363 069c 01       		.uleb128 0x1
 4364 069d 50       		.byte	0x50
 4365 069e 02       		.uleb128 0x2
 4366 069f 75       		.byte	0x75
 4367 06a0 00       		.sleb128 0
 4368 06a1 00       		.byte	0
 4369 06a2 13       		.uleb128 0x13
 4370 06a3 32000000 		.4byte	.LVL42
 4371 06a7 1C1C0000 		.4byte	0x1c1c
 4372 06ab BF060000 		.4byte	0x6bf
 4373 06af 14       		.uleb128 0x14
 4374 06b0 01       		.uleb128 0x1
 4375 06b1 50       		.byte	0x50
 4376 06b2 02       		.uleb128 0x2
 4377 06b3 75       		.byte	0x75
 4378 06b4 00       		.sleb128 0
 4379 06b5 14       		.uleb128 0x14
 4380 06b6 01       		.uleb128 0x1
ARM GAS  C:\Users\brian\AppData\Local\Temp\cckfkOf3.s 			page 110


 4381 06b7 51       		.byte	0x51
 4382 06b8 05       		.uleb128 0x5
 4383 06b9 03       		.byte	0x3
 4384 06ba 30000000 		.4byte	.LANCHOR0+48
 4385 06be 00       		.byte	0
 4386 06bf 13       		.uleb128 0x13
 4387 06c0 44000000 		.4byte	.LVL43
 4388 06c4 1C1C0000 		.4byte	0x1c1c
 4389 06c8 DC060000 		.4byte	0x6dc
 4390 06cc 14       		.uleb128 0x14
 4391 06cd 01       		.uleb128 0x1
 4392 06ce 50       		.byte	0x50
 4393 06cf 02       		.uleb128 0x2
 4394 06d0 75       		.byte	0x75
 4395 06d1 00       		.sleb128 0
 4396 06d2 14       		.uleb128 0x14
 4397 06d3 01       		.uleb128 0x1
 4398 06d4 51       		.byte	0x51
 4399 06d5 05       		.uleb128 0x5
 4400 06d6 03       		.byte	0x3
 4401 06d7 9C000000 		.4byte	.LANCHOR0+156
 4402 06db 00       		.byte	0
 4403 06dc 16       		.uleb128 0x16
 4404 06dd 58000000 		.4byte	.LVL44
 4405 06e1 1C1C0000 		.4byte	0x1c1c
 4406 06e5 14       		.uleb128 0x14
 4407 06e6 01       		.uleb128 0x1
 4408 06e7 50       		.byte	0x50
 4409 06e8 02       		.uleb128 0x2
 4410 06e9 75       		.byte	0x75
 4411 06ea 00       		.sleb128 0
 4412 06eb 14       		.uleb128 0x14
 4413 06ec 01       		.uleb128 0x1
 4414 06ed 51       		.byte	0x51
 4415 06ee 05       		.uleb128 0x5
 4416 06ef 03       		.byte	0x3
 4417 06f0 AC000000 		.4byte	.LANCHOR0+172
 4418 06f4 00       		.byte	0
 4419 06f5 00       		.byte	0
 4420 06f6 17       		.uleb128 0x17
 4421 06f7 F7040000 		.4byte	.LASF69
 4422 06fb 01       		.byte	0x1
 4423 06fc D501     		.2byte	0x1d5
 4424 06fe 8C000000 		.4byte	0x8c
 4425 0702 00000000 		.4byte	.LFB2
 4426 0706 7C000000 		.4byte	.LFE2-.LFB2
 4427 070a 01       		.uleb128 0x1
 4428 070b 9C       		.byte	0x9c
 4429 070c FC070000 		.4byte	0x7fc
 4430 0710 18       		.uleb128 0x18
 4431 0711 40060000 		.4byte	.LASF65
 4432 0715 01       		.byte	0x1
 4433 0716 D501     		.2byte	0x1d5
 4434 0718 43030000 		.4byte	0x343
 4435 071c ED020000 		.4byte	.LLST11
 4436 0720 19       		.uleb128 0x19
 4437 0721 6D736700 		.ascii	"msg\000"
ARM GAS  C:\Users\brian\AppData\Local\Temp\cckfkOf3.s 			page 111


 4438 0725 01       		.byte	0x1
 4439 0726 D501     		.2byte	0x1d5
 4440 0728 8C000000 		.4byte	0x8c
 4441 072c 19030000 		.4byte	.LLST12
 4442 0730 18       		.uleb128 0x18
 4443 0731 D5020000 		.4byte	.LASF66
 4444 0735 01       		.byte	0x1
 4445 0736 D501     		.2byte	0x1d5
 4446 0738 8C000000 		.4byte	0x8c
 4447 073c 3A030000 		.4byte	.LLST13
 4448 0740 18       		.uleb128 0x18
 4449 0741 88080000 		.4byte	.LASF67
 4450 0745 01       		.byte	0x1
 4451 0746 D501     		.2byte	0x1d5
 4452 0748 AD000000 		.4byte	0xad
 4453 074c 5B030000 		.4byte	.LLST14
 4454 0750 13       		.uleb128 0x13
 4455 0751 0C000000 		.4byte	.LVL47
 4456 0755 8A030000 		.4byte	0x38a
 4457 0759 77070000 		.4byte	0x777
 4458 075d 14       		.uleb128 0x14
 4459 075e 01       		.uleb128 0x1
 4460 075f 50       		.byte	0x50
 4461 0760 02       		.uleb128 0x2
 4462 0761 75       		.byte	0x75
 4463 0762 00       		.sleb128 0
 4464 0763 14       		.uleb128 0x14
 4465 0764 01       		.uleb128 0x1
 4466 0765 51       		.byte	0x51
 4467 0766 02       		.uleb128 0x2
 4468 0767 74       		.byte	0x74
 4469 0768 00       		.sleb128 0
 4470 0769 14       		.uleb128 0x14
 4471 076a 01       		.uleb128 0x1
 4472 076b 52       		.byte	0x52
 4473 076c 02       		.uleb128 0x2
 4474 076d 76       		.byte	0x76
 4475 076e 00       		.sleb128 0
 4476 076f 14       		.uleb128 0x14
 4477 0770 01       		.uleb128 0x1
 4478 0771 53       		.byte	0x53
 4479 0772 03       		.uleb128 0x3
 4480 0773 F3       		.byte	0xf3
 4481 0774 01       		.uleb128 0x1
 4482 0775 53       		.byte	0x53
 4483 0776 00       		.byte	0
 4484 0777 13       		.uleb128 0x13
 4485 0778 1C000000 		.4byte	.LVL48
 4486 077c 641C0000 		.4byte	0x1c64
 4487 0780 94070000 		.4byte	0x794
 4488 0784 14       		.uleb128 0x14
 4489 0785 01       		.uleb128 0x1
 4490 0786 50       		.byte	0x50
 4491 0787 02       		.uleb128 0x2
 4492 0788 75       		.byte	0x75
 4493 0789 00       		.sleb128 0
 4494 078a 14       		.uleb128 0x14
ARM GAS  C:\Users\brian\AppData\Local\Temp\cckfkOf3.s 			page 112


 4495 078b 01       		.uleb128 0x1
 4496 078c 51       		.byte	0x51
 4497 078d 05       		.uleb128 0x5
 4498 078e 03       		.byte	0x3
 4499 078f BC000000 		.4byte	.LANCHOR0+188
 4500 0793 00       		.byte	0
 4501 0794 13       		.uleb128 0x13
 4502 0795 2A000000 		.4byte	.LVL49
 4503 0799 701C0000 		.4byte	0x1c70
 4504 079d A8070000 		.4byte	0x7a8
 4505 07a1 14       		.uleb128 0x14
 4506 07a2 01       		.uleb128 0x1
 4507 07a3 50       		.byte	0x50
 4508 07a4 02       		.uleb128 0x2
 4509 07a5 75       		.byte	0x75
 4510 07a6 00       		.sleb128 0
 4511 07a7 00       		.byte	0
 4512 07a8 13       		.uleb128 0x13
 4513 07a9 32000000 		.4byte	.LVL50
 4514 07ad 1C1C0000 		.4byte	0x1c1c
 4515 07b1 C5070000 		.4byte	0x7c5
 4516 07b5 14       		.uleb128 0x14
 4517 07b6 01       		.uleb128 0x1
 4518 07b7 50       		.byte	0x50
 4519 07b8 02       		.uleb128 0x2
 4520 07b9 75       		.byte	0x75
 4521 07ba 00       		.sleb128 0
 4522 07bb 14       		.uleb128 0x14
 4523 07bc 01       		.uleb128 0x1
 4524 07bd 51       		.byte	0x51
 4525 07be 05       		.uleb128 0x5
 4526 07bf 03       		.byte	0x3
 4527 07c0 D4000000 		.4byte	.LANCHOR0+212
 4528 07c4 00       		.byte	0
 4529 07c5 13       		.uleb128 0x13
 4530 07c6 44000000 		.4byte	.LVL51
 4531 07ca 1C1C0000 		.4byte	0x1c1c
 4532 07ce E2070000 		.4byte	0x7e2
 4533 07d2 14       		.uleb128 0x14
 4534 07d3 01       		.uleb128 0x1
 4535 07d4 50       		.byte	0x50
 4536 07d5 02       		.uleb128 0x2
 4537 07d6 75       		.byte	0x75
 4538 07d7 00       		.sleb128 0
 4539 07d8 14       		.uleb128 0x14
 4540 07d9 01       		.uleb128 0x1
 4541 07da 51       		.byte	0x51
 4542 07db 05       		.uleb128 0x5
 4543 07dc 03       		.byte	0x3
 4544 07dd 40010000 		.4byte	.LANCHOR0+320
 4545 07e1 00       		.byte	0
 4546 07e2 16       		.uleb128 0x16
 4547 07e3 58000000 		.4byte	.LVL52
 4548 07e7 1C1C0000 		.4byte	0x1c1c
 4549 07eb 14       		.uleb128 0x14
 4550 07ec 01       		.uleb128 0x1
 4551 07ed 50       		.byte	0x50
ARM GAS  C:\Users\brian\AppData\Local\Temp\cckfkOf3.s 			page 113


 4552 07ee 02       		.uleb128 0x2
 4553 07ef 75       		.byte	0x75
 4554 07f0 00       		.sleb128 0
 4555 07f1 14       		.uleb128 0x14
 4556 07f2 01       		.uleb128 0x1
 4557 07f3 51       		.byte	0x51
 4558 07f4 05       		.uleb128 0x5
 4559 07f5 03       		.byte	0x3
 4560 07f6 50010000 		.4byte	.LANCHOR0+336
 4561 07fa 00       		.byte	0
 4562 07fb 00       		.byte	0
 4563 07fc 17       		.uleb128 0x17
 4564 07fd 21030000 		.4byte	.LASF70
 4565 0801 01       		.byte	0x1
 4566 0802 5B02     		.2byte	0x25b
 4567 0804 8C000000 		.4byte	0x8c
 4568 0808 00000000 		.4byte	.LFB3
 4569 080c 7C000000 		.4byte	.LFE3-.LFB3
 4570 0810 01       		.uleb128 0x1
 4571 0811 9C       		.byte	0x9c
 4572 0812 02090000 		.4byte	0x902
 4573 0816 18       		.uleb128 0x18
 4574 0817 40060000 		.4byte	.LASF65
 4575 081b 01       		.byte	0x1
 4576 081c 5B02     		.2byte	0x25b
 4577 081e 43030000 		.4byte	0x343
 4578 0822 7C030000 		.4byte	.LLST15
 4579 0826 19       		.uleb128 0x19
 4580 0827 6D736700 		.ascii	"msg\000"
 4581 082b 01       		.byte	0x1
 4582 082c 5B02     		.2byte	0x25b
 4583 082e 8C000000 		.4byte	0x8c
 4584 0832 A8030000 		.4byte	.LLST16
 4585 0836 18       		.uleb128 0x18
 4586 0837 D5020000 		.4byte	.LASF66
 4587 083b 01       		.byte	0x1
 4588 083c 5B02     		.2byte	0x25b
 4589 083e 8C000000 		.4byte	0x8c
 4590 0842 C9030000 		.4byte	.LLST17
 4591 0846 18       		.uleb128 0x18
 4592 0847 88080000 		.4byte	.LASF67
 4593 084b 01       		.byte	0x1
 4594 084c 5B02     		.2byte	0x25b
 4595 084e AD000000 		.4byte	0xad
 4596 0852 EA030000 		.4byte	.LLST18
 4597 0856 13       		.uleb128 0x13
 4598 0857 0C000000 		.4byte	.LVL55
 4599 085b 8A030000 		.4byte	0x38a
 4600 085f 7D080000 		.4byte	0x87d
 4601 0863 14       		.uleb128 0x14
 4602 0864 01       		.uleb128 0x1
 4603 0865 50       		.byte	0x50
 4604 0866 02       		.uleb128 0x2
 4605 0867 75       		.byte	0x75
 4606 0868 00       		.sleb128 0
 4607 0869 14       		.uleb128 0x14
 4608 086a 01       		.uleb128 0x1
ARM GAS  C:\Users\brian\AppData\Local\Temp\cckfkOf3.s 			page 114


 4609 086b 51       		.byte	0x51
 4610 086c 02       		.uleb128 0x2
 4611 086d 74       		.byte	0x74
 4612 086e 00       		.sleb128 0
 4613 086f 14       		.uleb128 0x14
 4614 0870 01       		.uleb128 0x1
 4615 0871 52       		.byte	0x52
 4616 0872 02       		.uleb128 0x2
 4617 0873 76       		.byte	0x76
 4618 0874 00       		.sleb128 0
 4619 0875 14       		.uleb128 0x14
 4620 0876 01       		.uleb128 0x1
 4621 0877 53       		.byte	0x53
 4622 0878 03       		.uleb128 0x3
 4623 0879 F3       		.byte	0xf3
 4624 087a 01       		.uleb128 0x1
 4625 087b 53       		.byte	0x53
 4626 087c 00       		.byte	0
 4627 087d 13       		.uleb128 0x13
 4628 087e 1C000000 		.4byte	.LVL56
 4629 0882 641C0000 		.4byte	0x1c64
 4630 0886 9A080000 		.4byte	0x89a
 4631 088a 14       		.uleb128 0x14
 4632 088b 01       		.uleb128 0x1
 4633 088c 50       		.byte	0x50
 4634 088d 02       		.uleb128 0x2
 4635 088e 75       		.byte	0x75
 4636 088f 00       		.sleb128 0
 4637 0890 14       		.uleb128 0x14
 4638 0891 01       		.uleb128 0x1
 4639 0892 51       		.byte	0x51
 4640 0893 05       		.uleb128 0x5
 4641 0894 03       		.byte	0x3
 4642 0895 60010000 		.4byte	.LANCHOR0+352
 4643 0899 00       		.byte	0
 4644 089a 13       		.uleb128 0x13
 4645 089b 2A000000 		.4byte	.LVL57
 4646 089f 701C0000 		.4byte	0x1c70
 4647 08a3 AE080000 		.4byte	0x8ae
 4648 08a7 14       		.uleb128 0x14
 4649 08a8 01       		.uleb128 0x1
 4650 08a9 50       		.byte	0x50
 4651 08aa 02       		.uleb128 0x2
 4652 08ab 75       		.byte	0x75
 4653 08ac 00       		.sleb128 0
 4654 08ad 00       		.byte	0
 4655 08ae 13       		.uleb128 0x13
 4656 08af 32000000 		.4byte	.LVL58
 4657 08b3 1C1C0000 		.4byte	0x1c1c
 4658 08b7 CB080000 		.4byte	0x8cb
 4659 08bb 14       		.uleb128 0x14
 4660 08bc 01       		.uleb128 0x1
 4661 08bd 50       		.byte	0x50
 4662 08be 02       		.uleb128 0x2
 4663 08bf 75       		.byte	0x75
 4664 08c0 00       		.sleb128 0
 4665 08c1 14       		.uleb128 0x14
ARM GAS  C:\Users\brian\AppData\Local\Temp\cckfkOf3.s 			page 115


 4666 08c2 01       		.uleb128 0x1
 4667 08c3 51       		.byte	0x51
 4668 08c4 05       		.uleb128 0x5
 4669 08c5 03       		.byte	0x3
 4670 08c6 78010000 		.4byte	.LANCHOR0+376
 4671 08ca 00       		.byte	0
 4672 08cb 13       		.uleb128 0x13
 4673 08cc 44000000 		.4byte	.LVL59
 4674 08d0 1C1C0000 		.4byte	0x1c1c
 4675 08d4 E8080000 		.4byte	0x8e8
 4676 08d8 14       		.uleb128 0x14
 4677 08d9 01       		.uleb128 0x1
 4678 08da 50       		.byte	0x50
 4679 08db 02       		.uleb128 0x2
 4680 08dc 75       		.byte	0x75
 4681 08dd 00       		.sleb128 0
 4682 08de 14       		.uleb128 0x14
 4683 08df 01       		.uleb128 0x1
 4684 08e0 51       		.byte	0x51
 4685 08e1 05       		.uleb128 0x5
 4686 08e2 03       		.byte	0x3
 4687 08e3 9C000000 		.4byte	.LANCHOR0+156
 4688 08e7 00       		.byte	0
 4689 08e8 16       		.uleb128 0x16
 4690 08e9 58000000 		.4byte	.LVL60
 4691 08ed 1C1C0000 		.4byte	0x1c1c
 4692 08f1 14       		.uleb128 0x14
 4693 08f2 01       		.uleb128 0x1
 4694 08f3 50       		.byte	0x50
 4695 08f4 02       		.uleb128 0x2
 4696 08f5 75       		.byte	0x75
 4697 08f6 00       		.sleb128 0
 4698 08f7 14       		.uleb128 0x14
 4699 08f8 01       		.uleb128 0x1
 4700 08f9 51       		.byte	0x51
 4701 08fa 05       		.uleb128 0x5
 4702 08fb 03       		.byte	0x3
 4703 08fc AC000000 		.4byte	.LANCHOR0+172
 4704 0900 00       		.byte	0
 4705 0901 00       		.byte	0
 4706 0902 17       		.uleb128 0x17
 4707 0903 24000000 		.4byte	.LASF71
 4708 0907 01       		.byte	0x1
 4709 0908 E002     		.2byte	0x2e0
 4710 090a 8C000000 		.4byte	0x8c
 4711 090e 00000000 		.4byte	.LFB4
 4712 0912 70010000 		.4byte	.LFE4-.LFB4
 4713 0916 01       		.uleb128 0x1
 4714 0917 9C       		.byte	0x9c
 4715 0918 B80B0000 		.4byte	0xbb8
 4716 091c 18       		.uleb128 0x18
 4717 091d 40060000 		.4byte	.LASF65
 4718 0921 01       		.byte	0x1
 4719 0922 E002     		.2byte	0x2e0
 4720 0924 43030000 		.4byte	0x343
 4721 0928 0B040000 		.4byte	.LLST19
 4722 092c 19       		.uleb128 0x19
ARM GAS  C:\Users\brian\AppData\Local\Temp\cckfkOf3.s 			page 116


 4723 092d 6D736700 		.ascii	"msg\000"
 4724 0931 01       		.byte	0x1
 4725 0932 E002     		.2byte	0x2e0
 4726 0934 8C000000 		.4byte	0x8c
 4727 0938 E7040000 		.4byte	.LLST20
 4728 093c 18       		.uleb128 0x18
 4729 093d D5020000 		.4byte	.LASF66
 4730 0941 01       		.byte	0x1
 4731 0942 E002     		.2byte	0x2e0
 4732 0944 8C000000 		.4byte	0x8c
 4733 0948 08050000 		.4byte	.LLST21
 4734 094c 18       		.uleb128 0x18
 4735 094d 88080000 		.4byte	.LASF67
 4736 0951 01       		.byte	0x1
 4737 0952 E002     		.2byte	0x2e0
 4738 0954 AD000000 		.4byte	0xad
 4739 0958 EE050000 		.4byte	.LLST22
 4740 095c 1A       		.uleb128 0x1a
 4741 095d 7800     		.ascii	"x\000"
 4742 095f 01       		.byte	0x1
 4743 0960 E202     		.2byte	0x2e2
 4744 0962 8C000000 		.4byte	0x8c
 4745 0966 1A060000 		.4byte	.LLST23
 4746 096a 1A       		.uleb128 0x1a
 4747 096b 6300     		.ascii	"c\000"
 4748 096d 01       		.byte	0x1
 4749 096e E202     		.2byte	0x2e2
 4750 0970 8C000000 		.4byte	0x8c
 4751 0974 44060000 		.4byte	.LLST24
 4752 0978 1A       		.uleb128 0x1a
 4753 0979 70747200 		.ascii	"ptr\000"
 4754 097d 01       		.byte	0x1
 4755 097e E302     		.2byte	0x2e3
 4756 0980 6E030000 		.4byte	0x36e
 4757 0984 86060000 		.4byte	.LLST25
 4758 0988 15       		.uleb128 0x15
 4759 0989 22000000 		.4byte	.LVL65
 4760 098d 281C0000 		.4byte	0x1c28
 4761 0991 13       		.uleb128 0x13
 4762 0992 32000000 		.4byte	.LVL69
 4763 0996 341C0000 		.4byte	0x1c34
 4764 099a AB090000 		.4byte	0x9ab
 4765 099e 14       		.uleb128 0x14
 4766 099f 01       		.uleb128 0x1
 4767 09a0 50       		.byte	0x50
 4768 09a1 02       		.uleb128 0x2
 4769 09a2 76       		.byte	0x76
 4770 09a3 00       		.sleb128 0
 4771 09a4 14       		.uleb128 0x14
 4772 09a5 01       		.uleb128 0x1
 4773 09a6 51       		.byte	0x51
 4774 09a7 02       		.uleb128 0x2
 4775 09a8 08       		.byte	0x8
 4776 09a9 30       		.byte	0x30
 4777 09aa 00       		.byte	0
 4778 09ab 13       		.uleb128 0x13
 4779 09ac 3A000000 		.4byte	.LVL70
ARM GAS  C:\Users\brian\AppData\Local\Temp\cckfkOf3.s 			page 117


 4780 09b0 341C0000 		.4byte	0x1c34
 4781 09b4 C5090000 		.4byte	0x9c5
 4782 09b8 14       		.uleb128 0x14
 4783 09b9 01       		.uleb128 0x1
 4784 09ba 50       		.byte	0x50
 4785 09bb 02       		.uleb128 0x2
 4786 09bc 76       		.byte	0x76
 4787 09bd 00       		.sleb128 0
 4788 09be 14       		.uleb128 0x14
 4789 09bf 01       		.uleb128 0x1
 4790 09c0 51       		.byte	0x51
 4791 09c1 02       		.uleb128 0x2
 4792 09c2 08       		.byte	0x8
 4793 09c3 75       		.byte	0x75
 4794 09c4 00       		.byte	0
 4795 09c5 13       		.uleb128 0x13
 4796 09c6 4C000000 		.4byte	.LVL71
 4797 09ca 401C0000 		.4byte	0x1c40
 4798 09ce D9090000 		.4byte	0x9d9
 4799 09d2 14       		.uleb128 0x14
 4800 09d3 01       		.uleb128 0x1
 4801 09d4 50       		.byte	0x50
 4802 09d5 02       		.uleb128 0x2
 4803 09d6 76       		.byte	0x76
 4804 09d7 00       		.sleb128 0
 4805 09d8 00       		.byte	0
 4806 09d9 13       		.uleb128 0x13
 4807 09da 56000000 		.4byte	.LVL72
 4808 09de 401C0000 		.4byte	0x1c40
 4809 09e2 ED090000 		.4byte	0x9ed
 4810 09e6 14       		.uleb128 0x14
 4811 09e7 01       		.uleb128 0x1
 4812 09e8 50       		.byte	0x50
 4813 09e9 02       		.uleb128 0x2
 4814 09ea 76       		.byte	0x76
 4815 09eb 00       		.sleb128 0
 4816 09ec 00       		.byte	0
 4817 09ed 13       		.uleb128 0x13
 4818 09ee 5E000000 		.4byte	.LVL73
 4819 09f2 401C0000 		.4byte	0x1c40
 4820 09f6 070A0000 		.4byte	0xa07
 4821 09fa 14       		.uleb128 0x14
 4822 09fb 01       		.uleb128 0x1
 4823 09fc 50       		.byte	0x50
 4824 09fd 02       		.uleb128 0x2
 4825 09fe 76       		.byte	0x76
 4826 09ff 00       		.sleb128 0
 4827 0a00 14       		.uleb128 0x14
 4828 0a01 01       		.uleb128 0x1
 4829 0a02 51       		.byte	0x51
 4830 0a03 02       		.uleb128 0x2
 4831 0a04 08       		.byte	0x8
 4832 0a05 4F       		.byte	0x4f
 4833 0a06 00       		.byte	0
 4834 0a07 13       		.uleb128 0x13
 4835 0a08 66000000 		.4byte	.LVL74
 4836 0a0c 341C0000 		.4byte	0x1c34
ARM GAS  C:\Users\brian\AppData\Local\Temp\cckfkOf3.s 			page 118


 4837 0a10 200A0000 		.4byte	0xa20
 4838 0a14 14       		.uleb128 0x14
 4839 0a15 01       		.uleb128 0x1
 4840 0a16 50       		.byte	0x50
 4841 0a17 02       		.uleb128 0x2
 4842 0a18 76       		.byte	0x76
 4843 0a19 00       		.sleb128 0
 4844 0a1a 14       		.uleb128 0x14
 4845 0a1b 01       		.uleb128 0x1
 4846 0a1c 51       		.byte	0x51
 4847 0a1d 01       		.uleb128 0x1
 4848 0a1e 45       		.byte	0x45
 4849 0a1f 00       		.byte	0
 4850 0a20 13       		.uleb128 0x13
 4851 0a21 74000000 		.4byte	.LVL75
 4852 0a25 401C0000 		.4byte	0x1c40
 4853 0a29 340A0000 		.4byte	0xa34
 4854 0a2d 14       		.uleb128 0x14
 4855 0a2e 01       		.uleb128 0x1
 4856 0a2f 50       		.byte	0x50
 4857 0a30 02       		.uleb128 0x2
 4858 0a31 76       		.byte	0x76
 4859 0a32 00       		.sleb128 0
 4860 0a33 00       		.byte	0
 4861 0a34 13       		.uleb128 0x13
 4862 0a35 7C000000 		.4byte	.LVL76
 4863 0a39 401C0000 		.4byte	0x1c40
 4864 0a3d 4E0A0000 		.4byte	0xa4e
 4865 0a41 14       		.uleb128 0x14
 4866 0a42 01       		.uleb128 0x1
 4867 0a43 50       		.byte	0x50
 4868 0a44 02       		.uleb128 0x2
 4869 0a45 76       		.byte	0x76
 4870 0a46 00       		.sleb128 0
 4871 0a47 14       		.uleb128 0x14
 4872 0a48 01       		.uleb128 0x1
 4873 0a49 51       		.byte	0x51
 4874 0a4a 02       		.uleb128 0x2
 4875 0a4b 09       		.byte	0x9
 4876 0a4c FF       		.byte	0xff
 4877 0a4d 00       		.byte	0
 4878 0a4e 13       		.uleb128 0x13
 4879 0a4f 84000000 		.4byte	.LVL77
 4880 0a53 341C0000 		.4byte	0x1c34
 4881 0a57 680A0000 		.4byte	0xa68
 4882 0a5b 14       		.uleb128 0x14
 4883 0a5c 01       		.uleb128 0x1
 4884 0a5d 50       		.byte	0x50
 4885 0a5e 02       		.uleb128 0x2
 4886 0a5f 76       		.byte	0x76
 4887 0a60 00       		.sleb128 0
 4888 0a61 14       		.uleb128 0x14
 4889 0a62 01       		.uleb128 0x1
 4890 0a63 51       		.byte	0x51
 4891 0a64 02       		.uleb128 0x2
 4892 0a65 08       		.byte	0x8
 4893 0a66 5C       		.byte	0x5c
ARM GAS  C:\Users\brian\AppData\Local\Temp\cckfkOf3.s 			page 119


 4894 0a67 00       		.byte	0
 4895 0a68 13       		.uleb128 0x13
 4896 0a69 A2000000 		.4byte	.LVL84
 4897 0a6d 581C0000 		.4byte	0x1c58
 4898 0a71 820A0000 		.4byte	0xa82
 4899 0a75 14       		.uleb128 0x14
 4900 0a76 01       		.uleb128 0x1
 4901 0a77 50       		.byte	0x50
 4902 0a78 02       		.uleb128 0x2
 4903 0a79 76       		.byte	0x76
 4904 0a7a 00       		.sleb128 0
 4905 0a7b 14       		.uleb128 0x14
 4906 0a7c 01       		.uleb128 0x1
 4907 0a7d 51       		.byte	0x51
 4908 0a7e 02       		.uleb128 0x2
 4909 0a7f 74       		.byte	0x74
 4910 0a80 00       		.sleb128 0
 4911 0a81 00       		.byte	0
 4912 0a82 13       		.uleb128 0x13
 4913 0a83 B6000000 		.4byte	.LVL89
 4914 0a87 4C1C0000 		.4byte	0x1c4c
 4915 0a8b 960A0000 		.4byte	0xa96
 4916 0a8f 14       		.uleb128 0x14
 4917 0a90 01       		.uleb128 0x1
 4918 0a91 50       		.byte	0x50
 4919 0a92 02       		.uleb128 0x2
 4920 0a93 76       		.byte	0x76
 4921 0a94 00       		.sleb128 0
 4922 0a95 00       		.byte	0
 4923 0a96 13       		.uleb128 0x13
 4924 0a97 C2000000 		.4byte	.LVL91
 4925 0a9b 641C0000 		.4byte	0x1c64
 4926 0a9f AD0A0000 		.4byte	0xaad
 4927 0aa3 14       		.uleb128 0x14
 4928 0aa4 01       		.uleb128 0x1
 4929 0aa5 51       		.byte	0x51
 4930 0aa6 05       		.uleb128 0x5
 4931 0aa7 03       		.byte	0x3
 4932 0aa8 E4010000 		.4byte	.LANCHOR0+484
 4933 0aac 00       		.byte	0
 4934 0aad 15       		.uleb128 0x15
 4935 0aae CC000000 		.4byte	.LVL93
 4936 0ab2 701C0000 		.4byte	0x1c70
 4937 0ab6 13       		.uleb128 0x13
 4938 0ab7 D4000000 		.4byte	.LVL94
 4939 0abb 1C1C0000 		.4byte	0x1c1c
 4940 0abf D30A0000 		.4byte	0xad3
 4941 0ac3 14       		.uleb128 0x14
 4942 0ac4 01       		.uleb128 0x1
 4943 0ac5 50       		.byte	0x50
 4944 0ac6 02       		.uleb128 0x2
 4945 0ac7 76       		.byte	0x76
 4946 0ac8 00       		.sleb128 0
 4947 0ac9 14       		.uleb128 0x14
 4948 0aca 01       		.uleb128 0x1
 4949 0acb 51       		.byte	0x51
 4950 0acc 05       		.uleb128 0x5
ARM GAS  C:\Users\brian\AppData\Local\Temp\cckfkOf3.s 			page 120


 4951 0acd 03       		.byte	0x3
 4952 0ace FC010000 		.4byte	.LANCHOR0+508
 4953 0ad2 00       		.byte	0
 4954 0ad3 13       		.uleb128 0x13
 4955 0ad4 E2000000 		.4byte	.LVL96
 4956 0ad8 1C1C0000 		.4byte	0x1c1c
 4957 0adc EA0A0000 		.4byte	0xaea
 4958 0ae0 14       		.uleb128 0x14
 4959 0ae1 01       		.uleb128 0x1
 4960 0ae2 51       		.byte	0x51
 4961 0ae3 05       		.uleb128 0x5
 4962 0ae4 03       		.byte	0x3
 4963 0ae5 00000000 		.4byte	.LANCHOR0
 4964 0ae9 00       		.byte	0
 4965 0aea 13       		.uleb128 0x13
 4966 0aeb EE000000 		.4byte	.LVL98
 4967 0aef 1C1C0000 		.4byte	0x1c1c
 4968 0af3 010B0000 		.4byte	0xb01
 4969 0af7 14       		.uleb128 0x14
 4970 0af8 01       		.uleb128 0x1
 4971 0af9 51       		.byte	0x51
 4972 0afa 05       		.uleb128 0x5
 4973 0afb 03       		.byte	0x3
 4974 0afc 0C000000 		.4byte	.LANCHOR0+12
 4975 0b00 00       		.byte	0
 4976 0b01 13       		.uleb128 0x13
 4977 0b02 FC000000 		.4byte	.LVL100
 4978 0b06 1C1C0000 		.4byte	0x1c1c
 4979 0b0a 180B0000 		.4byte	0xb18
 4980 0b0e 14       		.uleb128 0x14
 4981 0b0f 01       		.uleb128 0x1
 4982 0b10 51       		.byte	0x51
 4983 0b11 05       		.uleb128 0x5
 4984 0b12 03       		.byte	0x3
 4985 0b13 50010000 		.4byte	.LANCHOR0+336
 4986 0b17 00       		.byte	0
 4987 0b18 13       		.uleb128 0x13
 4988 0b19 10010000 		.4byte	.LVL102
 4989 0b1d 1C1C0000 		.4byte	0x1c1c
 4990 0b21 2F0B0000 		.4byte	0xb2f
 4991 0b25 14       		.uleb128 0x14
 4992 0b26 01       		.uleb128 0x1
 4993 0b27 51       		.byte	0x51
 4994 0b28 05       		.uleb128 0x5
 4995 0b29 03       		.byte	0x3
 4996 0b2a 40010000 		.4byte	.LANCHOR0+320
 4997 0b2e 00       		.byte	0
 4998 0b2f 15       		.uleb128 0x15
 4999 0b30 22010000 		.4byte	.LVL104
 5000 0b34 281C0000 		.4byte	0x1c28
 5001 0b38 13       		.uleb128 0x13
 5002 0b39 2A010000 		.4byte	.LVL105
 5003 0b3d 341C0000 		.4byte	0x1c34
 5004 0b41 520B0000 		.4byte	0xb52
 5005 0b45 14       		.uleb128 0x14
 5006 0b46 01       		.uleb128 0x1
 5007 0b47 50       		.byte	0x50
ARM GAS  C:\Users\brian\AppData\Local\Temp\cckfkOf3.s 			page 121


 5008 0b48 02       		.uleb128 0x2
 5009 0b49 76       		.byte	0x76
 5010 0b4a 00       		.sleb128 0
 5011 0b4b 14       		.uleb128 0x14
 5012 0b4c 01       		.uleb128 0x1
 5013 0b4d 51       		.byte	0x51
 5014 0b4e 02       		.uleb128 0x2
 5015 0b4f 08       		.byte	0x8
 5016 0b50 30       		.byte	0x30
 5017 0b51 00       		.byte	0
 5018 0b52 13       		.uleb128 0x13
 5019 0b53 32010000 		.4byte	.LVL106
 5020 0b57 341C0000 		.4byte	0x1c34
 5021 0b5b 6C0B0000 		.4byte	0xb6c
 5022 0b5f 14       		.uleb128 0x14
 5023 0b60 01       		.uleb128 0x1
 5024 0b61 50       		.byte	0x50
 5025 0b62 02       		.uleb128 0x2
 5026 0b63 76       		.byte	0x76
 5027 0b64 00       		.sleb128 0
 5028 0b65 14       		.uleb128 0x14
 5029 0b66 01       		.uleb128 0x1
 5030 0b67 51       		.byte	0x51
 5031 0b68 02       		.uleb128 0x2
 5032 0b69 09       		.byte	0x9
 5033 0b6a 81       		.byte	0x81
 5034 0b6b 00       		.byte	0
 5035 0b6c 13       		.uleb128 0x13
 5036 0b6d 3E010000 		.4byte	.LVL107
 5037 0b71 401C0000 		.4byte	0x1c40
 5038 0b75 8B0B0000 		.4byte	0xb8b
 5039 0b79 14       		.uleb128 0x14
 5040 0b7a 01       		.uleb128 0x1
 5041 0b7b 50       		.byte	0x50
 5042 0b7c 02       		.uleb128 0x2
 5043 0b7d 76       		.byte	0x76
 5044 0b7e 00       		.sleb128 0
 5045 0b7f 14       		.uleb128 0x14
 5046 0b80 01       		.uleb128 0x1
 5047 0b81 51       		.byte	0x51
 5048 0b82 07       		.uleb128 0x7
 5049 0b83 75       		.byte	0x75
 5050 0b84 00       		.sleb128 0
 5051 0b85 31       		.byte	0x31
 5052 0b86 24       		.byte	0x24
 5053 0b87 08       		.byte	0x8
 5054 0b88 3E       		.byte	0x3e
 5055 0b89 1A       		.byte	0x1a
 5056 0b8a 00       		.byte	0
 5057 0b8b 13       		.uleb128 0x13
 5058 0b8c 46010000 		.4byte	.LVL108
 5059 0b90 401C0000 		.4byte	0x1c40
 5060 0b94 A70B0000 		.4byte	0xba7
 5061 0b98 14       		.uleb128 0x14
 5062 0b99 01       		.uleb128 0x1
 5063 0b9a 50       		.byte	0x50
 5064 0b9b 02       		.uleb128 0x2
ARM GAS  C:\Users\brian\AppData\Local\Temp\cckfkOf3.s 			page 122


 5065 0b9c 76       		.byte	0x76
 5066 0b9d 00       		.sleb128 0
 5067 0b9e 14       		.uleb128 0x14
 5068 0b9f 01       		.uleb128 0x1
 5069 0ba0 51       		.byte	0x51
 5070 0ba1 04       		.uleb128 0x4
 5071 0ba2 75       		.byte	0x75
 5072 0ba3 00       		.sleb128 0
 5073 0ba4 35       		.byte	0x35
 5074 0ba5 25       		.byte	0x25
 5075 0ba6 00       		.byte	0
 5076 0ba7 16       		.uleb128 0x16
 5077 0ba8 4C010000 		.4byte	.LVL109
 5078 0bac 4C1C0000 		.4byte	0x1c4c
 5079 0bb0 14       		.uleb128 0x14
 5080 0bb1 01       		.uleb128 0x1
 5081 0bb2 50       		.byte	0x50
 5082 0bb3 02       		.uleb128 0x2
 5083 0bb4 76       		.byte	0x76
 5084 0bb5 00       		.sleb128 0
 5085 0bb6 00       		.byte	0
 5086 0bb7 00       		.byte	0
 5087 0bb8 17       		.uleb128 0x17
 5088 0bb9 0F020000 		.4byte	.LASF72
 5089 0bbd 01       		.byte	0x1
 5090 0bbe A003     		.2byte	0x3a0
 5091 0bc0 8C000000 		.4byte	0x8c
 5092 0bc4 00000000 		.4byte	.LFB5
 5093 0bc8 70010000 		.4byte	.LFE5-.LFB5
 5094 0bcc 01       		.uleb128 0x1
 5095 0bcd 9C       		.byte	0x9c
 5096 0bce 6E0E0000 		.4byte	0xe6e
 5097 0bd2 18       		.uleb128 0x18
 5098 0bd3 40060000 		.4byte	.LASF65
 5099 0bd7 01       		.byte	0x1
 5100 0bd8 A003     		.2byte	0x3a0
 5101 0bda 43030000 		.4byte	0x343
 5102 0bde 99060000 		.4byte	.LLST26
 5103 0be2 19       		.uleb128 0x19
 5104 0be3 6D736700 		.ascii	"msg\000"
 5105 0be7 01       		.byte	0x1
 5106 0be8 A003     		.2byte	0x3a0
 5107 0bea 8C000000 		.4byte	0x8c
 5108 0bee 75070000 		.4byte	.LLST27
 5109 0bf2 18       		.uleb128 0x18
 5110 0bf3 D5020000 		.4byte	.LASF66
 5111 0bf7 01       		.byte	0x1
 5112 0bf8 A003     		.2byte	0x3a0
 5113 0bfa 8C000000 		.4byte	0x8c
 5114 0bfe 96070000 		.4byte	.LLST28
 5115 0c02 18       		.uleb128 0x18
 5116 0c03 88080000 		.4byte	.LASF67
 5117 0c07 01       		.byte	0x1
 5118 0c08 A003     		.2byte	0x3a0
 5119 0c0a AD000000 		.4byte	0xad
 5120 0c0e 7C080000 		.4byte	.LLST29
 5121 0c12 1A       		.uleb128 0x1a
ARM GAS  C:\Users\brian\AppData\Local\Temp\cckfkOf3.s 			page 123


 5122 0c13 7800     		.ascii	"x\000"
 5123 0c15 01       		.byte	0x1
 5124 0c16 A203     		.2byte	0x3a2
 5125 0c18 8C000000 		.4byte	0x8c
 5126 0c1c A8080000 		.4byte	.LLST30
 5127 0c20 1A       		.uleb128 0x1a
 5128 0c21 6300     		.ascii	"c\000"
 5129 0c23 01       		.byte	0x1
 5130 0c24 A203     		.2byte	0x3a2
 5131 0c26 8C000000 		.4byte	0x8c
 5132 0c2a D2080000 		.4byte	.LLST31
 5133 0c2e 1A       		.uleb128 0x1a
 5134 0c2f 70747200 		.ascii	"ptr\000"
 5135 0c33 01       		.byte	0x1
 5136 0c34 A303     		.2byte	0x3a3
 5137 0c36 6E030000 		.4byte	0x36e
 5138 0c3a 14090000 		.4byte	.LLST32
 5139 0c3e 15       		.uleb128 0x15
 5140 0c3f 22000000 		.4byte	.LVL116
 5141 0c43 281C0000 		.4byte	0x1c28
 5142 0c47 13       		.uleb128 0x13
 5143 0c48 32000000 		.4byte	.LVL120
 5144 0c4c 341C0000 		.4byte	0x1c34
 5145 0c50 610C0000 		.4byte	0xc61
 5146 0c54 14       		.uleb128 0x14
 5147 0c55 01       		.uleb128 0x1
 5148 0c56 50       		.byte	0x50
 5149 0c57 02       		.uleb128 0x2
 5150 0c58 76       		.byte	0x76
 5151 0c59 00       		.sleb128 0
 5152 0c5a 14       		.uleb128 0x14
 5153 0c5b 01       		.uleb128 0x1
 5154 0c5c 51       		.byte	0x51
 5155 0c5d 02       		.uleb128 0x2
 5156 0c5e 08       		.byte	0x8
 5157 0c5f 30       		.byte	0x30
 5158 0c60 00       		.byte	0
 5159 0c61 13       		.uleb128 0x13
 5160 0c62 3A000000 		.4byte	.LVL121
 5161 0c66 341C0000 		.4byte	0x1c34
 5162 0c6a 7B0C0000 		.4byte	0xc7b
 5163 0c6e 14       		.uleb128 0x14
 5164 0c6f 01       		.uleb128 0x1
 5165 0c70 50       		.byte	0x50
 5166 0c71 02       		.uleb128 0x2
 5167 0c72 76       		.byte	0x76
 5168 0c73 00       		.sleb128 0
 5169 0c74 14       		.uleb128 0x14
 5170 0c75 01       		.uleb128 0x1
 5171 0c76 51       		.byte	0x51
 5172 0c77 02       		.uleb128 0x2
 5173 0c78 08       		.byte	0x8
 5174 0c79 75       		.byte	0x75
 5175 0c7a 00       		.byte	0
 5176 0c7b 13       		.uleb128 0x13
 5177 0c7c 4C000000 		.4byte	.LVL122
 5178 0c80 401C0000 		.4byte	0x1c40
ARM GAS  C:\Users\brian\AppData\Local\Temp\cckfkOf3.s 			page 124


 5179 0c84 8F0C0000 		.4byte	0xc8f
 5180 0c88 14       		.uleb128 0x14
 5181 0c89 01       		.uleb128 0x1
 5182 0c8a 50       		.byte	0x50
 5183 0c8b 02       		.uleb128 0x2
 5184 0c8c 76       		.byte	0x76
 5185 0c8d 00       		.sleb128 0
 5186 0c8e 00       		.byte	0
 5187 0c8f 13       		.uleb128 0x13
 5188 0c90 56000000 		.4byte	.LVL123
 5189 0c94 401C0000 		.4byte	0x1c40
 5190 0c98 A30C0000 		.4byte	0xca3
 5191 0c9c 14       		.uleb128 0x14
 5192 0c9d 01       		.uleb128 0x1
 5193 0c9e 50       		.byte	0x50
 5194 0c9f 02       		.uleb128 0x2
 5195 0ca0 76       		.byte	0x76
 5196 0ca1 00       		.sleb128 0
 5197 0ca2 00       		.byte	0
 5198 0ca3 13       		.uleb128 0x13
 5199 0ca4 5E000000 		.4byte	.LVL124
 5200 0ca8 401C0000 		.4byte	0x1c40
 5201 0cac BD0C0000 		.4byte	0xcbd
 5202 0cb0 14       		.uleb128 0x14
 5203 0cb1 01       		.uleb128 0x1
 5204 0cb2 50       		.byte	0x50
 5205 0cb3 02       		.uleb128 0x2
 5206 0cb4 76       		.byte	0x76
 5207 0cb5 00       		.sleb128 0
 5208 0cb6 14       		.uleb128 0x14
 5209 0cb7 01       		.uleb128 0x1
 5210 0cb8 51       		.byte	0x51
 5211 0cb9 02       		.uleb128 0x2
 5212 0cba 08       		.byte	0x8
 5213 0cbb 4F       		.byte	0x4f
 5214 0cbc 00       		.byte	0
 5215 0cbd 13       		.uleb128 0x13
 5216 0cbe 66000000 		.4byte	.LVL125
 5217 0cc2 341C0000 		.4byte	0x1c34
 5218 0cc6 D60C0000 		.4byte	0xcd6
 5219 0cca 14       		.uleb128 0x14
 5220 0ccb 01       		.uleb128 0x1
 5221 0ccc 50       		.byte	0x50
 5222 0ccd 02       		.uleb128 0x2
 5223 0cce 76       		.byte	0x76
 5224 0ccf 00       		.sleb128 0
 5225 0cd0 14       		.uleb128 0x14
 5226 0cd1 01       		.uleb128 0x1
 5227 0cd2 51       		.byte	0x51
 5228 0cd3 01       		.uleb128 0x1
 5229 0cd4 45       		.byte	0x45
 5230 0cd5 00       		.byte	0
 5231 0cd6 13       		.uleb128 0x13
 5232 0cd7 74000000 		.4byte	.LVL126
 5233 0cdb 401C0000 		.4byte	0x1c40
 5234 0cdf EA0C0000 		.4byte	0xcea
 5235 0ce3 14       		.uleb128 0x14
ARM GAS  C:\Users\brian\AppData\Local\Temp\cckfkOf3.s 			page 125


 5236 0ce4 01       		.uleb128 0x1
 5237 0ce5 50       		.byte	0x50
 5238 0ce6 02       		.uleb128 0x2
 5239 0ce7 76       		.byte	0x76
 5240 0ce8 00       		.sleb128 0
 5241 0ce9 00       		.byte	0
 5242 0cea 13       		.uleb128 0x13
 5243 0ceb 7C000000 		.4byte	.LVL127
 5244 0cef 401C0000 		.4byte	0x1c40
 5245 0cf3 040D0000 		.4byte	0xd04
 5246 0cf7 14       		.uleb128 0x14
 5247 0cf8 01       		.uleb128 0x1
 5248 0cf9 50       		.byte	0x50
 5249 0cfa 02       		.uleb128 0x2
 5250 0cfb 76       		.byte	0x76
 5251 0cfc 00       		.sleb128 0
 5252 0cfd 14       		.uleb128 0x14
 5253 0cfe 01       		.uleb128 0x1
 5254 0cff 51       		.byte	0x51
 5255 0d00 02       		.uleb128 0x2
 5256 0d01 09       		.byte	0x9
 5257 0d02 FF       		.byte	0xff
 5258 0d03 00       		.byte	0
 5259 0d04 13       		.uleb128 0x13
 5260 0d05 84000000 		.4byte	.LVL128
 5261 0d09 341C0000 		.4byte	0x1c34
 5262 0d0d 1E0D0000 		.4byte	0xd1e
 5263 0d11 14       		.uleb128 0x14
 5264 0d12 01       		.uleb128 0x1
 5265 0d13 50       		.byte	0x50
 5266 0d14 02       		.uleb128 0x2
 5267 0d15 76       		.byte	0x76
 5268 0d16 00       		.sleb128 0
 5269 0d17 14       		.uleb128 0x14
 5270 0d18 01       		.uleb128 0x1
 5271 0d19 51       		.byte	0x51
 5272 0d1a 02       		.uleb128 0x2
 5273 0d1b 08       		.byte	0x8
 5274 0d1c 5C       		.byte	0x5c
 5275 0d1d 00       		.byte	0
 5276 0d1e 13       		.uleb128 0x13
 5277 0d1f A2000000 		.4byte	.LVL135
 5278 0d23 581C0000 		.4byte	0x1c58
 5279 0d27 380D0000 		.4byte	0xd38
 5280 0d2b 14       		.uleb128 0x14
 5281 0d2c 01       		.uleb128 0x1
 5282 0d2d 50       		.byte	0x50
 5283 0d2e 02       		.uleb128 0x2
 5284 0d2f 76       		.byte	0x76
 5285 0d30 00       		.sleb128 0
 5286 0d31 14       		.uleb128 0x14
 5287 0d32 01       		.uleb128 0x1
 5288 0d33 51       		.byte	0x51
 5289 0d34 02       		.uleb128 0x2
 5290 0d35 74       		.byte	0x74
 5291 0d36 00       		.sleb128 0
 5292 0d37 00       		.byte	0
ARM GAS  C:\Users\brian\AppData\Local\Temp\cckfkOf3.s 			page 126


 5293 0d38 13       		.uleb128 0x13
 5294 0d39 B6000000 		.4byte	.LVL140
 5295 0d3d 4C1C0000 		.4byte	0x1c4c
 5296 0d41 4C0D0000 		.4byte	0xd4c
 5297 0d45 14       		.uleb128 0x14
 5298 0d46 01       		.uleb128 0x1
 5299 0d47 50       		.byte	0x50
 5300 0d48 02       		.uleb128 0x2
 5301 0d49 76       		.byte	0x76
 5302 0d4a 00       		.sleb128 0
 5303 0d4b 00       		.byte	0
 5304 0d4c 13       		.uleb128 0x13
 5305 0d4d C2000000 		.4byte	.LVL142
 5306 0d51 641C0000 		.4byte	0x1c64
 5307 0d55 630D0000 		.4byte	0xd63
 5308 0d59 14       		.uleb128 0x14
 5309 0d5a 01       		.uleb128 0x1
 5310 0d5b 51       		.byte	0x51
 5311 0d5c 05       		.uleb128 0x5
 5312 0d5d 03       		.byte	0x3
 5313 0d5e 68020000 		.4byte	.LANCHOR0+616
 5314 0d62 00       		.byte	0
 5315 0d63 15       		.uleb128 0x15
 5316 0d64 CC000000 		.4byte	.LVL144
 5317 0d68 701C0000 		.4byte	0x1c70
 5318 0d6c 13       		.uleb128 0x13
 5319 0d6d D4000000 		.4byte	.LVL145
 5320 0d71 1C1C0000 		.4byte	0x1c1c
 5321 0d75 890D0000 		.4byte	0xd89
 5322 0d79 14       		.uleb128 0x14
 5323 0d7a 01       		.uleb128 0x1
 5324 0d7b 50       		.byte	0x50
 5325 0d7c 02       		.uleb128 0x2
 5326 0d7d 76       		.byte	0x76
 5327 0d7e 00       		.sleb128 0
 5328 0d7f 14       		.uleb128 0x14
 5329 0d80 01       		.uleb128 0x1
 5330 0d81 51       		.byte	0x51
 5331 0d82 05       		.uleb128 0x5
 5332 0d83 03       		.byte	0x3
 5333 0d84 80020000 		.4byte	.LANCHOR0+640
 5334 0d88 00       		.byte	0
 5335 0d89 13       		.uleb128 0x13
 5336 0d8a E2000000 		.4byte	.LVL147
 5337 0d8e 1C1C0000 		.4byte	0x1c1c
 5338 0d92 A00D0000 		.4byte	0xda0
 5339 0d96 14       		.uleb128 0x14
 5340 0d97 01       		.uleb128 0x1
 5341 0d98 51       		.byte	0x51
 5342 0d99 05       		.uleb128 0x5
 5343 0d9a 03       		.byte	0x3
 5344 0d9b 00000000 		.4byte	.LANCHOR0
 5345 0d9f 00       		.byte	0
 5346 0da0 13       		.uleb128 0x13
 5347 0da1 EE000000 		.4byte	.LVL149
 5348 0da5 1C1C0000 		.4byte	0x1c1c
 5349 0da9 B70D0000 		.4byte	0xdb7
ARM GAS  C:\Users\brian\AppData\Local\Temp\cckfkOf3.s 			page 127


 5350 0dad 14       		.uleb128 0x14
 5351 0dae 01       		.uleb128 0x1
 5352 0daf 51       		.byte	0x51
 5353 0db0 05       		.uleb128 0x5
 5354 0db1 03       		.byte	0x3
 5355 0db2 0C000000 		.4byte	.LANCHOR0+12
 5356 0db6 00       		.byte	0
 5357 0db7 13       		.uleb128 0x13
 5358 0db8 FC000000 		.4byte	.LVL151
 5359 0dbc 1C1C0000 		.4byte	0x1c1c
 5360 0dc0 CE0D0000 		.4byte	0xdce
 5361 0dc4 14       		.uleb128 0x14
 5362 0dc5 01       		.uleb128 0x1
 5363 0dc6 51       		.byte	0x51
 5364 0dc7 05       		.uleb128 0x5
 5365 0dc8 03       		.byte	0x3
 5366 0dc9 50010000 		.4byte	.LANCHOR0+336
 5367 0dcd 00       		.byte	0
 5368 0dce 13       		.uleb128 0x13
 5369 0dcf 10010000 		.4byte	.LVL153
 5370 0dd3 1C1C0000 		.4byte	0x1c1c
 5371 0dd7 E50D0000 		.4byte	0xde5
 5372 0ddb 14       		.uleb128 0x14
 5373 0ddc 01       		.uleb128 0x1
 5374 0ddd 51       		.byte	0x51
 5375 0dde 05       		.uleb128 0x5
 5376 0ddf 03       		.byte	0x3
 5377 0de0 40010000 		.4byte	.LANCHOR0+320
 5378 0de4 00       		.byte	0
 5379 0de5 15       		.uleb128 0x15
 5380 0de6 22010000 		.4byte	.LVL155
 5381 0dea 281C0000 		.4byte	0x1c28
 5382 0dee 13       		.uleb128 0x13
 5383 0def 2A010000 		.4byte	.LVL156
 5384 0df3 341C0000 		.4byte	0x1c34
 5385 0df7 080E0000 		.4byte	0xe08
 5386 0dfb 14       		.uleb128 0x14
 5387 0dfc 01       		.uleb128 0x1
 5388 0dfd 50       		.byte	0x50
 5389 0dfe 02       		.uleb128 0x2
 5390 0dff 76       		.byte	0x76
 5391 0e00 00       		.sleb128 0
 5392 0e01 14       		.uleb128 0x14
 5393 0e02 01       		.uleb128 0x1
 5394 0e03 51       		.byte	0x51
 5395 0e04 02       		.uleb128 0x2
 5396 0e05 08       		.byte	0x8
 5397 0e06 30       		.byte	0x30
 5398 0e07 00       		.byte	0
 5399 0e08 13       		.uleb128 0x13
 5400 0e09 32010000 		.4byte	.LVL157
 5401 0e0d 341C0000 		.4byte	0x1c34
 5402 0e11 220E0000 		.4byte	0xe22
 5403 0e15 14       		.uleb128 0x14
 5404 0e16 01       		.uleb128 0x1
 5405 0e17 50       		.byte	0x50
 5406 0e18 02       		.uleb128 0x2
ARM GAS  C:\Users\brian\AppData\Local\Temp\cckfkOf3.s 			page 128


 5407 0e19 76       		.byte	0x76
 5408 0e1a 00       		.sleb128 0
 5409 0e1b 14       		.uleb128 0x14
 5410 0e1c 01       		.uleb128 0x1
 5411 0e1d 51       		.byte	0x51
 5412 0e1e 02       		.uleb128 0x2
 5413 0e1f 09       		.byte	0x9
 5414 0e20 81       		.byte	0x81
 5415 0e21 00       		.byte	0
 5416 0e22 13       		.uleb128 0x13
 5417 0e23 3E010000 		.4byte	.LVL158
 5418 0e27 401C0000 		.4byte	0x1c40
 5419 0e2b 410E0000 		.4byte	0xe41
 5420 0e2f 14       		.uleb128 0x14
 5421 0e30 01       		.uleb128 0x1
 5422 0e31 50       		.byte	0x50
 5423 0e32 02       		.uleb128 0x2
 5424 0e33 76       		.byte	0x76
 5425 0e34 00       		.sleb128 0
 5426 0e35 14       		.uleb128 0x14
 5427 0e36 01       		.uleb128 0x1
 5428 0e37 51       		.byte	0x51
 5429 0e38 07       		.uleb128 0x7
 5430 0e39 75       		.byte	0x75
 5431 0e3a 00       		.sleb128 0
 5432 0e3b 31       		.byte	0x31
 5433 0e3c 24       		.byte	0x24
 5434 0e3d 08       		.byte	0x8
 5435 0e3e 3E       		.byte	0x3e
 5436 0e3f 1A       		.byte	0x1a
 5437 0e40 00       		.byte	0
 5438 0e41 13       		.uleb128 0x13
 5439 0e42 46010000 		.4byte	.LVL159
 5440 0e46 401C0000 		.4byte	0x1c40
 5441 0e4a 5D0E0000 		.4byte	0xe5d
 5442 0e4e 14       		.uleb128 0x14
 5443 0e4f 01       		.uleb128 0x1
 5444 0e50 50       		.byte	0x50
 5445 0e51 02       		.uleb128 0x2
 5446 0e52 76       		.byte	0x76
 5447 0e53 00       		.sleb128 0
 5448 0e54 14       		.uleb128 0x14
 5449 0e55 01       		.uleb128 0x1
 5450 0e56 51       		.byte	0x51
 5451 0e57 04       		.uleb128 0x4
 5452 0e58 75       		.byte	0x75
 5453 0e59 00       		.sleb128 0
 5454 0e5a 35       		.byte	0x35
 5455 0e5b 25       		.byte	0x25
 5456 0e5c 00       		.byte	0
 5457 0e5d 16       		.uleb128 0x16
 5458 0e5e 4C010000 		.4byte	.LVL160
 5459 0e62 4C1C0000 		.4byte	0x1c4c
 5460 0e66 14       		.uleb128 0x14
 5461 0e67 01       		.uleb128 0x1
 5462 0e68 50       		.byte	0x50
 5463 0e69 02       		.uleb128 0x2
ARM GAS  C:\Users\brian\AppData\Local\Temp\cckfkOf3.s 			page 129


 5464 0e6a 76       		.byte	0x76
 5465 0e6b 00       		.sleb128 0
 5466 0e6c 00       		.byte	0
 5467 0e6d 00       		.byte	0
 5468 0e6e 17       		.uleb128 0x17
 5469 0e6f 89010000 		.4byte	.LASF73
 5470 0e73 01       		.byte	0x1
 5471 0e74 6304     		.2byte	0x463
 5472 0e76 8C000000 		.4byte	0x8c
 5473 0e7a 00000000 		.4byte	.LFB6
 5474 0e7e 7C010000 		.4byte	.LFE6-.LFB6
 5475 0e82 01       		.uleb128 0x1
 5476 0e83 9C       		.byte	0x9c
 5477 0e84 4F110000 		.4byte	0x114f
 5478 0e88 18       		.uleb128 0x18
 5479 0e89 40060000 		.4byte	.LASF65
 5480 0e8d 01       		.byte	0x1
 5481 0e8e 6304     		.2byte	0x463
 5482 0e90 43030000 		.4byte	0x343
 5483 0e94 27090000 		.4byte	.LLST33
 5484 0e98 19       		.uleb128 0x19
 5485 0e99 6D736700 		.ascii	"msg\000"
 5486 0e9d 01       		.byte	0x1
 5487 0e9e 6304     		.2byte	0x463
 5488 0ea0 8C000000 		.4byte	0x8c
 5489 0ea4 030A0000 		.4byte	.LLST34
 5490 0ea8 18       		.uleb128 0x18
 5491 0ea9 D5020000 		.4byte	.LASF66
 5492 0ead 01       		.byte	0x1
 5493 0eae 6304     		.2byte	0x463
 5494 0eb0 8C000000 		.4byte	0x8c
 5495 0eb4 240A0000 		.4byte	.LLST35
 5496 0eb8 18       		.uleb128 0x18
 5497 0eb9 88080000 		.4byte	.LASF67
 5498 0ebd 01       		.byte	0x1
 5499 0ebe 6304     		.2byte	0x463
 5500 0ec0 AD000000 		.4byte	0xad
 5501 0ec4 150B0000 		.4byte	.LLST36
 5502 0ec8 1A       		.uleb128 0x1a
 5503 0ec9 7800     		.ascii	"x\000"
 5504 0ecb 01       		.byte	0x1
 5505 0ecc 6504     		.2byte	0x465
 5506 0ece 8C000000 		.4byte	0x8c
 5507 0ed2 410B0000 		.4byte	.LLST37
 5508 0ed6 1A       		.uleb128 0x1a
 5509 0ed7 6300     		.ascii	"c\000"
 5510 0ed9 01       		.byte	0x1
 5511 0eda 6504     		.2byte	0x465
 5512 0edc 8C000000 		.4byte	0x8c
 5513 0ee0 6B0B0000 		.4byte	.LLST38
 5514 0ee4 1A       		.uleb128 0x1a
 5515 0ee5 70747200 		.ascii	"ptr\000"
 5516 0ee9 01       		.byte	0x1
 5517 0eea 6604     		.2byte	0x466
 5518 0eec 6E030000 		.4byte	0x36e
 5519 0ef0 960B0000 		.4byte	.LLST39
 5520 0ef4 15       		.uleb128 0x15
ARM GAS  C:\Users\brian\AppData\Local\Temp\cckfkOf3.s 			page 130


 5521 0ef5 22000000 		.4byte	.LVL167
 5522 0ef9 281C0000 		.4byte	0x1c28
 5523 0efd 13       		.uleb128 0x13
 5524 0efe 32000000 		.4byte	.LVL171
 5525 0f02 341C0000 		.4byte	0x1c34
 5526 0f06 170F0000 		.4byte	0xf17
 5527 0f0a 14       		.uleb128 0x14
 5528 0f0b 01       		.uleb128 0x1
 5529 0f0c 50       		.byte	0x50
 5530 0f0d 02       		.uleb128 0x2
 5531 0f0e 76       		.byte	0x76
 5532 0f0f 00       		.sleb128 0
 5533 0f10 14       		.uleb128 0x14
 5534 0f11 01       		.uleb128 0x1
 5535 0f12 51       		.byte	0x51
 5536 0f13 02       		.uleb128 0x2
 5537 0f14 08       		.byte	0x8
 5538 0f15 30       		.byte	0x30
 5539 0f16 00       		.byte	0
 5540 0f17 13       		.uleb128 0x13
 5541 0f18 3A000000 		.4byte	.LVL172
 5542 0f1c 341C0000 		.4byte	0x1c34
 5543 0f20 310F0000 		.4byte	0xf31
 5544 0f24 14       		.uleb128 0x14
 5545 0f25 01       		.uleb128 0x1
 5546 0f26 50       		.byte	0x50
 5547 0f27 02       		.uleb128 0x2
 5548 0f28 76       		.byte	0x76
 5549 0f29 00       		.sleb128 0
 5550 0f2a 14       		.uleb128 0x14
 5551 0f2b 01       		.uleb128 0x1
 5552 0f2c 51       		.byte	0x51
 5553 0f2d 02       		.uleb128 0x2
 5554 0f2e 08       		.byte	0x8
 5555 0f2f 75       		.byte	0x75
 5556 0f30 00       		.byte	0
 5557 0f31 13       		.uleb128 0x13
 5558 0f32 50000000 		.4byte	.LVL173
 5559 0f36 401C0000 		.4byte	0x1c40
 5560 0f3a 450F0000 		.4byte	0xf45
 5561 0f3e 14       		.uleb128 0x14
 5562 0f3f 01       		.uleb128 0x1
 5563 0f40 50       		.byte	0x50
 5564 0f41 02       		.uleb128 0x2
 5565 0f42 76       		.byte	0x76
 5566 0f43 00       		.sleb128 0
 5567 0f44 00       		.byte	0
 5568 0f45 13       		.uleb128 0x13
 5569 0f46 5C000000 		.4byte	.LVL174
 5570 0f4a 401C0000 		.4byte	0x1c40
 5571 0f4e 590F0000 		.4byte	0xf59
 5572 0f52 14       		.uleb128 0x14
 5573 0f53 01       		.uleb128 0x1
 5574 0f54 50       		.byte	0x50
 5575 0f55 02       		.uleb128 0x2
 5576 0f56 76       		.byte	0x76
 5577 0f57 00       		.sleb128 0
ARM GAS  C:\Users\brian\AppData\Local\Temp\cckfkOf3.s 			page 131


 5578 0f58 00       		.byte	0
 5579 0f59 13       		.uleb128 0x13
 5580 0f5a 64000000 		.4byte	.LVL175
 5581 0f5e 401C0000 		.4byte	0x1c40
 5582 0f62 730F0000 		.4byte	0xf73
 5583 0f66 14       		.uleb128 0x14
 5584 0f67 01       		.uleb128 0x1
 5585 0f68 50       		.byte	0x50
 5586 0f69 02       		.uleb128 0x2
 5587 0f6a 76       		.byte	0x76
 5588 0f6b 00       		.sleb128 0
 5589 0f6c 14       		.uleb128 0x14
 5590 0f6d 01       		.uleb128 0x1
 5591 0f6e 51       		.byte	0x51
 5592 0f6f 02       		.uleb128 0x2
 5593 0f70 08       		.byte	0x8
 5594 0f71 4F       		.byte	0x4f
 5595 0f72 00       		.byte	0
 5596 0f73 13       		.uleb128 0x13
 5597 0f74 6C000000 		.4byte	.LVL176
 5598 0f78 341C0000 		.4byte	0x1c34
 5599 0f7c 8C0F0000 		.4byte	0xf8c
 5600 0f80 14       		.uleb128 0x14
 5601 0f81 01       		.uleb128 0x1
 5602 0f82 50       		.byte	0x50
 5603 0f83 02       		.uleb128 0x2
 5604 0f84 76       		.byte	0x76
 5605 0f85 00       		.sleb128 0
 5606 0f86 14       		.uleb128 0x14
 5607 0f87 01       		.uleb128 0x1
 5608 0f88 51       		.byte	0x51
 5609 0f89 01       		.uleb128 0x1
 5610 0f8a 45       		.byte	0x45
 5611 0f8b 00       		.byte	0
 5612 0f8c 13       		.uleb128 0x13
 5613 0f8d 7A000000 		.4byte	.LVL177
 5614 0f91 401C0000 		.4byte	0x1c40
 5615 0f95 A00F0000 		.4byte	0xfa0
 5616 0f99 14       		.uleb128 0x14
 5617 0f9a 01       		.uleb128 0x1
 5618 0f9b 50       		.byte	0x50
 5619 0f9c 02       		.uleb128 0x2
 5620 0f9d 76       		.byte	0x76
 5621 0f9e 00       		.sleb128 0
 5622 0f9f 00       		.byte	0
 5623 0fa0 13       		.uleb128 0x13
 5624 0fa1 82000000 		.4byte	.LVL178
 5625 0fa5 401C0000 		.4byte	0x1c40
 5626 0fa9 BA0F0000 		.4byte	0xfba
 5627 0fad 14       		.uleb128 0x14
 5628 0fae 01       		.uleb128 0x1
 5629 0faf 50       		.byte	0x50
 5630 0fb0 02       		.uleb128 0x2
 5631 0fb1 76       		.byte	0x76
 5632 0fb2 00       		.sleb128 0
 5633 0fb3 14       		.uleb128 0x14
 5634 0fb4 01       		.uleb128 0x1
ARM GAS  C:\Users\brian\AppData\Local\Temp\cckfkOf3.s 			page 132


 5635 0fb5 51       		.byte	0x51
 5636 0fb6 02       		.uleb128 0x2
 5637 0fb7 09       		.byte	0x9
 5638 0fb8 FF       		.byte	0xff
 5639 0fb9 00       		.byte	0
 5640 0fba 13       		.uleb128 0x13
 5641 0fbb 8A000000 		.4byte	.LVL179
 5642 0fbf 341C0000 		.4byte	0x1c34
 5643 0fc3 D40F0000 		.4byte	0xfd4
 5644 0fc7 14       		.uleb128 0x14
 5645 0fc8 01       		.uleb128 0x1
 5646 0fc9 50       		.byte	0x50
 5647 0fca 02       		.uleb128 0x2
 5648 0fcb 76       		.byte	0x76
 5649 0fcc 00       		.sleb128 0
 5650 0fcd 14       		.uleb128 0x14
 5651 0fce 01       		.uleb128 0x1
 5652 0fcf 51       		.byte	0x51
 5653 0fd0 02       		.uleb128 0x2
 5654 0fd1 08       		.byte	0x8
 5655 0fd2 5C       		.byte	0x5c
 5656 0fd3 00       		.byte	0
 5657 0fd4 13       		.uleb128 0x13
 5658 0fd5 A0000000 		.4byte	.LVL182
 5659 0fd9 581C0000 		.4byte	0x1c58
 5660 0fdd F40F0000 		.4byte	0xff4
 5661 0fe1 14       		.uleb128 0x14
 5662 0fe2 01       		.uleb128 0x1
 5663 0fe3 50       		.byte	0x50
 5664 0fe4 02       		.uleb128 0x2
 5665 0fe5 76       		.byte	0x76
 5666 0fe6 00       		.sleb128 0
 5667 0fe7 14       		.uleb128 0x14
 5668 0fe8 01       		.uleb128 0x1
 5669 0fe9 51       		.byte	0x51
 5670 0fea 02       		.uleb128 0x2
 5671 0feb 09       		.byte	0x9
 5672 0fec F8       		.byte	0xf8
 5673 0fed 14       		.uleb128 0x14
 5674 0fee 01       		.uleb128 0x1
 5675 0fef 52       		.byte	0x52
 5676 0ff0 02       		.uleb128 0x2
 5677 0ff1 77       		.byte	0x77
 5678 0ff2 00       		.sleb128 0
 5679 0ff3 00       		.byte	0
 5680 0ff4 13       		.uleb128 0x13
 5681 0ff5 B4000000 		.4byte	.LVL186
 5682 0ff9 581C0000 		.4byte	0x1c58
 5683 0ffd 19100000 		.4byte	0x1019
 5684 1001 14       		.uleb128 0x14
 5685 1002 01       		.uleb128 0x1
 5686 1003 50       		.byte	0x50
 5687 1004 02       		.uleb128 0x2
 5688 1005 76       		.byte	0x76
 5689 1006 00       		.sleb128 0
 5690 1007 14       		.uleb128 0x14
 5691 1008 01       		.uleb128 0x1
ARM GAS  C:\Users\brian\AppData\Local\Temp\cckfkOf3.s 			page 133


 5692 1009 51       		.byte	0x51
 5693 100a 07       		.uleb128 0x7
 5694 100b 74       		.byte	0x74
 5695 100c 00       		.sleb128 0
 5696 100d 33       		.byte	0x33
 5697 100e 24       		.byte	0x24
 5698 100f 08       		.byte	0x8
 5699 1010 F8       		.byte	0xf8
 5700 1011 1A       		.byte	0x1a
 5701 1012 14       		.uleb128 0x14
 5702 1013 01       		.uleb128 0x1
 5703 1014 52       		.byte	0x52
 5704 1015 02       		.uleb128 0x2
 5705 1016 77       		.byte	0x77
 5706 1017 00       		.sleb128 0
 5707 1018 00       		.byte	0
 5708 1019 13       		.uleb128 0x13
 5709 101a C2000000 		.4byte	.LVL188
 5710 101e 4C1C0000 		.4byte	0x1c4c
 5711 1022 2D100000 		.4byte	0x102d
 5712 1026 14       		.uleb128 0x14
 5713 1027 01       		.uleb128 0x1
 5714 1028 50       		.byte	0x50
 5715 1029 02       		.uleb128 0x2
 5716 102a 76       		.byte	0x76
 5717 102b 00       		.sleb128 0
 5718 102c 00       		.byte	0
 5719 102d 13       		.uleb128 0x13
 5720 102e CE000000 		.4byte	.LVL190
 5721 1032 641C0000 		.4byte	0x1c64
 5722 1036 44100000 		.4byte	0x1044
 5723 103a 14       		.uleb128 0x14
 5724 103b 01       		.uleb128 0x1
 5725 103c 51       		.byte	0x51
 5726 103d 05       		.uleb128 0x5
 5727 103e 03       		.byte	0x3
 5728 103f EC020000 		.4byte	.LANCHOR0+748
 5729 1043 00       		.byte	0
 5730 1044 15       		.uleb128 0x15
 5731 1045 D8000000 		.4byte	.LVL192
 5732 1049 701C0000 		.4byte	0x1c70
 5733 104d 13       		.uleb128 0x13
 5734 104e E0000000 		.4byte	.LVL193
 5735 1052 1C1C0000 		.4byte	0x1c1c
 5736 1056 6A100000 		.4byte	0x106a
 5737 105a 14       		.uleb128 0x14
 5738 105b 01       		.uleb128 0x1
 5739 105c 50       		.byte	0x50
 5740 105d 02       		.uleb128 0x2
 5741 105e 76       		.byte	0x76
 5742 105f 00       		.sleb128 0
 5743 1060 14       		.uleb128 0x14
 5744 1061 01       		.uleb128 0x1
 5745 1062 51       		.byte	0x51
 5746 1063 05       		.uleb128 0x5
 5747 1064 03       		.byte	0x3
 5748 1065 04030000 		.4byte	.LANCHOR0+772
ARM GAS  C:\Users\brian\AppData\Local\Temp\cckfkOf3.s 			page 134


 5749 1069 00       		.byte	0
 5750 106a 13       		.uleb128 0x13
 5751 106b EE000000 		.4byte	.LVL195
 5752 106f 1C1C0000 		.4byte	0x1c1c
 5753 1073 81100000 		.4byte	0x1081
 5754 1077 14       		.uleb128 0x14
 5755 1078 01       		.uleb128 0x1
 5756 1079 51       		.byte	0x51
 5757 107a 05       		.uleb128 0x5
 5758 107b 03       		.byte	0x3
 5759 107c 00000000 		.4byte	.LANCHOR0
 5760 1080 00       		.byte	0
 5761 1081 13       		.uleb128 0x13
 5762 1082 FA000000 		.4byte	.LVL197
 5763 1086 1C1C0000 		.4byte	0x1c1c
 5764 108a 98100000 		.4byte	0x1098
 5765 108e 14       		.uleb128 0x14
 5766 108f 01       		.uleb128 0x1
 5767 1090 51       		.byte	0x51
 5768 1091 05       		.uleb128 0x5
 5769 1092 03       		.byte	0x3
 5770 1093 0C000000 		.4byte	.LANCHOR0+12
 5771 1097 00       		.byte	0
 5772 1098 13       		.uleb128 0x13
 5773 1099 08010000 		.4byte	.LVL199
 5774 109d 1C1C0000 		.4byte	0x1c1c
 5775 10a1 AF100000 		.4byte	0x10af
 5776 10a5 14       		.uleb128 0x14
 5777 10a6 01       		.uleb128 0x1
 5778 10a7 51       		.byte	0x51
 5779 10a8 05       		.uleb128 0x5
 5780 10a9 03       		.byte	0x3
 5781 10aa 70030000 		.4byte	.LANCHOR0+880
 5782 10ae 00       		.byte	0
 5783 10af 13       		.uleb128 0x13
 5784 10b0 1C010000 		.4byte	.LVL201
 5785 10b4 1C1C0000 		.4byte	0x1c1c
 5786 10b8 C6100000 		.4byte	0x10c6
 5787 10bc 14       		.uleb128 0x14
 5788 10bd 01       		.uleb128 0x1
 5789 10be 51       		.byte	0x51
 5790 10bf 05       		.uleb128 0x5
 5791 10c0 03       		.byte	0x3
 5792 10c1 80030000 		.4byte	.LANCHOR0+896
 5793 10c5 00       		.byte	0
 5794 10c6 15       		.uleb128 0x15
 5795 10c7 2E010000 		.4byte	.LVL203
 5796 10cb 281C0000 		.4byte	0x1c28
 5797 10cf 13       		.uleb128 0x13
 5798 10d0 36010000 		.4byte	.LVL204
 5799 10d4 341C0000 		.4byte	0x1c34
 5800 10d8 E9100000 		.4byte	0x10e9
 5801 10dc 14       		.uleb128 0x14
 5802 10dd 01       		.uleb128 0x1
 5803 10de 50       		.byte	0x50
 5804 10df 02       		.uleb128 0x2
 5805 10e0 76       		.byte	0x76
ARM GAS  C:\Users\brian\AppData\Local\Temp\cckfkOf3.s 			page 135


 5806 10e1 00       		.sleb128 0
 5807 10e2 14       		.uleb128 0x14
 5808 10e3 01       		.uleb128 0x1
 5809 10e4 51       		.byte	0x51
 5810 10e5 02       		.uleb128 0x2
 5811 10e6 08       		.byte	0x8
 5812 10e7 30       		.byte	0x30
 5813 10e8 00       		.byte	0
 5814 10e9 13       		.uleb128 0x13
 5815 10ea 3E010000 		.4byte	.LVL205
 5816 10ee 341C0000 		.4byte	0x1c34
 5817 10f2 03110000 		.4byte	0x1103
 5818 10f6 14       		.uleb128 0x14
 5819 10f7 01       		.uleb128 0x1
 5820 10f8 50       		.byte	0x50
 5821 10f9 02       		.uleb128 0x2
 5822 10fa 76       		.byte	0x76
 5823 10fb 00       		.sleb128 0
 5824 10fc 14       		.uleb128 0x14
 5825 10fd 01       		.uleb128 0x1
 5826 10fe 51       		.byte	0x51
 5827 10ff 02       		.uleb128 0x2
 5828 1100 09       		.byte	0x9
 5829 1101 81       		.byte	0x81
 5830 1102 00       		.byte	0
 5831 1103 13       		.uleb128 0x13
 5832 1104 4A010000 		.4byte	.LVL206
 5833 1108 401C0000 		.4byte	0x1c40
 5834 110c 22110000 		.4byte	0x1122
 5835 1110 14       		.uleb128 0x14
 5836 1111 01       		.uleb128 0x1
 5837 1112 50       		.byte	0x50
 5838 1113 02       		.uleb128 0x2
 5839 1114 76       		.byte	0x76
 5840 1115 00       		.sleb128 0
 5841 1116 14       		.uleb128 0x14
 5842 1117 01       		.uleb128 0x1
 5843 1118 51       		.byte	0x51
 5844 1119 07       		.uleb128 0x7
 5845 111a 75       		.byte	0x75
 5846 111b 00       		.sleb128 0
 5847 111c 31       		.byte	0x31
 5848 111d 24       		.byte	0x24
 5849 111e 08       		.byte	0x8
 5850 111f 3E       		.byte	0x3e
 5851 1120 1A       		.byte	0x1a
 5852 1121 00       		.byte	0
 5853 1122 13       		.uleb128 0x13
 5854 1123 52010000 		.4byte	.LVL207
 5855 1127 401C0000 		.4byte	0x1c40
 5856 112b 3E110000 		.4byte	0x113e
 5857 112f 14       		.uleb128 0x14
 5858 1130 01       		.uleb128 0x1
 5859 1131 50       		.byte	0x50
 5860 1132 02       		.uleb128 0x2
 5861 1133 76       		.byte	0x76
 5862 1134 00       		.sleb128 0
ARM GAS  C:\Users\brian\AppData\Local\Temp\cckfkOf3.s 			page 136


 5863 1135 14       		.uleb128 0x14
 5864 1136 01       		.uleb128 0x1
 5865 1137 51       		.byte	0x51
 5866 1138 04       		.uleb128 0x4
 5867 1139 75       		.byte	0x75
 5868 113a 00       		.sleb128 0
 5869 113b 35       		.byte	0x35
 5870 113c 25       		.byte	0x25
 5871 113d 00       		.byte	0
 5872 113e 16       		.uleb128 0x16
 5873 113f 58010000 		.4byte	.LVL208
 5874 1143 4C1C0000 		.4byte	0x1c4c
 5875 1147 14       		.uleb128 0x14
 5876 1148 01       		.uleb128 0x1
 5877 1149 50       		.byte	0x50
 5878 114a 02       		.uleb128 0x2
 5879 114b 76       		.byte	0x76
 5880 114c 00       		.sleb128 0
 5881 114d 00       		.byte	0
 5882 114e 00       		.byte	0
 5883 114f 17       		.uleb128 0x17
 5884 1150 6E080000 		.4byte	.LASF74
 5885 1154 01       		.byte	0x1
 5886 1155 0905     		.2byte	0x509
 5887 1157 8C000000 		.4byte	0x8c
 5888 115b 00000000 		.4byte	.LFB7
 5889 115f 7C010000 		.4byte	.LFE7-.LFB7
 5890 1163 01       		.uleb128 0x1
 5891 1164 9C       		.byte	0x9c
 5892 1165 30140000 		.4byte	0x1430
 5893 1169 18       		.uleb128 0x18
 5894 116a 40060000 		.4byte	.LASF65
 5895 116e 01       		.byte	0x1
 5896 116f 0905     		.2byte	0x509
 5897 1171 43030000 		.4byte	0x343
 5898 1175 A90B0000 		.4byte	.LLST40
 5899 1179 19       		.uleb128 0x19
 5900 117a 6D736700 		.ascii	"msg\000"
 5901 117e 01       		.byte	0x1
 5902 117f 0905     		.2byte	0x509
 5903 1181 8C000000 		.4byte	0x8c
 5904 1185 850C0000 		.4byte	.LLST41
 5905 1189 18       		.uleb128 0x18
 5906 118a D5020000 		.4byte	.LASF66
 5907 118e 01       		.byte	0x1
 5908 118f 0905     		.2byte	0x509
 5909 1191 8C000000 		.4byte	0x8c
 5910 1195 A60C0000 		.4byte	.LLST42
 5911 1199 18       		.uleb128 0x18
 5912 119a 88080000 		.4byte	.LASF67
 5913 119e 01       		.byte	0x1
 5914 119f 0905     		.2byte	0x509
 5915 11a1 AD000000 		.4byte	0xad
 5916 11a5 970D0000 		.4byte	.LLST43
 5917 11a9 1A       		.uleb128 0x1a
 5918 11aa 7800     		.ascii	"x\000"
 5919 11ac 01       		.byte	0x1
ARM GAS  C:\Users\brian\AppData\Local\Temp\cckfkOf3.s 			page 137


 5920 11ad 0B05     		.2byte	0x50b
 5921 11af 8C000000 		.4byte	0x8c
 5922 11b3 C30D0000 		.4byte	.LLST44
 5923 11b7 1A       		.uleb128 0x1a
 5924 11b8 6300     		.ascii	"c\000"
 5925 11ba 01       		.byte	0x1
 5926 11bb 0B05     		.2byte	0x50b
 5927 11bd 8C000000 		.4byte	0x8c
 5928 11c1 ED0D0000 		.4byte	.LLST45
 5929 11c5 1A       		.uleb128 0x1a
 5930 11c6 70747200 		.ascii	"ptr\000"
 5931 11ca 01       		.byte	0x1
 5932 11cb 0C05     		.2byte	0x50c
 5933 11cd 6E030000 		.4byte	0x36e
 5934 11d1 180E0000 		.4byte	.LLST46
 5935 11d5 15       		.uleb128 0x15
 5936 11d6 22000000 		.4byte	.LVL215
 5937 11da 281C0000 		.4byte	0x1c28
 5938 11de 13       		.uleb128 0x13
 5939 11df 32000000 		.4byte	.LVL219
 5940 11e3 341C0000 		.4byte	0x1c34
 5941 11e7 F8110000 		.4byte	0x11f8
 5942 11eb 14       		.uleb128 0x14
 5943 11ec 01       		.uleb128 0x1
 5944 11ed 50       		.byte	0x50
 5945 11ee 02       		.uleb128 0x2
 5946 11ef 76       		.byte	0x76
 5947 11f0 00       		.sleb128 0
 5948 11f1 14       		.uleb128 0x14
 5949 11f2 01       		.uleb128 0x1
 5950 11f3 51       		.byte	0x51
 5951 11f4 02       		.uleb128 0x2
 5952 11f5 08       		.byte	0x8
 5953 11f6 30       		.byte	0x30
 5954 11f7 00       		.byte	0
 5955 11f8 13       		.uleb128 0x13
 5956 11f9 3A000000 		.4byte	.LVL220
 5957 11fd 341C0000 		.4byte	0x1c34
 5958 1201 12120000 		.4byte	0x1212
 5959 1205 14       		.uleb128 0x14
 5960 1206 01       		.uleb128 0x1
 5961 1207 50       		.byte	0x50
 5962 1208 02       		.uleb128 0x2
 5963 1209 76       		.byte	0x76
 5964 120a 00       		.sleb128 0
 5965 120b 14       		.uleb128 0x14
 5966 120c 01       		.uleb128 0x1
 5967 120d 51       		.byte	0x51
 5968 120e 02       		.uleb128 0x2
 5969 120f 08       		.byte	0x8
 5970 1210 75       		.byte	0x75
 5971 1211 00       		.byte	0
 5972 1212 13       		.uleb128 0x13
 5973 1213 50000000 		.4byte	.LVL221
 5974 1217 401C0000 		.4byte	0x1c40
 5975 121b 26120000 		.4byte	0x1226
 5976 121f 14       		.uleb128 0x14
ARM GAS  C:\Users\brian\AppData\Local\Temp\cckfkOf3.s 			page 138


 5977 1220 01       		.uleb128 0x1
 5978 1221 50       		.byte	0x50
 5979 1222 02       		.uleb128 0x2
 5980 1223 76       		.byte	0x76
 5981 1224 00       		.sleb128 0
 5982 1225 00       		.byte	0
 5983 1226 13       		.uleb128 0x13
 5984 1227 5C000000 		.4byte	.LVL222
 5985 122b 401C0000 		.4byte	0x1c40
 5986 122f 3A120000 		.4byte	0x123a
 5987 1233 14       		.uleb128 0x14
 5988 1234 01       		.uleb128 0x1
 5989 1235 50       		.byte	0x50
 5990 1236 02       		.uleb128 0x2
 5991 1237 76       		.byte	0x76
 5992 1238 00       		.sleb128 0
 5993 1239 00       		.byte	0
 5994 123a 13       		.uleb128 0x13
 5995 123b 64000000 		.4byte	.LVL223
 5996 123f 401C0000 		.4byte	0x1c40
 5997 1243 54120000 		.4byte	0x1254
 5998 1247 14       		.uleb128 0x14
 5999 1248 01       		.uleb128 0x1
 6000 1249 50       		.byte	0x50
 6001 124a 02       		.uleb128 0x2
 6002 124b 76       		.byte	0x76
 6003 124c 00       		.sleb128 0
 6004 124d 14       		.uleb128 0x14
 6005 124e 01       		.uleb128 0x1
 6006 124f 51       		.byte	0x51
 6007 1250 02       		.uleb128 0x2
 6008 1251 08       		.byte	0x8
 6009 1252 4F       		.byte	0x4f
 6010 1253 00       		.byte	0
 6011 1254 13       		.uleb128 0x13
 6012 1255 6C000000 		.4byte	.LVL224
 6013 1259 341C0000 		.4byte	0x1c34
 6014 125d 6D120000 		.4byte	0x126d
 6015 1261 14       		.uleb128 0x14
 6016 1262 01       		.uleb128 0x1
 6017 1263 50       		.byte	0x50
 6018 1264 02       		.uleb128 0x2
 6019 1265 76       		.byte	0x76
 6020 1266 00       		.sleb128 0
 6021 1267 14       		.uleb128 0x14
 6022 1268 01       		.uleb128 0x1
 6023 1269 51       		.byte	0x51
 6024 126a 01       		.uleb128 0x1
 6025 126b 45       		.byte	0x45
 6026 126c 00       		.byte	0
 6027 126d 13       		.uleb128 0x13
 6028 126e 7A000000 		.4byte	.LVL225
 6029 1272 401C0000 		.4byte	0x1c40
 6030 1276 81120000 		.4byte	0x1281
 6031 127a 14       		.uleb128 0x14
 6032 127b 01       		.uleb128 0x1
 6033 127c 50       		.byte	0x50
ARM GAS  C:\Users\brian\AppData\Local\Temp\cckfkOf3.s 			page 139


 6034 127d 02       		.uleb128 0x2
 6035 127e 76       		.byte	0x76
 6036 127f 00       		.sleb128 0
 6037 1280 00       		.byte	0
 6038 1281 13       		.uleb128 0x13
 6039 1282 82000000 		.4byte	.LVL226
 6040 1286 401C0000 		.4byte	0x1c40
 6041 128a 9B120000 		.4byte	0x129b
 6042 128e 14       		.uleb128 0x14
 6043 128f 01       		.uleb128 0x1
 6044 1290 50       		.byte	0x50
 6045 1291 02       		.uleb128 0x2
 6046 1292 76       		.byte	0x76
 6047 1293 00       		.sleb128 0
 6048 1294 14       		.uleb128 0x14
 6049 1295 01       		.uleb128 0x1
 6050 1296 51       		.byte	0x51
 6051 1297 02       		.uleb128 0x2
 6052 1298 09       		.byte	0x9
 6053 1299 FF       		.byte	0xff
 6054 129a 00       		.byte	0
 6055 129b 13       		.uleb128 0x13
 6056 129c 8A000000 		.4byte	.LVL227
 6057 12a0 341C0000 		.4byte	0x1c34
 6058 12a4 B5120000 		.4byte	0x12b5
 6059 12a8 14       		.uleb128 0x14
 6060 12a9 01       		.uleb128 0x1
 6061 12aa 50       		.byte	0x50
 6062 12ab 02       		.uleb128 0x2
 6063 12ac 76       		.byte	0x76
 6064 12ad 00       		.sleb128 0
 6065 12ae 14       		.uleb128 0x14
 6066 12af 01       		.uleb128 0x1
 6067 12b0 51       		.byte	0x51
 6068 12b1 02       		.uleb128 0x2
 6069 12b2 08       		.byte	0x8
 6070 12b3 5C       		.byte	0x5c
 6071 12b4 00       		.byte	0
 6072 12b5 13       		.uleb128 0x13
 6073 12b6 A0000000 		.4byte	.LVL230
 6074 12ba 581C0000 		.4byte	0x1c58
 6075 12be D5120000 		.4byte	0x12d5
 6076 12c2 14       		.uleb128 0x14
 6077 12c3 01       		.uleb128 0x1
 6078 12c4 50       		.byte	0x50
 6079 12c5 02       		.uleb128 0x2
 6080 12c6 76       		.byte	0x76
 6081 12c7 00       		.sleb128 0
 6082 12c8 14       		.uleb128 0x14
 6083 12c9 01       		.uleb128 0x1
 6084 12ca 51       		.byte	0x51
 6085 12cb 02       		.uleb128 0x2
 6086 12cc 09       		.byte	0x9
 6087 12cd F8       		.byte	0xf8
 6088 12ce 14       		.uleb128 0x14
 6089 12cf 01       		.uleb128 0x1
 6090 12d0 52       		.byte	0x52
ARM GAS  C:\Users\brian\AppData\Local\Temp\cckfkOf3.s 			page 140


 6091 12d1 02       		.uleb128 0x2
 6092 12d2 77       		.byte	0x77
 6093 12d3 00       		.sleb128 0
 6094 12d4 00       		.byte	0
 6095 12d5 13       		.uleb128 0x13
 6096 12d6 B4000000 		.4byte	.LVL234
 6097 12da 581C0000 		.4byte	0x1c58
 6098 12de FA120000 		.4byte	0x12fa
 6099 12e2 14       		.uleb128 0x14
 6100 12e3 01       		.uleb128 0x1
 6101 12e4 50       		.byte	0x50
 6102 12e5 02       		.uleb128 0x2
 6103 12e6 76       		.byte	0x76
 6104 12e7 00       		.sleb128 0
 6105 12e8 14       		.uleb128 0x14
 6106 12e9 01       		.uleb128 0x1
 6107 12ea 51       		.byte	0x51
 6108 12eb 07       		.uleb128 0x7
 6109 12ec 74       		.byte	0x74
 6110 12ed 00       		.sleb128 0
 6111 12ee 33       		.byte	0x33
 6112 12ef 24       		.byte	0x24
 6113 12f0 08       		.byte	0x8
 6114 12f1 F8       		.byte	0xf8
 6115 12f2 1A       		.byte	0x1a
 6116 12f3 14       		.uleb128 0x14
 6117 12f4 01       		.uleb128 0x1
 6118 12f5 52       		.byte	0x52
 6119 12f6 02       		.uleb128 0x2
 6120 12f7 77       		.byte	0x77
 6121 12f8 00       		.sleb128 0
 6122 12f9 00       		.byte	0
 6123 12fa 13       		.uleb128 0x13
 6124 12fb C2000000 		.4byte	.LVL236
 6125 12ff 4C1C0000 		.4byte	0x1c4c
 6126 1303 0E130000 		.4byte	0x130e
 6127 1307 14       		.uleb128 0x14
 6128 1308 01       		.uleb128 0x1
 6129 1309 50       		.byte	0x50
 6130 130a 02       		.uleb128 0x2
 6131 130b 76       		.byte	0x76
 6132 130c 00       		.sleb128 0
 6133 130d 00       		.byte	0
 6134 130e 13       		.uleb128 0x13
 6135 130f CE000000 		.4byte	.LVL238
 6136 1313 641C0000 		.4byte	0x1c64
 6137 1317 25130000 		.4byte	0x1325
 6138 131b 14       		.uleb128 0x14
 6139 131c 01       		.uleb128 0x1
 6140 131d 51       		.byte	0x51
 6141 131e 05       		.uleb128 0x5
 6142 131f 03       		.byte	0x3
 6143 1320 EC020000 		.4byte	.LANCHOR0+748
 6144 1324 00       		.byte	0
 6145 1325 15       		.uleb128 0x15
 6146 1326 D8000000 		.4byte	.LVL240
 6147 132a 701C0000 		.4byte	0x1c70
ARM GAS  C:\Users\brian\AppData\Local\Temp\cckfkOf3.s 			page 141


 6148 132e 13       		.uleb128 0x13
 6149 132f E0000000 		.4byte	.LVL241
 6150 1333 1C1C0000 		.4byte	0x1c1c
 6151 1337 4B130000 		.4byte	0x134b
 6152 133b 14       		.uleb128 0x14
 6153 133c 01       		.uleb128 0x1
 6154 133d 50       		.byte	0x50
 6155 133e 02       		.uleb128 0x2
 6156 133f 76       		.byte	0x76
 6157 1340 00       		.sleb128 0
 6158 1341 14       		.uleb128 0x14
 6159 1342 01       		.uleb128 0x1
 6160 1343 51       		.byte	0x51
 6161 1344 05       		.uleb128 0x5
 6162 1345 03       		.byte	0x3
 6163 1346 90030000 		.4byte	.LANCHOR0+912
 6164 134a 00       		.byte	0
 6165 134b 13       		.uleb128 0x13
 6166 134c EE000000 		.4byte	.LVL243
 6167 1350 1C1C0000 		.4byte	0x1c1c
 6168 1354 62130000 		.4byte	0x1362
 6169 1358 14       		.uleb128 0x14
 6170 1359 01       		.uleb128 0x1
 6171 135a 51       		.byte	0x51
 6172 135b 05       		.uleb128 0x5
 6173 135c 03       		.byte	0x3
 6174 135d 00000000 		.4byte	.LANCHOR0
 6175 1361 00       		.byte	0
 6176 1362 13       		.uleb128 0x13
 6177 1363 FA000000 		.4byte	.LVL245
 6178 1367 1C1C0000 		.4byte	0x1c1c
 6179 136b 79130000 		.4byte	0x1379
 6180 136f 14       		.uleb128 0x14
 6181 1370 01       		.uleb128 0x1
 6182 1371 51       		.byte	0x51
 6183 1372 05       		.uleb128 0x5
 6184 1373 03       		.byte	0x3
 6185 1374 0C000000 		.4byte	.LANCHOR0+12
 6186 1378 00       		.byte	0
 6187 1379 13       		.uleb128 0x13
 6188 137a 08010000 		.4byte	.LVL247
 6189 137e 1C1C0000 		.4byte	0x1c1c
 6190 1382 90130000 		.4byte	0x1390
 6191 1386 14       		.uleb128 0x14
 6192 1387 01       		.uleb128 0x1
 6193 1388 51       		.byte	0x51
 6194 1389 05       		.uleb128 0x5
 6195 138a 03       		.byte	0x3
 6196 138b 50010000 		.4byte	.LANCHOR0+336
 6197 138f 00       		.byte	0
 6198 1390 13       		.uleb128 0x13
 6199 1391 1C010000 		.4byte	.LVL249
 6200 1395 1C1C0000 		.4byte	0x1c1c
 6201 1399 A7130000 		.4byte	0x13a7
 6202 139d 14       		.uleb128 0x14
 6203 139e 01       		.uleb128 0x1
 6204 139f 51       		.byte	0x51
ARM GAS  C:\Users\brian\AppData\Local\Temp\cckfkOf3.s 			page 142


 6205 13a0 05       		.uleb128 0x5
 6206 13a1 03       		.byte	0x3
 6207 13a2 40010000 		.4byte	.LANCHOR0+320
 6208 13a6 00       		.byte	0
 6209 13a7 15       		.uleb128 0x15
 6210 13a8 2E010000 		.4byte	.LVL251
 6211 13ac 281C0000 		.4byte	0x1c28
 6212 13b0 13       		.uleb128 0x13
 6213 13b1 36010000 		.4byte	.LVL252
 6214 13b5 341C0000 		.4byte	0x1c34
 6215 13b9 CA130000 		.4byte	0x13ca
 6216 13bd 14       		.uleb128 0x14
 6217 13be 01       		.uleb128 0x1
 6218 13bf 50       		.byte	0x50
 6219 13c0 02       		.uleb128 0x2
 6220 13c1 76       		.byte	0x76
 6221 13c2 00       		.sleb128 0
 6222 13c3 14       		.uleb128 0x14
 6223 13c4 01       		.uleb128 0x1
 6224 13c5 51       		.byte	0x51
 6225 13c6 02       		.uleb128 0x2
 6226 13c7 08       		.byte	0x8
 6227 13c8 30       		.byte	0x30
 6228 13c9 00       		.byte	0
 6229 13ca 13       		.uleb128 0x13
 6230 13cb 3E010000 		.4byte	.LVL253
 6231 13cf 341C0000 		.4byte	0x1c34
 6232 13d3 E4130000 		.4byte	0x13e4
 6233 13d7 14       		.uleb128 0x14
 6234 13d8 01       		.uleb128 0x1
 6235 13d9 50       		.byte	0x50
 6236 13da 02       		.uleb128 0x2
 6237 13db 76       		.byte	0x76
 6238 13dc 00       		.sleb128 0
 6239 13dd 14       		.uleb128 0x14
 6240 13de 01       		.uleb128 0x1
 6241 13df 51       		.byte	0x51
 6242 13e0 02       		.uleb128 0x2
 6243 13e1 09       		.byte	0x9
 6244 13e2 81       		.byte	0x81
 6245 13e3 00       		.byte	0
 6246 13e4 13       		.uleb128 0x13
 6247 13e5 4A010000 		.4byte	.LVL254
 6248 13e9 401C0000 		.4byte	0x1c40
 6249 13ed 03140000 		.4byte	0x1403
 6250 13f1 14       		.uleb128 0x14
 6251 13f2 01       		.uleb128 0x1
 6252 13f3 50       		.byte	0x50
 6253 13f4 02       		.uleb128 0x2
 6254 13f5 76       		.byte	0x76
 6255 13f6 00       		.sleb128 0
 6256 13f7 14       		.uleb128 0x14
 6257 13f8 01       		.uleb128 0x1
 6258 13f9 51       		.byte	0x51
 6259 13fa 07       		.uleb128 0x7
 6260 13fb 75       		.byte	0x75
 6261 13fc 00       		.sleb128 0
ARM GAS  C:\Users\brian\AppData\Local\Temp\cckfkOf3.s 			page 143


 6262 13fd 31       		.byte	0x31
 6263 13fe 24       		.byte	0x24
 6264 13ff 08       		.byte	0x8
 6265 1400 3E       		.byte	0x3e
 6266 1401 1A       		.byte	0x1a
 6267 1402 00       		.byte	0
 6268 1403 13       		.uleb128 0x13
 6269 1404 52010000 		.4byte	.LVL255
 6270 1408 401C0000 		.4byte	0x1c40
 6271 140c 1F140000 		.4byte	0x141f
 6272 1410 14       		.uleb128 0x14
 6273 1411 01       		.uleb128 0x1
 6274 1412 50       		.byte	0x50
 6275 1413 02       		.uleb128 0x2
 6276 1414 76       		.byte	0x76
 6277 1415 00       		.sleb128 0
 6278 1416 14       		.uleb128 0x14
 6279 1417 01       		.uleb128 0x1
 6280 1418 51       		.byte	0x51
 6281 1419 04       		.uleb128 0x4
 6282 141a 75       		.byte	0x75
 6283 141b 00       		.sleb128 0
 6284 141c 35       		.byte	0x35
 6285 141d 25       		.byte	0x25
 6286 141e 00       		.byte	0
 6287 141f 16       		.uleb128 0x16
 6288 1420 58010000 		.4byte	.LVL256
 6289 1424 4C1C0000 		.4byte	0x1c4c
 6290 1428 14       		.uleb128 0x14
 6291 1429 01       		.uleb128 0x1
 6292 142a 50       		.byte	0x50
 6293 142b 02       		.uleb128 0x2
 6294 142c 76       		.byte	0x76
 6295 142d 00       		.sleb128 0
 6296 142e 00       		.byte	0
 6297 142f 00       		.byte	0
 6298 1430 17       		.uleb128 0x17
 6299 1431 A2010000 		.4byte	.LASF75
 6300 1435 01       		.byte	0x1
 6301 1436 CA05     		.2byte	0x5ca
 6302 1438 8C000000 		.4byte	0x8c
 6303 143c 00000000 		.4byte	.LFB8
 6304 1440 7C010000 		.4byte	.LFE8-.LFB8
 6305 1444 01       		.uleb128 0x1
 6306 1445 9C       		.byte	0x9c
 6307 1446 11170000 		.4byte	0x1711
 6308 144a 18       		.uleb128 0x18
 6309 144b 40060000 		.4byte	.LASF65
 6310 144f 01       		.byte	0x1
 6311 1450 CA05     		.2byte	0x5ca
 6312 1452 43030000 		.4byte	0x343
 6313 1456 2B0E0000 		.4byte	.LLST47
 6314 145a 19       		.uleb128 0x19
 6315 145b 6D736700 		.ascii	"msg\000"
 6316 145f 01       		.byte	0x1
 6317 1460 CA05     		.2byte	0x5ca
 6318 1462 8C000000 		.4byte	0x8c
ARM GAS  C:\Users\brian\AppData\Local\Temp\cckfkOf3.s 			page 144


 6319 1466 070F0000 		.4byte	.LLST48
 6320 146a 18       		.uleb128 0x18
 6321 146b D5020000 		.4byte	.LASF66
 6322 146f 01       		.byte	0x1
 6323 1470 CA05     		.2byte	0x5ca
 6324 1472 8C000000 		.4byte	0x8c
 6325 1476 280F0000 		.4byte	.LLST49
 6326 147a 18       		.uleb128 0x18
 6327 147b 88080000 		.4byte	.LASF67
 6328 147f 01       		.byte	0x1
 6329 1480 CA05     		.2byte	0x5ca
 6330 1482 AD000000 		.4byte	0xad
 6331 1486 19100000 		.4byte	.LLST50
 6332 148a 1A       		.uleb128 0x1a
 6333 148b 7800     		.ascii	"x\000"
 6334 148d 01       		.byte	0x1
 6335 148e CC05     		.2byte	0x5cc
 6336 1490 8C000000 		.4byte	0x8c
 6337 1494 45100000 		.4byte	.LLST51
 6338 1498 1A       		.uleb128 0x1a
 6339 1499 6300     		.ascii	"c\000"
 6340 149b 01       		.byte	0x1
 6341 149c CC05     		.2byte	0x5cc
 6342 149e 8C000000 		.4byte	0x8c
 6343 14a2 6F100000 		.4byte	.LLST52
 6344 14a6 1A       		.uleb128 0x1a
 6345 14a7 70747200 		.ascii	"ptr\000"
 6346 14ab 01       		.byte	0x1
 6347 14ac CD05     		.2byte	0x5cd
 6348 14ae 6E030000 		.4byte	0x36e
 6349 14b2 9A100000 		.4byte	.LLST53
 6350 14b6 15       		.uleb128 0x15
 6351 14b7 22000000 		.4byte	.LVL263
 6352 14bb 281C0000 		.4byte	0x1c28
 6353 14bf 13       		.uleb128 0x13
 6354 14c0 32000000 		.4byte	.LVL267
 6355 14c4 341C0000 		.4byte	0x1c34
 6356 14c8 D9140000 		.4byte	0x14d9
 6357 14cc 14       		.uleb128 0x14
 6358 14cd 01       		.uleb128 0x1
 6359 14ce 50       		.byte	0x50
 6360 14cf 02       		.uleb128 0x2
 6361 14d0 76       		.byte	0x76
 6362 14d1 00       		.sleb128 0
 6363 14d2 14       		.uleb128 0x14
 6364 14d3 01       		.uleb128 0x1
 6365 14d4 51       		.byte	0x51
 6366 14d5 02       		.uleb128 0x2
 6367 14d6 08       		.byte	0x8
 6368 14d7 30       		.byte	0x30
 6369 14d8 00       		.byte	0
 6370 14d9 13       		.uleb128 0x13
 6371 14da 3A000000 		.4byte	.LVL268
 6372 14de 341C0000 		.4byte	0x1c34
 6373 14e2 F3140000 		.4byte	0x14f3
 6374 14e6 14       		.uleb128 0x14
 6375 14e7 01       		.uleb128 0x1
ARM GAS  C:\Users\brian\AppData\Local\Temp\cckfkOf3.s 			page 145


 6376 14e8 50       		.byte	0x50
 6377 14e9 02       		.uleb128 0x2
 6378 14ea 76       		.byte	0x76
 6379 14eb 00       		.sleb128 0
 6380 14ec 14       		.uleb128 0x14
 6381 14ed 01       		.uleb128 0x1
 6382 14ee 51       		.byte	0x51
 6383 14ef 02       		.uleb128 0x2
 6384 14f0 08       		.byte	0x8
 6385 14f1 75       		.byte	0x75
 6386 14f2 00       		.byte	0
 6387 14f3 13       		.uleb128 0x13
 6388 14f4 4E000000 		.4byte	.LVL269
 6389 14f8 401C0000 		.4byte	0x1c40
 6390 14fc 07150000 		.4byte	0x1507
 6391 1500 14       		.uleb128 0x14
 6392 1501 01       		.uleb128 0x1
 6393 1502 50       		.byte	0x50
 6394 1503 02       		.uleb128 0x2
 6395 1504 76       		.byte	0x76
 6396 1505 00       		.sleb128 0
 6397 1506 00       		.byte	0
 6398 1507 13       		.uleb128 0x13
 6399 1508 5A000000 		.4byte	.LVL270
 6400 150c 401C0000 		.4byte	0x1c40
 6401 1510 1B150000 		.4byte	0x151b
 6402 1514 14       		.uleb128 0x14
 6403 1515 01       		.uleb128 0x1
 6404 1516 50       		.byte	0x50
 6405 1517 02       		.uleb128 0x2
 6406 1518 76       		.byte	0x76
 6407 1519 00       		.sleb128 0
 6408 151a 00       		.byte	0
 6409 151b 13       		.uleb128 0x13
 6410 151c 62000000 		.4byte	.LVL271
 6411 1520 401C0000 		.4byte	0x1c40
 6412 1524 35150000 		.4byte	0x1535
 6413 1528 14       		.uleb128 0x14
 6414 1529 01       		.uleb128 0x1
 6415 152a 50       		.byte	0x50
 6416 152b 02       		.uleb128 0x2
 6417 152c 76       		.byte	0x76
 6418 152d 00       		.sleb128 0
 6419 152e 14       		.uleb128 0x14
 6420 152f 01       		.uleb128 0x1
 6421 1530 51       		.byte	0x51
 6422 1531 02       		.uleb128 0x2
 6423 1532 08       		.byte	0x8
 6424 1533 4F       		.byte	0x4f
 6425 1534 00       		.byte	0
 6426 1535 13       		.uleb128 0x13
 6427 1536 6A000000 		.4byte	.LVL272
 6428 153a 341C0000 		.4byte	0x1c34
 6429 153e 4E150000 		.4byte	0x154e
 6430 1542 14       		.uleb128 0x14
 6431 1543 01       		.uleb128 0x1
 6432 1544 50       		.byte	0x50
ARM GAS  C:\Users\brian\AppData\Local\Temp\cckfkOf3.s 			page 146


 6433 1545 02       		.uleb128 0x2
 6434 1546 76       		.byte	0x76
 6435 1547 00       		.sleb128 0
 6436 1548 14       		.uleb128 0x14
 6437 1549 01       		.uleb128 0x1
 6438 154a 51       		.byte	0x51
 6439 154b 01       		.uleb128 0x1
 6440 154c 45       		.byte	0x45
 6441 154d 00       		.byte	0
 6442 154e 13       		.uleb128 0x13
 6443 154f 78000000 		.4byte	.LVL273
 6444 1553 401C0000 		.4byte	0x1c40
 6445 1557 62150000 		.4byte	0x1562
 6446 155b 14       		.uleb128 0x14
 6447 155c 01       		.uleb128 0x1
 6448 155d 50       		.byte	0x50
 6449 155e 02       		.uleb128 0x2
 6450 155f 76       		.byte	0x76
 6451 1560 00       		.sleb128 0
 6452 1561 00       		.byte	0
 6453 1562 13       		.uleb128 0x13
 6454 1563 80000000 		.4byte	.LVL274
 6455 1567 401C0000 		.4byte	0x1c40
 6456 156b 7C150000 		.4byte	0x157c
 6457 156f 14       		.uleb128 0x14
 6458 1570 01       		.uleb128 0x1
 6459 1571 50       		.byte	0x50
 6460 1572 02       		.uleb128 0x2
 6461 1573 76       		.byte	0x76
 6462 1574 00       		.sleb128 0
 6463 1575 14       		.uleb128 0x14
 6464 1576 01       		.uleb128 0x1
 6465 1577 51       		.byte	0x51
 6466 1578 02       		.uleb128 0x2
 6467 1579 09       		.byte	0x9
 6468 157a FF       		.byte	0xff
 6469 157b 00       		.byte	0
 6470 157c 13       		.uleb128 0x13
 6471 157d 88000000 		.4byte	.LVL275
 6472 1581 341C0000 		.4byte	0x1c34
 6473 1585 96150000 		.4byte	0x1596
 6474 1589 14       		.uleb128 0x14
 6475 158a 01       		.uleb128 0x1
 6476 158b 50       		.byte	0x50
 6477 158c 02       		.uleb128 0x2
 6478 158d 76       		.byte	0x76
 6479 158e 00       		.sleb128 0
 6480 158f 14       		.uleb128 0x14
 6481 1590 01       		.uleb128 0x1
 6482 1591 51       		.byte	0x51
 6483 1592 02       		.uleb128 0x2
 6484 1593 08       		.byte	0x8
 6485 1594 5C       		.byte	0x5c
 6486 1595 00       		.byte	0
 6487 1596 13       		.uleb128 0x13
 6488 1597 9E000000 		.4byte	.LVL278
 6489 159b 581C0000 		.4byte	0x1c58
ARM GAS  C:\Users\brian\AppData\Local\Temp\cckfkOf3.s 			page 147


 6490 159f B6150000 		.4byte	0x15b6
 6491 15a3 14       		.uleb128 0x14
 6492 15a4 01       		.uleb128 0x1
 6493 15a5 50       		.byte	0x50
 6494 15a6 02       		.uleb128 0x2
 6495 15a7 76       		.byte	0x76
 6496 15a8 00       		.sleb128 0
 6497 15a9 14       		.uleb128 0x14
 6498 15aa 01       		.uleb128 0x1
 6499 15ab 51       		.byte	0x51
 6500 15ac 02       		.uleb128 0x2
 6501 15ad 09       		.byte	0x9
 6502 15ae F8       		.byte	0xf8
 6503 15af 14       		.uleb128 0x14
 6504 15b0 01       		.uleb128 0x1
 6505 15b1 52       		.byte	0x52
 6506 15b2 02       		.uleb128 0x2
 6507 15b3 77       		.byte	0x77
 6508 15b4 00       		.sleb128 0
 6509 15b5 00       		.byte	0
 6510 15b6 13       		.uleb128 0x13
 6511 15b7 B2000000 		.4byte	.LVL282
 6512 15bb 581C0000 		.4byte	0x1c58
 6513 15bf DB150000 		.4byte	0x15db
 6514 15c3 14       		.uleb128 0x14
 6515 15c4 01       		.uleb128 0x1
 6516 15c5 50       		.byte	0x50
 6517 15c6 02       		.uleb128 0x2
 6518 15c7 76       		.byte	0x76
 6519 15c8 00       		.sleb128 0
 6520 15c9 14       		.uleb128 0x14
 6521 15ca 01       		.uleb128 0x1
 6522 15cb 51       		.byte	0x51
 6523 15cc 07       		.uleb128 0x7
 6524 15cd 74       		.byte	0x74
 6525 15ce 00       		.sleb128 0
 6526 15cf 33       		.byte	0x33
 6527 15d0 24       		.byte	0x24
 6528 15d1 08       		.byte	0x8
 6529 15d2 F8       		.byte	0xf8
 6530 15d3 1A       		.byte	0x1a
 6531 15d4 14       		.uleb128 0x14
 6532 15d5 01       		.uleb128 0x1
 6533 15d6 52       		.byte	0x52
 6534 15d7 02       		.uleb128 0x2
 6535 15d8 77       		.byte	0x77
 6536 15d9 00       		.sleb128 0
 6537 15da 00       		.byte	0
 6538 15db 13       		.uleb128 0x13
 6539 15dc C0000000 		.4byte	.LVL284
 6540 15e0 4C1C0000 		.4byte	0x1c4c
 6541 15e4 EF150000 		.4byte	0x15ef
 6542 15e8 14       		.uleb128 0x14
 6543 15e9 01       		.uleb128 0x1
 6544 15ea 50       		.byte	0x50
 6545 15eb 02       		.uleb128 0x2
 6546 15ec 76       		.byte	0x76
ARM GAS  C:\Users\brian\AppData\Local\Temp\cckfkOf3.s 			page 148


 6547 15ed 00       		.sleb128 0
 6548 15ee 00       		.byte	0
 6549 15ef 13       		.uleb128 0x13
 6550 15f0 CC000000 		.4byte	.LVL286
 6551 15f4 641C0000 		.4byte	0x1c64
 6552 15f8 06160000 		.4byte	0x1606
 6553 15fc 14       		.uleb128 0x14
 6554 15fd 01       		.uleb128 0x1
 6555 15fe 51       		.byte	0x51
 6556 15ff 05       		.uleb128 0x5
 6557 1600 03       		.byte	0x3
 6558 1601 FC030000 		.4byte	.LANCHOR0+1020
 6559 1605 00       		.byte	0
 6560 1606 15       		.uleb128 0x15
 6561 1607 D6000000 		.4byte	.LVL288
 6562 160b 701C0000 		.4byte	0x1c70
 6563 160f 13       		.uleb128 0x13
 6564 1610 DE000000 		.4byte	.LVL289
 6565 1614 1C1C0000 		.4byte	0x1c1c
 6566 1618 2C160000 		.4byte	0x162c
 6567 161c 14       		.uleb128 0x14
 6568 161d 01       		.uleb128 0x1
 6569 161e 50       		.byte	0x50
 6570 161f 02       		.uleb128 0x2
 6571 1620 76       		.byte	0x76
 6572 1621 00       		.sleb128 0
 6573 1622 14       		.uleb128 0x14
 6574 1623 01       		.uleb128 0x1
 6575 1624 51       		.byte	0x51
 6576 1625 05       		.uleb128 0x5
 6577 1626 03       		.byte	0x3
 6578 1627 14040000 		.4byte	.LANCHOR0+1044
 6579 162b 00       		.byte	0
 6580 162c 13       		.uleb128 0x13
 6581 162d EC000000 		.4byte	.LVL291
 6582 1631 1C1C0000 		.4byte	0x1c1c
 6583 1635 43160000 		.4byte	0x1643
 6584 1639 14       		.uleb128 0x14
 6585 163a 01       		.uleb128 0x1
 6586 163b 51       		.byte	0x51
 6587 163c 05       		.uleb128 0x5
 6588 163d 03       		.byte	0x3
 6589 163e 00000000 		.4byte	.LANCHOR0
 6590 1642 00       		.byte	0
 6591 1643 13       		.uleb128 0x13
 6592 1644 F8000000 		.4byte	.LVL293
 6593 1648 1C1C0000 		.4byte	0x1c1c
 6594 164c 5A160000 		.4byte	0x165a
 6595 1650 14       		.uleb128 0x14
 6596 1651 01       		.uleb128 0x1
 6597 1652 51       		.byte	0x51
 6598 1653 05       		.uleb128 0x5
 6599 1654 03       		.byte	0x3
 6600 1655 0C000000 		.4byte	.LANCHOR0+12
 6601 1659 00       		.byte	0
 6602 165a 13       		.uleb128 0x13
 6603 165b 06010000 		.4byte	.LVL295
ARM GAS  C:\Users\brian\AppData\Local\Temp\cckfkOf3.s 			page 149


 6604 165f 1C1C0000 		.4byte	0x1c1c
 6605 1663 71160000 		.4byte	0x1671
 6606 1667 14       		.uleb128 0x14
 6607 1668 01       		.uleb128 0x1
 6608 1669 51       		.byte	0x51
 6609 166a 05       		.uleb128 0x5
 6610 166b 03       		.byte	0x3
 6611 166c 50010000 		.4byte	.LANCHOR0+336
 6612 1670 00       		.byte	0
 6613 1671 13       		.uleb128 0x13
 6614 1672 1A010000 		.4byte	.LVL297
 6615 1676 1C1C0000 		.4byte	0x1c1c
 6616 167a 88160000 		.4byte	0x1688
 6617 167e 14       		.uleb128 0x14
 6618 167f 01       		.uleb128 0x1
 6619 1680 51       		.byte	0x51
 6620 1681 05       		.uleb128 0x5
 6621 1682 03       		.byte	0x3
 6622 1683 40010000 		.4byte	.LANCHOR0+320
 6623 1687 00       		.byte	0
 6624 1688 15       		.uleb128 0x15
 6625 1689 2C010000 		.4byte	.LVL299
 6626 168d 281C0000 		.4byte	0x1c28
 6627 1691 13       		.uleb128 0x13
 6628 1692 34010000 		.4byte	.LVL300
 6629 1696 341C0000 		.4byte	0x1c34
 6630 169a AB160000 		.4byte	0x16ab
 6631 169e 14       		.uleb128 0x14
 6632 169f 01       		.uleb128 0x1
 6633 16a0 50       		.byte	0x50
 6634 16a1 02       		.uleb128 0x2
 6635 16a2 76       		.byte	0x76
 6636 16a3 00       		.sleb128 0
 6637 16a4 14       		.uleb128 0x14
 6638 16a5 01       		.uleb128 0x1
 6639 16a6 51       		.byte	0x51
 6640 16a7 02       		.uleb128 0x2
 6641 16a8 08       		.byte	0x8
 6642 16a9 30       		.byte	0x30
 6643 16aa 00       		.byte	0
 6644 16ab 13       		.uleb128 0x13
 6645 16ac 3C010000 		.4byte	.LVL301
 6646 16b0 341C0000 		.4byte	0x1c34
 6647 16b4 C5160000 		.4byte	0x16c5
 6648 16b8 14       		.uleb128 0x14
 6649 16b9 01       		.uleb128 0x1
 6650 16ba 50       		.byte	0x50
 6651 16bb 02       		.uleb128 0x2
 6652 16bc 76       		.byte	0x76
 6653 16bd 00       		.sleb128 0
 6654 16be 14       		.uleb128 0x14
 6655 16bf 01       		.uleb128 0x1
 6656 16c0 51       		.byte	0x51
 6657 16c1 02       		.uleb128 0x2
 6658 16c2 09       		.byte	0x9
 6659 16c3 81       		.byte	0x81
 6660 16c4 00       		.byte	0
ARM GAS  C:\Users\brian\AppData\Local\Temp\cckfkOf3.s 			page 150


 6661 16c5 13       		.uleb128 0x13
 6662 16c6 48010000 		.4byte	.LVL302
 6663 16ca 401C0000 		.4byte	0x1c40
 6664 16ce E4160000 		.4byte	0x16e4
 6665 16d2 14       		.uleb128 0x14
 6666 16d3 01       		.uleb128 0x1
 6667 16d4 50       		.byte	0x50
 6668 16d5 02       		.uleb128 0x2
 6669 16d6 76       		.byte	0x76
 6670 16d7 00       		.sleb128 0
 6671 16d8 14       		.uleb128 0x14
 6672 16d9 01       		.uleb128 0x1
 6673 16da 51       		.byte	0x51
 6674 16db 07       		.uleb128 0x7
 6675 16dc 75       		.byte	0x75
 6676 16dd 00       		.sleb128 0
 6677 16de 31       		.byte	0x31
 6678 16df 24       		.byte	0x24
 6679 16e0 08       		.byte	0x8
 6680 16e1 3E       		.byte	0x3e
 6681 16e2 1A       		.byte	0x1a
 6682 16e3 00       		.byte	0
 6683 16e4 13       		.uleb128 0x13
 6684 16e5 50010000 		.4byte	.LVL303
 6685 16e9 401C0000 		.4byte	0x1c40
 6686 16ed 00170000 		.4byte	0x1700
 6687 16f1 14       		.uleb128 0x14
 6688 16f2 01       		.uleb128 0x1
 6689 16f3 50       		.byte	0x50
 6690 16f4 02       		.uleb128 0x2
 6691 16f5 76       		.byte	0x76
 6692 16f6 00       		.sleb128 0
 6693 16f7 14       		.uleb128 0x14
 6694 16f8 01       		.uleb128 0x1
 6695 16f9 51       		.byte	0x51
 6696 16fa 04       		.uleb128 0x4
 6697 16fb 75       		.byte	0x75
 6698 16fc 00       		.sleb128 0
 6699 16fd 35       		.byte	0x35
 6700 16fe 25       		.byte	0x25
 6701 16ff 00       		.byte	0
 6702 1700 16       		.uleb128 0x16
 6703 1701 56010000 		.4byte	.LVL304
 6704 1705 4C1C0000 		.4byte	0x1c4c
 6705 1709 14       		.uleb128 0x14
 6706 170a 01       		.uleb128 0x1
 6707 170b 50       		.byte	0x50
 6708 170c 02       		.uleb128 0x2
 6709 170d 76       		.byte	0x76
 6710 170e 00       		.sleb128 0
 6711 170f 00       		.byte	0
 6712 1710 00       		.byte	0
 6713 1711 17       		.uleb128 0x17
 6714 1712 20070000 		.4byte	.LASF76
 6715 1716 01       		.byte	0x1
 6716 1717 8906     		.2byte	0x689
 6717 1719 8C000000 		.4byte	0x8c
ARM GAS  C:\Users\brian\AppData\Local\Temp\cckfkOf3.s 			page 151


 6718 171d 00000000 		.4byte	.LFB9
 6719 1721 74010000 		.4byte	.LFE9-.LFB9
 6720 1725 01       		.uleb128 0x1
 6721 1726 9C       		.byte	0x9c
 6722 1727 C7190000 		.4byte	0x19c7
 6723 172b 18       		.uleb128 0x18
 6724 172c 40060000 		.4byte	.LASF65
 6725 1730 01       		.byte	0x1
 6726 1731 8906     		.2byte	0x689
 6727 1733 43030000 		.4byte	0x343
 6728 1737 AD100000 		.4byte	.LLST54
 6729 173b 19       		.uleb128 0x19
 6730 173c 6D736700 		.ascii	"msg\000"
 6731 1740 01       		.byte	0x1
 6732 1741 8906     		.2byte	0x689
 6733 1743 8C000000 		.4byte	0x8c
 6734 1747 89110000 		.4byte	.LLST55
 6735 174b 18       		.uleb128 0x18
 6736 174c D5020000 		.4byte	.LASF66
 6737 1750 01       		.byte	0x1
 6738 1751 8906     		.2byte	0x689
 6739 1753 8C000000 		.4byte	0x8c
 6740 1757 AA110000 		.4byte	.LLST56
 6741 175b 18       		.uleb128 0x18
 6742 175c 88080000 		.4byte	.LASF67
 6743 1760 01       		.byte	0x1
 6744 1761 8906     		.2byte	0x689
 6745 1763 AD000000 		.4byte	0xad
 6746 1767 90120000 		.4byte	.LLST57
 6747 176b 1A       		.uleb128 0x1a
 6748 176c 7800     		.ascii	"x\000"
 6749 176e 01       		.byte	0x1
 6750 176f 8B06     		.2byte	0x68b
 6751 1771 8C000000 		.4byte	0x8c
 6752 1775 BC120000 		.4byte	.LLST58
 6753 1779 1A       		.uleb128 0x1a
 6754 177a 6300     		.ascii	"c\000"
 6755 177c 01       		.byte	0x1
 6756 177d 8B06     		.2byte	0x68b
 6757 177f 8C000000 		.4byte	0x8c
 6758 1783 E6120000 		.4byte	.LLST59
 6759 1787 1A       		.uleb128 0x1a
 6760 1788 70747200 		.ascii	"ptr\000"
 6761 178c 01       		.byte	0x1
 6762 178d 8C06     		.2byte	0x68c
 6763 178f 6E030000 		.4byte	0x36e
 6764 1793 28130000 		.4byte	.LLST60
 6765 1797 15       		.uleb128 0x15
 6766 1798 22000000 		.4byte	.LVL311
 6767 179c 281C0000 		.4byte	0x1c28
 6768 17a0 13       		.uleb128 0x13
 6769 17a1 32000000 		.4byte	.LVL315
 6770 17a5 341C0000 		.4byte	0x1c34
 6771 17a9 BA170000 		.4byte	0x17ba
 6772 17ad 14       		.uleb128 0x14
 6773 17ae 01       		.uleb128 0x1
 6774 17af 50       		.byte	0x50
ARM GAS  C:\Users\brian\AppData\Local\Temp\cckfkOf3.s 			page 152


 6775 17b0 02       		.uleb128 0x2
 6776 17b1 76       		.byte	0x76
 6777 17b2 00       		.sleb128 0
 6778 17b3 14       		.uleb128 0x14
 6779 17b4 01       		.uleb128 0x1
 6780 17b5 51       		.byte	0x51
 6781 17b6 02       		.uleb128 0x2
 6782 17b7 08       		.byte	0x8
 6783 17b8 30       		.byte	0x30
 6784 17b9 00       		.byte	0
 6785 17ba 13       		.uleb128 0x13
 6786 17bb 3A000000 		.4byte	.LVL316
 6787 17bf 341C0000 		.4byte	0x1c34
 6788 17c3 D4170000 		.4byte	0x17d4
 6789 17c7 14       		.uleb128 0x14
 6790 17c8 01       		.uleb128 0x1
 6791 17c9 50       		.byte	0x50
 6792 17ca 02       		.uleb128 0x2
 6793 17cb 76       		.byte	0x76
 6794 17cc 00       		.sleb128 0
 6795 17cd 14       		.uleb128 0x14
 6796 17ce 01       		.uleb128 0x1
 6797 17cf 51       		.byte	0x51
 6798 17d0 02       		.uleb128 0x2
 6799 17d1 08       		.byte	0x8
 6800 17d2 75       		.byte	0x75
 6801 17d3 00       		.byte	0
 6802 17d4 13       		.uleb128 0x13
 6803 17d5 4C000000 		.4byte	.LVL317
 6804 17d9 401C0000 		.4byte	0x1c40
 6805 17dd E8170000 		.4byte	0x17e8
 6806 17e1 14       		.uleb128 0x14
 6807 17e2 01       		.uleb128 0x1
 6808 17e3 50       		.byte	0x50
 6809 17e4 02       		.uleb128 0x2
 6810 17e5 76       		.byte	0x76
 6811 17e6 00       		.sleb128 0
 6812 17e7 00       		.byte	0
 6813 17e8 13       		.uleb128 0x13
 6814 17e9 5A000000 		.4byte	.LVL318
 6815 17ed 401C0000 		.4byte	0x1c40
 6816 17f1 FC170000 		.4byte	0x17fc
 6817 17f5 14       		.uleb128 0x14
 6818 17f6 01       		.uleb128 0x1
 6819 17f7 50       		.byte	0x50
 6820 17f8 02       		.uleb128 0x2
 6821 17f9 76       		.byte	0x76
 6822 17fa 00       		.sleb128 0
 6823 17fb 00       		.byte	0
 6824 17fc 13       		.uleb128 0x13
 6825 17fd 62000000 		.4byte	.LVL319
 6826 1801 401C0000 		.4byte	0x1c40
 6827 1805 16180000 		.4byte	0x1816
 6828 1809 14       		.uleb128 0x14
 6829 180a 01       		.uleb128 0x1
 6830 180b 50       		.byte	0x50
 6831 180c 02       		.uleb128 0x2
ARM GAS  C:\Users\brian\AppData\Local\Temp\cckfkOf3.s 			page 153


 6832 180d 76       		.byte	0x76
 6833 180e 00       		.sleb128 0
 6834 180f 14       		.uleb128 0x14
 6835 1810 01       		.uleb128 0x1
 6836 1811 51       		.byte	0x51
 6837 1812 02       		.uleb128 0x2
 6838 1813 08       		.byte	0x8
 6839 1814 4F       		.byte	0x4f
 6840 1815 00       		.byte	0
 6841 1816 13       		.uleb128 0x13
 6842 1817 6A000000 		.4byte	.LVL320
 6843 181b 341C0000 		.4byte	0x1c34
 6844 181f 2F180000 		.4byte	0x182f
 6845 1823 14       		.uleb128 0x14
 6846 1824 01       		.uleb128 0x1
 6847 1825 50       		.byte	0x50
 6848 1826 02       		.uleb128 0x2
 6849 1827 76       		.byte	0x76
 6850 1828 00       		.sleb128 0
 6851 1829 14       		.uleb128 0x14
 6852 182a 01       		.uleb128 0x1
 6853 182b 51       		.byte	0x51
 6854 182c 01       		.uleb128 0x1
 6855 182d 45       		.byte	0x45
 6856 182e 00       		.byte	0
 6857 182f 13       		.uleb128 0x13
 6858 1830 78000000 		.4byte	.LVL321
 6859 1834 401C0000 		.4byte	0x1c40
 6860 1838 43180000 		.4byte	0x1843
 6861 183c 14       		.uleb128 0x14
 6862 183d 01       		.uleb128 0x1
 6863 183e 50       		.byte	0x50
 6864 183f 02       		.uleb128 0x2
 6865 1840 76       		.byte	0x76
 6866 1841 00       		.sleb128 0
 6867 1842 00       		.byte	0
 6868 1843 13       		.uleb128 0x13
 6869 1844 80000000 		.4byte	.LVL322
 6870 1848 401C0000 		.4byte	0x1c40
 6871 184c 5D180000 		.4byte	0x185d
 6872 1850 14       		.uleb128 0x14
 6873 1851 01       		.uleb128 0x1
 6874 1852 50       		.byte	0x50
 6875 1853 02       		.uleb128 0x2
 6876 1854 76       		.byte	0x76
 6877 1855 00       		.sleb128 0
 6878 1856 14       		.uleb128 0x14
 6879 1857 01       		.uleb128 0x1
 6880 1858 51       		.byte	0x51
 6881 1859 02       		.uleb128 0x2
 6882 185a 09       		.byte	0x9
 6883 185b FF       		.byte	0xff
 6884 185c 00       		.byte	0
 6885 185d 13       		.uleb128 0x13
 6886 185e 88000000 		.4byte	.LVL323
 6887 1862 341C0000 		.4byte	0x1c34
 6888 1866 77180000 		.4byte	0x1877
ARM GAS  C:\Users\brian\AppData\Local\Temp\cckfkOf3.s 			page 154


 6889 186a 14       		.uleb128 0x14
 6890 186b 01       		.uleb128 0x1
 6891 186c 50       		.byte	0x50
 6892 186d 02       		.uleb128 0x2
 6893 186e 76       		.byte	0x76
 6894 186f 00       		.sleb128 0
 6895 1870 14       		.uleb128 0x14
 6896 1871 01       		.uleb128 0x1
 6897 1872 51       		.byte	0x51
 6898 1873 02       		.uleb128 0x2
 6899 1874 08       		.byte	0x8
 6900 1875 5C       		.byte	0x5c
 6901 1876 00       		.byte	0
 6902 1877 13       		.uleb128 0x13
 6903 1878 A6000000 		.4byte	.LVL330
 6904 187c 581C0000 		.4byte	0x1c58
 6905 1880 91180000 		.4byte	0x1891
 6906 1884 14       		.uleb128 0x14
 6907 1885 01       		.uleb128 0x1
 6908 1886 50       		.byte	0x50
 6909 1887 02       		.uleb128 0x2
 6910 1888 76       		.byte	0x76
 6911 1889 00       		.sleb128 0
 6912 188a 14       		.uleb128 0x14
 6913 188b 01       		.uleb128 0x1
 6914 188c 51       		.byte	0x51
 6915 188d 02       		.uleb128 0x2
 6916 188e 74       		.byte	0x74
 6917 188f 00       		.sleb128 0
 6918 1890 00       		.byte	0
 6919 1891 13       		.uleb128 0x13
 6920 1892 BA000000 		.4byte	.LVL335
 6921 1896 4C1C0000 		.4byte	0x1c4c
 6922 189a A5180000 		.4byte	0x18a5
 6923 189e 14       		.uleb128 0x14
 6924 189f 01       		.uleb128 0x1
 6925 18a0 50       		.byte	0x50
 6926 18a1 02       		.uleb128 0x2
 6927 18a2 76       		.byte	0x76
 6928 18a3 00       		.sleb128 0
 6929 18a4 00       		.byte	0
 6930 18a5 13       		.uleb128 0x13
 6931 18a6 C6000000 		.4byte	.LVL337
 6932 18aa 641C0000 		.4byte	0x1c64
 6933 18ae BC180000 		.4byte	0x18bc
 6934 18b2 14       		.uleb128 0x14
 6935 18b3 01       		.uleb128 0x1
 6936 18b4 51       		.byte	0x51
 6937 18b5 05       		.uleb128 0x5
 6938 18b6 03       		.byte	0x3
 6939 18b7 80040000 		.4byte	.LANCHOR0+1152
 6940 18bb 00       		.byte	0
 6941 18bc 15       		.uleb128 0x15
 6942 18bd D0000000 		.4byte	.LVL339
 6943 18c1 701C0000 		.4byte	0x1c70
 6944 18c5 13       		.uleb128 0x13
 6945 18c6 D8000000 		.4byte	.LVL340
ARM GAS  C:\Users\brian\AppData\Local\Temp\cckfkOf3.s 			page 155


 6946 18ca 1C1C0000 		.4byte	0x1c1c
 6947 18ce E2180000 		.4byte	0x18e2
 6948 18d2 14       		.uleb128 0x14
 6949 18d3 01       		.uleb128 0x1
 6950 18d4 50       		.byte	0x50
 6951 18d5 02       		.uleb128 0x2
 6952 18d6 76       		.byte	0x76
 6953 18d7 00       		.sleb128 0
 6954 18d8 14       		.uleb128 0x14
 6955 18d9 01       		.uleb128 0x1
 6956 18da 51       		.byte	0x51
 6957 18db 05       		.uleb128 0x5
 6958 18dc 03       		.byte	0x3
 6959 18dd 98040000 		.4byte	.LANCHOR0+1176
 6960 18e1 00       		.byte	0
 6961 18e2 13       		.uleb128 0x13
 6962 18e3 E6000000 		.4byte	.LVL342
 6963 18e7 1C1C0000 		.4byte	0x1c1c
 6964 18eb F9180000 		.4byte	0x18f9
 6965 18ef 14       		.uleb128 0x14
 6966 18f0 01       		.uleb128 0x1
 6967 18f1 51       		.byte	0x51
 6968 18f2 05       		.uleb128 0x5
 6969 18f3 03       		.byte	0x3
 6970 18f4 00000000 		.4byte	.LANCHOR0
 6971 18f8 00       		.byte	0
 6972 18f9 13       		.uleb128 0x13
 6973 18fa F2000000 		.4byte	.LVL344
 6974 18fe 1C1C0000 		.4byte	0x1c1c
 6975 1902 10190000 		.4byte	0x1910
 6976 1906 14       		.uleb128 0x14
 6977 1907 01       		.uleb128 0x1
 6978 1908 51       		.byte	0x51
 6979 1909 05       		.uleb128 0x5
 6980 190a 03       		.byte	0x3
 6981 190b 0C000000 		.4byte	.LANCHOR0+12
 6982 190f 00       		.byte	0
 6983 1910 13       		.uleb128 0x13
 6984 1911 00010000 		.4byte	.LVL346
 6985 1915 1C1C0000 		.4byte	0x1c1c
 6986 1919 27190000 		.4byte	0x1927
 6987 191d 14       		.uleb128 0x14
 6988 191e 01       		.uleb128 0x1
 6989 191f 51       		.byte	0x51
 6990 1920 05       		.uleb128 0x5
 6991 1921 03       		.byte	0x3
 6992 1922 70030000 		.4byte	.LANCHOR0+880
 6993 1926 00       		.byte	0
 6994 1927 13       		.uleb128 0x13
 6995 1928 14010000 		.4byte	.LVL348
 6996 192c 1C1C0000 		.4byte	0x1c1c
 6997 1930 3E190000 		.4byte	0x193e
 6998 1934 14       		.uleb128 0x14
 6999 1935 01       		.uleb128 0x1
 7000 1936 51       		.byte	0x51
 7001 1937 05       		.uleb128 0x5
 7002 1938 03       		.byte	0x3
ARM GAS  C:\Users\brian\AppData\Local\Temp\cckfkOf3.s 			page 156


 7003 1939 80030000 		.4byte	.LANCHOR0+896
 7004 193d 00       		.byte	0
 7005 193e 15       		.uleb128 0x15
 7006 193f 26010000 		.4byte	.LVL350
 7007 1943 281C0000 		.4byte	0x1c28
 7008 1947 13       		.uleb128 0x13
 7009 1948 2E010000 		.4byte	.LVL351
 7010 194c 341C0000 		.4byte	0x1c34
 7011 1950 61190000 		.4byte	0x1961
 7012 1954 14       		.uleb128 0x14
 7013 1955 01       		.uleb128 0x1
 7014 1956 50       		.byte	0x50
 7015 1957 02       		.uleb128 0x2
 7016 1958 76       		.byte	0x76
 7017 1959 00       		.sleb128 0
 7018 195a 14       		.uleb128 0x14
 7019 195b 01       		.uleb128 0x1
 7020 195c 51       		.byte	0x51
 7021 195d 02       		.uleb128 0x2
 7022 195e 08       		.byte	0x8
 7023 195f 30       		.byte	0x30
 7024 1960 00       		.byte	0
 7025 1961 13       		.uleb128 0x13
 7026 1962 36010000 		.4byte	.LVL352
 7027 1966 341C0000 		.4byte	0x1c34
 7028 196a 7B190000 		.4byte	0x197b
 7029 196e 14       		.uleb128 0x14
 7030 196f 01       		.uleb128 0x1
 7031 1970 50       		.byte	0x50
 7032 1971 02       		.uleb128 0x2
 7033 1972 76       		.byte	0x76
 7034 1973 00       		.sleb128 0
 7035 1974 14       		.uleb128 0x14
 7036 1975 01       		.uleb128 0x1
 7037 1976 51       		.byte	0x51
 7038 1977 02       		.uleb128 0x2
 7039 1978 09       		.byte	0x9
 7040 1979 81       		.byte	0x81
 7041 197a 00       		.byte	0
 7042 197b 13       		.uleb128 0x13
 7043 197c 42010000 		.4byte	.LVL353
 7044 1980 401C0000 		.4byte	0x1c40
 7045 1984 9A190000 		.4byte	0x199a
 7046 1988 14       		.uleb128 0x14
 7047 1989 01       		.uleb128 0x1
 7048 198a 50       		.byte	0x50
 7049 198b 02       		.uleb128 0x2
 7050 198c 76       		.byte	0x76
 7051 198d 00       		.sleb128 0
 7052 198e 14       		.uleb128 0x14
 7053 198f 01       		.uleb128 0x1
 7054 1990 51       		.byte	0x51
 7055 1991 07       		.uleb128 0x7
 7056 1992 75       		.byte	0x75
 7057 1993 00       		.sleb128 0
 7058 1994 31       		.byte	0x31
 7059 1995 24       		.byte	0x24
ARM GAS  C:\Users\brian\AppData\Local\Temp\cckfkOf3.s 			page 157


 7060 1996 08       		.byte	0x8
 7061 1997 3E       		.byte	0x3e
 7062 1998 1A       		.byte	0x1a
 7063 1999 00       		.byte	0
 7064 199a 13       		.uleb128 0x13
 7065 199b 4A010000 		.4byte	.LVL354
 7066 199f 401C0000 		.4byte	0x1c40
 7067 19a3 B6190000 		.4byte	0x19b6
 7068 19a7 14       		.uleb128 0x14
 7069 19a8 01       		.uleb128 0x1
 7070 19a9 50       		.byte	0x50
 7071 19aa 02       		.uleb128 0x2
 7072 19ab 76       		.byte	0x76
 7073 19ac 00       		.sleb128 0
 7074 19ad 14       		.uleb128 0x14
 7075 19ae 01       		.uleb128 0x1
 7076 19af 51       		.byte	0x51
 7077 19b0 04       		.uleb128 0x4
 7078 19b1 75       		.byte	0x75
 7079 19b2 00       		.sleb128 0
 7080 19b3 35       		.byte	0x35
 7081 19b4 25       		.byte	0x25
 7082 19b5 00       		.byte	0
 7083 19b6 16       		.uleb128 0x16
 7084 19b7 50010000 		.4byte	.LVL355
 7085 19bb 4C1C0000 		.4byte	0x1c4c
 7086 19bf 14       		.uleb128 0x14
 7087 19c0 01       		.uleb128 0x1
 7088 19c1 50       		.byte	0x50
 7089 19c2 02       		.uleb128 0x2
 7090 19c3 76       		.byte	0x76
 7091 19c4 00       		.sleb128 0
 7092 19c5 00       		.byte	0
 7093 19c6 00       		.byte	0
 7094 19c7 1B       		.uleb128 0x1b
 7095 19c8 85030000 		.4byte	0x385
 7096 19cc D7190000 		.4byte	0x19d7
 7097 19d0 1C       		.uleb128 0x1c
 7098 19d1 D7190000 		.4byte	0x19d7
 7099 19d5 0A       		.byte	0xa
 7100 19d6 00       		.byte	0
 7101 19d7 02       		.uleb128 0x2
 7102 19d8 04       		.byte	0x4
 7103 19d9 07       		.byte	0x7
 7104 19da 9A040000 		.4byte	.LASF77
 7105 19de 1D       		.uleb128 0x1d
 7106 19df 82020000 		.4byte	.LASF78
 7107 19e3 01       		.byte	0x1
 7108 19e4 41       		.byte	0x41
 7109 19e5 EF190000 		.4byte	0x19ef
 7110 19e9 05       		.uleb128 0x5
 7111 19ea 03       		.byte	0x3
 7112 19eb 00000000 		.4byte	u8x8_d_st75256_256x128_powersave0_seq
 7113 19ef 0E       		.uleb128 0xe
 7114 19f0 C7190000 		.4byte	0x19c7
 7115 19f4 1B       		.uleb128 0x1b
 7116 19f5 85030000 		.4byte	0x385
ARM GAS  C:\Users\brian\AppData\Local\Temp\cckfkOf3.s 			page 158


 7117 19f9 041A0000 		.4byte	0x1a04
 7118 19fd 1C       		.uleb128 0x1c
 7119 19fe D7190000 		.4byte	0x19d7
 7120 1a02 08       		.byte	0x8
 7121 1a03 00       		.byte	0
 7122 1a04 1D       		.uleb128 0x1d
 7123 1a05 FB020000 		.4byte	.LASF79
 7124 1a09 01       		.byte	0x1
 7125 1a0a 4B       		.byte	0x4b
 7126 1a0b 151A0000 		.4byte	0x1a15
 7127 1a0f 05       		.uleb128 0x5
 7128 1a10 03       		.byte	0x3
 7129 1a11 0C000000 		.4byte	u8x8_d_st75256_256x128_powersave1_seq
 7130 1a15 0E       		.uleb128 0xe
 7131 1a16 F4190000 		.4byte	0x19f4
 7132 1a1a 1B       		.uleb128 0x1b
 7133 1a1b 85030000 		.4byte	0x385
 7134 1a1f 2A1A0000 		.4byte	0x1a2a
 7135 1a23 1C       		.uleb128 0x1c
 7136 1a24 D7190000 		.4byte	0x19d7
 7137 1a28 0C       		.byte	0xc
 7138 1a29 00       		.byte	0
 7139 1a2a 1D       		.uleb128 0x1d
 7140 1a2b 6B030000 		.4byte	.LASF80
 7141 1a2f 01       		.byte	0x1
 7142 1a30 54       		.byte	0x54
 7143 1a31 3B1A0000 		.4byte	0x1a3b
 7144 1a35 05       		.uleb128 0x5
 7145 1a36 03       		.byte	0x3
 7146 1a37 9C000000 		.4byte	u8x8_d_st75256_jlx256128_flip0_seq
 7147 1a3b 0E       		.uleb128 0xe
 7148 1a3c 1A1A0000 		.4byte	0x1a1a
 7149 1a40 1D       		.uleb128 0x1d
 7150 1a41 10050000 		.4byte	.LASF81
 7151 1a45 01       		.byte	0x1
 7152 1a46 60       		.byte	0x60
 7153 1a47 511A0000 		.4byte	0x1a51
 7154 1a4b 05       		.uleb128 0x5
 7155 1a4c 03       		.byte	0x3
 7156 1a4d AC000000 		.4byte	u8x8_d_st75256_jlx256128_flip1_seq
 7157 1a51 0E       		.uleb128 0xe
 7158 1a52 1A1A0000 		.4byte	0x1a1a
 7159 1a56 1D       		.uleb128 0x1d
 7160 1a57 1D080000 		.4byte	.LASF82
 7161 1a5b 01       		.byte	0x1
 7162 1a5c 6C       		.byte	0x6c
 7163 1a5d 671A0000 		.4byte	0x1a67
 7164 1a61 05       		.uleb128 0x5
 7165 1a62 03       		.byte	0x3
 7166 1a63 50010000 		.4byte	u8x8_d_st75256_jlx172104_flip0_seq
 7167 1a67 0E       		.uleb128 0xe
 7168 1a68 1A1A0000 		.4byte	0x1a1a
 7169 1a6c 1D       		.uleb128 0x1d
 7170 1a6d 77040000 		.4byte	.LASF83
 7171 1a71 01       		.byte	0x1
 7172 1a72 78       		.byte	0x78
 7173 1a73 7D1A0000 		.4byte	0x1a7d
ARM GAS  C:\Users\brian\AppData\Local\Temp\cckfkOf3.s 			page 159


 7174 1a77 05       		.uleb128 0x5
 7175 1a78 03       		.byte	0x3
 7176 1a79 40010000 		.4byte	u8x8_d_st75256_jlx172104_flip1_seq
 7177 1a7d 0E       		.uleb128 0xe
 7178 1a7e 1A1A0000 		.4byte	0x1a1a
 7179 1a82 1D       		.uleb128 0x1d
 7180 1a83 A8080000 		.4byte	.LASF84
 7181 1a87 01       		.byte	0x1
 7182 1a88 84       		.byte	0x84
 7183 1a89 931A0000 		.4byte	0x1a93
 7184 1a8d 05       		.uleb128 0x5
 7185 1a8e 03       		.byte	0x3
 7186 1a8f 70030000 		.4byte	u8x8_d_st75256_jlx256160_flip0_seq
 7187 1a93 0E       		.uleb128 0xe
 7188 1a94 1A1A0000 		.4byte	0x1a1a
 7189 1a98 1D       		.uleb128 0x1d
 7190 1a99 CD040000 		.4byte	.LASF85
 7191 1a9d 01       		.byte	0x1
 7192 1a9e 90       		.byte	0x90
 7193 1a9f A91A0000 		.4byte	0x1aa9
 7194 1aa3 05       		.uleb128 0x5
 7195 1aa4 03       		.byte	0x3
 7196 1aa5 80030000 		.4byte	u8x8_d_st75256_jlx256160_flip1_seq
 7197 1aa9 0E       		.uleb128 0xe
 7198 1aaa 1A1A0000 		.4byte	0x1a1a
 7199 1aae 1D       		.uleb128 0x1d
 7200 1aaf B9030000 		.4byte	.LASF86
 7201 1ab3 01       		.byte	0x1
 7202 1ab4 ED       		.byte	0xed
 7203 1ab5 7A030000 		.4byte	0x37a
 7204 1ab9 05       		.uleb128 0x5
 7205 1aba 03       		.byte	0x3
 7206 1abb 18000000 		.4byte	u8x8_st75256_256x128_display_info
 7207 1abf 1B       		.uleb128 0x1b
 7208 1ac0 85030000 		.4byte	0x385
 7209 1ac4 CF1A0000 		.4byte	0x1acf
 7210 1ac8 1C       		.uleb128 0x1c
 7211 1ac9 D7190000 		.4byte	0x19d7
 7212 1acd 68       		.byte	0x68
 7213 1ace 00       		.byte	0
 7214 1acf 1E       		.uleb128 0x1e
 7215 1ad0 FC050000 		.4byte	.LASF87
 7216 1ad4 01       		.byte	0x1
 7217 1ad5 0601     		.2byte	0x106
 7218 1ad7 E11A0000 		.4byte	0x1ae1
 7219 1adb 05       		.uleb128 0x5
 7220 1adc 03       		.byte	0x3
 7221 1add 30000000 		.4byte	u8x8_d_st75256_256x128_init_seq
 7222 1ae1 0E       		.uleb128 0xe
 7223 1ae2 BF1A0000 		.4byte	0x1abf
 7224 1ae6 1E       		.uleb128 0x1e
 7225 1ae7 2D010000 		.4byte	.LASF88
 7226 1aeb 01       		.byte	0x1
 7227 1aec 7401     		.2byte	0x174
 7228 1aee 7A030000 		.4byte	0x37a
 7229 1af2 05       		.uleb128 0x5
 7230 1af3 03       		.byte	0x3
ARM GAS  C:\Users\brian\AppData\Local\Temp\cckfkOf3.s 			page 160


 7231 1af4 BC000000 		.4byte	u8x8_st75256_wo256x128_display_info
 7232 1af8 1E       		.uleb128 0x1e
 7233 1af9 51050000 		.4byte	.LASF89
 7234 1afd 01       		.byte	0x1
 7235 1afe 8D01     		.2byte	0x18d
 7236 1b00 0A1B0000 		.4byte	0x1b0a
 7237 1b04 05       		.uleb128 0x5
 7238 1b05 03       		.byte	0x3
 7239 1b06 D4000000 		.4byte	u8x8_d_st75256_wo256x128_init_seq
 7240 1b0a 0E       		.uleb128 0xe
 7241 1b0b BF1A0000 		.4byte	0x1abf
 7242 1b0f 1E       		.uleb128 0x1e
 7243 1b10 9C070000 		.4byte	.LASF90
 7244 1b14 01       		.byte	0x1
 7245 1b15 FA01     		.2byte	0x1fa
 7246 1b17 7A030000 		.4byte	0x37a
 7247 1b1b 05       		.uleb128 0x5
 7248 1b1c 03       		.byte	0x3
 7249 1b1d 60010000 		.4byte	u8x8_st75256_256x64_display_info
 7250 1b21 1E       		.uleb128 0x1e
 7251 1b22 28090000 		.4byte	.LASF91
 7252 1b26 01       		.byte	0x1
 7253 1b27 1302     		.2byte	0x213
 7254 1b29 331B0000 		.4byte	0x1b33
 7255 1b2d 05       		.uleb128 0x5
 7256 1b2e 03       		.byte	0x3
 7257 1b2f 78010000 		.4byte	u8x8_d_st75256_256x64_init_seq
 7258 1b33 0E       		.uleb128 0xe
 7259 1b34 BF1A0000 		.4byte	0x1abf
 7260 1b38 1E       		.uleb128 0x1e
 7261 1b39 60090000 		.4byte	.LASF92
 7262 1b3d 01       		.byte	0x1
 7263 1b3e 8002     		.2byte	0x280
 7264 1b40 7A030000 		.4byte	0x37a
 7265 1b44 05       		.uleb128 0x5
 7266 1b45 03       		.byte	0x3
 7267 1b46 E4010000 		.4byte	u8x8_st75256_172x104_display_info
 7268 1b4a 1E       		.uleb128 0x1e
 7269 1b4b 51010000 		.4byte	.LASF93
 7270 1b4f 01       		.byte	0x1
 7271 1b50 9802     		.2byte	0x298
 7272 1b52 5C1B0000 		.4byte	0x1b5c
 7273 1b56 05       		.uleb128 0x5
 7274 1b57 03       		.byte	0x3
 7275 1b58 FC010000 		.4byte	u8x8_d_st75256_jlx172104_init_seq
 7276 1b5c 0E       		.uleb128 0xe
 7277 1b5d BF1A0000 		.4byte	0x1abf
 7278 1b61 1E       		.uleb128 0x1e
 7279 1b62 DB030000 		.4byte	.LASF94
 7280 1b66 01       		.byte	0x1
 7281 1b67 3F03     		.2byte	0x33f
 7282 1b69 7A030000 		.4byte	0x37a
 7283 1b6d 05       		.uleb128 0x5
 7284 1b6e 03       		.byte	0x3
 7285 1b6f 68020000 		.4byte	u8x8_st75256_240x160_display_info
 7286 1b73 1E       		.uleb128 0x1e
 7287 1b74 EF010000 		.4byte	.LASF95
ARM GAS  C:\Users\brian\AppData\Local\Temp\cckfkOf3.s 			page 161


 7288 1b78 01       		.byte	0x1
 7289 1b79 5803     		.2byte	0x358
 7290 1b7b 851B0000 		.4byte	0x1b85
 7291 1b7f 05       		.uleb128 0x5
 7292 1b80 03       		.byte	0x3
 7293 1b81 80020000 		.4byte	u8x8_d_st75256_240x160_init_seq
 7294 1b85 0E       		.uleb128 0xe
 7295 1b86 BF1A0000 		.4byte	0x1abf
 7296 1b8a 1E       		.uleb128 0x1e
 7297 1b8b 29040000 		.4byte	.LASF96
 7298 1b8f 01       		.byte	0x1
 7299 1b90 0204     		.2byte	0x402
 7300 1b92 7A030000 		.4byte	0x37a
 7301 1b96 05       		.uleb128 0x5
 7302 1b97 03       		.byte	0x3
 7303 1b98 EC020000 		.4byte	u8x8_st75256_256x160_display_info
 7304 1b9c 1E       		.uleb128 0x1e
 7305 1b9d 39030000 		.4byte	.LASF97
 7306 1ba1 01       		.byte	0x1
 7307 1ba2 1B04     		.2byte	0x41b
 7308 1ba4 AE1B0000 		.4byte	0x1bae
 7309 1ba8 05       		.uleb128 0x5
 7310 1ba9 03       		.byte	0x3
 7311 1baa 04030000 		.4byte	u8x8_d_st75256_256x160_init_seq
 7312 1bae 0E       		.uleb128 0xe
 7313 1baf BF1A0000 		.4byte	0x1abf
 7314 1bb3 1E       		.uleb128 0x1e
 7315 1bb4 73050000 		.4byte	.LASF98
 7316 1bb8 01       		.byte	0x1
 7317 1bb9 C204     		.2byte	0x4c2
 7318 1bbb C51B0000 		.4byte	0x1bc5
 7319 1bbf 05       		.uleb128 0x5
 7320 1bc0 03       		.byte	0x3
 7321 1bc1 90030000 		.4byte	u8x8_d_st75256_256x160m_init_seq
 7322 1bc5 0E       		.uleb128 0xe
 7323 1bc6 BF1A0000 		.4byte	0x1abf
 7324 1bca 1E       		.uleb128 0x1e
 7325 1bcb D6050000 		.4byte	.LASF99
 7326 1bcf 01       		.byte	0x1
 7327 1bd0 6905     		.2byte	0x569
 7328 1bd2 7A030000 		.4byte	0x37a
 7329 1bd6 05       		.uleb128 0x5
 7330 1bd7 03       		.byte	0x3
 7331 1bd8 FC030000 		.4byte	u8x8_st75256_256x160_alt_display_info
 7332 1bdc 1E       		.uleb128 0x1e
 7333 1bdd 00000000 		.4byte	.LASF100
 7334 1be1 01       		.byte	0x1
 7335 1be2 8205     		.2byte	0x582
 7336 1be4 EE1B0000 		.4byte	0x1bee
 7337 1be8 05       		.uleb128 0x5
 7338 1be9 03       		.byte	0x3
 7339 1bea 14040000 		.4byte	u8x8_d_st75256_256x160_alt_init_seq
 7340 1bee 0E       		.uleb128 0xe
 7341 1bef BF1A0000 		.4byte	0x1abf
 7342 1bf3 1E       		.uleb128 0x1e
 7343 1bf4 45060000 		.4byte	.LASF101
 7344 1bf8 01       		.byte	0x1
ARM GAS  C:\Users\brian\AppData\Local\Temp\cckfkOf3.s 			page 162


 7345 1bf9 2906     		.2byte	0x629
 7346 1bfb 7A030000 		.4byte	0x37a
 7347 1bff 05       		.uleb128 0x5
 7348 1c00 03       		.byte	0x3
 7349 1c01 80040000 		.4byte	u8x8_st75256_192x96_display_info
 7350 1c05 1E       		.uleb128 0x1e
 7351 1c06 FC070000 		.4byte	.LASF102
 7352 1c0a 01       		.byte	0x1
 7353 1c0b 4106     		.2byte	0x641
 7354 1c0d 171C0000 		.4byte	0x1c17
 7355 1c11 05       		.uleb128 0x5
 7356 1c12 03       		.byte	0x3
 7357 1c13 98040000 		.4byte	u8x8_d_st75256_jlx19296_init_seq
 7358 1c17 0E       		.uleb128 0xe
 7359 1c18 BF1A0000 		.4byte	0x1abf
 7360 1c1c 1F       		.uleb128 0x1f
 7361 1c1d 73010000 		.4byte	.LASF103
 7362 1c21 73010000 		.4byte	.LASF103
 7363 1c25 04       		.byte	0x4
 7364 1c26 8A02     		.2byte	0x28a
 7365 1c28 1F       		.uleb128 0x1f
 7366 1c29 56070000 		.4byte	.LASF104
 7367 1c2d 56070000 		.4byte	.LASF104
 7368 1c31 04       		.byte	0x4
 7369 1c32 6B02     		.2byte	0x26b
 7370 1c34 1F       		.uleb128 0x1f
 7371 1c35 17090000 		.4byte	.LASF105
 7372 1c39 17090000 		.4byte	.LASF105
 7373 1c3d 04       		.byte	0x4
 7374 1c3e 6702     		.2byte	0x267
 7375 1c40 1F       		.uleb128 0x1f
 7376 1c41 82090000 		.4byte	.LASF106
 7377 1c45 82090000 		.4byte	.LASF106
 7378 1c49 04       		.byte	0x4
 7379 1c4a 6802     		.2byte	0x268
 7380 1c4c 1F       		.uleb128 0x1f
 7381 1c4d BD070000 		.4byte	.LASF107
 7382 1c51 BD070000 		.4byte	.LASF107
 7383 1c55 04       		.byte	0x4
 7384 1c56 6C02     		.2byte	0x26c
 7385 1c58 1F       		.uleb128 0x1f
 7386 1c59 59030000 		.4byte	.LASF108
 7387 1c5d 59030000 		.4byte	.LASF108
 7388 1c61 04       		.byte	0x4
 7389 1c62 6A02     		.2byte	0x26a
 7390 1c64 1F       		.uleb128 0x1f
 7391 1c65 59020000 		.4byte	.LASF109
 7392 1c69 59020000 		.4byte	.LASF109
 7393 1c6d 04       		.byte	0x4
 7394 1c6e AE01     		.2byte	0x1ae
 7395 1c70 1F       		.uleb128 0x1f
 7396 1c71 8C000000 		.4byte	.LASF110
 7397 1c75 8C000000 		.4byte	.LASF110
 7398 1c79 04       		.byte	0x4
 7399 1c7a AF01     		.2byte	0x1af
 7400 1c7c 00       		.byte	0
 7401              		.section	.debug_abbrev,"",%progbits
ARM GAS  C:\Users\brian\AppData\Local\Temp\cckfkOf3.s 			page 163


 7402              	.Ldebug_abbrev0:
 7403 0000 01       		.uleb128 0x1
 7404 0001 11       		.uleb128 0x11
 7405 0002 01       		.byte	0x1
 7406 0003 25       		.uleb128 0x25
 7407 0004 0E       		.uleb128 0xe
 7408 0005 13       		.uleb128 0x13
 7409 0006 0B       		.uleb128 0xb
 7410 0007 03       		.uleb128 0x3
 7411 0008 0E       		.uleb128 0xe
 7412 0009 1B       		.uleb128 0x1b
 7413 000a 0E       		.uleb128 0xe
 7414 000b 55       		.uleb128 0x55
 7415 000c 17       		.uleb128 0x17
 7416 000d 11       		.uleb128 0x11
 7417 000e 01       		.uleb128 0x1
 7418 000f 10       		.uleb128 0x10
 7419 0010 17       		.uleb128 0x17
 7420 0011 00       		.byte	0
 7421 0012 00       		.byte	0
 7422 0013 02       		.uleb128 0x2
 7423 0014 24       		.uleb128 0x24
 7424 0015 00       		.byte	0
 7425 0016 0B       		.uleb128 0xb
 7426 0017 0B       		.uleb128 0xb
 7427 0018 3E       		.uleb128 0x3e
 7428 0019 0B       		.uleb128 0xb
 7429 001a 03       		.uleb128 0x3
 7430 001b 0E       		.uleb128 0xe
 7431 001c 00       		.byte	0
 7432 001d 00       		.byte	0
 7433 001e 03       		.uleb128 0x3
 7434 001f 16       		.uleb128 0x16
 7435 0020 00       		.byte	0
 7436 0021 03       		.uleb128 0x3
 7437 0022 0E       		.uleb128 0xe
 7438 0023 3A       		.uleb128 0x3a
 7439 0024 0B       		.uleb128 0xb
 7440 0025 3B       		.uleb128 0x3b
 7441 0026 0B       		.uleb128 0xb
 7442 0027 49       		.uleb128 0x49
 7443 0028 13       		.uleb128 0x13
 7444 0029 00       		.byte	0
 7445 002a 00       		.byte	0
 7446 002b 04       		.uleb128 0x4
 7447 002c 24       		.uleb128 0x24
 7448 002d 00       		.byte	0
 7449 002e 0B       		.uleb128 0xb
 7450 002f 0B       		.uleb128 0xb
 7451 0030 3E       		.uleb128 0x3e
 7452 0031 0B       		.uleb128 0xb
 7453 0032 03       		.uleb128 0x3
 7454 0033 08       		.uleb128 0x8
 7455 0034 00       		.byte	0
 7456 0035 00       		.byte	0
 7457 0036 05       		.uleb128 0x5
 7458 0037 0F       		.uleb128 0xf
ARM GAS  C:\Users\brian\AppData\Local\Temp\cckfkOf3.s 			page 164


 7459 0038 00       		.byte	0
 7460 0039 0B       		.uleb128 0xb
 7461 003a 0B       		.uleb128 0xb
 7462 003b 00       		.byte	0
 7463 003c 00       		.byte	0
 7464 003d 06       		.uleb128 0x6
 7465 003e 13       		.uleb128 0x13
 7466 003f 01       		.byte	0x1
 7467 0040 03       		.uleb128 0x3
 7468 0041 0E       		.uleb128 0xe
 7469 0042 0B       		.uleb128 0xb
 7470 0043 0B       		.uleb128 0xb
 7471 0044 3A       		.uleb128 0x3a
 7472 0045 0B       		.uleb128 0xb
 7473 0046 3B       		.uleb128 0x3b
 7474 0047 05       		.uleb128 0x5
 7475 0048 01       		.uleb128 0x1
 7476 0049 13       		.uleb128 0x13
 7477 004a 00       		.byte	0
 7478 004b 00       		.byte	0
 7479 004c 07       		.uleb128 0x7
 7480 004d 0D       		.uleb128 0xd
 7481 004e 00       		.byte	0
 7482 004f 03       		.uleb128 0x3
 7483 0050 0E       		.uleb128 0xe
 7484 0051 3A       		.uleb128 0x3a
 7485 0052 0B       		.uleb128 0xb
 7486 0053 3B       		.uleb128 0x3b
 7487 0054 05       		.uleb128 0x5
 7488 0055 49       		.uleb128 0x49
 7489 0056 13       		.uleb128 0x13
 7490 0057 38       		.uleb128 0x38
 7491 0058 0B       		.uleb128 0xb
 7492 0059 00       		.byte	0
 7493 005a 00       		.byte	0
 7494 005b 08       		.uleb128 0x8
 7495 005c 13       		.uleb128 0x13
 7496 005d 01       		.byte	0x1
 7497 005e 03       		.uleb128 0x3
 7498 005f 0E       		.uleb128 0xe
 7499 0060 0B       		.uleb128 0xb
 7500 0061 0B       		.uleb128 0xb
 7501 0062 3A       		.uleb128 0x3a
 7502 0063 0B       		.uleb128 0xb
 7503 0064 3B       		.uleb128 0x3b
 7504 0065 0B       		.uleb128 0xb
 7505 0066 01       		.uleb128 0x1
 7506 0067 13       		.uleb128 0x13
 7507 0068 00       		.byte	0
 7508 0069 00       		.byte	0
 7509 006a 09       		.uleb128 0x9
 7510 006b 0D       		.uleb128 0xd
 7511 006c 00       		.byte	0
 7512 006d 03       		.uleb128 0x3
 7513 006e 0E       		.uleb128 0xe
 7514 006f 3A       		.uleb128 0x3a
 7515 0070 0B       		.uleb128 0xb
ARM GAS  C:\Users\brian\AppData\Local\Temp\cckfkOf3.s 			page 165


 7516 0071 3B       		.uleb128 0x3b
 7517 0072 0B       		.uleb128 0xb
 7518 0073 49       		.uleb128 0x49
 7519 0074 13       		.uleb128 0x13
 7520 0075 38       		.uleb128 0x38
 7521 0076 0B       		.uleb128 0xb
 7522 0077 00       		.byte	0
 7523 0078 00       		.byte	0
 7524 0079 0A       		.uleb128 0xa
 7525 007a 0D       		.uleb128 0xd
 7526 007b 00       		.byte	0
 7527 007c 03       		.uleb128 0x3
 7528 007d 08       		.uleb128 0x8
 7529 007e 3A       		.uleb128 0x3a
 7530 007f 0B       		.uleb128 0xb
 7531 0080 3B       		.uleb128 0x3b
 7532 0081 0B       		.uleb128 0xb
 7533 0082 49       		.uleb128 0x49
 7534 0083 13       		.uleb128 0x13
 7535 0084 38       		.uleb128 0x38
 7536 0085 0B       		.uleb128 0xb
 7537 0086 00       		.byte	0
 7538 0087 00       		.byte	0
 7539 0088 0B       		.uleb128 0xb
 7540 0089 0F       		.uleb128 0xf
 7541 008a 00       		.byte	0
 7542 008b 0B       		.uleb128 0xb
 7543 008c 0B       		.uleb128 0xb
 7544 008d 49       		.uleb128 0x49
 7545 008e 13       		.uleb128 0x13
 7546 008f 00       		.byte	0
 7547 0090 00       		.byte	0
 7548 0091 0C       		.uleb128 0xc
 7549 0092 15       		.uleb128 0x15
 7550 0093 01       		.byte	0x1
 7551 0094 27       		.uleb128 0x27
 7552 0095 19       		.uleb128 0x19
 7553 0096 49       		.uleb128 0x49
 7554 0097 13       		.uleb128 0x13
 7555 0098 01       		.uleb128 0x1
 7556 0099 13       		.uleb128 0x13
 7557 009a 00       		.byte	0
 7558 009b 00       		.byte	0
 7559 009c 0D       		.uleb128 0xd
 7560 009d 05       		.uleb128 0x5
 7561 009e 00       		.byte	0
 7562 009f 49       		.uleb128 0x49
 7563 00a0 13       		.uleb128 0x13
 7564 00a1 00       		.byte	0
 7565 00a2 00       		.byte	0
 7566 00a3 0E       		.uleb128 0xe
 7567 00a4 26       		.uleb128 0x26
 7568 00a5 00       		.byte	0
 7569 00a6 49       		.uleb128 0x49
 7570 00a7 13       		.uleb128 0x13
 7571 00a8 00       		.byte	0
 7572 00a9 00       		.byte	0
ARM GAS  C:\Users\brian\AppData\Local\Temp\cckfkOf3.s 			page 166


 7573 00aa 0F       		.uleb128 0xf
 7574 00ab 2E       		.uleb128 0x2e
 7575 00ac 01       		.byte	0x1
 7576 00ad 03       		.uleb128 0x3
 7577 00ae 0E       		.uleb128 0xe
 7578 00af 3A       		.uleb128 0x3a
 7579 00b0 0B       		.uleb128 0xb
 7580 00b1 3B       		.uleb128 0x3b
 7581 00b2 0B       		.uleb128 0xb
 7582 00b3 27       		.uleb128 0x27
 7583 00b4 19       		.uleb128 0x19
 7584 00b5 49       		.uleb128 0x49
 7585 00b6 13       		.uleb128 0x13
 7586 00b7 11       		.uleb128 0x11
 7587 00b8 01       		.uleb128 0x1
 7588 00b9 12       		.uleb128 0x12
 7589 00ba 06       		.uleb128 0x6
 7590 00bb 40       		.uleb128 0x40
 7591 00bc 18       		.uleb128 0x18
 7592 00bd 9742     		.uleb128 0x2117
 7593 00bf 19       		.uleb128 0x19
 7594 00c0 01       		.uleb128 0x1
 7595 00c1 13       		.uleb128 0x13
 7596 00c2 00       		.byte	0
 7597 00c3 00       		.byte	0
 7598 00c4 10       		.uleb128 0x10
 7599 00c5 05       		.uleb128 0x5
 7600 00c6 00       		.byte	0
 7601 00c7 03       		.uleb128 0x3
 7602 00c8 0E       		.uleb128 0xe
 7603 00c9 3A       		.uleb128 0x3a
 7604 00ca 0B       		.uleb128 0xb
 7605 00cb 3B       		.uleb128 0x3b
 7606 00cc 0B       		.uleb128 0xb
 7607 00cd 49       		.uleb128 0x49
 7608 00ce 13       		.uleb128 0x13
 7609 00cf 02       		.uleb128 0x2
 7610 00d0 17       		.uleb128 0x17
 7611 00d1 00       		.byte	0
 7612 00d2 00       		.byte	0
 7613 00d3 11       		.uleb128 0x11
 7614 00d4 05       		.uleb128 0x5
 7615 00d5 00       		.byte	0
 7616 00d6 03       		.uleb128 0x3
 7617 00d7 08       		.uleb128 0x8
 7618 00d8 3A       		.uleb128 0x3a
 7619 00d9 0B       		.uleb128 0xb
 7620 00da 3B       		.uleb128 0x3b
 7621 00db 0B       		.uleb128 0xb
 7622 00dc 49       		.uleb128 0x49
 7623 00dd 13       		.uleb128 0x13
 7624 00de 02       		.uleb128 0x2
 7625 00df 17       		.uleb128 0x17
 7626 00e0 00       		.byte	0
 7627 00e1 00       		.byte	0
 7628 00e2 12       		.uleb128 0x12
 7629 00e3 34       		.uleb128 0x34
ARM GAS  C:\Users\brian\AppData\Local\Temp\cckfkOf3.s 			page 167


 7630 00e4 00       		.byte	0
 7631 00e5 03       		.uleb128 0x3
 7632 00e6 08       		.uleb128 0x8
 7633 00e7 3A       		.uleb128 0x3a
 7634 00e8 0B       		.uleb128 0xb
 7635 00e9 3B       		.uleb128 0x3b
 7636 00ea 0B       		.uleb128 0xb
 7637 00eb 49       		.uleb128 0x49
 7638 00ec 13       		.uleb128 0x13
 7639 00ed 02       		.uleb128 0x2
 7640 00ee 17       		.uleb128 0x17
 7641 00ef 00       		.byte	0
 7642 00f0 00       		.byte	0
 7643 00f1 13       		.uleb128 0x13
 7644 00f2 898201   		.uleb128 0x4109
 7645 00f5 01       		.byte	0x1
 7646 00f6 11       		.uleb128 0x11
 7647 00f7 01       		.uleb128 0x1
 7648 00f8 31       		.uleb128 0x31
 7649 00f9 13       		.uleb128 0x13
 7650 00fa 01       		.uleb128 0x1
 7651 00fb 13       		.uleb128 0x13
 7652 00fc 00       		.byte	0
 7653 00fd 00       		.byte	0
 7654 00fe 14       		.uleb128 0x14
 7655 00ff 8A8201   		.uleb128 0x410a
 7656 0102 00       		.byte	0
 7657 0103 02       		.uleb128 0x2
 7658 0104 18       		.uleb128 0x18
 7659 0105 9142     		.uleb128 0x2111
 7660 0107 18       		.uleb128 0x18
 7661 0108 00       		.byte	0
 7662 0109 00       		.byte	0
 7663 010a 15       		.uleb128 0x15
 7664 010b 898201   		.uleb128 0x4109
 7665 010e 00       		.byte	0
 7666 010f 11       		.uleb128 0x11
 7667 0110 01       		.uleb128 0x1
 7668 0111 31       		.uleb128 0x31
 7669 0112 13       		.uleb128 0x13
 7670 0113 00       		.byte	0
 7671 0114 00       		.byte	0
 7672 0115 16       		.uleb128 0x16
 7673 0116 898201   		.uleb128 0x4109
 7674 0119 01       		.byte	0x1
 7675 011a 11       		.uleb128 0x11
 7676 011b 01       		.uleb128 0x1
 7677 011c 31       		.uleb128 0x31
 7678 011d 13       		.uleb128 0x13
 7679 011e 00       		.byte	0
 7680 011f 00       		.byte	0
 7681 0120 17       		.uleb128 0x17
 7682 0121 2E       		.uleb128 0x2e
 7683 0122 01       		.byte	0x1
 7684 0123 3F       		.uleb128 0x3f
 7685 0124 19       		.uleb128 0x19
 7686 0125 03       		.uleb128 0x3
ARM GAS  C:\Users\brian\AppData\Local\Temp\cckfkOf3.s 			page 168


 7687 0126 0E       		.uleb128 0xe
 7688 0127 3A       		.uleb128 0x3a
 7689 0128 0B       		.uleb128 0xb
 7690 0129 3B       		.uleb128 0x3b
 7691 012a 05       		.uleb128 0x5
 7692 012b 27       		.uleb128 0x27
 7693 012c 19       		.uleb128 0x19
 7694 012d 49       		.uleb128 0x49
 7695 012e 13       		.uleb128 0x13
 7696 012f 11       		.uleb128 0x11
 7697 0130 01       		.uleb128 0x1
 7698 0131 12       		.uleb128 0x12
 7699 0132 06       		.uleb128 0x6
 7700 0133 40       		.uleb128 0x40
 7701 0134 18       		.uleb128 0x18
 7702 0135 9742     		.uleb128 0x2117
 7703 0137 19       		.uleb128 0x19
 7704 0138 01       		.uleb128 0x1
 7705 0139 13       		.uleb128 0x13
 7706 013a 00       		.byte	0
 7707 013b 00       		.byte	0
 7708 013c 18       		.uleb128 0x18
 7709 013d 05       		.uleb128 0x5
 7710 013e 00       		.byte	0
 7711 013f 03       		.uleb128 0x3
 7712 0140 0E       		.uleb128 0xe
 7713 0141 3A       		.uleb128 0x3a
 7714 0142 0B       		.uleb128 0xb
 7715 0143 3B       		.uleb128 0x3b
 7716 0144 05       		.uleb128 0x5
 7717 0145 49       		.uleb128 0x49
 7718 0146 13       		.uleb128 0x13
 7719 0147 02       		.uleb128 0x2
 7720 0148 17       		.uleb128 0x17
 7721 0149 00       		.byte	0
 7722 014a 00       		.byte	0
 7723 014b 19       		.uleb128 0x19
 7724 014c 05       		.uleb128 0x5
 7725 014d 00       		.byte	0
 7726 014e 03       		.uleb128 0x3
 7727 014f 08       		.uleb128 0x8
 7728 0150 3A       		.uleb128 0x3a
 7729 0151 0B       		.uleb128 0xb
 7730 0152 3B       		.uleb128 0x3b
 7731 0153 05       		.uleb128 0x5
 7732 0154 49       		.uleb128 0x49
 7733 0155 13       		.uleb128 0x13
 7734 0156 02       		.uleb128 0x2
 7735 0157 17       		.uleb128 0x17
 7736 0158 00       		.byte	0
 7737 0159 00       		.byte	0
 7738 015a 1A       		.uleb128 0x1a
 7739 015b 34       		.uleb128 0x34
 7740 015c 00       		.byte	0
 7741 015d 03       		.uleb128 0x3
 7742 015e 08       		.uleb128 0x8
 7743 015f 3A       		.uleb128 0x3a
ARM GAS  C:\Users\brian\AppData\Local\Temp\cckfkOf3.s 			page 169


 7744 0160 0B       		.uleb128 0xb
 7745 0161 3B       		.uleb128 0x3b
 7746 0162 05       		.uleb128 0x5
 7747 0163 49       		.uleb128 0x49
 7748 0164 13       		.uleb128 0x13
 7749 0165 02       		.uleb128 0x2
 7750 0166 17       		.uleb128 0x17
 7751 0167 00       		.byte	0
 7752 0168 00       		.byte	0
 7753 0169 1B       		.uleb128 0x1b
 7754 016a 01       		.uleb128 0x1
 7755 016b 01       		.byte	0x1
 7756 016c 49       		.uleb128 0x49
 7757 016d 13       		.uleb128 0x13
 7758 016e 01       		.uleb128 0x1
 7759 016f 13       		.uleb128 0x13
 7760 0170 00       		.byte	0
 7761 0171 00       		.byte	0
 7762 0172 1C       		.uleb128 0x1c
 7763 0173 21       		.uleb128 0x21
 7764 0174 00       		.byte	0
 7765 0175 49       		.uleb128 0x49
 7766 0176 13       		.uleb128 0x13
 7767 0177 2F       		.uleb128 0x2f
 7768 0178 0B       		.uleb128 0xb
 7769 0179 00       		.byte	0
 7770 017a 00       		.byte	0
 7771 017b 1D       		.uleb128 0x1d
 7772 017c 34       		.uleb128 0x34
 7773 017d 00       		.byte	0
 7774 017e 03       		.uleb128 0x3
 7775 017f 0E       		.uleb128 0xe
 7776 0180 3A       		.uleb128 0x3a
 7777 0181 0B       		.uleb128 0xb
 7778 0182 3B       		.uleb128 0x3b
 7779 0183 0B       		.uleb128 0xb
 7780 0184 49       		.uleb128 0x49
 7781 0185 13       		.uleb128 0x13
 7782 0186 02       		.uleb128 0x2
 7783 0187 18       		.uleb128 0x18
 7784 0188 00       		.byte	0
 7785 0189 00       		.byte	0
 7786 018a 1E       		.uleb128 0x1e
 7787 018b 34       		.uleb128 0x34
 7788 018c 00       		.byte	0
 7789 018d 03       		.uleb128 0x3
 7790 018e 0E       		.uleb128 0xe
 7791 018f 3A       		.uleb128 0x3a
 7792 0190 0B       		.uleb128 0xb
 7793 0191 3B       		.uleb128 0x3b
 7794 0192 05       		.uleb128 0x5
 7795 0193 49       		.uleb128 0x49
 7796 0194 13       		.uleb128 0x13
 7797 0195 02       		.uleb128 0x2
 7798 0196 18       		.uleb128 0x18
 7799 0197 00       		.byte	0
 7800 0198 00       		.byte	0
ARM GAS  C:\Users\brian\AppData\Local\Temp\cckfkOf3.s 			page 170


 7801 0199 1F       		.uleb128 0x1f
 7802 019a 2E       		.uleb128 0x2e
 7803 019b 00       		.byte	0
 7804 019c 3F       		.uleb128 0x3f
 7805 019d 19       		.uleb128 0x19
 7806 019e 3C       		.uleb128 0x3c
 7807 019f 19       		.uleb128 0x19
 7808 01a0 6E       		.uleb128 0x6e
 7809 01a1 0E       		.uleb128 0xe
 7810 01a2 03       		.uleb128 0x3
 7811 01a3 0E       		.uleb128 0xe
 7812 01a4 3A       		.uleb128 0x3a
 7813 01a5 0B       		.uleb128 0xb
 7814 01a6 3B       		.uleb128 0x3b
 7815 01a7 05       		.uleb128 0x5
 7816 01a8 00       		.byte	0
 7817 01a9 00       		.byte	0
 7818 01aa 00       		.byte	0
 7819              		.section	.debug_loc,"",%progbits
 7820              	.Ldebug_loc0:
 7821              	.LLST0:
 7822 0000 00000000 		.4byte	.LVL0
 7823 0004 1D000000 		.4byte	.LVL2-1
 7824 0008 0100     		.2byte	0x1
 7825 000a 50       		.byte	0x50
 7826 000b 1D000000 		.4byte	.LVL2-1
 7827 000f 24000000 		.4byte	.LVL3
 7828 0013 0100     		.2byte	0x1
 7829 0015 56       		.byte	0x56
 7830 0016 24000000 		.4byte	.LVL3
 7831 001a 29000000 		.4byte	.LVL5-1
 7832 001e 0100     		.2byte	0x1
 7833 0020 50       		.byte	0x50
 7834 0021 29000000 		.4byte	.LVL5-1
 7835 0025 30000000 		.4byte	.LVL6
 7836 0029 0100     		.2byte	0x1
 7837 002b 56       		.byte	0x56
 7838 002c 30000000 		.4byte	.LVL6
 7839 0030 33000000 		.4byte	.LVL7-1
 7840 0034 0100     		.2byte	0x1
 7841 0036 50       		.byte	0x50
 7842 0037 33000000 		.4byte	.LVL7-1
 7843 003b 64000000 		.4byte	.LVL13
 7844 003f 0100     		.2byte	0x1
 7845 0041 56       		.byte	0x56
 7846 0042 64000000 		.4byte	.LVL13
 7847 0046 67000000 		.4byte	.LVL14-1
 7848 004a 0100     		.2byte	0x1
 7849 004c 50       		.byte	0x50
 7850 004d 67000000 		.4byte	.LVL14-1
 7851 0051 F8000000 		.4byte	.LVL35
 7852 0055 0100     		.2byte	0x1
 7853 0057 56       		.byte	0x56
 7854 0058 F8000000 		.4byte	.LVL35
 7855 005c FA000000 		.4byte	.LVL36
 7856 0060 0100     		.2byte	0x1
 7857 0062 50       		.byte	0x50
ARM GAS  C:\Users\brian\AppData\Local\Temp\cckfkOf3.s 			page 171


 7858 0063 FA000000 		.4byte	.LVL36
 7859 0067 FE000000 		.4byte	.LVL37
 7860 006b 0100     		.2byte	0x1
 7861 006d 56       		.byte	0x56
 7862 006e FE000000 		.4byte	.LVL37
 7863 0072 08010000 		.4byte	.LFE0
 7864 0076 0400     		.2byte	0x4
 7865 0078 F3       		.byte	0xf3
 7866 0079 01       		.uleb128 0x1
 7867 007a 50       		.byte	0x50
 7868 007b 9F       		.byte	0x9f
 7869 007c 00000000 		.4byte	0
 7870 0080 00000000 		.4byte	0
 7871              	.LLST1:
 7872 0084 00000000 		.4byte	.LVL0
 7873 0088 1A000000 		.4byte	.LVL1
 7874 008c 0100     		.2byte	0x1
 7875 008e 51       		.byte	0x51
 7876 008f 1A000000 		.4byte	.LVL1
 7877 0093 24000000 		.4byte	.LVL3
 7878 0097 0400     		.2byte	0x4
 7879 0099 F3       		.byte	0xf3
 7880 009a 01       		.uleb128 0x1
 7881 009b 51       		.byte	0x51
 7882 009c 9F       		.byte	0x9f
 7883 009d 24000000 		.4byte	.LVL3
 7884 00a1 26000000 		.4byte	.LVL4
 7885 00a5 0100     		.2byte	0x1
 7886 00a7 51       		.byte	0x51
 7887 00a8 26000000 		.4byte	.LVL4
 7888 00ac 30000000 		.4byte	.LVL6
 7889 00b0 0400     		.2byte	0x4
 7890 00b2 F3       		.byte	0xf3
 7891 00b3 01       		.uleb128 0x1
 7892 00b4 51       		.byte	0x51
 7893 00b5 9F       		.byte	0x9f
 7894 00b6 30000000 		.4byte	.LVL6
 7895 00ba 33000000 		.4byte	.LVL7-1
 7896 00be 0100     		.2byte	0x1
 7897 00c0 51       		.byte	0x51
 7898 00c1 33000000 		.4byte	.LVL7-1
 7899 00c5 64000000 		.4byte	.LVL13
 7900 00c9 0400     		.2byte	0x4
 7901 00cb F3       		.byte	0xf3
 7902 00cc 01       		.uleb128 0x1
 7903 00cd 51       		.byte	0x51
 7904 00ce 9F       		.byte	0x9f
 7905 00cf 64000000 		.4byte	.LVL13
 7906 00d3 67000000 		.4byte	.LVL14-1
 7907 00d7 0100     		.2byte	0x1
 7908 00d9 51       		.byte	0x51
 7909 00da 67000000 		.4byte	.LVL14-1
 7910 00de F8000000 		.4byte	.LVL35
 7911 00e2 0400     		.2byte	0x4
 7912 00e4 F3       		.byte	0xf3
 7913 00e5 01       		.uleb128 0x1
 7914 00e6 51       		.byte	0x51
ARM GAS  C:\Users\brian\AppData\Local\Temp\cckfkOf3.s 			page 172


 7915 00e7 9F       		.byte	0x9f
 7916 00e8 F8000000 		.4byte	.LVL35
 7917 00ec 08010000 		.4byte	.LFE0
 7918 00f0 0100     		.2byte	0x1
 7919 00f2 51       		.byte	0x51
 7920 00f3 00000000 		.4byte	0
 7921 00f7 00000000 		.4byte	0
 7922              	.LLST2:
 7923 00fb 00000000 		.4byte	.LVL0
 7924 00ff 1D000000 		.4byte	.LVL2-1
 7925 0103 0100     		.2byte	0x1
 7926 0105 52       		.byte	0x52
 7927 0106 1D000000 		.4byte	.LVL2-1
 7928 010a 24000000 		.4byte	.LVL3
 7929 010e 0400     		.2byte	0x4
 7930 0110 F3       		.byte	0xf3
 7931 0111 01       		.uleb128 0x1
 7932 0112 52       		.byte	0x52
 7933 0113 9F       		.byte	0x9f
 7934 0114 24000000 		.4byte	.LVL3
 7935 0118 29000000 		.4byte	.LVL5-1
 7936 011c 0100     		.2byte	0x1
 7937 011e 52       		.byte	0x52
 7938 011f 29000000 		.4byte	.LVL5-1
 7939 0123 30000000 		.4byte	.LVL6
 7940 0127 0400     		.2byte	0x4
 7941 0129 F3       		.byte	0xf3
 7942 012a 01       		.uleb128 0x1
 7943 012b 52       		.byte	0x52
 7944 012c 9F       		.byte	0x9f
 7945 012d 30000000 		.4byte	.LVL6
 7946 0131 33000000 		.4byte	.LVL7-1
 7947 0135 0100     		.2byte	0x1
 7948 0137 52       		.byte	0x52
 7949 0138 33000000 		.4byte	.LVL7-1
 7950 013c 64000000 		.4byte	.LVL13
 7951 0140 0400     		.2byte	0x4
 7952 0142 F3       		.byte	0xf3
 7953 0143 01       		.uleb128 0x1
 7954 0144 52       		.byte	0x52
 7955 0145 9F       		.byte	0x9f
 7956 0146 64000000 		.4byte	.LVL13
 7957 014a 67000000 		.4byte	.LVL14-1
 7958 014e 0100     		.2byte	0x1
 7959 0150 52       		.byte	0x52
 7960 0151 67000000 		.4byte	.LVL14-1
 7961 0155 BA000000 		.4byte	.LVL25
 7962 0159 0400     		.2byte	0x4
 7963 015b F3       		.byte	0xf3
 7964 015c 01       		.uleb128 0x1
 7965 015d 52       		.byte	0x52
 7966 015e 9F       		.byte	0x9f
 7967 015f BA000000 		.4byte	.LVL25
 7968 0163 E6000000 		.4byte	.LVL33
 7969 0167 0100     		.2byte	0x1
 7970 0169 55       		.byte	0x55
 7971 016a E6000000 		.4byte	.LVL33
ARM GAS  C:\Users\brian\AppData\Local\Temp\cckfkOf3.s 			page 173


 7972 016e F1000000 		.4byte	.LVL34-1
 7973 0172 0100     		.2byte	0x1
 7974 0174 52       		.byte	0x52
 7975 0175 F8000000 		.4byte	.LVL35
 7976 0179 08010000 		.4byte	.LFE0
 7977 017d 0100     		.2byte	0x1
 7978 017f 52       		.byte	0x52
 7979 0180 00000000 		.4byte	0
 7980 0184 00000000 		.4byte	0
 7981              	.LLST3:
 7982 0188 00000000 		.4byte	.LVL0
 7983 018c 1D000000 		.4byte	.LVL2-1
 7984 0190 0100     		.2byte	0x1
 7985 0192 53       		.byte	0x53
 7986 0193 1D000000 		.4byte	.LVL2-1
 7987 0197 24000000 		.4byte	.LVL3
 7988 019b 0100     		.2byte	0x1
 7989 019d 58       		.byte	0x58
 7990 019e 24000000 		.4byte	.LVL3
 7991 01a2 29000000 		.4byte	.LVL5-1
 7992 01a6 0100     		.2byte	0x1
 7993 01a8 53       		.byte	0x53
 7994 01a9 29000000 		.4byte	.LVL5-1
 7995 01ad 30000000 		.4byte	.LVL6
 7996 01b1 0100     		.2byte	0x1
 7997 01b3 58       		.byte	0x58
 7998 01b4 30000000 		.4byte	.LVL6
 7999 01b8 33000000 		.4byte	.LVL7-1
 8000 01bc 0100     		.2byte	0x1
 8001 01be 53       		.byte	0x53
 8002 01bf 33000000 		.4byte	.LVL7-1
 8003 01c3 64000000 		.4byte	.LVL13
 8004 01c7 0400     		.2byte	0x4
 8005 01c9 F3       		.byte	0xf3
 8006 01ca 01       		.uleb128 0x1
 8007 01cb 53       		.byte	0x53
 8008 01cc 9F       		.byte	0x9f
 8009 01cd 64000000 		.4byte	.LVL13
 8010 01d1 67000000 		.4byte	.LVL14-1
 8011 01d5 0100     		.2byte	0x1
 8012 01d7 53       		.byte	0x53
 8013 01d8 67000000 		.4byte	.LVL14-1
 8014 01dc F8000000 		.4byte	.LVL35
 8015 01e0 0100     		.2byte	0x1
 8016 01e2 58       		.byte	0x58
 8017 01e3 F8000000 		.4byte	.LVL35
 8018 01e7 08010000 		.4byte	.LFE0
 8019 01eb 0100     		.2byte	0x1
 8020 01ed 53       		.byte	0x53
 8021 01ee 00000000 		.4byte	0
 8022 01f2 00000000 		.4byte	0
 8023              	.LLST4:
 8024 01f6 6C000000 		.4byte	.LVL15
 8025 01fa 6E000000 		.4byte	.LVL16
 8026 01fe 0100     		.2byte	0x1
 8027 0200 54       		.byte	0x54
 8028 0201 6E000000 		.4byte	.LVL16
ARM GAS  C:\Users\brian\AppData\Local\Temp\cckfkOf3.s 			page 174


 8029 0205 70000000 		.4byte	.LVL17
 8030 0209 0200     		.2byte	0x2
 8031 020b 78       		.byte	0x78
 8032 020c 05       		.sleb128 5
 8033 020d 70000000 		.4byte	.LVL17
 8034 0211 BA000000 		.4byte	.LVL25
 8035 0215 0100     		.2byte	0x1
 8036 0217 54       		.byte	0x54
 8037 0218 00000000 		.4byte	0
 8038 021c 00000000 		.4byte	0
 8039              	.LLST5:
 8040 0220 BE000000 		.4byte	.LVL26
 8041 0224 D4000000 		.4byte	.LVL30
 8042 0228 0100     		.2byte	0x1
 8043 022a 54       		.byte	0x54
 8044 022b D4000000 		.4byte	.LVL30
 8045 022f D6000000 		.4byte	.LVL31
 8046 0233 0300     		.2byte	0x3
 8047 0235 74       		.byte	0x74
 8048 0236 1F       		.sleb128 31
 8049 0237 9F       		.byte	0x9f
 8050 0238 D6000000 		.4byte	.LVL31
 8051 023c F8000000 		.4byte	.LVL35
 8052 0240 0100     		.2byte	0x1
 8053 0242 54       		.byte	0x54
 8054 0243 00000000 		.4byte	0
 8055 0247 00000000 		.4byte	0
 8056              	.LLST6:
 8057 024b C2000000 		.4byte	.LVL27
 8058 024f F8000000 		.4byte	.LVL35
 8059 0253 0100     		.2byte	0x1
 8060 0255 57       		.byte	0x57
 8061 0256 00000000 		.4byte	0
 8062 025a 00000000 		.4byte	0
 8063              	.LLST7:
 8064 025e 00000000 		.4byte	.LVL38
 8065 0262 0B000000 		.4byte	.LVL39-1
 8066 0266 0100     		.2byte	0x1
 8067 0268 50       		.byte	0x50
 8068 0269 0B000000 		.4byte	.LVL39-1
 8069 026d 6A000000 		.4byte	.LVL45
 8070 0271 0100     		.2byte	0x1
 8071 0273 55       		.byte	0x55
 8072 0274 6A000000 		.4byte	.LVL45
 8073 0278 7C000000 		.4byte	.LFE1
 8074 027c 0400     		.2byte	0x4
 8075 027e F3       		.byte	0xf3
 8076 027f 01       		.uleb128 0x1
 8077 0280 50       		.byte	0x50
 8078 0281 9F       		.byte	0x9f
 8079 0282 00000000 		.4byte	0
 8080 0286 00000000 		.4byte	0
 8081              	.LLST8:
 8082 028a 00000000 		.4byte	.LVL38
 8083 028e 0B000000 		.4byte	.LVL39-1
 8084 0292 0100     		.2byte	0x1
 8085 0294 51       		.byte	0x51
ARM GAS  C:\Users\brian\AppData\Local\Temp\cckfkOf3.s 			page 175


 8086 0295 0B000000 		.4byte	.LVL39-1
 8087 0299 7C000000 		.4byte	.LFE1
 8088 029d 0400     		.2byte	0x4
 8089 029f F3       		.byte	0xf3
 8090 02a0 01       		.uleb128 0x1
 8091 02a1 51       		.byte	0x51
 8092 02a2 9F       		.byte	0x9f
 8093 02a3 00000000 		.4byte	0
 8094 02a7 00000000 		.4byte	0
 8095              	.LLST9:
 8096 02ab 00000000 		.4byte	.LVL38
 8097 02af 0B000000 		.4byte	.LVL39-1
 8098 02b3 0100     		.2byte	0x1
 8099 02b5 52       		.byte	0x52
 8100 02b6 0B000000 		.4byte	.LVL39-1
 8101 02ba 7C000000 		.4byte	.LFE1
 8102 02be 0400     		.2byte	0x4
 8103 02c0 F3       		.byte	0xf3
 8104 02c1 01       		.uleb128 0x1
 8105 02c2 52       		.byte	0x52
 8106 02c3 9F       		.byte	0x9f
 8107 02c4 00000000 		.4byte	0
 8108 02c8 00000000 		.4byte	0
 8109              	.LLST10:
 8110 02cc 00000000 		.4byte	.LVL38
 8111 02d0 0B000000 		.4byte	.LVL39-1
 8112 02d4 0100     		.2byte	0x1
 8113 02d6 53       		.byte	0x53
 8114 02d7 0B000000 		.4byte	.LVL39-1
 8115 02db 7C000000 		.4byte	.LFE1
 8116 02df 0400     		.2byte	0x4
 8117 02e1 F3       		.byte	0xf3
 8118 02e2 01       		.uleb128 0x1
 8119 02e3 53       		.byte	0x53
 8120 02e4 9F       		.byte	0x9f
 8121 02e5 00000000 		.4byte	0
 8122 02e9 00000000 		.4byte	0
 8123              	.LLST11:
 8124 02ed 00000000 		.4byte	.LVL46
 8125 02f1 0B000000 		.4byte	.LVL47-1
 8126 02f5 0100     		.2byte	0x1
 8127 02f7 50       		.byte	0x50
 8128 02f8 0B000000 		.4byte	.LVL47-1
 8129 02fc 6A000000 		.4byte	.LVL53
 8130 0300 0100     		.2byte	0x1
 8131 0302 55       		.byte	0x55
 8132 0303 6A000000 		.4byte	.LVL53
 8133 0307 7C000000 		.4byte	.LFE2
 8134 030b 0400     		.2byte	0x4
 8135 030d F3       		.byte	0xf3
 8136 030e 01       		.uleb128 0x1
 8137 030f 50       		.byte	0x50
 8138 0310 9F       		.byte	0x9f
 8139 0311 00000000 		.4byte	0
 8140 0315 00000000 		.4byte	0
 8141              	.LLST12:
 8142 0319 00000000 		.4byte	.LVL46
ARM GAS  C:\Users\brian\AppData\Local\Temp\cckfkOf3.s 			page 176


 8143 031d 0B000000 		.4byte	.LVL47-1
 8144 0321 0100     		.2byte	0x1
 8145 0323 51       		.byte	0x51
 8146 0324 0B000000 		.4byte	.LVL47-1
 8147 0328 7C000000 		.4byte	.LFE2
 8148 032c 0400     		.2byte	0x4
 8149 032e F3       		.byte	0xf3
 8150 032f 01       		.uleb128 0x1
 8151 0330 51       		.byte	0x51
 8152 0331 9F       		.byte	0x9f
 8153 0332 00000000 		.4byte	0
 8154 0336 00000000 		.4byte	0
 8155              	.LLST13:
 8156 033a 00000000 		.4byte	.LVL46
 8157 033e 0B000000 		.4byte	.LVL47-1
 8158 0342 0100     		.2byte	0x1
 8159 0344 52       		.byte	0x52
 8160 0345 0B000000 		.4byte	.LVL47-1
 8161 0349 7C000000 		.4byte	.LFE2
 8162 034d 0400     		.2byte	0x4
 8163 034f F3       		.byte	0xf3
 8164 0350 01       		.uleb128 0x1
 8165 0351 52       		.byte	0x52
 8166 0352 9F       		.byte	0x9f
 8167 0353 00000000 		.4byte	0
 8168 0357 00000000 		.4byte	0
 8169              	.LLST14:
 8170 035b 00000000 		.4byte	.LVL46
 8171 035f 0B000000 		.4byte	.LVL47-1
 8172 0363 0100     		.2byte	0x1
 8173 0365 53       		.byte	0x53
 8174 0366 0B000000 		.4byte	.LVL47-1
 8175 036a 7C000000 		.4byte	.LFE2
 8176 036e 0400     		.2byte	0x4
 8177 0370 F3       		.byte	0xf3
 8178 0371 01       		.uleb128 0x1
 8179 0372 53       		.byte	0x53
 8180 0373 9F       		.byte	0x9f
 8181 0374 00000000 		.4byte	0
 8182 0378 00000000 		.4byte	0
 8183              	.LLST15:
 8184 037c 00000000 		.4byte	.LVL54
 8185 0380 0B000000 		.4byte	.LVL55-1
 8186 0384 0100     		.2byte	0x1
 8187 0386 50       		.byte	0x50
 8188 0387 0B000000 		.4byte	.LVL55-1
 8189 038b 6A000000 		.4byte	.LVL61
 8190 038f 0100     		.2byte	0x1
 8191 0391 55       		.byte	0x55
 8192 0392 6A000000 		.4byte	.LVL61
 8193 0396 7C000000 		.4byte	.LFE3
 8194 039a 0400     		.2byte	0x4
 8195 039c F3       		.byte	0xf3
 8196 039d 01       		.uleb128 0x1
 8197 039e 50       		.byte	0x50
 8198 039f 9F       		.byte	0x9f
 8199 03a0 00000000 		.4byte	0
ARM GAS  C:\Users\brian\AppData\Local\Temp\cckfkOf3.s 			page 177


 8200 03a4 00000000 		.4byte	0
 8201              	.LLST16:
 8202 03a8 00000000 		.4byte	.LVL54
 8203 03ac 0B000000 		.4byte	.LVL55-1
 8204 03b0 0100     		.2byte	0x1
 8205 03b2 51       		.byte	0x51
 8206 03b3 0B000000 		.4byte	.LVL55-1
 8207 03b7 7C000000 		.4byte	.LFE3
 8208 03bb 0400     		.2byte	0x4
 8209 03bd F3       		.byte	0xf3
 8210 03be 01       		.uleb128 0x1
 8211 03bf 51       		.byte	0x51
 8212 03c0 9F       		.byte	0x9f
 8213 03c1 00000000 		.4byte	0
 8214 03c5 00000000 		.4byte	0
 8215              	.LLST17:
 8216 03c9 00000000 		.4byte	.LVL54
 8217 03cd 0B000000 		.4byte	.LVL55-1
 8218 03d1 0100     		.2byte	0x1
 8219 03d3 52       		.byte	0x52
 8220 03d4 0B000000 		.4byte	.LVL55-1
 8221 03d8 7C000000 		.4byte	.LFE3
 8222 03dc 0400     		.2byte	0x4
 8223 03de F3       		.byte	0xf3
 8224 03df 01       		.uleb128 0x1
 8225 03e0 52       		.byte	0x52
 8226 03e1 9F       		.byte	0x9f
 8227 03e2 00000000 		.4byte	0
 8228 03e6 00000000 		.4byte	0
 8229              	.LLST18:
 8230 03ea 00000000 		.4byte	.LVL54
 8231 03ee 0B000000 		.4byte	.LVL55-1
 8232 03f2 0100     		.2byte	0x1
 8233 03f4 53       		.byte	0x53
 8234 03f5 0B000000 		.4byte	.LVL55-1
 8235 03f9 7C000000 		.4byte	.LFE3
 8236 03fd 0400     		.2byte	0x4
 8237 03ff F3       		.byte	0xf3
 8238 0400 01       		.uleb128 0x1
 8239 0401 53       		.byte	0x53
 8240 0402 9F       		.byte	0x9f
 8241 0403 00000000 		.4byte	0
 8242 0407 00000000 		.4byte	0
 8243              	.LLST19:
 8244 040b 00000000 		.4byte	.LVL62
 8245 040f 21000000 		.4byte	.LVL65-1
 8246 0413 0100     		.2byte	0x1
 8247 0415 50       		.byte	0x50
 8248 0416 21000000 		.4byte	.LVL65-1
 8249 041a BC000000 		.4byte	.LVL90
 8250 041e 0100     		.2byte	0x1
 8251 0420 56       		.byte	0x56
 8252 0421 BC000000 		.4byte	.LVL90
 8253 0425 C1000000 		.4byte	.LVL91-1
 8254 0429 0100     		.2byte	0x1
 8255 042b 50       		.byte	0x50
 8256 042c C1000000 		.4byte	.LVL91-1
ARM GAS  C:\Users\brian\AppData\Local\Temp\cckfkOf3.s 			page 178


 8257 0430 C8000000 		.4byte	.LVL92
 8258 0434 0100     		.2byte	0x1
 8259 0436 56       		.byte	0x56
 8260 0437 C8000000 		.4byte	.LVL92
 8261 043b CB000000 		.4byte	.LVL93-1
 8262 043f 0100     		.2byte	0x1
 8263 0441 50       		.byte	0x50
 8264 0442 CB000000 		.4byte	.LVL93-1
 8265 0446 DA000000 		.4byte	.LVL95
 8266 044a 0100     		.2byte	0x1
 8267 044c 56       		.byte	0x56
 8268 044d DA000000 		.4byte	.LVL95
 8269 0451 E1000000 		.4byte	.LVL96-1
 8270 0455 0100     		.2byte	0x1
 8271 0457 50       		.byte	0x50
 8272 0458 E1000000 		.4byte	.LVL96-1
 8273 045c E8000000 		.4byte	.LVL97
 8274 0460 0100     		.2byte	0x1
 8275 0462 56       		.byte	0x56
 8276 0463 E8000000 		.4byte	.LVL97
 8277 0467 ED000000 		.4byte	.LVL98-1
 8278 046b 0100     		.2byte	0x1
 8279 046d 50       		.byte	0x50
 8280 046e ED000000 		.4byte	.LVL98-1
 8281 0472 F4000000 		.4byte	.LVL99
 8282 0476 0100     		.2byte	0x1
 8283 0478 56       		.byte	0x56
 8284 0479 F4000000 		.4byte	.LVL99
 8285 047d FB000000 		.4byte	.LVL100-1
 8286 0481 0100     		.2byte	0x1
 8287 0483 50       		.byte	0x50
 8288 0484 FB000000 		.4byte	.LVL100-1
 8289 0488 0A010000 		.4byte	.LVL101
 8290 048c 0100     		.2byte	0x1
 8291 048e 56       		.byte	0x56
 8292 048f 0A010000 		.4byte	.LVL101
 8293 0493 0F010000 		.4byte	.LVL102-1
 8294 0497 0100     		.2byte	0x1
 8295 0499 50       		.byte	0x50
 8296 049a 0F010000 		.4byte	.LVL102-1
 8297 049e 1E010000 		.4byte	.LVL103
 8298 04a2 0100     		.2byte	0x1
 8299 04a4 56       		.byte	0x56
 8300 04a5 1E010000 		.4byte	.LVL103
 8301 04a9 21010000 		.4byte	.LVL104-1
 8302 04ad 0100     		.2byte	0x1
 8303 04af 50       		.byte	0x50
 8304 04b0 21010000 		.4byte	.LVL104-1
 8305 04b4 52010000 		.4byte	.LVL110
 8306 04b8 0100     		.2byte	0x1
 8307 04ba 56       		.byte	0x56
 8308 04bb 52010000 		.4byte	.LVL110
 8309 04bf 54010000 		.4byte	.LVL111
 8310 04c3 0100     		.2byte	0x1
 8311 04c5 50       		.byte	0x50
 8312 04c6 54010000 		.4byte	.LVL111
 8313 04ca 58010000 		.4byte	.LVL112
ARM GAS  C:\Users\brian\AppData\Local\Temp\cckfkOf3.s 			page 179


 8314 04ce 0100     		.2byte	0x1
 8315 04d0 56       		.byte	0x56
 8316 04d1 58010000 		.4byte	.LVL112
 8317 04d5 70010000 		.4byte	.LFE4
 8318 04d9 0400     		.2byte	0x4
 8319 04db F3       		.byte	0xf3
 8320 04dc 01       		.uleb128 0x1
 8321 04dd 50       		.byte	0x50
 8322 04de 9F       		.byte	0x9f
 8323 04df 00000000 		.4byte	0
 8324 04e3 00000000 		.4byte	0
 8325              	.LLST20:
 8326 04e7 00000000 		.4byte	.LVL62
 8327 04eb 0C000000 		.4byte	.LVL63
 8328 04ef 0100     		.2byte	0x1
 8329 04f1 51       		.byte	0x51
 8330 04f2 0C000000 		.4byte	.LVL63
 8331 04f6 70010000 		.4byte	.LFE4
 8332 04fa 0400     		.2byte	0x4
 8333 04fc F3       		.byte	0xf3
 8334 04fd 01       		.uleb128 0x1
 8335 04fe 51       		.byte	0x51
 8336 04ff 9F       		.byte	0x9f
 8337 0500 00000000 		.4byte	0
 8338 0504 00000000 		.4byte	0
 8339              	.LLST21:
 8340 0508 00000000 		.4byte	.LVL62
 8341 050c 21000000 		.4byte	.LVL65-1
 8342 0510 0100     		.2byte	0x1
 8343 0512 52       		.byte	0x52
 8344 0513 21000000 		.4byte	.LVL65-1
 8345 0517 84000000 		.4byte	.LVL77
 8346 051b 0400     		.2byte	0x4
 8347 051d F3       		.byte	0xf3
 8348 051e 01       		.uleb128 0x1
 8349 051f 52       		.byte	0x52
 8350 0520 9F       		.byte	0x9f
 8351 0521 84000000 		.4byte	.LVL77
 8352 0525 AE000000 		.4byte	.LVL88
 8353 0529 0100     		.2byte	0x1
 8354 052b 55       		.byte	0x55
 8355 052c BC000000 		.4byte	.LVL90
 8356 0530 C1000000 		.4byte	.LVL91-1
 8357 0534 0100     		.2byte	0x1
 8358 0536 52       		.byte	0x52
 8359 0537 C1000000 		.4byte	.LVL91-1
 8360 053b C8000000 		.4byte	.LVL92
 8361 053f 0400     		.2byte	0x4
 8362 0541 F3       		.byte	0xf3
 8363 0542 01       		.uleb128 0x1
 8364 0543 52       		.byte	0x52
 8365 0544 9F       		.byte	0x9f
 8366 0545 C8000000 		.4byte	.LVL92
 8367 0549 CB000000 		.4byte	.LVL93-1
 8368 054d 0100     		.2byte	0x1
 8369 054f 52       		.byte	0x52
 8370 0550 CB000000 		.4byte	.LVL93-1
ARM GAS  C:\Users\brian\AppData\Local\Temp\cckfkOf3.s 			page 180


 8371 0554 DA000000 		.4byte	.LVL95
 8372 0558 0400     		.2byte	0x4
 8373 055a F3       		.byte	0xf3
 8374 055b 01       		.uleb128 0x1
 8375 055c 52       		.byte	0x52
 8376 055d 9F       		.byte	0x9f
 8377 055e DA000000 		.4byte	.LVL95
 8378 0562 E1000000 		.4byte	.LVL96-1
 8379 0566 0100     		.2byte	0x1
 8380 0568 52       		.byte	0x52
 8381 0569 E1000000 		.4byte	.LVL96-1
 8382 056d E8000000 		.4byte	.LVL97
 8383 0571 0400     		.2byte	0x4
 8384 0573 F3       		.byte	0xf3
 8385 0574 01       		.uleb128 0x1
 8386 0575 52       		.byte	0x52
 8387 0576 9F       		.byte	0x9f
 8388 0577 E8000000 		.4byte	.LVL97
 8389 057b ED000000 		.4byte	.LVL98-1
 8390 057f 0100     		.2byte	0x1
 8391 0581 52       		.byte	0x52
 8392 0582 ED000000 		.4byte	.LVL98-1
 8393 0586 F4000000 		.4byte	.LVL99
 8394 058a 0400     		.2byte	0x4
 8395 058c F3       		.byte	0xf3
 8396 058d 01       		.uleb128 0x1
 8397 058e 52       		.byte	0x52
 8398 058f 9F       		.byte	0x9f
 8399 0590 F4000000 		.4byte	.LVL99
 8400 0594 FB000000 		.4byte	.LVL100-1
 8401 0598 0100     		.2byte	0x1
 8402 059a 52       		.byte	0x52
 8403 059b FB000000 		.4byte	.LVL100-1
 8404 059f 0A010000 		.4byte	.LVL101
 8405 05a3 0400     		.2byte	0x4
 8406 05a5 F3       		.byte	0xf3
 8407 05a6 01       		.uleb128 0x1
 8408 05a7 52       		.byte	0x52
 8409 05a8 9F       		.byte	0x9f
 8410 05a9 0A010000 		.4byte	.LVL101
 8411 05ad 0F010000 		.4byte	.LVL102-1
 8412 05b1 0100     		.2byte	0x1
 8413 05b3 52       		.byte	0x52
 8414 05b4 0F010000 		.4byte	.LVL102-1
 8415 05b8 1E010000 		.4byte	.LVL103
 8416 05bc 0400     		.2byte	0x4
 8417 05be F3       		.byte	0xf3
 8418 05bf 01       		.uleb128 0x1
 8419 05c0 52       		.byte	0x52
 8420 05c1 9F       		.byte	0x9f
 8421 05c2 1E010000 		.4byte	.LVL103
 8422 05c6 21010000 		.4byte	.LVL104-1
 8423 05ca 0100     		.2byte	0x1
 8424 05cc 52       		.byte	0x52
 8425 05cd 21010000 		.4byte	.LVL104-1
 8426 05d1 52010000 		.4byte	.LVL110
 8427 05d5 0400     		.2byte	0x4
ARM GAS  C:\Users\brian\AppData\Local\Temp\cckfkOf3.s 			page 181


 8428 05d7 F3       		.byte	0xf3
 8429 05d8 01       		.uleb128 0x1
 8430 05d9 52       		.byte	0x52
 8431 05da 9F       		.byte	0x9f
 8432 05db 52010000 		.4byte	.LVL110
 8433 05df 70010000 		.4byte	.LFE4
 8434 05e3 0100     		.2byte	0x1
 8435 05e5 52       		.byte	0x52
 8436 05e6 00000000 		.4byte	0
 8437 05ea 00000000 		.4byte	0
 8438              	.LLST22:
 8439 05ee 00000000 		.4byte	.LVL62
 8440 05f2 16000000 		.4byte	.LVL64
 8441 05f6 0100     		.2byte	0x1
 8442 05f8 53       		.byte	0x53
 8443 05f9 16000000 		.4byte	.LVL64
 8444 05fd 58010000 		.4byte	.LVL112
 8445 0601 0100     		.2byte	0x1
 8446 0603 57       		.byte	0x57
 8447 0604 58010000 		.4byte	.LVL112
 8448 0608 70010000 		.4byte	.LFE4
 8449 060c 0400     		.2byte	0x4
 8450 060e F3       		.byte	0xf3
 8451 060f 01       		.uleb128 0x1
 8452 0610 53       		.byte	0x53
 8453 0611 9F       		.byte	0x9f
 8454 0612 00000000 		.4byte	0
 8455 0616 00000000 		.4byte	0
 8456              	.LLST23:
 8457 061a 24000000 		.4byte	.LVL66
 8458 061e 26000000 		.4byte	.LVL67
 8459 0622 0100     		.2byte	0x1
 8460 0624 54       		.byte	0x54
 8461 0625 26000000 		.4byte	.LVL67
 8462 0629 2A000000 		.4byte	.LVL68
 8463 062d 0200     		.2byte	0x2
 8464 062f 77       		.byte	0x77
 8465 0630 05       		.sleb128 5
 8466 0631 2A000000 		.4byte	.LVL68
 8467 0635 BC000000 		.4byte	.LVL90
 8468 0639 0100     		.2byte	0x1
 8469 063b 58       		.byte	0x58
 8470 063c 00000000 		.4byte	0
 8471 0640 00000000 		.4byte	0
 8472              	.LLST24:
 8473 0644 86000000 		.4byte	.LVL78
 8474 0648 8A000000 		.4byte	.LVL80
 8475 064c 0100     		.2byte	0x1
 8476 064e 53       		.byte	0x53
 8477 064f 8A000000 		.4byte	.LVL80
 8478 0653 8C000000 		.4byte	.LVL81
 8479 0657 0200     		.2byte	0x2
 8480 0659 77       		.byte	0x77
 8481 065a 04       		.sleb128 4
 8482 065b 8C000000 		.4byte	.LVL81
 8483 065f 94000000 		.4byte	.LVL82
 8484 0663 0100     		.2byte	0x1
ARM GAS  C:\Users\brian\AppData\Local\Temp\cckfkOf3.s 			page 182


 8485 0665 54       		.byte	0x54
 8486 0666 94000000 		.4byte	.LVL82
 8487 066a 9A000000 		.4byte	.LVL83
 8488 066e 0300     		.2byte	0x3
 8489 0670 09       		.byte	0x9
 8490 0671 AC       		.byte	0xac
 8491 0672 9F       		.byte	0x9f
 8492 0673 9A000000 		.4byte	.LVL83
 8493 0677 A4000000 		.4byte	.LVL85
 8494 067b 0100     		.2byte	0x1
 8495 067d 54       		.byte	0x54
 8496 067e 00000000 		.4byte	0
 8497 0682 00000000 		.4byte	0
 8498              	.LLST25:
 8499 0686 88000000 		.4byte	.LVL79
 8500 068a A1000000 		.4byte	.LVL84-1
 8501 068e 0100     		.2byte	0x1
 8502 0690 52       		.byte	0x52
 8503 0691 00000000 		.4byte	0
 8504 0695 00000000 		.4byte	0
 8505              	.LLST26:
 8506 0699 00000000 		.4byte	.LVL113
 8507 069d 21000000 		.4byte	.LVL116-1
 8508 06a1 0100     		.2byte	0x1
 8509 06a3 50       		.byte	0x50
 8510 06a4 21000000 		.4byte	.LVL116-1
 8511 06a8 BC000000 		.4byte	.LVL141
 8512 06ac 0100     		.2byte	0x1
 8513 06ae 56       		.byte	0x56
 8514 06af BC000000 		.4byte	.LVL141
 8515 06b3 C1000000 		.4byte	.LVL142-1
 8516 06b7 0100     		.2byte	0x1
 8517 06b9 50       		.byte	0x50
 8518 06ba C1000000 		.4byte	.LVL142-1
 8519 06be C8000000 		.4byte	.LVL143
 8520 06c2 0100     		.2byte	0x1
 8521 06c4 56       		.byte	0x56
 8522 06c5 C8000000 		.4byte	.LVL143
 8523 06c9 CB000000 		.4byte	.LVL144-1
 8524 06cd 0100     		.2byte	0x1
 8525 06cf 50       		.byte	0x50
 8526 06d0 CB000000 		.4byte	.LVL144-1
 8527 06d4 DA000000 		.4byte	.LVL146
 8528 06d8 0100     		.2byte	0x1
 8529 06da 56       		.byte	0x56
 8530 06db DA000000 		.4byte	.LVL146
 8531 06df E1000000 		.4byte	.LVL147-1
 8532 06e3 0100     		.2byte	0x1
 8533 06e5 50       		.byte	0x50
 8534 06e6 E1000000 		.4byte	.LVL147-1
 8535 06ea E8000000 		.4byte	.LVL148
 8536 06ee 0100     		.2byte	0x1
 8537 06f0 56       		.byte	0x56
 8538 06f1 E8000000 		.4byte	.LVL148
 8539 06f5 ED000000 		.4byte	.LVL149-1
 8540 06f9 0100     		.2byte	0x1
 8541 06fb 50       		.byte	0x50
ARM GAS  C:\Users\brian\AppData\Local\Temp\cckfkOf3.s 			page 183


 8542 06fc ED000000 		.4byte	.LVL149-1
 8543 0700 F4000000 		.4byte	.LVL150
 8544 0704 0100     		.2byte	0x1
 8545 0706 56       		.byte	0x56
 8546 0707 F4000000 		.4byte	.LVL150
 8547 070b FB000000 		.4byte	.LVL151-1
 8548 070f 0100     		.2byte	0x1
 8549 0711 50       		.byte	0x50
 8550 0712 FB000000 		.4byte	.LVL151-1
 8551 0716 0A010000 		.4byte	.LVL152
 8552 071a 0100     		.2byte	0x1
 8553 071c 56       		.byte	0x56
 8554 071d 0A010000 		.4byte	.LVL152
 8555 0721 0F010000 		.4byte	.LVL153-1
 8556 0725 0100     		.2byte	0x1
 8557 0727 50       		.byte	0x50
 8558 0728 0F010000 		.4byte	.LVL153-1
 8559 072c 1E010000 		.4byte	.LVL154
 8560 0730 0100     		.2byte	0x1
 8561 0732 56       		.byte	0x56
 8562 0733 1E010000 		.4byte	.LVL154
 8563 0737 21010000 		.4byte	.LVL155-1
 8564 073b 0100     		.2byte	0x1
 8565 073d 50       		.byte	0x50
 8566 073e 21010000 		.4byte	.LVL155-1
 8567 0742 52010000 		.4byte	.LVL161
 8568 0746 0100     		.2byte	0x1
 8569 0748 56       		.byte	0x56
 8570 0749 52010000 		.4byte	.LVL161
 8571 074d 54010000 		.4byte	.LVL162
 8572 0751 0100     		.2byte	0x1
 8573 0753 50       		.byte	0x50
 8574 0754 54010000 		.4byte	.LVL162
 8575 0758 58010000 		.4byte	.LVL163
 8576 075c 0100     		.2byte	0x1
 8577 075e 56       		.byte	0x56
 8578 075f 58010000 		.4byte	.LVL163
 8579 0763 70010000 		.4byte	.LFE5
 8580 0767 0400     		.2byte	0x4
 8581 0769 F3       		.byte	0xf3
 8582 076a 01       		.uleb128 0x1
 8583 076b 50       		.byte	0x50
 8584 076c 9F       		.byte	0x9f
 8585 076d 00000000 		.4byte	0
 8586 0771 00000000 		.4byte	0
 8587              	.LLST27:
 8588 0775 00000000 		.4byte	.LVL113
 8589 0779 0C000000 		.4byte	.LVL114
 8590 077d 0100     		.2byte	0x1
 8591 077f 51       		.byte	0x51
 8592 0780 0C000000 		.4byte	.LVL114
 8593 0784 70010000 		.4byte	.LFE5
 8594 0788 0400     		.2byte	0x4
 8595 078a F3       		.byte	0xf3
 8596 078b 01       		.uleb128 0x1
 8597 078c 51       		.byte	0x51
 8598 078d 9F       		.byte	0x9f
ARM GAS  C:\Users\brian\AppData\Local\Temp\cckfkOf3.s 			page 184


 8599 078e 00000000 		.4byte	0
 8600 0792 00000000 		.4byte	0
 8601              	.LLST28:
 8602 0796 00000000 		.4byte	.LVL113
 8603 079a 21000000 		.4byte	.LVL116-1
 8604 079e 0100     		.2byte	0x1
 8605 07a0 52       		.byte	0x52
 8606 07a1 21000000 		.4byte	.LVL116-1
 8607 07a5 84000000 		.4byte	.LVL128
 8608 07a9 0400     		.2byte	0x4
 8609 07ab F3       		.byte	0xf3
 8610 07ac 01       		.uleb128 0x1
 8611 07ad 52       		.byte	0x52
 8612 07ae 9F       		.byte	0x9f
 8613 07af 84000000 		.4byte	.LVL128
 8614 07b3 AE000000 		.4byte	.LVL139
 8615 07b7 0100     		.2byte	0x1
 8616 07b9 55       		.byte	0x55
 8617 07ba BC000000 		.4byte	.LVL141
 8618 07be C1000000 		.4byte	.LVL142-1
 8619 07c2 0100     		.2byte	0x1
 8620 07c4 52       		.byte	0x52
 8621 07c5 C1000000 		.4byte	.LVL142-1
 8622 07c9 C8000000 		.4byte	.LVL143
 8623 07cd 0400     		.2byte	0x4
 8624 07cf F3       		.byte	0xf3
 8625 07d0 01       		.uleb128 0x1
 8626 07d1 52       		.byte	0x52
 8627 07d2 9F       		.byte	0x9f
 8628 07d3 C8000000 		.4byte	.LVL143
 8629 07d7 CB000000 		.4byte	.LVL144-1
 8630 07db 0100     		.2byte	0x1
 8631 07dd 52       		.byte	0x52
 8632 07de CB000000 		.4byte	.LVL144-1
 8633 07e2 DA000000 		.4byte	.LVL146
 8634 07e6 0400     		.2byte	0x4
 8635 07e8 F3       		.byte	0xf3
 8636 07e9 01       		.uleb128 0x1
 8637 07ea 52       		.byte	0x52
 8638 07eb 9F       		.byte	0x9f
 8639 07ec DA000000 		.4byte	.LVL146
 8640 07f0 E1000000 		.4byte	.LVL147-1
 8641 07f4 0100     		.2byte	0x1
 8642 07f6 52       		.byte	0x52
 8643 07f7 E1000000 		.4byte	.LVL147-1
 8644 07fb E8000000 		.4byte	.LVL148
 8645 07ff 0400     		.2byte	0x4
 8646 0801 F3       		.byte	0xf3
 8647 0802 01       		.uleb128 0x1
 8648 0803 52       		.byte	0x52
 8649 0804 9F       		.byte	0x9f
 8650 0805 E8000000 		.4byte	.LVL148
 8651 0809 ED000000 		.4byte	.LVL149-1
 8652 080d 0100     		.2byte	0x1
 8653 080f 52       		.byte	0x52
 8654 0810 ED000000 		.4byte	.LVL149-1
 8655 0814 F4000000 		.4byte	.LVL150
ARM GAS  C:\Users\brian\AppData\Local\Temp\cckfkOf3.s 			page 185


 8656 0818 0400     		.2byte	0x4
 8657 081a F3       		.byte	0xf3
 8658 081b 01       		.uleb128 0x1
 8659 081c 52       		.byte	0x52
 8660 081d 9F       		.byte	0x9f
 8661 081e F4000000 		.4byte	.LVL150
 8662 0822 FB000000 		.4byte	.LVL151-1
 8663 0826 0100     		.2byte	0x1
 8664 0828 52       		.byte	0x52
 8665 0829 FB000000 		.4byte	.LVL151-1
 8666 082d 0A010000 		.4byte	.LVL152
 8667 0831 0400     		.2byte	0x4
 8668 0833 F3       		.byte	0xf3
 8669 0834 01       		.uleb128 0x1
 8670 0835 52       		.byte	0x52
 8671 0836 9F       		.byte	0x9f
 8672 0837 0A010000 		.4byte	.LVL152
 8673 083b 0F010000 		.4byte	.LVL153-1
 8674 083f 0100     		.2byte	0x1
 8675 0841 52       		.byte	0x52
 8676 0842 0F010000 		.4byte	.LVL153-1
 8677 0846 1E010000 		.4byte	.LVL154
 8678 084a 0400     		.2byte	0x4
 8679 084c F3       		.byte	0xf3
 8680 084d 01       		.uleb128 0x1
 8681 084e 52       		.byte	0x52
 8682 084f 9F       		.byte	0x9f
 8683 0850 1E010000 		.4byte	.LVL154
 8684 0854 21010000 		.4byte	.LVL155-1
 8685 0858 0100     		.2byte	0x1
 8686 085a 52       		.byte	0x52
 8687 085b 21010000 		.4byte	.LVL155-1
 8688 085f 52010000 		.4byte	.LVL161
 8689 0863 0400     		.2byte	0x4
 8690 0865 F3       		.byte	0xf3
 8691 0866 01       		.uleb128 0x1
 8692 0867 52       		.byte	0x52
 8693 0868 9F       		.byte	0x9f
 8694 0869 52010000 		.4byte	.LVL161
 8695 086d 70010000 		.4byte	.LFE5
 8696 0871 0100     		.2byte	0x1
 8697 0873 52       		.byte	0x52
 8698 0874 00000000 		.4byte	0
 8699 0878 00000000 		.4byte	0
 8700              	.LLST29:
 8701 087c 00000000 		.4byte	.LVL113
 8702 0880 16000000 		.4byte	.LVL115
 8703 0884 0100     		.2byte	0x1
 8704 0886 53       		.byte	0x53
 8705 0887 16000000 		.4byte	.LVL115
 8706 088b 58010000 		.4byte	.LVL163
 8707 088f 0100     		.2byte	0x1
 8708 0891 57       		.byte	0x57
 8709 0892 58010000 		.4byte	.LVL163
 8710 0896 70010000 		.4byte	.LFE5
 8711 089a 0400     		.2byte	0x4
 8712 089c F3       		.byte	0xf3
ARM GAS  C:\Users\brian\AppData\Local\Temp\cckfkOf3.s 			page 186


 8713 089d 01       		.uleb128 0x1
 8714 089e 53       		.byte	0x53
 8715 089f 9F       		.byte	0x9f
 8716 08a0 00000000 		.4byte	0
 8717 08a4 00000000 		.4byte	0
 8718              	.LLST30:
 8719 08a8 24000000 		.4byte	.LVL117
 8720 08ac 26000000 		.4byte	.LVL118
 8721 08b0 0100     		.2byte	0x1
 8722 08b2 54       		.byte	0x54
 8723 08b3 26000000 		.4byte	.LVL118
 8724 08b7 2A000000 		.4byte	.LVL119
 8725 08bb 0200     		.2byte	0x2
 8726 08bd 77       		.byte	0x77
 8727 08be 05       		.sleb128 5
 8728 08bf 2A000000 		.4byte	.LVL119
 8729 08c3 BC000000 		.4byte	.LVL141
 8730 08c7 0100     		.2byte	0x1
 8731 08c9 58       		.byte	0x58
 8732 08ca 00000000 		.4byte	0
 8733 08ce 00000000 		.4byte	0
 8734              	.LLST31:
 8735 08d2 86000000 		.4byte	.LVL129
 8736 08d6 8A000000 		.4byte	.LVL131
 8737 08da 0100     		.2byte	0x1
 8738 08dc 53       		.byte	0x53
 8739 08dd 8A000000 		.4byte	.LVL131
 8740 08e1 8C000000 		.4byte	.LVL132
 8741 08e5 0200     		.2byte	0x2
 8742 08e7 77       		.byte	0x77
 8743 08e8 04       		.sleb128 4
 8744 08e9 8C000000 		.4byte	.LVL132
 8745 08ed 94000000 		.4byte	.LVL133
 8746 08f1 0100     		.2byte	0x1
 8747 08f3 54       		.byte	0x54
 8748 08f4 94000000 		.4byte	.LVL133
 8749 08f8 9A000000 		.4byte	.LVL134
 8750 08fc 0300     		.2byte	0x3
 8751 08fe 09       		.byte	0x9
 8752 08ff F0       		.byte	0xf0
 8753 0900 9F       		.byte	0x9f
 8754 0901 9A000000 		.4byte	.LVL134
 8755 0905 A4000000 		.4byte	.LVL136
 8756 0909 0100     		.2byte	0x1
 8757 090b 54       		.byte	0x54
 8758 090c 00000000 		.4byte	0
 8759 0910 00000000 		.4byte	0
 8760              	.LLST32:
 8761 0914 88000000 		.4byte	.LVL130
 8762 0918 A1000000 		.4byte	.LVL135-1
 8763 091c 0100     		.2byte	0x1
 8764 091e 52       		.byte	0x52
 8765 091f 00000000 		.4byte	0
 8766 0923 00000000 		.4byte	0
 8767              	.LLST33:
 8768 0927 00000000 		.4byte	.LVL164
 8769 092b 21000000 		.4byte	.LVL167-1
ARM GAS  C:\Users\brian\AppData\Local\Temp\cckfkOf3.s 			page 187


 8770 092f 0100     		.2byte	0x1
 8771 0931 50       		.byte	0x50
 8772 0932 21000000 		.4byte	.LVL167-1
 8773 0936 C8000000 		.4byte	.LVL189
 8774 093a 0100     		.2byte	0x1
 8775 093c 56       		.byte	0x56
 8776 093d C8000000 		.4byte	.LVL189
 8777 0941 CD000000 		.4byte	.LVL190-1
 8778 0945 0100     		.2byte	0x1
 8779 0947 50       		.byte	0x50
 8780 0948 CD000000 		.4byte	.LVL190-1
 8781 094c D4000000 		.4byte	.LVL191
 8782 0950 0100     		.2byte	0x1
 8783 0952 56       		.byte	0x56
 8784 0953 D4000000 		.4byte	.LVL191
 8785 0957 D7000000 		.4byte	.LVL192-1
 8786 095b 0100     		.2byte	0x1
 8787 095d 50       		.byte	0x50
 8788 095e D7000000 		.4byte	.LVL192-1
 8789 0962 E6000000 		.4byte	.LVL194
 8790 0966 0100     		.2byte	0x1
 8791 0968 56       		.byte	0x56
 8792 0969 E6000000 		.4byte	.LVL194
 8793 096d ED000000 		.4byte	.LVL195-1
 8794 0971 0100     		.2byte	0x1
 8795 0973 50       		.byte	0x50
 8796 0974 ED000000 		.4byte	.LVL195-1
 8797 0978 F4000000 		.4byte	.LVL196
 8798 097c 0100     		.2byte	0x1
 8799 097e 56       		.byte	0x56
 8800 097f F4000000 		.4byte	.LVL196
 8801 0983 F9000000 		.4byte	.LVL197-1
 8802 0987 0100     		.2byte	0x1
 8803 0989 50       		.byte	0x50
 8804 098a F9000000 		.4byte	.LVL197-1
 8805 098e 00010000 		.4byte	.LVL198
 8806 0992 0100     		.2byte	0x1
 8807 0994 56       		.byte	0x56
 8808 0995 00010000 		.4byte	.LVL198
 8809 0999 07010000 		.4byte	.LVL199-1
 8810 099d 0100     		.2byte	0x1
 8811 099f 50       		.byte	0x50
 8812 09a0 07010000 		.4byte	.LVL199-1
 8813 09a4 16010000 		.4byte	.LVL200
 8814 09a8 0100     		.2byte	0x1
 8815 09aa 56       		.byte	0x56
 8816 09ab 16010000 		.4byte	.LVL200
 8817 09af 1B010000 		.4byte	.LVL201-1
 8818 09b3 0100     		.2byte	0x1
 8819 09b5 50       		.byte	0x50
 8820 09b6 1B010000 		.4byte	.LVL201-1
 8821 09ba 2A010000 		.4byte	.LVL202
 8822 09be 0100     		.2byte	0x1
 8823 09c0 56       		.byte	0x56
 8824 09c1 2A010000 		.4byte	.LVL202
 8825 09c5 2D010000 		.4byte	.LVL203-1
 8826 09c9 0100     		.2byte	0x1
ARM GAS  C:\Users\brian\AppData\Local\Temp\cckfkOf3.s 			page 188


 8827 09cb 50       		.byte	0x50
 8828 09cc 2D010000 		.4byte	.LVL203-1
 8829 09d0 5E010000 		.4byte	.LVL209
 8830 09d4 0100     		.2byte	0x1
 8831 09d6 56       		.byte	0x56
 8832 09d7 5E010000 		.4byte	.LVL209
 8833 09db 60010000 		.4byte	.LVL210
 8834 09df 0100     		.2byte	0x1
 8835 09e1 50       		.byte	0x50
 8836 09e2 60010000 		.4byte	.LVL210
 8837 09e6 64010000 		.4byte	.LVL211
 8838 09ea 0100     		.2byte	0x1
 8839 09ec 56       		.byte	0x56
 8840 09ed 64010000 		.4byte	.LVL211
 8841 09f1 7C010000 		.4byte	.LFE6
 8842 09f5 0400     		.2byte	0x4
 8843 09f7 F3       		.byte	0xf3
 8844 09f8 01       		.uleb128 0x1
 8845 09f9 50       		.byte	0x50
 8846 09fa 9F       		.byte	0x9f
 8847 09fb 00000000 		.4byte	0
 8848 09ff 00000000 		.4byte	0
 8849              	.LLST34:
 8850 0a03 00000000 		.4byte	.LVL164
 8851 0a07 0C000000 		.4byte	.LVL165
 8852 0a0b 0100     		.2byte	0x1
 8853 0a0d 51       		.byte	0x51
 8854 0a0e 0C000000 		.4byte	.LVL165
 8855 0a12 7C010000 		.4byte	.LFE6
 8856 0a16 0400     		.2byte	0x4
 8857 0a18 F3       		.byte	0xf3
 8858 0a19 01       		.uleb128 0x1
 8859 0a1a 51       		.byte	0x51
 8860 0a1b 9F       		.byte	0x9f
 8861 0a1c 00000000 		.4byte	0
 8862 0a20 00000000 		.4byte	0
 8863              	.LLST35:
 8864 0a24 00000000 		.4byte	.LVL164
 8865 0a28 21000000 		.4byte	.LVL167-1
 8866 0a2c 0100     		.2byte	0x1
 8867 0a2e 52       		.byte	0x52
 8868 0a2f 21000000 		.4byte	.LVL167-1
 8869 0a33 8A000000 		.4byte	.LVL179
 8870 0a37 0400     		.2byte	0x4
 8871 0a39 F3       		.byte	0xf3
 8872 0a3a 01       		.uleb128 0x1
 8873 0a3b 52       		.byte	0x52
 8874 0a3c 9F       		.byte	0x9f
 8875 0a3d 8A000000 		.4byte	.LVL179
 8876 0a41 B6000000 		.4byte	.LVL187
 8877 0a45 0100     		.2byte	0x1
 8878 0a47 55       		.byte	0x55
 8879 0a48 B6000000 		.4byte	.LVL187
 8880 0a4c C1000000 		.4byte	.LVL188-1
 8881 0a50 0100     		.2byte	0x1
 8882 0a52 52       		.byte	0x52
 8883 0a53 C8000000 		.4byte	.LVL189
ARM GAS  C:\Users\brian\AppData\Local\Temp\cckfkOf3.s 			page 189


 8884 0a57 CD000000 		.4byte	.LVL190-1
 8885 0a5b 0100     		.2byte	0x1
 8886 0a5d 52       		.byte	0x52
 8887 0a5e CD000000 		.4byte	.LVL190-1
 8888 0a62 D4000000 		.4byte	.LVL191
 8889 0a66 0400     		.2byte	0x4
 8890 0a68 F3       		.byte	0xf3
 8891 0a69 01       		.uleb128 0x1
 8892 0a6a 52       		.byte	0x52
 8893 0a6b 9F       		.byte	0x9f
 8894 0a6c D4000000 		.4byte	.LVL191
 8895 0a70 D7000000 		.4byte	.LVL192-1
 8896 0a74 0100     		.2byte	0x1
 8897 0a76 52       		.byte	0x52
 8898 0a77 D7000000 		.4byte	.LVL192-1
 8899 0a7b E6000000 		.4byte	.LVL194
 8900 0a7f 0400     		.2byte	0x4
 8901 0a81 F3       		.byte	0xf3
 8902 0a82 01       		.uleb128 0x1
 8903 0a83 52       		.byte	0x52
 8904 0a84 9F       		.byte	0x9f
 8905 0a85 E6000000 		.4byte	.LVL194
 8906 0a89 ED000000 		.4byte	.LVL195-1
 8907 0a8d 0100     		.2byte	0x1
 8908 0a8f 52       		.byte	0x52
 8909 0a90 ED000000 		.4byte	.LVL195-1
 8910 0a94 F4000000 		.4byte	.LVL196
 8911 0a98 0400     		.2byte	0x4
 8912 0a9a F3       		.byte	0xf3
 8913 0a9b 01       		.uleb128 0x1
 8914 0a9c 52       		.byte	0x52
 8915 0a9d 9F       		.byte	0x9f
 8916 0a9e F4000000 		.4byte	.LVL196
 8917 0aa2 F9000000 		.4byte	.LVL197-1
 8918 0aa6 0100     		.2byte	0x1
 8919 0aa8 52       		.byte	0x52
 8920 0aa9 F9000000 		.4byte	.LVL197-1
 8921 0aad 00010000 		.4byte	.LVL198
 8922 0ab1 0400     		.2byte	0x4
 8923 0ab3 F3       		.byte	0xf3
 8924 0ab4 01       		.uleb128 0x1
 8925 0ab5 52       		.byte	0x52
 8926 0ab6 9F       		.byte	0x9f
 8927 0ab7 00010000 		.4byte	.LVL198
 8928 0abb 07010000 		.4byte	.LVL199-1
 8929 0abf 0100     		.2byte	0x1
 8930 0ac1 52       		.byte	0x52
 8931 0ac2 07010000 		.4byte	.LVL199-1
 8932 0ac6 16010000 		.4byte	.LVL200
 8933 0aca 0400     		.2byte	0x4
 8934 0acc F3       		.byte	0xf3
 8935 0acd 01       		.uleb128 0x1
 8936 0ace 52       		.byte	0x52
 8937 0acf 9F       		.byte	0x9f
 8938 0ad0 16010000 		.4byte	.LVL200
 8939 0ad4 1B010000 		.4byte	.LVL201-1
 8940 0ad8 0100     		.2byte	0x1
ARM GAS  C:\Users\brian\AppData\Local\Temp\cckfkOf3.s 			page 190


 8941 0ada 52       		.byte	0x52
 8942 0adb 1B010000 		.4byte	.LVL201-1
 8943 0adf 2A010000 		.4byte	.LVL202
 8944 0ae3 0400     		.2byte	0x4
 8945 0ae5 F3       		.byte	0xf3
 8946 0ae6 01       		.uleb128 0x1
 8947 0ae7 52       		.byte	0x52
 8948 0ae8 9F       		.byte	0x9f
 8949 0ae9 2A010000 		.4byte	.LVL202
 8950 0aed 2D010000 		.4byte	.LVL203-1
 8951 0af1 0100     		.2byte	0x1
 8952 0af3 52       		.byte	0x52
 8953 0af4 2D010000 		.4byte	.LVL203-1
 8954 0af8 5E010000 		.4byte	.LVL209
 8955 0afc 0400     		.2byte	0x4
 8956 0afe F3       		.byte	0xf3
 8957 0aff 01       		.uleb128 0x1
 8958 0b00 52       		.byte	0x52
 8959 0b01 9F       		.byte	0x9f
 8960 0b02 5E010000 		.4byte	.LVL209
 8961 0b06 7C010000 		.4byte	.LFE6
 8962 0b0a 0100     		.2byte	0x1
 8963 0b0c 52       		.byte	0x52
 8964 0b0d 00000000 		.4byte	0
 8965 0b11 00000000 		.4byte	0
 8966              	.LLST36:
 8967 0b15 00000000 		.4byte	.LVL164
 8968 0b19 16000000 		.4byte	.LVL166
 8969 0b1d 0100     		.2byte	0x1
 8970 0b1f 53       		.byte	0x53
 8971 0b20 16000000 		.4byte	.LVL166
 8972 0b24 64010000 		.4byte	.LVL211
 8973 0b28 0100     		.2byte	0x1
 8974 0b2a 58       		.byte	0x58
 8975 0b2b 64010000 		.4byte	.LVL211
 8976 0b2f 7C010000 		.4byte	.LFE6
 8977 0b33 0400     		.2byte	0x4
 8978 0b35 F3       		.byte	0xf3
 8979 0b36 01       		.uleb128 0x1
 8980 0b37 53       		.byte	0x53
 8981 0b38 9F       		.byte	0x9f
 8982 0b39 00000000 		.4byte	0
 8983 0b3d 00000000 		.4byte	0
 8984              	.LLST37:
 8985 0b41 26000000 		.4byte	.LVL168
 8986 0b45 28000000 		.4byte	.LVL169
 8987 0b49 0100     		.2byte	0x1
 8988 0b4b 54       		.byte	0x54
 8989 0b4c 28000000 		.4byte	.LVL169
 8990 0b50 2A000000 		.4byte	.LVL170
 8991 0b54 0200     		.2byte	0x2
 8992 0b56 78       		.byte	0x78
 8993 0b57 05       		.sleb128 5
 8994 0b58 2A000000 		.4byte	.LVL170
 8995 0b5c 8A000000 		.4byte	.LVL179
 8996 0b60 0100     		.2byte	0x1
 8997 0b62 54       		.byte	0x54
ARM GAS  C:\Users\brian\AppData\Local\Temp\cckfkOf3.s 			page 191


 8998 0b63 00000000 		.4byte	0
 8999 0b67 00000000 		.4byte	0
 9000              	.LLST38:
 9001 0b6b 8E000000 		.4byte	.LVL180
 9002 0b6f A4000000 		.4byte	.LVL184
 9003 0b73 0100     		.2byte	0x1
 9004 0b75 54       		.byte	0x54
 9005 0b76 A4000000 		.4byte	.LVL184
 9006 0b7a A6000000 		.4byte	.LVL185
 9007 0b7e 0300     		.2byte	0x3
 9008 0b80 74       		.byte	0x74
 9009 0b81 1F       		.sleb128 31
 9010 0b82 9F       		.byte	0x9f
 9011 0b83 A6000000 		.4byte	.LVL185
 9012 0b87 C8000000 		.4byte	.LVL189
 9013 0b8b 0100     		.2byte	0x1
 9014 0b8d 54       		.byte	0x54
 9015 0b8e 00000000 		.4byte	0
 9016 0b92 00000000 		.4byte	0
 9017              	.LLST39:
 9018 0b96 92000000 		.4byte	.LVL181
 9019 0b9a C8000000 		.4byte	.LVL189
 9020 0b9e 0100     		.2byte	0x1
 9021 0ba0 57       		.byte	0x57
 9022 0ba1 00000000 		.4byte	0
 9023 0ba5 00000000 		.4byte	0
 9024              	.LLST40:
 9025 0ba9 00000000 		.4byte	.LVL212
 9026 0bad 21000000 		.4byte	.LVL215-1
 9027 0bb1 0100     		.2byte	0x1
 9028 0bb3 50       		.byte	0x50
 9029 0bb4 21000000 		.4byte	.LVL215-1
 9030 0bb8 C8000000 		.4byte	.LVL237
 9031 0bbc 0100     		.2byte	0x1
 9032 0bbe 56       		.byte	0x56
 9033 0bbf C8000000 		.4byte	.LVL237
 9034 0bc3 CD000000 		.4byte	.LVL238-1
 9035 0bc7 0100     		.2byte	0x1
 9036 0bc9 50       		.byte	0x50
 9037 0bca CD000000 		.4byte	.LVL238-1
 9038 0bce D4000000 		.4byte	.LVL239
 9039 0bd2 0100     		.2byte	0x1
 9040 0bd4 56       		.byte	0x56
 9041 0bd5 D4000000 		.4byte	.LVL239
 9042 0bd9 D7000000 		.4byte	.LVL240-1
 9043 0bdd 0100     		.2byte	0x1
 9044 0bdf 50       		.byte	0x50
 9045 0be0 D7000000 		.4byte	.LVL240-1
 9046 0be4 E6000000 		.4byte	.LVL242
 9047 0be8 0100     		.2byte	0x1
 9048 0bea 56       		.byte	0x56
 9049 0beb E6000000 		.4byte	.LVL242
 9050 0bef ED000000 		.4byte	.LVL243-1
 9051 0bf3 0100     		.2byte	0x1
 9052 0bf5 50       		.byte	0x50
 9053 0bf6 ED000000 		.4byte	.LVL243-1
 9054 0bfa F4000000 		.4byte	.LVL244
ARM GAS  C:\Users\brian\AppData\Local\Temp\cckfkOf3.s 			page 192


 9055 0bfe 0100     		.2byte	0x1
 9056 0c00 56       		.byte	0x56
 9057 0c01 F4000000 		.4byte	.LVL244
 9058 0c05 F9000000 		.4byte	.LVL245-1
 9059 0c09 0100     		.2byte	0x1
 9060 0c0b 50       		.byte	0x50
 9061 0c0c F9000000 		.4byte	.LVL245-1
 9062 0c10 00010000 		.4byte	.LVL246
 9063 0c14 0100     		.2byte	0x1
 9064 0c16 56       		.byte	0x56
 9065 0c17 00010000 		.4byte	.LVL246
 9066 0c1b 07010000 		.4byte	.LVL247-1
 9067 0c1f 0100     		.2byte	0x1
 9068 0c21 50       		.byte	0x50
 9069 0c22 07010000 		.4byte	.LVL247-1
 9070 0c26 16010000 		.4byte	.LVL248
 9071 0c2a 0100     		.2byte	0x1
 9072 0c2c 56       		.byte	0x56
 9073 0c2d 16010000 		.4byte	.LVL248
 9074 0c31 1B010000 		.4byte	.LVL249-1
 9075 0c35 0100     		.2byte	0x1
 9076 0c37 50       		.byte	0x50
 9077 0c38 1B010000 		.4byte	.LVL249-1
 9078 0c3c 2A010000 		.4byte	.LVL250
 9079 0c40 0100     		.2byte	0x1
 9080 0c42 56       		.byte	0x56
 9081 0c43 2A010000 		.4byte	.LVL250
 9082 0c47 2D010000 		.4byte	.LVL251-1
 9083 0c4b 0100     		.2byte	0x1
 9084 0c4d 50       		.byte	0x50
 9085 0c4e 2D010000 		.4byte	.LVL251-1
 9086 0c52 5E010000 		.4byte	.LVL257
 9087 0c56 0100     		.2byte	0x1
 9088 0c58 56       		.byte	0x56
 9089 0c59 5E010000 		.4byte	.LVL257
 9090 0c5d 60010000 		.4byte	.LVL258
 9091 0c61 0100     		.2byte	0x1
 9092 0c63 50       		.byte	0x50
 9093 0c64 60010000 		.4byte	.LVL258
 9094 0c68 64010000 		.4byte	.LVL259
 9095 0c6c 0100     		.2byte	0x1
 9096 0c6e 56       		.byte	0x56
 9097 0c6f 64010000 		.4byte	.LVL259
 9098 0c73 7C010000 		.4byte	.LFE7
 9099 0c77 0400     		.2byte	0x4
 9100 0c79 F3       		.byte	0xf3
 9101 0c7a 01       		.uleb128 0x1
 9102 0c7b 50       		.byte	0x50
 9103 0c7c 9F       		.byte	0x9f
 9104 0c7d 00000000 		.4byte	0
 9105 0c81 00000000 		.4byte	0
 9106              	.LLST41:
 9107 0c85 00000000 		.4byte	.LVL212
 9108 0c89 0C000000 		.4byte	.LVL213
 9109 0c8d 0100     		.2byte	0x1
 9110 0c8f 51       		.byte	0x51
 9111 0c90 0C000000 		.4byte	.LVL213
ARM GAS  C:\Users\brian\AppData\Local\Temp\cckfkOf3.s 			page 193


 9112 0c94 7C010000 		.4byte	.LFE7
 9113 0c98 0400     		.2byte	0x4
 9114 0c9a F3       		.byte	0xf3
 9115 0c9b 01       		.uleb128 0x1
 9116 0c9c 51       		.byte	0x51
 9117 0c9d 9F       		.byte	0x9f
 9118 0c9e 00000000 		.4byte	0
 9119 0ca2 00000000 		.4byte	0
 9120              	.LLST42:
 9121 0ca6 00000000 		.4byte	.LVL212
 9122 0caa 21000000 		.4byte	.LVL215-1
 9123 0cae 0100     		.2byte	0x1
 9124 0cb0 52       		.byte	0x52
 9125 0cb1 21000000 		.4byte	.LVL215-1
 9126 0cb5 8A000000 		.4byte	.LVL227
 9127 0cb9 0400     		.2byte	0x4
 9128 0cbb F3       		.byte	0xf3
 9129 0cbc 01       		.uleb128 0x1
 9130 0cbd 52       		.byte	0x52
 9131 0cbe 9F       		.byte	0x9f
 9132 0cbf 8A000000 		.4byte	.LVL227
 9133 0cc3 B6000000 		.4byte	.LVL235
 9134 0cc7 0100     		.2byte	0x1
 9135 0cc9 55       		.byte	0x55
 9136 0cca B6000000 		.4byte	.LVL235
 9137 0cce C1000000 		.4byte	.LVL236-1
 9138 0cd2 0100     		.2byte	0x1
 9139 0cd4 52       		.byte	0x52
 9140 0cd5 C8000000 		.4byte	.LVL237
 9141 0cd9 CD000000 		.4byte	.LVL238-1
 9142 0cdd 0100     		.2byte	0x1
 9143 0cdf 52       		.byte	0x52
 9144 0ce0 CD000000 		.4byte	.LVL238-1
 9145 0ce4 D4000000 		.4byte	.LVL239
 9146 0ce8 0400     		.2byte	0x4
 9147 0cea F3       		.byte	0xf3
 9148 0ceb 01       		.uleb128 0x1
 9149 0cec 52       		.byte	0x52
 9150 0ced 9F       		.byte	0x9f
 9151 0cee D4000000 		.4byte	.LVL239
 9152 0cf2 D7000000 		.4byte	.LVL240-1
 9153 0cf6 0100     		.2byte	0x1
 9154 0cf8 52       		.byte	0x52
 9155 0cf9 D7000000 		.4byte	.LVL240-1
 9156 0cfd E6000000 		.4byte	.LVL242
 9157 0d01 0400     		.2byte	0x4
 9158 0d03 F3       		.byte	0xf3
 9159 0d04 01       		.uleb128 0x1
 9160 0d05 52       		.byte	0x52
 9161 0d06 9F       		.byte	0x9f
 9162 0d07 E6000000 		.4byte	.LVL242
 9163 0d0b ED000000 		.4byte	.LVL243-1
 9164 0d0f 0100     		.2byte	0x1
 9165 0d11 52       		.byte	0x52
 9166 0d12 ED000000 		.4byte	.LVL243-1
 9167 0d16 F4000000 		.4byte	.LVL244
 9168 0d1a 0400     		.2byte	0x4
ARM GAS  C:\Users\brian\AppData\Local\Temp\cckfkOf3.s 			page 194


 9169 0d1c F3       		.byte	0xf3
 9170 0d1d 01       		.uleb128 0x1
 9171 0d1e 52       		.byte	0x52
 9172 0d1f 9F       		.byte	0x9f
 9173 0d20 F4000000 		.4byte	.LVL244
 9174 0d24 F9000000 		.4byte	.LVL245-1
 9175 0d28 0100     		.2byte	0x1
 9176 0d2a 52       		.byte	0x52
 9177 0d2b F9000000 		.4byte	.LVL245-1
 9178 0d2f 00010000 		.4byte	.LVL246
 9179 0d33 0400     		.2byte	0x4
 9180 0d35 F3       		.byte	0xf3
 9181 0d36 01       		.uleb128 0x1
 9182 0d37 52       		.byte	0x52
 9183 0d38 9F       		.byte	0x9f
 9184 0d39 00010000 		.4byte	.LVL246
 9185 0d3d 07010000 		.4byte	.LVL247-1
 9186 0d41 0100     		.2byte	0x1
 9187 0d43 52       		.byte	0x52
 9188 0d44 07010000 		.4byte	.LVL247-1
 9189 0d48 16010000 		.4byte	.LVL248
 9190 0d4c 0400     		.2byte	0x4
 9191 0d4e F3       		.byte	0xf3
 9192 0d4f 01       		.uleb128 0x1
 9193 0d50 52       		.byte	0x52
 9194 0d51 9F       		.byte	0x9f
 9195 0d52 16010000 		.4byte	.LVL248
 9196 0d56 1B010000 		.4byte	.LVL249-1
 9197 0d5a 0100     		.2byte	0x1
 9198 0d5c 52       		.byte	0x52
 9199 0d5d 1B010000 		.4byte	.LVL249-1
 9200 0d61 2A010000 		.4byte	.LVL250
 9201 0d65 0400     		.2byte	0x4
 9202 0d67 F3       		.byte	0xf3
 9203 0d68 01       		.uleb128 0x1
 9204 0d69 52       		.byte	0x52
 9205 0d6a 9F       		.byte	0x9f
 9206 0d6b 2A010000 		.4byte	.LVL250
 9207 0d6f 2D010000 		.4byte	.LVL251-1
 9208 0d73 0100     		.2byte	0x1
 9209 0d75 52       		.byte	0x52
 9210 0d76 2D010000 		.4byte	.LVL251-1
 9211 0d7a 5E010000 		.4byte	.LVL257
 9212 0d7e 0400     		.2byte	0x4
 9213 0d80 F3       		.byte	0xf3
 9214 0d81 01       		.uleb128 0x1
 9215 0d82 52       		.byte	0x52
 9216 0d83 9F       		.byte	0x9f
 9217 0d84 5E010000 		.4byte	.LVL257
 9218 0d88 7C010000 		.4byte	.LFE7
 9219 0d8c 0100     		.2byte	0x1
 9220 0d8e 52       		.byte	0x52
 9221 0d8f 00000000 		.4byte	0
 9222 0d93 00000000 		.4byte	0
 9223              	.LLST43:
 9224 0d97 00000000 		.4byte	.LVL212
 9225 0d9b 16000000 		.4byte	.LVL214
ARM GAS  C:\Users\brian\AppData\Local\Temp\cckfkOf3.s 			page 195


 9226 0d9f 0100     		.2byte	0x1
 9227 0da1 53       		.byte	0x53
 9228 0da2 16000000 		.4byte	.LVL214
 9229 0da6 64010000 		.4byte	.LVL259
 9230 0daa 0100     		.2byte	0x1
 9231 0dac 58       		.byte	0x58
 9232 0dad 64010000 		.4byte	.LVL259
 9233 0db1 7C010000 		.4byte	.LFE7
 9234 0db5 0400     		.2byte	0x4
 9235 0db7 F3       		.byte	0xf3
 9236 0db8 01       		.uleb128 0x1
 9237 0db9 53       		.byte	0x53
 9238 0dba 9F       		.byte	0x9f
 9239 0dbb 00000000 		.4byte	0
 9240 0dbf 00000000 		.4byte	0
 9241              	.LLST44:
 9242 0dc3 26000000 		.4byte	.LVL216
 9243 0dc7 28000000 		.4byte	.LVL217
 9244 0dcb 0100     		.2byte	0x1
 9245 0dcd 54       		.byte	0x54
 9246 0dce 28000000 		.4byte	.LVL217
 9247 0dd2 2A000000 		.4byte	.LVL218
 9248 0dd6 0200     		.2byte	0x2
 9249 0dd8 78       		.byte	0x78
 9250 0dd9 05       		.sleb128 5
 9251 0dda 2A000000 		.4byte	.LVL218
 9252 0dde 8A000000 		.4byte	.LVL227
 9253 0de2 0100     		.2byte	0x1
 9254 0de4 54       		.byte	0x54
 9255 0de5 00000000 		.4byte	0
 9256 0de9 00000000 		.4byte	0
 9257              	.LLST45:
 9258 0ded 8E000000 		.4byte	.LVL228
 9259 0df1 A4000000 		.4byte	.LVL232
 9260 0df5 0100     		.2byte	0x1
 9261 0df7 54       		.byte	0x54
 9262 0df8 A4000000 		.4byte	.LVL232
 9263 0dfc A6000000 		.4byte	.LVL233
 9264 0e00 0300     		.2byte	0x3
 9265 0e02 74       		.byte	0x74
 9266 0e03 1F       		.sleb128 31
 9267 0e04 9F       		.byte	0x9f
 9268 0e05 A6000000 		.4byte	.LVL233
 9269 0e09 C8000000 		.4byte	.LVL237
 9270 0e0d 0100     		.2byte	0x1
 9271 0e0f 54       		.byte	0x54
 9272 0e10 00000000 		.4byte	0
 9273 0e14 00000000 		.4byte	0
 9274              	.LLST46:
 9275 0e18 92000000 		.4byte	.LVL229
 9276 0e1c C8000000 		.4byte	.LVL237
 9277 0e20 0100     		.2byte	0x1
 9278 0e22 57       		.byte	0x57
 9279 0e23 00000000 		.4byte	0
 9280 0e27 00000000 		.4byte	0
 9281              	.LLST47:
 9282 0e2b 00000000 		.4byte	.LVL260
ARM GAS  C:\Users\brian\AppData\Local\Temp\cckfkOf3.s 			page 196


 9283 0e2f 21000000 		.4byte	.LVL263-1
 9284 0e33 0100     		.2byte	0x1
 9285 0e35 50       		.byte	0x50
 9286 0e36 21000000 		.4byte	.LVL263-1
 9287 0e3a C6000000 		.4byte	.LVL285
 9288 0e3e 0100     		.2byte	0x1
 9289 0e40 56       		.byte	0x56
 9290 0e41 C6000000 		.4byte	.LVL285
 9291 0e45 CB000000 		.4byte	.LVL286-1
 9292 0e49 0100     		.2byte	0x1
 9293 0e4b 50       		.byte	0x50
 9294 0e4c CB000000 		.4byte	.LVL286-1
 9295 0e50 D2000000 		.4byte	.LVL287
 9296 0e54 0100     		.2byte	0x1
 9297 0e56 56       		.byte	0x56
 9298 0e57 D2000000 		.4byte	.LVL287
 9299 0e5b D5000000 		.4byte	.LVL288-1
 9300 0e5f 0100     		.2byte	0x1
 9301 0e61 50       		.byte	0x50
 9302 0e62 D5000000 		.4byte	.LVL288-1
 9303 0e66 E4000000 		.4byte	.LVL290
 9304 0e6a 0100     		.2byte	0x1
 9305 0e6c 56       		.byte	0x56
 9306 0e6d E4000000 		.4byte	.LVL290
 9307 0e71 EB000000 		.4byte	.LVL291-1
 9308 0e75 0100     		.2byte	0x1
 9309 0e77 50       		.byte	0x50
 9310 0e78 EB000000 		.4byte	.LVL291-1
 9311 0e7c F2000000 		.4byte	.LVL292
 9312 0e80 0100     		.2byte	0x1
 9313 0e82 56       		.byte	0x56
 9314 0e83 F2000000 		.4byte	.LVL292
 9315 0e87 F7000000 		.4byte	.LVL293-1
 9316 0e8b 0100     		.2byte	0x1
 9317 0e8d 50       		.byte	0x50
 9318 0e8e F7000000 		.4byte	.LVL293-1
 9319 0e92 FE000000 		.4byte	.LVL294
 9320 0e96 0100     		.2byte	0x1
 9321 0e98 56       		.byte	0x56
 9322 0e99 FE000000 		.4byte	.LVL294
 9323 0e9d 05010000 		.4byte	.LVL295-1
 9324 0ea1 0100     		.2byte	0x1
 9325 0ea3 50       		.byte	0x50
 9326 0ea4 05010000 		.4byte	.LVL295-1
 9327 0ea8 14010000 		.4byte	.LVL296
 9328 0eac 0100     		.2byte	0x1
 9329 0eae 56       		.byte	0x56
 9330 0eaf 14010000 		.4byte	.LVL296
 9331 0eb3 19010000 		.4byte	.LVL297-1
 9332 0eb7 0100     		.2byte	0x1
 9333 0eb9 50       		.byte	0x50
 9334 0eba 19010000 		.4byte	.LVL297-1
 9335 0ebe 28010000 		.4byte	.LVL298
 9336 0ec2 0100     		.2byte	0x1
 9337 0ec4 56       		.byte	0x56
 9338 0ec5 28010000 		.4byte	.LVL298
 9339 0ec9 2B010000 		.4byte	.LVL299-1
ARM GAS  C:\Users\brian\AppData\Local\Temp\cckfkOf3.s 			page 197


 9340 0ecd 0100     		.2byte	0x1
 9341 0ecf 50       		.byte	0x50
 9342 0ed0 2B010000 		.4byte	.LVL299-1
 9343 0ed4 5C010000 		.4byte	.LVL305
 9344 0ed8 0100     		.2byte	0x1
 9345 0eda 56       		.byte	0x56
 9346 0edb 5C010000 		.4byte	.LVL305
 9347 0edf 5E010000 		.4byte	.LVL306
 9348 0ee3 0100     		.2byte	0x1
 9349 0ee5 50       		.byte	0x50
 9350 0ee6 5E010000 		.4byte	.LVL306
 9351 0eea 62010000 		.4byte	.LVL307
 9352 0eee 0100     		.2byte	0x1
 9353 0ef0 56       		.byte	0x56
 9354 0ef1 62010000 		.4byte	.LVL307
 9355 0ef5 7C010000 		.4byte	.LFE8
 9356 0ef9 0400     		.2byte	0x4
 9357 0efb F3       		.byte	0xf3
 9358 0efc 01       		.uleb128 0x1
 9359 0efd 50       		.byte	0x50
 9360 0efe 9F       		.byte	0x9f
 9361 0eff 00000000 		.4byte	0
 9362 0f03 00000000 		.4byte	0
 9363              	.LLST48:
 9364 0f07 00000000 		.4byte	.LVL260
 9365 0f0b 0C000000 		.4byte	.LVL261
 9366 0f0f 0100     		.2byte	0x1
 9367 0f11 51       		.byte	0x51
 9368 0f12 0C000000 		.4byte	.LVL261
 9369 0f16 7C010000 		.4byte	.LFE8
 9370 0f1a 0400     		.2byte	0x4
 9371 0f1c F3       		.byte	0xf3
 9372 0f1d 01       		.uleb128 0x1
 9373 0f1e 51       		.byte	0x51
 9374 0f1f 9F       		.byte	0x9f
 9375 0f20 00000000 		.4byte	0
 9376 0f24 00000000 		.4byte	0
 9377              	.LLST49:
 9378 0f28 00000000 		.4byte	.LVL260
 9379 0f2c 21000000 		.4byte	.LVL263-1
 9380 0f30 0100     		.2byte	0x1
 9381 0f32 52       		.byte	0x52
 9382 0f33 21000000 		.4byte	.LVL263-1
 9383 0f37 88000000 		.4byte	.LVL275
 9384 0f3b 0400     		.2byte	0x4
 9385 0f3d F3       		.byte	0xf3
 9386 0f3e 01       		.uleb128 0x1
 9387 0f3f 52       		.byte	0x52
 9388 0f40 9F       		.byte	0x9f
 9389 0f41 88000000 		.4byte	.LVL275
 9390 0f45 B4000000 		.4byte	.LVL283
 9391 0f49 0100     		.2byte	0x1
 9392 0f4b 55       		.byte	0x55
 9393 0f4c B4000000 		.4byte	.LVL283
 9394 0f50 BF000000 		.4byte	.LVL284-1
 9395 0f54 0100     		.2byte	0x1
 9396 0f56 52       		.byte	0x52
ARM GAS  C:\Users\brian\AppData\Local\Temp\cckfkOf3.s 			page 198


 9397 0f57 C6000000 		.4byte	.LVL285
 9398 0f5b CB000000 		.4byte	.LVL286-1
 9399 0f5f 0100     		.2byte	0x1
 9400 0f61 52       		.byte	0x52
 9401 0f62 CB000000 		.4byte	.LVL286-1
 9402 0f66 D2000000 		.4byte	.LVL287
 9403 0f6a 0400     		.2byte	0x4
 9404 0f6c F3       		.byte	0xf3
 9405 0f6d 01       		.uleb128 0x1
 9406 0f6e 52       		.byte	0x52
 9407 0f6f 9F       		.byte	0x9f
 9408 0f70 D2000000 		.4byte	.LVL287
 9409 0f74 D5000000 		.4byte	.LVL288-1
 9410 0f78 0100     		.2byte	0x1
 9411 0f7a 52       		.byte	0x52
 9412 0f7b D5000000 		.4byte	.LVL288-1
 9413 0f7f E4000000 		.4byte	.LVL290
 9414 0f83 0400     		.2byte	0x4
 9415 0f85 F3       		.byte	0xf3
 9416 0f86 01       		.uleb128 0x1
 9417 0f87 52       		.byte	0x52
 9418 0f88 9F       		.byte	0x9f
 9419 0f89 E4000000 		.4byte	.LVL290
 9420 0f8d EB000000 		.4byte	.LVL291-1
 9421 0f91 0100     		.2byte	0x1
 9422 0f93 52       		.byte	0x52
 9423 0f94 EB000000 		.4byte	.LVL291-1
 9424 0f98 F2000000 		.4byte	.LVL292
 9425 0f9c 0400     		.2byte	0x4
 9426 0f9e F3       		.byte	0xf3
 9427 0f9f 01       		.uleb128 0x1
 9428 0fa0 52       		.byte	0x52
 9429 0fa1 9F       		.byte	0x9f
 9430 0fa2 F2000000 		.4byte	.LVL292
 9431 0fa6 F7000000 		.4byte	.LVL293-1
 9432 0faa 0100     		.2byte	0x1
 9433 0fac 52       		.byte	0x52
 9434 0fad F7000000 		.4byte	.LVL293-1
 9435 0fb1 FE000000 		.4byte	.LVL294
 9436 0fb5 0400     		.2byte	0x4
 9437 0fb7 F3       		.byte	0xf3
 9438 0fb8 01       		.uleb128 0x1
 9439 0fb9 52       		.byte	0x52
 9440 0fba 9F       		.byte	0x9f
 9441 0fbb FE000000 		.4byte	.LVL294
 9442 0fbf 05010000 		.4byte	.LVL295-1
 9443 0fc3 0100     		.2byte	0x1
 9444 0fc5 52       		.byte	0x52
 9445 0fc6 05010000 		.4byte	.LVL295-1
 9446 0fca 14010000 		.4byte	.LVL296
 9447 0fce 0400     		.2byte	0x4
 9448 0fd0 F3       		.byte	0xf3
 9449 0fd1 01       		.uleb128 0x1
 9450 0fd2 52       		.byte	0x52
 9451 0fd3 9F       		.byte	0x9f
 9452 0fd4 14010000 		.4byte	.LVL296
 9453 0fd8 19010000 		.4byte	.LVL297-1
ARM GAS  C:\Users\brian\AppData\Local\Temp\cckfkOf3.s 			page 199


 9454 0fdc 0100     		.2byte	0x1
 9455 0fde 52       		.byte	0x52
 9456 0fdf 19010000 		.4byte	.LVL297-1
 9457 0fe3 28010000 		.4byte	.LVL298
 9458 0fe7 0400     		.2byte	0x4
 9459 0fe9 F3       		.byte	0xf3
 9460 0fea 01       		.uleb128 0x1
 9461 0feb 52       		.byte	0x52
 9462 0fec 9F       		.byte	0x9f
 9463 0fed 28010000 		.4byte	.LVL298
 9464 0ff1 2B010000 		.4byte	.LVL299-1
 9465 0ff5 0100     		.2byte	0x1
 9466 0ff7 52       		.byte	0x52
 9467 0ff8 2B010000 		.4byte	.LVL299-1
 9468 0ffc 5C010000 		.4byte	.LVL305
 9469 1000 0400     		.2byte	0x4
 9470 1002 F3       		.byte	0xf3
 9471 1003 01       		.uleb128 0x1
 9472 1004 52       		.byte	0x52
 9473 1005 9F       		.byte	0x9f
 9474 1006 5C010000 		.4byte	.LVL305
 9475 100a 7C010000 		.4byte	.LFE8
 9476 100e 0100     		.2byte	0x1
 9477 1010 52       		.byte	0x52
 9478 1011 00000000 		.4byte	0
 9479 1015 00000000 		.4byte	0
 9480              	.LLST50:
 9481 1019 00000000 		.4byte	.LVL260
 9482 101d 16000000 		.4byte	.LVL262
 9483 1021 0100     		.2byte	0x1
 9484 1023 53       		.byte	0x53
 9485 1024 16000000 		.4byte	.LVL262
 9486 1028 62010000 		.4byte	.LVL307
 9487 102c 0100     		.2byte	0x1
 9488 102e 58       		.byte	0x58
 9489 102f 62010000 		.4byte	.LVL307
 9490 1033 7C010000 		.4byte	.LFE8
 9491 1037 0400     		.2byte	0x4
 9492 1039 F3       		.byte	0xf3
 9493 103a 01       		.uleb128 0x1
 9494 103b 53       		.byte	0x53
 9495 103c 9F       		.byte	0x9f
 9496 103d 00000000 		.4byte	0
 9497 1041 00000000 		.4byte	0
 9498              	.LLST51:
 9499 1045 26000000 		.4byte	.LVL264
 9500 1049 28000000 		.4byte	.LVL265
 9501 104d 0100     		.2byte	0x1
 9502 104f 54       		.byte	0x54
 9503 1050 28000000 		.4byte	.LVL265
 9504 1054 2A000000 		.4byte	.LVL266
 9505 1058 0200     		.2byte	0x2
 9506 105a 78       		.byte	0x78
 9507 105b 05       		.sleb128 5
 9508 105c 2A000000 		.4byte	.LVL266
 9509 1060 88000000 		.4byte	.LVL275
 9510 1064 0100     		.2byte	0x1
ARM GAS  C:\Users\brian\AppData\Local\Temp\cckfkOf3.s 			page 200


 9511 1066 54       		.byte	0x54
 9512 1067 00000000 		.4byte	0
 9513 106b 00000000 		.4byte	0
 9514              	.LLST52:
 9515 106f 8C000000 		.4byte	.LVL276
 9516 1073 A2000000 		.4byte	.LVL280
 9517 1077 0100     		.2byte	0x1
 9518 1079 54       		.byte	0x54
 9519 107a A2000000 		.4byte	.LVL280
 9520 107e A4000000 		.4byte	.LVL281
 9521 1082 0300     		.2byte	0x3
 9522 1084 74       		.byte	0x74
 9523 1085 1F       		.sleb128 31
 9524 1086 9F       		.byte	0x9f
 9525 1087 A4000000 		.4byte	.LVL281
 9526 108b C6000000 		.4byte	.LVL285
 9527 108f 0100     		.2byte	0x1
 9528 1091 54       		.byte	0x54
 9529 1092 00000000 		.4byte	0
 9530 1096 00000000 		.4byte	0
 9531              	.LLST53:
 9532 109a 90000000 		.4byte	.LVL277
 9533 109e C6000000 		.4byte	.LVL285
 9534 10a2 0100     		.2byte	0x1
 9535 10a4 57       		.byte	0x57
 9536 10a5 00000000 		.4byte	0
 9537 10a9 00000000 		.4byte	0
 9538              	.LLST54:
 9539 10ad 00000000 		.4byte	.LVL308
 9540 10b1 21000000 		.4byte	.LVL311-1
 9541 10b5 0100     		.2byte	0x1
 9542 10b7 50       		.byte	0x50
 9543 10b8 21000000 		.4byte	.LVL311-1
 9544 10bc C0000000 		.4byte	.LVL336
 9545 10c0 0100     		.2byte	0x1
 9546 10c2 56       		.byte	0x56
 9547 10c3 C0000000 		.4byte	.LVL336
 9548 10c7 C5000000 		.4byte	.LVL337-1
 9549 10cb 0100     		.2byte	0x1
 9550 10cd 50       		.byte	0x50
 9551 10ce C5000000 		.4byte	.LVL337-1
 9552 10d2 CC000000 		.4byte	.LVL338
 9553 10d6 0100     		.2byte	0x1
 9554 10d8 56       		.byte	0x56
 9555 10d9 CC000000 		.4byte	.LVL338
 9556 10dd CF000000 		.4byte	.LVL339-1
 9557 10e1 0100     		.2byte	0x1
 9558 10e3 50       		.byte	0x50
 9559 10e4 CF000000 		.4byte	.LVL339-1
 9560 10e8 DE000000 		.4byte	.LVL341
 9561 10ec 0100     		.2byte	0x1
 9562 10ee 56       		.byte	0x56
 9563 10ef DE000000 		.4byte	.LVL341
 9564 10f3 E5000000 		.4byte	.LVL342-1
 9565 10f7 0100     		.2byte	0x1
 9566 10f9 50       		.byte	0x50
 9567 10fa E5000000 		.4byte	.LVL342-1
ARM GAS  C:\Users\brian\AppData\Local\Temp\cckfkOf3.s 			page 201


 9568 10fe EC000000 		.4byte	.LVL343
 9569 1102 0100     		.2byte	0x1
 9570 1104 56       		.byte	0x56
 9571 1105 EC000000 		.4byte	.LVL343
 9572 1109 F1000000 		.4byte	.LVL344-1
 9573 110d 0100     		.2byte	0x1
 9574 110f 50       		.byte	0x50
 9575 1110 F1000000 		.4byte	.LVL344-1
 9576 1114 F8000000 		.4byte	.LVL345
 9577 1118 0100     		.2byte	0x1
 9578 111a 56       		.byte	0x56
 9579 111b F8000000 		.4byte	.LVL345
 9580 111f FF000000 		.4byte	.LVL346-1
 9581 1123 0100     		.2byte	0x1
 9582 1125 50       		.byte	0x50
 9583 1126 FF000000 		.4byte	.LVL346-1
 9584 112a 0E010000 		.4byte	.LVL347
 9585 112e 0100     		.2byte	0x1
 9586 1130 56       		.byte	0x56
 9587 1131 0E010000 		.4byte	.LVL347
 9588 1135 13010000 		.4byte	.LVL348-1
 9589 1139 0100     		.2byte	0x1
 9590 113b 50       		.byte	0x50
 9591 113c 13010000 		.4byte	.LVL348-1
 9592 1140 22010000 		.4byte	.LVL349
 9593 1144 0100     		.2byte	0x1
 9594 1146 56       		.byte	0x56
 9595 1147 22010000 		.4byte	.LVL349
 9596 114b 25010000 		.4byte	.LVL350-1
 9597 114f 0100     		.2byte	0x1
 9598 1151 50       		.byte	0x50
 9599 1152 25010000 		.4byte	.LVL350-1
 9600 1156 56010000 		.4byte	.LVL356
 9601 115a 0100     		.2byte	0x1
 9602 115c 56       		.byte	0x56
 9603 115d 56010000 		.4byte	.LVL356
 9604 1161 58010000 		.4byte	.LVL357
 9605 1165 0100     		.2byte	0x1
 9606 1167 50       		.byte	0x50
 9607 1168 58010000 		.4byte	.LVL357
 9608 116c 5C010000 		.4byte	.LVL358
 9609 1170 0100     		.2byte	0x1
 9610 1172 56       		.byte	0x56
 9611 1173 5C010000 		.4byte	.LVL358
 9612 1177 74010000 		.4byte	.LFE9
 9613 117b 0400     		.2byte	0x4
 9614 117d F3       		.byte	0xf3
 9615 117e 01       		.uleb128 0x1
 9616 117f 50       		.byte	0x50
 9617 1180 9F       		.byte	0x9f
 9618 1181 00000000 		.4byte	0
 9619 1185 00000000 		.4byte	0
 9620              	.LLST55:
 9621 1189 00000000 		.4byte	.LVL308
 9622 118d 0C000000 		.4byte	.LVL309
 9623 1191 0100     		.2byte	0x1
 9624 1193 51       		.byte	0x51
ARM GAS  C:\Users\brian\AppData\Local\Temp\cckfkOf3.s 			page 202


 9625 1194 0C000000 		.4byte	.LVL309
 9626 1198 74010000 		.4byte	.LFE9
 9627 119c 0400     		.2byte	0x4
 9628 119e F3       		.byte	0xf3
 9629 119f 01       		.uleb128 0x1
 9630 11a0 51       		.byte	0x51
 9631 11a1 9F       		.byte	0x9f
 9632 11a2 00000000 		.4byte	0
 9633 11a6 00000000 		.4byte	0
 9634              	.LLST56:
 9635 11aa 00000000 		.4byte	.LVL308
 9636 11ae 21000000 		.4byte	.LVL311-1
 9637 11b2 0100     		.2byte	0x1
 9638 11b4 52       		.byte	0x52
 9639 11b5 21000000 		.4byte	.LVL311-1
 9640 11b9 88000000 		.4byte	.LVL323
 9641 11bd 0400     		.2byte	0x4
 9642 11bf F3       		.byte	0xf3
 9643 11c0 01       		.uleb128 0x1
 9644 11c1 52       		.byte	0x52
 9645 11c2 9F       		.byte	0x9f
 9646 11c3 88000000 		.4byte	.LVL323
 9647 11c7 B2000000 		.4byte	.LVL334
 9648 11cb 0100     		.2byte	0x1
 9649 11cd 55       		.byte	0x55
 9650 11ce C0000000 		.4byte	.LVL336
 9651 11d2 C5000000 		.4byte	.LVL337-1
 9652 11d6 0100     		.2byte	0x1
 9653 11d8 52       		.byte	0x52
 9654 11d9 C5000000 		.4byte	.LVL337-1
 9655 11dd CC000000 		.4byte	.LVL338
 9656 11e1 0400     		.2byte	0x4
 9657 11e3 F3       		.byte	0xf3
 9658 11e4 01       		.uleb128 0x1
 9659 11e5 52       		.byte	0x52
 9660 11e6 9F       		.byte	0x9f
 9661 11e7 CC000000 		.4byte	.LVL338
 9662 11eb CF000000 		.4byte	.LVL339-1
 9663 11ef 0100     		.2byte	0x1
 9664 11f1 52       		.byte	0x52
 9665 11f2 CF000000 		.4byte	.LVL339-1
 9666 11f6 DE000000 		.4byte	.LVL341
 9667 11fa 0400     		.2byte	0x4
 9668 11fc F3       		.byte	0xf3
 9669 11fd 01       		.uleb128 0x1
 9670 11fe 52       		.byte	0x52
 9671 11ff 9F       		.byte	0x9f
 9672 1200 DE000000 		.4byte	.LVL341
 9673 1204 E5000000 		.4byte	.LVL342-1
 9674 1208 0100     		.2byte	0x1
 9675 120a 52       		.byte	0x52
 9676 120b E5000000 		.4byte	.LVL342-1
 9677 120f EC000000 		.4byte	.LVL343
 9678 1213 0400     		.2byte	0x4
 9679 1215 F3       		.byte	0xf3
 9680 1216 01       		.uleb128 0x1
 9681 1217 52       		.byte	0x52
ARM GAS  C:\Users\brian\AppData\Local\Temp\cckfkOf3.s 			page 203


 9682 1218 9F       		.byte	0x9f
 9683 1219 EC000000 		.4byte	.LVL343
 9684 121d F1000000 		.4byte	.LVL344-1
 9685 1221 0100     		.2byte	0x1
 9686 1223 52       		.byte	0x52
 9687 1224 F1000000 		.4byte	.LVL344-1
 9688 1228 F8000000 		.4byte	.LVL345
 9689 122c 0400     		.2byte	0x4
 9690 122e F3       		.byte	0xf3
 9691 122f 01       		.uleb128 0x1
 9692 1230 52       		.byte	0x52
 9693 1231 9F       		.byte	0x9f
 9694 1232 F8000000 		.4byte	.LVL345
 9695 1236 FF000000 		.4byte	.LVL346-1
 9696 123a 0100     		.2byte	0x1
 9697 123c 52       		.byte	0x52
 9698 123d FF000000 		.4byte	.LVL346-1
 9699 1241 0E010000 		.4byte	.LVL347
 9700 1245 0400     		.2byte	0x4
 9701 1247 F3       		.byte	0xf3
 9702 1248 01       		.uleb128 0x1
 9703 1249 52       		.byte	0x52
 9704 124a 9F       		.byte	0x9f
 9705 124b 0E010000 		.4byte	.LVL347
 9706 124f 13010000 		.4byte	.LVL348-1
 9707 1253 0100     		.2byte	0x1
 9708 1255 52       		.byte	0x52
 9709 1256 13010000 		.4byte	.LVL348-1
 9710 125a 22010000 		.4byte	.LVL349
 9711 125e 0400     		.2byte	0x4
 9712 1260 F3       		.byte	0xf3
 9713 1261 01       		.uleb128 0x1
 9714 1262 52       		.byte	0x52
 9715 1263 9F       		.byte	0x9f
 9716 1264 22010000 		.4byte	.LVL349
 9717 1268 25010000 		.4byte	.LVL350-1
 9718 126c 0100     		.2byte	0x1
 9719 126e 52       		.byte	0x52
 9720 126f 25010000 		.4byte	.LVL350-1
 9721 1273 56010000 		.4byte	.LVL356
 9722 1277 0400     		.2byte	0x4
 9723 1279 F3       		.byte	0xf3
 9724 127a 01       		.uleb128 0x1
 9725 127b 52       		.byte	0x52
 9726 127c 9F       		.byte	0x9f
 9727 127d 56010000 		.4byte	.LVL356
 9728 1281 74010000 		.4byte	.LFE9
 9729 1285 0100     		.2byte	0x1
 9730 1287 52       		.byte	0x52
 9731 1288 00000000 		.4byte	0
 9732 128c 00000000 		.4byte	0
 9733              	.LLST57:
 9734 1290 00000000 		.4byte	.LVL308
 9735 1294 16000000 		.4byte	.LVL310
 9736 1298 0100     		.2byte	0x1
 9737 129a 53       		.byte	0x53
 9738 129b 16000000 		.4byte	.LVL310
ARM GAS  C:\Users\brian\AppData\Local\Temp\cckfkOf3.s 			page 204


 9739 129f 5C010000 		.4byte	.LVL358
 9740 12a3 0100     		.2byte	0x1
 9741 12a5 57       		.byte	0x57
 9742 12a6 5C010000 		.4byte	.LVL358
 9743 12aa 74010000 		.4byte	.LFE9
 9744 12ae 0400     		.2byte	0x4
 9745 12b0 F3       		.byte	0xf3
 9746 12b1 01       		.uleb128 0x1
 9747 12b2 53       		.byte	0x53
 9748 12b3 9F       		.byte	0x9f
 9749 12b4 00000000 		.4byte	0
 9750 12b8 00000000 		.4byte	0
 9751              	.LLST58:
 9752 12bc 24000000 		.4byte	.LVL312
 9753 12c0 26000000 		.4byte	.LVL313
 9754 12c4 0100     		.2byte	0x1
 9755 12c6 54       		.byte	0x54
 9756 12c7 26000000 		.4byte	.LVL313
 9757 12cb 2A000000 		.4byte	.LVL314
 9758 12cf 0200     		.2byte	0x2
 9759 12d1 77       		.byte	0x77
 9760 12d2 05       		.sleb128 5
 9761 12d3 2A000000 		.4byte	.LVL314
 9762 12d7 C0000000 		.4byte	.LVL336
 9763 12db 0100     		.2byte	0x1
 9764 12dd 58       		.byte	0x58
 9765 12de 00000000 		.4byte	0
 9766 12e2 00000000 		.4byte	0
 9767              	.LLST59:
 9768 12e6 8A000000 		.4byte	.LVL324
 9769 12ea 8E000000 		.4byte	.LVL326
 9770 12ee 0100     		.2byte	0x1
 9771 12f0 53       		.byte	0x53
 9772 12f1 8E000000 		.4byte	.LVL326
 9773 12f5 90000000 		.4byte	.LVL327
 9774 12f9 0200     		.2byte	0x2
 9775 12fb 77       		.byte	0x77
 9776 12fc 04       		.sleb128 4
 9777 12fd 90000000 		.4byte	.LVL327
 9778 1301 98000000 		.4byte	.LVL328
 9779 1305 0100     		.2byte	0x1
 9780 1307 54       		.byte	0x54
 9781 1308 98000000 		.4byte	.LVL328
 9782 130c 9E000000 		.4byte	.LVL329
 9783 1310 0300     		.2byte	0x3
 9784 1312 09       		.byte	0x9
 9785 1313 C0       		.byte	0xc0
 9786 1314 9F       		.byte	0x9f
 9787 1315 9E000000 		.4byte	.LVL329
 9788 1319 A8000000 		.4byte	.LVL331
 9789 131d 0100     		.2byte	0x1
 9790 131f 54       		.byte	0x54
 9791 1320 00000000 		.4byte	0
 9792 1324 00000000 		.4byte	0
 9793              	.LLST60:
 9794 1328 8C000000 		.4byte	.LVL325
 9795 132c A5000000 		.4byte	.LVL330-1
ARM GAS  C:\Users\brian\AppData\Local\Temp\cckfkOf3.s 			page 205


 9796 1330 0100     		.2byte	0x1
 9797 1332 52       		.byte	0x52
 9798 1333 00000000 		.4byte	0
 9799 1337 00000000 		.4byte	0
 9800              		.section	.debug_aranges,"",%progbits
 9801 0000 64000000 		.4byte	0x64
 9802 0004 0200     		.2byte	0x2
 9803 0006 00000000 		.4byte	.Ldebug_info0
 9804 000a 04       		.byte	0x4
 9805 000b 00       		.byte	0
 9806 000c 0000     		.2byte	0
 9807 000e 0000     		.2byte	0
 9808 0010 00000000 		.4byte	.LFB0
 9809 0014 08010000 		.4byte	.LFE0-.LFB0
 9810 0018 00000000 		.4byte	.LFB1
 9811 001c 7C000000 		.4byte	.LFE1-.LFB1
 9812 0020 00000000 		.4byte	.LFB2
 9813 0024 7C000000 		.4byte	.LFE2-.LFB2
 9814 0028 00000000 		.4byte	.LFB3
 9815 002c 7C000000 		.4byte	.LFE3-.LFB3
 9816 0030 00000000 		.4byte	.LFB4
 9817 0034 70010000 		.4byte	.LFE4-.LFB4
 9818 0038 00000000 		.4byte	.LFB5
 9819 003c 70010000 		.4byte	.LFE5-.LFB5
 9820 0040 00000000 		.4byte	.LFB6
 9821 0044 7C010000 		.4byte	.LFE6-.LFB6
 9822 0048 00000000 		.4byte	.LFB7
 9823 004c 7C010000 		.4byte	.LFE7-.LFB7
 9824 0050 00000000 		.4byte	.LFB8
 9825 0054 7C010000 		.4byte	.LFE8-.LFB8
 9826 0058 00000000 		.4byte	.LFB9
 9827 005c 74010000 		.4byte	.LFE9-.LFB9
 9828 0060 00000000 		.4byte	0
 9829 0064 00000000 		.4byte	0
 9830              		.section	.debug_ranges,"",%progbits
 9831              	.Ldebug_ranges0:
 9832 0000 00000000 		.4byte	.LFB0
 9833 0004 08010000 		.4byte	.LFE0
 9834 0008 00000000 		.4byte	.LFB1
 9835 000c 7C000000 		.4byte	.LFE1
 9836 0010 00000000 		.4byte	.LFB2
 9837 0014 7C000000 		.4byte	.LFE2
 9838 0018 00000000 		.4byte	.LFB3
 9839 001c 7C000000 		.4byte	.LFE3
 9840 0020 00000000 		.4byte	.LFB4
 9841 0024 70010000 		.4byte	.LFE4
 9842 0028 00000000 		.4byte	.LFB5
 9843 002c 70010000 		.4byte	.LFE5
 9844 0030 00000000 		.4byte	.LFB6
 9845 0034 7C010000 		.4byte	.LFE6
 9846 0038 00000000 		.4byte	.LFB7
 9847 003c 7C010000 		.4byte	.LFE7
 9848 0040 00000000 		.4byte	.LFB8
 9849 0044 7C010000 		.4byte	.LFE8
 9850 0048 00000000 		.4byte	.LFB9
 9851 004c 74010000 		.4byte	.LFE9
 9852 0050 00000000 		.4byte	0
ARM GAS  C:\Users\brian\AppData\Local\Temp\cckfkOf3.s 			page 206


 9853 0054 00000000 		.4byte	0
 9854              		.section	.debug_line,"",%progbits
 9855              	.Ldebug_line0:
 9856 0000 8C030000 		.section	.debug_str,"MS",%progbits,1
 9856      02003B01 
 9856      00000201 
 9856      FB0E0D00 
 9856      01010101 
 9857              	.LASF100:
 9858 0000 75387838 		.ascii	"u8x8_d_st75256_256x160_alt_init_seq\000"
 9858      5F645F73 
 9858      74373532 
 9858      35365F32 
 9858      35367831 
 9859              	.LASF71:
 9860 0024 75387838 		.ascii	"u8x8_d_st75256_jlx172104\000"
 9860      5F645F73 
 9860      74373532 
 9860      35365F6A 
 9860      6C783137 
 9861              	.LASF43:
 9862 003d 72657365 		.ascii	"reset_pulse_width_ms\000"
 9862      745F7075 
 9862      6C73655F 
 9862      77696474 
 9862      685F6D73 
 9863              	.LASF3:
 9864 0052 5F5F7569 		.ascii	"__uint8_t\000"
 9864      6E74385F 
 9864      7400
 9865              	.LASF21:
 9866 005c 62797465 		.ascii	"byte_cb\000"
 9866      5F636200 
 9867              	.LASF59:
 9868 0064 75387838 		.ascii	"u8x8_tile_struct\000"
 9868      5F74696C 
 9868      655F7374 
 9868      72756374 
 9868      00
 9869              	.LASF10:
 9870 0075 6C6F6E67 		.ascii	"long long unsigned int\000"
 9870      206C6F6E 
 9870      6720756E 
 9870      7369676E 
 9870      65642069 
 9871              	.LASF110:
 9872 008c 75387838 		.ascii	"u8x8_d_helper_display_init\000"
 9872      5F645F68 
 9872      656C7065 
 9872      725F6469 
 9872      73706C61 
 9873              	.LASF44:
 9874 00a7 706F7374 		.ascii	"post_reset_wait_ms\000"
 9874      5F726573 
 9874      65745F77 
 9874      6169745F 
 9874      6D7300
ARM GAS  C:\Users\brian\AppData\Local\Temp\cckfkOf3.s 			page 207


 9875              	.LASF30:
 9876 00ba 75746638 		.ascii	"utf8_state\000"
 9876      5F737461 
 9876      746500
 9877              	.LASF31:
 9878 00c5 6770696F 		.ascii	"gpio_result\000"
 9878      5F726573 
 9878      756C7400 
 9879              	.LASF9:
 9880 00d1 6C6F6E67 		.ascii	"long long int\000"
 9880      206C6F6E 
 9880      6720696E 
 9880      7400
 9881              	.LASF0:
 9882 00df 7369676E 		.ascii	"signed char\000"
 9882      65642063 
 9882      68617200 
 9883              	.LASF27:
 9884 00eb 69735F66 		.ascii	"is_font_inverse_mode\000"
 9884      6F6E745F 
 9884      696E7665 
 9884      7273655F 
 9884      6D6F6465 
 9885              	.LASF19:
 9886 0100 64697370 		.ascii	"display_cb\000"
 9886      6C61795F 
 9886      636200
 9887              	.LASF42:
 9888 010b 7072655F 		.ascii	"pre_chip_disable_wait_ns\000"
 9888      63686970 
 9888      5F646973 
 9888      61626C65 
 9888      5F776169 
 9889              	.LASF6:
 9890 0124 6C6F6E67 		.ascii	"long int\000"
 9890      20696E74 
 9890      00
 9891              	.LASF88:
 9892 012d 75387838 		.ascii	"u8x8_st75256_wo256x128_display_info\000"
 9892      5F737437 
 9892      35323536 
 9892      5F776F32 
 9892      35367831 
 9893              	.LASF93:
 9894 0151 75387838 		.ascii	"u8x8_d_st75256_jlx172104_init_seq\000"
 9894      5F645F73 
 9894      74373532 
 9894      35365F6A 
 9894      6C783137 
 9895              	.LASF103:
 9896 0173 75387838 		.ascii	"u8x8_cad_SendSequence\000"
 9896      5F636164 
 9896      5F53656E 
 9896      64536571 
 9896      75656E63 
 9897              	.LASF73:
 9898 0189 75387838 		.ascii	"u8x8_d_st75256_jlx256160\000"
ARM GAS  C:\Users\brian\AppData\Local\Temp\cckfkOf3.s 			page 208


 9898      5F645F73 
 9898      74373532 
 9898      35365F6A 
 9898      6C783235 
 9899              	.LASF75:
 9900 01a2 75387838 		.ascii	"u8x8_d_st75256_jlx256160_alt\000"
 9900      5F645F73 
 9900      74373532 
 9900      35365F6A 
 9900      6C783235 
 9901              	.LASF13:
 9902 01bf 75696E74 		.ascii	"uint16_t\000"
 9902      31365F74 
 9902      00
 9903              	.LASF18:
 9904 01c8 6E657874 		.ascii	"next_cb\000"
 9904      5F636200 
 9905              	.LASF64:
 9906 01d0 75387838 		.ascii	"u8x8_char_cb\000"
 9906      5F636861 
 9906      725F6362 
 9906      00
 9907              	.LASF22:
 9908 01dd 6770696F 		.ascii	"gpio_and_delay_cb\000"
 9908      5F616E64 
 9908      5F64656C 
 9908      61795F63 
 9908      6200
 9909              	.LASF95:
 9910 01ef 75387838 		.ascii	"u8x8_d_st75256_240x160_init_seq\000"
 9910      5F645F73 
 9910      74373532 
 9910      35365F32 
 9910      34307831 
 9911              	.LASF72:
 9912 020f 75387838 		.ascii	"u8x8_d_st75256_jlx240160\000"
 9912      5F645F73 
 9912      74373532 
 9912      35365F6A 
 9912      6C783234 
 9913              	.LASF36:
 9914 0228 75387838 		.ascii	"u8x8_display_info_t\000"
 9914      5F646973 
 9914      706C6179 
 9914      5F696E66 
 9914      6F5F7400 
 9915              	.LASF7:
 9916 023c 5F5F7569 		.ascii	"__uint32_t\000"
 9916      6E743332 
 9916      5F7400
 9917              	.LASF45:
 9918 0247 7364615F 		.ascii	"sda_setup_time_ns\000"
 9918      73657475 
 9918      705F7469 
 9918      6D655F6E 
 9918      7300
 9919              	.LASF109:
ARM GAS  C:\Users\brian\AppData\Local\Temp\cckfkOf3.s 			page 209


 9920 0259 75387838 		.ascii	"u8x8_d_helper_display_setup_memory\000"
 9920      5F645F68 
 9920      656C7065 
 9920      725F6469 
 9920      73706C61 
 9921              	.LASF61:
 9922 027c 785F706F 		.ascii	"x_pos\000"
 9922      7300
 9923              	.LASF78:
 9924 0282 75387838 		.ascii	"u8x8_d_st75256_256x128_powersave0_seq\000"
 9924      5F645F73 
 9924      74373532 
 9924      35365F32 
 9924      35367831 
 9925              	.LASF58:
 9926 02a8 75387838 		.ascii	"u8x8_tile_t\000"
 9926      5F74696C 
 9926      655F7400 
 9927              	.LASF35:
 9928 02b4 6465626F 		.ascii	"debounce_result_msg\000"
 9928      756E6365 
 9928      5F726573 
 9928      756C745F 
 9928      6D736700 
 9929              	.LASF11:
 9930 02c8 756E7369 		.ascii	"unsigned int\000"
 9930      676E6564 
 9930      20696E74 
 9930      00
 9931              	.LASF66:
 9932 02d5 6172675F 		.ascii	"arg_int\000"
 9932      696E7400 
 9933              	.LASF28:
 9934 02dd 6932635F 		.ascii	"i2c_address\000"
 9934      61646472 
 9934      65737300 
 9935              	.LASF8:
 9936 02e9 6C6F6E67 		.ascii	"long unsigned int\000"
 9936      20756E73 
 9936      69676E65 
 9936      6420696E 
 9936      7400
 9937              	.LASF79:
 9938 02fb 75387838 		.ascii	"u8x8_d_st75256_256x128_powersave1_seq\000"
 9938      5F645F73 
 9938      74373532 
 9938      35365F32 
 9938      35367831 
 9939              	.LASF70:
 9940 0321 75387838 		.ascii	"u8x8_d_st75256_jlx25664\000"
 9940      5F645F73 
 9940      74373532 
 9940      35365F6A 
 9940      6C783235 
 9941              	.LASF97:
 9942 0339 75387838 		.ascii	"u8x8_d_st75256_256x160_init_seq\000"
 9942      5F645F73 
ARM GAS  C:\Users\brian\AppData\Local\Temp\cckfkOf3.s 			page 210


 9942      74373532 
 9942      35365F32 
 9942      35367831 
 9943              	.LASF108:
 9944 0359 75387838 		.ascii	"u8x8_cad_SendData\000"
 9944      5F636164 
 9944      5F53656E 
 9944      64446174 
 9944      6100
 9945              	.LASF80:
 9946 036b 75387838 		.ascii	"u8x8_d_st75256_jlx256128_flip0_seq\000"
 9946      5F645F73 
 9946      74373532 
 9946      35365F6A 
 9946      6C783235 
 9947              	.LASF5:
 9948 038e 73686F72 		.ascii	"short unsigned int\000"
 9948      7420756E 
 9948      7369676E 
 9948      65642069 
 9948      6E7400
 9949              	.LASF33:
 9950 03a1 6465626F 		.ascii	"debounce_last_pin_state\000"
 9950      756E6365 
 9950      5F6C6173 
 9950      745F7069 
 9950      6E5F7374 
 9951              	.LASF86:
 9952 03b9 75387838 		.ascii	"u8x8_st75256_256x128_display_info\000"
 9952      5F737437 
 9952      35323536 
 9952      5F323536 
 9952      78313238 
 9953              	.LASF94:
 9954 03db 75387838 		.ascii	"u8x8_st75256_240x160_display_info\000"
 9954      5F737437 
 9954      35323536 
 9954      5F323430 
 9954      78313630 
 9955              	.LASF17:
 9956 03fd 64697370 		.ascii	"display_info\000"
 9956      6C61795F 
 9956      696E666F 
 9956      00
 9957              	.LASF46:
 9958 040a 73636B5F 		.ascii	"sck_pulse_width_ns\000"
 9958      70756C73 
 9958      655F7769 
 9958      6474685F 
 9958      6E7300
 9959              	.LASF37:
 9960 041d 75387838 		.ascii	"u8x8_struct\000"
 9960      5F737472 
 9960      75637400 
 9961              	.LASF96:
 9962 0429 75387838 		.ascii	"u8x8_st75256_256x160_display_info\000"
 9962      5F737437 
ARM GAS  C:\Users\brian\AppData\Local\Temp\cckfkOf3.s 			page 211


 9962      35323536 
 9962      5F323536 
 9962      78313630 
 9963              	.LASF54:
 9964 044b 64656661 		.ascii	"default_x_offset\000"
 9964      756C745F 
 9964      785F6F66 
 9964      66736574 
 9964      00
 9965              	.LASF25:
 9966 045c 656E636F 		.ascii	"encoding\000"
 9966      64696E67 
 9966      00
 9967              	.LASF55:
 9968 0465 666C6970 		.ascii	"flipmode_x_offset\000"
 9968      6D6F6465 
 9968      5F785F6F 
 9968      66667365 
 9968      7400
 9969              	.LASF83:
 9970 0477 75387838 		.ascii	"u8x8_d_st75256_jlx172104_flip1_seq\000"
 9970      5F645F73 
 9970      74373532 
 9970      35365F6A 
 9970      6C783137 
 9971              	.LASF77:
 9972 049a 73697A65 		.ascii	"sizetype\000"
 9972      74797065 
 9972      00
 9973              	.LASF15:
 9974 04a3 6C6F6E67 		.ascii	"long double\000"
 9974      20646F75 
 9974      626C6500 
 9975              	.LASF112:
 9976 04af 2E2E5C75 		.ascii	"..\\u8g2\\csrc\\u8x8_d_st75256.c\000"
 9976      3867325C 
 9976      63737263 
 9976      5C753878 
 9976      385F645F 
 9977              	.LASF85:
 9978 04cd 75387838 		.ascii	"u8x8_d_st75256_jlx256160_flip1_seq\000"
 9978      5F645F73 
 9978      74373532 
 9978      35365F6A 
 9978      6C783235 
 9979              	.LASF20:
 9980 04f0 6361645F 		.ascii	"cad_cb\000"
 9980      636200
 9981              	.LASF69:
 9982 04f7 75387838 		.ascii	"u8x8_d_st75256_wo256x128\000"
 9982      5F645F73 
 9982      74373532 
 9982      35365F77 
 9982      6F323536 
 9983              	.LASF81:
 9984 0510 75387838 		.ascii	"u8x8_d_st75256_jlx256128_flip1_seq\000"
 9984      5F645F73 
ARM GAS  C:\Users\brian\AppData\Local\Temp\cckfkOf3.s 			page 212


 9984      74373532 
 9984      35365F6A 
 9984      6C783235 
 9985              	.LASF51:
 9986 0533 77726974 		.ascii	"write_pulse_width_ns\000"
 9986      655F7075 
 9986      6C73655F 
 9986      77696474 
 9986      685F6E73 
 9987              	.LASF26:
 9988 0548 785F6F66 		.ascii	"x_offset\000"
 9988      66736574 
 9988      00
 9989              	.LASF89:
 9990 0551 75387838 		.ascii	"u8x8_d_st75256_wo256x128_init_seq\000"
 9990      5F645F73 
 9990      74373532 
 9990      35365F77 
 9990      6F323536 
 9991              	.LASF98:
 9992 0573 75387838 		.ascii	"u8x8_d_st75256_256x160m_init_seq\000"
 9992      5F645F73 
 9992      74373532 
 9992      35365F32 
 9992      35367831 
 9993              	.LASF53:
 9994 0594 74696C65 		.ascii	"tile_height\000"
 9994      5F686569 
 9994      67687400 
 9995              	.LASF113:
 9996 05a0 433A5C55 		.ascii	"C:\\Users\\brian\\Documents\\PSoC Creator\\Lab7\\La"
 9996      73657273 
 9996      5C627269 
 9996      616E5C44 
 9996      6F63756D 
 9997 05cd 62372E63 		.ascii	"b7.cydsn\000"
 9997      7964736E 
 9997      00
 9998              	.LASF99:
 9999 05d6 75387838 		.ascii	"u8x8_st75256_256x160_alt_display_info\000"
 9999      5F737437 
 9999      35323536 
 9999      5F323536 
 9999      78313630 
 10000              	.LASF87:
 10001 05fc 75387838 		.ascii	"u8x8_d_st75256_256x128_init_seq\000"
 10001      5F645F73 
 10001      74373532 
 10001      35365F32 
 10001      35367831 
 10002              	.LASF63:
 10003 061c 75387838 		.ascii	"u8x8_msg_cb\000"
 10003      5F6D7367 
 10003      5F636200 
 10004              	.LASF1:
 10005 0628 756E7369 		.ascii	"unsigned char\000"
 10005      676E6564 
ARM GAS  C:\Users\brian\AppData\Local\Temp\cckfkOf3.s 			page 213


 10005      20636861 
 10005      7200
 10006              	.LASF2:
 10007 0636 73686F72 		.ascii	"short int\000"
 10007      7420696E 
 10007      7400
 10008              	.LASF65:
 10009 0640 75387838 		.ascii	"u8x8\000"
 10009      00
 10010              	.LASF101:
 10011 0645 75387838 		.ascii	"u8x8_st75256_192x96_display_info\000"
 10011      5F737437 
 10011      35323536 
 10011      5F313932 
 10011      7839365F 
 10012              	.LASF111:
 10013 0666 474E5520 		.ascii	"GNU C11 5.4.1 20160609 (release) [ARM/embedded-5-br"
 10013      43313120 
 10013      352E342E 
 10013      31203230 
 10013      31363036 
 10014 0699 616E6368 		.ascii	"anch revision 237715] -mcpu=cortex-m3 -mthumb -g -O"
 10014      20726576 
 10014      6973696F 
 10014      6E203233 
 10014      37373135 
 10015 06cc 67202D66 		.ascii	"g -ffunction-sections -ffat-lto-objects\000"
 10015      66756E63 
 10015      74696F6E 
 10015      2D736563 
 10015      74696F6E 
 10016              	.LASF68:
 10017 06f4 75387838 		.ascii	"u8x8_d_st75256_jlx256128\000"
 10017      5F645F73 
 10017      74373532 
 10017      35365F6A 
 10017      6C783235 
 10018              	.LASF50:
 10019 070d 64617461 		.ascii	"data_setup_time_ns\000"
 10019      5F736574 
 10019      75705F74 
 10019      696D655F 
 10019      6E7300
 10020              	.LASF76:
 10021 0720 75387838 		.ascii	"u8x8_d_st75256_jlx19296\000"
 10021      5F645F73 
 10021      74373532 
 10021      35365F6A 
 10021      6C783139 
 10022              	.LASF49:
 10023 0738 6932635F 		.ascii	"i2c_bus_clock_100kHz\000"
 10023      6275735F 
 10023      636C6F63 
 10023      6B5F3130 
 10023      306B487A 
 10024              	.LASF14:
 10025 074d 75696E74 		.ascii	"uint32_t\000"
ARM GAS  C:\Users\brian\AppData\Local\Temp\cckfkOf3.s 			page 214


 10025      33325F74 
 10025      00
 10026              	.LASF104:
 10027 0756 75387838 		.ascii	"u8x8_cad_StartTransfer\000"
 10027      5F636164 
 10027      5F537461 
 10027      72745472 
 10027      616E7366 
 10028              	.LASF48:
 10029 076d 7370695F 		.ascii	"spi_mode\000"
 10029      6D6F6465 
 10029      00
 10030              	.LASF39:
 10031 0776 63686970 		.ascii	"chip_enable_level\000"
 10031      5F656E61 
 10031      626C655F 
 10031      6C657665 
 10031      6C00
 10032              	.LASF60:
 10033 0788 74696C65 		.ascii	"tile_ptr\000"
 10033      5F707472 
 10033      00
 10034              	.LASF4:
 10035 0791 5F5F7569 		.ascii	"__uint16_t\000"
 10035      6E743136 
 10035      5F7400
 10036              	.LASF90:
 10037 079c 75387838 		.ascii	"u8x8_st75256_256x64_display_info\000"
 10037      5F737437 
 10037      35323536 
 10037      5F323536 
 10037      7836345F 
 10038              	.LASF107:
 10039 07bd 75387838 		.ascii	"u8x8_cad_EndTransfer\000"
 10039      5F636164 
 10039      5F456E64 
 10039      5472616E 
 10039      73666572 
 10040              	.LASF41:
 10041 07d2 706F7374 		.ascii	"post_chip_enable_wait_ns\000"
 10041      5F636869 
 10041      705F656E 
 10041      61626C65 
 10041      5F776169 
 10042              	.LASF16:
 10043 07eb 75387838 		.ascii	"u8x8_t\000"
 10043      5F7400
 10044              	.LASF23:
 10045 07f2 6275735F 		.ascii	"bus_clock\000"
 10045      636C6F63 
 10045      6B00
 10046              	.LASF102:
 10047 07fc 75387838 		.ascii	"u8x8_d_st75256_jlx19296_init_seq\000"
 10047      5F645F73 
 10047      74373532 
 10047      35365F6A 
 10047      6C783139 
ARM GAS  C:\Users\brian\AppData\Local\Temp\cckfkOf3.s 			page 215


 10048              	.LASF82:
 10049 081d 75387838 		.ascii	"u8x8_d_st75256_jlx172104_flip0_seq\000"
 10049      5F645F73 
 10049      74373532 
 10049      35365F6A 
 10049      6C783137 
 10050              	.LASF114:
 10051 0840 75387838 		.ascii	"u8x8_d_st75256_256x128_generic\000"
 10051      5F645F73 
 10051      74373532 
 10051      35365F32 
 10051      35367831 
 10052              	.LASF34:
 10053 085f 6465626F 		.ascii	"debounce_state\000"
 10053      756E6365 
 10053      5F737461 
 10053      746500
 10054              	.LASF74:
 10055 086e 75387838 		.ascii	"u8x8_d_st75256_jlx256160m\000"
 10055      5F645F73 
 10055      74373532 
 10055      35365F6A 
 10055      6C783235 
 10056              	.LASF67:
 10057 0888 6172675F 		.ascii	"arg_ptr\000"
 10057      70747200 
 10058              	.LASF40:
 10059 0890 63686970 		.ascii	"chip_disable_level\000"
 10059      5F646973 
 10059      61626C65 
 10059      5F6C6576 
 10059      656C00
 10060              	.LASF24:
 10061 08a3 666F6E74 		.ascii	"font\000"
 10061      00
 10062              	.LASF84:
 10063 08a8 75387838 		.ascii	"u8x8_d_st75256_jlx256160_flip0_seq\000"
 10063      5F645F73 
 10063      74373532 
 10063      35365F6A 
 10063      6C783235 
 10064              	.LASF12:
 10065 08cb 75696E74 		.ascii	"uint8_t\000"
 10065      385F7400 
 10066              	.LASF29:
 10067 08d3 6932635F 		.ascii	"i2c_started\000"
 10067      73746172 
 10067      74656400 
 10068              	.LASF56:
 10069 08df 70697865 		.ascii	"pixel_width\000"
 10069      6C5F7769 
 10069      64746800 
 10070              	.LASF52:
 10071 08eb 74696C65 		.ascii	"tile_width\000"
 10071      5F776964 
 10071      746800
 10072              	.LASF32:
ARM GAS  C:\Users\brian\AppData\Local\Temp\cckfkOf3.s 			page 216


 10073 08f6 6465626F 		.ascii	"debounce_default_pin_state\000"
 10073      756E6365 
 10073      5F646566 
 10073      61756C74 
 10073      5F70696E 
 10074              	.LASF62:
 10075 0911 795F706F 		.ascii	"y_pos\000"
 10075      7300
 10076              	.LASF105:
 10077 0917 75387838 		.ascii	"u8x8_cad_SendCmd\000"
 10077      5F636164 
 10077      5F53656E 
 10077      64436D64 
 10077      00
 10078              	.LASF91:
 10079 0928 75387838 		.ascii	"u8x8_d_st75256_256x64_init_seq\000"
 10079      5F645F73 
 10079      74373532 
 10079      35365F32 
 10079      35367836 
 10080              	.LASF38:
 10081 0947 75387838 		.ascii	"u8x8_display_info_struct\000"
 10081      5F646973 
 10081      706C6179 
 10081      5F696E66 
 10081      6F5F7374 
 10082              	.LASF92:
 10083 0960 75387838 		.ascii	"u8x8_st75256_172x104_display_info\000"
 10083      5F737437 
 10083      35323536 
 10083      5F313732 
 10083      78313034 
 10084              	.LASF106:
 10085 0982 75387838 		.ascii	"u8x8_cad_SendArg\000"
 10085      5F636164 
 10085      5F53656E 
 10085      64417267 
 10085      00
 10086              	.LASF57:
 10087 0993 70697865 		.ascii	"pixel_height\000"
 10087      6C5F6865 
 10087      69676874 
 10087      00
 10088              	.LASF47:
 10089 09a0 73636B5F 		.ascii	"sck_clock_hz\000"
 10089      636C6F63 
 10089      6B5F687A 
 10089      00
 10090              		.ident	"GCC: (GNU Tools for ARM Embedded Processors) 5.4.1 20160609 (release) [ARM/embedded-5-bran
