ARM GAS  C:\Users\brian\AppData\Local\Temp\cctgGStL.s 			page 1


   1              		.syntax unified
   2              		.cpu cortex-m3
   3              		.fpu softvfp
   4              		.eabi_attribute 20, 1
   5              		.eabi_attribute 21, 1
   6              		.eabi_attribute 23, 3
   7              		.eabi_attribute 24, 1
   8              		.eabi_attribute 25, 1
   9              		.eabi_attribute 26, 1
  10              		.eabi_attribute 30, 1
  11              		.eabi_attribute 34, 1
  12              		.eabi_attribute 18, 4
  13              		.thumb
  14              		.syntax unified
  15              		.file	"u8x8_input_value.c"
  16              		.text
  17              	.Ltext0:
  18              		.cfi_sections	.debug_frame
  19              		.section	.text.u8x8_UserInterfaceInputValue,"ax",%progbits
  20              		.align	2
  21              		.global	u8x8_UserInterfaceInputValue
  22              		.thumb
  23              		.thumb_func
  24              		.type	u8x8_UserInterfaceInputValue, %function
  25              	u8x8_UserInterfaceInputValue:
  26              	.LFB0:
  27              		.file 1 "..\\u8g2\\csrc\\u8x8_input_value.c"
   1:..\u8g2\csrc/u8x8_input_value.c **** /*
   2:..\u8g2\csrc/u8x8_input_value.c **** 
   3:..\u8g2\csrc/u8x8_input_value.c ****   u8x8_input_value.c
   4:..\u8g2\csrc/u8x8_input_value.c ****   
   5:..\u8g2\csrc/u8x8_input_value.c ****   Universal 8bit Graphics Library (https://github.com/olikraus/u8g2/)
   6:..\u8g2\csrc/u8x8_input_value.c **** 
   7:..\u8g2\csrc/u8x8_input_value.c ****   Copyright (c) 2016, olikraus@gmail.com
   8:..\u8g2\csrc/u8x8_input_value.c ****   All rights reserved.
   9:..\u8g2\csrc/u8x8_input_value.c **** 
  10:..\u8g2\csrc/u8x8_input_value.c ****   Redistribution and use in source and binary forms, with or without modification, 
  11:..\u8g2\csrc/u8x8_input_value.c ****   are permitted provided that the following conditions are met:
  12:..\u8g2\csrc/u8x8_input_value.c **** 
  13:..\u8g2\csrc/u8x8_input_value.c ****   * Redistributions of source code must retain the above copyright notice, this list 
  14:..\u8g2\csrc/u8x8_input_value.c ****     of conditions and the following disclaimer.
  15:..\u8g2\csrc/u8x8_input_value.c ****     
  16:..\u8g2\csrc/u8x8_input_value.c ****   * Redistributions in binary form must reproduce the above copyright notice, this 
  17:..\u8g2\csrc/u8x8_input_value.c ****     list of conditions and the following disclaimer in the documentation and/or other 
  18:..\u8g2\csrc/u8x8_input_value.c ****     materials provided with the distribution.
  19:..\u8g2\csrc/u8x8_input_value.c **** 
  20:..\u8g2\csrc/u8x8_input_value.c ****   THIS SOFTWARE IS PROVIDED BY THE COPYRIGHT HOLDERS AND 
  21:..\u8g2\csrc/u8x8_input_value.c ****   CONTRIBUTORS "AS IS" AND ANY EXPRESS OR IMPLIED WARRANTIES, 
  22:..\u8g2\csrc/u8x8_input_value.c ****   INCLUDING, BUT NOT LIMITED TO, THE IMPLIED WARRANTIES OF 
  23:..\u8g2\csrc/u8x8_input_value.c ****   MERCHANTABILITY AND FITNESS FOR A PARTICULAR PURPOSE ARE 
  24:..\u8g2\csrc/u8x8_input_value.c ****   DISCLAIMED. IN NO EVENT SHALL THE COPYRIGHT HOLDER OR 
  25:..\u8g2\csrc/u8x8_input_value.c ****   CONTRIBUTORS BE LIABLE FOR ANY DIRECT, INDIRECT, INCIDENTAL, 
  26:..\u8g2\csrc/u8x8_input_value.c ****   SPECIAL, EXEMPLARY, OR CONSEQUENTIAL DAMAGES (INCLUDING, BUT 
  27:..\u8g2\csrc/u8x8_input_value.c ****   NOT LIMITED TO, PROCUREMENT OF SUBSTITUTE GOODS OR SERVICES; 
  28:..\u8g2\csrc/u8x8_input_value.c ****   LOSS OF USE, DATA, OR PROFITS; OR BUSINESS INTERRUPTION) HOWEVER 
  29:..\u8g2\csrc/u8x8_input_value.c ****   CAUSED AND ON ANY THEORY OF LIABILITY, WHETHER IN CONTRACT, 
  30:..\u8g2\csrc/u8x8_input_value.c ****   STRICT LIABILITY, OR TORT (INCLUDING NEGLIGENCE OR OTHERWISE) 
ARM GAS  C:\Users\brian\AppData\Local\Temp\cctgGStL.s 			page 2


  31:..\u8g2\csrc/u8x8_input_value.c ****   ARISING IN ANY WAY OUT OF THE USE OF THIS SOFTWARE, EVEN IF 
  32:..\u8g2\csrc/u8x8_input_value.c ****   ADVISED OF THE POSSIBILITY OF SUCH DAMAGE.  
  33:..\u8g2\csrc/u8x8_input_value.c ****   
  34:..\u8g2\csrc/u8x8_input_value.c **** */
  35:..\u8g2\csrc/u8x8_input_value.c **** 
  36:..\u8g2\csrc/u8x8_input_value.c **** #include "u8x8.h"
  37:..\u8g2\csrc/u8x8_input_value.c **** 
  38:..\u8g2\csrc/u8x8_input_value.c **** /*
  39:..\u8g2\csrc/u8x8_input_value.c ****   return:
  40:..\u8g2\csrc/u8x8_input_value.c ****     0: value is not changed (HOME/Break Button pressed)
  41:..\u8g2\csrc/u8x8_input_value.c ****     1: value has been updated
  42:..\u8g2\csrc/u8x8_input_value.c **** */
  43:..\u8g2\csrc/u8x8_input_value.c **** 
  44:..\u8g2\csrc/u8x8_input_value.c **** uint8_t u8x8_UserInterfaceInputValue(u8x8_t *u8x8, const char *title, const char *pre, uint8_t *val
  45:..\u8g2\csrc/u8x8_input_value.c **** {
  28              		.loc 1 45 0
  29              		.cfi_startproc
  30              		@ args = 16, pretend = 0, frame = 8
  31              		@ frame_needed = 0, uses_anonymous_args = 0
  32              	.LVL0:
  33 0000 2DE9F04F 		push	{r4, r5, r6, r7, r8, r9, r10, fp, lr}
  34              		.cfi_def_cfa_offset 36
  35              		.cfi_offset 4, -36
  36              		.cfi_offset 5, -32
  37              		.cfi_offset 6, -28
  38              		.cfi_offset 7, -24
  39              		.cfi_offset 8, -20
  40              		.cfi_offset 9, -16
  41              		.cfi_offset 10, -12
  42              		.cfi_offset 11, -8
  43              		.cfi_offset 14, -4
  44 0004 85B0     		sub	sp, sp, #20
  45              		.cfi_def_cfa_offset 56
  46 0006 0546     		mov	r5, r0
  47 0008 0391     		str	r1, [sp, #12]
  48 000a 0292     		str	r2, [sp, #8]
  49 000c 9B46     		mov	fp, r3
  50 000e 9DF83890 		ldrb	r9, [sp, #56]	@ zero_extendqisi2
  51 0012 9DF83C80 		ldrb	r8, [sp, #60]	@ zero_extendqisi2
  52 0016 9DF84060 		ldrb	r6, [sp, #64]	@ zero_extendqisi2
  46:..\u8g2\csrc/u8x8_input_value.c ****   uint8_t height;
  47:..\u8g2\csrc/u8x8_input_value.c ****   uint8_t y;
  48:..\u8g2\csrc/u8x8_input_value.c ****   uint8_t width;
  49:..\u8g2\csrc/u8x8_input_value.c ****   uint8_t x;
  50:..\u8g2\csrc/u8x8_input_value.c ****   uint8_t local_value = *value;
  53              		.loc 1 50 0
  54 001a 1C78     		ldrb	r4, [r3]	@ zero_extendqisi2
  55              	.LVL1:
  51:..\u8g2\csrc/u8x8_input_value.c ****   uint8_t r;
  52:..\u8g2\csrc/u8x8_input_value.c ****   uint8_t event;
  53:..\u8g2\csrc/u8x8_input_value.c **** 
  54:..\u8g2\csrc/u8x8_input_value.c ****   /* calculate overall height of the input value box */
  55:..\u8g2\csrc/u8x8_input_value.c ****   height = 1;	/* button line */
  56:..\u8g2\csrc/u8x8_input_value.c ****   height += u8x8_GetStringLineCnt(title);
  56              		.loc 1 56 0
  57 001c 0846     		mov	r0, r1
  58              	.LVL2:
ARM GAS  C:\Users\brian\AppData\Local\Temp\cctgGStL.s 			page 3


  59 001e FFF7FEFF 		bl	u8x8_GetStringLineCnt
  60              	.LVL3:
  61 0022 0130     		adds	r0, r0, #1
  62 0024 C0B2     		uxtb	r0, r0
  63              	.LVL4:
  57:..\u8g2\csrc/u8x8_input_value.c ****   
  58:..\u8g2\csrc/u8x8_input_value.c ****   /* calculate offset from top */
  59:..\u8g2\csrc/u8x8_input_value.c ****   y = 0;
  60:..\u8g2\csrc/u8x8_input_value.c ****   if ( height < u8x8_GetRows(u8x8)  )
  64              		.loc 1 60 0
  65 0026 2B68     		ldr	r3, [r5]
  66 0028 5B7C     		ldrb	r3, [r3, #17]	@ zero_extendqisi2
  67 002a 9842     		cmp	r0, r3
  68 002c 03D2     		bcs	.L13
  69              	.LVL5:
  61:..\u8g2\csrc/u8x8_input_value.c ****   {
  62:..\u8g2\csrc/u8x8_input_value.c ****     y = u8x8_GetRows(u8x8);
  63:..\u8g2\csrc/u8x8_input_value.c ****     y -= height;
  70              		.loc 1 63 0
  71 002e 181A     		subs	r0, r3, r0
  72              	.LVL6:
  64:..\u8g2\csrc/u8x8_input_value.c ****     y /= 2;
  73              		.loc 1 64 0
  74 0030 C0F3460A 		ubfx	r10, r0, #1, #7
  75              	.LVL7:
  76 0034 01E0     		b	.L2
  77              	.LVL8:
  78              	.L13:
  59:..\u8g2\csrc/u8x8_input_value.c ****   if ( height < u8x8_GetRows(u8x8)  )
  79              		.loc 1 59 0
  80 0036 4FF0000A 		mov	r10, #0
  81              	.LVL9:
  82              	.L2:
  65:..\u8g2\csrc/u8x8_input_value.c ****   }
  66:..\u8g2\csrc/u8x8_input_value.c ****   
  67:..\u8g2\csrc/u8x8_input_value.c ****   /* calculate offset from left for the label */
  68:..\u8g2\csrc/u8x8_input_value.c ****   x = 0;
  69:..\u8g2\csrc/u8x8_input_value.c ****   width = u8x8_GetUTF8Len(u8x8, pre);
  83              		.loc 1 69 0
  84 003a 0299     		ldr	r1, [sp, #8]
  85 003c 2846     		mov	r0, r5
  86 003e FFF7FEFF 		bl	u8x8_GetUTF8Len
  87              	.LVL10:
  70:..\u8g2\csrc/u8x8_input_value.c ****   width += digits;
  88              		.loc 1 70 0
  89 0042 3044     		add	r0, r0, r6
  90              	.LVL11:
  91 0044 C7B2     		uxtb	r7, r0
  92              	.LVL12:
  71:..\u8g2\csrc/u8x8_input_value.c ****   width += u8x8_GetUTF8Len(u8x8, post);
  93              		.loc 1 71 0
  94 0046 1199     		ldr	r1, [sp, #68]
  95 0048 2846     		mov	r0, r5
  96 004a FFF7FEFF 		bl	u8x8_GetUTF8Len
  97              	.LVL13:
  98 004e 3844     		add	r0, r0, r7
  99 0050 C0B2     		uxtb	r0, r0
ARM GAS  C:\Users\brian\AppData\Local\Temp\cctgGStL.s 			page 4


 100              	.LVL14:
  72:..\u8g2\csrc/u8x8_input_value.c ****   if ( width < u8x8_GetCols(u8x8) )
 101              		.loc 1 72 0
 102 0052 2B68     		ldr	r3, [r5]
 103 0054 1F7C     		ldrb	r7, [r3, #16]	@ zero_extendqisi2
 104 0056 B842     		cmp	r0, r7
 105 0058 03D2     		bcs	.L14
 106              	.LVL15:
  73:..\u8g2\csrc/u8x8_input_value.c ****   {
  74:..\u8g2\csrc/u8x8_input_value.c ****     x = u8x8_GetCols(u8x8);
  75:..\u8g2\csrc/u8x8_input_value.c ****     x -= width;
 107              		.loc 1 75 0
 108 005a 3F1A     		subs	r7, r7, r0
 109              	.LVL16:
  76:..\u8g2\csrc/u8x8_input_value.c ****     x /= 2;
 110              		.loc 1 76 0
 111 005c C7F34607 		ubfx	r7, r7, #1, #7
 112              	.LVL17:
 113 0060 00E0     		b	.L3
 114              	.LVL18:
 115              	.L14:
  68:..\u8g2\csrc/u8x8_input_value.c ****   width = u8x8_GetUTF8Len(u8x8, pre);
 116              		.loc 1 68 0
 117 0062 0027     		movs	r7, #0
 118              	.LVL19:
 119              	.L3:
  77:..\u8g2\csrc/u8x8_input_value.c ****   }
  78:..\u8g2\csrc/u8x8_input_value.c ****   
  79:..\u8g2\csrc/u8x8_input_value.c ****   /* render */
  80:..\u8g2\csrc/u8x8_input_value.c ****   u8x8_ClearDisplay(u8x8);   /* required, because not everything is filled */
 120              		.loc 1 80 0
 121 0064 2846     		mov	r0, r5
 122              	.LVL20:
 123 0066 FFF7FEFF 		bl	u8x8_ClearDisplay
 124              	.LVL21:
  81:..\u8g2\csrc/u8x8_input_value.c ****   u8x8_SetInverseFont(u8x8, 0);  
 125              		.loc 1 81 0
 126 006a 0021     		movs	r1, #0
 127 006c 85F82310 		strb	r1, [r5, #35]
  82:..\u8g2\csrc/u8x8_input_value.c ****   y += u8x8_DrawUTF8Lines(u8x8, 0, y, u8x8_GetCols(u8x8), title);
 128              		.loc 1 82 0
 129 0070 2B68     		ldr	r3, [r5]
 130 0072 1B7C     		ldrb	r3, [r3, #16]	@ zero_extendqisi2
 131 0074 039A     		ldr	r2, [sp, #12]
 132 0076 0092     		str	r2, [sp]
 133 0078 5246     		mov	r2, r10
 134 007a 2846     		mov	r0, r5
 135 007c FFF7FEFF 		bl	u8x8_DrawUTF8Lines
 136              	.LVL22:
 137 0080 5044     		add	r0, r0, r10
 138 0082 5FFA80FA 		uxtb	r10, r0
 139              	.LVL23:
  83:..\u8g2\csrc/u8x8_input_value.c ****   x += u8x8_DrawUTF8(u8x8, x, y, pre);
 140              		.loc 1 83 0
 141 0086 029B     		ldr	r3, [sp, #8]
 142 0088 5246     		mov	r2, r10
 143 008a 3946     		mov	r1, r7
ARM GAS  C:\Users\brian\AppData\Local\Temp\cctgGStL.s 			page 5


 144 008c 2846     		mov	r0, r5
 145 008e FFF7FEFF 		bl	u8x8_DrawUTF8
 146              	.LVL24:
 147 0092 3844     		add	r0, r0, r7
 148 0094 C7B2     		uxtb	r7, r0
 149              	.LVL25:
  84:..\u8g2\csrc/u8x8_input_value.c ****   u8x8_DrawUTF8(u8x8, x+digits, y, post);
 150              		.loc 1 84 0
 151 0096 F119     		adds	r1, r6, r7
 152 0098 119B     		ldr	r3, [sp, #68]
 153 009a 5246     		mov	r2, r10
 154 009c C9B2     		uxtb	r1, r1
 155 009e 2846     		mov	r0, r5
 156 00a0 FFF7FEFF 		bl	u8x8_DrawUTF8
 157              	.LVL26:
  85:..\u8g2\csrc/u8x8_input_value.c ****   u8x8_SetInverseFont(u8x8, 1);
 158              		.loc 1 85 0
 159 00a4 0123     		movs	r3, #1
 160 00a6 85F82330 		strb	r3, [r5, #35]
  86:..\u8g2\csrc/u8x8_input_value.c ****   
  87:..\u8g2\csrc/u8x8_input_value.c ****   /* event loop */
  88:..\u8g2\csrc/u8x8_input_value.c ****   u8x8_DrawUTF8(u8x8, x, y, u8x8_u8toa(local_value, digits));
 161              		.loc 1 88 0
 162 00aa 3146     		mov	r1, r6
 163 00ac 2046     		mov	r0, r4
 164 00ae FFF7FEFF 		bl	u8x8_u8toa
 165              	.LVL27:
 166 00b2 0346     		mov	r3, r0
 167 00b4 5246     		mov	r2, r10
 168 00b6 3946     		mov	r1, r7
 169 00b8 2846     		mov	r0, r5
 170 00ba FFF7FEFF 		bl	u8x8_DrawUTF8
 171              	.LVL28:
 172              	.L4:
  89:..\u8g2\csrc/u8x8_input_value.c ****   for(;;)
  90:..\u8g2\csrc/u8x8_input_value.c ****   {
  91:..\u8g2\csrc/u8x8_input_value.c ****     event = u8x8_GetMenuEvent(u8x8);
 173              		.loc 1 91 0
 174 00be 2846     		mov	r0, r5
 175 00c0 FFF7FEFF 		bl	u8x8_GetMenuEvent
 176              	.LVL29:
  92:..\u8g2\csrc/u8x8_input_value.c ****     if ( event == U8X8_MSG_GPIO_MENU_SELECT )
 177              		.loc 1 92 0
 178 00c4 5028     		cmp	r0, #80
 179 00c6 03D1     		bne	.L5
  93:..\u8g2\csrc/u8x8_input_value.c ****     {
  94:..\u8g2\csrc/u8x8_input_value.c ****       *value = local_value;
 180              		.loc 1 94 0
 181 00c8 8BF80040 		strb	r4, [fp]
 182              	.LVL30:
  95:..\u8g2\csrc/u8x8_input_value.c ****       r = 1;
 183              		.loc 1 95 0
 184 00cc 0120     		movs	r0, #1
 185              	.LVL31:
  96:..\u8g2\csrc/u8x8_input_value.c ****       break;
 186              		.loc 1 96 0
 187 00ce 2CE0     		b	.L6
ARM GAS  C:\Users\brian\AppData\Local\Temp\cctgGStL.s 			page 6


 188              	.LVL32:
 189              	.L5:
  97:..\u8g2\csrc/u8x8_input_value.c ****     }
  98:..\u8g2\csrc/u8x8_input_value.c ****     else if ( event == U8X8_MSG_GPIO_MENU_HOME )
 190              		.loc 1 98 0
 191 00d0 5328     		cmp	r0, #83
 192 00d2 29D0     		beq	.L15
  99:..\u8g2\csrc/u8x8_input_value.c ****     {
 100:..\u8g2\csrc/u8x8_input_value.c ****       r = 0;
 101:..\u8g2\csrc/u8x8_input_value.c ****       break;
 102:..\u8g2\csrc/u8x8_input_value.c ****     }
 103:..\u8g2\csrc/u8x8_input_value.c ****     else if ( event == U8X8_MSG_GPIO_MENU_NEXT || event == U8X8_MSG_GPIO_MENU_UP )
 193              		.loc 1 103 0
 194 00d4 5128     		cmp	r0, #81
 195 00d6 01D0     		beq	.L7
 196              		.loc 1 103 0 is_stmt 0 discriminator 1
 197 00d8 5428     		cmp	r0, #84
 198 00da 10D1     		bne	.L8
 199              	.L7:
 104:..\u8g2\csrc/u8x8_input_value.c ****     {
 105:..\u8g2\csrc/u8x8_input_value.c ****       if ( local_value >= hi )
 200              		.loc 1 105 0 is_stmt 1
 201 00dc 4445     		cmp	r4, r8
 202 00de 02D2     		bcs	.L16
 106:..\u8g2\csrc/u8x8_input_value.c **** 	local_value = lo;
 107:..\u8g2\csrc/u8x8_input_value.c ****       else
 108:..\u8g2\csrc/u8x8_input_value.c **** 	local_value++;
 203              		.loc 1 108 0
 204 00e0 0134     		adds	r4, r4, #1
 205              	.LVL33:
 206 00e2 E4B2     		uxtb	r4, r4
 207              	.LVL34:
 208 00e4 00E0     		b	.L9
 209              	.L16:
 106:..\u8g2\csrc/u8x8_input_value.c **** 	local_value = lo;
 210              		.loc 1 106 0
 211 00e6 4C46     		mov	r4, r9
 212              	.LVL35:
 213              	.L9:
 109:..\u8g2\csrc/u8x8_input_value.c ****       u8x8_DrawUTF8(u8x8, x, y, u8x8_u8toa(local_value, digits));
 214              		.loc 1 109 0
 215 00e8 3146     		mov	r1, r6
 216 00ea 2046     		mov	r0, r4
 217              	.LVL36:
 218 00ec FFF7FEFF 		bl	u8x8_u8toa
 219              	.LVL37:
 220 00f0 0346     		mov	r3, r0
 221 00f2 5246     		mov	r2, r10
 222 00f4 3946     		mov	r1, r7
 223 00f6 2846     		mov	r0, r5
 224 00f8 FFF7FEFF 		bl	u8x8_DrawUTF8
 225              	.LVL38:
 226 00fc DFE7     		b	.L4
 227              	.LVL39:
 228              	.L8:
 110:..\u8g2\csrc/u8x8_input_value.c ****     }
 111:..\u8g2\csrc/u8x8_input_value.c ****     else if ( event == U8X8_MSG_GPIO_MENU_PREV || event == U8X8_MSG_GPIO_MENU_DOWN )
ARM GAS  C:\Users\brian\AppData\Local\Temp\cctgGStL.s 			page 7


 229              		.loc 1 111 0
 230 00fe 5228     		cmp	r0, #82
 231 0100 01D0     		beq	.L11
 232              		.loc 1 111 0 is_stmt 0 discriminator 1
 233 0102 5528     		cmp	r0, #85
 234 0104 DBD1     		bne	.L4
 235              	.L11:
 112:..\u8g2\csrc/u8x8_input_value.c ****     {
 113:..\u8g2\csrc/u8x8_input_value.c ****       if ( local_value <= lo )
 236              		.loc 1 113 0 is_stmt 1
 237 0106 4C45     		cmp	r4, r9
 238 0108 02D9     		bls	.L17
 114:..\u8g2\csrc/u8x8_input_value.c **** 	local_value = hi;
 115:..\u8g2\csrc/u8x8_input_value.c ****       else
 116:..\u8g2\csrc/u8x8_input_value.c **** 	local_value--;
 239              		.loc 1 116 0
 240 010a 013C     		subs	r4, r4, #1
 241              	.LVL40:
 242 010c E4B2     		uxtb	r4, r4
 243              	.LVL41:
 244 010e 00E0     		b	.L12
 245              	.L17:
 114:..\u8g2\csrc/u8x8_input_value.c **** 	local_value = hi;
 246              		.loc 1 114 0
 247 0110 4446     		mov	r4, r8
 248              	.LVL42:
 249              	.L12:
 117:..\u8g2\csrc/u8x8_input_value.c ****       u8x8_DrawUTF8(u8x8, x, y, u8x8_u8toa(local_value, digits));
 250              		.loc 1 117 0
 251 0112 3146     		mov	r1, r6
 252 0114 2046     		mov	r0, r4
 253              	.LVL43:
 254 0116 FFF7FEFF 		bl	u8x8_u8toa
 255              	.LVL44:
 256 011a 0346     		mov	r3, r0
 257 011c 5246     		mov	r2, r10
 258 011e 3946     		mov	r1, r7
 259 0120 2846     		mov	r0, r5
 260 0122 FFF7FEFF 		bl	u8x8_DrawUTF8
 261              	.LVL45:
 262 0126 CAE7     		b	.L4
 263              	.LVL46:
 264              	.L15:
 100:..\u8g2\csrc/u8x8_input_value.c ****       break;
 265              		.loc 1 100 0
 266 0128 0020     		movs	r0, #0
 267              	.LVL47:
 268              	.L6:
 118:..\u8g2\csrc/u8x8_input_value.c ****     }        
 119:..\u8g2\csrc/u8x8_input_value.c ****   }
 120:..\u8g2\csrc/u8x8_input_value.c ****   
 121:..\u8g2\csrc/u8x8_input_value.c ****   u8x8_SetInverseFont(u8x8, 0);
 269              		.loc 1 121 0
 270 012a 0023     		movs	r3, #0
 271 012c 85F82330 		strb	r3, [r5, #35]
 122:..\u8g2\csrc/u8x8_input_value.c ****   return r;  
 123:..\u8g2\csrc/u8x8_input_value.c **** }
ARM GAS  C:\Users\brian\AppData\Local\Temp\cctgGStL.s 			page 8


 272              		.loc 1 123 0
 273 0130 05B0     		add	sp, sp, #20
 274              		.cfi_def_cfa_offset 36
 275              		@ sp needed
 276 0132 BDE8F08F 		pop	{r4, r5, r6, r7, r8, r9, r10, fp, pc}
 277              		.cfi_endproc
 278              	.LFE0:
 279              		.size	u8x8_UserInterfaceInputValue, .-u8x8_UserInterfaceInputValue
 280 0136 00BF     		.text
 281              	.Letext0:
 282              		.file 2 "c:\\program files (x86)\\cypress\\psoc creator\\4.4\\psoc creator\\import\\gnu\\arm\\5.4.
 283              		.file 3 "c:\\program files (x86)\\cypress\\psoc creator\\4.4\\psoc creator\\import\\gnu\\arm\\5.4.
 284              		.file 4 "..\\u8g2\\csrc\\u8x8.h"