ARM GAS  C:\Users\brian\AppData\Local\Temp\ccPdkuii.s 			page 1


   1              		.syntax unified
   2              		.cpu cortex-m3
   3              		.fpu softvfp
   4              		.eabi_attribute 20, 1
   5              		.eabi_attribute 21, 1
   6              		.eabi_attribute 23, 3
   7              		.eabi_attribute 24, 1
   8              		.eabi_attribute 25, 1
   9              		.eabi_attribute 26, 1
  10              		.eabi_attribute 30, 1
  11              		.eabi_attribute 34, 1
  12              		.eabi_attribute 18, 4
  13              		.thumb
  14              		.syntax unified
  15              		.file	"u8x8_d_ist7920.c"
  16              		.text
  17              	.Ltext0:
  18              		.cfi_sections	.debug_frame
  19              		.section	.text.u8x8_d_ist7920_128x128,"ax",%progbits
  20              		.align	2
  21              		.global	u8x8_d_ist7920_128x128
  22              		.thumb
  23              		.thumb_func
  24              		.type	u8x8_d_ist7920_128x128, %function
  25              	u8x8_d_ist7920_128x128:
  26              	.LFB0:
  27              		.file 1 "..\\u8g2\\csrc\\u8x8_d_ist7920.c"
   1:..\u8g2\csrc/u8x8_d_ist7920.c **** /*
   2:..\u8g2\csrc/u8x8_d_ist7920.c **** 
   3:..\u8g2\csrc/u8x8_d_ist7920.c ****   u8x8_d_ist7920.c
   4:..\u8g2\csrc/u8x8_d_ist7920.c ****   
   5:..\u8g2\csrc/u8x8_d_ist7920.c ****   this is NOT ST7920!
   6:..\u8g2\csrc/u8x8_d_ist7920.c ****   
   7:..\u8g2\csrc/u8x8_d_ist7920.c ****   Universal 8bit Graphics Library (https://github.com/olikraus/u8g2/)
   8:..\u8g2\csrc/u8x8_d_ist7920.c **** 
   9:..\u8g2\csrc/u8x8_d_ist7920.c ****   Copyright (c) 2019, olikraus@gmail.com
  10:..\u8g2\csrc/u8x8_d_ist7920.c ****   All rights reserved.
  11:..\u8g2\csrc/u8x8_d_ist7920.c **** 
  12:..\u8g2\csrc/u8x8_d_ist7920.c ****   Redistribution and use in source and binary forms, with or without modification, 
  13:..\u8g2\csrc/u8x8_d_ist7920.c ****   are permitted provided that the following conditions are met:
  14:..\u8g2\csrc/u8x8_d_ist7920.c **** 
  15:..\u8g2\csrc/u8x8_d_ist7920.c ****   * Redistributions of source code must retain the above copyright notice, this list 
  16:..\u8g2\csrc/u8x8_d_ist7920.c ****     of conditions and the following disclaimer.
  17:..\u8g2\csrc/u8x8_d_ist7920.c ****     
  18:..\u8g2\csrc/u8x8_d_ist7920.c ****   * Redistributions in binary form must reproduce the above copyright notice, this 
  19:..\u8g2\csrc/u8x8_d_ist7920.c ****     list of conditions and the following disclaimer in the documentation and/or other 
  20:..\u8g2\csrc/u8x8_d_ist7920.c ****     materials provided with the distribution.
  21:..\u8g2\csrc/u8x8_d_ist7920.c **** 
  22:..\u8g2\csrc/u8x8_d_ist7920.c ****   THIS SOFTWARE IS PROVIDED BY THE COPYRIGHT HOLDERS AND 
  23:..\u8g2\csrc/u8x8_d_ist7920.c ****   CONTRIBUTORS "AS IS" AND ANY EXPRESS OR IMPLIED WARRANTIES, 
  24:..\u8g2\csrc/u8x8_d_ist7920.c ****   INCLUDING, BUT NOT LIMITED TO, THE IMPLIED WARRANTIES OF 
  25:..\u8g2\csrc/u8x8_d_ist7920.c ****   MERCHANTABILITY AND FITNESS FOR A PARTICULAR PURPOSE ARE 
  26:..\u8g2\csrc/u8x8_d_ist7920.c ****   DISCLAIMED. IN NO EVENT SHALL THE COPYRIGHT HOLDER OR 
  27:..\u8g2\csrc/u8x8_d_ist7920.c ****   CONTRIBUTORS BE LIABLE FOR ANY DIRECT, INDIRECT, INCIDENTAL, 
  28:..\u8g2\csrc/u8x8_d_ist7920.c ****   SPECIAL, EXEMPLARY, OR CONSEQUENTIAL DAMAGES (INCLUDING, BUT 
  29:..\u8g2\csrc/u8x8_d_ist7920.c ****   NOT LIMITED TO, PROCUREMENT OF SUBSTITUTE GOODS OR SERVICES; 
  30:..\u8g2\csrc/u8x8_d_ist7920.c ****   LOSS OF USE, DATA, OR PROFITS; OR BUSINESS INTERRUPTION) HOWEVER 
ARM GAS  C:\Users\brian\AppData\Local\Temp\ccPdkuii.s 			page 2


  31:..\u8g2\csrc/u8x8_d_ist7920.c ****   CAUSED AND ON ANY THEORY OF LIABILITY, WHETHER IN CONTRACT, 
  32:..\u8g2\csrc/u8x8_d_ist7920.c ****   STRICT LIABILITY, OR TORT (INCLUDING NEGLIGENCE OR OTHERWISE) 
  33:..\u8g2\csrc/u8x8_d_ist7920.c ****   ARISING IN ANY WAY OUT OF THE USE OF THIS SOFTWARE, EVEN IF 
  34:..\u8g2\csrc/u8x8_d_ist7920.c ****   ADVISED OF THE POSSIBILITY OF SUCH DAMAGE.  
  35:..\u8g2\csrc/u8x8_d_ist7920.c **** 
  36:..\u8g2\csrc/u8x8_d_ist7920.c ****   
  37:..\u8g2\csrc/u8x8_d_ist7920.c **** */
  38:..\u8g2\csrc/u8x8_d_ist7920.c **** #include "u8x8.h"
  39:..\u8g2\csrc/u8x8_d_ist7920.c **** 
  40:..\u8g2\csrc/u8x8_d_ist7920.c **** 
  41:..\u8g2\csrc/u8x8_d_ist7920.c **** 
  42:..\u8g2\csrc/u8x8_d_ist7920.c **** 
  43:..\u8g2\csrc/u8x8_d_ist7920.c **** static const uint8_t u8x8_d_ist7920_128x128_powersave0_seq[] = {
  44:..\u8g2\csrc/u8x8_d_ist7920.c ****   U8X8_START_TRANSFER(),             	/* enable chip, delay is part of the transfer start */
  45:..\u8g2\csrc/u8x8_d_ist7920.c ****   U8X8_C(0x03d),		                /* display on */
  46:..\u8g2\csrc/u8x8_d_ist7920.c ****   U8X8_END_TRANSFER(),             	/* disable chip */
  47:..\u8g2\csrc/u8x8_d_ist7920.c ****   U8X8_END()             			/* end of sequence */
  48:..\u8g2\csrc/u8x8_d_ist7920.c **** };
  49:..\u8g2\csrc/u8x8_d_ist7920.c **** 
  50:..\u8g2\csrc/u8x8_d_ist7920.c **** static const uint8_t u8x8_d_ist7920_128x128_powersave1_seq[] = {
  51:..\u8g2\csrc/u8x8_d_ist7920.c ****   U8X8_START_TRANSFER(),             	/* enable chip, delay is part of the transfer start */
  52:..\u8g2\csrc/u8x8_d_ist7920.c ****   U8X8_C(0x03c),		                /* display off */
  53:..\u8g2\csrc/u8x8_d_ist7920.c ****   U8X8_END_TRANSFER(),             	/* disable chip */
  54:..\u8g2\csrc/u8x8_d_ist7920.c ****   U8X8_END()             			/* end of sequence */
  55:..\u8g2\csrc/u8x8_d_ist7920.c **** };
  56:..\u8g2\csrc/u8x8_d_ist7920.c **** 
  57:..\u8g2\csrc/u8x8_d_ist7920.c **** static const uint8_t u8x8_d_ist7920_128x128_flip0_seq[] = {
  58:..\u8g2\csrc/u8x8_d_ist7920.c ****   U8X8_START_TRANSFER(),             	/* enable chip, delay is part of the transfer start */
  59:..\u8g2\csrc/u8x8_d_ist7920.c ****   U8X8_C(0x064),				/* Display Ctrl: Bit3: SHL 2:ADC 1:EON, 0:REV */
  60:..\u8g2\csrc/u8x8_d_ist7920.c ****   U8X8_END_TRANSFER(),             	/* disable chip */
  61:..\u8g2\csrc/u8x8_d_ist7920.c ****   U8X8_END()             			/* end of sequence */
  62:..\u8g2\csrc/u8x8_d_ist7920.c **** };
  63:..\u8g2\csrc/u8x8_d_ist7920.c **** 
  64:..\u8g2\csrc/u8x8_d_ist7920.c **** static const uint8_t u8x8_d_ist7920_128x128_flip1_seq[] = {
  65:..\u8g2\csrc/u8x8_d_ist7920.c ****   U8X8_START_TRANSFER(),             	/* enable chip, delay is part of the transfer start */
  66:..\u8g2\csrc/u8x8_d_ist7920.c ****   U8X8_C(0x068),				/* Display Ctrl: Bit3: SHL 2:ADC 1:EON, 0:REV */
  67:..\u8g2\csrc/u8x8_d_ist7920.c ****   U8X8_END_TRANSFER(),             	/* disable chip */
  68:..\u8g2\csrc/u8x8_d_ist7920.c ****   U8X8_END()             			/* end of sequence */
  69:..\u8g2\csrc/u8x8_d_ist7920.c **** };
  70:..\u8g2\csrc/u8x8_d_ist7920.c **** 
  71:..\u8g2\csrc/u8x8_d_ist7920.c **** 
  72:..\u8g2\csrc/u8x8_d_ist7920.c **** static const u8x8_display_info_t u8x8_ist7920_128x128_display_info =
  73:..\u8g2\csrc/u8x8_d_ist7920.c **** {
  74:..\u8g2\csrc/u8x8_d_ist7920.c ****   /* chip_enable_level = */ 0,
  75:..\u8g2\csrc/u8x8_d_ist7920.c ****   /* chip_disable_level = */ 1,
  76:..\u8g2\csrc/u8x8_d_ist7920.c ****   
  77:..\u8g2\csrc/u8x8_d_ist7920.c ****   /* post_chip_enable_wait_ns = */ 90,	/* IST7920 datasheet, page 48 */
  78:..\u8g2\csrc/u8x8_d_ist7920.c ****   /* pre_chip_disable_wait_ns = */ 90,	/* IST7920 datasheet, page 48 */
  79:..\u8g2\csrc/u8x8_d_ist7920.c ****   /* reset_pulse_width_ms = */ 10,		 
  80:..\u8g2\csrc/u8x8_d_ist7920.c ****   /* post_reset_wait_ms = */ 20, 		/* IST7920 Startup Seq.. */
  81:..\u8g2\csrc/u8x8_d_ist7920.c ****   /* sda_setup_time_ns = */ 45,		/* IST7920 datasheet, page 48 */
  82:..\u8g2\csrc/u8x8_d_ist7920.c ****   /* sck_pulse_width_ns = */ 130,	/* IST7920 datasheet, page 48 */
  83:..\u8g2\csrc/u8x8_d_ist7920.c ****   /* sck_clock_hz = */ 3000000UL,	/* IST7920 datasheet: 260ns */
  84:..\u8g2\csrc/u8x8_d_ist7920.c ****   /* spi_mode = */ 0,		/* active high, rising edge (not verified) */
  85:..\u8g2\csrc/u8x8_d_ist7920.c ****   /* i2c_bus_clock_100kHz = */ 4,	/* 400kHz according to IST7920 datasheet */
  86:..\u8g2\csrc/u8x8_d_ist7920.c ****   /* data_setup_time_ns = */ 60,	/* IST7920 datasheet, page 47 */
  87:..\u8g2\csrc/u8x8_d_ist7920.c ****   /* write_pulse_width_ns = */ 150,	/* IST7920 datasheet, page 47 */
ARM GAS  C:\Users\brian\AppData\Local\Temp\ccPdkuii.s 			page 3


  88:..\u8g2\csrc/u8x8_d_ist7920.c ****   /* tile_width = */ 16,		/* width of 16*8=128 pixel */
  89:..\u8g2\csrc/u8x8_d_ist7920.c ****   /* tile_hight = */ 16,
  90:..\u8g2\csrc/u8x8_d_ist7920.c ****   /* default_x_offset = */ 0,
  91:..\u8g2\csrc/u8x8_d_ist7920.c ****   /* flipmode_x_offset = */ 0,
  92:..\u8g2\csrc/u8x8_d_ist7920.c ****   /* pixel_width = */ 128,
  93:..\u8g2\csrc/u8x8_d_ist7920.c ****   /* pixel_height = */ 128
  94:..\u8g2\csrc/u8x8_d_ist7920.c **** };
  95:..\u8g2\csrc/u8x8_d_ist7920.c **** 
  96:..\u8g2\csrc/u8x8_d_ist7920.c **** /* 1/128 Duty, 1/10 Bias, 128x128 round display */
  97:..\u8g2\csrc/u8x8_d_ist7920.c **** static const uint8_t u8x8_d_ist7920_128x128_init_seq[] = {
  98:..\u8g2\csrc/u8x8_d_ist7920.c ****     
  99:..\u8g2\csrc/u8x8_d_ist7920.c ****   U8X8_START_TRANSFER(),             	/* enable chip, delay is part of the transfer start */
 100:..\u8g2\csrc/u8x8_d_ist7920.c **** 
 101:..\u8g2\csrc/u8x8_d_ist7920.c ****   U8X8_C(0x076),				/* Software Reset */
 102:..\u8g2\csrc/u8x8_d_ist7920.c ****   U8X8_DLY(50),
 103:..\u8g2\csrc/u8x8_d_ist7920.c ****   U8X8_C(0x03c),				/* display off */
 104:..\u8g2\csrc/u8x8_d_ist7920.c ****   
 105:..\u8g2\csrc/u8x8_d_ist7920.c ****   
 106:..\u8g2\csrc/u8x8_d_ist7920.c ****   U8X8_CA(0x090, 128),			/* Set Duty */
 107:..\u8g2\csrc/u8x8_d_ist7920.c ****   //U8X8_CAA(0x0b2, 0x011, 0x00),	/* Set Frame Control */  
 108:..\u8g2\csrc/u8x8_d_ist7920.c **** 
 109:..\u8g2\csrc/u8x8_d_ist7920.c ****   U8X8_CA(0x030, 16),			/* Set Bias 0: 1/8, 8: 1/9, 16: 1/10, 24: 1/11, 48: 1/12 ... */  
 110:..\u8g2\csrc/u8x8_d_ist7920.c ****   U8X8_CA(0x031, 0x03f),		/* Set voltage generate clock(31H/11H) */  
 111:..\u8g2\csrc/u8x8_d_ist7920.c ****   //U8X8_CA(0x032, 0x015),		/* Temperature compensation */  
 112:..\u8g2\csrc/u8x8_d_ist7920.c ****   U8X8_CA(0x033, 0x020),		/* Power Control */
 113:..\u8g2\csrc/u8x8_d_ist7920.c ****   U8X8_DLY(100),
 114:..\u8g2\csrc/u8x8_d_ist7920.c ****   U8X8_CA(0x033, 0x02c),		/* Power Control */
 115:..\u8g2\csrc/u8x8_d_ist7920.c ****   U8X8_DLY(100),
 116:..\u8g2\csrc/u8x8_d_ist7920.c ****   U8X8_C(0xfd),				/* set booster */
 117:..\u8g2\csrc/u8x8_d_ist7920.c ****   U8X8_DLY(100),
 118:..\u8g2\csrc/u8x8_d_ist7920.c ****   U8X8_CA(0x033, 0x02f),		/* Power Control */
 119:..\u8g2\csrc/u8x8_d_ist7920.c ****   U8X8_DLY(200),
 120:..\u8g2\csrc/u8x8_d_ist7920.c ****   
 121:..\u8g2\csrc/u8x8_d_ist7920.c ****   U8X8_C(0x064),				/* Display Ctrl: Bit3: SHL 2:ADC 1:EON, 0:REV */
 122:..\u8g2\csrc/u8x8_d_ist7920.c **** 
 123:..\u8g2\csrc/u8x8_d_ist7920.c ****   U8X8_CAA(0x074, 0x000, 0x00f),	/* AY Window */  
 124:..\u8g2\csrc/u8x8_d_ist7920.c ****   U8X8_CAA(0x075, 0x000, 0x07f),	/* AX Window */  
 125:..\u8g2\csrc/u8x8_d_ist7920.c ****   
 126:..\u8g2\csrc/u8x8_d_ist7920.c ****   U8X8_CA(0x040, 64),			/* Start line at 64 */
 127:..\u8g2\csrc/u8x8_d_ist7920.c **** 
 128:..\u8g2\csrc/u8x8_d_ist7920.c ****   U8X8_CA(0x0b1, 100),			/* electronic volume */  
 129:..\u8g2\csrc/u8x8_d_ist7920.c **** 
 130:..\u8g2\csrc/u8x8_d_ist7920.c **** 
 131:..\u8g2\csrc/u8x8_d_ist7920.c ****   U8X8_END_TRANSFER(),             	/* disable chip */
 132:..\u8g2\csrc/u8x8_d_ist7920.c ****   U8X8_END()             			/* end of sequence */
 133:..\u8g2\csrc/u8x8_d_ist7920.c **** };
 134:..\u8g2\csrc/u8x8_d_ist7920.c **** 
 135:..\u8g2\csrc/u8x8_d_ist7920.c **** uint8_t u8x8_d_ist7920_128x128(u8x8_t *u8x8, uint8_t msg, uint8_t arg_int, void *arg_ptr)
 136:..\u8g2\csrc/u8x8_d_ist7920.c **** {
  28              		.loc 1 136 0
  29              		.cfi_startproc
  30              		@ args = 0, pretend = 0, frame = 0
  31              		@ frame_needed = 0, uses_anonymous_args = 0
  32              	.LVL0:
  33 0000 F8B5     		push	{r3, r4, r5, r6, r7, lr}
  34              		.cfi_def_cfa_offset 24
  35              		.cfi_offset 3, -24
ARM GAS  C:\Users\brian\AppData\Local\Temp\ccPdkuii.s 			page 4


  36              		.cfi_offset 4, -20
  37              		.cfi_offset 5, -16
  38              		.cfi_offset 6, -12
  39              		.cfi_offset 7, -8
  40              		.cfi_offset 14, -4
  41 0002 0546     		mov	r5, r0
  42 0004 1446     		mov	r4, r2
  43 0006 1F46     		mov	r7, r3
 137:..\u8g2\csrc/u8x8_d_ist7920.c ****   uint8_t x, c;
 138:..\u8g2\csrc/u8x8_d_ist7920.c ****   uint8_t *ptr;
 139:..\u8g2\csrc/u8x8_d_ist7920.c ****   switch(msg)
  44              		.loc 1 139 0
  45 0008 0939     		subs	r1, r1, #9
  46              	.LVL1:
  47 000a 0629     		cmp	r1, #6
  48 000c 6AD8     		bhi	.L13
  49 000e DFE801F0 		tbb	[pc, r1]
  50              	.LVL2:
  51              	.L4:
  52 0012 04       		.byte	(.L3-.L4)/2
  53 0013 09       		.byte	(.L5-.L4)/2
  54 0014 11       		.byte	(.L6-.L4)/2
  55 0015 69       		.byte	(.L13-.L4)/2
  56 0016 1C       		.byte	(.L7-.L4)/2
  57 0017 2F       		.byte	(.L8-.L4)/2
  58 0018 3E       		.byte	(.L9-.L4)/2
  59 0019 00       		.p2align 1
  60              	.L3:
 140:..\u8g2\csrc/u8x8_d_ist7920.c ****   {
 141:..\u8g2\csrc/u8x8_d_ist7920.c ****     case U8X8_MSG_DISPLAY_SETUP_MEMORY:
 142:..\u8g2\csrc/u8x8_d_ist7920.c ****       u8x8_d_helper_display_setup_memory(u8x8, &u8x8_ist7920_128x128_display_info);
  61              		.loc 1 142 0
  62 001a 3349     		ldr	r1, .L15
  63 001c FFF7FEFF 		bl	u8x8_d_helper_display_setup_memory
  64              	.LVL3:
 143:..\u8g2\csrc/u8x8_d_ist7920.c ****       break;
 144:..\u8g2\csrc/u8x8_d_ist7920.c ****     case U8X8_MSG_DISPLAY_INIT:
 145:..\u8g2\csrc/u8x8_d_ist7920.c ****       u8x8_d_helper_display_init(u8x8);
 146:..\u8g2\csrc/u8x8_d_ist7920.c ****       u8x8_cad_SendSequence(u8x8, u8x8_d_ist7920_128x128_init_seq);
 147:..\u8g2\csrc/u8x8_d_ist7920.c ****       break;
 148:..\u8g2\csrc/u8x8_d_ist7920.c ****     case U8X8_MSG_DISPLAY_SET_POWER_SAVE:
 149:..\u8g2\csrc/u8x8_d_ist7920.c ****       if ( arg_int == 0 )
 150:..\u8g2\csrc/u8x8_d_ist7920.c **** 	u8x8_cad_SendSequence(u8x8, u8x8_d_ist7920_128x128_powersave0_seq);
 151:..\u8g2\csrc/u8x8_d_ist7920.c ****       else
 152:..\u8g2\csrc/u8x8_d_ist7920.c **** 	u8x8_cad_SendSequence(u8x8, u8x8_d_ist7920_128x128_powersave1_seq);
 153:..\u8g2\csrc/u8x8_d_ist7920.c ****       break;
 154:..\u8g2\csrc/u8x8_d_ist7920.c ****     case U8X8_MSG_DISPLAY_SET_FLIP_MODE:
 155:..\u8g2\csrc/u8x8_d_ist7920.c ****       if ( arg_int == 0 )
 156:..\u8g2\csrc/u8x8_d_ist7920.c ****       {
 157:..\u8g2\csrc/u8x8_d_ist7920.c **** 	u8x8_cad_SendSequence(u8x8, u8x8_d_ist7920_128x128_flip0_seq);
 158:..\u8g2\csrc/u8x8_d_ist7920.c **** 	u8x8->x_offset = u8x8->display_info->default_x_offset;
 159:..\u8g2\csrc/u8x8_d_ist7920.c ****       }
 160:..\u8g2\csrc/u8x8_d_ist7920.c ****       else
 161:..\u8g2\csrc/u8x8_d_ist7920.c ****       {
 162:..\u8g2\csrc/u8x8_d_ist7920.c **** 	u8x8_cad_SendSequence(u8x8, u8x8_d_ist7920_128x128_flip1_seq);
 163:..\u8g2\csrc/u8x8_d_ist7920.c **** 	u8x8->x_offset = u8x8->display_info->flipmode_x_offset;
 164:..\u8g2\csrc/u8x8_d_ist7920.c ****       }	
ARM GAS  C:\Users\brian\AppData\Local\Temp\ccPdkuii.s 			page 5


 165:..\u8g2\csrc/u8x8_d_ist7920.c ****       break;
 166:..\u8g2\csrc/u8x8_d_ist7920.c **** #ifdef U8X8_WITH_SET_CONTRAST
 167:..\u8g2\csrc/u8x8_d_ist7920.c ****     case U8X8_MSG_DISPLAY_SET_CONTRAST:
 168:..\u8g2\csrc/u8x8_d_ist7920.c ****       u8x8_cad_StartTransfer(u8x8);
 169:..\u8g2\csrc/u8x8_d_ist7920.c ****       u8x8_cad_SendCmd(u8x8, 0x0b1 );
 170:..\u8g2\csrc/u8x8_d_ist7920.c ****       u8x8_cad_SendArg(u8x8, arg_int );	/* st7920 has range from 0 to 255 */
 171:..\u8g2\csrc/u8x8_d_ist7920.c ****       u8x8_cad_EndTransfer(u8x8);
 172:..\u8g2\csrc/u8x8_d_ist7920.c ****       break;
 173:..\u8g2\csrc/u8x8_d_ist7920.c **** #endif
 174:..\u8g2\csrc/u8x8_d_ist7920.c ****     case U8X8_MSG_DISPLAY_DRAW_TILE:
 175:..\u8g2\csrc/u8x8_d_ist7920.c ****       u8x8_cad_StartTransfer(u8x8);
 176:..\u8g2\csrc/u8x8_d_ist7920.c ****     
 177:..\u8g2\csrc/u8x8_d_ist7920.c ****       x = ((u8x8_tile_t *)arg_ptr)->x_pos;
 178:..\u8g2\csrc/u8x8_d_ist7920.c ****       x *= 8;
 179:..\u8g2\csrc/u8x8_d_ist7920.c ****       x += u8x8->x_offset;
 180:..\u8g2\csrc/u8x8_d_ist7920.c ****       u8x8_cad_SendCmd(u8x8, 0x0c0 );
 181:..\u8g2\csrc/u8x8_d_ist7920.c ****       u8x8_cad_SendArg(u8x8, x );
 182:..\u8g2\csrc/u8x8_d_ist7920.c ****       u8x8_cad_SendCmd(u8x8, 0x001 );
 183:..\u8g2\csrc/u8x8_d_ist7920.c ****       u8x8_cad_SendArg(u8x8, (((u8x8_tile_t *)arg_ptr)->y_pos) );
 184:..\u8g2\csrc/u8x8_d_ist7920.c ****     
 185:..\u8g2\csrc/u8x8_d_ist7920.c ****       c = ((u8x8_tile_t *)arg_ptr)->cnt;
 186:..\u8g2\csrc/u8x8_d_ist7920.c ****       c *= 8;
 187:..\u8g2\csrc/u8x8_d_ist7920.c ****       ptr = ((u8x8_tile_t *)arg_ptr)->tile_ptr;
 188:..\u8g2\csrc/u8x8_d_ist7920.c ****       do
 189:..\u8g2\csrc/u8x8_d_ist7920.c ****       {
 190:..\u8g2\csrc/u8x8_d_ist7920.c **** 	u8x8_cad_SendData(u8x8, c, ptr);	/* note: SendData can not handle more than 255 bytes */
 191:..\u8g2\csrc/u8x8_d_ist7920.c **** 	arg_int--;
 192:..\u8g2\csrc/u8x8_d_ist7920.c ****       } while( arg_int > 0 );
 193:..\u8g2\csrc/u8x8_d_ist7920.c ****       
 194:..\u8g2\csrc/u8x8_d_ist7920.c ****       u8x8_cad_EndTransfer(u8x8);
 195:..\u8g2\csrc/u8x8_d_ist7920.c ****       break;
 196:..\u8g2\csrc/u8x8_d_ist7920.c ****     default:
 197:..\u8g2\csrc/u8x8_d_ist7920.c ****       return 0;
 198:..\u8g2\csrc/u8x8_d_ist7920.c ****   }
 199:..\u8g2\csrc/u8x8_d_ist7920.c ****   return 1;
  65              		.loc 1 199 0
  66 0020 0120     		movs	r0, #1
 143:..\u8g2\csrc/u8x8_d_ist7920.c ****       break;
  67              		.loc 1 143 0
  68 0022 F8BD     		pop	{r3, r4, r5, r6, r7, pc}
  69              	.LVL4:
  70              	.L5:
 145:..\u8g2\csrc/u8x8_d_ist7920.c ****       u8x8_cad_SendSequence(u8x8, u8x8_d_ist7920_128x128_init_seq);
  71              		.loc 1 145 0
  72 0024 FFF7FEFF 		bl	u8x8_d_helper_display_init
  73              	.LVL5:
 146:..\u8g2\csrc/u8x8_d_ist7920.c ****       break;
  74              		.loc 1 146 0
  75 0028 3049     		ldr	r1, .L15+4
  76 002a 2846     		mov	r0, r5
  77 002c FFF7FEFF 		bl	u8x8_cad_SendSequence
  78              	.LVL6:
  79              		.loc 1 199 0
  80 0030 0120     		movs	r0, #1
 147:..\u8g2\csrc/u8x8_d_ist7920.c ****     case U8X8_MSG_DISPLAY_SET_POWER_SAVE:
  81              		.loc 1 147 0
  82 0032 F8BD     		pop	{r3, r4, r5, r6, r7, pc}
ARM GAS  C:\Users\brian\AppData\Local\Temp\ccPdkuii.s 			page 6


  83              	.LVL7:
  84              	.L6:
 149:..\u8g2\csrc/u8x8_d_ist7920.c **** 	u8x8_cad_SendSequence(u8x8, u8x8_d_ist7920_128x128_powersave0_seq);
  85              		.loc 1 149 0
  86 0034 22B9     		cbnz	r2, .L10
 150:..\u8g2\csrc/u8x8_d_ist7920.c ****       else
  87              		.loc 1 150 0
  88 0036 2E49     		ldr	r1, .L15+8
  89 0038 FFF7FEFF 		bl	u8x8_cad_SendSequence
  90              	.LVL8:
  91              		.loc 1 199 0
  92 003c 0120     		movs	r0, #1
  93 003e F8BD     		pop	{r3, r4, r5, r6, r7, pc}
  94              	.LVL9:
  95              	.L10:
 152:..\u8g2\csrc/u8x8_d_ist7920.c ****       break;
  96              		.loc 1 152 0
  97 0040 2C49     		ldr	r1, .L15+12
  98 0042 FFF7FEFF 		bl	u8x8_cad_SendSequence
  99              	.LVL10:
 100              		.loc 1 199 0
 101 0046 0120     		movs	r0, #1
 102 0048 F8BD     		pop	{r3, r4, r5, r6, r7, pc}
 103              	.LVL11:
 104              	.L7:
 155:..\u8g2\csrc/u8x8_d_ist7920.c ****       {
 105              		.loc 1 155 0
 106 004a 42B9     		cbnz	r2, .L11
 157:..\u8g2\csrc/u8x8_d_ist7920.c **** 	u8x8->x_offset = u8x8->display_info->default_x_offset;
 107              		.loc 1 157 0
 108 004c 2A49     		ldr	r1, .L15+16
 109 004e FFF7FEFF 		bl	u8x8_cad_SendSequence
 110              	.LVL12:
 158:..\u8g2\csrc/u8x8_d_ist7920.c ****       }
 111              		.loc 1 158 0
 112 0052 2B68     		ldr	r3, [r5]
 113 0054 9B7C     		ldrb	r3, [r3, #18]	@ zero_extendqisi2
 114 0056 85F82230 		strb	r3, [r5, #34]
 115              		.loc 1 199 0
 116 005a 0120     		movs	r0, #1
 117 005c F8BD     		pop	{r3, r4, r5, r6, r7, pc}
 118              	.LVL13:
 119              	.L11:
 162:..\u8g2\csrc/u8x8_d_ist7920.c **** 	u8x8->x_offset = u8x8->display_info->flipmode_x_offset;
 120              		.loc 1 162 0
 121 005e 2749     		ldr	r1, .L15+20
 122 0060 FFF7FEFF 		bl	u8x8_cad_SendSequence
 123              	.LVL14:
 163:..\u8g2\csrc/u8x8_d_ist7920.c ****       }	
 124              		.loc 1 163 0
 125 0064 2B68     		ldr	r3, [r5]
 126 0066 DB7C     		ldrb	r3, [r3, #19]	@ zero_extendqisi2
 127 0068 85F82230 		strb	r3, [r5, #34]
 128              		.loc 1 199 0
 129 006c 0120     		movs	r0, #1
 130 006e F8BD     		pop	{r3, r4, r5, r6, r7, pc}
 131              	.LVL15:
ARM GAS  C:\Users\brian\AppData\Local\Temp\ccPdkuii.s 			page 7


 132              	.L8:
 168:..\u8g2\csrc/u8x8_d_ist7920.c ****       u8x8_cad_SendCmd(u8x8, 0x0b1 );
 133              		.loc 1 168 0
 134 0070 FFF7FEFF 		bl	u8x8_cad_StartTransfer
 135              	.LVL16:
 169:..\u8g2\csrc/u8x8_d_ist7920.c ****       u8x8_cad_SendArg(u8x8, arg_int );	/* st7920 has range from 0 to 255 */
 136              		.loc 1 169 0
 137 0074 B121     		movs	r1, #177
 138 0076 2846     		mov	r0, r5
 139 0078 FFF7FEFF 		bl	u8x8_cad_SendCmd
 140              	.LVL17:
 170:..\u8g2\csrc/u8x8_d_ist7920.c ****       u8x8_cad_EndTransfer(u8x8);
 141              		.loc 1 170 0
 142 007c 2146     		mov	r1, r4
 143 007e 2846     		mov	r0, r5
 144 0080 FFF7FEFF 		bl	u8x8_cad_SendArg
 145              	.LVL18:
 171:..\u8g2\csrc/u8x8_d_ist7920.c ****       break;
 146              		.loc 1 171 0
 147 0084 2846     		mov	r0, r5
 148 0086 FFF7FEFF 		bl	u8x8_cad_EndTransfer
 149              	.LVL19:
 150              		.loc 1 199 0
 151 008a 0120     		movs	r0, #1
 172:..\u8g2\csrc/u8x8_d_ist7920.c **** #endif
 152              		.loc 1 172 0
 153 008c F8BD     		pop	{r3, r4, r5, r6, r7, pc}
 154              	.LVL20:
 155              	.L9:
 175:..\u8g2\csrc/u8x8_d_ist7920.c ****     
 156              		.loc 1 175 0
 157 008e FFF7FEFF 		bl	u8x8_cad_StartTransfer
 158              	.LVL21:
 177:..\u8g2\csrc/u8x8_d_ist7920.c ****       x *= 8;
 159              		.loc 1 177 0
 160 0092 7E79     		ldrb	r6, [r7, #5]	@ zero_extendqisi2
 161              	.LVL22:
 178:..\u8g2\csrc/u8x8_d_ist7920.c ****       x += u8x8->x_offset;
 162              		.loc 1 178 0
 163 0094 F600     		lsls	r6, r6, #3
 164              	.LVL23:
 165 0096 F6B2     		uxtb	r6, r6
 166              	.LVL24:
 179:..\u8g2\csrc/u8x8_d_ist7920.c ****       u8x8_cad_SendCmd(u8x8, 0x0c0 );
 167              		.loc 1 179 0
 168 0098 95F82230 		ldrb	r3, [r5, #34]	@ zero_extendqisi2
 169 009c 1E44     		add	r6, r6, r3
 170              	.LVL25:
 171 009e F6B2     		uxtb	r6, r6
 172              	.LVL26:
 180:..\u8g2\csrc/u8x8_d_ist7920.c ****       u8x8_cad_SendArg(u8x8, x );
 173              		.loc 1 180 0
 174 00a0 C021     		movs	r1, #192
 175 00a2 2846     		mov	r0, r5
 176 00a4 FFF7FEFF 		bl	u8x8_cad_SendCmd
 177              	.LVL27:
 181:..\u8g2\csrc/u8x8_d_ist7920.c ****       u8x8_cad_SendCmd(u8x8, 0x001 );
ARM GAS  C:\Users\brian\AppData\Local\Temp\ccPdkuii.s 			page 8


 178              		.loc 1 181 0
 179 00a8 3146     		mov	r1, r6
 180 00aa 2846     		mov	r0, r5
 181 00ac FFF7FEFF 		bl	u8x8_cad_SendArg
 182              	.LVL28:
 182:..\u8g2\csrc/u8x8_d_ist7920.c ****       u8x8_cad_SendArg(u8x8, (((u8x8_tile_t *)arg_ptr)->y_pos) );
 183              		.loc 1 182 0
 184 00b0 0121     		movs	r1, #1
 185 00b2 2846     		mov	r0, r5
 186 00b4 FFF7FEFF 		bl	u8x8_cad_SendCmd
 187              	.LVL29:
 183:..\u8g2\csrc/u8x8_d_ist7920.c ****     
 188              		.loc 1 183 0
 189 00b8 B979     		ldrb	r1, [r7, #6]	@ zero_extendqisi2
 190 00ba 2846     		mov	r0, r5
 191 00bc FFF7FEFF 		bl	u8x8_cad_SendArg
 192              	.LVL30:
 185:..\u8g2\csrc/u8x8_d_ist7920.c ****       c *= 8;
 193              		.loc 1 185 0
 194 00c0 3E79     		ldrb	r6, [r7, #4]	@ zero_extendqisi2
 195              	.LVL31:
 186:..\u8g2\csrc/u8x8_d_ist7920.c ****       ptr = ((u8x8_tile_t *)arg_ptr)->tile_ptr;
 196              		.loc 1 186 0
 197 00c2 F600     		lsls	r6, r6, #3
 198              	.LVL32:
 199 00c4 F6B2     		uxtb	r6, r6
 200              	.LVL33:
 187:..\u8g2\csrc/u8x8_d_ist7920.c ****       do
 201              		.loc 1 187 0
 202 00c6 3F68     		ldr	r7, [r7]
 203              	.LVL34:
 204              	.L12:
 190:..\u8g2\csrc/u8x8_d_ist7920.c **** 	arg_int--;
 205              		.loc 1 190 0 discriminator 1
 206 00c8 3A46     		mov	r2, r7
 207 00ca 3146     		mov	r1, r6
 208 00cc 2846     		mov	r0, r5
 209 00ce FFF7FEFF 		bl	u8x8_cad_SendData
 210              	.LVL35:
 191:..\u8g2\csrc/u8x8_d_ist7920.c ****       } while( arg_int > 0 );
 211              		.loc 1 191 0 discriminator 1
 212 00d2 621E     		subs	r2, r4, #1
 213              	.LVL36:
 192:..\u8g2\csrc/u8x8_d_ist7920.c ****       
 214              		.loc 1 192 0 discriminator 1
 215 00d4 12F0FF04 		ands	r4, r2, #255
 216 00d8 F6D1     		bne	.L12
 194:..\u8g2\csrc/u8x8_d_ist7920.c ****       break;
 217              		.loc 1 194 0
 218 00da 2846     		mov	r0, r5
 219 00dc FFF7FEFF 		bl	u8x8_cad_EndTransfer
 220              	.LVL37:
 221              		.loc 1 199 0
 222 00e0 0120     		movs	r0, #1
 195:..\u8g2\csrc/u8x8_d_ist7920.c ****     default:
 223              		.loc 1 195 0
 224 00e2 F8BD     		pop	{r3, r4, r5, r6, r7, pc}
ARM GAS  C:\Users\brian\AppData\Local\Temp\ccPdkuii.s 			page 9


 225              	.LVL38:
 226              	.L13:
 197:..\u8g2\csrc/u8x8_d_ist7920.c ****   }
 227              		.loc 1 197 0
 228 00e4 0020     		movs	r0, #0
 229              	.LVL39:
 200:..\u8g2\csrc/u8x8_d_ist7920.c **** }
 230              		.loc 1 200 0
 231 00e6 F8BD     		pop	{r3, r4, r5, r6, r7, pc}
 232              	.LVL40:
 233              	.L16:
 234              		.align	2
 235              	.L15:
 236 00e8 00000000 		.word	.LANCHOR0
 237 00ec 18000000 		.word	.LANCHOR0+24
 238 00f0 5C000000 		.word	.LANCHOR0+92
 239 00f4 64000000 		.word	.LANCHOR0+100
 240 00f8 6C000000 		.word	.LANCHOR0+108
 241 00fc 74000000 		.word	.LANCHOR0+116
 242              		.cfi_endproc
 243              	.LFE0:
 244              		.size	u8x8_d_ist7920_128x128, .-u8x8_d_ist7920_128x128
 245              		.section	.rodata
 246              		.align	2
 247              		.set	.LANCHOR0,. + 0
 248              		.type	u8x8_ist7920_128x128_display_info, %object
 249              		.size	u8x8_ist7920_128x128_display_info, 24
 250              	u8x8_ist7920_128x128_display_info:
 251 0000 00       		.byte	0
 252 0001 01       		.byte	1
 253 0002 5A       		.byte	90
 254 0003 5A       		.byte	90
 255 0004 0A       		.byte	10
 256 0005 14       		.byte	20
 257 0006 2D       		.byte	45
 258 0007 82       		.byte	-126
 259 0008 C0C62D00 		.word	3000000
 260 000c 00       		.byte	0
 261 000d 04       		.byte	4
 262 000e 3C       		.byte	60
 263 000f 96       		.byte	-106
 264 0010 10       		.byte	16
 265 0011 10       		.byte	16
 266 0012 00       		.byte	0
 267 0013 00       		.byte	0
 268 0014 8000     		.short	128
 269 0016 8000     		.short	128
 270              		.type	u8x8_d_ist7920_128x128_init_seq, %object
 271              		.size	u8x8_d_ist7920_128x128_init_seq, 65
 272              	u8x8_d_ist7920_128x128_init_seq:
 273 0018 18       		.byte	24
 274 0019 15       		.byte	21
 275 001a 76       		.byte	118
 276 001b FE       		.byte	-2
 277 001c 32       		.byte	50
 278 001d 15       		.byte	21
 279 001e 3C       		.byte	60
ARM GAS  C:\Users\brian\AppData\Local\Temp\ccPdkuii.s 			page 10


 280 001f 15       		.byte	21
 281 0020 90       		.byte	-112
 282 0021 16       		.byte	22
 283 0022 80       		.byte	-128
 284 0023 15       		.byte	21
 285 0024 30       		.byte	48
 286 0025 16       		.byte	22
 287 0026 10       		.byte	16
 288 0027 15       		.byte	21
 289 0028 31       		.byte	49
 290 0029 16       		.byte	22
 291 002a 3F       		.byte	63
 292 002b 15       		.byte	21
 293 002c 33       		.byte	51
 294 002d 16       		.byte	22
 295 002e 20       		.byte	32
 296 002f FE       		.byte	-2
 297 0030 64       		.byte	100
 298 0031 15       		.byte	21
 299 0032 33       		.byte	51
 300 0033 16       		.byte	22
 301 0034 2C       		.byte	44
 302 0035 FE       		.byte	-2
 303 0036 64       		.byte	100
 304 0037 15       		.byte	21
 305 0038 FD       		.byte	-3
 306 0039 FE       		.byte	-2
 307 003a 64       		.byte	100
 308 003b 15       		.byte	21
 309 003c 33       		.byte	51
 310 003d 16       		.byte	22
 311 003e 2F       		.byte	47
 312 003f FE       		.byte	-2
 313 0040 C8       		.byte	-56
 314 0041 15       		.byte	21
 315 0042 64       		.byte	100
 316 0043 15       		.byte	21
 317 0044 74       		.byte	116
 318 0045 16       		.byte	22
 319 0046 00       		.byte	0
 320 0047 16       		.byte	22
 321 0048 0F       		.byte	15
 322 0049 15       		.byte	21
 323 004a 75       		.byte	117
 324 004b 16       		.byte	22
 325 004c 00       		.byte	0
 326 004d 16       		.byte	22
 327 004e 7F       		.byte	127
 328 004f 15       		.byte	21
 329 0050 40       		.byte	64
 330 0051 16       		.byte	22
 331 0052 40       		.byte	64
 332 0053 15       		.byte	21
 333 0054 B1       		.byte	-79
 334 0055 16       		.byte	22
 335 0056 64       		.byte	100
 336 0057 19       		.byte	25
ARM GAS  C:\Users\brian\AppData\Local\Temp\ccPdkuii.s 			page 11


 337 0058 FF       		.byte	-1
 338 0059 000000   		.space	3
 339              		.type	u8x8_d_ist7920_128x128_powersave0_seq, %object
 340              		.size	u8x8_d_ist7920_128x128_powersave0_seq, 5
 341              	u8x8_d_ist7920_128x128_powersave0_seq:
 342 005c 18       		.byte	24
 343 005d 15       		.byte	21
 344 005e 3D       		.byte	61
 345 005f 19       		.byte	25
 346 0060 FF       		.byte	-1
 347 0061 000000   		.space	3
 348              		.type	u8x8_d_ist7920_128x128_powersave1_seq, %object
 349              		.size	u8x8_d_ist7920_128x128_powersave1_seq, 5
 350              	u8x8_d_ist7920_128x128_powersave1_seq:
 351 0064 18       		.byte	24
 352 0065 15       		.byte	21
 353 0066 3C       		.byte	60
 354 0067 19       		.byte	25
 355 0068 FF       		.byte	-1
 356 0069 000000   		.space	3
 357              		.type	u8x8_d_ist7920_128x128_flip0_seq, %object
 358              		.size	u8x8_d_ist7920_128x128_flip0_seq, 5
 359              	u8x8_d_ist7920_128x128_flip0_seq:
 360 006c 18       		.byte	24
 361 006d 15       		.byte	21
 362 006e 64       		.byte	100
 363 006f 19       		.byte	25
 364 0070 FF       		.byte	-1
 365 0071 000000   		.space	3
 366              		.type	u8x8_d_ist7920_128x128_flip1_seq, %object
 367              		.size	u8x8_d_ist7920_128x128_flip1_seq, 5
 368              	u8x8_d_ist7920_128x128_flip1_seq:
 369 0074 18       		.byte	24
 370 0075 15       		.byte	21
 371 0076 68       		.byte	104
 372 0077 19       		.byte	25
 373 0078 FF       		.byte	-1
 374              		.text
 375              	.Letext0:
 376              		.file 2 "c:\\program files (x86)\\cypress\\psoc creator\\4.4\\psoc creator\\import\\gnu\\arm\\5.4.
 377              		.file 3 "c:\\program files (x86)\\cypress\\psoc creator\\4.4\\psoc creator\\import\\gnu\\arm\\5.4.
 378              		.file 4 "..\\u8g2\\csrc\\u8x8.h"