ARM GAS  C:\Users\brian\AppData\Local\Temp\cczEHs5T.s 			page 1


   1              		.syntax unified
   2              		.cpu cortex-m3
   3              		.fpu softvfp
   4              		.eabi_attribute 20, 1
   5              		.eabi_attribute 21, 1
   6              		.eabi_attribute 23, 3
   7              		.eabi_attribute 24, 1
   8              		.eabi_attribute 25, 1
   9              		.eabi_attribute 26, 1
  10              		.eabi_attribute 30, 1
  11              		.eabi_attribute 34, 1
  12              		.eabi_attribute 18, 4
  13              		.thumb
  14              		.syntax unified
  15              		.file	"u8x8_d_ssd1305.c"
  16              		.text
  17              	.Ltext0:
  18              		.cfi_sections	.debug_frame
  19              		.section	.text.u8x8_d_ssd1305_generic,"ax",%progbits
  20              		.align	2
  21              		.thumb
  22              		.thumb_func
  23              		.type	u8x8_d_ssd1305_generic, %function
  24              	u8x8_d_ssd1305_generic:
  25              	.LFB0:
  26              		.file 1 "..\\u8g2\\csrc\\u8x8_d_ssd1305.c"
   1:..\u8g2\csrc/u8x8_d_ssd1305.c **** /*
   2:..\u8g2\csrc/u8x8_d_ssd1305.c **** 
   3:..\u8g2\csrc/u8x8_d_ssd1305.c ****   u8x8_d_ssd1305.c
   4:..\u8g2\csrc/u8x8_d_ssd1305.c **** 
   5:..\u8g2\csrc/u8x8_d_ssd1305.c ****   Universal 8bit Graphics Library (https://github.com/olikraus/u8g2/)
   6:..\u8g2\csrc/u8x8_d_ssd1305.c **** 
   7:..\u8g2\csrc/u8x8_d_ssd1305.c ****   Copyright (c) 2017, olikraus@gmail.com
   8:..\u8g2\csrc/u8x8_d_ssd1305.c ****   All rights reserved.
   9:..\u8g2\csrc/u8x8_d_ssd1305.c **** 
  10:..\u8g2\csrc/u8x8_d_ssd1305.c ****   Redistribution and use in source and binary forms, with or without modification, 
  11:..\u8g2\csrc/u8x8_d_ssd1305.c ****   are permitted provided that the following conditions are met:
  12:..\u8g2\csrc/u8x8_d_ssd1305.c **** 
  13:..\u8g2\csrc/u8x8_d_ssd1305.c ****   * Redistributions of source code must retain the above copyright notice, this list 
  14:..\u8g2\csrc/u8x8_d_ssd1305.c ****     of conditions and the following disclaimer.
  15:..\u8g2\csrc/u8x8_d_ssd1305.c ****     
  16:..\u8g2\csrc/u8x8_d_ssd1305.c ****   * Redistributions in binary form must reproduce the above copyright notice, this 
  17:..\u8g2\csrc/u8x8_d_ssd1305.c ****     list of conditions and the following disclaimer in the documentation and/or other 
  18:..\u8g2\csrc/u8x8_d_ssd1305.c ****     materials provided with the distribution.
  19:..\u8g2\csrc/u8x8_d_ssd1305.c **** 
  20:..\u8g2\csrc/u8x8_d_ssd1305.c ****   THIS SOFTWARE IS PROVIDED BY THE COPYRIGHT HOLDERS AND 
  21:..\u8g2\csrc/u8x8_d_ssd1305.c ****   CONTRIBUTORS "AS IS" AND ANY EXPRESS OR IMPLIED WARRANTIES, 
  22:..\u8g2\csrc/u8x8_d_ssd1305.c ****   INCLUDING, BUT NOT LIMITED TO, THE IMPLIED WARRANTIES OF 
  23:..\u8g2\csrc/u8x8_d_ssd1305.c ****   MERCHANTABILITY AND FITNESS FOR A PARTICULAR PURPOSE ARE 
  24:..\u8g2\csrc/u8x8_d_ssd1305.c ****   DISCLAIMED. IN NO EVENT SHALL THE COPYRIGHT HOLDER OR 
  25:..\u8g2\csrc/u8x8_d_ssd1305.c ****   CONTRIBUTORS BE LIABLE FOR ANY DIRECT, INDIRECT, INCIDENTAL, 
  26:..\u8g2\csrc/u8x8_d_ssd1305.c ****   SPECIAL, EXEMPLARY, OR CONSEQUENTIAL DAMAGES (INCLUDING, BUT 
  27:..\u8g2\csrc/u8x8_d_ssd1305.c ****   NOT LIMITED TO, PROCUREMENT OF SUBSTITUTE GOODS OR SERVICES; 
  28:..\u8g2\csrc/u8x8_d_ssd1305.c ****   LOSS OF USE, DATA, OR PROFITS; OR BUSINESS INTERRUPTION) HOWEVER 
  29:..\u8g2\csrc/u8x8_d_ssd1305.c ****   CAUSED AND ON ANY THEORY OF LIABILITY, WHETHER IN CONTRACT, 
  30:..\u8g2\csrc/u8x8_d_ssd1305.c ****   STRICT LIABILITY, OR TORT (INCLUDING NEGLIGENCE OR OTHERWISE) 
  31:..\u8g2\csrc/u8x8_d_ssd1305.c ****   ARISING IN ANY WAY OUT OF THE USE OF THIS SOFTWARE, EVEN IF 
ARM GAS  C:\Users\brian\AppData\Local\Temp\cczEHs5T.s 			page 2


  32:..\u8g2\csrc/u8x8_d_ssd1305.c ****   ADVISED OF THE POSSIBILITY OF SUCH DAMAGE.  
  33:..\u8g2\csrc/u8x8_d_ssd1305.c ****   
  34:..\u8g2\csrc/u8x8_d_ssd1305.c **** */
  35:..\u8g2\csrc/u8x8_d_ssd1305.c **** 
  36:..\u8g2\csrc/u8x8_d_ssd1305.c **** 
  37:..\u8g2\csrc/u8x8_d_ssd1305.c **** #include "u8x8.h"
  38:..\u8g2\csrc/u8x8_d_ssd1305.c **** 
  39:..\u8g2\csrc/u8x8_d_ssd1305.c **** 
  40:..\u8g2\csrc/u8x8_d_ssd1305.c **** 
  41:..\u8g2\csrc/u8x8_d_ssd1305.c **** 
  42:..\u8g2\csrc/u8x8_d_ssd1305.c **** static const uint8_t u8x8_d_ssd1305_powersave0_seq[] = {
  43:..\u8g2\csrc/u8x8_d_ssd1305.c ****   U8X8_START_TRANSFER(),             	/* enable chip, delay is part of the transfer start */
  44:..\u8g2\csrc/u8x8_d_ssd1305.c ****   U8X8_C(0x0af),		                /* display on */
  45:..\u8g2\csrc/u8x8_d_ssd1305.c ****   U8X8_END_TRANSFER(),             	/* disable chip */
  46:..\u8g2\csrc/u8x8_d_ssd1305.c ****   U8X8_END()             			/* end of sequence */
  47:..\u8g2\csrc/u8x8_d_ssd1305.c **** };
  48:..\u8g2\csrc/u8x8_d_ssd1305.c **** 
  49:..\u8g2\csrc/u8x8_d_ssd1305.c **** static const uint8_t u8x8_d_ssd1305_powersave1_seq[] = {
  50:..\u8g2\csrc/u8x8_d_ssd1305.c ****   U8X8_START_TRANSFER(),             	/* enable chip, delay is part of the transfer start */
  51:..\u8g2\csrc/u8x8_d_ssd1305.c ****   U8X8_C(0x0ae),		                /* display off */
  52:..\u8g2\csrc/u8x8_d_ssd1305.c ****   U8X8_END_TRANSFER(),             	/* disable chip */
  53:..\u8g2\csrc/u8x8_d_ssd1305.c ****   U8X8_END()             			/* end of sequence */
  54:..\u8g2\csrc/u8x8_d_ssd1305.c **** };
  55:..\u8g2\csrc/u8x8_d_ssd1305.c **** 
  56:..\u8g2\csrc/u8x8_d_ssd1305.c **** static const uint8_t u8x8_d_ssd1305_128x32_flip0_seq[] = {
  57:..\u8g2\csrc/u8x8_d_ssd1305.c ****   U8X8_START_TRANSFER(),             	/* enable chip, delay is part of the transfer start */
  58:..\u8g2\csrc/u8x8_d_ssd1305.c ****   U8X8_CA(0x0d3, 32),			/* display offset to 32 */
  59:..\u8g2\csrc/u8x8_d_ssd1305.c ****   U8X8_C(0x0a1),				/* segment remap a0/a1*/
  60:..\u8g2\csrc/u8x8_d_ssd1305.c ****   U8X8_C(0x0c8),				/* c0: scan dir normal, c8: reverse */
  61:..\u8g2\csrc/u8x8_d_ssd1305.c ****   U8X8_END_TRANSFER(),             	/* disable chip */
  62:..\u8g2\csrc/u8x8_d_ssd1305.c ****   U8X8_END()             			/* end of sequence */
  63:..\u8g2\csrc/u8x8_d_ssd1305.c **** };
  64:..\u8g2\csrc/u8x8_d_ssd1305.c **** 
  65:..\u8g2\csrc/u8x8_d_ssd1305.c **** static const uint8_t u8x8_d_ssd1305_128x32_flip1_seq[] = {
  66:..\u8g2\csrc/u8x8_d_ssd1305.c ****   U8X8_START_TRANSFER(),             	/* enable chip, delay is part of the transfer start */
  67:..\u8g2\csrc/u8x8_d_ssd1305.c ****   U8X8_CA(0x0d3, 0),			/* display offset to  */
  68:..\u8g2\csrc/u8x8_d_ssd1305.c ****   U8X8_C(0x0a0),				/* segment remap a0/a1*/
  69:..\u8g2\csrc/u8x8_d_ssd1305.c ****   U8X8_C(0x0c0),				/* c0: scan dir normal, c8: reverse */
  70:..\u8g2\csrc/u8x8_d_ssd1305.c ****   U8X8_END_TRANSFER(),             	/* disable chip */
  71:..\u8g2\csrc/u8x8_d_ssd1305.c ****   U8X8_END()             			/* end of sequence */
  72:..\u8g2\csrc/u8x8_d_ssd1305.c **** };
  73:..\u8g2\csrc/u8x8_d_ssd1305.c **** 
  74:..\u8g2\csrc/u8x8_d_ssd1305.c **** 
  75:..\u8g2\csrc/u8x8_d_ssd1305.c **** 
  76:..\u8g2\csrc/u8x8_d_ssd1305.c **** static uint8_t u8x8_d_ssd1305_generic(u8x8_t *u8x8, uint8_t msg, uint8_t arg_int, void *arg_ptr)
  77:..\u8g2\csrc/u8x8_d_ssd1305.c **** {
  27              		.loc 1 77 0
  28              		.cfi_startproc
  29              		@ args = 0, pretend = 0, frame = 0
  30              		@ frame_needed = 0, uses_anonymous_args = 0
  31              	.LVL0:
  32 0000 F8B5     		push	{r3, r4, r5, r6, r7, lr}
  33              		.cfi_def_cfa_offset 24
  34              		.cfi_offset 3, -24
  35              		.cfi_offset 4, -20
  36              		.cfi_offset 5, -16
  37              		.cfi_offset 6, -12
ARM GAS  C:\Users\brian\AppData\Local\Temp\cczEHs5T.s 			page 3


  38              		.cfi_offset 7, -8
  39              		.cfi_offset 14, -4
  40 0002 0646     		mov	r6, r0
  41 0004 1446     		mov	r4, r2
  78:..\u8g2\csrc/u8x8_d_ssd1305.c ****   uint8_t x, c;
  79:..\u8g2\csrc/u8x8_d_ssd1305.c ****   uint8_t *ptr;
  80:..\u8g2\csrc/u8x8_d_ssd1305.c ****   switch(msg)
  42              		.loc 1 80 0
  43 0006 0E29     		cmp	r1, #14
  44 0008 3FD0     		beq	.L3
  45 000a 1D46     		mov	r5, r3
  46 000c 0F29     		cmp	r1, #15
  47 000e 02D0     		beq	.L4
  48 0010 0B29     		cmp	r1, #11
  49 0012 49D1     		bne	.L9
  50 0014 2EE0     		b	.L5
  51              	.L4:
  81:..\u8g2\csrc/u8x8_d_ssd1305.c ****   {
  82:..\u8g2\csrc/u8x8_d_ssd1305.c ****     case U8X8_MSG_DISPLAY_DRAW_TILE:
  83:..\u8g2\csrc/u8x8_d_ssd1305.c ****       u8x8_cad_StartTransfer(u8x8);
  52              		.loc 1 83 0
  53 0016 FFF7FEFF 		bl	u8x8_cad_StartTransfer
  54              	.LVL1:
  84:..\u8g2\csrc/u8x8_d_ssd1305.c ****       x = ((u8x8_tile_t *)arg_ptr)->x_pos;    
  55              		.loc 1 84 0
  56 001a 6F79     		ldrb	r7, [r5, #5]	@ zero_extendqisi2
  57              	.LVL2:
  85:..\u8g2\csrc/u8x8_d_ssd1305.c ****       x *= 8;
  58              		.loc 1 85 0
  59 001c FF00     		lsls	r7, r7, #3
  60              	.LVL3:
  61 001e FFB2     		uxtb	r7, r7
  62              	.LVL4:
  86:..\u8g2\csrc/u8x8_d_ssd1305.c ****       x += u8x8->x_offset;
  63              		.loc 1 86 0
  64 0020 96F82230 		ldrb	r3, [r6, #34]	@ zero_extendqisi2
  65 0024 1F44     		add	r7, r7, r3
  66              	.LVL5:
  67 0026 FFB2     		uxtb	r7, r7
  68              	.LVL6:
  87:..\u8g2\csrc/u8x8_d_ssd1305.c ****     
  88:..\u8g2\csrc/u8x8_d_ssd1305.c ****       u8x8_cad_SendCmd(u8x8, 0x040 );	/* set line offset to 0 */
  69              		.loc 1 88 0
  70 0028 4021     		movs	r1, #64
  71 002a 3046     		mov	r0, r6
  72 002c FFF7FEFF 		bl	u8x8_cad_SendCmd
  73              	.LVL7:
  89:..\u8g2\csrc/u8x8_d_ssd1305.c ****     
  90:..\u8g2\csrc/u8x8_d_ssd1305.c ****       u8x8_cad_SendCmd(u8x8, 0x010 | (x>>4) );
  74              		.loc 1 90 0
  75 0030 3909     		lsrs	r1, r7, #4
  76 0032 41F01001 		orr	r1, r1, #16
  77 0036 3046     		mov	r0, r6
  78 0038 FFF7FEFF 		bl	u8x8_cad_SendCmd
  79              	.LVL8:
  91:..\u8g2\csrc/u8x8_d_ssd1305.c ****       u8x8_cad_SendArg(u8x8, 0x000 | ((x&15)));
  80              		.loc 1 91 0
ARM GAS  C:\Users\brian\AppData\Local\Temp\cczEHs5T.s 			page 4


  81 003c 07F00F01 		and	r1, r7, #15
  82 0040 3046     		mov	r0, r6
  83 0042 FFF7FEFF 		bl	u8x8_cad_SendArg
  84              	.LVL9:
  92:..\u8g2\csrc/u8x8_d_ssd1305.c ****       u8x8_cad_SendArg(u8x8, 0x0b0 | (((u8x8_tile_t *)arg_ptr)->y_pos)   );
  85              		.loc 1 92 0
  86 0046 A979     		ldrb	r1, [r5, #6]	@ zero_extendqisi2
  87 0048 41F0B001 		orr	r1, r1, #176
  88 004c 3046     		mov	r0, r6
  89 004e FFF7FEFF 		bl	u8x8_cad_SendArg
  90              	.LVL10:
  91              	.L6:
  93:..\u8g2\csrc/u8x8_d_ssd1305.c **** 
  94:..\u8g2\csrc/u8x8_d_ssd1305.c ****     
  95:..\u8g2\csrc/u8x8_d_ssd1305.c ****       do
  96:..\u8g2\csrc/u8x8_d_ssd1305.c ****       {
  97:..\u8g2\csrc/u8x8_d_ssd1305.c **** 	c = ((u8x8_tile_t *)arg_ptr)->cnt;
  92              		.loc 1 97 0 discriminator 1
  93 0052 2979     		ldrb	r1, [r5, #4]	@ zero_extendqisi2
  94              	.LVL11:
  98:..\u8g2\csrc/u8x8_d_ssd1305.c **** 	ptr = ((u8x8_tile_t *)arg_ptr)->tile_ptr;
  99:..\u8g2\csrc/u8x8_d_ssd1305.c **** 	u8x8_cad_SendData(u8x8, c*8, ptr); 	/* note: SendData can not handle more than 255 bytes */
  95              		.loc 1 99 0 discriminator 1
  96 0054 C900     		lsls	r1, r1, #3
  97              	.LVL12:
  98 0056 2A68     		ldr	r2, [r5]
  99 0058 01F0F801 		and	r1, r1, #248
 100 005c 3046     		mov	r0, r6
 101 005e FFF7FEFF 		bl	u8x8_cad_SendData
 102              	.LVL13:
 100:..\u8g2\csrc/u8x8_d_ssd1305.c **** 	/*
 101:..\u8g2\csrc/u8x8_d_ssd1305.c **** 	do
 102:..\u8g2\csrc/u8x8_d_ssd1305.c **** 	{
 103:..\u8g2\csrc/u8x8_d_ssd1305.c **** 	  u8x8_cad_SendData(u8x8, 8, ptr);
 104:..\u8g2\csrc/u8x8_d_ssd1305.c **** 	  ptr += 8;
 105:..\u8g2\csrc/u8x8_d_ssd1305.c **** 	  c--;
 106:..\u8g2\csrc/u8x8_d_ssd1305.c **** 	} while( c > 0 );
 107:..\u8g2\csrc/u8x8_d_ssd1305.c **** 	*/
 108:..\u8g2\csrc/u8x8_d_ssd1305.c **** 	arg_int--;
 103              		.loc 1 108 0 discriminator 1
 104 0062 621E     		subs	r2, r4, #1
 105              	.LVL14:
 109:..\u8g2\csrc/u8x8_d_ssd1305.c ****       } while( arg_int > 0 );
 106              		.loc 1 109 0 discriminator 1
 107 0064 12F0FF04 		ands	r4, r2, #255
 108 0068 F3D1     		bne	.L6
 110:..\u8g2\csrc/u8x8_d_ssd1305.c ****       
 111:..\u8g2\csrc/u8x8_d_ssd1305.c ****       u8x8_cad_EndTransfer(u8x8);
 109              		.loc 1 111 0
 110 006a 3046     		mov	r0, r6
 111 006c FFF7FEFF 		bl	u8x8_cad_EndTransfer
 112              	.LVL15:
 112:..\u8g2\csrc/u8x8_d_ssd1305.c ****       break;
 113:..\u8g2\csrc/u8x8_d_ssd1305.c ****     case U8X8_MSG_DISPLAY_SET_POWER_SAVE:
 114:..\u8g2\csrc/u8x8_d_ssd1305.c ****       if ( arg_int == 0 )
 115:..\u8g2\csrc/u8x8_d_ssd1305.c **** 	u8x8_cad_SendSequence(u8x8, u8x8_d_ssd1305_powersave0_seq);
 116:..\u8g2\csrc/u8x8_d_ssd1305.c ****       else
ARM GAS  C:\Users\brian\AppData\Local\Temp\cczEHs5T.s 			page 5


 117:..\u8g2\csrc/u8x8_d_ssd1305.c **** 	u8x8_cad_SendSequence(u8x8, u8x8_d_ssd1305_powersave1_seq);
 118:..\u8g2\csrc/u8x8_d_ssd1305.c ****       break;
 119:..\u8g2\csrc/u8x8_d_ssd1305.c **** #ifdef U8X8_WITH_SET_CONTRAST
 120:..\u8g2\csrc/u8x8_d_ssd1305.c ****     case U8X8_MSG_DISPLAY_SET_CONTRAST:
 121:..\u8g2\csrc/u8x8_d_ssd1305.c ****       u8x8_cad_StartTransfer(u8x8);
 122:..\u8g2\csrc/u8x8_d_ssd1305.c ****       u8x8_cad_SendCmd(u8x8, 0x081 );
 123:..\u8g2\csrc/u8x8_d_ssd1305.c ****       u8x8_cad_SendArg(u8x8, arg_int );	/* ssd1305 has range from 0 to 255 */
 124:..\u8g2\csrc/u8x8_d_ssd1305.c ****       u8x8_cad_EndTransfer(u8x8);
 125:..\u8g2\csrc/u8x8_d_ssd1305.c ****       break;
 126:..\u8g2\csrc/u8x8_d_ssd1305.c **** #endif
 127:..\u8g2\csrc/u8x8_d_ssd1305.c ****     default:
 128:..\u8g2\csrc/u8x8_d_ssd1305.c ****       return 0;
 129:..\u8g2\csrc/u8x8_d_ssd1305.c ****   }
 130:..\u8g2\csrc/u8x8_d_ssd1305.c ****   return 1;
 113              		.loc 1 130 0
 114 0070 0120     		movs	r0, #1
 112:..\u8g2\csrc/u8x8_d_ssd1305.c ****       break;
 115              		.loc 1 112 0
 116 0072 F8BD     		pop	{r3, r4, r5, r6, r7, pc}
 117              	.LVL16:
 118              	.L5:
 114:..\u8g2\csrc/u8x8_d_ssd1305.c **** 	u8x8_cad_SendSequence(u8x8, u8x8_d_ssd1305_powersave0_seq);
 119              		.loc 1 114 0
 120 0074 22B9     		cbnz	r2, .L7
 115:..\u8g2\csrc/u8x8_d_ssd1305.c ****       else
 121              		.loc 1 115 0
 122 0076 0D49     		ldr	r1, .L11
 123              	.LVL17:
 124 0078 FFF7FEFF 		bl	u8x8_cad_SendSequence
 125              	.LVL18:
 126              		.loc 1 130 0
 127 007c 0120     		movs	r0, #1
 128 007e F8BD     		pop	{r3, r4, r5, r6, r7, pc}
 129              	.LVL19:
 130              	.L7:
 117:..\u8g2\csrc/u8x8_d_ssd1305.c ****       break;
 131              		.loc 1 117 0
 132 0080 0B49     		ldr	r1, .L11+4
 133              	.LVL20:
 134 0082 FFF7FEFF 		bl	u8x8_cad_SendSequence
 135              	.LVL21:
 136              		.loc 1 130 0
 137 0086 0120     		movs	r0, #1
 138 0088 F8BD     		pop	{r3, r4, r5, r6, r7, pc}
 139              	.LVL22:
 140              	.L3:
 121:..\u8g2\csrc/u8x8_d_ssd1305.c ****       u8x8_cad_SendCmd(u8x8, 0x081 );
 141              		.loc 1 121 0
 142 008a FFF7FEFF 		bl	u8x8_cad_StartTransfer
 143              	.LVL23:
 122:..\u8g2\csrc/u8x8_d_ssd1305.c ****       u8x8_cad_SendArg(u8x8, arg_int );	/* ssd1305 has range from 0 to 255 */
 144              		.loc 1 122 0
 145 008e 8121     		movs	r1, #129
 146 0090 3046     		mov	r0, r6
 147 0092 FFF7FEFF 		bl	u8x8_cad_SendCmd
 148              	.LVL24:
 123:..\u8g2\csrc/u8x8_d_ssd1305.c ****       u8x8_cad_EndTransfer(u8x8);
ARM GAS  C:\Users\brian\AppData\Local\Temp\cczEHs5T.s 			page 6


 149              		.loc 1 123 0
 150 0096 2146     		mov	r1, r4
 151 0098 3046     		mov	r0, r6
 152 009a FFF7FEFF 		bl	u8x8_cad_SendArg
 153              	.LVL25:
 124:..\u8g2\csrc/u8x8_d_ssd1305.c ****       break;
 154              		.loc 1 124 0
 155 009e 3046     		mov	r0, r6
 156 00a0 FFF7FEFF 		bl	u8x8_cad_EndTransfer
 157              	.LVL26:
 158              		.loc 1 130 0
 159 00a4 0120     		movs	r0, #1
 125:..\u8g2\csrc/u8x8_d_ssd1305.c **** #endif
 160              		.loc 1 125 0
 161 00a6 F8BD     		pop	{r3, r4, r5, r6, r7, pc}
 162              	.LVL27:
 163              	.L9:
 128:..\u8g2\csrc/u8x8_d_ssd1305.c ****   }
 164              		.loc 1 128 0
 165 00a8 0020     		movs	r0, #0
 166              	.LVL28:
 131:..\u8g2\csrc/u8x8_d_ssd1305.c **** }
 167              		.loc 1 131 0
 168 00aa F8BD     		pop	{r3, r4, r5, r6, r7, pc}
 169              	.LVL29:
 170              	.L12:
 171              		.align	2
 172              	.L11:
 173 00ac 00000000 		.word	.LANCHOR0
 174 00b0 08000000 		.word	.LANCHOR0+8
 175              		.cfi_endproc
 176              	.LFE0:
 177              		.size	u8x8_d_ssd1305_generic, .-u8x8_d_ssd1305_generic
 178              		.section	.text.u8x8_d_ssd1305_128x32_noname,"ax",%progbits
 179              		.align	2
 180              		.global	u8x8_d_ssd1305_128x32_noname
 181              		.thumb
 182              		.thumb_func
 183              		.type	u8x8_d_ssd1305_128x32_noname, %function
 184              	u8x8_d_ssd1305_128x32_noname:
 185              	.LFB1:
 132:..\u8g2\csrc/u8x8_d_ssd1305.c **** 
 133:..\u8g2\csrc/u8x8_d_ssd1305.c **** /* timing from SSD1306 */
 134:..\u8g2\csrc/u8x8_d_ssd1305.c **** static const u8x8_display_info_t u8x8_ssd1305_128x32_noname_display_info =
 135:..\u8g2\csrc/u8x8_d_ssd1305.c **** {
 136:..\u8g2\csrc/u8x8_d_ssd1305.c ****   /* chip_enable_level = */ 0,
 137:..\u8g2\csrc/u8x8_d_ssd1305.c ****   /* chip_disable_level = */ 1,
 138:..\u8g2\csrc/u8x8_d_ssd1305.c ****   
 139:..\u8g2\csrc/u8x8_d_ssd1305.c ****   /* post_chip_enable_wait_ns = */ 20,
 140:..\u8g2\csrc/u8x8_d_ssd1305.c ****   /* pre_chip_disable_wait_ns = */ 10,
 141:..\u8g2\csrc/u8x8_d_ssd1305.c ****   /* reset_pulse_width_ms = */ 100, 	/* SSD1306: 3 us */
 142:..\u8g2\csrc/u8x8_d_ssd1305.c ****   /* post_reset_wait_ms = */ 100, /* far east OLEDs need much longer setup time */
 143:..\u8g2\csrc/u8x8_d_ssd1305.c ****   /* sda_setup_time_ns = */ 50,		/* SSD1306: 15ns, but cycle time is 100ns, so use 100/2 */
 144:..\u8g2\csrc/u8x8_d_ssd1305.c ****   /* sck_pulse_width_ns = */ 50,	/* SSD1306: 20ns, but cycle time is 100ns, so use 100/2, AVR: belo
 145:..\u8g2\csrc/u8x8_d_ssd1305.c ****   /* sck_clock_hz = */ 4000000UL,	/* since Arduino 1.6.0, the SPI bus speed in Hz. Should be  10000
 146:..\u8g2\csrc/u8x8_d_ssd1305.c ****   /* spi_mode = */ 0,		/* active high, rising edge */
 147:..\u8g2\csrc/u8x8_d_ssd1305.c ****   /* i2c_bus_clock_100kHz = */ 4,
ARM GAS  C:\Users\brian\AppData\Local\Temp\cczEHs5T.s 			page 7


 148:..\u8g2\csrc/u8x8_d_ssd1305.c ****   /* data_setup_time_ns = */ 40,
 149:..\u8g2\csrc/u8x8_d_ssd1305.c ****   /* write_pulse_width_ns = */ 150,	/* SSD1306: cycle time is 300ns, so use 300/2 = 150 */
 150:..\u8g2\csrc/u8x8_d_ssd1305.c ****   /* tile_width = */ 16,
 151:..\u8g2\csrc/u8x8_d_ssd1305.c ****   /* tile_hight = */ 4,
 152:..\u8g2\csrc/u8x8_d_ssd1305.c ****   /* default_x_offset = */ 2,
 153:..\u8g2\csrc/u8x8_d_ssd1305.c ****   /* flipmode_x_offset = */ 2,
 154:..\u8g2\csrc/u8x8_d_ssd1305.c ****   /* pixel_width = */ 128,
 155:..\u8g2\csrc/u8x8_d_ssd1305.c ****   /* pixel_height = */ 32
 156:..\u8g2\csrc/u8x8_d_ssd1305.c **** };
 157:..\u8g2\csrc/u8x8_d_ssd1305.c **** 
 158:..\u8g2\csrc/u8x8_d_ssd1305.c **** 
 159:..\u8g2\csrc/u8x8_d_ssd1305.c **** static const uint8_t u8x8_d_ssd1305_128x32_noname_init_seq[] = {
 160:..\u8g2\csrc/u8x8_d_ssd1305.c ****     
 161:..\u8g2\csrc/u8x8_d_ssd1305.c ****   U8X8_START_TRANSFER(),             	/* enable chip, delay is part of the transfer start */
 162:..\u8g2\csrc/u8x8_d_ssd1305.c ****   
 163:..\u8g2\csrc/u8x8_d_ssd1305.c ****   
 164:..\u8g2\csrc/u8x8_d_ssd1305.c ****   U8X8_C(0x0ae),		                /* display off */
 165:..\u8g2\csrc/u8x8_d_ssd1305.c ****   U8X8_CA(0x0d5, 0x080),		/* clock divide ratio (0x00=1) and oscillator frequency (0x8) */
 166:..\u8g2\csrc/u8x8_d_ssd1305.c ****   U8X8_CA(0x0a8, 0x03f),		/* multiplex ratio */
 167:..\u8g2\csrc/u8x8_d_ssd1305.c ****   U8X8_CA(0x0d3, 32),			/* display offset to 32 */
 168:..\u8g2\csrc/u8x8_d_ssd1305.c ****   U8X8_C(0x040),		        	/* set display start line to 0 */
 169:..\u8g2\csrc/u8x8_d_ssd1305.c ****   U8X8_CA(0x020, 0x000),		/* horizontal addressing mode */
 170:..\u8g2\csrc/u8x8_d_ssd1305.c ****   
 171:..\u8g2\csrc/u8x8_d_ssd1305.c ****   U8X8_C(0x0a1),				/* segment remap a0/a1*/
 172:..\u8g2\csrc/u8x8_d_ssd1305.c ****   U8X8_C(0x0c8),				/* c0: scan dir normal, c8: reverse */
 173:..\u8g2\csrc/u8x8_d_ssd1305.c ****   // Flipmode
 174:..\u8g2\csrc/u8x8_d_ssd1305.c ****   // U8X8_C(0x0a0),				/* segment remap a0/a1*/
 175:..\u8g2\csrc/u8x8_d_ssd1305.c ****   // U8X8_C(0x0c0),				/* c0: scan dir normal, c8: reverse */
 176:..\u8g2\csrc/u8x8_d_ssd1305.c ****   
 177:..\u8g2\csrc/u8x8_d_ssd1305.c ****   U8X8_CA(0x0da, 0x012),		/* com pin HW config, sequential com pin config (bit 4), disable left/rig
 178:..\u8g2\csrc/u8x8_d_ssd1305.c **** 
 179:..\u8g2\csrc/u8x8_d_ssd1305.c ****   U8X8_CA(0x081, 0x0cf), 		/* [2] set contrast control */
 180:..\u8g2\csrc/u8x8_d_ssd1305.c ****   U8X8_CA(0x0d9, 0x0f1), 		/* [2] pre-charge period 0x022/f1*/
 181:..\u8g2\csrc/u8x8_d_ssd1305.c ****   U8X8_CA(0x0db, 0x040), 		/* vcomh deselect level */  
 182:..\u8g2\csrc/u8x8_d_ssd1305.c ****   // if vcomh is 0, then this will give the biggest range for contrast control issue #98
 183:..\u8g2\csrc/u8x8_d_ssd1305.c ****   // restored the old values for the noname constructor, because vcomh=0 will not work for all OLED
 184:..\u8g2\csrc/u8x8_d_ssd1305.c ****   
 185:..\u8g2\csrc/u8x8_d_ssd1305.c ****   U8X8_C(0x02e),				/* Deactivate scroll */ 
 186:..\u8g2\csrc/u8x8_d_ssd1305.c ****   U8X8_C(0x0a4),				/* output ram to display */
 187:..\u8g2\csrc/u8x8_d_ssd1305.c ****   U8X8_C(0x0a6),				/* none inverted normal display mode */
 188:..\u8g2\csrc/u8x8_d_ssd1305.c ****     
 189:..\u8g2\csrc/u8x8_d_ssd1305.c ****   U8X8_END_TRANSFER(),             	/* disable chip */
 190:..\u8g2\csrc/u8x8_d_ssd1305.c ****   U8X8_END()             			/* end of sequence */
 191:..\u8g2\csrc/u8x8_d_ssd1305.c **** };
 192:..\u8g2\csrc/u8x8_d_ssd1305.c **** 
 193:..\u8g2\csrc/u8x8_d_ssd1305.c **** 
 194:..\u8g2\csrc/u8x8_d_ssd1305.c **** uint8_t u8x8_d_ssd1305_128x32_noname(u8x8_t *u8x8, uint8_t msg, uint8_t arg_int, void *arg_ptr)
 195:..\u8g2\csrc/u8x8_d_ssd1305.c **** {
 186              		.loc 1 195 0
 187              		.cfi_startproc
 188              		@ args = 0, pretend = 0, frame = 0
 189              		@ frame_needed = 0, uses_anonymous_args = 0
 190              	.LVL30:
 191 0000 70B5     		push	{r4, r5, r6, lr}
 192              		.cfi_def_cfa_offset 16
 193              		.cfi_offset 4, -16
 194              		.cfi_offset 5, -12
ARM GAS  C:\Users\brian\AppData\Local\Temp\cczEHs5T.s 			page 8


 195              		.cfi_offset 6, -8
 196              		.cfi_offset 14, -4
 197 0002 0546     		mov	r5, r0
 198 0004 0C46     		mov	r4, r1
 199 0006 1646     		mov	r6, r2
 196:..\u8g2\csrc/u8x8_d_ssd1305.c ****     
 197:..\u8g2\csrc/u8x8_d_ssd1305.c ****   if ( u8x8_d_ssd1305_generic(u8x8, msg, arg_int, arg_ptr) != 0 )
 200              		.loc 1 197 0
 201 0008 FFF7FEFF 		bl	u8x8_d_ssd1305_generic
 202              	.LVL31:
 203 000c 58BB     		cbnz	r0, .L19
 204 000e 0346     		mov	r3, r0
 198:..\u8g2\csrc/u8x8_d_ssd1305.c ****     return 1;
 199:..\u8g2\csrc/u8x8_d_ssd1305.c ****   
 200:..\u8g2\csrc/u8x8_d_ssd1305.c ****   switch(msg)
 205              		.loc 1 200 0
 206 0010 0A2C     		cmp	r4, #10
 207 0012 19D0     		beq	.L15
 208 0014 0D2C     		cmp	r4, #13
 209 0016 02D0     		beq	.L16
 210 0018 092C     		cmp	r4, #9
 211 001a 25D1     		bne	.L14
 212 001c 1DE0     		b	.L17
 213              	.L16:
 201:..\u8g2\csrc/u8x8_d_ssd1305.c ****   {
 202:..\u8g2\csrc/u8x8_d_ssd1305.c ****     case U8X8_MSG_DISPLAY_SET_FLIP_MODE:
 203:..\u8g2\csrc/u8x8_d_ssd1305.c ****       if ( arg_int == 0 )
 214              		.loc 1 203 0
 215 001e 4EB9     		cbnz	r6, .L18
 204:..\u8g2\csrc/u8x8_d_ssd1305.c ****       {
 205:..\u8g2\csrc/u8x8_d_ssd1305.c **** 	u8x8_cad_SendSequence(u8x8, u8x8_d_ssd1305_128x32_flip0_seq);
 216              		.loc 1 205 0
 217 0020 1249     		ldr	r1, .L21
 218 0022 2846     		mov	r0, r5
 219 0024 FFF7FEFF 		bl	u8x8_cad_SendSequence
 220              	.LVL32:
 206:..\u8g2\csrc/u8x8_d_ssd1305.c **** 	u8x8->x_offset = u8x8->display_info->default_x_offset;
 221              		.loc 1 206 0
 222 0028 2B68     		ldr	r3, [r5]
 223 002a 9B7C     		ldrb	r3, [r3, #18]	@ zero_extendqisi2
 224 002c 85F82230 		strb	r3, [r5, #34]
 207:..\u8g2\csrc/u8x8_d_ssd1305.c ****       }
 208:..\u8g2\csrc/u8x8_d_ssd1305.c ****       else
 209:..\u8g2\csrc/u8x8_d_ssd1305.c ****       {
 210:..\u8g2\csrc/u8x8_d_ssd1305.c **** 	u8x8_cad_SendSequence(u8x8, u8x8_d_ssd1305_128x32_flip1_seq);
 211:..\u8g2\csrc/u8x8_d_ssd1305.c **** 	u8x8->x_offset = u8x8->display_info->flipmode_x_offset;
 212:..\u8g2\csrc/u8x8_d_ssd1305.c ****       }
 213:..\u8g2\csrc/u8x8_d_ssd1305.c ****       break;
 214:..\u8g2\csrc/u8x8_d_ssd1305.c ****     case U8X8_MSG_DISPLAY_INIT:
 215:..\u8g2\csrc/u8x8_d_ssd1305.c ****       u8x8_d_helper_display_init(u8x8);
 216:..\u8g2\csrc/u8x8_d_ssd1305.c ****       u8x8_cad_SendSequence(u8x8, u8x8_d_ssd1305_128x32_noname_init_seq);    
 217:..\u8g2\csrc/u8x8_d_ssd1305.c ****       break;
 218:..\u8g2\csrc/u8x8_d_ssd1305.c ****     case U8X8_MSG_DISPLAY_SETUP_MEMORY:
 219:..\u8g2\csrc/u8x8_d_ssd1305.c ****       u8x8_d_helper_display_setup_memory(u8x8, &u8x8_ssd1305_128x32_noname_display_info);
 220:..\u8g2\csrc/u8x8_d_ssd1305.c ****       break;
 221:..\u8g2\csrc/u8x8_d_ssd1305.c ****     default:
 222:..\u8g2\csrc/u8x8_d_ssd1305.c ****       return 0;
ARM GAS  C:\Users\brian\AppData\Local\Temp\cczEHs5T.s 			page 9


 223:..\u8g2\csrc/u8x8_d_ssd1305.c ****   }
 224:..\u8g2\csrc/u8x8_d_ssd1305.c ****   return 1;
 225              		.loc 1 224 0
 226 0030 0123     		movs	r3, #1
 227 0032 19E0     		b	.L14
 228              	.L18:
 210:..\u8g2\csrc/u8x8_d_ssd1305.c **** 	u8x8->x_offset = u8x8->display_info->flipmode_x_offset;
 229              		.loc 1 210 0
 230 0034 0E49     		ldr	r1, .L21+4
 231 0036 2846     		mov	r0, r5
 232 0038 FFF7FEFF 		bl	u8x8_cad_SendSequence
 233              	.LVL33:
 211:..\u8g2\csrc/u8x8_d_ssd1305.c ****       }
 234              		.loc 1 211 0
 235 003c 2B68     		ldr	r3, [r5]
 236 003e DB7C     		ldrb	r3, [r3, #19]	@ zero_extendqisi2
 237 0040 85F82230 		strb	r3, [r5, #34]
 238              		.loc 1 224 0
 239 0044 0123     		movs	r3, #1
 240 0046 0FE0     		b	.L14
 241              	.L15:
 215:..\u8g2\csrc/u8x8_d_ssd1305.c ****       u8x8_cad_SendSequence(u8x8, u8x8_d_ssd1305_128x32_noname_init_seq);    
 242              		.loc 1 215 0
 243 0048 2846     		mov	r0, r5
 244 004a FFF7FEFF 		bl	u8x8_d_helper_display_init
 245              	.LVL34:
 216:..\u8g2\csrc/u8x8_d_ssd1305.c ****       break;
 246              		.loc 1 216 0
 247 004e 0949     		ldr	r1, .L21+8
 248 0050 2846     		mov	r0, r5
 249 0052 FFF7FEFF 		bl	u8x8_cad_SendSequence
 250              	.LVL35:
 251              		.loc 1 224 0
 252 0056 0123     		movs	r3, #1
 217:..\u8g2\csrc/u8x8_d_ssd1305.c ****     case U8X8_MSG_DISPLAY_SETUP_MEMORY:
 253              		.loc 1 217 0
 254 0058 06E0     		b	.L14
 255              	.L17:
 219:..\u8g2\csrc/u8x8_d_ssd1305.c ****       break;
 256              		.loc 1 219 0
 257 005a 0749     		ldr	r1, .L21+12
 258 005c 2846     		mov	r0, r5
 259 005e FFF7FEFF 		bl	u8x8_d_helper_display_setup_memory
 260              	.LVL36:
 261              		.loc 1 224 0
 262 0062 0123     		movs	r3, #1
 220:..\u8g2\csrc/u8x8_d_ssd1305.c ****     default:
 263              		.loc 1 220 0
 264 0064 00E0     		b	.L14
 265              	.L19:
 198:..\u8g2\csrc/u8x8_d_ssd1305.c ****   
 266              		.loc 1 198 0
 267 0066 0123     		movs	r3, #1
 268              	.L14:
 225:..\u8g2\csrc/u8x8_d_ssd1305.c **** }
 269              		.loc 1 225 0
 270 0068 1846     		mov	r0, r3
ARM GAS  C:\Users\brian\AppData\Local\Temp\cczEHs5T.s 			page 10


 271 006a 70BD     		pop	{r4, r5, r6, pc}
 272              	.LVL37:
 273              	.L22:
 274              		.align	2
 275              	.L21:
 276 006c 10000000 		.word	.LANCHOR0+16
 277 0070 1C000000 		.word	.LANCHOR0+28
 278 0074 28000000 		.word	.LANCHOR0+40
 279 0078 5C000000 		.word	.LANCHOR0+92
 280              		.cfi_endproc
 281              	.LFE1:
 282              		.size	u8x8_d_ssd1305_128x32_noname, .-u8x8_d_ssd1305_128x32_noname
 283              		.section	.text.u8x8_d_ssd1305_128x32_adafruit,"ax",%progbits
 284              		.align	2
 285              		.global	u8x8_d_ssd1305_128x32_adafruit
 286              		.thumb
 287              		.thumb_func
 288              		.type	u8x8_d_ssd1305_128x32_adafruit, %function
 289              	u8x8_d_ssd1305_128x32_adafruit:
 290              	.LFB2:
 226:..\u8g2\csrc/u8x8_d_ssd1305.c **** 
 227:..\u8g2\csrc/u8x8_d_ssd1305.c **** /*================================================*/
 228:..\u8g2\csrc/u8x8_d_ssd1305.c **** /* adafruit 128x32 SSD1305 OLED, https://www.adafruit.com/product/2675 */
 229:..\u8g2\csrc/u8x8_d_ssd1305.c **** /* issue 724 */
 230:..\u8g2\csrc/u8x8_d_ssd1305.c **** 
 231:..\u8g2\csrc/u8x8_d_ssd1305.c **** /* timing from SSD1306 */
 232:..\u8g2\csrc/u8x8_d_ssd1305.c **** static const u8x8_display_info_t u8x8_ssd1305_128x32_adafruit_display_info =
 233:..\u8g2\csrc/u8x8_d_ssd1305.c **** {
 234:..\u8g2\csrc/u8x8_d_ssd1305.c ****   /* chip_enable_level = */ 0,
 235:..\u8g2\csrc/u8x8_d_ssd1305.c ****   /* chip_disable_level = */ 1,
 236:..\u8g2\csrc/u8x8_d_ssd1305.c ****   
 237:..\u8g2\csrc/u8x8_d_ssd1305.c ****   /* post_chip_enable_wait_ns = */ 20,
 238:..\u8g2\csrc/u8x8_d_ssd1305.c ****   /* pre_chip_disable_wait_ns = */ 10,
 239:..\u8g2\csrc/u8x8_d_ssd1305.c ****   /* reset_pulse_width_ms = */ 100, 	/* SSD1306: 3 us */
 240:..\u8g2\csrc/u8x8_d_ssd1305.c ****   /* post_reset_wait_ms = */ 100, /* far east OLEDs need much longer setup time */
 241:..\u8g2\csrc/u8x8_d_ssd1305.c ****   /* sda_setup_time_ns = */ 50,		/* SSD1306: 15ns, but cycle time is 100ns, so use 100/2 */
 242:..\u8g2\csrc/u8x8_d_ssd1305.c ****   /* sck_pulse_width_ns = */ 50,	/* SSD1306: 20ns, but cycle time is 100ns, so use 100/2, AVR: belo
 243:..\u8g2\csrc/u8x8_d_ssd1305.c ****   /* sck_clock_hz = */ 4000000UL,	/* since Arduino 1.6.0, the SPI bus speed in Hz. Should be  10000
 244:..\u8g2\csrc/u8x8_d_ssd1305.c ****   /* spi_mode = */ 0,		/* active high, rising edge */
 245:..\u8g2\csrc/u8x8_d_ssd1305.c ****   /* i2c_bus_clock_100kHz = */ 4,
 246:..\u8g2\csrc/u8x8_d_ssd1305.c ****   /* data_setup_time_ns = */ 40,
 247:..\u8g2\csrc/u8x8_d_ssd1305.c ****   /* write_pulse_width_ns = */ 150,	/* SSD1306: cycle time is 300ns, so use 300/2 = 150 */
 248:..\u8g2\csrc/u8x8_d_ssd1305.c ****   /* tile_width = */ 16,
 249:..\u8g2\csrc/u8x8_d_ssd1305.c ****   /* tile_hight = */ 4,
 250:..\u8g2\csrc/u8x8_d_ssd1305.c ****   /* default_x_offset = */ 4,
 251:..\u8g2\csrc/u8x8_d_ssd1305.c ****   /* flipmode_x_offset = */ 0,
 252:..\u8g2\csrc/u8x8_d_ssd1305.c ****   /* pixel_width = */ 128,
 253:..\u8g2\csrc/u8x8_d_ssd1305.c ****   /* pixel_height = */ 32
 254:..\u8g2\csrc/u8x8_d_ssd1305.c **** };
 255:..\u8g2\csrc/u8x8_d_ssd1305.c **** 
 256:..\u8g2\csrc/u8x8_d_ssd1305.c **** 
 257:..\u8g2\csrc/u8x8_d_ssd1305.c **** uint8_t u8x8_d_ssd1305_128x32_adafruit(u8x8_t *u8x8, uint8_t msg, uint8_t arg_int, void *arg_ptr)
 258:..\u8g2\csrc/u8x8_d_ssd1305.c **** {
 291              		.loc 1 258 0
 292              		.cfi_startproc
 293              		@ args = 0, pretend = 0, frame = 0
 294              		@ frame_needed = 0, uses_anonymous_args = 0
ARM GAS  C:\Users\brian\AppData\Local\Temp\cczEHs5T.s 			page 11


 295              	.LVL38:
 296 0000 70B5     		push	{r4, r5, r6, lr}
 297              		.cfi_def_cfa_offset 16
 298              		.cfi_offset 4, -16
 299              		.cfi_offset 5, -12
 300              		.cfi_offset 6, -8
 301              		.cfi_offset 14, -4
 302 0002 0546     		mov	r5, r0
 303 0004 0C46     		mov	r4, r1
 304 0006 1646     		mov	r6, r2
 259:..\u8g2\csrc/u8x8_d_ssd1305.c ****     
 260:..\u8g2\csrc/u8x8_d_ssd1305.c ****   if ( u8x8_d_ssd1305_generic(u8x8, msg, arg_int, arg_ptr) != 0 )
 305              		.loc 1 260 0
 306 0008 FFF7FEFF 		bl	u8x8_d_ssd1305_generic
 307              	.LVL39:
 308 000c 58BB     		cbnz	r0, .L29
 309 000e 0346     		mov	r3, r0
 261:..\u8g2\csrc/u8x8_d_ssd1305.c ****     return 1;
 262:..\u8g2\csrc/u8x8_d_ssd1305.c ****   
 263:..\u8g2\csrc/u8x8_d_ssd1305.c ****   switch(msg)
 310              		.loc 1 263 0
 311 0010 0A2C     		cmp	r4, #10
 312 0012 19D0     		beq	.L25
 313 0014 0D2C     		cmp	r4, #13
 314 0016 02D0     		beq	.L26
 315 0018 092C     		cmp	r4, #9
 316 001a 25D1     		bne	.L24
 317 001c 1DE0     		b	.L27
 318              	.L26:
 264:..\u8g2\csrc/u8x8_d_ssd1305.c ****   {
 265:..\u8g2\csrc/u8x8_d_ssd1305.c ****     case U8X8_MSG_DISPLAY_SET_FLIP_MODE:
 266:..\u8g2\csrc/u8x8_d_ssd1305.c ****       if ( arg_int == 0 )
 319              		.loc 1 266 0
 320 001e 4EB9     		cbnz	r6, .L28
 267:..\u8g2\csrc/u8x8_d_ssd1305.c ****       {
 268:..\u8g2\csrc/u8x8_d_ssd1305.c **** 	u8x8_cad_SendSequence(u8x8, u8x8_d_ssd1305_128x32_flip0_seq);
 321              		.loc 1 268 0
 322 0020 1249     		ldr	r1, .L31
 323 0022 2846     		mov	r0, r5
 324 0024 FFF7FEFF 		bl	u8x8_cad_SendSequence
 325              	.LVL40:
 269:..\u8g2\csrc/u8x8_d_ssd1305.c **** 	u8x8->x_offset = u8x8->display_info->default_x_offset;
 326              		.loc 1 269 0
 327 0028 2B68     		ldr	r3, [r5]
 328 002a 9B7C     		ldrb	r3, [r3, #18]	@ zero_extendqisi2
 329 002c 85F82230 		strb	r3, [r5, #34]
 270:..\u8g2\csrc/u8x8_d_ssd1305.c ****       }
 271:..\u8g2\csrc/u8x8_d_ssd1305.c ****       else
 272:..\u8g2\csrc/u8x8_d_ssd1305.c ****       {
 273:..\u8g2\csrc/u8x8_d_ssd1305.c **** 	u8x8_cad_SendSequence(u8x8, u8x8_d_ssd1305_128x32_flip1_seq);
 274:..\u8g2\csrc/u8x8_d_ssd1305.c **** 	u8x8->x_offset = u8x8->display_info->flipmode_x_offset;
 275:..\u8g2\csrc/u8x8_d_ssd1305.c ****       }
 276:..\u8g2\csrc/u8x8_d_ssd1305.c ****       break;
 277:..\u8g2\csrc/u8x8_d_ssd1305.c ****     case U8X8_MSG_DISPLAY_INIT:
 278:..\u8g2\csrc/u8x8_d_ssd1305.c ****       u8x8_d_helper_display_init(u8x8);
 279:..\u8g2\csrc/u8x8_d_ssd1305.c ****       u8x8_cad_SendSequence(u8x8, u8x8_d_ssd1305_128x32_noname_init_seq);    
 280:..\u8g2\csrc/u8x8_d_ssd1305.c ****       break;
ARM GAS  C:\Users\brian\AppData\Local\Temp\cczEHs5T.s 			page 12


 281:..\u8g2\csrc/u8x8_d_ssd1305.c ****     case U8X8_MSG_DISPLAY_SETUP_MEMORY:
 282:..\u8g2\csrc/u8x8_d_ssd1305.c ****       u8x8_d_helper_display_setup_memory(u8x8, &u8x8_ssd1305_128x32_adafruit_display_info);
 283:..\u8g2\csrc/u8x8_d_ssd1305.c ****       break;
 284:..\u8g2\csrc/u8x8_d_ssd1305.c ****     default:
 285:..\u8g2\csrc/u8x8_d_ssd1305.c ****       return 0;
 286:..\u8g2\csrc/u8x8_d_ssd1305.c ****   }
 287:..\u8g2\csrc/u8x8_d_ssd1305.c ****   return 1;
 330              		.loc 1 287 0
 331 0030 0123     		movs	r3, #1
 332 0032 19E0     		b	.L24
 333              	.L28:
 273:..\u8g2\csrc/u8x8_d_ssd1305.c **** 	u8x8->x_offset = u8x8->display_info->flipmode_x_offset;
 334              		.loc 1 273 0
 335 0034 0E49     		ldr	r1, .L31+4
 336 0036 2846     		mov	r0, r5
 337 0038 FFF7FEFF 		bl	u8x8_cad_SendSequence
 338              	.LVL41:
 274:..\u8g2\csrc/u8x8_d_ssd1305.c ****       }
 339              		.loc 1 274 0
 340 003c 2B68     		ldr	r3, [r5]
 341 003e DB7C     		ldrb	r3, [r3, #19]	@ zero_extendqisi2
 342 0040 85F82230 		strb	r3, [r5, #34]
 343              		.loc 1 287 0
 344 0044 0123     		movs	r3, #1
 345 0046 0FE0     		b	.L24
 346              	.L25:
 278:..\u8g2\csrc/u8x8_d_ssd1305.c ****       u8x8_cad_SendSequence(u8x8, u8x8_d_ssd1305_128x32_noname_init_seq);    
 347              		.loc 1 278 0
 348 0048 2846     		mov	r0, r5
 349 004a FFF7FEFF 		bl	u8x8_d_helper_display_init
 350              	.LVL42:
 279:..\u8g2\csrc/u8x8_d_ssd1305.c ****       break;
 351              		.loc 1 279 0
 352 004e 0949     		ldr	r1, .L31+8
 353 0050 2846     		mov	r0, r5
 354 0052 FFF7FEFF 		bl	u8x8_cad_SendSequence
 355              	.LVL43:
 356              		.loc 1 287 0
 357 0056 0123     		movs	r3, #1
 280:..\u8g2\csrc/u8x8_d_ssd1305.c ****     case U8X8_MSG_DISPLAY_SETUP_MEMORY:
 358              		.loc 1 280 0
 359 0058 06E0     		b	.L24
 360              	.L27:
 282:..\u8g2\csrc/u8x8_d_ssd1305.c ****       break;
 361              		.loc 1 282 0
 362 005a 0749     		ldr	r1, .L31+12
 363 005c 2846     		mov	r0, r5
 364 005e FFF7FEFF 		bl	u8x8_d_helper_display_setup_memory
 365              	.LVL44:
 366              		.loc 1 287 0
 367 0062 0123     		movs	r3, #1
 283:..\u8g2\csrc/u8x8_d_ssd1305.c ****     default:
 368              		.loc 1 283 0
 369 0064 00E0     		b	.L24
 370              	.L29:
 261:..\u8g2\csrc/u8x8_d_ssd1305.c ****   
 371              		.loc 1 261 0
ARM GAS  C:\Users\brian\AppData\Local\Temp\cczEHs5T.s 			page 13


 372 0066 0123     		movs	r3, #1
 373              	.L24:
 288:..\u8g2\csrc/u8x8_d_ssd1305.c **** }
 374              		.loc 1 288 0
 375 0068 1846     		mov	r0, r3
 376 006a 70BD     		pop	{r4, r5, r6, pc}
 377              	.LVL45:
 378              	.L32:
 379              		.align	2
 380              	.L31:
 381 006c 10000000 		.word	.LANCHOR0+16
 382 0070 1C000000 		.word	.LANCHOR0+28
 383 0074 28000000 		.word	.LANCHOR0+40
 384 0078 74000000 		.word	.LANCHOR0+116
 385              		.cfi_endproc
 386              	.LFE2:
 387              		.size	u8x8_d_ssd1305_128x32_adafruit, .-u8x8_d_ssd1305_128x32_adafruit
 388              		.section	.text.u8x8_d_ssd1305_128x64_adafruit,"ax",%progbits
 389              		.align	2
 390              		.global	u8x8_d_ssd1305_128x64_adafruit
 391              		.thumb
 392              		.thumb_func
 393              		.type	u8x8_d_ssd1305_128x64_adafruit, %function
 394              	u8x8_d_ssd1305_128x64_adafruit:
 395              	.LFB3:
 289:..\u8g2\csrc/u8x8_d_ssd1305.c **** 
 290:..\u8g2\csrc/u8x8_d_ssd1305.c **** 
 291:..\u8g2\csrc/u8x8_d_ssd1305.c **** 
 292:..\u8g2\csrc/u8x8_d_ssd1305.c **** 
 293:..\u8g2\csrc/u8x8_d_ssd1305.c **** /*================================================*/
 294:..\u8g2\csrc/u8x8_d_ssd1305.c **** /* adafruit SSD1305 OLED */
 295:..\u8g2\csrc/u8x8_d_ssd1305.c **** 
 296:..\u8g2\csrc/u8x8_d_ssd1305.c **** /* timing from SSD1306 */
 297:..\u8g2\csrc/u8x8_d_ssd1305.c **** static const u8x8_display_info_t u8x8_ssd1305_128x64_adafruit_display_info =
 298:..\u8g2\csrc/u8x8_d_ssd1305.c **** {
 299:..\u8g2\csrc/u8x8_d_ssd1305.c ****   /* chip_enable_level = */ 0,
 300:..\u8g2\csrc/u8x8_d_ssd1305.c ****   /* chip_disable_level = */ 1,
 301:..\u8g2\csrc/u8x8_d_ssd1305.c ****   
 302:..\u8g2\csrc/u8x8_d_ssd1305.c ****   /* post_chip_enable_wait_ns = */ 20,
 303:..\u8g2\csrc/u8x8_d_ssd1305.c ****   /* pre_chip_disable_wait_ns = */ 10,
 304:..\u8g2\csrc/u8x8_d_ssd1305.c ****   /* reset_pulse_width_ms = */ 100, 	/* SSD1306: 3 us */
 305:..\u8g2\csrc/u8x8_d_ssd1305.c ****   /* post_reset_wait_ms = */ 100, /* far east OLEDs need much longer setup time */
 306:..\u8g2\csrc/u8x8_d_ssd1305.c ****   /* sda_setup_time_ns = */ 50,		/* SSD1306: 15ns, but cycle time is 100ns, so use 100/2 */
 307:..\u8g2\csrc/u8x8_d_ssd1305.c ****   /* sck_pulse_width_ns = */ 50,	/* SSD1306: 20ns, but cycle time is 100ns, so use 100/2, AVR: belo
 308:..\u8g2\csrc/u8x8_d_ssd1305.c ****   /* sck_clock_hz = */ 4000000UL,	/* since Arduino 1.6.0, the SPI bus speed in Hz. Should be  10000
 309:..\u8g2\csrc/u8x8_d_ssd1305.c ****   /* spi_mode = */ 0,		/* active high, rising edge */
 310:..\u8g2\csrc/u8x8_d_ssd1305.c ****   /* i2c_bus_clock_100kHz = */ 4,
 311:..\u8g2\csrc/u8x8_d_ssd1305.c ****   /* data_setup_time_ns = */ 40,
 312:..\u8g2\csrc/u8x8_d_ssd1305.c ****   /* write_pulse_width_ns = */ 150,	/* SSD1306: cycle time is 300ns, so use 300/2 = 150 */
 313:..\u8g2\csrc/u8x8_d_ssd1305.c ****   /* tile_width = */ 16,
 314:..\u8g2\csrc/u8x8_d_ssd1305.c ****   /* tile_hight = */ 8,
 315:..\u8g2\csrc/u8x8_d_ssd1305.c ****   /* default_x_offset = */ 2,
 316:..\u8g2\csrc/u8x8_d_ssd1305.c ****   /* flipmode_x_offset = */ 2,
 317:..\u8g2\csrc/u8x8_d_ssd1305.c ****   /* pixel_width = */ 128,
 318:..\u8g2\csrc/u8x8_d_ssd1305.c ****   /* pixel_height = */ 64
 319:..\u8g2\csrc/u8x8_d_ssd1305.c **** };
 320:..\u8g2\csrc/u8x8_d_ssd1305.c **** 
ARM GAS  C:\Users\brian\AppData\Local\Temp\cczEHs5T.s 			page 14


 321:..\u8g2\csrc/u8x8_d_ssd1305.c **** 
 322:..\u8g2\csrc/u8x8_d_ssd1305.c **** static const uint8_t u8x8_d_ssd1305_128x64_adafruit_init_seq[] = {
 323:..\u8g2\csrc/u8x8_d_ssd1305.c ****     
 324:..\u8g2\csrc/u8x8_d_ssd1305.c ****   U8X8_START_TRANSFER(),             	/* enable chip, delay is part of the transfer start */
 325:..\u8g2\csrc/u8x8_d_ssd1305.c ****   
 326:..\u8g2\csrc/u8x8_d_ssd1305.c ****   
 327:..\u8g2\csrc/u8x8_d_ssd1305.c ****   U8X8_C(0x0ae),		                /* display off */
 328:..\u8g2\csrc/u8x8_d_ssd1305.c ****   U8X8_CA(0x0d5, 0x0f0),		/* clock divide ratio (0x00=1) and oscillator frequency */
 329:..\u8g2\csrc/u8x8_d_ssd1305.c ****   U8X8_CA(0x0a8, 0x03f),		/* multiplex ratio */
 330:..\u8g2\csrc/u8x8_d_ssd1305.c ****   U8X8_CA(0x0d3, 0x040),		/* display offset to 32 */
 331:..\u8g2\csrc/u8x8_d_ssd1305.c ****   U8X8_C(0x040),		        	/* set display start line to 0 */
 332:..\u8g2\csrc/u8x8_d_ssd1305.c ****   U8X8_CA(0x020, 0x000),		/* horizontal addressing mode */
 333:..\u8g2\csrc/u8x8_d_ssd1305.c ****   
 334:..\u8g2\csrc/u8x8_d_ssd1305.c ****   U8X8_C(0x0a1),				/* segment remap a0/a1*/
 335:..\u8g2\csrc/u8x8_d_ssd1305.c ****   U8X8_C(0x0c8),				/* c0: scan dir normal, c8: reverse */
 336:..\u8g2\csrc/u8x8_d_ssd1305.c ****   // Flipmode
 337:..\u8g2\csrc/u8x8_d_ssd1305.c ****   // U8X8_C(0x0a0),				/* segment remap a0/a1*/
 338:..\u8g2\csrc/u8x8_d_ssd1305.c ****   // U8X8_C(0x0c0),				/* c0: scan dir normal, c8: reverse */
 339:..\u8g2\csrc/u8x8_d_ssd1305.c ****   
 340:..\u8g2\csrc/u8x8_d_ssd1305.c ****   U8X8_CA(0x0da, 0x012),		/* com pin HW config, sequential com pin config (bit 4), disable left/rig
 341:..\u8g2\csrc/u8x8_d_ssd1305.c **** 
 342:..\u8g2\csrc/u8x8_d_ssd1305.c ****   U8X8_CA(0x081, 0x032), 		/* [2] set contrast control */
 343:..\u8g2\csrc/u8x8_d_ssd1305.c ****   U8X8_CA(0x082, 0x080), 		/* set area brightness (reset=0x080) */
 344:..\u8g2\csrc/u8x8_d_ssd1305.c ****   U8X8_CA(0x0d9, 0x0f1), 		/* [2] pre-charge period 0x022/f1*/
 345:..\u8g2\csrc/u8x8_d_ssd1305.c ****   U8X8_CA(0x0db, 0x040), 		/* vcomh deselect level */  
 346:..\u8g2\csrc/u8x8_d_ssd1305.c ****   // if vcomh is 0, then this will give the biggest range for contrast control issue #98
 347:..\u8g2\csrc/u8x8_d_ssd1305.c ****   // restored the old values for the noname constructor, because vcomh=0 will not work for all OLED
 348:..\u8g2\csrc/u8x8_d_ssd1305.c ****   
 349:..\u8g2\csrc/u8x8_d_ssd1305.c ****   U8X8_C(0x02e),				/* Deactivate scroll */ 
 350:..\u8g2\csrc/u8x8_d_ssd1305.c ****   U8X8_C(0x0a4),				/* output ram to display */
 351:..\u8g2\csrc/u8x8_d_ssd1305.c ****   U8X8_C(0x0a6),				/* none inverted normal display mode */
 352:..\u8g2\csrc/u8x8_d_ssd1305.c ****     
 353:..\u8g2\csrc/u8x8_d_ssd1305.c ****   U8X8_END_TRANSFER(),             	/* disable chip */
 354:..\u8g2\csrc/u8x8_d_ssd1305.c ****   U8X8_END()             			/* end of sequence */
 355:..\u8g2\csrc/u8x8_d_ssd1305.c **** };
 356:..\u8g2\csrc/u8x8_d_ssd1305.c **** 
 357:..\u8g2\csrc/u8x8_d_ssd1305.c **** 
 358:..\u8g2\csrc/u8x8_d_ssd1305.c **** uint8_t u8x8_d_ssd1305_128x64_adafruit(u8x8_t *u8x8, uint8_t msg, uint8_t arg_int, void *arg_ptr)
 359:..\u8g2\csrc/u8x8_d_ssd1305.c **** {
 396              		.loc 1 359 0
 397              		.cfi_startproc
 398              		@ args = 0, pretend = 0, frame = 0
 399              		@ frame_needed = 0, uses_anonymous_args = 0
 400              	.LVL46:
 401 0000 70B5     		push	{r4, r5, r6, lr}
 402              		.cfi_def_cfa_offset 16
 403              		.cfi_offset 4, -16
 404              		.cfi_offset 5, -12
 405              		.cfi_offset 6, -8
 406              		.cfi_offset 14, -4
 407 0002 0546     		mov	r5, r0
 408 0004 0C46     		mov	r4, r1
 409 0006 1646     		mov	r6, r2
 360:..\u8g2\csrc/u8x8_d_ssd1305.c ****     
 361:..\u8g2\csrc/u8x8_d_ssd1305.c ****   if ( u8x8_d_ssd1305_generic(u8x8, msg, arg_int, arg_ptr) != 0 )
 410              		.loc 1 361 0
 411 0008 FFF7FEFF 		bl	u8x8_d_ssd1305_generic
ARM GAS  C:\Users\brian\AppData\Local\Temp\cczEHs5T.s 			page 15


 412              	.LVL47:
 413 000c 58BB     		cbnz	r0, .L39
 414 000e 0346     		mov	r3, r0
 362:..\u8g2\csrc/u8x8_d_ssd1305.c ****     return 1;
 363:..\u8g2\csrc/u8x8_d_ssd1305.c ****   
 364:..\u8g2\csrc/u8x8_d_ssd1305.c ****   switch(msg)
 415              		.loc 1 364 0
 416 0010 0A2C     		cmp	r4, #10
 417 0012 19D0     		beq	.L35
 418 0014 0D2C     		cmp	r4, #13
 419 0016 02D0     		beq	.L36
 420 0018 092C     		cmp	r4, #9
 421 001a 25D1     		bne	.L34
 422 001c 1DE0     		b	.L37
 423              	.L36:
 365:..\u8g2\csrc/u8x8_d_ssd1305.c ****   {
 366:..\u8g2\csrc/u8x8_d_ssd1305.c ****     case U8X8_MSG_DISPLAY_SET_FLIP_MODE:
 367:..\u8g2\csrc/u8x8_d_ssd1305.c ****       if ( arg_int == 0 )
 424              		.loc 1 367 0
 425 001e 4EB9     		cbnz	r6, .L38
 368:..\u8g2\csrc/u8x8_d_ssd1305.c ****       {
 369:..\u8g2\csrc/u8x8_d_ssd1305.c **** 	u8x8_cad_SendSequence(u8x8, u8x8_d_ssd1305_128x32_flip0_seq);
 426              		.loc 1 369 0
 427 0020 1249     		ldr	r1, .L41
 428 0022 2846     		mov	r0, r5
 429 0024 FFF7FEFF 		bl	u8x8_cad_SendSequence
 430              	.LVL48:
 370:..\u8g2\csrc/u8x8_d_ssd1305.c **** 	u8x8->x_offset = u8x8->display_info->default_x_offset;
 431              		.loc 1 370 0
 432 0028 2B68     		ldr	r3, [r5]
 433 002a 9B7C     		ldrb	r3, [r3, #18]	@ zero_extendqisi2
 434 002c 85F82230 		strb	r3, [r5, #34]
 371:..\u8g2\csrc/u8x8_d_ssd1305.c ****       }
 372:..\u8g2\csrc/u8x8_d_ssd1305.c ****       else
 373:..\u8g2\csrc/u8x8_d_ssd1305.c ****       {
 374:..\u8g2\csrc/u8x8_d_ssd1305.c **** 	u8x8_cad_SendSequence(u8x8, u8x8_d_ssd1305_128x32_flip1_seq);
 375:..\u8g2\csrc/u8x8_d_ssd1305.c **** 	u8x8->x_offset = u8x8->display_info->flipmode_x_offset;
 376:..\u8g2\csrc/u8x8_d_ssd1305.c ****       }
 377:..\u8g2\csrc/u8x8_d_ssd1305.c ****       break;
 378:..\u8g2\csrc/u8x8_d_ssd1305.c ****     case U8X8_MSG_DISPLAY_INIT:
 379:..\u8g2\csrc/u8x8_d_ssd1305.c ****       u8x8_d_helper_display_init(u8x8);
 380:..\u8g2\csrc/u8x8_d_ssd1305.c ****       u8x8_cad_SendSequence(u8x8, u8x8_d_ssd1305_128x64_adafruit_init_seq);
 381:..\u8g2\csrc/u8x8_d_ssd1305.c ****       break;
 382:..\u8g2\csrc/u8x8_d_ssd1305.c ****     case U8X8_MSG_DISPLAY_SETUP_MEMORY:
 383:..\u8g2\csrc/u8x8_d_ssd1305.c ****       u8x8_d_helper_display_setup_memory(u8x8, &u8x8_ssd1305_128x64_adafruit_display_info);
 384:..\u8g2\csrc/u8x8_d_ssd1305.c ****       break;
 385:..\u8g2\csrc/u8x8_d_ssd1305.c ****     default:
 386:..\u8g2\csrc/u8x8_d_ssd1305.c ****       return 0;
 387:..\u8g2\csrc/u8x8_d_ssd1305.c ****   }
 388:..\u8g2\csrc/u8x8_d_ssd1305.c ****   return 1;
 435              		.loc 1 388 0
 436 0030 0123     		movs	r3, #1
 437 0032 19E0     		b	.L34
 438              	.L38:
 374:..\u8g2\csrc/u8x8_d_ssd1305.c **** 	u8x8->x_offset = u8x8->display_info->flipmode_x_offset;
 439              		.loc 1 374 0
 440 0034 0E49     		ldr	r1, .L41+4
ARM GAS  C:\Users\brian\AppData\Local\Temp\cczEHs5T.s 			page 16


 441 0036 2846     		mov	r0, r5
 442 0038 FFF7FEFF 		bl	u8x8_cad_SendSequence
 443              	.LVL49:
 375:..\u8g2\csrc/u8x8_d_ssd1305.c ****       }
 444              		.loc 1 375 0
 445 003c 2B68     		ldr	r3, [r5]
 446 003e DB7C     		ldrb	r3, [r3, #19]	@ zero_extendqisi2
 447 0040 85F82230 		strb	r3, [r5, #34]
 448              		.loc 1 388 0
 449 0044 0123     		movs	r3, #1
 450 0046 0FE0     		b	.L34
 451              	.L35:
 379:..\u8g2\csrc/u8x8_d_ssd1305.c ****       u8x8_cad_SendSequence(u8x8, u8x8_d_ssd1305_128x64_adafruit_init_seq);
 452              		.loc 1 379 0
 453 0048 2846     		mov	r0, r5
 454 004a FFF7FEFF 		bl	u8x8_d_helper_display_init
 455              	.LVL50:
 380:..\u8g2\csrc/u8x8_d_ssd1305.c ****       break;
 456              		.loc 1 380 0
 457 004e 0949     		ldr	r1, .L41+8
 458 0050 2846     		mov	r0, r5
 459 0052 FFF7FEFF 		bl	u8x8_cad_SendSequence
 460              	.LVL51:
 461              		.loc 1 388 0
 462 0056 0123     		movs	r3, #1
 381:..\u8g2\csrc/u8x8_d_ssd1305.c ****     case U8X8_MSG_DISPLAY_SETUP_MEMORY:
 463              		.loc 1 381 0
 464 0058 06E0     		b	.L34
 465              	.L37:
 383:..\u8g2\csrc/u8x8_d_ssd1305.c ****       break;
 466              		.loc 1 383 0
 467 005a 0749     		ldr	r1, .L41+12
 468 005c 2846     		mov	r0, r5
 469 005e FFF7FEFF 		bl	u8x8_d_helper_display_setup_memory
 470              	.LVL52:
 471              		.loc 1 388 0
 472 0062 0123     		movs	r3, #1
 384:..\u8g2\csrc/u8x8_d_ssd1305.c ****     default:
 473              		.loc 1 384 0
 474 0064 00E0     		b	.L34
 475              	.L39:
 362:..\u8g2\csrc/u8x8_d_ssd1305.c ****   
 476              		.loc 1 362 0
 477 0066 0123     		movs	r3, #1
 478              	.L34:
 389:..\u8g2\csrc/u8x8_d_ssd1305.c **** }
 479              		.loc 1 389 0
 480 0068 1846     		mov	r0, r3
 481 006a 70BD     		pop	{r4, r5, r6, pc}
 482              	.LVL53:
 483              	.L42:
 484              		.align	2
 485              	.L41:
 486 006c 10000000 		.word	.LANCHOR0+16
 487 0070 1C000000 		.word	.LANCHOR0+28
 488 0074 8C000000 		.word	.LANCHOR0+140
 489 0078 C4000000 		.word	.LANCHOR0+196
ARM GAS  C:\Users\brian\AppData\Local\Temp\cczEHs5T.s 			page 17


 490              		.cfi_endproc
 491              	.LFE3:
 492              		.size	u8x8_d_ssd1305_128x64_adafruit, .-u8x8_d_ssd1305_128x64_adafruit
 493              		.section	.text.u8x8_d_ssd1305_128x64_raystar,"ax",%progbits
 494              		.align	2
 495              		.global	u8x8_d_ssd1305_128x64_raystar
 496              		.thumb
 497              		.thumb_func
 498              		.type	u8x8_d_ssd1305_128x64_raystar, %function
 499              	u8x8_d_ssd1305_128x64_raystar:
 500              	.LFB4:
 390:..\u8g2\csrc/u8x8_d_ssd1305.c **** 
 391:..\u8g2\csrc/u8x8_d_ssd1305.c **** 
 392:..\u8g2\csrc/u8x8_d_ssd1305.c **** /*================================================*/
 393:..\u8g2\csrc/u8x8_d_ssd1305.c **** /* Raystar RET012864 OLED, issue https://github.com/olikraus/u8g2/issues/1111 */
 394:..\u8g2\csrc/u8x8_d_ssd1305.c **** 
 395:..\u8g2\csrc/u8x8_d_ssd1305.c **** static const u8x8_display_info_t u8x8_ssd1305_128x64_raystar_display_info =
 396:..\u8g2\csrc/u8x8_d_ssd1305.c **** {
 397:..\u8g2\csrc/u8x8_d_ssd1305.c ****   /* chip_enable_level = */ 0,
 398:..\u8g2\csrc/u8x8_d_ssd1305.c ****   /* chip_disable_level = */ 1,
 399:..\u8g2\csrc/u8x8_d_ssd1305.c ****   
 400:..\u8g2\csrc/u8x8_d_ssd1305.c ****   /* post_chip_enable_wait_ns = */ 20,
 401:..\u8g2\csrc/u8x8_d_ssd1305.c ****   /* pre_chip_disable_wait_ns = */ 10,
 402:..\u8g2\csrc/u8x8_d_ssd1305.c ****   /* reset_pulse_width_ms = */ 100, 	/* SSD1306: 3 us */
 403:..\u8g2\csrc/u8x8_d_ssd1305.c ****   /* post_reset_wait_ms = */ 100, /* far east OLEDs need much longer setup time */
 404:..\u8g2\csrc/u8x8_d_ssd1305.c ****   /* sda_setup_time_ns = */ 50,		/* SSD1306: 15ns, but cycle time is 100ns, so use 100/2 */
 405:..\u8g2\csrc/u8x8_d_ssd1305.c ****   /* sck_pulse_width_ns = */ 50,	/* SSD1306: 20ns, but cycle time is 100ns, so use 100/2, AVR: belo
 406:..\u8g2\csrc/u8x8_d_ssd1305.c ****   /* sck_clock_hz = */ 4000000UL,	/* since Arduino 1.6.0, the SPI bus speed in Hz. Should be  10000
 407:..\u8g2\csrc/u8x8_d_ssd1305.c ****   /* spi_mode = */ 0,		/* active high, rising edge */
 408:..\u8g2\csrc/u8x8_d_ssd1305.c ****   /* i2c_bus_clock_100kHz = */ 4,
 409:..\u8g2\csrc/u8x8_d_ssd1305.c ****   /* data_setup_time_ns = */ 40,
 410:..\u8g2\csrc/u8x8_d_ssd1305.c ****   /* write_pulse_width_ns = */ 150,	/* SSD1306: cycle time is 300ns, so use 300/2 = 150 */
 411:..\u8g2\csrc/u8x8_d_ssd1305.c ****   /* tile_width = */ 16,
 412:..\u8g2\csrc/u8x8_d_ssd1305.c ****   /* tile_hight = */ 8,
 413:..\u8g2\csrc/u8x8_d_ssd1305.c ****   /* default_x_offset = */ 4,
 414:..\u8g2\csrc/u8x8_d_ssd1305.c ****   /* flipmode_x_offset = */ 0,
 415:..\u8g2\csrc/u8x8_d_ssd1305.c ****   /* pixel_width = */ 128,
 416:..\u8g2\csrc/u8x8_d_ssd1305.c ****   /* pixel_height = */ 64
 417:..\u8g2\csrc/u8x8_d_ssd1305.c **** };
 418:..\u8g2\csrc/u8x8_d_ssd1305.c **** 
 419:..\u8g2\csrc/u8x8_d_ssd1305.c **** uint8_t u8x8_d_ssd1305_128x64_raystar(u8x8_t *u8x8, uint8_t msg, uint8_t arg_int, void *arg_ptr)
 420:..\u8g2\csrc/u8x8_d_ssd1305.c **** {
 501              		.loc 1 420 0
 502              		.cfi_startproc
 503              		@ args = 0, pretend = 0, frame = 0
 504              		@ frame_needed = 0, uses_anonymous_args = 0
 505              	.LVL54:
 506 0000 70B5     		push	{r4, r5, r6, lr}
 507              		.cfi_def_cfa_offset 16
 508              		.cfi_offset 4, -16
 509              		.cfi_offset 5, -12
 510              		.cfi_offset 6, -8
 511              		.cfi_offset 14, -4
 512 0002 0546     		mov	r5, r0
 513 0004 0C46     		mov	r4, r1
 514 0006 1646     		mov	r6, r2
 421:..\u8g2\csrc/u8x8_d_ssd1305.c ****     
ARM GAS  C:\Users\brian\AppData\Local\Temp\cczEHs5T.s 			page 18


 422:..\u8g2\csrc/u8x8_d_ssd1305.c ****   if ( u8x8_d_ssd1305_generic(u8x8, msg, arg_int, arg_ptr) != 0 )
 515              		.loc 1 422 0
 516 0008 FFF7FEFF 		bl	u8x8_d_ssd1305_generic
 517              	.LVL55:
 518 000c 58BB     		cbnz	r0, .L49
 519 000e 0346     		mov	r3, r0
 423:..\u8g2\csrc/u8x8_d_ssd1305.c ****     return 1;
 424:..\u8g2\csrc/u8x8_d_ssd1305.c ****   
 425:..\u8g2\csrc/u8x8_d_ssd1305.c ****   switch(msg)
 520              		.loc 1 425 0
 521 0010 0A2C     		cmp	r4, #10
 522 0012 19D0     		beq	.L45
 523 0014 0D2C     		cmp	r4, #13
 524 0016 02D0     		beq	.L46
 525 0018 092C     		cmp	r4, #9
 526 001a 25D1     		bne	.L44
 527 001c 1DE0     		b	.L47
 528              	.L46:
 426:..\u8g2\csrc/u8x8_d_ssd1305.c ****   {
 427:..\u8g2\csrc/u8x8_d_ssd1305.c ****     case U8X8_MSG_DISPLAY_SET_FLIP_MODE:
 428:..\u8g2\csrc/u8x8_d_ssd1305.c ****       if ( arg_int == 0 )
 529              		.loc 1 428 0
 530 001e 4EB9     		cbnz	r6, .L48
 429:..\u8g2\csrc/u8x8_d_ssd1305.c ****       {
 430:..\u8g2\csrc/u8x8_d_ssd1305.c **** 	u8x8_cad_SendSequence(u8x8, u8x8_d_ssd1305_128x32_flip0_seq);
 531              		.loc 1 430 0
 532 0020 1249     		ldr	r1, .L51
 533 0022 2846     		mov	r0, r5
 534 0024 FFF7FEFF 		bl	u8x8_cad_SendSequence
 535              	.LVL56:
 431:..\u8g2\csrc/u8x8_d_ssd1305.c **** 	u8x8->x_offset = u8x8->display_info->default_x_offset;
 536              		.loc 1 431 0
 537 0028 2B68     		ldr	r3, [r5]
 538 002a 9B7C     		ldrb	r3, [r3, #18]	@ zero_extendqisi2
 539 002c 85F82230 		strb	r3, [r5, #34]
 432:..\u8g2\csrc/u8x8_d_ssd1305.c ****       }
 433:..\u8g2\csrc/u8x8_d_ssd1305.c ****       else
 434:..\u8g2\csrc/u8x8_d_ssd1305.c ****       {
 435:..\u8g2\csrc/u8x8_d_ssd1305.c **** 	u8x8_cad_SendSequence(u8x8, u8x8_d_ssd1305_128x32_flip1_seq);
 436:..\u8g2\csrc/u8x8_d_ssd1305.c **** 	u8x8->x_offset = u8x8->display_info->flipmode_x_offset;
 437:..\u8g2\csrc/u8x8_d_ssd1305.c ****       }
 438:..\u8g2\csrc/u8x8_d_ssd1305.c ****       break;
 439:..\u8g2\csrc/u8x8_d_ssd1305.c ****     case U8X8_MSG_DISPLAY_INIT:
 440:..\u8g2\csrc/u8x8_d_ssd1305.c ****       u8x8_d_helper_display_init(u8x8);
 441:..\u8g2\csrc/u8x8_d_ssd1305.c ****       u8x8_cad_SendSequence(u8x8, u8x8_d_ssd1305_128x64_adafruit_init_seq);
 442:..\u8g2\csrc/u8x8_d_ssd1305.c ****       break;
 443:..\u8g2\csrc/u8x8_d_ssd1305.c ****     case U8X8_MSG_DISPLAY_SETUP_MEMORY:
 444:..\u8g2\csrc/u8x8_d_ssd1305.c ****       u8x8_d_helper_display_setup_memory(u8x8, &u8x8_ssd1305_128x64_raystar_display_info);
 445:..\u8g2\csrc/u8x8_d_ssd1305.c ****       break;
 446:..\u8g2\csrc/u8x8_d_ssd1305.c ****     default:
 447:..\u8g2\csrc/u8x8_d_ssd1305.c ****       return 0;
 448:..\u8g2\csrc/u8x8_d_ssd1305.c ****   }
 449:..\u8g2\csrc/u8x8_d_ssd1305.c ****   return 1;
 540              		.loc 1 449 0
 541 0030 0123     		movs	r3, #1
 542 0032 19E0     		b	.L44
 543              	.L48:
ARM GAS  C:\Users\brian\AppData\Local\Temp\cczEHs5T.s 			page 19


 435:..\u8g2\csrc/u8x8_d_ssd1305.c **** 	u8x8->x_offset = u8x8->display_info->flipmode_x_offset;
 544              		.loc 1 435 0
 545 0034 0E49     		ldr	r1, .L51+4
 546 0036 2846     		mov	r0, r5
 547 0038 FFF7FEFF 		bl	u8x8_cad_SendSequence
 548              	.LVL57:
 436:..\u8g2\csrc/u8x8_d_ssd1305.c ****       }
 549              		.loc 1 436 0
 550 003c 2B68     		ldr	r3, [r5]
 551 003e DB7C     		ldrb	r3, [r3, #19]	@ zero_extendqisi2
 552 0040 85F82230 		strb	r3, [r5, #34]
 553              		.loc 1 449 0
 554 0044 0123     		movs	r3, #1
 555 0046 0FE0     		b	.L44
 556              	.L45:
 440:..\u8g2\csrc/u8x8_d_ssd1305.c ****       u8x8_cad_SendSequence(u8x8, u8x8_d_ssd1305_128x64_adafruit_init_seq);
 557              		.loc 1 440 0
 558 0048 2846     		mov	r0, r5
 559 004a FFF7FEFF 		bl	u8x8_d_helper_display_init
 560              	.LVL58:
 441:..\u8g2\csrc/u8x8_d_ssd1305.c ****       break;
 561              		.loc 1 441 0
 562 004e 0949     		ldr	r1, .L51+8
 563 0050 2846     		mov	r0, r5
 564 0052 FFF7FEFF 		bl	u8x8_cad_SendSequence
 565              	.LVL59:
 566              		.loc 1 449 0
 567 0056 0123     		movs	r3, #1
 442:..\u8g2\csrc/u8x8_d_ssd1305.c ****     case U8X8_MSG_DISPLAY_SETUP_MEMORY:
 568              		.loc 1 442 0
 569 0058 06E0     		b	.L44
 570              	.L47:
 444:..\u8g2\csrc/u8x8_d_ssd1305.c ****       break;
 571              		.loc 1 444 0
 572 005a 0749     		ldr	r1, .L51+12
 573 005c 2846     		mov	r0, r5
 574 005e FFF7FEFF 		bl	u8x8_d_helper_display_setup_memory
 575              	.LVL60:
 576              		.loc 1 449 0
 577 0062 0123     		movs	r3, #1
 445:..\u8g2\csrc/u8x8_d_ssd1305.c ****     default:
 578              		.loc 1 445 0
 579 0064 00E0     		b	.L44
 580              	.L49:
 423:..\u8g2\csrc/u8x8_d_ssd1305.c ****   
 581              		.loc 1 423 0
 582 0066 0123     		movs	r3, #1
 583              	.L44:
 450:..\u8g2\csrc/u8x8_d_ssd1305.c **** }
 584              		.loc 1 450 0
 585 0068 1846     		mov	r0, r3
 586 006a 70BD     		pop	{r4, r5, r6, pc}
 587              	.LVL61:
 588              	.L52:
 589              		.align	2
 590              	.L51:
 591 006c 10000000 		.word	.LANCHOR0+16
ARM GAS  C:\Users\brian\AppData\Local\Temp\cczEHs5T.s 			page 20


 592 0070 1C000000 		.word	.LANCHOR0+28
 593 0074 8C000000 		.word	.LANCHOR0+140
 594 0078 DC000000 		.word	.LANCHOR0+220
 595              		.cfi_endproc
 596              	.LFE4:
 597              		.size	u8x8_d_ssd1305_128x64_raystar, .-u8x8_d_ssd1305_128x64_raystar
 598              		.section	.rodata
 599              		.align	2
 600              		.set	.LANCHOR0,. + 0
 601              		.type	u8x8_d_ssd1305_powersave0_seq, %object
 602              		.size	u8x8_d_ssd1305_powersave0_seq, 5
 603              	u8x8_d_ssd1305_powersave0_seq:
 604 0000 18       		.byte	24
 605 0001 15       		.byte	21
 606 0002 AF       		.byte	-81
 607 0003 19       		.byte	25
 608 0004 FF       		.byte	-1
 609 0005 000000   		.space	3
 610              		.type	u8x8_d_ssd1305_powersave1_seq, %object
 611              		.size	u8x8_d_ssd1305_powersave1_seq, 5
 612              	u8x8_d_ssd1305_powersave1_seq:
 613 0008 18       		.byte	24
 614 0009 15       		.byte	21
 615 000a AE       		.byte	-82
 616 000b 19       		.byte	25
 617 000c FF       		.byte	-1
 618 000d 000000   		.space	3
 619              		.type	u8x8_d_ssd1305_128x32_flip0_seq, %object
 620              		.size	u8x8_d_ssd1305_128x32_flip0_seq, 11
 621              	u8x8_d_ssd1305_128x32_flip0_seq:
 622 0010 18       		.byte	24
 623 0011 15       		.byte	21
 624 0012 D3       		.byte	-45
 625 0013 16       		.byte	22
 626 0014 20       		.byte	32
 627 0015 15       		.byte	21
 628 0016 A1       		.byte	-95
 629 0017 15       		.byte	21
 630 0018 C8       		.byte	-56
 631 0019 19       		.byte	25
 632 001a FF       		.byte	-1
 633 001b 00       		.space	1
 634              		.type	u8x8_d_ssd1305_128x32_flip1_seq, %object
 635              		.size	u8x8_d_ssd1305_128x32_flip1_seq, 11
 636              	u8x8_d_ssd1305_128x32_flip1_seq:
 637 001c 18       		.byte	24
 638 001d 15       		.byte	21
 639 001e D3       		.byte	-45
 640 001f 16       		.byte	22
 641 0020 00       		.byte	0
 642 0021 15       		.byte	21
 643 0022 A0       		.byte	-96
 644 0023 15       		.byte	21
 645 0024 C0       		.byte	-64
 646 0025 19       		.byte	25
 647 0026 FF       		.byte	-1
 648 0027 00       		.space	1
ARM GAS  C:\Users\brian\AppData\Local\Temp\cczEHs5T.s 			page 21


 649              		.type	u8x8_d_ssd1305_128x32_noname_init_seq, %object
 650              		.size	u8x8_d_ssd1305_128x32_noname_init_seq, 49
 651              	u8x8_d_ssd1305_128x32_noname_init_seq:
 652 0028 18       		.byte	24
 653 0029 15       		.byte	21
 654 002a AE       		.byte	-82
 655 002b 15       		.byte	21
 656 002c D5       		.byte	-43
 657 002d 16       		.byte	22
 658 002e 80       		.byte	-128
 659 002f 15       		.byte	21
 660 0030 A8       		.byte	-88
 661 0031 16       		.byte	22
 662 0032 3F       		.byte	63
 663 0033 15       		.byte	21
 664 0034 D3       		.byte	-45
 665 0035 16       		.byte	22
 666 0036 20       		.byte	32
 667 0037 15       		.byte	21
 668 0038 40       		.byte	64
 669 0039 15       		.byte	21
 670 003a 20       		.byte	32
 671 003b 16       		.byte	22
 672 003c 00       		.byte	0
 673 003d 15       		.byte	21
 674 003e A1       		.byte	-95
 675 003f 15       		.byte	21
 676 0040 C8       		.byte	-56
 677 0041 15       		.byte	21
 678 0042 DA       		.byte	-38
 679 0043 16       		.byte	22
 680 0044 12       		.byte	18
 681 0045 15       		.byte	21
 682 0046 81       		.byte	-127
 683 0047 16       		.byte	22
 684 0048 CF       		.byte	-49
 685 0049 15       		.byte	21
 686 004a D9       		.byte	-39
 687 004b 16       		.byte	22
 688 004c F1       		.byte	-15
 689 004d 15       		.byte	21
 690 004e DB       		.byte	-37
 691 004f 16       		.byte	22
 692 0050 40       		.byte	64
 693 0051 15       		.byte	21
 694 0052 2E       		.byte	46
 695 0053 15       		.byte	21
 696 0054 A4       		.byte	-92
 697 0055 15       		.byte	21
 698 0056 A6       		.byte	-90
 699 0057 19       		.byte	25
 700 0058 FF       		.byte	-1
 701 0059 000000   		.space	3
 702              		.type	u8x8_ssd1305_128x32_noname_display_info, %object
 703              		.size	u8x8_ssd1305_128x32_noname_display_info, 24
 704              	u8x8_ssd1305_128x32_noname_display_info:
 705 005c 00       		.byte	0
ARM GAS  C:\Users\brian\AppData\Local\Temp\cczEHs5T.s 			page 22


 706 005d 01       		.byte	1
 707 005e 14       		.byte	20
 708 005f 0A       		.byte	10
 709 0060 64       		.byte	100
 710 0061 64       		.byte	100
 711 0062 32       		.byte	50
 712 0063 32       		.byte	50
 713 0064 00093D00 		.word	4000000
 714 0068 00       		.byte	0
 715 0069 04       		.byte	4
 716 006a 28       		.byte	40
 717 006b 96       		.byte	-106
 718 006c 10       		.byte	16
 719 006d 04       		.byte	4
 720 006e 02       		.byte	2
 721 006f 02       		.byte	2
 722 0070 8000     		.short	128
 723 0072 2000     		.short	32
 724              		.type	u8x8_ssd1305_128x32_adafruit_display_info, %object
 725              		.size	u8x8_ssd1305_128x32_adafruit_display_info, 24
 726              	u8x8_ssd1305_128x32_adafruit_display_info:
 727 0074 00       		.byte	0
 728 0075 01       		.byte	1
 729 0076 14       		.byte	20
 730 0077 0A       		.byte	10
 731 0078 64       		.byte	100
 732 0079 64       		.byte	100
 733 007a 32       		.byte	50
 734 007b 32       		.byte	50
 735 007c 00093D00 		.word	4000000
 736 0080 00       		.byte	0
 737 0081 04       		.byte	4
 738 0082 28       		.byte	40
 739 0083 96       		.byte	-106
 740 0084 10       		.byte	16
 741 0085 04       		.byte	4
 742 0086 04       		.byte	4
 743 0087 00       		.byte	0
 744 0088 8000     		.short	128
 745 008a 2000     		.short	32
 746              		.type	u8x8_d_ssd1305_128x64_adafruit_init_seq, %object
 747              		.size	u8x8_d_ssd1305_128x64_adafruit_init_seq, 53
 748              	u8x8_d_ssd1305_128x64_adafruit_init_seq:
 749 008c 18       		.byte	24
 750 008d 15       		.byte	21
 751 008e AE       		.byte	-82
 752 008f 15       		.byte	21
 753 0090 D5       		.byte	-43
 754 0091 16       		.byte	22
 755 0092 F0       		.byte	-16
 756 0093 15       		.byte	21
 757 0094 A8       		.byte	-88
 758 0095 16       		.byte	22
 759 0096 3F       		.byte	63
 760 0097 15       		.byte	21
 761 0098 D3       		.byte	-45
 762 0099 16       		.byte	22
ARM GAS  C:\Users\brian\AppData\Local\Temp\cczEHs5T.s 			page 23


 763 009a 40       		.byte	64
 764 009b 15       		.byte	21
 765 009c 40       		.byte	64
 766 009d 15       		.byte	21
 767 009e 20       		.byte	32
 768 009f 16       		.byte	22
 769 00a0 00       		.byte	0
 770 00a1 15       		.byte	21
 771 00a2 A1       		.byte	-95
 772 00a3 15       		.byte	21
 773 00a4 C8       		.byte	-56
 774 00a5 15       		.byte	21
 775 00a6 DA       		.byte	-38
 776 00a7 16       		.byte	22
 777 00a8 12       		.byte	18
 778 00a9 15       		.byte	21
 779 00aa 81       		.byte	-127
 780 00ab 16       		.byte	22
 781 00ac 32       		.byte	50
 782 00ad 15       		.byte	21
 783 00ae 82       		.byte	-126
 784 00af 16       		.byte	22
 785 00b0 80       		.byte	-128
 786 00b1 15       		.byte	21
 787 00b2 D9       		.byte	-39
 788 00b3 16       		.byte	22
 789 00b4 F1       		.byte	-15
 790 00b5 15       		.byte	21
 791 00b6 DB       		.byte	-37
 792 00b7 16       		.byte	22
 793 00b8 40       		.byte	64
 794 00b9 15       		.byte	21
 795 00ba 2E       		.byte	46
 796 00bb 15       		.byte	21
 797 00bc A4       		.byte	-92
 798 00bd 15       		.byte	21
 799 00be A6       		.byte	-90
 800 00bf 19       		.byte	25
 801 00c0 FF       		.byte	-1
 802 00c1 000000   		.space	3
 803              		.type	u8x8_ssd1305_128x64_adafruit_display_info, %object
 804              		.size	u8x8_ssd1305_128x64_adafruit_display_info, 24
 805              	u8x8_ssd1305_128x64_adafruit_display_info:
 806 00c4 00       		.byte	0
 807 00c5 01       		.byte	1
 808 00c6 14       		.byte	20
 809 00c7 0A       		.byte	10
 810 00c8 64       		.byte	100
 811 00c9 64       		.byte	100
 812 00ca 32       		.byte	50
 813 00cb 32       		.byte	50
 814 00cc 00093D00 		.word	4000000
 815 00d0 00       		.byte	0
 816 00d1 04       		.byte	4
 817 00d2 28       		.byte	40
 818 00d3 96       		.byte	-106
 819 00d4 10       		.byte	16
ARM GAS  C:\Users\brian\AppData\Local\Temp\cczEHs5T.s 			page 24


 820 00d5 08       		.byte	8
 821 00d6 02       		.byte	2
 822 00d7 02       		.byte	2
 823 00d8 8000     		.short	128
 824 00da 4000     		.short	64
 825              		.type	u8x8_ssd1305_128x64_raystar_display_info, %object
 826              		.size	u8x8_ssd1305_128x64_raystar_display_info, 24
 827              	u8x8_ssd1305_128x64_raystar_display_info:
 828 00dc 00       		.byte	0
 829 00dd 01       		.byte	1
 830 00de 14       		.byte	20
 831 00df 0A       		.byte	10
 832 00e0 64       		.byte	100
 833 00e1 64       		.byte	100
 834 00e2 32       		.byte	50
 835 00e3 32       		.byte	50
 836 00e4 00093D00 		.word	4000000
 837 00e8 00       		.byte	0
 838 00e9 04       		.byte	4
 839 00ea 28       		.byte	40
 840 00eb 96       		.byte	-106
 841 00ec 10       		.byte	16
 842 00ed 08       		.byte	8
 843 00ee 04       		.byte	4
 844 00ef 00       		.byte	0
 845 00f0 8000     		.short	128
 846 00f2 4000     		.short	64
 847              		.text
 848              	.Letext0:
 849              		.file 2 "c:\\program files (x86)\\cypress\\psoc creator\\4.4\\psoc creator\\import\\gnu\\arm\\5.4.
 850              		.file 3 "c:\\program files (x86)\\cypress\\psoc creator\\4.4\\psoc creator\\import\\gnu\\arm\\5.4.
 851              		.file 4 "..\\u8g2\\csrc\\u8x8.h"