ARM GAS  C:\Users\brian\AppData\Local\Temp\ccLKQSIc.s 			page 1


   1              		.syntax unified
   2              		.cpu cortex-m3
   3              		.fpu softvfp
   4              		.eabi_attribute 20, 1
   5              		.eabi_attribute 21, 1
   6              		.eabi_attribute 23, 3
   7              		.eabi_attribute 24, 1
   8              		.eabi_attribute 25, 1
   9              		.eabi_attribute 26, 1
  10              		.eabi_attribute 30, 1
  11              		.eabi_attribute 34, 1
  12              		.eabi_attribute 18, 4
  13              		.thumb
  14              		.syntax unified
  15              		.file	"u8x8_d_sed1330.c"
  16              		.text
  17              	.Ltext0:
  18              		.cfi_sections	.debug_frame
  19              		.section	.text.u8x8_d_sed1330_common,"ax",%progbits
  20              		.align	2
  21              		.global	u8x8_d_sed1330_common
  22              		.thumb
  23              		.thumb_func
  24              		.type	u8x8_d_sed1330_common, %function
  25              	u8x8_d_sed1330_common:
  26              	.LFB0:
  27              		.file 1 "..\\u8g2\\csrc\\u8x8_d_sed1330.c"
   1:..\u8g2\csrc/u8x8_d_sed1330.c **** /*
   2:..\u8g2\csrc/u8x8_d_sed1330.c **** 
   3:..\u8g2\csrc/u8x8_d_sed1330.c ****   u8x8_d_sed1330.c
   4:..\u8g2\csrc/u8x8_d_sed1330.c ****   
   5:..\u8g2\csrc/u8x8_d_sed1330.c ****   Universal 8bit Graphics Library (https://github.com/olikraus/u8g2/)
   6:..\u8g2\csrc/u8x8_d_sed1330.c **** 
   7:..\u8g2\csrc/u8x8_d_sed1330.c ****   Copyright (c) 2016, olikraus@gmail.com
   8:..\u8g2\csrc/u8x8_d_sed1330.c ****   All rights reserved.
   9:..\u8g2\csrc/u8x8_d_sed1330.c **** 
  10:..\u8g2\csrc/u8x8_d_sed1330.c ****   Redistribution and use in source and binary forms, with or without modification, 
  11:..\u8g2\csrc/u8x8_d_sed1330.c ****   are permitted provided that the following conditions are met:
  12:..\u8g2\csrc/u8x8_d_sed1330.c **** 
  13:..\u8g2\csrc/u8x8_d_sed1330.c ****   * Redistributions of source code must retain the above copyright notice, this list 
  14:..\u8g2\csrc/u8x8_d_sed1330.c ****     of conditions and the following disclaimer.
  15:..\u8g2\csrc/u8x8_d_sed1330.c ****     
  16:..\u8g2\csrc/u8x8_d_sed1330.c ****   * Redistributions in binary form must reproduce the above copyright notice, this 
  17:..\u8g2\csrc/u8x8_d_sed1330.c ****     list of conditions and the following disclaimer in the documentation and/or other 
  18:..\u8g2\csrc/u8x8_d_sed1330.c ****     materials provided with the distribution.
  19:..\u8g2\csrc/u8x8_d_sed1330.c **** 
  20:..\u8g2\csrc/u8x8_d_sed1330.c ****   THIS SOFTWARE IS PROVIDED BY THE COPYRIGHT HOLDERS AND 
  21:..\u8g2\csrc/u8x8_d_sed1330.c ****   CONTRIBUTORS "AS IS" AND ANY EXPRESS OR IMPLIED WARRANTIES, 
  22:..\u8g2\csrc/u8x8_d_sed1330.c ****   INCLUDING, BUT NOT LIMITED TO, THE IMPLIED WARRANTIES OF 
  23:..\u8g2\csrc/u8x8_d_sed1330.c ****   MERCHANTABILITY AND FITNESS FOR A PARTICULAR PURPOSE ARE 
  24:..\u8g2\csrc/u8x8_d_sed1330.c ****   DISCLAIMED. IN NO EVENT SHALL THE COPYRIGHT HOLDER OR 
  25:..\u8g2\csrc/u8x8_d_sed1330.c ****   CONTRIBUTORS BE LIABLE FOR ANY DIRECT, INDIRECT, INCIDENTAL, 
  26:..\u8g2\csrc/u8x8_d_sed1330.c ****   SPECIAL, EXEMPLARY, OR CONSEQUENTIAL DAMAGES (INCLUDING, BUT 
  27:..\u8g2\csrc/u8x8_d_sed1330.c ****   NOT LIMITED TO, PROCUREMENT OF SUBSTITUTE GOODS OR SERVICES; 
  28:..\u8g2\csrc/u8x8_d_sed1330.c ****   LOSS OF USE, DATA, OR PROFITS; OR BUSINESS INTERRUPTION) HOWEVER 
  29:..\u8g2\csrc/u8x8_d_sed1330.c ****   CAUSED AND ON ANY THEORY OF LIABILITY, WHETHER IN CONTRACT, 
  30:..\u8g2\csrc/u8x8_d_sed1330.c ****   STRICT LIABILITY, OR TORT (INCLUDING NEGLIGENCE OR OTHERWISE) 
ARM GAS  C:\Users\brian\AppData\Local\Temp\ccLKQSIc.s 			page 2


  31:..\u8g2\csrc/u8x8_d_sed1330.c ****   ARISING IN ANY WAY OUT OF THE USE OF THIS SOFTWARE, EVEN IF 
  32:..\u8g2\csrc/u8x8_d_sed1330.c ****   ADVISED OF THE POSSIBILITY OF SUCH DAMAGE.  
  33:..\u8g2\csrc/u8x8_d_sed1330.c **** 
  34:..\u8g2\csrc/u8x8_d_sed1330.c **** 
  35:..\u8g2\csrc/u8x8_d_sed1330.c ****   The device might also work with the RA8835, SED1335 and SED1336 controller.
  36:..\u8g2\csrc/u8x8_d_sed1330.c ****   The following devices might be compatible:
  37:..\u8g2\csrc/u8x8_d_sed1330.c ****     RA8835
  38:..\u8g2\csrc/u8x8_d_sed1330.c ****     SED1330
  39:..\u8g2\csrc/u8x8_d_sed1330.c ****     SED1335
  40:..\u8g2\csrc/u8x8_d_sed1330.c ****     S1D13700
  41:..\u8g2\csrc/u8x8_d_sed1330.c **** 
  42:..\u8g2\csrc/u8x8_d_sed1330.c **** 
  43:..\u8g2\csrc/u8x8_d_sed1330.c **** */
  44:..\u8g2\csrc/u8x8_d_sed1330.c **** #include "u8x8.h"
  45:..\u8g2\csrc/u8x8_d_sed1330.c **** 
  46:..\u8g2\csrc/u8x8_d_sed1330.c **** 
  47:..\u8g2\csrc/u8x8_d_sed1330.c **** 
  48:..\u8g2\csrc/u8x8_d_sed1330.c **** static const uint8_t u8x8_d_sed1330_powersave0_seq[] = {
  49:..\u8g2\csrc/u8x8_d_sed1330.c ****   U8X8_START_TRANSFER(),             	/* enable chip, delay is part of the transfer start */
  50:..\u8g2\csrc/u8x8_d_sed1330.c ****   U8X8_CA(0x040, 0x030),		/* sys init (0x040) with one arg, where 0x030 is a wild guess */
  51:..\u8g2\csrc/u8x8_d_sed1330.c ****   U8X8_CA(0x059, 0x004),               /* send display on command (hex 0x059, see p37 ) */
  52:..\u8g2\csrc/u8x8_d_sed1330.c **** 							/* display cmd has one arg: 01010100 should enable all three blocks, but disable the cursor*
  53:..\u8g2\csrc/u8x8_d_sed1330.c ****   
  54:..\u8g2\csrc/u8x8_d_sed1330.c ****   U8X8_END_TRANSFER(),             	/* disable chip */
  55:..\u8g2\csrc/u8x8_d_sed1330.c ****   U8X8_END()             			/* end of sequence */
  56:..\u8g2\csrc/u8x8_d_sed1330.c **** };
  57:..\u8g2\csrc/u8x8_d_sed1330.c **** 
  58:..\u8g2\csrc/u8x8_d_sed1330.c **** static const uint8_t u8x8_d_sed1330_powersave1_seq[] = {
  59:..\u8g2\csrc/u8x8_d_sed1330.c ****   U8X8_START_TRANSFER(),             	/* enable chip, delay is part of the transfer start */
  60:..\u8g2\csrc/u8x8_d_sed1330.c ****   U8X8_CA(0x058, 0x000),               /* send display off command (hex 0x059, see p37) and turn of
  61:..\u8g2\csrc/u8x8_d_sed1330.c ****   /* maybe send a sleep in cmd */
  62:..\u8g2\csrc/u8x8_d_sed1330.c ****   //U8X8_C(0x053)				/* sleep in: 0x053 */
  63:..\u8g2\csrc/u8x8_d_sed1330.c ****   U8X8_END_TRANSFER(),             	/* disable chip */
  64:..\u8g2\csrc/u8x8_d_sed1330.c ****   U8X8_END()             			/* end of sequence */
  65:..\u8g2\csrc/u8x8_d_sed1330.c **** };
  66:..\u8g2\csrc/u8x8_d_sed1330.c **** 
  67:..\u8g2\csrc/u8x8_d_sed1330.c **** 
  68:..\u8g2\csrc/u8x8_d_sed1330.c **** uint8_t u8x8_d_sed1330_common(u8x8_t *u8x8, uint8_t msg, uint8_t arg_int, void *arg_ptr)
  69:..\u8g2\csrc/u8x8_d_sed1330.c **** {
  28              		.loc 1 69 0
  29              		.cfi_startproc
  30              		@ args = 0, pretend = 0, frame = 0
  31              		@ frame_needed = 0, uses_anonymous_args = 0
  32              	.LVL0:
  33 0000 2DE9F041 		push	{r4, r5, r6, r7, r8, lr}
  34              		.cfi_def_cfa_offset 24
  35              		.cfi_offset 4, -24
  36              		.cfi_offset 5, -20
  37              		.cfi_offset 6, -16
  38              		.cfi_offset 7, -12
  39              		.cfi_offset 8, -8
  40              		.cfi_offset 14, -4
  41 0004 0446     		mov	r4, r0
  70:..\u8g2\csrc/u8x8_d_sed1330.c ****   uint8_t c, i;
  71:..\u8g2\csrc/u8x8_d_sed1330.c ****   uint16_t y;
  72:..\u8g2\csrc/u8x8_d_sed1330.c ****   uint8_t *ptr;
  73:..\u8g2\csrc/u8x8_d_sed1330.c ****   switch(msg)
ARM GAS  C:\Users\brian\AppData\Local\Temp\ccLKQSIc.s 			page 3


  42              		.loc 1 73 0
  43 0006 0B29     		cmp	r1, #11
  44 0008 03D0     		beq	.L3
  45 000a 1D46     		mov	r5, r3
  46 000c 0F29     		cmp	r1, #15
  47 000e 0DD0     		beq	.L4
  48 0010 46E0     		b	.L9
  49              	.L3:
  74:..\u8g2\csrc/u8x8_d_sed1330.c ****   {
  75:..\u8g2\csrc/u8x8_d_sed1330.c ****     /* U8X8_MSG_DISPLAY_SETUP_MEMORY is handled by the calling function */
  76:..\u8g2\csrc/u8x8_d_sed1330.c ****     /*
  77:..\u8g2\csrc/u8x8_d_sed1330.c ****     case U8X8_MSG_DISPLAY_SETUP_MEMORY:
  78:..\u8g2\csrc/u8x8_d_sed1330.c ****       break;
  79:..\u8g2\csrc/u8x8_d_sed1330.c ****     case U8X8_MSG_DISPLAY_INIT:
  80:..\u8g2\csrc/u8x8_d_sed1330.c ****       break;
  81:..\u8g2\csrc/u8x8_d_sed1330.c ****     */
  82:..\u8g2\csrc/u8x8_d_sed1330.c ****     case U8X8_MSG_DISPLAY_SET_POWER_SAVE:
  83:..\u8g2\csrc/u8x8_d_sed1330.c ****       if ( arg_int == 0 )
  50              		.loc 1 83 0
  51 0012 2AB9     		cbnz	r2, .L5
  84:..\u8g2\csrc/u8x8_d_sed1330.c **** 	u8x8_cad_SendSequence(u8x8, u8x8_d_sed1330_powersave0_seq);
  52              		.loc 1 84 0
  53 0014 2449     		ldr	r1, .L11
  54              	.LVL1:
  55 0016 FFF7FEFF 		bl	u8x8_cad_SendSequence
  56              	.LVL2:
  85:..\u8g2\csrc/u8x8_d_sed1330.c ****       else
  86:..\u8g2\csrc/u8x8_d_sed1330.c **** 	u8x8_cad_SendSequence(u8x8, u8x8_d_sed1330_powersave1_seq);
  87:..\u8g2\csrc/u8x8_d_sed1330.c ****       break;
  88:..\u8g2\csrc/u8x8_d_sed1330.c ****     case U8X8_MSG_DISPLAY_DRAW_TILE:
  89:..\u8g2\csrc/u8x8_d_sed1330.c ****       y = (((u8x8_tile_t *)arg_ptr)->y_pos);
  90:..\u8g2\csrc/u8x8_d_sed1330.c ****       y*=8;
  91:..\u8g2\csrc/u8x8_d_sed1330.c ****       y*= u8x8->display_info->tile_width;
  92:..\u8g2\csrc/u8x8_d_sed1330.c ****     
  93:..\u8g2\csrc/u8x8_d_sed1330.c ****       u8x8_cad_StartTransfer(u8x8);
  94:..\u8g2\csrc/u8x8_d_sed1330.c ****     
  95:..\u8g2\csrc/u8x8_d_sed1330.c ****       c = ((u8x8_tile_t *)arg_ptr)->cnt;	/* number of tiles */
  96:..\u8g2\csrc/u8x8_d_sed1330.c ****       ptr = ((u8x8_tile_t *)arg_ptr)->tile_ptr;	/* data ptr to the tiles */
  97:..\u8g2\csrc/u8x8_d_sed1330.c ****       for( i = 0; i < 8; i++ )
  98:..\u8g2\csrc/u8x8_d_sed1330.c ****       {
  99:..\u8g2\csrc/u8x8_d_sed1330.c **** 	u8x8_cad_SendCmd(u8x8, 0x046 );	/* CSRW command*/
 100:..\u8g2\csrc/u8x8_d_sed1330.c **** 	u8x8_cad_SendArg(u8x8, y&255);		/* CSRW low adr byte */
 101:..\u8g2\csrc/u8x8_d_sed1330.c **** 	u8x8_cad_SendArg(u8x8, y>>8);		/* CSRW high adr byte */
 102:..\u8g2\csrc/u8x8_d_sed1330.c **** 	u8x8_cad_SendCmd(u8x8, 0x042 );	/* MWRITE */
 103:..\u8g2\csrc/u8x8_d_sed1330.c **** 	
 104:..\u8g2\csrc/u8x8_d_sed1330.c **** 	u8x8_cad_SendData(u8x8, c, ptr);	/* note: SendData can not handle more than 255 bytes, send one li
 105:..\u8g2\csrc/u8x8_d_sed1330.c **** 	
 106:..\u8g2\csrc/u8x8_d_sed1330.c **** 	ptr += u8x8->display_info->tile_width;
 107:..\u8g2\csrc/u8x8_d_sed1330.c **** 	y += u8x8->display_info->tile_width;
 108:..\u8g2\csrc/u8x8_d_sed1330.c ****       }
 109:..\u8g2\csrc/u8x8_d_sed1330.c **** 
 110:..\u8g2\csrc/u8x8_d_sed1330.c ****       /* sometimes the display switches off... so just sent a display on command */
 111:..\u8g2\csrc/u8x8_d_sed1330.c ****       u8x8_cad_SendCmd(u8x8, 0x059 );	/* display on */
 112:..\u8g2\csrc/u8x8_d_sed1330.c ****       u8x8_cad_SendArg(u8x8, 0x004);	/* arg for display on */
 113:..\u8g2\csrc/u8x8_d_sed1330.c **** 
 114:..\u8g2\csrc/u8x8_d_sed1330.c ****       u8x8_cad_EndTransfer(u8x8);
 115:..\u8g2\csrc/u8x8_d_sed1330.c ****       //u8x8->gpio_and_delay_cb(u8x8, U8X8_MSG_DELAY_NANO, 200, NULL);	/* extra dely required */
ARM GAS  C:\Users\brian\AppData\Local\Temp\ccLKQSIc.s 			page 4


 116:..\u8g2\csrc/u8x8_d_sed1330.c **** 
 117:..\u8g2\csrc/u8x8_d_sed1330.c ****       break;
 118:..\u8g2\csrc/u8x8_d_sed1330.c ****     default:
 119:..\u8g2\csrc/u8x8_d_sed1330.c ****       return 0;
 120:..\u8g2\csrc/u8x8_d_sed1330.c ****   }
 121:..\u8g2\csrc/u8x8_d_sed1330.c ****   return 1;
  57              		.loc 1 121 0
  58 001a 0120     		movs	r0, #1
  59 001c BDE8F081 		pop	{r4, r5, r6, r7, r8, pc}
  60              	.LVL3:
  61              	.L5:
  86:..\u8g2\csrc/u8x8_d_sed1330.c ****       break;
  62              		.loc 1 86 0
  63 0020 2249     		ldr	r1, .L11+4
  64              	.LVL4:
  65 0022 FFF7FEFF 		bl	u8x8_cad_SendSequence
  66              	.LVL5:
  67              		.loc 1 121 0
  68 0026 0120     		movs	r0, #1
  69 0028 BDE8F081 		pop	{r4, r5, r6, r7, r8, pc}
  70              	.LVL6:
  71              	.L4:
  89:..\u8g2\csrc/u8x8_d_sed1330.c ****       y*=8;
  72              		.loc 1 89 0
  73 002c 9E79     		ldrb	r6, [r3, #6]	@ zero_extendqisi2
  74              	.LVL7:
  90:..\u8g2\csrc/u8x8_d_sed1330.c ****       y*= u8x8->display_info->tile_width;
  75              		.loc 1 90 0
  76 002e F600     		lsls	r6, r6, #3
  77              	.LVL8:
  91:..\u8g2\csrc/u8x8_d_sed1330.c ****     
  78              		.loc 1 91 0
  79 0030 0368     		ldr	r3, [r0]
  80              	.LVL9:
  81 0032 1B7C     		ldrb	r3, [r3, #16]	@ zero_extendqisi2
  82 0034 03FB06F3 		mul	r3, r3, r6
  83 0038 9EB2     		uxth	r6, r3
  84              	.LVL10:
  93:..\u8g2\csrc/u8x8_d_sed1330.c ****     
  85              		.loc 1 93 0
  86 003a FFF7FEFF 		bl	u8x8_cad_StartTransfer
  87              	.LVL11:
  95:..\u8g2\csrc/u8x8_d_sed1330.c ****       ptr = ((u8x8_tile_t *)arg_ptr)->tile_ptr;	/* data ptr to the tiles */
  88              		.loc 1 95 0
  89 003e 95F80480 		ldrb	r8, [r5, #4]	@ zero_extendqisi2
  90              	.LVL12:
  96:..\u8g2\csrc/u8x8_d_sed1330.c ****       for( i = 0; i < 8; i++ )
  91              		.loc 1 96 0
  92 0042 2F68     		ldr	r7, [r5]
  93              	.LVL13:
  97:..\u8g2\csrc/u8x8_d_sed1330.c ****       {
  94              		.loc 1 97 0
  95 0044 0025     		movs	r5, #0
  96              	.LVL14:
  97 0046 1BE0     		b	.L6
  98              	.LVL15:
  99              	.L7:
ARM GAS  C:\Users\brian\AppData\Local\Temp\ccLKQSIc.s 			page 5


  99:..\u8g2\csrc/u8x8_d_sed1330.c **** 	u8x8_cad_SendArg(u8x8, y&255);		/* CSRW low adr byte */
 100              		.loc 1 99 0 discriminator 3
 101 0048 4621     		movs	r1, #70
 102 004a 2046     		mov	r0, r4
 103 004c FFF7FEFF 		bl	u8x8_cad_SendCmd
 104              	.LVL16:
 100:..\u8g2\csrc/u8x8_d_sed1330.c **** 	u8x8_cad_SendArg(u8x8, y>>8);		/* CSRW high adr byte */
 105              		.loc 1 100 0 discriminator 3
 106 0050 F1B2     		uxtb	r1, r6
 107 0052 2046     		mov	r0, r4
 108 0054 FFF7FEFF 		bl	u8x8_cad_SendArg
 109              	.LVL17:
 101:..\u8g2\csrc/u8x8_d_sed1330.c **** 	u8x8_cad_SendCmd(u8x8, 0x042 );	/* MWRITE */
 110              		.loc 1 101 0 discriminator 3
 111 0058 310A     		lsrs	r1, r6, #8
 112 005a 2046     		mov	r0, r4
 113 005c FFF7FEFF 		bl	u8x8_cad_SendArg
 114              	.LVL18:
 102:..\u8g2\csrc/u8x8_d_sed1330.c **** 	
 115              		.loc 1 102 0 discriminator 3
 116 0060 4221     		movs	r1, #66
 117 0062 2046     		mov	r0, r4
 118 0064 FFF7FEFF 		bl	u8x8_cad_SendCmd
 119              	.LVL19:
 104:..\u8g2\csrc/u8x8_d_sed1330.c **** 	
 120              		.loc 1 104 0 discriminator 3
 121 0068 3A46     		mov	r2, r7
 122 006a 4146     		mov	r1, r8
 123 006c 2046     		mov	r0, r4
 124 006e FFF7FEFF 		bl	u8x8_cad_SendData
 125              	.LVL20:
 106:..\u8g2\csrc/u8x8_d_sed1330.c **** 	y += u8x8->display_info->tile_width;
 126              		.loc 1 106 0 discriminator 3
 127 0072 2368     		ldr	r3, [r4]
 128 0074 1B7C     		ldrb	r3, [r3, #16]	@ zero_extendqisi2
 129 0076 1F44     		add	r7, r7, r3
 130              	.LVL21:
 107:..\u8g2\csrc/u8x8_d_sed1330.c ****       }
 131              		.loc 1 107 0 discriminator 3
 132 0078 3344     		add	r3, r3, r6
 133 007a 9EB2     		uxth	r6, r3
 134              	.LVL22:
  97:..\u8g2\csrc/u8x8_d_sed1330.c ****       {
 135              		.loc 1 97 0 discriminator 3
 136 007c 0135     		adds	r5, r5, #1
 137              	.LVL23:
 138 007e EDB2     		uxtb	r5, r5
 139              	.LVL24:
 140              	.L6:
  97:..\u8g2\csrc/u8x8_d_sed1330.c ****       {
 141              		.loc 1 97 0 is_stmt 0 discriminator 1
 142 0080 072D     		cmp	r5, #7
 143 0082 E1D9     		bls	.L7
 111:..\u8g2\csrc/u8x8_d_sed1330.c ****       u8x8_cad_SendArg(u8x8, 0x004);	/* arg for display on */
 144              		.loc 1 111 0 is_stmt 1
 145 0084 5921     		movs	r1, #89
 146 0086 2046     		mov	r0, r4
ARM GAS  C:\Users\brian\AppData\Local\Temp\ccLKQSIc.s 			page 6


 147 0088 FFF7FEFF 		bl	u8x8_cad_SendCmd
 148              	.LVL25:
 112:..\u8g2\csrc/u8x8_d_sed1330.c **** 
 149              		.loc 1 112 0
 150 008c 0421     		movs	r1, #4
 151 008e 2046     		mov	r0, r4
 152 0090 FFF7FEFF 		bl	u8x8_cad_SendArg
 153              	.LVL26:
 114:..\u8g2\csrc/u8x8_d_sed1330.c ****       //u8x8->gpio_and_delay_cb(u8x8, U8X8_MSG_DELAY_NANO, 200, NULL);	/* extra dely required */
 154              		.loc 1 114 0
 155 0094 2046     		mov	r0, r4
 156 0096 FFF7FEFF 		bl	u8x8_cad_EndTransfer
 157              	.LVL27:
 158              		.loc 1 121 0
 159 009a 0120     		movs	r0, #1
 117:..\u8g2\csrc/u8x8_d_sed1330.c ****     default:
 160              		.loc 1 117 0
 161 009c BDE8F081 		pop	{r4, r5, r6, r7, r8, pc}
 162              	.LVL28:
 163              	.L9:
 119:..\u8g2\csrc/u8x8_d_sed1330.c ****   }
 164              		.loc 1 119 0
 165 00a0 0020     		movs	r0, #0
 166              	.LVL29:
 122:..\u8g2\csrc/u8x8_d_sed1330.c **** }
 167              		.loc 1 122 0
 168 00a2 BDE8F081 		pop	{r4, r5, r6, r7, r8, pc}
 169              	.LVL30:
 170              	.L12:
 171 00a6 00BF     		.align	2
 172              	.L11:
 173 00a8 00000000 		.word	.LANCHOR0
 174 00ac 0C000000 		.word	.LANCHOR0+12
 175              		.cfi_endproc
 176              	.LFE0:
 177              		.size	u8x8_d_sed1330_common, .-u8x8_d_sed1330_common
 178              		.section	.text.u8x8_d_sed1330_240x128,"ax",%progbits
 179              		.align	2
 180              		.global	u8x8_d_sed1330_240x128
 181              		.thumb
 182              		.thumb_func
 183              		.type	u8x8_d_sed1330_240x128, %function
 184              	u8x8_d_sed1330_240x128:
 185              	.LFB1:
 123:..\u8g2\csrc/u8x8_d_sed1330.c **** 
 124:..\u8g2\csrc/u8x8_d_sed1330.c **** /*=============================================*/
 125:..\u8g2\csrc/u8x8_d_sed1330.c **** 
 126:..\u8g2\csrc/u8x8_d_sed1330.c **** 
 127:..\u8g2\csrc/u8x8_d_sed1330.c **** static const u8x8_display_info_t u8x8_sed1330_240x128_display_info =
 128:..\u8g2\csrc/u8x8_d_sed1330.c **** {
 129:..\u8g2\csrc/u8x8_d_sed1330.c ****   /* chip_enable_level = */ 0,
 130:..\u8g2\csrc/u8x8_d_sed1330.c ****   /* chip_disable_level = */ 1,
 131:..\u8g2\csrc/u8x8_d_sed1330.c ****   
 132:..\u8g2\csrc/u8x8_d_sed1330.c ****   /* post_chip_enable_wait_ns = */ 30,	/* G242CX Datasheet p5 */
 133:..\u8g2\csrc/u8x8_d_sed1330.c ****   /* pre_chip_disable_wait_ns = */ 10,	/* G242CX Datasheet p5 */
 134:..\u8g2\csrc/u8x8_d_sed1330.c ****   /* reset_pulse_width_ms = */ 1, 
 135:..\u8g2\csrc/u8x8_d_sed1330.c ****   /* post_reset_wait_ms = */ 6, 
ARM GAS  C:\Users\brian\AppData\Local\Temp\ccLKQSIc.s 			page 7


 136:..\u8g2\csrc/u8x8_d_sed1330.c ****   /* sda_setup_time_ns = */ 20,		
 137:..\u8g2\csrc/u8x8_d_sed1330.c ****   /* sck_pulse_width_ns = */  140,	
 138:..\u8g2\csrc/u8x8_d_sed1330.c ****   /* sck_clock_hz = */ 1000000UL,	/* since Arduino 1.6.0, the SPI bus speed in Hz. Should be  10000
 139:..\u8g2\csrc/u8x8_d_sed1330.c ****   /* spi_mode = */ 0,		
 140:..\u8g2\csrc/u8x8_d_sed1330.c ****   /* i2c_bus_clock_100kHz = */ 4,
 141:..\u8g2\csrc/u8x8_d_sed1330.c ****   /* data_setup_time_ns = */ 120,		/* G242CX Datasheet p5 */
 142:..\u8g2\csrc/u8x8_d_sed1330.c ****   /* write_pulse_width_ns = */ 220,		/* G242CX Datasheet p5 */
 143:..\u8g2\csrc/u8x8_d_sed1330.c ****   /* tile_width = */ 0x01e,
 144:..\u8g2\csrc/u8x8_d_sed1330.c ****   /* tile_hight = */ 16,
 145:..\u8g2\csrc/u8x8_d_sed1330.c ****   /* default_x_offset = */ 0,
 146:..\u8g2\csrc/u8x8_d_sed1330.c ****   /* flipmode_x_offset = */ 0,
 147:..\u8g2\csrc/u8x8_d_sed1330.c ****   /* pixel_width = */ 240,
 148:..\u8g2\csrc/u8x8_d_sed1330.c ****   /* pixel_height = */ 128
 149:..\u8g2\csrc/u8x8_d_sed1330.c **** };
 150:..\u8g2\csrc/u8x8_d_sed1330.c **** 
 151:..\u8g2\csrc/u8x8_d_sed1330.c **** /* 240x128 Seiko G242C */
 152:..\u8g2\csrc/u8x8_d_sed1330.c **** static const uint8_t u8x8_d_sed1330_240x128_init_seq[] = {
 153:..\u8g2\csrc/u8x8_d_sed1330.c ****   U8X8_DLY(100),
 154:..\u8g2\csrc/u8x8_d_sed1330.c ****   U8X8_START_TRANSFER(),             	/* enable chip, delay is part of the transfer start */
 155:..\u8g2\csrc/u8x8_d_sed1330.c ****   U8X8_DLY(100),
 156:..\u8g2\csrc/u8x8_d_sed1330.c **** 
 157:..\u8g2\csrc/u8x8_d_sed1330.c ****   /* system init command, see also u8x8_d_sed1330_powersave0_seq */
 158:..\u8g2\csrc/u8x8_d_sed1330.c ****   U8X8_CA(0x040, 0x030),		/* sys init (0x040) with one arg, where 0x030 is a wild guess */
 159:..\u8g2\csrc/u8x8_d_sed1330.c ****   /* system init has total 8 parameters, so 7 more are here */
 160:..\u8g2\csrc/u8x8_d_sed1330.c ****   U8X8_A(0x087),				/* no idea here... WF (topmost bit) is set to one because it is suggested in th
 161:..\u8g2\csrc/u8x8_d_sed1330.c ****   U8X8_A(0x007),				/* FY: height of a char+1, does not matter here (hopefully), because we use gra
 162:..\u8g2\csrc/u8x8_d_sed1330.c ****   U8X8_A(0x01d),				/* C/R: this could be the number of horizontal bytes - 1 (Value confirmed with 
 163:..\u8g2\csrc/u8x8_d_sed1330.c ****   U8X8_A(0x050),					/* TC/R: According to app notes fOSC=6Mhz fFF=70Hz --> TC/R = 74d*/
 164:..\u8g2\csrc/u8x8_d_sed1330.c ****   U8X8_A(0x080),				/* L/F: Lines per frame - 1, probably this is the height of the display - 1 (va
 165:..\u8g2\csrc/u8x8_d_sed1330.c ****   U8X8_A(0x01e),				/* Low byte of the virtual screen size. (Value confirmed with app notes p41)   
 166:..\u8g2\csrc/u8x8_d_sed1330.c ****   U8X8_A(0),					/* High byte of the virtual screen size, see also section 9.1.2 */
 167:..\u8g2\csrc/u8x8_d_sed1330.c **** 	
 168:..\u8g2\csrc/u8x8_d_sed1330.c ****   U8X8_C(0x044),				/* SCROLL */
 169:..\u8g2\csrc/u8x8_d_sed1330.c ****   U8X8_A(0x000),				
 170:..\u8g2\csrc/u8x8_d_sed1330.c ****   U8X8_A(0x000),				
 171:..\u8g2\csrc/u8x8_d_sed1330.c ****   U8X8_A(0x080),
 172:..\u8g2\csrc/u8x8_d_sed1330.c ****   U8X8_A(0x000),
 173:..\u8g2\csrc/u8x8_d_sed1330.c ****   U8X8_A(0x040),
 174:..\u8g2\csrc/u8x8_d_sed1330.c ****   U8X8_A(0x080),
 175:..\u8g2\csrc/u8x8_d_sed1330.c ****   U8X8_A(0x000),
 176:..\u8g2\csrc/u8x8_d_sed1330.c ****   U8X8_A(0x000),
 177:..\u8g2\csrc/u8x8_d_sed1330.c ****   U8X8_A(0x000),
 178:..\u8g2\csrc/u8x8_d_sed1330.c ****   U8X8_A(0x000),
 179:..\u8g2\csrc/u8x8_d_sed1330.c **** 	
 180:..\u8g2\csrc/u8x8_d_sed1330.c ****   U8X8_CA(0x05a, 0),			/* HDOT SCR: Horizontal dotwise scroll... set to 0 */
 181:..\u8g2\csrc/u8x8_d_sed1330.c **** 	
 182:..\u8g2\csrc/u8x8_d_sed1330.c ****   U8X8_CA(0x05b, 0x0c),			/* OVLAY: 2-layer, all graphics, OR between layer 1 and 2 */
 183:..\u8g2\csrc/u8x8_d_sed1330.c **** 
 184:..\u8g2\csrc/u8x8_d_sed1330.c **** 
 185:..\u8g2\csrc/u8x8_d_sed1330.c ****   U8X8_DLY(100),
 186:..\u8g2\csrc/u8x8_d_sed1330.c ****   U8X8_END_TRANSFER(),             	/* disable chip */
 187:..\u8g2\csrc/u8x8_d_sed1330.c ****   U8X8_DLY(100),
 188:..\u8g2\csrc/u8x8_d_sed1330.c **** };
 189:..\u8g2\csrc/u8x8_d_sed1330.c **** 
 190:..\u8g2\csrc/u8x8_d_sed1330.c **** /* RA8835 NHD-240128BZ */
 191:..\u8g2\csrc/u8x8_d_sed1330.c **** static const uint8_t u8x8_d_rh8835_nhd_240128_init_seq[] = {
 192:..\u8g2\csrc/u8x8_d_sed1330.c ****   U8X8_DLY(100),
ARM GAS  C:\Users\brian\AppData\Local\Temp\ccLKQSIc.s 			page 8


 193:..\u8g2\csrc/u8x8_d_sed1330.c ****   U8X8_START_TRANSFER(),             	/* enable chip, delay is part of the transfer start */
 194:..\u8g2\csrc/u8x8_d_sed1330.c ****   U8X8_DLY(100),
 195:..\u8g2\csrc/u8x8_d_sed1330.c **** 
 196:..\u8g2\csrc/u8x8_d_sed1330.c ****   /* system init command, see also u8x8_d_sed1330_powersave0_seq */
 197:..\u8g2\csrc/u8x8_d_sed1330.c ****   U8X8_CA(0x040, 0x030),		/* sys init (0x040) with one arg, where 0x030 is a wild guess */
 198:..\u8g2\csrc/u8x8_d_sed1330.c ****   /* system init has total 8 parameters, so 7 more are here */
 199:..\u8g2\csrc/u8x8_d_sed1330.c ****   U8X8_A(0x087),				/* no idea here... WF (topmost bit) is set to one because it is suggested in th
 200:..\u8g2\csrc/u8x8_d_sed1330.c ****   U8X8_A(0x007),				/* FY: height of a char+1, does not matter here (hopefully), because we use gra
 201:..\u8g2\csrc/u8x8_d_sed1330.c ****   U8X8_A(0x01d),				/* C/R: this could be the number of horizontal bytes - 1 (Value confirmed with 
 202:..\u8g2\csrc/u8x8_d_sed1330.c ****   U8X8_A(0x050),					/* TC/R: According to app notes fOSC=6Mhz fFF=70Hz --> TC/R = 74d*/
 203:..\u8g2\csrc/u8x8_d_sed1330.c ****   U8X8_A(0x080),				/* L/F: Lines per frame - 1, probably this is the height of the display - 1 (va
 204:..\u8g2\csrc/u8x8_d_sed1330.c ****   U8X8_A(0x01e),				/* Low byte of the virtual screen size. (Value confirmed with app notes p41)   
 205:..\u8g2\csrc/u8x8_d_sed1330.c ****   U8X8_A(0),					/* High byte of the virtual screen size, see also section 9.1.2 */
 206:..\u8g2\csrc/u8x8_d_sed1330.c **** 
 207:..\u8g2\csrc/u8x8_d_sed1330.c ****   U8X8_C(0x044),				/* SCROLL */
 208:..\u8g2\csrc/u8x8_d_sed1330.c ****   U8X8_A(0x000),				
 209:..\u8g2\csrc/u8x8_d_sed1330.c ****   U8X8_A(0x000),				
 210:..\u8g2\csrc/u8x8_d_sed1330.c ****   U8X8_A(0x080),
 211:..\u8g2\csrc/u8x8_d_sed1330.c ****   U8X8_A(0x000),
 212:..\u8g2\csrc/u8x8_d_sed1330.c ****   U8X8_A(0x040),
 213:..\u8g2\csrc/u8x8_d_sed1330.c ****   U8X8_A(0x080),
 214:..\u8g2\csrc/u8x8_d_sed1330.c ****   U8X8_A(0x000),
 215:..\u8g2\csrc/u8x8_d_sed1330.c ****   U8X8_A(0x000),
 216:..\u8g2\csrc/u8x8_d_sed1330.c ****   U8X8_A(0x000),
 217:..\u8g2\csrc/u8x8_d_sed1330.c ****   U8X8_A(0x000),
 218:..\u8g2\csrc/u8x8_d_sed1330.c **** 	
 219:..\u8g2\csrc/u8x8_d_sed1330.c ****   //U8X8_CA(0x05a, 0),			/* HDOT SCR: Horizontal dotwise scroll... set to 0 */
 220:..\u8g2\csrc/u8x8_d_sed1330.c **** 	
 221:..\u8g2\csrc/u8x8_d_sed1330.c ****   U8X8_CA(0x05b, 0x0c),			/* OVLAY: 2-layer, all graphics, OR between layer 1 and 2 */
 222:..\u8g2\csrc/u8x8_d_sed1330.c **** 
 223:..\u8g2\csrc/u8x8_d_sed1330.c ****   //U8X8_CA(0x059, 0x04),               /* send display on command (hex 0x059, see p37 ) */
 224:..\u8g2\csrc/u8x8_d_sed1330.c ****   
 225:..\u8g2\csrc/u8x8_d_sed1330.c ****   U8X8_DLY(100),
 226:..\u8g2\csrc/u8x8_d_sed1330.c ****   U8X8_END_TRANSFER(),             	/* disable chip */
 227:..\u8g2\csrc/u8x8_d_sed1330.c ****   U8X8_DLY(100),
 228:..\u8g2\csrc/u8x8_d_sed1330.c ****   
 229:..\u8g2\csrc/u8x8_d_sed1330.c **** };
 230:..\u8g2\csrc/u8x8_d_sed1330.c **** 
 231:..\u8g2\csrc/u8x8_d_sed1330.c **** 
 232:..\u8g2\csrc/u8x8_d_sed1330.c **** uint8_t u8x8_d_sed1330_240x128(u8x8_t *u8x8, uint8_t msg, uint8_t arg_int, void *arg_ptr)
 233:..\u8g2\csrc/u8x8_d_sed1330.c **** {
 186              		.loc 1 233 0
 187              		.cfi_startproc
 188              		@ args = 0, pretend = 0, frame = 0
 189              		@ frame_needed = 0, uses_anonymous_args = 0
 190              	.LVL31:
 191 0000 10B5     		push	{r4, lr}
 192              		.cfi_def_cfa_offset 8
 193              		.cfi_offset 4, -8
 194              		.cfi_offset 14, -4
 195 0002 0446     		mov	r4, r0
 234:..\u8g2\csrc/u8x8_d_sed1330.c ****   switch(msg)
 196              		.loc 1 234 0
 197 0004 0929     		cmp	r1, #9
 198 0006 02D0     		beq	.L15
 199 0008 0A29     		cmp	r1, #10
 200 000a 05D0     		beq	.L16
ARM GAS  C:\Users\brian\AppData\Local\Temp\ccLKQSIc.s 			page 9


 201 000c 0CE0     		b	.L18
 202              	.L15:
 235:..\u8g2\csrc/u8x8_d_sed1330.c ****   {
 236:..\u8g2\csrc/u8x8_d_sed1330.c ****     case U8X8_MSG_DISPLAY_SETUP_MEMORY:
 237:..\u8g2\csrc/u8x8_d_sed1330.c ****       u8x8_d_helper_display_setup_memory(u8x8, &u8x8_sed1330_240x128_display_info);
 203              		.loc 1 237 0
 204 000e 0849     		ldr	r1, .L20
 205              	.LVL32:
 206 0010 FFF7FEFF 		bl	u8x8_d_helper_display_setup_memory
 207              	.LVL33:
 238:..\u8g2\csrc/u8x8_d_sed1330.c ****       break;
 239:..\u8g2\csrc/u8x8_d_sed1330.c ****     case U8X8_MSG_DISPLAY_INIT:
 240:..\u8g2\csrc/u8x8_d_sed1330.c ****       u8x8_d_helper_display_init(u8x8);
 241:..\u8g2\csrc/u8x8_d_sed1330.c ****       u8x8_cad_SendSequence(u8x8, u8x8_d_sed1330_240x128_init_seq);
 242:..\u8g2\csrc/u8x8_d_sed1330.c ****       break;
 243:..\u8g2\csrc/u8x8_d_sed1330.c ****     default:
 244:..\u8g2\csrc/u8x8_d_sed1330.c ****       return u8x8_d_sed1330_common(u8x8, msg, arg_int, arg_ptr);
 245:..\u8g2\csrc/u8x8_d_sed1330.c ****   }
 246:..\u8g2\csrc/u8x8_d_sed1330.c ****   return 1;
 208              		.loc 1 246 0
 209 0014 0120     		movs	r0, #1
 238:..\u8g2\csrc/u8x8_d_sed1330.c ****       break;
 210              		.loc 1 238 0
 211 0016 10BD     		pop	{r4, pc}
 212              	.LVL34:
 213              	.L16:
 240:..\u8g2\csrc/u8x8_d_sed1330.c ****       u8x8_cad_SendSequence(u8x8, u8x8_d_sed1330_240x128_init_seq);
 214              		.loc 1 240 0
 215 0018 FFF7FEFF 		bl	u8x8_d_helper_display_init
 216              	.LVL35:
 241:..\u8g2\csrc/u8x8_d_sed1330.c ****       break;
 217              		.loc 1 241 0
 218 001c 0549     		ldr	r1, .L20+4
 219 001e 2046     		mov	r0, r4
 220 0020 FFF7FEFF 		bl	u8x8_cad_SendSequence
 221              	.LVL36:
 222              		.loc 1 246 0
 223 0024 0120     		movs	r0, #1
 242:..\u8g2\csrc/u8x8_d_sed1330.c ****     default:
 224              		.loc 1 242 0
 225 0026 10BD     		pop	{r4, pc}
 226              	.LVL37:
 227              	.L18:
 244:..\u8g2\csrc/u8x8_d_sed1330.c ****   }
 228              		.loc 1 244 0
 229 0028 FFF7FEFF 		bl	u8x8_d_sed1330_common
 230              	.LVL38:
 247:..\u8g2\csrc/u8x8_d_sed1330.c **** }
 231              		.loc 1 247 0
 232 002c 10BD     		pop	{r4, pc}
 233              	.LVL39:
 234              	.L21:
 235 002e 00BF     		.align	2
 236              	.L20:
 237 0030 14000000 		.word	.LANCHOR0+20
 238 0034 2C000000 		.word	.LANCHOR0+44
 239              		.cfi_endproc
ARM GAS  C:\Users\brian\AppData\Local\Temp\ccLKQSIc.s 			page 10


 240              	.LFE1:
 241              		.size	u8x8_d_sed1330_240x128, .-u8x8_d_sed1330_240x128
 242              		.section	.text.u8x8_d_ra8835_nhd_240x128,"ax",%progbits
 243              		.align	2
 244              		.global	u8x8_d_ra8835_nhd_240x128
 245              		.thumb
 246              		.thumb_func
 247              		.type	u8x8_d_ra8835_nhd_240x128, %function
 248              	u8x8_d_ra8835_nhd_240x128:
 249              	.LFB2:
 248:..\u8g2\csrc/u8x8_d_sed1330.c **** 
 249:..\u8g2\csrc/u8x8_d_sed1330.c **** 
 250:..\u8g2\csrc/u8x8_d_sed1330.c **** uint8_t u8x8_d_ra8835_nhd_240x128(u8x8_t *u8x8, uint8_t msg, uint8_t arg_int, void *arg_ptr)
 251:..\u8g2\csrc/u8x8_d_sed1330.c **** {
 250              		.loc 1 251 0
 251              		.cfi_startproc
 252              		@ args = 0, pretend = 0, frame = 0
 253              		@ frame_needed = 0, uses_anonymous_args = 0
 254              	.LVL40:
 255 0000 10B5     		push	{r4, lr}
 256              		.cfi_def_cfa_offset 8
 257              		.cfi_offset 4, -8
 258              		.cfi_offset 14, -4
 259 0002 0446     		mov	r4, r0
 252:..\u8g2\csrc/u8x8_d_sed1330.c ****   switch(msg)
 260              		.loc 1 252 0
 261 0004 0929     		cmp	r1, #9
 262 0006 02D0     		beq	.L24
 263 0008 0A29     		cmp	r1, #10
 264 000a 05D0     		beq	.L25
 265 000c 0CE0     		b	.L27
 266              	.L24:
 253:..\u8g2\csrc/u8x8_d_sed1330.c ****   {
 254:..\u8g2\csrc/u8x8_d_sed1330.c ****     case U8X8_MSG_DISPLAY_SETUP_MEMORY:
 255:..\u8g2\csrc/u8x8_d_sed1330.c ****       u8x8_d_helper_display_setup_memory(u8x8, &u8x8_sed1330_240x128_display_info);
 267              		.loc 1 255 0
 268 000e 0849     		ldr	r1, .L29
 269              	.LVL41:
 270 0010 FFF7FEFF 		bl	u8x8_d_helper_display_setup_memory
 271              	.LVL42:
 256:..\u8g2\csrc/u8x8_d_sed1330.c ****       break;
 257:..\u8g2\csrc/u8x8_d_sed1330.c ****     case U8X8_MSG_DISPLAY_INIT:
 258:..\u8g2\csrc/u8x8_d_sed1330.c ****       u8x8_d_helper_display_init(u8x8);
 259:..\u8g2\csrc/u8x8_d_sed1330.c ****       u8x8_cad_SendSequence(u8x8, u8x8_d_rh8835_nhd_240128_init_seq);
 260:..\u8g2\csrc/u8x8_d_sed1330.c ****       break;
 261:..\u8g2\csrc/u8x8_d_sed1330.c ****     default:
 262:..\u8g2\csrc/u8x8_d_sed1330.c ****       return u8x8_d_sed1330_common(u8x8, msg, arg_int, arg_ptr);
 263:..\u8g2\csrc/u8x8_d_sed1330.c ****   }
 264:..\u8g2\csrc/u8x8_d_sed1330.c ****   return 1;
 272              		.loc 1 264 0
 273 0014 0120     		movs	r0, #1
 256:..\u8g2\csrc/u8x8_d_sed1330.c ****       break;
 274              		.loc 1 256 0
 275 0016 10BD     		pop	{r4, pc}
 276              	.LVL43:
 277              	.L25:
 258:..\u8g2\csrc/u8x8_d_sed1330.c ****       u8x8_cad_SendSequence(u8x8, u8x8_d_rh8835_nhd_240128_init_seq);
ARM GAS  C:\Users\brian\AppData\Local\Temp\ccLKQSIc.s 			page 11


 278              		.loc 1 258 0
 279 0018 FFF7FEFF 		bl	u8x8_d_helper_display_init
 280              	.LVL44:
 259:..\u8g2\csrc/u8x8_d_sed1330.c ****       break;
 281              		.loc 1 259 0
 282 001c 0549     		ldr	r1, .L29+4
 283 001e 2046     		mov	r0, r4
 284 0020 FFF7FEFF 		bl	u8x8_cad_SendSequence
 285              	.LVL45:
 286              		.loc 1 264 0
 287 0024 0120     		movs	r0, #1
 260:..\u8g2\csrc/u8x8_d_sed1330.c ****     default:
 288              		.loc 1 260 0
 289 0026 10BD     		pop	{r4, pc}
 290              	.LVL46:
 291              	.L27:
 262:..\u8g2\csrc/u8x8_d_sed1330.c ****   }
 292              		.loc 1 262 0
 293 0028 FFF7FEFF 		bl	u8x8_d_sed1330_common
 294              	.LVL47:
 265:..\u8g2\csrc/u8x8_d_sed1330.c **** }
 295              		.loc 1 265 0
 296 002c 10BD     		pop	{r4, pc}
 297              	.LVL48:
 298              	.L30:
 299 002e 00BF     		.align	2
 300              	.L29:
 301 0030 14000000 		.word	.LANCHOR0+20
 302 0034 68000000 		.word	.LANCHOR0+104
 303              		.cfi_endproc
 304              	.LFE2:
 305              		.size	u8x8_d_ra8835_nhd_240x128, .-u8x8_d_ra8835_nhd_240x128
 306              		.section	.text.u8x8_d_ra8835_320x240,"ax",%progbits
 307              		.align	2
 308              		.global	u8x8_d_ra8835_320x240
 309              		.thumb
 310              		.thumb_func
 311              		.type	u8x8_d_ra8835_320x240, %function
 312              	u8x8_d_ra8835_320x240:
 313              	.LFB3:
 266:..\u8g2\csrc/u8x8_d_sed1330.c **** 
 267:..\u8g2\csrc/u8x8_d_sed1330.c **** 
 268:..\u8g2\csrc/u8x8_d_sed1330.c **** 
 269:..\u8g2\csrc/u8x8_d_sed1330.c **** /*=============================================*/
 270:..\u8g2\csrc/u8x8_d_sed1330.c **** 
 271:..\u8g2\csrc/u8x8_d_sed1330.c **** 
 272:..\u8g2\csrc/u8x8_d_sed1330.c **** static const u8x8_display_info_t u8x8_sed1330_320x240_display_info =
 273:..\u8g2\csrc/u8x8_d_sed1330.c **** {
 274:..\u8g2\csrc/u8x8_d_sed1330.c ****   /* chip_enable_level = */ 0,
 275:..\u8g2\csrc/u8x8_d_sed1330.c ****   /* chip_disable_level = */ 1,
 276:..\u8g2\csrc/u8x8_d_sed1330.c ****   
 277:..\u8g2\csrc/u8x8_d_sed1330.c ****   /* post_chip_enable_wait_ns = */ 30,	/* G242CX Datasheet p5 */
 278:..\u8g2\csrc/u8x8_d_sed1330.c ****   /* pre_chip_disable_wait_ns = */ 10,	/* G242CX Datasheet p5 */
 279:..\u8g2\csrc/u8x8_d_sed1330.c ****   /* reset_pulse_width_ms = */ 1, 
 280:..\u8g2\csrc/u8x8_d_sed1330.c ****   /* post_reset_wait_ms = */ 6, 
 281:..\u8g2\csrc/u8x8_d_sed1330.c ****   /* sda_setup_time_ns = */ 20,		
 282:..\u8g2\csrc/u8x8_d_sed1330.c ****   /* sck_pulse_width_ns = */  140,	
ARM GAS  C:\Users\brian\AppData\Local\Temp\ccLKQSIc.s 			page 12


 283:..\u8g2\csrc/u8x8_d_sed1330.c ****   /* sck_clock_hz = */ 1000000UL,	/* since Arduino 1.6.0, the SPI bus speed in Hz. Should be  10000
 284:..\u8g2\csrc/u8x8_d_sed1330.c ****   /* spi_mode = */ 0,		
 285:..\u8g2\csrc/u8x8_d_sed1330.c ****   /* i2c_bus_clock_100kHz = */ 4,
 286:..\u8g2\csrc/u8x8_d_sed1330.c ****   /* data_setup_time_ns = */ 120,		/* G242CX Datasheet p5 */
 287:..\u8g2\csrc/u8x8_d_sed1330.c ****   /* write_pulse_width_ns = */ 220,		/* G242CX Datasheet p5 */
 288:..\u8g2\csrc/u8x8_d_sed1330.c ****   /* tile_width = */ 40,
 289:..\u8g2\csrc/u8x8_d_sed1330.c ****   /* tile_hight = */ 30,
 290:..\u8g2\csrc/u8x8_d_sed1330.c ****   /* default_x_offset = */ 0,
 291:..\u8g2\csrc/u8x8_d_sed1330.c ****   /* flipmode_x_offset = */ 0,
 292:..\u8g2\csrc/u8x8_d_sed1330.c ****   /* pixel_width = */ 320,
 293:..\u8g2\csrc/u8x8_d_sed1330.c ****   /* pixel_height = */ 240
 294:..\u8g2\csrc/u8x8_d_sed1330.c **** };
 295:..\u8g2\csrc/u8x8_d_sed1330.c **** 
 296:..\u8g2\csrc/u8x8_d_sed1330.c **** static const uint8_t u8x8_d_sed1330_320x240_init_seq[] = {
 297:..\u8g2\csrc/u8x8_d_sed1330.c ****   U8X8_DLY(100),
 298:..\u8g2\csrc/u8x8_d_sed1330.c ****   U8X8_START_TRANSFER(),             	/* enable chip, delay is part of the transfer start */
 299:..\u8g2\csrc/u8x8_d_sed1330.c ****   U8X8_DLY(100),
 300:..\u8g2\csrc/u8x8_d_sed1330.c **** 
 301:..\u8g2\csrc/u8x8_d_sed1330.c ****   /* system init command, see also u8x8_d_sed1330_powersave0_seq */
 302:..\u8g2\csrc/u8x8_d_sed1330.c ****   U8X8_CA(0x040, 0x030),		/* sys init (0x040) with one arg, where 0x030 is a wild guess */
 303:..\u8g2\csrc/u8x8_d_sed1330.c ****   /* system init has total 8 parameters, so 7 more are here */
 304:..\u8g2\csrc/u8x8_d_sed1330.c ****   U8X8_A(0x087),				/* no idea here... WF (topmost bit) is set to one because it is suggested in th
 305:..\u8g2\csrc/u8x8_d_sed1330.c ****   U8X8_A(0x007),				/* FY: height of a char+1, does not matter here (hopefully), because we use gra
 306:..\u8g2\csrc/u8x8_d_sed1330.c ****   U8X8_A(0x027),	/* 40-1 */		/* C/R: this could be the number of horizontal bytes - 1 (Value confir
 307:..\u8g2\csrc/u8x8_d_sed1330.c ****   U8X8_A(0x039),					/* TC/R: According to app notes fOSC=6Mhz fFF=70Hz --> TC/R = 74d*/
 308:..\u8g2\csrc/u8x8_d_sed1330.c ****   U8X8_A(0x0ef),				/* L/F: Lines per frame - 1, probably this is the height of the display - 1 (va
 309:..\u8g2\csrc/u8x8_d_sed1330.c ****   U8X8_A(0x028),				/* Low byte of the virtual screen size. (Value confirmed with app notes p41)   
 310:..\u8g2\csrc/u8x8_d_sed1330.c ****   U8X8_A(0),					/* High byte of the virtual screen size, see also section 9.1.2 */
 311:..\u8g2\csrc/u8x8_d_sed1330.c **** 	
 312:..\u8g2\csrc/u8x8_d_sed1330.c ****   U8X8_C(0x044),				/* SCROLL */
 313:..\u8g2\csrc/u8x8_d_sed1330.c ****   U8X8_A(0x000),				
 314:..\u8g2\csrc/u8x8_d_sed1330.c ****   U8X8_A(0x000),				
 315:..\u8g2\csrc/u8x8_d_sed1330.c ****   U8X8_A(0x0ef),
 316:..\u8g2\csrc/u8x8_d_sed1330.c ****   U8X8_A(0x0b0),
 317:..\u8g2\csrc/u8x8_d_sed1330.c ****   U8X8_A(0x004),
 318:..\u8g2\csrc/u8x8_d_sed1330.c ****   U8X8_A(0x0ef),
 319:..\u8g2\csrc/u8x8_d_sed1330.c ****   U8X8_A(0x000),
 320:..\u8g2\csrc/u8x8_d_sed1330.c ****   U8X8_A(0x000),
 321:..\u8g2\csrc/u8x8_d_sed1330.c ****   U8X8_A(0x000),
 322:..\u8g2\csrc/u8x8_d_sed1330.c ****   U8X8_A(0x000),
 323:..\u8g2\csrc/u8x8_d_sed1330.c **** 	
 324:..\u8g2\csrc/u8x8_d_sed1330.c ****   U8X8_CA(0x05a, 0),			/* HDOT SCR: Horizontal dotwise scroll... set to 0 */
 325:..\u8g2\csrc/u8x8_d_sed1330.c **** 	
 326:..\u8g2\csrc/u8x8_d_sed1330.c ****   U8X8_CA(0x05b, 0x0c),			/* OVLAY: 2-layer, all graphics, OR between layer 1 and 2 */
 327:..\u8g2\csrc/u8x8_d_sed1330.c **** 
 328:..\u8g2\csrc/u8x8_d_sed1330.c **** 
 329:..\u8g2\csrc/u8x8_d_sed1330.c ****   U8X8_DLY(100),
 330:..\u8g2\csrc/u8x8_d_sed1330.c ****   U8X8_END_TRANSFER(),             	/* disable chip */
 331:..\u8g2\csrc/u8x8_d_sed1330.c ****   U8X8_DLY(100),
 332:..\u8g2\csrc/u8x8_d_sed1330.c **** };
 333:..\u8g2\csrc/u8x8_d_sed1330.c **** 
 334:..\u8g2\csrc/u8x8_d_sed1330.c **** 
 335:..\u8g2\csrc/u8x8_d_sed1330.c **** 
 336:..\u8g2\csrc/u8x8_d_sed1330.c **** uint8_t u8x8_d_ra8835_320x240(u8x8_t *u8x8, uint8_t msg, uint8_t arg_int, void *arg_ptr)
 337:..\u8g2\csrc/u8x8_d_sed1330.c **** {
 314              		.loc 1 337 0
 315              		.cfi_startproc
ARM GAS  C:\Users\brian\AppData\Local\Temp\ccLKQSIc.s 			page 13


 316              		@ args = 0, pretend = 0, frame = 0
 317              		@ frame_needed = 0, uses_anonymous_args = 0
 318              	.LVL49:
 319 0000 10B5     		push	{r4, lr}
 320              		.cfi_def_cfa_offset 8
 321              		.cfi_offset 4, -8
 322              		.cfi_offset 14, -4
 323 0002 0446     		mov	r4, r0
 338:..\u8g2\csrc/u8x8_d_sed1330.c ****   switch(msg)
 324              		.loc 1 338 0
 325 0004 0929     		cmp	r1, #9
 326 0006 02D0     		beq	.L33
 327 0008 0A29     		cmp	r1, #10
 328 000a 05D0     		beq	.L34
 329 000c 0CE0     		b	.L36
 330              	.L33:
 339:..\u8g2\csrc/u8x8_d_sed1330.c ****   {
 340:..\u8g2\csrc/u8x8_d_sed1330.c ****     case U8X8_MSG_DISPLAY_SETUP_MEMORY:
 341:..\u8g2\csrc/u8x8_d_sed1330.c ****       u8x8_d_helper_display_setup_memory(u8x8, &u8x8_sed1330_320x240_display_info);
 331              		.loc 1 341 0
 332 000e 0849     		ldr	r1, .L38
 333              	.LVL50:
 334 0010 FFF7FEFF 		bl	u8x8_d_helper_display_setup_memory
 335              	.LVL51:
 342:..\u8g2\csrc/u8x8_d_sed1330.c ****       break;
 343:..\u8g2\csrc/u8x8_d_sed1330.c ****     case U8X8_MSG_DISPLAY_INIT:
 344:..\u8g2\csrc/u8x8_d_sed1330.c ****       u8x8_d_helper_display_init(u8x8);
 345:..\u8g2\csrc/u8x8_d_sed1330.c ****       u8x8_cad_SendSequence(u8x8, u8x8_d_sed1330_320x240_init_seq);
 346:..\u8g2\csrc/u8x8_d_sed1330.c ****       break;
 347:..\u8g2\csrc/u8x8_d_sed1330.c ****     default:
 348:..\u8g2\csrc/u8x8_d_sed1330.c ****       return u8x8_d_sed1330_common(u8x8, msg, arg_int, arg_ptr);
 349:..\u8g2\csrc/u8x8_d_sed1330.c ****   }
 350:..\u8g2\csrc/u8x8_d_sed1330.c ****   return 1;
 336              		.loc 1 350 0
 337 0014 0120     		movs	r0, #1
 342:..\u8g2\csrc/u8x8_d_sed1330.c ****       break;
 338              		.loc 1 342 0
 339 0016 10BD     		pop	{r4, pc}
 340              	.LVL52:
 341              	.L34:
 344:..\u8g2\csrc/u8x8_d_sed1330.c ****       u8x8_cad_SendSequence(u8x8, u8x8_d_sed1330_320x240_init_seq);
 342              		.loc 1 344 0
 343 0018 FFF7FEFF 		bl	u8x8_d_helper_display_init
 344              	.LVL53:
 345:..\u8g2\csrc/u8x8_d_sed1330.c ****       break;
 345              		.loc 1 345 0
 346 001c 0549     		ldr	r1, .L38+4
 347 001e 2046     		mov	r0, r4
 348 0020 FFF7FEFF 		bl	u8x8_cad_SendSequence
 349              	.LVL54:
 350              		.loc 1 350 0
 351 0024 0120     		movs	r0, #1
 346:..\u8g2\csrc/u8x8_d_sed1330.c ****     default:
 352              		.loc 1 346 0
 353 0026 10BD     		pop	{r4, pc}
 354              	.LVL55:
 355              	.L36:
ARM GAS  C:\Users\brian\AppData\Local\Temp\ccLKQSIc.s 			page 14


 348:..\u8g2\csrc/u8x8_d_sed1330.c ****   }
 356              		.loc 1 348 0
 357 0028 FFF7FEFF 		bl	u8x8_d_sed1330_common
 358              	.LVL56:
 351:..\u8g2\csrc/u8x8_d_sed1330.c **** }
 359              		.loc 1 351 0
 360 002c 10BD     		pop	{r4, pc}
 361              	.LVL57:
 362              	.L39:
 363 002e 00BF     		.align	2
 364              	.L38:
 365 0030 A0000000 		.word	.LANCHOR0+160
 366 0034 B8000000 		.word	.LANCHOR0+184
 367              		.cfi_endproc
 368              	.LFE3:
 369              		.size	u8x8_d_ra8835_320x240, .-u8x8_d_ra8835_320x240
 370              		.section	.rodata
 371              		.align	2
 372              		.set	.LANCHOR0,. + 0
 373              		.type	u8x8_d_sed1330_powersave0_seq, %object
 374              		.size	u8x8_d_sed1330_powersave0_seq, 11
 375              	u8x8_d_sed1330_powersave0_seq:
 376 0000 18       		.byte	24
 377 0001 15       		.byte	21
 378 0002 40       		.byte	64
 379 0003 16       		.byte	22
 380 0004 30       		.byte	48
 381 0005 15       		.byte	21
 382 0006 59       		.byte	89
 383 0007 16       		.byte	22
 384 0008 04       		.byte	4
 385 0009 19       		.byte	25
 386 000a FF       		.byte	-1
 387 000b 00       		.space	1
 388              		.type	u8x8_d_sed1330_powersave1_seq, %object
 389              		.size	u8x8_d_sed1330_powersave1_seq, 7
 390              	u8x8_d_sed1330_powersave1_seq:
 391 000c 18       		.byte	24
 392 000d 15       		.byte	21
 393 000e 58       		.byte	88
 394 000f 16       		.byte	22
 395 0010 00       		.byte	0
 396 0011 19       		.byte	25
 397 0012 FF       		.byte	-1
 398 0013 00       		.space	1
 399              		.type	u8x8_sed1330_240x128_display_info, %object
 400              		.size	u8x8_sed1330_240x128_display_info, 24
 401              	u8x8_sed1330_240x128_display_info:
 402 0014 00       		.byte	0
 403 0015 01       		.byte	1
 404 0016 1E       		.byte	30
 405 0017 0A       		.byte	10
 406 0018 01       		.byte	1
 407 0019 06       		.byte	6
 408 001a 14       		.byte	20
 409 001b 8C       		.byte	-116
 410 001c 40420F00 		.word	1000000
ARM GAS  C:\Users\brian\AppData\Local\Temp\ccLKQSIc.s 			page 15


 411 0020 00       		.byte	0
 412 0021 04       		.byte	4
 413 0022 78       		.byte	120
 414 0023 DC       		.byte	-36
 415 0024 1E       		.byte	30
 416 0025 10       		.byte	16
 417 0026 00       		.byte	0
 418 0027 00       		.byte	0
 419 0028 F000     		.short	240
 420 002a 8000     		.short	128
 421              		.type	u8x8_d_sed1330_240x128_init_seq, %object
 422              		.size	u8x8_d_sed1330_240x128_init_seq, 58
 423              	u8x8_d_sed1330_240x128_init_seq:
 424 002c FE       		.byte	-2
 425 002d 64       		.byte	100
 426 002e 18       		.byte	24
 427 002f FE       		.byte	-2
 428 0030 64       		.byte	100
 429 0031 15       		.byte	21
 430 0032 40       		.byte	64
 431 0033 16       		.byte	22
 432 0034 30       		.byte	48
 433 0035 16       		.byte	22
 434 0036 87       		.byte	-121
 435 0037 16       		.byte	22
 436 0038 07       		.byte	7
 437 0039 16       		.byte	22
 438 003a 1D       		.byte	29
 439 003b 16       		.byte	22
 440 003c 50       		.byte	80
 441 003d 16       		.byte	22
 442 003e 80       		.byte	-128
 443 003f 16       		.byte	22
 444 0040 1E       		.byte	30
 445 0041 16       		.byte	22
 446 0042 00       		.byte	0
 447 0043 15       		.byte	21
 448 0044 44       		.byte	68
 449 0045 16       		.byte	22
 450 0046 00       		.byte	0
 451 0047 16       		.byte	22
 452 0048 00       		.byte	0
 453 0049 16       		.byte	22
 454 004a 80       		.byte	-128
 455 004b 16       		.byte	22
 456 004c 00       		.byte	0
 457 004d 16       		.byte	22
 458 004e 40       		.byte	64
 459 004f 16       		.byte	22
 460 0050 80       		.byte	-128
 461 0051 16       		.byte	22
 462 0052 00       		.byte	0
 463 0053 16       		.byte	22
 464 0054 00       		.byte	0
 465 0055 16       		.byte	22
 466 0056 00       		.byte	0
 467 0057 16       		.byte	22
ARM GAS  C:\Users\brian\AppData\Local\Temp\ccLKQSIc.s 			page 16


 468 0058 00       		.byte	0
 469 0059 15       		.byte	21
 470 005a 5A       		.byte	90
 471 005b 16       		.byte	22
 472 005c 00       		.byte	0
 473 005d 15       		.byte	21
 474 005e 5B       		.byte	91
 475 005f 16       		.byte	22
 476 0060 0C       		.byte	12
 477 0061 FE       		.byte	-2
 478 0062 64       		.byte	100
 479 0063 19       		.byte	25
 480 0064 FE       		.byte	-2
 481 0065 64       		.byte	100
 482 0066 0000     		.space	2
 483              		.type	u8x8_d_rh8835_nhd_240128_init_seq, %object
 484              		.size	u8x8_d_rh8835_nhd_240128_init_seq, 54
 485              	u8x8_d_rh8835_nhd_240128_init_seq:
 486 0068 FE       		.byte	-2
 487 0069 64       		.byte	100
 488 006a 18       		.byte	24
 489 006b FE       		.byte	-2
 490 006c 64       		.byte	100
 491 006d 15       		.byte	21
 492 006e 40       		.byte	64
 493 006f 16       		.byte	22
 494 0070 30       		.byte	48
 495 0071 16       		.byte	22
 496 0072 87       		.byte	-121
 497 0073 16       		.byte	22
 498 0074 07       		.byte	7
 499 0075 16       		.byte	22
 500 0076 1D       		.byte	29
 501 0077 16       		.byte	22
 502 0078 50       		.byte	80
 503 0079 16       		.byte	22
 504 007a 80       		.byte	-128
 505 007b 16       		.byte	22
 506 007c 1E       		.byte	30
 507 007d 16       		.byte	22
 508 007e 00       		.byte	0
 509 007f 15       		.byte	21
 510 0080 44       		.byte	68
 511 0081 16       		.byte	22
 512 0082 00       		.byte	0
 513 0083 16       		.byte	22
 514 0084 00       		.byte	0
 515 0085 16       		.byte	22
 516 0086 80       		.byte	-128
 517 0087 16       		.byte	22
 518 0088 00       		.byte	0
 519 0089 16       		.byte	22
 520 008a 40       		.byte	64
 521 008b 16       		.byte	22
 522 008c 80       		.byte	-128
 523 008d 16       		.byte	22
 524 008e 00       		.byte	0
ARM GAS  C:\Users\brian\AppData\Local\Temp\ccLKQSIc.s 			page 17


 525 008f 16       		.byte	22
 526 0090 00       		.byte	0
 527 0091 16       		.byte	22
 528 0092 00       		.byte	0
 529 0093 16       		.byte	22
 530 0094 00       		.byte	0
 531 0095 15       		.byte	21
 532 0096 5B       		.byte	91
 533 0097 16       		.byte	22
 534 0098 0C       		.byte	12
 535 0099 FE       		.byte	-2
 536 009a 64       		.byte	100
 537 009b 19       		.byte	25
 538 009c FE       		.byte	-2
 539 009d 64       		.byte	100
 540 009e 0000     		.space	2
 541              		.type	u8x8_sed1330_320x240_display_info, %object
 542              		.size	u8x8_sed1330_320x240_display_info, 24
 543              	u8x8_sed1330_320x240_display_info:
 544 00a0 00       		.byte	0
 545 00a1 01       		.byte	1
 546 00a2 1E       		.byte	30
 547 00a3 0A       		.byte	10
 548 00a4 01       		.byte	1
 549 00a5 06       		.byte	6
 550 00a6 14       		.byte	20
 551 00a7 8C       		.byte	-116
 552 00a8 40420F00 		.word	1000000
 553 00ac 00       		.byte	0
 554 00ad 04       		.byte	4
 555 00ae 78       		.byte	120
 556 00af DC       		.byte	-36
 557 00b0 28       		.byte	40
 558 00b1 1E       		.byte	30
 559 00b2 00       		.byte	0
 560 00b3 00       		.byte	0
 561 00b4 4001     		.short	320
 562 00b6 F000     		.short	240
 563              		.type	u8x8_d_sed1330_320x240_init_seq, %object
 564              		.size	u8x8_d_sed1330_320x240_init_seq, 58
 565              	u8x8_d_sed1330_320x240_init_seq:
 566 00b8 FE       		.byte	-2
 567 00b9 64       		.byte	100
 568 00ba 18       		.byte	24
 569 00bb FE       		.byte	-2
 570 00bc 64       		.byte	100
 571 00bd 15       		.byte	21
 572 00be 40       		.byte	64
 573 00bf 16       		.byte	22
 574 00c0 30       		.byte	48
 575 00c1 16       		.byte	22
 576 00c2 87       		.byte	-121
 577 00c3 16       		.byte	22
 578 00c4 07       		.byte	7
 579 00c5 16       		.byte	22
 580 00c6 27       		.byte	39
 581 00c7 16       		.byte	22
ARM GAS  C:\Users\brian\AppData\Local\Temp\ccLKQSIc.s 			page 18


 582 00c8 39       		.byte	57
 583 00c9 16       		.byte	22
 584 00ca EF       		.byte	-17
 585 00cb 16       		.byte	22
 586 00cc 28       		.byte	40
 587 00cd 16       		.byte	22
 588 00ce 00       		.byte	0
 589 00cf 15       		.byte	21
 590 00d0 44       		.byte	68
 591 00d1 16       		.byte	22
 592 00d2 00       		.byte	0
 593 00d3 16       		.byte	22
 594 00d4 00       		.byte	0
 595 00d5 16       		.byte	22
 596 00d6 EF       		.byte	-17
 597 00d7 16       		.byte	22
 598 00d8 B0       		.byte	-80
 599 00d9 16       		.byte	22
 600 00da 04       		.byte	4
 601 00db 16       		.byte	22
 602 00dc EF       		.byte	-17
 603 00dd 16       		.byte	22
 604 00de 00       		.byte	0
 605 00df 16       		.byte	22
 606 00e0 00       		.byte	0
 607 00e1 16       		.byte	22
 608 00e2 00       		.byte	0
 609 00e3 16       		.byte	22
 610 00e4 00       		.byte	0
 611 00e5 15       		.byte	21
 612 00e6 5A       		.byte	90
 613 00e7 16       		.byte	22
 614 00e8 00       		.byte	0
 615 00e9 15       		.byte	21
 616 00ea 5B       		.byte	91
 617 00eb 16       		.byte	22
 618 00ec 0C       		.byte	12
 619 00ed FE       		.byte	-2
 620 00ee 64       		.byte	100
 621 00ef 19       		.byte	25
 622 00f0 FE       		.byte	-2
 623 00f1 64       		.byte	100
 624              		.text
 625              	.Letext0:
 626              		.file 2 "c:\\program files (x86)\\cypress\\psoc creator\\4.4\\psoc creator\\import\\gnu\\arm\\5.4.
 627              		.file 3 "c:\\program files (x86)\\cypress\\psoc creator\\4.4\\psoc creator\\import\\gnu\\arm\\5.4.
 628              		.file 4 "..\\u8g2\\csrc\\u8x8.h"