ARM GAS  C:\Users\brian\AppData\Local\Temp\ccgECwTa.s 			page 1


   1              		.syntax unified
   2              		.cpu cortex-m3
   3              		.fpu softvfp
   4              		.eabi_attribute 20, 1
   5              		.eabi_attribute 21, 1
   6              		.eabi_attribute 23, 3
   7              		.eabi_attribute 24, 1
   8              		.eabi_attribute 25, 1
   9              		.eabi_attribute 26, 1
  10              		.eabi_attribute 30, 1
  11              		.eabi_attribute 34, 1
  12              		.eabi_attribute 18, 4
  13              		.thumb
  14              		.syntax unified
  15              		.file	"u8x8_d_ssd1320.c"
  16              		.text
  17              	.Ltext0:
  18              		.cfi_sections	.debug_frame
  19              		.section	.text.u8x8_ssd1320_8to32,"ax",%progbits
  20              		.align	2
  21              		.thumb
  22              		.thumb_func
  23              		.type	u8x8_ssd1320_8to32, %function
  24              	u8x8_ssd1320_8to32:
  25              	.LFB0:
  26              		.file 1 "..\\u8g2\\csrc\\u8x8_d_ssd1320.c"
   1:..\u8g2\csrc/u8x8_d_ssd1320.c **** /*
   2:..\u8g2\csrc/u8x8_d_ssd1320.c **** 
   3:..\u8g2\csrc/u8x8_d_ssd1320.c ****   u8x8_d_ssd1320.c
   4:..\u8g2\csrc/u8x8_d_ssd1320.c ****   
   5:..\u8g2\csrc/u8x8_d_ssd1320.c ****   Universal 8bit Graphics Library (https://github.com/olikraus/u8g2/)
   6:..\u8g2\csrc/u8x8_d_ssd1320.c **** 
   7:..\u8g2\csrc/u8x8_d_ssd1320.c ****   Copyright (c) 2020, olikraus@gmail.com
   8:..\u8g2\csrc/u8x8_d_ssd1320.c ****   All rights reserved.
   9:..\u8g2\csrc/u8x8_d_ssd1320.c **** 
  10:..\u8g2\csrc/u8x8_d_ssd1320.c ****   Redistribution and use in source and binary forms, with or without modification, 
  11:..\u8g2\csrc/u8x8_d_ssd1320.c ****   are permitted provided that the following conditions are met:
  12:..\u8g2\csrc/u8x8_d_ssd1320.c **** 
  13:..\u8g2\csrc/u8x8_d_ssd1320.c ****   * Redistributions of source code must retain the above copyright notice, this list 
  14:..\u8g2\csrc/u8x8_d_ssd1320.c ****     of conditions and the following disclaimer.
  15:..\u8g2\csrc/u8x8_d_ssd1320.c ****     
  16:..\u8g2\csrc/u8x8_d_ssd1320.c ****   * Redistributions in binary form must reproduce the above copyright notice, this 
  17:..\u8g2\csrc/u8x8_d_ssd1320.c ****     list of conditions and the following disclaimer in the documentation and/or other 
  18:..\u8g2\csrc/u8x8_d_ssd1320.c ****     materials provided with the distribution.
  19:..\u8g2\csrc/u8x8_d_ssd1320.c **** 
  20:..\u8g2\csrc/u8x8_d_ssd1320.c ****   THIS SOFTWARE IS PROVIDED BY THE COPYRIGHT HOLDERS AND 
  21:..\u8g2\csrc/u8x8_d_ssd1320.c ****   CONTRIBUTORS "AS IS" AND ANY EXPRESS OR IMPLIED WARRANTIES, 
  22:..\u8g2\csrc/u8x8_d_ssd1320.c ****   INCLUDING, BUT NOT LIMITED TO, THE IMPLIED WARRANTIES OF 
  23:..\u8g2\csrc/u8x8_d_ssd1320.c ****   MERCHANTABILITY AND FITNESS FOR A PARTICULAR PURPOSE ARE 
  24:..\u8g2\csrc/u8x8_d_ssd1320.c ****   DISCLAIMED. IN NO EVENT SHALL THE COPYRIGHT HOLDER OR 
  25:..\u8g2\csrc/u8x8_d_ssd1320.c ****   CONTRIBUTORS BE LIABLE FOR ANY DIRECT, INDIRECT, INCIDENTAL, 
  26:..\u8g2\csrc/u8x8_d_ssd1320.c ****   SPECIAL, EXEMPLARY, OR CONSEQUENTIAL DAMAGES (INCLUDING, BUT 
  27:..\u8g2\csrc/u8x8_d_ssd1320.c ****   NOT LIMITED TO, PROCUREMENT OF SUBSTITUTE GOODS OR SERVICES; 
  28:..\u8g2\csrc/u8x8_d_ssd1320.c ****   LOSS OF USE, DATA, OR PROFITS; OR BUSINESS INTERRUPTION) HOWEVER 
  29:..\u8g2\csrc/u8x8_d_ssd1320.c ****   CAUSED AND ON ANY THEORY OF LIABILITY, WHETHER IN CONTRACT, 
  30:..\u8g2\csrc/u8x8_d_ssd1320.c ****   STRICT LIABILITY, OR TORT (INCLUDING NEGLIGENCE OR OTHERWISE) 
  31:..\u8g2\csrc/u8x8_d_ssd1320.c ****   ARISING IN ANY WAY OUT OF THE USE OF THIS SOFTWARE, EVEN IF 
ARM GAS  C:\Users\brian\AppData\Local\Temp\ccgECwTa.s 			page 2


  32:..\u8g2\csrc/u8x8_d_ssd1320.c ****   ADVISED OF THE POSSIBILITY OF SUCH DAMAGE.  
  33:..\u8g2\csrc/u8x8_d_ssd1320.c **** 
  34:..\u8g2\csrc/u8x8_d_ssd1320.c **** 
  35:..\u8g2\csrc/u8x8_d_ssd1320.c ****   https://github.com/olikraus/u8g2/issues/1351
  36:..\u8g2\csrc/u8x8_d_ssd1320.c ****   SSD1320: 
  37:..\u8g2\csrc/u8x8_d_ssd1320.c ****     160 x 160 dot matrix
  38:..\u8g2\csrc/u8x8_d_ssd1320.c ****     16 gray scale
  39:..\u8g2\csrc/u8x8_d_ssd1320.c ****   
  40:..\u8g2\csrc/u8x8_d_ssd1320.c ****   Adapted from u8x8_d_ssd1322.c with the command set of the SSD1320 controller
  41:..\u8g2\csrc/u8x8_d_ssd1320.c ****   "official" procedure is described here: https://github.com/olikraus/u8g2/wiki/internal
  42:..\u8g2\csrc/u8x8_d_ssd1320.c ****   
  43:..\u8g2\csrc/u8x8_d_ssd1320.c ****   NOTE: U8x8 does NOT work!
  44:..\u8g2\csrc/u8x8_d_ssd1320.c ****   
  45:..\u8g2\csrc/u8x8_d_ssd1320.c **** */
  46:..\u8g2\csrc/u8x8_d_ssd1320.c **** 
  47:..\u8g2\csrc/u8x8_d_ssd1320.c **** #include "u8x8.h"
  48:..\u8g2\csrc/u8x8_d_ssd1320.c **** 
  49:..\u8g2\csrc/u8x8_d_ssd1320.c **** static const uint8_t u8x8_d_ssd1320_cs1_160x132_nhd_powersave0_seq[] = {
  50:..\u8g2\csrc/u8x8_d_ssd1320.c ****   U8X8_START_TRANSFER(),             	/* enable chip, delay is part of the transfer start */
  51:..\u8g2\csrc/u8x8_d_ssd1320.c ****   U8X8_C(0x0af),		                /* ssd1320: display on */
  52:..\u8g2\csrc/u8x8_d_ssd1320.c ****   U8X8_END_TRANSFER(),             	/* disable chip */
  53:..\u8g2\csrc/u8x8_d_ssd1320.c ****   U8X8_END()             			/* end of sequence */
  54:..\u8g2\csrc/u8x8_d_ssd1320.c **** };
  55:..\u8g2\csrc/u8x8_d_ssd1320.c **** 
  56:..\u8g2\csrc/u8x8_d_ssd1320.c **** static const uint8_t u8x8_d_ssd1320_cs1_160x132_nhd_powersave1_seq[] = {
  57:..\u8g2\csrc/u8x8_d_ssd1320.c ****   U8X8_START_TRANSFER(),             	/* enable chip, delay is part of the transfer start */
  58:..\u8g2\csrc/u8x8_d_ssd1320.c ****   U8X8_C(0x0ae),		                /* ssd1320: display off */
  59:..\u8g2\csrc/u8x8_d_ssd1320.c ****   U8X8_END_TRANSFER(),             	/* disable chip */
  60:..\u8g2\csrc/u8x8_d_ssd1320.c ****   U8X8_END()             			/* end of sequence */
  61:..\u8g2\csrc/u8x8_d_ssd1320.c **** };
  62:..\u8g2\csrc/u8x8_d_ssd1320.c **** 
  63:..\u8g2\csrc/u8x8_d_ssd1320.c **** 
  64:..\u8g2\csrc/u8x8_d_ssd1320.c **** /*
  65:..\u8g2\csrc/u8x8_d_ssd1320.c ****   input:32
  66:..\u8g2\csrc/u8x8_d_ssd1320.c ****     one tile (8 Bytes; 1 byte per column)
  67:..\u8g2\csrc/u8x8_d_ssd1320.c ****   output:
  68:..\u8g2\csrc/u8x8_d_ssd1320.c ****     Tile for SSD1320 (32 Bytes)
  69:..\u8g2\csrc/u8x8_d_ssd1320.c **** 
  70:..\u8g2\csrc/u8x8_d_ssd1320.c ****   The origin of the display seems to be in the upper right-hand corner. Therefore
  71:..\u8g2\csrc/u8x8_d_ssd1320.c ****   compared to SSD1322, the order inside each byte is swapped.
  72:..\u8g2\csrc/u8x8_d_ssd1320.c **** */
  73:..\u8g2\csrc/u8x8_d_ssd1320.c **** 
  74:..\u8g2\csrc/u8x8_d_ssd1320.c **** static uint8_t u8x8_ssd1320_to32_dest_buf[32];
  75:..\u8g2\csrc/u8x8_d_ssd1320.c **** 
  76:..\u8g2\csrc/u8x8_d_ssd1320.c **** static uint8_t *u8x8_ssd1320_8to32(U8X8_UNUSED u8x8_t *u8x8, uint8_t *ptr)
  77:..\u8g2\csrc/u8x8_d_ssd1320.c **** {
  27              		.loc 1 77 0
  28              		.cfi_startproc
  29              		@ args = 0, pretend = 0, frame = 0
  30              		@ frame_needed = 0, uses_anonymous_args = 0
  31              		@ link register save eliminated.
  32              	.LVL0:
  33 0000 70B4     		push	{r4, r5, r6}
  34              		.cfi_def_cfa_offset 12
  35              		.cfi_offset 4, -12
  36              		.cfi_offset 5, -8
  37              		.cfi_offset 6, -4
ARM GAS  C:\Users\brian\AppData\Local\Temp\ccgECwTa.s 			page 3


  38              	.LVL1:
  78:..\u8g2\csrc/u8x8_d_ssd1320.c ****   uint8_t v;
  79:..\u8g2\csrc/u8x8_d_ssd1320.c ****   uint8_t a,b;
  80:..\u8g2\csrc/u8x8_d_ssd1320.c ****   uint8_t i, j;
  81:..\u8g2\csrc/u8x8_d_ssd1320.c ****   uint8_t *dest;
  82:..\u8g2\csrc/u8x8_d_ssd1320.c ****   
  83:..\u8g2\csrc/u8x8_d_ssd1320.c ****   for( j = 0; j < 4; j++ )
  39              		.loc 1 83 0
  40 0002 0026     		movs	r6, #0
  41 0004 1BE0     		b	.L2
  42              	.LVL2:
  43              	.L7:
  84:..\u8g2\csrc/u8x8_d_ssd1320.c ****   {
  85:..\u8g2\csrc/u8x8_d_ssd1320.c ****     dest = u8x8_ssd1320_to32_dest_buf;
  86:..\u8g2\csrc/u8x8_d_ssd1320.c ****     dest += j;
  44              		.loc 1 86 0
  45 0006 104D     		ldr	r5, .L10
  46 0008 3544     		add	r5, r5, r6
  47              	.LVL3:
  87:..\u8g2\csrc/u8x8_d_ssd1320.c ****     a =*ptr;
  48              		.loc 1 87 0
  49 000a 0878     		ldrb	r0, [r1]	@ zero_extendqisi2
  50              	.LVL4:
  88:..\u8g2\csrc/u8x8_d_ssd1320.c ****     ptr++;
  89:..\u8g2\csrc/u8x8_d_ssd1320.c ****     b = *ptr;
  51              		.loc 1 89 0
  52 000c 4A78     		ldrb	r2, [r1, #1]	@ zero_extendqisi2
  53              	.LVL5:
  90:..\u8g2\csrc/u8x8_d_ssd1320.c ****     ptr++;
  54              		.loc 1 90 0
  55 000e 0231     		adds	r1, r1, #2
  56              	.LVL6:
  91:..\u8g2\csrc/u8x8_d_ssd1320.c ****     for( i = 0; i < 8; i++ )
  57              		.loc 1 91 0
  58 0010 0023     		movs	r3, #0
  59 0012 10E0     		b	.L3
  60              	.LVL7:
  61              	.L6:
  92:..\u8g2\csrc/u8x8_d_ssd1320.c ****     {
  93:..\u8g2\csrc/u8x8_d_ssd1320.c ****       v = 0;
  94:..\u8g2\csrc/u8x8_d_ssd1320.c ****       if ( a&1 ) v |= 0x0f;
  62              		.loc 1 94 0
  63 0014 10F0010F 		tst	r0, #1
  64 0018 01D1     		bne	.L8
  93:..\u8g2\csrc/u8x8_d_ssd1320.c ****       if ( a&1 ) v |= 0x0f;
  65              		.loc 1 93 0
  66 001a 0024     		movs	r4, #0
  67 001c 00E0     		b	.L4
  68              	.L8:
  69              		.loc 1 94 0
  70 001e 0F24     		movs	r4, #15
  71              	.L4:
  72              	.LVL8:
  95:..\u8g2\csrc/u8x8_d_ssd1320.c ****       if ( b&1 ) v |= 0xf0;
  73              		.loc 1 95 0
  74 0020 12F0010F 		tst	r2, #1
  75 0024 01D0     		beq	.L5
ARM GAS  C:\Users\brian\AppData\Local\Temp\ccgECwTa.s 			page 4


  76              		.loc 1 95 0 is_stmt 0 discriminator 1
  77 0026 44F0F004 		orr	r4, r4, #240
  78              	.LVL9:
  79              	.L5:
  96:..\u8g2\csrc/u8x8_d_ssd1320.c ****       *dest = v;
  80              		.loc 1 96 0 is_stmt 1 discriminator 2
  81 002a 05F8044B 		strb	r4, [r5], #4
  82              	.LVL10:
  97:..\u8g2\csrc/u8x8_d_ssd1320.c ****       dest+=4;
  98:..\u8g2\csrc/u8x8_d_ssd1320.c ****       a >>= 1;
  83              		.loc 1 98 0 discriminator 2
  84 002e 4008     		lsrs	r0, r0, #1
  85              	.LVL11:
  99:..\u8g2\csrc/u8x8_d_ssd1320.c ****       b >>= 1;
  86              		.loc 1 99 0 discriminator 2
  87 0030 5208     		lsrs	r2, r2, #1
  88              	.LVL12:
  91:..\u8g2\csrc/u8x8_d_ssd1320.c ****     {
  89              		.loc 1 91 0 discriminator 2
  90 0032 0133     		adds	r3, r3, #1
  91              	.LVL13:
  92 0034 DBB2     		uxtb	r3, r3
  93              	.LVL14:
  94              	.L3:
  91:..\u8g2\csrc/u8x8_d_ssd1320.c ****     {
  95              		.loc 1 91 0 is_stmt 0 discriminator 1
  96 0036 072B     		cmp	r3, #7
  97 0038 ECD9     		bls	.L6
  83:..\u8g2\csrc/u8x8_d_ssd1320.c ****   {
  98              		.loc 1 83 0 is_stmt 1 discriminator 2
  99 003a 0136     		adds	r6, r6, #1
 100              	.LVL15:
 101 003c F6B2     		uxtb	r6, r6
 102              	.LVL16:
 103              	.L2:
  83:..\u8g2\csrc/u8x8_d_ssd1320.c ****   {
 104              		.loc 1 83 0 is_stmt 0 discriminator 1
 105 003e 032E     		cmp	r6, #3
 106 0040 E1D9     		bls	.L7
 100:..\u8g2\csrc/u8x8_d_ssd1320.c ****     }
 101:..\u8g2\csrc/u8x8_d_ssd1320.c ****   }
 102:..\u8g2\csrc/u8x8_d_ssd1320.c ****   
 103:..\u8g2\csrc/u8x8_d_ssd1320.c ****   return u8x8_ssd1320_to32_dest_buf;
 104:..\u8g2\csrc/u8x8_d_ssd1320.c **** }
 107              		.loc 1 104 0 is_stmt 1
 108 0042 0148     		ldr	r0, .L10
 109 0044 70BC     		pop	{r4, r5, r6}
 110              		.cfi_restore 6
 111              		.cfi_restore 5
 112              		.cfi_restore 4
 113              		.cfi_def_cfa_offset 0
 114              	.LVL17:
 115 0046 7047     		bx	lr
 116              	.L11:
 117              		.align	2
 118              	.L10:
 119 0048 00000000 		.word	.LANCHOR0
ARM GAS  C:\Users\brian\AppData\Local\Temp\ccgECwTa.s 			page 5


 120              		.cfi_endproc
 121              	.LFE0:
 122              		.size	u8x8_ssd1320_8to32, .-u8x8_ssd1320_8to32
 123              		.section	.text.u8x8_d_ssd1320_common,"ax",%progbits
 124              		.align	2
 125              		.global	u8x8_d_ssd1320_common
 126              		.thumb
 127              		.thumb_func
 128              		.type	u8x8_d_ssd1320_common, %function
 129              	u8x8_d_ssd1320_common:
 130              	.LFB1:
 105:..\u8g2\csrc/u8x8_d_ssd1320.c **** 
 106:..\u8g2\csrc/u8x8_d_ssd1320.c **** 
 107:..\u8g2\csrc/u8x8_d_ssd1320.c **** uint8_t u8x8_d_ssd1320_common(u8x8_t *u8x8, uint8_t msg, uint8_t arg_int, void *arg_ptr)
 108:..\u8g2\csrc/u8x8_d_ssd1320.c **** {
 131              		.loc 1 108 0
 132              		.cfi_startproc
 133              		@ args = 0, pretend = 0, frame = 0
 134              		@ frame_needed = 0, uses_anonymous_args = 0
 135              	.LVL18:
 136 0000 2DE9F843 		push	{r3, r4, r5, r6, r7, r8, r9, lr}
 137              		.cfi_def_cfa_offset 32
 138              		.cfi_offset 3, -32
 139              		.cfi_offset 4, -28
 140              		.cfi_offset 5, -24
 141              		.cfi_offset 6, -20
 142              		.cfi_offset 7, -16
 143              		.cfi_offset 8, -12
 144              		.cfi_offset 9, -8
 145              		.cfi_offset 14, -4
 146 0004 0646     		mov	r6, r0
 147 0006 9046     		mov	r8, r2
 109:..\u8g2\csrc/u8x8_d_ssd1320.c ****   uint8_t x; 
 110:..\u8g2\csrc/u8x8_d_ssd1320.c ****   uint8_t y, c;
 111:..\u8g2\csrc/u8x8_d_ssd1320.c ****   uint8_t *ptr;
 112:..\u8g2\csrc/u8x8_d_ssd1320.c ****   switch(msg)
 148              		.loc 1 112 0
 149 0008 0E29     		cmp	r1, #14
 150 000a 11D0     		beq	.L14
 151 000c 9946     		mov	r9, r3
 152 000e 0F29     		cmp	r1, #15
 153 0010 1ED0     		beq	.L15
 154 0012 0B29     		cmp	r1, #11
 155 0014 61D1     		bne	.L21
 113:..\u8g2\csrc/u8x8_d_ssd1320.c ****   {
 114:..\u8g2\csrc/u8x8_d_ssd1320.c ****     /* U8X8_MSG_DISPLAY_SETUP_MEMORY is handled by the calling function */
 115:..\u8g2\csrc/u8x8_d_ssd1320.c ****     /*
 116:..\u8g2\csrc/u8x8_d_ssd1320.c ****     case U8X8_MSG_DISPLAY_SETUP_MEMORY:
 117:..\u8g2\csrc/u8x8_d_ssd1320.c ****       break;
 118:..\u8g2\csrc/u8x8_d_ssd1320.c ****     case U8X8_MSG_DISPLAY_INIT:
 119:..\u8g2\csrc/u8x8_d_ssd1320.c ****       u8x8_d_helper_display_init(u8x8);
 120:..\u8g2\csrc/u8x8_d_ssd1320.c ****       u8x8_cad_SendSequence(u8x8, u8x8_d_ssd1320_256x64_init_seq);
 121:..\u8g2\csrc/u8x8_d_ssd1320.c ****       break;
 122:..\u8g2\csrc/u8x8_d_ssd1320.c ****     */
 123:..\u8g2\csrc/u8x8_d_ssd1320.c ****     case U8X8_MSG_DISPLAY_SET_POWER_SAVE:
 124:..\u8g2\csrc/u8x8_d_ssd1320.c ****       if ( arg_int == 0 )
 156              		.loc 1 124 0
ARM GAS  C:\Users\brian\AppData\Local\Temp\ccgECwTa.s 			page 6


 157 0016 2AB9     		cbnz	r2, .L17
 125:..\u8g2\csrc/u8x8_d_ssd1320.c **** 	      u8x8_cad_SendSequence(u8x8, u8x8_d_ssd1320_cs1_160x132_nhd_powersave0_seq);
 158              		.loc 1 125 0
 159 0018 3149     		ldr	r1, .L23
 160              	.LVL19:
 161 001a FFF7FEFF 		bl	u8x8_cad_SendSequence
 162              	.LVL20:
 126:..\u8g2\csrc/u8x8_d_ssd1320.c ****       else
 127:..\u8g2\csrc/u8x8_d_ssd1320.c **** 	      u8x8_cad_SendSequence(u8x8, u8x8_d_ssd1320_cs1_160x132_nhd_powersave1_seq);
 128:..\u8g2\csrc/u8x8_d_ssd1320.c ****       break;
 129:..\u8g2\csrc/u8x8_d_ssd1320.c **** 
 130:..\u8g2\csrc/u8x8_d_ssd1320.c **** #ifdef U8X8_WITH_SET_CONTRAST
 131:..\u8g2\csrc/u8x8_d_ssd1320.c ****     case U8X8_MSG_DISPLAY_SET_CONTRAST:
 132:..\u8g2\csrc/u8x8_d_ssd1320.c ****       u8x8_cad_StartTransfer(u8x8);
 133:..\u8g2\csrc/u8x8_d_ssd1320.c ****       u8x8_cad_SendCmd(u8x8, 0x081 );
 134:..\u8g2\csrc/u8x8_d_ssd1320.c ****       u8x8_cad_SendArg(u8x8, arg_int );	/* ssd1320 has range from 1 to 255 */
 135:..\u8g2\csrc/u8x8_d_ssd1320.c ****       u8x8_cad_EndTransfer(u8x8);
 136:..\u8g2\csrc/u8x8_d_ssd1320.c ****       break;
 137:..\u8g2\csrc/u8x8_d_ssd1320.c **** #endif
 138:..\u8g2\csrc/u8x8_d_ssd1320.c **** 
 139:..\u8g2\csrc/u8x8_d_ssd1320.c ****     case U8X8_MSG_DISPLAY_DRAW_TILE:
 140:..\u8g2\csrc/u8x8_d_ssd1320.c ****       u8x8_cad_StartTransfer(u8x8);
 141:..\u8g2\csrc/u8x8_d_ssd1320.c ****       x = ((u8x8_tile_t *)arg_ptr)->x_pos;    
 142:..\u8g2\csrc/u8x8_d_ssd1320.c ****       y = (((u8x8_tile_t *)arg_ptr)->y_pos);
 143:..\u8g2\csrc/u8x8_d_ssd1320.c ****       x += u8x8->x_offset;		
 144:..\u8g2\csrc/u8x8_d_ssd1320.c ****     
 145:..\u8g2\csrc/u8x8_d_ssd1320.c ****       y *= 8;
 146:..\u8g2\csrc/u8x8_d_ssd1320.c ****     
 147:..\u8g2\csrc/u8x8_d_ssd1320.c ****       
 148:..\u8g2\csrc/u8x8_d_ssd1320.c ****       u8x8_cad_SendCmd(u8x8, 0x022 );	/* set row address, moved out of the loop (issue 302) */
 149:..\u8g2\csrc/u8x8_d_ssd1320.c ****       u8x8_cad_SendArg(u8x8, y);
 150:..\u8g2\csrc/u8x8_d_ssd1320.c ****       u8x8_cad_SendArg(u8x8, y+7);
 151:..\u8g2\csrc/u8x8_d_ssd1320.c ****       
 152:..\u8g2\csrc/u8x8_d_ssd1320.c ****       do {
 153:..\u8g2\csrc/u8x8_d_ssd1320.c **** 	      c = ((u8x8_tile_t *)arg_ptr)->cnt;
 154:..\u8g2\csrc/u8x8_d_ssd1320.c **** 	      ptr = ((u8x8_tile_t *)arg_ptr)->tile_ptr;
 155:..\u8g2\csrc/u8x8_d_ssd1320.c **** 
 156:..\u8g2\csrc/u8x8_d_ssd1320.c ****         do {
 157:..\u8g2\csrc/u8x8_d_ssd1320.c ****           u8x8_cad_SendCmd(u8x8, 0x021 );	/* set column address */
 158:..\u8g2\csrc/u8x8_d_ssd1320.c ****           u8x8_cad_SendArg(u8x8, x );	/* start */
 159:..\u8g2\csrc/u8x8_d_ssd1320.c ****           u8x8_cad_SendArg(u8x8, x+3 );	/* end */
 160:..\u8g2\csrc/u8x8_d_ssd1320.c ****           
 161:..\u8g2\csrc/u8x8_d_ssd1320.c ****           u8x8_cad_SendData(u8x8, 32, u8x8_ssd1320_8to32(u8x8, ptr));
 162:..\u8g2\csrc/u8x8_d_ssd1320.c ****           
 163:..\u8g2\csrc/u8x8_d_ssd1320.c ****           ptr += 8;
 164:..\u8g2\csrc/u8x8_d_ssd1320.c ****           x += 4;
 165:..\u8g2\csrc/u8x8_d_ssd1320.c ****           c--;
 166:..\u8g2\csrc/u8x8_d_ssd1320.c ****         } while( c > 0 );
 167:..\u8g2\csrc/u8x8_d_ssd1320.c ****       
 168:..\u8g2\csrc/u8x8_d_ssd1320.c ****       //x += 2;
 169:..\u8g2\csrc/u8x8_d_ssd1320.c ****       arg_int--;
 170:..\u8g2\csrc/u8x8_d_ssd1320.c ****     } while( arg_int > 0 );
 171:..\u8g2\csrc/u8x8_d_ssd1320.c ****     
 172:..\u8g2\csrc/u8x8_d_ssd1320.c ****     u8x8_cad_EndTransfer(u8x8);
 173:..\u8g2\csrc/u8x8_d_ssd1320.c ****     break;
 174:..\u8g2\csrc/u8x8_d_ssd1320.c **** 
 175:..\u8g2\csrc/u8x8_d_ssd1320.c ****     default:
ARM GAS  C:\Users\brian\AppData\Local\Temp\ccgECwTa.s 			page 7


 176:..\u8g2\csrc/u8x8_d_ssd1320.c ****       return 0;
 177:..\u8g2\csrc/u8x8_d_ssd1320.c ****   }
 178:..\u8g2\csrc/u8x8_d_ssd1320.c ****   return 1;
 163              		.loc 1 178 0
 164 001e 0120     		movs	r0, #1
 165 0020 BDE8F883 		pop	{r3, r4, r5, r6, r7, r8, r9, pc}
 166              	.LVL21:
 167              	.L17:
 127:..\u8g2\csrc/u8x8_d_ssd1320.c ****       break;
 168              		.loc 1 127 0
 169 0024 2F49     		ldr	r1, .L23+4
 170              	.LVL22:
 171 0026 FFF7FEFF 		bl	u8x8_cad_SendSequence
 172              	.LVL23:
 173              		.loc 1 178 0
 174 002a 0120     		movs	r0, #1
 175 002c BDE8F883 		pop	{r3, r4, r5, r6, r7, r8, r9, pc}
 176              	.LVL24:
 177              	.L14:
 132:..\u8g2\csrc/u8x8_d_ssd1320.c ****       u8x8_cad_SendCmd(u8x8, 0x081 );
 178              		.loc 1 132 0
 179 0030 FFF7FEFF 		bl	u8x8_cad_StartTransfer
 180              	.LVL25:
 133:..\u8g2\csrc/u8x8_d_ssd1320.c ****       u8x8_cad_SendArg(u8x8, arg_int );	/* ssd1320 has range from 1 to 255 */
 181              		.loc 1 133 0
 182 0034 8121     		movs	r1, #129
 183 0036 3046     		mov	r0, r6
 184 0038 FFF7FEFF 		bl	u8x8_cad_SendCmd
 185              	.LVL26:
 134:..\u8g2\csrc/u8x8_d_ssd1320.c ****       u8x8_cad_EndTransfer(u8x8);
 186              		.loc 1 134 0
 187 003c 4146     		mov	r1, r8
 188 003e 3046     		mov	r0, r6
 189 0040 FFF7FEFF 		bl	u8x8_cad_SendArg
 190              	.LVL27:
 135:..\u8g2\csrc/u8x8_d_ssd1320.c ****       break;
 191              		.loc 1 135 0
 192 0044 3046     		mov	r0, r6
 193 0046 FFF7FEFF 		bl	u8x8_cad_EndTransfer
 194              	.LVL28:
 195              		.loc 1 178 0
 196 004a 0120     		movs	r0, #1
 136:..\u8g2\csrc/u8x8_d_ssd1320.c **** #endif
 197              		.loc 1 136 0
 198 004c BDE8F883 		pop	{r3, r4, r5, r6, r7, r8, r9, pc}
 199              	.LVL29:
 200              	.L15:
 140:..\u8g2\csrc/u8x8_d_ssd1320.c ****       x = ((u8x8_tile_t *)arg_ptr)->x_pos;    
 201              		.loc 1 140 0
 202 0050 FFF7FEFF 		bl	u8x8_cad_StartTransfer
 203              	.LVL30:
 141:..\u8g2\csrc/u8x8_d_ssd1320.c ****       y = (((u8x8_tile_t *)arg_ptr)->y_pos);
 204              		.loc 1 141 0
 205 0054 99F80540 		ldrb	r4, [r9, #5]	@ zero_extendqisi2
 206              	.LVL31:
 142:..\u8g2\csrc/u8x8_d_ssd1320.c ****       x += u8x8->x_offset;		
 207              		.loc 1 142 0
ARM GAS  C:\Users\brian\AppData\Local\Temp\ccgECwTa.s 			page 8


 208 0058 99F80650 		ldrb	r5, [r9, #6]	@ zero_extendqisi2
 209              	.LVL32:
 143:..\u8g2\csrc/u8x8_d_ssd1320.c ****     
 210              		.loc 1 143 0
 211 005c 96F82230 		ldrb	r3, [r6, #34]	@ zero_extendqisi2
 212 0060 1C44     		add	r4, r4, r3
 213              	.LVL33:
 214 0062 E4B2     		uxtb	r4, r4
 215              	.LVL34:
 145:..\u8g2\csrc/u8x8_d_ssd1320.c ****     
 216              		.loc 1 145 0
 217 0064 ED00     		lsls	r5, r5, #3
 218              	.LVL35:
 219 0066 EDB2     		uxtb	r5, r5
 220              	.LVL36:
 148:..\u8g2\csrc/u8x8_d_ssd1320.c ****       u8x8_cad_SendArg(u8x8, y);
 221              		.loc 1 148 0
 222 0068 2221     		movs	r1, #34
 223 006a 3046     		mov	r0, r6
 224 006c FFF7FEFF 		bl	u8x8_cad_SendCmd
 225              	.LVL37:
 149:..\u8g2\csrc/u8x8_d_ssd1320.c ****       u8x8_cad_SendArg(u8x8, y+7);
 226              		.loc 1 149 0
 227 0070 2946     		mov	r1, r5
 228 0072 3046     		mov	r0, r6
 229 0074 FFF7FEFF 		bl	u8x8_cad_SendArg
 230              	.LVL38:
 150:..\u8g2\csrc/u8x8_d_ssd1320.c ****       
 231              		.loc 1 150 0
 232 0078 E91D     		adds	r1, r5, #7
 233 007a C9B2     		uxtb	r1, r1
 234 007c 3046     		mov	r0, r6
 235 007e FFF7FEFF 		bl	u8x8_cad_SendArg
 236              	.LVL39:
 237              	.L19:
 153:..\u8g2\csrc/u8x8_d_ssd1320.c **** 	      ptr = ((u8x8_tile_t *)arg_ptr)->tile_ptr;
 238              		.loc 1 153 0
 239 0082 99F80450 		ldrb	r5, [r9, #4]	@ zero_extendqisi2
 240              	.LVL40:
 154:..\u8g2\csrc/u8x8_d_ssd1320.c **** 
 241              		.loc 1 154 0
 242 0086 D9F80070 		ldr	r7, [r9]
 243              	.LVL41:
 244              	.L18:
 157:..\u8g2\csrc/u8x8_d_ssd1320.c ****           u8x8_cad_SendArg(u8x8, x );	/* start */
 245              		.loc 1 157 0 discriminator 1
 246 008a 2121     		movs	r1, #33
 247 008c 3046     		mov	r0, r6
 248 008e FFF7FEFF 		bl	u8x8_cad_SendCmd
 249              	.LVL42:
 158:..\u8g2\csrc/u8x8_d_ssd1320.c ****           u8x8_cad_SendArg(u8x8, x+3 );	/* end */
 250              		.loc 1 158 0 discriminator 1
 251 0092 2146     		mov	r1, r4
 252 0094 3046     		mov	r0, r6
 253 0096 FFF7FEFF 		bl	u8x8_cad_SendArg
 254              	.LVL43:
 159:..\u8g2\csrc/u8x8_d_ssd1320.c ****           
ARM GAS  C:\Users\brian\AppData\Local\Temp\ccgECwTa.s 			page 9


 255              		.loc 1 159 0 discriminator 1
 256 009a E11C     		adds	r1, r4, #3
 257 009c C9B2     		uxtb	r1, r1
 258 009e 3046     		mov	r0, r6
 259 00a0 FFF7FEFF 		bl	u8x8_cad_SendArg
 260              	.LVL44:
 161:..\u8g2\csrc/u8x8_d_ssd1320.c ****           
 261              		.loc 1 161 0 discriminator 1
 262 00a4 3946     		mov	r1, r7
 263 00a6 3046     		mov	r0, r6
 264 00a8 FFF7FEFF 		bl	u8x8_ssd1320_8to32
 265              	.LVL45:
 266 00ac 0246     		mov	r2, r0
 267 00ae 2021     		movs	r1, #32
 268 00b0 3046     		mov	r0, r6
 269 00b2 FFF7FEFF 		bl	u8x8_cad_SendData
 270              	.LVL46:
 163:..\u8g2\csrc/u8x8_d_ssd1320.c ****           x += 4;
 271              		.loc 1 163 0 discriminator 1
 272 00b6 0837     		adds	r7, r7, #8
 273              	.LVL47:
 164:..\u8g2\csrc/u8x8_d_ssd1320.c ****           c--;
 274              		.loc 1 164 0 discriminator 1
 275 00b8 0434     		adds	r4, r4, #4
 276              	.LVL48:
 277 00ba E4B2     		uxtb	r4, r4
 278              	.LVL49:
 165:..\u8g2\csrc/u8x8_d_ssd1320.c ****         } while( c > 0 );
 279              		.loc 1 165 0 discriminator 1
 280 00bc 6B1E     		subs	r3, r5, #1
 281              	.LVL50:
 166:..\u8g2\csrc/u8x8_d_ssd1320.c ****       
 282              		.loc 1 166 0 discriminator 1
 283 00be 13F0FF05 		ands	r5, r3, #255
 284 00c2 E2D1     		bne	.L18
 169:..\u8g2\csrc/u8x8_d_ssd1320.c ****     } while( arg_int > 0 );
 285              		.loc 1 169 0
 286 00c4 08F1FF38 		add	r8, r8, #-1
 287              	.LVL51:
 170:..\u8g2\csrc/u8x8_d_ssd1320.c ****     
 288              		.loc 1 170 0
 289 00c8 18F0FF08 		ands	r8, r8, #255
 290              	.LVL52:
 291 00cc D9D1     		bne	.L19
 172:..\u8g2\csrc/u8x8_d_ssd1320.c ****     break;
 292              		.loc 1 172 0
 293 00ce 3046     		mov	r0, r6
 294 00d0 FFF7FEFF 		bl	u8x8_cad_EndTransfer
 295              	.LVL53:
 296              		.loc 1 178 0
 297 00d4 0120     		movs	r0, #1
 173:..\u8g2\csrc/u8x8_d_ssd1320.c **** 
 298              		.loc 1 173 0
 299 00d6 BDE8F883 		pop	{r3, r4, r5, r6, r7, r8, r9, pc}
 300              	.LVL54:
 301              	.L21:
 176:..\u8g2\csrc/u8x8_d_ssd1320.c ****   }
ARM GAS  C:\Users\brian\AppData\Local\Temp\ccgECwTa.s 			page 10


 302              		.loc 1 176 0
 303 00da 0020     		movs	r0, #0
 304              	.LVL55:
 179:..\u8g2\csrc/u8x8_d_ssd1320.c **** }
 305              		.loc 1 179 0
 306 00dc BDE8F883 		pop	{r3, r4, r5, r6, r7, r8, r9, pc}
 307              	.LVL56:
 308              	.L24:
 309              		.align	2
 310              	.L23:
 311 00e0 00000000 		.word	.LANCHOR1
 312 00e4 08000000 		.word	.LANCHOR1+8
 313              		.cfi_endproc
 314              	.LFE1:
 315              		.size	u8x8_d_ssd1320_common, .-u8x8_d_ssd1320_common
 316              		.section	.text.u8x8_d_ssd1320_160x32,"ax",%progbits
 317              		.align	2
 318              		.global	u8x8_d_ssd1320_160x32
 319              		.thumb
 320              		.thumb_func
 321              		.type	u8x8_d_ssd1320_160x32, %function
 322              	u8x8_d_ssd1320_160x32:
 323              	.LFB2:
 180:..\u8g2\csrc/u8x8_d_ssd1320.c **** 
 181:..\u8g2\csrc/u8x8_d_ssd1320.c **** /*=========================================================*/
 182:..\u8g2\csrc/u8x8_d_ssd1320.c **** /* 160x32 */
 183:..\u8g2\csrc/u8x8_d_ssd1320.c **** 
 184:..\u8g2\csrc/u8x8_d_ssd1320.c **** static const uint8_t u8x8_d_ssd1320_cs1_160x32_nhd_flip0_seq[] = {
 185:..\u8g2\csrc/u8x8_d_ssd1320.c ****   U8X8_START_TRANSFER(),             	/* enable chip, delay is part of the transfer start */
 186:..\u8g2\csrc/u8x8_d_ssd1320.c ****   U8X8_C(0x0a0),		/* remap */
 187:..\u8g2\csrc/u8x8_d_ssd1320.c ****   U8X8_END_TRANSFER(),             	/* disable chip */
 188:..\u8g2\csrc/u8x8_d_ssd1320.c ****   U8X8_END()             			/* end of sequence */
 189:..\u8g2\csrc/u8x8_d_ssd1320.c **** };
 190:..\u8g2\csrc/u8x8_d_ssd1320.c **** 
 191:..\u8g2\csrc/u8x8_d_ssd1320.c **** static const uint8_t u8x8_d_ssd1320_cs1_160x32_nhd_flip1_seq[] = {
 192:..\u8g2\csrc/u8x8_d_ssd1320.c ****   U8X8_START_TRANSFER(),             	/* enable chip, delay is part of the transfer start */
 193:..\u8g2\csrc/u8x8_d_ssd1320.c ****   U8X8_C(0x0a1),		/* remap */
 194:..\u8g2\csrc/u8x8_d_ssd1320.c ****   U8X8_END_TRANSFER(),             	/* disable chip */
 195:..\u8g2\csrc/u8x8_d_ssd1320.c ****   U8X8_END()             			/* end of sequence */
 196:..\u8g2\csrc/u8x8_d_ssd1320.c **** };
 197:..\u8g2\csrc/u8x8_d_ssd1320.c **** 
 198:..\u8g2\csrc/u8x8_d_ssd1320.c **** static const u8x8_display_info_t u8x8_d_ssd1320_cs1_160x32_display_info =
 199:..\u8g2\csrc/u8x8_d_ssd1320.c **** {
 200:..\u8g2\csrc/u8x8_d_ssd1320.c ****   /* chip_enable_level = */ 0,
 201:..\u8g2\csrc/u8x8_d_ssd1320.c ****   /* chip_disable_level = */ 1,
 202:..\u8g2\csrc/u8x8_d_ssd1320.c ****   
 203:..\u8g2\csrc/u8x8_d_ssd1320.c ****   /* post_chip_enable_wait_ns = */ 20,
 204:..\u8g2\csrc/u8x8_d_ssd1320.c ****   /* pre_chip_disable_wait_ns = */ 10,
 205:..\u8g2\csrc/u8x8_d_ssd1320.c ****   /* reset_pulse_width_ms = */ 100, 	/* ssd1320: 2 us */
 206:..\u8g2\csrc/u8x8_d_ssd1320.c ****   /* post_reset_wait_ms = */ 100, /* far east OLEDs need much longer setup time */
 207:..\u8g2\csrc/u8x8_d_ssd1320.c ****   /* sda_setup_time_ns = */ 50,		/* ssd1320: 15ns, but cycle time is 100ns, so use 100/2 */
 208:..\u8g2\csrc/u8x8_d_ssd1320.c ****   /* sck_pulse_width_ns = */ 50,	/* ssd1320: 20ns, but cycle time is 100ns, so use 100/2, AVR: belo
 209:..\u8g2\csrc/u8x8_d_ssd1320.c ****   /* sck_clock_hz = */ 10000000UL,	/* since Arduino 1.6.0, the SPI bus speed in Hz. Should be  1000
 210:..\u8g2\csrc/u8x8_d_ssd1320.c ****   /* spi_mode = */ 0,		/* active high, rising edge */
 211:..\u8g2\csrc/u8x8_d_ssd1320.c ****   /* i2c_bus_clock_100kHz = */ 4,
 212:..\u8g2\csrc/u8x8_d_ssd1320.c ****   /* data_setup_time_ns = */ 10,
 213:..\u8g2\csrc/u8x8_d_ssd1320.c ****   /* write_pulse_width_ns = */ 150,	/* ssd1320: cycle time is 300ns, so use 300/2 = 150 */
ARM GAS  C:\Users\brian\AppData\Local\Temp\ccgECwTa.s 			page 11


 214:..\u8g2\csrc/u8x8_d_ssd1320.c ****   /* tile_width = */ 20,		/* 160 pixel, so we require 20 bytes for this */
 215:..\u8g2\csrc/u8x8_d_ssd1320.c ****   /* tile_hight = */ 4,
 216:..\u8g2\csrc/u8x8_d_ssd1320.c ****   /* default_x_offset = */ 0,	/* this is the byte offset (there are two pixel per byte with 4 bit p
 217:..\u8g2\csrc/u8x8_d_ssd1320.c ****   /* flipmode_x_offset = */ 0,
 218:..\u8g2\csrc/u8x8_d_ssd1320.c ****   /* pixel_width = */ 160,
 219:..\u8g2\csrc/u8x8_d_ssd1320.c ****   /* pixel_height = */ 32
 220:..\u8g2\csrc/u8x8_d_ssd1320.c **** };
 221:..\u8g2\csrc/u8x8_d_ssd1320.c **** 
 222:..\u8g2\csrc/u8x8_d_ssd1320.c **** // initialisation sequence from the Arduino Library
 223:..\u8g2\csrc/u8x8_d_ssd1320.c **** // (see https://github.com/sparkfun/SparkFun_SSD1320_OLED_Arduino_Library)
 224:..\u8g2\csrc/u8x8_d_ssd1320.c **** static const uint8_t u8x8_d_ssd1320_cs1_160x32_init_seq[] = {
 225:..\u8g2\csrc/u8x8_d_ssd1320.c ****     
 226:..\u8g2\csrc/u8x8_d_ssd1320.c ****     U8X8_DLY(1),
 227:..\u8g2\csrc/u8x8_d_ssd1320.c ****     U8X8_START_TRANSFER(),    /* enable chip, delay is part of the transfer start */
 228:..\u8g2\csrc/u8x8_d_ssd1320.c ****     U8X8_DLY(1),
 229:..\u8g2\csrc/u8x8_d_ssd1320.c ****     
 230:..\u8g2\csrc/u8x8_d_ssd1320.c ****     U8X8_C(0xae),		          /* display off */
 231:..\u8g2\csrc/u8x8_d_ssd1320.c ****     U8X8_CA(0xd5, 0xC2),			/* set display clock divide ratio/oscillator frequency (set clock as 80 
 232:..\u8g2\csrc/u8x8_d_ssd1320.c ****     U8X8_CA(0xa8, 0x1f),			/* multiplex ratio 1/64 Duty (0x0F~0x3F) */  
 233:..\u8g2\csrc/u8x8_d_ssd1320.c ****     U8X8_CA(0xa2, 0x00),			/* display start line */  
 234:..\u8g2\csrc/u8x8_d_ssd1320.c **** 
 235:..\u8g2\csrc/u8x8_d_ssd1320.c ****     U8X8_C(0xa0),	                /* Set Segment Re-Map: column address 0 mapped to SEG0  CS1 */ 
 236:..\u8g2\csrc/u8x8_d_ssd1320.c ****     // U8X8_C(0xa1),	                /* Set Segment Re-Map: column address 0 mapped to SEG0  CS2 */
 237:..\u8g2\csrc/u8x8_d_ssd1320.c **** 
 238:..\u8g2\csrc/u8x8_d_ssd1320.c ****     U8X8_C(0xc8),	             /* Set COM Output Scan Direction: normal mode CS1 */
 239:..\u8g2\csrc/u8x8_d_ssd1320.c ****     // U8X8_C(0xc0),			        /* Set COM Output Scan Direction: normal mode CS2 */
 240:..\u8g2\csrc/u8x8_d_ssd1320.c ****     
 241:..\u8g2\csrc/u8x8_d_ssd1320.c ****     U8X8_CA(0xd3, 0x72),        /* CS1 */
 242:..\u8g2\csrc/u8x8_d_ssd1320.c ****     // U8X8_CA(0xd3, 0x92),        /* CS2 */
 243:..\u8g2\csrc/u8x8_d_ssd1320.c ****     
 244:..\u8g2\csrc/u8x8_d_ssd1320.c ****     U8X8_CA(0xda, 0x12),	    /* Set SEG Pins Hardware Configuration:  */  
 245:..\u8g2\csrc/u8x8_d_ssd1320.c ****     U8X8_CA(0x81, 0x5a),			/* contrast */  
 246:..\u8g2\csrc/u8x8_d_ssd1320.c ****     U8X8_CA(0xd9, 0x22),			/* Set Phase Length */  
 247:..\u8g2\csrc/u8x8_d_ssd1320.c ****     U8X8_CA(0xdb, 0x30),		  /* VCOMH Deselect Level */
 248:..\u8g2\csrc/u8x8_d_ssd1320.c ****     U8X8_CA(0xad, 0x10),			/* Internal IREF Enable */  
 249:..\u8g2\csrc/u8x8_d_ssd1320.c ****     U8X8_CA(0x20, 0x00),	    /* Memory Addressing Mode: Horizontal */  
 250:..\u8g2\csrc/u8x8_d_ssd1320.c ****     U8X8_CA(0x8d, 0x01),			/* disable internal charge pump 1 */  
 251:..\u8g2\csrc/u8x8_d_ssd1320.c ****     U8X8_CA(0xac, 0x00),			/* disable internal charge pump 2 */  
 252:..\u8g2\csrc/u8x8_d_ssd1320.c ****     U8X8_C(0xa4),		        	/* display on */  
 253:..\u8g2\csrc/u8x8_d_ssd1320.c ****     U8X8_C(0xa6),		          /* normal display */
 254:..\u8g2\csrc/u8x8_d_ssd1320.c **** 
 255:..\u8g2\csrc/u8x8_d_ssd1320.c ****     U8X8_DLY(1),					/* delay 2ms */
 256:..\u8g2\csrc/u8x8_d_ssd1320.c **** 
 257:..\u8g2\csrc/u8x8_d_ssd1320.c ****     U8X8_END_TRANSFER(),             	/* disable chip */
 258:..\u8g2\csrc/u8x8_d_ssd1320.c ****     U8X8_END()             			/* end of sequence */
 259:..\u8g2\csrc/u8x8_d_ssd1320.c **** };
 260:..\u8g2\csrc/u8x8_d_ssd1320.c **** 
 261:..\u8g2\csrc/u8x8_d_ssd1320.c **** 
 262:..\u8g2\csrc/u8x8_d_ssd1320.c **** uint8_t u8x8_d_ssd1320_160x32(u8x8_t *u8x8, uint8_t msg, uint8_t arg_int, void *arg_ptr)
 263:..\u8g2\csrc/u8x8_d_ssd1320.c **** {
 324              		.loc 1 263 0
 325              		.cfi_startproc
 326              		@ args = 0, pretend = 0, frame = 0
 327              		@ frame_needed = 0, uses_anonymous_args = 0
 328              	.LVL57:
 329 0000 10B5     		push	{r4, lr}
 330              		.cfi_def_cfa_offset 8
ARM GAS  C:\Users\brian\AppData\Local\Temp\ccgECwTa.s 			page 12


 331              		.cfi_offset 4, -8
 332              		.cfi_offset 14, -4
 333 0002 0446     		mov	r4, r0
 264:..\u8g2\csrc/u8x8_d_ssd1320.c ****   switch(msg)
 334              		.loc 1 264 0
 335 0004 0A29     		cmp	r1, #10
 336 0006 08D0     		beq	.L27
 337 0008 0D29     		cmp	r1, #13
 338 000a 0ED0     		beq	.L28
 339 000c 0929     		cmp	r1, #9
 340 000e 1FD1     		bne	.L32
 265:..\u8g2\csrc/u8x8_d_ssd1320.c ****   {
 266:..\u8g2\csrc/u8x8_d_ssd1320.c ****     case U8X8_MSG_DISPLAY_SETUP_MEMORY:
 267:..\u8g2\csrc/u8x8_d_ssd1320.c ****         u8x8_d_helper_display_setup_memory(u8x8, &u8x8_d_ssd1320_cs1_160x32_display_info);
 341              		.loc 1 267 0
 342 0010 1149     		ldr	r1, .L34
 343              	.LVL58:
 344 0012 FFF7FEFF 		bl	u8x8_d_helper_display_setup_memory
 345              	.LVL59:
 268:..\u8g2\csrc/u8x8_d_ssd1320.c ****       break;
 269:..\u8g2\csrc/u8x8_d_ssd1320.c **** 
 270:..\u8g2\csrc/u8x8_d_ssd1320.c ****     case U8X8_MSG_DISPLAY_INIT:
 271:..\u8g2\csrc/u8x8_d_ssd1320.c ****         u8x8_d_helper_display_init(u8x8);
 272:..\u8g2\csrc/u8x8_d_ssd1320.c ****         u8x8_cad_SendSequence(u8x8, u8x8_d_ssd1320_cs1_160x32_init_seq);
 273:..\u8g2\csrc/u8x8_d_ssd1320.c ****       break;
 274:..\u8g2\csrc/u8x8_d_ssd1320.c **** 
 275:..\u8g2\csrc/u8x8_d_ssd1320.c ****     case U8X8_MSG_DISPLAY_SET_FLIP_MODE:
 276:..\u8g2\csrc/u8x8_d_ssd1320.c ****       if ( arg_int == 0 ){
 277:..\u8g2\csrc/u8x8_d_ssd1320.c ****         u8x8_cad_SendSequence(u8x8, u8x8_d_ssd1320_cs1_160x32_nhd_flip0_seq);
 278:..\u8g2\csrc/u8x8_d_ssd1320.c ****         u8x8->x_offset = u8x8->display_info->default_x_offset;
 279:..\u8g2\csrc/u8x8_d_ssd1320.c ****       }
 280:..\u8g2\csrc/u8x8_d_ssd1320.c ****       else{
 281:..\u8g2\csrc/u8x8_d_ssd1320.c ****         u8x8_cad_SendSequence(u8x8, u8x8_d_ssd1320_cs1_160x32_nhd_flip1_seq);
 282:..\u8g2\csrc/u8x8_d_ssd1320.c ****         u8x8->x_offset = u8x8->display_info->flipmode_x_offset;
 283:..\u8g2\csrc/u8x8_d_ssd1320.c ****       }
 284:..\u8g2\csrc/u8x8_d_ssd1320.c ****       break;
 285:..\u8g2\csrc/u8x8_d_ssd1320.c ****     
 286:..\u8g2\csrc/u8x8_d_ssd1320.c ****     default:
 287:..\u8g2\csrc/u8x8_d_ssd1320.c ****       return u8x8_d_ssd1320_common(u8x8, msg, arg_int, arg_ptr);
 288:..\u8g2\csrc/u8x8_d_ssd1320.c ****   }
 289:..\u8g2\csrc/u8x8_d_ssd1320.c ****   return 1;
 346              		.loc 1 289 0
 347 0016 0120     		movs	r0, #1
 268:..\u8g2\csrc/u8x8_d_ssd1320.c ****       break;
 348              		.loc 1 268 0
 349 0018 10BD     		pop	{r4, pc}
 350              	.LVL60:
 351              	.L27:
 271:..\u8g2\csrc/u8x8_d_ssd1320.c ****         u8x8_cad_SendSequence(u8x8, u8x8_d_ssd1320_cs1_160x32_init_seq);
 352              		.loc 1 271 0
 353 001a FFF7FEFF 		bl	u8x8_d_helper_display_init
 354              	.LVL61:
 272:..\u8g2\csrc/u8x8_d_ssd1320.c ****       break;
 355              		.loc 1 272 0
 356 001e 0F49     		ldr	r1, .L34+4
 357 0020 2046     		mov	r0, r4
 358 0022 FFF7FEFF 		bl	u8x8_cad_SendSequence
ARM GAS  C:\Users\brian\AppData\Local\Temp\ccgECwTa.s 			page 13


 359              	.LVL62:
 360              		.loc 1 289 0
 361 0026 0120     		movs	r0, #1
 273:..\u8g2\csrc/u8x8_d_ssd1320.c **** 
 362              		.loc 1 273 0
 363 0028 10BD     		pop	{r4, pc}
 364              	.LVL63:
 365              	.L28:
 276:..\u8g2\csrc/u8x8_d_ssd1320.c ****         u8x8_cad_SendSequence(u8x8, u8x8_d_ssd1320_cs1_160x32_nhd_flip0_seq);
 366              		.loc 1 276 0
 367 002a 42B9     		cbnz	r2, .L31
 277:..\u8g2\csrc/u8x8_d_ssd1320.c ****         u8x8->x_offset = u8x8->display_info->default_x_offset;
 368              		.loc 1 277 0
 369 002c 0C49     		ldr	r1, .L34+8
 370              	.LVL64:
 371 002e FFF7FEFF 		bl	u8x8_cad_SendSequence
 372              	.LVL65:
 278:..\u8g2\csrc/u8x8_d_ssd1320.c ****       }
 373              		.loc 1 278 0
 374 0032 2368     		ldr	r3, [r4]
 375 0034 9B7C     		ldrb	r3, [r3, #18]	@ zero_extendqisi2
 376 0036 84F82230 		strb	r3, [r4, #34]
 377              		.loc 1 289 0
 378 003a 0120     		movs	r0, #1
 379 003c 10BD     		pop	{r4, pc}
 380              	.LVL66:
 381              	.L31:
 281:..\u8g2\csrc/u8x8_d_ssd1320.c ****         u8x8->x_offset = u8x8->display_info->flipmode_x_offset;
 382              		.loc 1 281 0
 383 003e 0949     		ldr	r1, .L34+12
 384              	.LVL67:
 385 0040 FFF7FEFF 		bl	u8x8_cad_SendSequence
 386              	.LVL68:
 282:..\u8g2\csrc/u8x8_d_ssd1320.c ****       }
 387              		.loc 1 282 0
 388 0044 2368     		ldr	r3, [r4]
 389 0046 DB7C     		ldrb	r3, [r3, #19]	@ zero_extendqisi2
 390 0048 84F82230 		strb	r3, [r4, #34]
 391              		.loc 1 289 0
 392 004c 0120     		movs	r0, #1
 393 004e 10BD     		pop	{r4, pc}
 394              	.LVL69:
 395              	.L32:
 287:..\u8g2\csrc/u8x8_d_ssd1320.c ****   }
 396              		.loc 1 287 0
 397 0050 FFF7FEFF 		bl	u8x8_d_ssd1320_common
 398              	.LVL70:
 290:..\u8g2\csrc/u8x8_d_ssd1320.c **** }
 399              		.loc 1 290 0
 400 0054 10BD     		pop	{r4, pc}
 401              	.LVL71:
 402              	.L35:
 403 0056 00BF     		.align	2
 404              	.L34:
 405 0058 10000000 		.word	.LANCHOR1+16
 406 005c 28000000 		.word	.LANCHOR1+40
 407 0060 6C000000 		.word	.LANCHOR1+108
ARM GAS  C:\Users\brian\AppData\Local\Temp\ccgECwTa.s 			page 14


 408 0064 74000000 		.word	.LANCHOR1+116
 409              		.cfi_endproc
 410              	.LFE2:
 411              		.size	u8x8_d_ssd1320_160x32, .-u8x8_d_ssd1320_160x32
 412              		.section	.text.u8x8_d_ssd1320_160x132,"ax",%progbits
 413              		.align	2
 414              		.global	u8x8_d_ssd1320_160x132
 415              		.thumb
 416              		.thumb_func
 417              		.type	u8x8_d_ssd1320_160x132, %function
 418              	u8x8_d_ssd1320_160x132:
 419              	.LFB3:
 291:..\u8g2\csrc/u8x8_d_ssd1320.c **** 
 292:..\u8g2\csrc/u8x8_d_ssd1320.c **** /*=========================================================*/
 293:..\u8g2\csrc/u8x8_d_ssd1320.c **** /* 160x132 (actually 320x132) */
 294:..\u8g2\csrc/u8x8_d_ssd1320.c **** 
 295:..\u8g2\csrc/u8x8_d_ssd1320.c **** static const uint8_t u8x8_d_ssd1320_cs1_160x132_nhd_flip0_seq[] = {
 296:..\u8g2\csrc/u8x8_d_ssd1320.c ****   U8X8_START_TRANSFER(),             	/* enable chip, delay is part of the transfer start */
 297:..\u8g2\csrc/u8x8_d_ssd1320.c ****   U8X8_C(0x0a0),		/* remap */
 298:..\u8g2\csrc/u8x8_d_ssd1320.c ****   U8X8_C(0xc8),	             /* Set COM Output Scan Direction: normal mode CS1 */
 299:..\u8g2\csrc/u8x8_d_ssd1320.c ****   U8X8_CA(0xd3, 0x0e),        /* CS1 */
 300:..\u8g2\csrc/u8x8_d_ssd1320.c ****   U8X8_END_TRANSFER(),             	/* disable chip */
 301:..\u8g2\csrc/u8x8_d_ssd1320.c ****   U8X8_END()             			/* end of sequence */
 302:..\u8g2\csrc/u8x8_d_ssd1320.c **** };
 303:..\u8g2\csrc/u8x8_d_ssd1320.c **** 
 304:..\u8g2\csrc/u8x8_d_ssd1320.c **** static const uint8_t u8x8_d_ssd1320_cs1_160x132_nhd_flip1_seq[] = {
 305:..\u8g2\csrc/u8x8_d_ssd1320.c ****   U8X8_START_TRANSFER(),             	/* enable chip, delay is part of the transfer start */
 306:..\u8g2\csrc/u8x8_d_ssd1320.c ****   U8X8_C(0x0a1),		/* remap */
 307:..\u8g2\csrc/u8x8_d_ssd1320.c ****   U8X8_C(0xc0),	             /* Set COM Output Scan Direction: normal mode CS1 */
 308:..\u8g2\csrc/u8x8_d_ssd1320.c ****   U8X8_CA(0xd3, 0x92),        /* CS1 */
 309:..\u8g2\csrc/u8x8_d_ssd1320.c ****   U8X8_END_TRANSFER(),             	/* disable chip */
 310:..\u8g2\csrc/u8x8_d_ssd1320.c ****   U8X8_END()             			/* end of sequence */
 311:..\u8g2\csrc/u8x8_d_ssd1320.c **** };
 312:..\u8g2\csrc/u8x8_d_ssd1320.c **** 
 313:..\u8g2\csrc/u8x8_d_ssd1320.c **** static const u8x8_display_info_t u8x8_d_ssd1320_cs1_160x132_display_info =
 314:..\u8g2\csrc/u8x8_d_ssd1320.c **** {
 315:..\u8g2\csrc/u8x8_d_ssd1320.c ****   /* chip_enable_level = */ 0,
 316:..\u8g2\csrc/u8x8_d_ssd1320.c ****   /* chip_disable_level = */ 1,
 317:..\u8g2\csrc/u8x8_d_ssd1320.c ****   
 318:..\u8g2\csrc/u8x8_d_ssd1320.c ****   /* post_chip_enable_wait_ns = */ 20,
 319:..\u8g2\csrc/u8x8_d_ssd1320.c ****   /* pre_chip_disable_wait_ns = */ 10,
 320:..\u8g2\csrc/u8x8_d_ssd1320.c ****   /* reset_pulse_width_ms = */ 100, 	/* ssd1320: 2 us */
 321:..\u8g2\csrc/u8x8_d_ssd1320.c ****   /* post_reset_wait_ms = */ 100, /* far east OLEDs need much longer setup time */
 322:..\u8g2\csrc/u8x8_d_ssd1320.c ****   /* sda_setup_time_ns = */ 50,		/* ssd1320: 15ns, but cycle time is 100ns, so use 100/2 */
 323:..\u8g2\csrc/u8x8_d_ssd1320.c ****   /* sck_pulse_width_ns = */ 50,	/* ssd1320: 20ns, but cycle time is 100ns, so use 100/2, AVR: belo
 324:..\u8g2\csrc/u8x8_d_ssd1320.c ****   /* sck_clock_hz = */ 10000000UL,	/* since Arduino 1.6.0, the SPI bus speed in Hz. Should be  1000
 325:..\u8g2\csrc/u8x8_d_ssd1320.c ****   /* spi_mode = */ 0,		/* active high, rising edge */
 326:..\u8g2\csrc/u8x8_d_ssd1320.c ****   /* i2c_bus_clock_100kHz = */ 4,
 327:..\u8g2\csrc/u8x8_d_ssd1320.c ****   /* data_setup_time_ns = */ 10,
 328:..\u8g2\csrc/u8x8_d_ssd1320.c ****   /* write_pulse_width_ns = */ 150,	/* ssd1320: cycle time is 300ns, so use 300/2 = 150 */
 329:..\u8g2\csrc/u8x8_d_ssd1320.c ****   /* tile_width = */ 20,		/* 160 pixel, so we require 20 bytes for this */
 330:..\u8g2\csrc/u8x8_d_ssd1320.c ****   /* tile_hight = */ 17,
 331:..\u8g2\csrc/u8x8_d_ssd1320.c ****   /* default_x_offset = */ 0,	/* this is the byte offset (there are two pixel per byte with 4 bit p
 332:..\u8g2\csrc/u8x8_d_ssd1320.c ****   /* flipmode_x_offset = */ 0,
 333:..\u8g2\csrc/u8x8_d_ssd1320.c ****   /* pixel_width = */ 160,
 334:..\u8g2\csrc/u8x8_d_ssd1320.c ****   /* pixel_height = */ 132
 335:..\u8g2\csrc/u8x8_d_ssd1320.c **** };
ARM GAS  C:\Users\brian\AppData\Local\Temp\ccgECwTa.s 			page 15


 336:..\u8g2\csrc/u8x8_d_ssd1320.c **** 
 337:..\u8g2\csrc/u8x8_d_ssd1320.c **** 
 338:..\u8g2\csrc/u8x8_d_ssd1320.c **** /* the following sequence will work, but requires contrast to be very high */
 339:..\u8g2\csrc/u8x8_d_ssd1320.c **** static const uint8_t u8x8_d_ssd1320_cs1_160x132_init_seq[] = {
 340:..\u8g2\csrc/u8x8_d_ssd1320.c ****     
 341:..\u8g2\csrc/u8x8_d_ssd1320.c ****     U8X8_DLY(1),
 342:..\u8g2\csrc/u8x8_d_ssd1320.c ****     U8X8_START_TRANSFER(),    /* enable chip, delay is part of the transfer start */
 343:..\u8g2\csrc/u8x8_d_ssd1320.c ****     U8X8_DLY(1),
 344:..\u8g2\csrc/u8x8_d_ssd1320.c ****     
 345:..\u8g2\csrc/u8x8_d_ssd1320.c ****     U8X8_C(0xae),		          /* display off */
 346:..\u8g2\csrc/u8x8_d_ssd1320.c ****     U8X8_CA(0xd5, 0xC2),			/* set display clock divide ratio/oscillator frequency (set clock as 80 
 347:..\u8g2\csrc/u8x8_d_ssd1320.c ****     U8X8_CA(0xa8, 0x83),			/* multiplex ratio 1/132 Duty  */  
 348:..\u8g2\csrc/u8x8_d_ssd1320.c ****     U8X8_CA(0xa2, 0x00),			/* display start line */  
 349:..\u8g2\csrc/u8x8_d_ssd1320.c **** 
 350:..\u8g2\csrc/u8x8_d_ssd1320.c ****     U8X8_C(0xa0),	                /* Set Segment Re-Map: column address 0 mapped to SEG0  CS1 */ 
 351:..\u8g2\csrc/u8x8_d_ssd1320.c ****     // U8X8_C(0xa1),	                /* Set Segment Re-Map: column address 0 mapped to SEG0  CS2 */
 352:..\u8g2\csrc/u8x8_d_ssd1320.c **** 
 353:..\u8g2\csrc/u8x8_d_ssd1320.c ****     U8X8_C(0xc8),	             /* Set COM Output Scan Direction: normal mode CS1 */
 354:..\u8g2\csrc/u8x8_d_ssd1320.c ****     // U8X8_C(0xc0),			        /* Set COM Output Scan Direction: normal mode CS2 */
 355:..\u8g2\csrc/u8x8_d_ssd1320.c ****   
 356:..\u8g2\csrc/u8x8_d_ssd1320.c ****     U8X8_CA(0xd3, 0x0e),        /* CS1 */
 357:..\u8g2\csrc/u8x8_d_ssd1320.c ****     // U8X8_CA(0xd3, 0x92),        /* CS2 */
 358:..\u8g2\csrc/u8x8_d_ssd1320.c ****     
 359:..\u8g2\csrc/u8x8_d_ssd1320.c ****     U8X8_CA(0xda, 0x12),	    /* Set SEG Pins Hardware Configuration:  */  
 360:..\u8g2\csrc/u8x8_d_ssd1320.c ****     U8X8_CA(0x81, 0x5a),			/* contrast */  
 361:..\u8g2\csrc/u8x8_d_ssd1320.c ****     U8X8_CA(0xd9, 0x22),			/* Set Phase Length */  
 362:..\u8g2\csrc/u8x8_d_ssd1320.c ****     U8X8_CA(0xdb, 0x30),		  /* VCOMH Deselect Level */
 363:..\u8g2\csrc/u8x8_d_ssd1320.c ****     U8X8_CA(0xad, 0x10),			/* Internal IREF Enable */  
 364:..\u8g2\csrc/u8x8_d_ssd1320.c ****     U8X8_CA(0x20, 0x00),	    /* Memory Addressing Mode: Horizontal */  
 365:..\u8g2\csrc/u8x8_d_ssd1320.c ****     U8X8_CA(0x8d, 0x01),			/* disable internal charge pump 1 */  
 366:..\u8g2\csrc/u8x8_d_ssd1320.c ****     U8X8_CA(0xac, 0x00),			/* disable internal charge pump 2 */  
 367:..\u8g2\csrc/u8x8_d_ssd1320.c ****     U8X8_C(0xa4),		        	/* display on */  
 368:..\u8g2\csrc/u8x8_d_ssd1320.c ****     U8X8_C(0xa6),		          /* normal display */
 369:..\u8g2\csrc/u8x8_d_ssd1320.c **** 
 370:..\u8g2\csrc/u8x8_d_ssd1320.c ****     U8X8_DLY(1),					/* delay 2ms */
 371:..\u8g2\csrc/u8x8_d_ssd1320.c **** 
 372:..\u8g2\csrc/u8x8_d_ssd1320.c ****     U8X8_END_TRANSFER(),             	/* disable chip */
 373:..\u8g2\csrc/u8x8_d_ssd1320.c ****     U8X8_END()             			/* end of sequence */
 374:..\u8g2\csrc/u8x8_d_ssd1320.c **** };
 375:..\u8g2\csrc/u8x8_d_ssd1320.c **** 
 376:..\u8g2\csrc/u8x8_d_ssd1320.c **** /*
 377:..\u8g2\csrc/u8x8_d_ssd1320.c **** OLED_WR_Byte(0xae,OLED_CMD);//Display OFF
 378:..\u8g2\csrc/u8x8_d_ssd1320.c **** OLED_WR_Byte(0xfd,OLED_CMD);//Set Command Lock
 379:..\u8g2\csrc/u8x8_d_ssd1320.c **** OLED_WR_Byte(0x12,OLED_CMD);
 380:..\u8g2\csrc/u8x8_d_ssd1320.c **** OLED_WR_Byte(0x20,OLED_CMD);//Set Memory Addressing Mode
 381:..\u8g2\csrc/u8x8_d_ssd1320.c **** OLED_WR_Byte(0x00,OLED_CMD);
 382:..\u8g2\csrc/u8x8_d_ssd1320.c **** OLED_WR_Byte(0x25,OLED_CMD);//Set Portrait Addressing Mode
 383:..\u8g2\csrc/u8x8_d_ssd1320.c **** OLED_WR_Byte(0x00,OLED_CMD);//Normal Addressing Mode
 384:..\u8g2\csrc/u8x8_d_ssd1320.c **** OLED_WR_Byte(0x81,OLED_CMD);//Set Contrast Control
 385:..\u8g2\csrc/u8x8_d_ssd1320.c **** OLED_WR_Byte(0x6b,OLED_CMD);
 386:..\u8g2\csrc/u8x8_d_ssd1320.c **** OLED_WR_Byte1(0xa0,OLED_CMD,1);//Set Seg Remap LEFT DISPLAY
 387:..\u8g2\csrc/u8x8_d_ssd1320.c **** OLED_WR_Byte1(0xa1,OLED_CMD,2);//Set Seg Remap RIGHT DISPLAY
 388:..\u8g2\csrc/u8x8_d_ssd1320.c **** OLED_WR_Byte(0xa2,OLED_CMD);//Set Display Start Line
 389:..\u8g2\csrc/u8x8_d_ssd1320.c **** OLED_WR_Byte(0x00,OLED_CMD);
 390:..\u8g2\csrc/u8x8_d_ssd1320.c **** OLED_WR_Byte(0xa4,OLED_CMD);//Resume to RAM content display
 391:..\u8g2\csrc/u8x8_d_ssd1320.c **** OLED_WR_Byte(0xa6,OLED_CMD);//Set Normal Display
 392:..\u8g2\csrc/u8x8_d_ssd1320.c **** 
ARM GAS  C:\Users\brian\AppData\Local\Temp\ccgECwTa.s 			page 16


 393:..\u8g2\csrc/u8x8_d_ssd1320.c **** OLED_WR_Byte(0xa8,OLED_CMD);//Set MUX Ratio
 394:..\u8g2\csrc/u8x8_d_ssd1320.c **** OLED_WR_Byte(0x83,OLED_CMD);//1/132 duty
 395:..\u8g2\csrc/u8x8_d_ssd1320.c **** 
 396:..\u8g2\csrc/u8x8_d_ssd1320.c **** OLED_WR_Byte(0xad,OLED_CMD);//Select external or internal IREF
 397:..\u8g2\csrc/u8x8_d_ssd1320.c **** OLED_WR_Byte(0x10,OLED_CMD);
 398:..\u8g2\csrc/u8x8_d_ssd1320.c **** OLED_WR_Byte(0xbc,OLED_CMD);//Set Pre-charge voltage
 399:..\u8g2\csrc/u8x8_d_ssd1320.c **** OLED_WR_Byte(0x1e,OLED_CMD);//
 400:..\u8g2\csrc/u8x8_d_ssd1320.c **** OLED_WR_Byte(0xbf,OLED_CMD);//Linear LUT
 401:..\u8g2\csrc/u8x8_d_ssd1320.c **** OLED_WR_Byte1(0xc8,OLED_CMD,1);//Set COM Output Scan Direction LEFT DISPLAY
 402:..\u8g2\csrc/u8x8_d_ssd1320.c **** OLED_WR_Byte1(0xc0,OLED_CMD,2);//Set COM Output Scan Direction RIGHT DISPLAY
 403:..\u8g2\csrc/u8x8_d_ssd1320.c **** OLED_WR_Byte(0xd3,OLED_CMD);//Set Display Offset
 404:..\u8g2\csrc/u8x8_d_ssd1320.c **** OLED_WR_Byte1(0x0e,OLED_CMD,1); //LEFT DISPLAY
 405:..\u8g2\csrc/u8x8_d_ssd1320.c **** OLED_WR_Byte1(0x92,OLED_CMD,2); // RIGHT DISPLAY
 406:..\u8g2\csrc/u8x8_d_ssd1320.c **** OLED_WR_Byte(0xd5,OLED_CMD);//Set Display Clock Divide Ratio/Oscillator Frequency
 407:..\u8g2\csrc/u8x8_d_ssd1320.c **** OLED_WR_Byte(0xc2,OLED_CMD);//85Hz
 408:..\u8g2\csrc/u8x8_d_ssd1320.c **** OLED_WR_Byte(0xd9,OLED_CMD);//Set Pre-charge Period
 409:..\u8g2\csrc/u8x8_d_ssd1320.c **** OLED_WR_Byte(0x72,OLED_CMD);//
 410:..\u8g2\csrc/u8x8_d_ssd1320.c **** OLED_WR_Byte(0xda,OLED_CMD);//Set SEG Pins Hardware Configuration
 411:..\u8g2\csrc/u8x8_d_ssd1320.c **** OLED_WR_Byte(0x32,OLED_CMD);
 412:..\u8g2\csrc/u8x8_d_ssd1320.c **** OLED_WR_Byte(0xbd,OLED_CMD);//Set VP
 413:..\u8g2\csrc/u8x8_d_ssd1320.c **** OLED_WR_Byte(0x03,OLED_CMD);
 414:..\u8g2\csrc/u8x8_d_ssd1320.c **** OLED_WR_Byte(0xdb,OLED_CMD);//Set VCOMH
 415:..\u8g2\csrc/u8x8_d_ssd1320.c **** OLED_WR_Byte(0x30,OLED_CMD);
 416:..\u8g2\csrc/u8x8_d_ssd1320.c **** OLED_WR_Byte(0xaf,OLED_CMD);//Display on
 417:..\u8g2\csrc/u8x8_d_ssd1320.c **** */
 418:..\u8g2\csrc/u8x8_d_ssd1320.c **** static const uint8_t u8x8_d_ssd1320_160x132_init_seq[] = {
 419:..\u8g2\csrc/u8x8_d_ssd1320.c ****     U8X8_DLY(1),
 420:..\u8g2\csrc/u8x8_d_ssd1320.c ****     U8X8_START_TRANSFER(),    /* enable chip, delay is part of the transfer start */
 421:..\u8g2\csrc/u8x8_d_ssd1320.c ****     U8X8_DLY(1),
 422:..\u8g2\csrc/u8x8_d_ssd1320.c ****     
 423:..\u8g2\csrc/u8x8_d_ssd1320.c ****     U8X8_C(0xae),		          /* display off */
 424:..\u8g2\csrc/u8x8_d_ssd1320.c ****     U8X8_CA(0xd5, 0xC2),	/* set display clock divide ratio/oscillator frequency (set clock as 80 fr
 425:..\u8g2\csrc/u8x8_d_ssd1320.c ****     U8X8_CA(0xa8, 0x83),	/* multiplex ratio 1/132 Duty  */  
 426:..\u8g2\csrc/u8x8_d_ssd1320.c ****     U8X8_CA(0xa2, 0x00),	/* display start line */  
 427:..\u8g2\csrc/u8x8_d_ssd1320.c **** 
 428:..\u8g2\csrc/u8x8_d_ssd1320.c ****     U8X8_C(0xa0),	                /* Set Segment Re-Map: column address 0 mapped to SEG0  CS1 */ 
 429:..\u8g2\csrc/u8x8_d_ssd1320.c ****     // U8X8_C(0xa1),	      	/* Set Segment Re-Map: column address 0 mapped to SEG0  CS2 */ 
 430:..\u8g2\csrc/u8x8_d_ssd1320.c **** 
 431:..\u8g2\csrc/u8x8_d_ssd1320.c ****     U8X8_C(0xc8),	             	/* Set COM Output Scan Direction: normal mode CS1 */
 432:..\u8g2\csrc/u8x8_d_ssd1320.c ****     // U8X8_C(0xc0),		/* Set COM Output Scan Direction: normal mode CS2 */
 433:..\u8g2\csrc/u8x8_d_ssd1320.c **** 
 434:..\u8g2\csrc/u8x8_d_ssd1320.c ****     U8X8_CA(0xad, 0x10), 		/* select Iref: 0x00 external (reset default), 0x10 internal */
 435:..\u8g2\csrc/u8x8_d_ssd1320.c ****     U8X8_CA(0xbc, 0x1e), 		/* pre-charge voltage level 0x00..0x1f, reset default: 0x1e */
 436:..\u8g2\csrc/u8x8_d_ssd1320.c ****     U8X8_C(0xbf),		        	/* select linear LUT */  
 437:..\u8g2\csrc/u8x8_d_ssd1320.c ****     U8X8_CA(0xd5, 0xc2), 		/* Bit 0..3: clock ratio 1, 2, 4, 8, ...256, reset=0x1, Bit 4..7: F_osc 
 438:..\u8g2\csrc/u8x8_d_ssd1320.c ****     U8X8_CA(0xd9, 0x72),		/* Set Phase 1&2 Length, Bit 0..3: Phase 1, Bit 4..7: Phase 2, reset defa
 439:..\u8g2\csrc/u8x8_d_ssd1320.c ****     U8X8_CA(0xbd, 0x03), 		/* from the vendor init sequence */
 440:..\u8g2\csrc/u8x8_d_ssd1320.c ****     U8X8_CA(0xdb, 0x30),		  /* VCOMH Deselect Level */
 441:..\u8g2\csrc/u8x8_d_ssd1320.c **** 
 442:..\u8g2\csrc/u8x8_d_ssd1320.c ****   
 443:..\u8g2\csrc/u8x8_d_ssd1320.c ****     U8X8_CA(0xd3, 0x0e),        /* CS1 */
 444:..\u8g2\csrc/u8x8_d_ssd1320.c ****     // U8X8_CA(0xd3, 0x92),        /* CS2 */
 445:..\u8g2\csrc/u8x8_d_ssd1320.c ****     
 446:..\u8g2\csrc/u8x8_d_ssd1320.c ****     U8X8_CA(0xda, 0x12),	/* Set SEG Pins Hardware Configuration:  */  
 447:..\u8g2\csrc/u8x8_d_ssd1320.c ****     U8X8_CA(0x81, 0x6b),			/* contrast */  
 448:..\u8g2\csrc/u8x8_d_ssd1320.c ****     //U8X8_CA(0xd9, 0x22),			/* Set Phase Length */  
 449:..\u8g2\csrc/u8x8_d_ssd1320.c ****     //U8X8_CA(0xdb, 0x30),		  /* VCOMH Deselect Level */
ARM GAS  C:\Users\brian\AppData\Local\Temp\ccgECwTa.s 			page 17


 450:..\u8g2\csrc/u8x8_d_ssd1320.c ****     //U8X8_CA(0xad, 0x10),			/* Internal IREF Enable */  
 451:..\u8g2\csrc/u8x8_d_ssd1320.c ****     U8X8_CA(0x20, 0x00),	    /* Memory Addressing Mode: Horizontal */  
 452:..\u8g2\csrc/u8x8_d_ssd1320.c ****     //U8X8_CA(0x8d, 0x01),			/* unknown in SSD1320 datasheet, disable internal charge pump 1 */  
 453:..\u8g2\csrc/u8x8_d_ssd1320.c ****     //U8X8_CA(0xac, 0x00),			/* unknown in SSD1320 datasheet, disable internal charge pump 2 */  
 454:..\u8g2\csrc/u8x8_d_ssd1320.c ****     U8X8_C(0xa4),		        	/* display RAM on */  
 455:..\u8g2\csrc/u8x8_d_ssd1320.c ****     U8X8_C(0xa6),		          /* normal display */
 456:..\u8g2\csrc/u8x8_d_ssd1320.c **** 
 457:..\u8g2\csrc/u8x8_d_ssd1320.c ****     U8X8_DLY(1),					/* delay 2ms */
 458:..\u8g2\csrc/u8x8_d_ssd1320.c **** 
 459:..\u8g2\csrc/u8x8_d_ssd1320.c ****     U8X8_END_TRANSFER(),             	/* disable chip */
 460:..\u8g2\csrc/u8x8_d_ssd1320.c ****     U8X8_END()             			/* end of sequence */
 461:..\u8g2\csrc/u8x8_d_ssd1320.c **** };
 462:..\u8g2\csrc/u8x8_d_ssd1320.c **** 
 463:..\u8g2\csrc/u8x8_d_ssd1320.c **** uint8_t u8x8_d_ssd1320_160x132(u8x8_t *u8x8, uint8_t msg, uint8_t arg_int, void *arg_ptr)
 464:..\u8g2\csrc/u8x8_d_ssd1320.c **** {
 420              		.loc 1 464 0
 421              		.cfi_startproc
 422              		@ args = 0, pretend = 0, frame = 0
 423              		@ frame_needed = 0, uses_anonymous_args = 0
 424              	.LVL72:
 425 0000 10B5     		push	{r4, lr}
 426              		.cfi_def_cfa_offset 8
 427              		.cfi_offset 4, -8
 428              		.cfi_offset 14, -4
 429 0002 0446     		mov	r4, r0
 465:..\u8g2\csrc/u8x8_d_ssd1320.c ****   switch(msg)
 430              		.loc 1 465 0
 431 0004 0A29     		cmp	r1, #10
 432 0006 08D0     		beq	.L38
 433 0008 0D29     		cmp	r1, #13
 434 000a 0ED0     		beq	.L39
 435 000c 0929     		cmp	r1, #9
 436 000e 1FD1     		bne	.L43
 466:..\u8g2\csrc/u8x8_d_ssd1320.c ****   {
 467:..\u8g2\csrc/u8x8_d_ssd1320.c ****     case U8X8_MSG_DISPLAY_SETUP_MEMORY:
 468:..\u8g2\csrc/u8x8_d_ssd1320.c ****         u8x8_d_helper_display_setup_memory(u8x8, &u8x8_d_ssd1320_cs1_160x132_display_info);
 437              		.loc 1 468 0
 438 0010 1149     		ldr	r1, .L45
 439              	.LVL73:
 440 0012 FFF7FEFF 		bl	u8x8_d_helper_display_setup_memory
 441              	.LVL74:
 469:..\u8g2\csrc/u8x8_d_ssd1320.c ****     
 470:..\u8g2\csrc/u8x8_d_ssd1320.c ****       break;
 471:..\u8g2\csrc/u8x8_d_ssd1320.c **** 
 472:..\u8g2\csrc/u8x8_d_ssd1320.c ****     case U8X8_MSG_DISPLAY_INIT:
 473:..\u8g2\csrc/u8x8_d_ssd1320.c ****         u8x8_d_helper_display_init(u8x8);
 474:..\u8g2\csrc/u8x8_d_ssd1320.c ****        // u8x8_cad_SendSequence(u8x8, u8x8_d_ssd1320_cs1_160x132_init_seq);
 475:..\u8g2\csrc/u8x8_d_ssd1320.c ****         u8x8_cad_SendSequence(u8x8, u8x8_d_ssd1320_160x132_init_seq);
 476:..\u8g2\csrc/u8x8_d_ssd1320.c ****       break;
 477:..\u8g2\csrc/u8x8_d_ssd1320.c **** 
 478:..\u8g2\csrc/u8x8_d_ssd1320.c ****     case U8X8_MSG_DISPLAY_SET_FLIP_MODE:
 479:..\u8g2\csrc/u8x8_d_ssd1320.c ****       if ( arg_int == 0 ){
 480:..\u8g2\csrc/u8x8_d_ssd1320.c ****         u8x8_cad_SendSequence(u8x8, u8x8_d_ssd1320_cs1_160x132_nhd_flip0_seq);
 481:..\u8g2\csrc/u8x8_d_ssd1320.c ****         u8x8->x_offset = u8x8->display_info->default_x_offset;
 482:..\u8g2\csrc/u8x8_d_ssd1320.c ****       }
 483:..\u8g2\csrc/u8x8_d_ssd1320.c ****       else{
 484:..\u8g2\csrc/u8x8_d_ssd1320.c ****         u8x8_cad_SendSequence(u8x8, u8x8_d_ssd1320_cs1_160x132_nhd_flip1_seq);
ARM GAS  C:\Users\brian\AppData\Local\Temp\ccgECwTa.s 			page 18


 485:..\u8g2\csrc/u8x8_d_ssd1320.c ****         u8x8->x_offset = u8x8->display_info->flipmode_x_offset;
 486:..\u8g2\csrc/u8x8_d_ssd1320.c ****       }
 487:..\u8g2\csrc/u8x8_d_ssd1320.c ****       break;
 488:..\u8g2\csrc/u8x8_d_ssd1320.c ****     
 489:..\u8g2\csrc/u8x8_d_ssd1320.c ****     default:
 490:..\u8g2\csrc/u8x8_d_ssd1320.c ****       return u8x8_d_ssd1320_common(u8x8, msg, arg_int, arg_ptr);
 491:..\u8g2\csrc/u8x8_d_ssd1320.c ****   }
 492:..\u8g2\csrc/u8x8_d_ssd1320.c ****   return 1;
 442              		.loc 1 492 0
 443 0016 0120     		movs	r0, #1
 470:..\u8g2\csrc/u8x8_d_ssd1320.c **** 
 444              		.loc 1 470 0
 445 0018 10BD     		pop	{r4, pc}
 446              	.LVL75:
 447              	.L38:
 473:..\u8g2\csrc/u8x8_d_ssd1320.c ****        // u8x8_cad_SendSequence(u8x8, u8x8_d_ssd1320_cs1_160x132_init_seq);
 448              		.loc 1 473 0
 449 001a FFF7FEFF 		bl	u8x8_d_helper_display_init
 450              	.LVL76:
 475:..\u8g2\csrc/u8x8_d_ssd1320.c ****       break;
 451              		.loc 1 475 0
 452 001e 0F49     		ldr	r1, .L45+4
 453 0020 2046     		mov	r0, r4
 454 0022 FFF7FEFF 		bl	u8x8_cad_SendSequence
 455              	.LVL77:
 456              		.loc 1 492 0
 457 0026 0120     		movs	r0, #1
 476:..\u8g2\csrc/u8x8_d_ssd1320.c **** 
 458              		.loc 1 476 0
 459 0028 10BD     		pop	{r4, pc}
 460              	.LVL78:
 461              	.L39:
 479:..\u8g2\csrc/u8x8_d_ssd1320.c ****         u8x8_cad_SendSequence(u8x8, u8x8_d_ssd1320_cs1_160x132_nhd_flip0_seq);
 462              		.loc 1 479 0
 463 002a 42B9     		cbnz	r2, .L42
 480:..\u8g2\csrc/u8x8_d_ssd1320.c ****         u8x8->x_offset = u8x8->display_info->default_x_offset;
 464              		.loc 1 480 0
 465 002c 0C49     		ldr	r1, .L45+8
 466              	.LVL79:
 467 002e FFF7FEFF 		bl	u8x8_cad_SendSequence
 468              	.LVL80:
 481:..\u8g2\csrc/u8x8_d_ssd1320.c ****       }
 469              		.loc 1 481 0
 470 0032 2368     		ldr	r3, [r4]
 471 0034 9B7C     		ldrb	r3, [r3, #18]	@ zero_extendqisi2
 472 0036 84F82230 		strb	r3, [r4, #34]
 473              		.loc 1 492 0
 474 003a 0120     		movs	r0, #1
 475 003c 10BD     		pop	{r4, pc}
 476              	.LVL81:
 477              	.L42:
 484:..\u8g2\csrc/u8x8_d_ssd1320.c ****         u8x8->x_offset = u8x8->display_info->flipmode_x_offset;
 478              		.loc 1 484 0
 479 003e 0949     		ldr	r1, .L45+12
 480              	.LVL82:
 481 0040 FFF7FEFF 		bl	u8x8_cad_SendSequence
 482              	.LVL83:
ARM GAS  C:\Users\brian\AppData\Local\Temp\ccgECwTa.s 			page 19


 485:..\u8g2\csrc/u8x8_d_ssd1320.c ****       }
 483              		.loc 1 485 0
 484 0044 2368     		ldr	r3, [r4]
 485 0046 DB7C     		ldrb	r3, [r3, #19]	@ zero_extendqisi2
 486 0048 84F82230 		strb	r3, [r4, #34]
 487              		.loc 1 492 0
 488 004c 0120     		movs	r0, #1
 489 004e 10BD     		pop	{r4, pc}
 490              	.LVL84:
 491              	.L43:
 490:..\u8g2\csrc/u8x8_d_ssd1320.c ****   }
 492              		.loc 1 490 0
 493 0050 FFF7FEFF 		bl	u8x8_d_ssd1320_common
 494              	.LVL85:
 493:..\u8g2\csrc/u8x8_d_ssd1320.c **** }
 495              		.loc 1 493 0
 496 0054 10BD     		pop	{r4, pc}
 497              	.LVL86:
 498              	.L46:
 499 0056 00BF     		.align	2
 500              	.L45:
 501 0058 7C000000 		.word	.LANCHOR1+124
 502 005c 94000000 		.word	.LANCHOR1+148
 503 0060 E0000000 		.word	.LANCHOR1+224
 504 0064 EC000000 		.word	.LANCHOR1+236
 505              		.cfi_endproc
 506              	.LFE3:
 507              		.size	u8x8_d_ssd1320_160x132, .-u8x8_d_ssd1320_160x132
 508              		.section	.rodata
 509              		.align	2
 510              		.set	.LANCHOR1,. + 0
 511              		.type	u8x8_d_ssd1320_cs1_160x132_nhd_powersave0_seq, %object
 512              		.size	u8x8_d_ssd1320_cs1_160x132_nhd_powersave0_seq, 5
 513              	u8x8_d_ssd1320_cs1_160x132_nhd_powersave0_seq:
 514 0000 18       		.byte	24
 515 0001 15       		.byte	21
 516 0002 AF       		.byte	-81
 517 0003 19       		.byte	25
 518 0004 FF       		.byte	-1
 519 0005 000000   		.space	3
 520              		.type	u8x8_d_ssd1320_cs1_160x132_nhd_powersave1_seq, %object
 521              		.size	u8x8_d_ssd1320_cs1_160x132_nhd_powersave1_seq, 5
 522              	u8x8_d_ssd1320_cs1_160x132_nhd_powersave1_seq:
 523 0008 18       		.byte	24
 524 0009 15       		.byte	21
 525 000a AE       		.byte	-82
 526 000b 19       		.byte	25
 527 000c FF       		.byte	-1
 528 000d 000000   		.space	3
 529              		.type	u8x8_d_ssd1320_cs1_160x32_display_info, %object
 530              		.size	u8x8_d_ssd1320_cs1_160x32_display_info, 24
 531              	u8x8_d_ssd1320_cs1_160x32_display_info:
 532 0010 00       		.byte	0
 533 0011 01       		.byte	1
 534 0012 14       		.byte	20
 535 0013 0A       		.byte	10
 536 0014 64       		.byte	100
ARM GAS  C:\Users\brian\AppData\Local\Temp\ccgECwTa.s 			page 20


 537 0015 64       		.byte	100
 538 0016 32       		.byte	50
 539 0017 32       		.byte	50
 540 0018 80969800 		.word	10000000
 541 001c 00       		.byte	0
 542 001d 04       		.byte	4
 543 001e 0A       		.byte	10
 544 001f 96       		.byte	-106
 545 0020 14       		.byte	20
 546 0021 04       		.byte	4
 547 0022 00       		.byte	0
 548 0023 00       		.byte	0
 549 0024 A000     		.short	160
 550 0026 2000     		.short	32
 551              		.type	u8x8_d_ssd1320_cs1_160x32_init_seq, %object
 552              		.size	u8x8_d_ssd1320_cs1_160x32_init_seq, 67
 553              	u8x8_d_ssd1320_cs1_160x32_init_seq:
 554 0028 FE       		.byte	-2
 555 0029 01       		.byte	1
 556 002a 18       		.byte	24
 557 002b FE       		.byte	-2
 558 002c 01       		.byte	1
 559 002d 15       		.byte	21
 560 002e AE       		.byte	-82
 561 002f 15       		.byte	21
 562 0030 D5       		.byte	-43
 563 0031 16       		.byte	22
 564 0032 C2       		.byte	-62
 565 0033 15       		.byte	21
 566 0034 A8       		.byte	-88
 567 0035 16       		.byte	22
 568 0036 1F       		.byte	31
 569 0037 15       		.byte	21
 570 0038 A2       		.byte	-94
 571 0039 16       		.byte	22
 572 003a 00       		.byte	0
 573 003b 15       		.byte	21
 574 003c A0       		.byte	-96
 575 003d 15       		.byte	21
 576 003e C8       		.byte	-56
 577 003f 15       		.byte	21
 578 0040 D3       		.byte	-45
 579 0041 16       		.byte	22
 580 0042 72       		.byte	114
 581 0043 15       		.byte	21
 582 0044 DA       		.byte	-38
 583 0045 16       		.byte	22
 584 0046 12       		.byte	18
 585 0047 15       		.byte	21
 586 0048 81       		.byte	-127
 587 0049 16       		.byte	22
 588 004a 5A       		.byte	90
 589 004b 15       		.byte	21
 590 004c D9       		.byte	-39
 591 004d 16       		.byte	22
 592 004e 22       		.byte	34
 593 004f 15       		.byte	21
ARM GAS  C:\Users\brian\AppData\Local\Temp\ccgECwTa.s 			page 21


 594 0050 DB       		.byte	-37
 595 0051 16       		.byte	22
 596 0052 30       		.byte	48
 597 0053 15       		.byte	21
 598 0054 AD       		.byte	-83
 599 0055 16       		.byte	22
 600 0056 10       		.byte	16
 601 0057 15       		.byte	21
 602 0058 20       		.byte	32
 603 0059 16       		.byte	22
 604 005a 00       		.byte	0
 605 005b 15       		.byte	21
 606 005c 8D       		.byte	-115
 607 005d 16       		.byte	22
 608 005e 01       		.byte	1
 609 005f 15       		.byte	21
 610 0060 AC       		.byte	-84
 611 0061 16       		.byte	22
 612 0062 00       		.byte	0
 613 0063 15       		.byte	21
 614 0064 A4       		.byte	-92
 615 0065 15       		.byte	21
 616 0066 A6       		.byte	-90
 617 0067 FE       		.byte	-2
 618 0068 01       		.byte	1
 619 0069 19       		.byte	25
 620 006a FF       		.byte	-1
 621 006b 00       		.space	1
 622              		.type	u8x8_d_ssd1320_cs1_160x32_nhd_flip0_seq, %object
 623              		.size	u8x8_d_ssd1320_cs1_160x32_nhd_flip0_seq, 5
 624              	u8x8_d_ssd1320_cs1_160x32_nhd_flip0_seq:
 625 006c 18       		.byte	24
 626 006d 15       		.byte	21
 627 006e A0       		.byte	-96
 628 006f 19       		.byte	25
 629 0070 FF       		.byte	-1
 630 0071 000000   		.space	3
 631              		.type	u8x8_d_ssd1320_cs1_160x32_nhd_flip1_seq, %object
 632              		.size	u8x8_d_ssd1320_cs1_160x32_nhd_flip1_seq, 5
 633              	u8x8_d_ssd1320_cs1_160x32_nhd_flip1_seq:
 634 0074 18       		.byte	24
 635 0075 15       		.byte	21
 636 0076 A1       		.byte	-95
 637 0077 19       		.byte	25
 638 0078 FF       		.byte	-1
 639 0079 000000   		.space	3
 640              		.type	u8x8_d_ssd1320_cs1_160x132_display_info, %object
 641              		.size	u8x8_d_ssd1320_cs1_160x132_display_info, 24
 642              	u8x8_d_ssd1320_cs1_160x132_display_info:
 643 007c 00       		.byte	0
 644 007d 01       		.byte	1
 645 007e 14       		.byte	20
 646 007f 0A       		.byte	10
 647 0080 64       		.byte	100
 648 0081 64       		.byte	100
 649 0082 32       		.byte	50
 650 0083 32       		.byte	50
ARM GAS  C:\Users\brian\AppData\Local\Temp\ccgECwTa.s 			page 22


 651 0084 80969800 		.word	10000000
 652 0088 00       		.byte	0
 653 0089 04       		.byte	4
 654 008a 0A       		.byte	10
 655 008b 96       		.byte	-106
 656 008c 14       		.byte	20
 657 008d 11       		.byte	17
 658 008e 00       		.byte	0
 659 008f 00       		.byte	0
 660 0090 A000     		.short	160
 661 0092 8400     		.short	132
 662              		.type	u8x8_d_ssd1320_160x132_init_seq, %object
 663              		.size	u8x8_d_ssd1320_160x132_init_seq, 73
 664              	u8x8_d_ssd1320_160x132_init_seq:
 665 0094 FE       		.byte	-2
 666 0095 01       		.byte	1
 667 0096 18       		.byte	24
 668 0097 FE       		.byte	-2
 669 0098 01       		.byte	1
 670 0099 15       		.byte	21
 671 009a AE       		.byte	-82
 672 009b 15       		.byte	21
 673 009c D5       		.byte	-43
 674 009d 16       		.byte	22
 675 009e C2       		.byte	-62
 676 009f 15       		.byte	21
 677 00a0 A8       		.byte	-88
 678 00a1 16       		.byte	22
 679 00a2 83       		.byte	-125
 680 00a3 15       		.byte	21
 681 00a4 A2       		.byte	-94
 682 00a5 16       		.byte	22
 683 00a6 00       		.byte	0
 684 00a7 15       		.byte	21
 685 00a8 A0       		.byte	-96
 686 00a9 15       		.byte	21
 687 00aa C8       		.byte	-56
 688 00ab 15       		.byte	21
 689 00ac AD       		.byte	-83
 690 00ad 16       		.byte	22
 691 00ae 10       		.byte	16
 692 00af 15       		.byte	21
 693 00b0 BC       		.byte	-68
 694 00b1 16       		.byte	22
 695 00b2 1E       		.byte	30
 696 00b3 15       		.byte	21
 697 00b4 BF       		.byte	-65
 698 00b5 15       		.byte	21
 699 00b6 D5       		.byte	-43
 700 00b7 16       		.byte	22
 701 00b8 C2       		.byte	-62
 702 00b9 15       		.byte	21
 703 00ba D9       		.byte	-39
 704 00bb 16       		.byte	22
 705 00bc 72       		.byte	114
 706 00bd 15       		.byte	21
 707 00be BD       		.byte	-67
ARM GAS  C:\Users\brian\AppData\Local\Temp\ccgECwTa.s 			page 23


 708 00bf 16       		.byte	22
 709 00c0 03       		.byte	3
 710 00c1 15       		.byte	21
 711 00c2 DB       		.byte	-37
 712 00c3 16       		.byte	22
 713 00c4 30       		.byte	48
 714 00c5 15       		.byte	21
 715 00c6 D3       		.byte	-45
 716 00c7 16       		.byte	22
 717 00c8 0E       		.byte	14
 718 00c9 15       		.byte	21
 719 00ca DA       		.byte	-38
 720 00cb 16       		.byte	22
 721 00cc 12       		.byte	18
 722 00cd 15       		.byte	21
 723 00ce 81       		.byte	-127
 724 00cf 16       		.byte	22
 725 00d0 6B       		.byte	107
 726 00d1 15       		.byte	21
 727 00d2 20       		.byte	32
 728 00d3 16       		.byte	22
 729 00d4 00       		.byte	0
 730 00d5 15       		.byte	21
 731 00d6 A4       		.byte	-92
 732 00d7 15       		.byte	21
 733 00d8 A6       		.byte	-90
 734 00d9 FE       		.byte	-2
 735 00da 01       		.byte	1
 736 00db 19       		.byte	25
 737 00dc FF       		.byte	-1
 738 00dd 000000   		.space	3
 739              		.type	u8x8_d_ssd1320_cs1_160x132_nhd_flip0_seq, %object
 740              		.size	u8x8_d_ssd1320_cs1_160x132_nhd_flip0_seq, 11
 741              	u8x8_d_ssd1320_cs1_160x132_nhd_flip0_seq:
 742 00e0 18       		.byte	24
 743 00e1 15       		.byte	21
 744 00e2 A0       		.byte	-96
 745 00e3 15       		.byte	21
 746 00e4 C8       		.byte	-56
 747 00e5 15       		.byte	21
 748 00e6 D3       		.byte	-45
 749 00e7 16       		.byte	22
 750 00e8 0E       		.byte	14
 751 00e9 19       		.byte	25
 752 00ea FF       		.byte	-1
 753 00eb 00       		.space	1
 754              		.type	u8x8_d_ssd1320_cs1_160x132_nhd_flip1_seq, %object
 755              		.size	u8x8_d_ssd1320_cs1_160x132_nhd_flip1_seq, 11
 756              	u8x8_d_ssd1320_cs1_160x132_nhd_flip1_seq:
 757 00ec 18       		.byte	24
 758 00ed 15       		.byte	21
 759 00ee A1       		.byte	-95
 760 00ef 15       		.byte	21
 761 00f0 C0       		.byte	-64
 762 00f1 15       		.byte	21
 763 00f2 D3       		.byte	-45
 764 00f3 16       		.byte	22
ARM GAS  C:\Users\brian\AppData\Local\Temp\ccgECwTa.s 			page 24


 765 00f4 92       		.byte	-110
 766 00f5 19       		.byte	25
 767 00f6 FF       		.byte	-1
 768              		.bss
 769              		.align	2
 770              		.set	.LANCHOR0,. + 0
 771              		.type	u8x8_ssd1320_to32_dest_buf, %object
 772              		.size	u8x8_ssd1320_to32_dest_buf, 32
 773              	u8x8_ssd1320_to32_dest_buf:
 774 0000 00000000 		.space	32
 774      00000000 
 774      00000000 
 774      00000000 
 774      00000000 
 775              		.text
 776              	.Letext0:
 777              		.file 2 "c:\\program files (x86)\\cypress\\psoc creator\\4.4\\psoc creator\\import\\gnu\\arm\\5.4.
 778              		.file 3 "c:\\program files (x86)\\cypress\\psoc creator\\4.4\\psoc creator\\import\\gnu\\arm\\5.4.
 779              		.file 4 "..\\u8g2\\csrc\\u8x8.h"