ARM GAS  C:\Users\brian\AppData\Local\Temp\ccHikCPz.s 			page 1


   1              		.syntax unified
   2              		.cpu cortex-m3
   3              		.fpu softvfp
   4              		.eabi_attribute 20, 1
   5              		.eabi_attribute 21, 1
   6              		.eabi_attribute 23, 3
   7              		.eabi_attribute 24, 1
   8              		.eabi_attribute 25, 1
   9              		.eabi_attribute 26, 1
  10              		.eabi_attribute 30, 1
  11              		.eabi_attribute 34, 1
  12              		.eabi_attribute 18, 4
  13              		.thumb
  14              		.syntax unified
  15              		.file	"u8x8_d_sh1107.c"
  16              		.text
  17              	.Ltext0:
  18              		.cfi_sections	.debug_frame
  19              		.section	.text.u8x8_d_sh1107_generic,"ax",%progbits
  20              		.align	2
  21              		.thumb
  22              		.thumb_func
  23              		.type	u8x8_d_sh1107_generic, %function
  24              	u8x8_d_sh1107_generic:
  25              	.LFB0:
  26              		.file 1 "..\\u8g2\\csrc\\u8x8_d_sh1107.c"
   1:..\u8g2\csrc/u8x8_d_sh1107.c **** /*
   2:..\u8g2\csrc/u8x8_d_sh1107.c **** 
   3:..\u8g2\csrc/u8x8_d_sh1107.c ****   u8x8_d_sh1107.c
   4:..\u8g2\csrc/u8x8_d_sh1107.c **** 
   5:..\u8g2\csrc/u8x8_d_sh1107.c ****   Universal 8bit Graphics Library (https://github.com/olikraus/u8g2/)
   6:..\u8g2\csrc/u8x8_d_sh1107.c **** 
   7:..\u8g2\csrc/u8x8_d_sh1107.c ****   Copyright (c) 2017, olikraus@gmail.com
   8:..\u8g2\csrc/u8x8_d_sh1107.c ****   All rights reserved.
   9:..\u8g2\csrc/u8x8_d_sh1107.c **** 
  10:..\u8g2\csrc/u8x8_d_sh1107.c ****   Redistribution and use in source and binary forms, with or without modification, 
  11:..\u8g2\csrc/u8x8_d_sh1107.c ****   are permitted provided that the following conditions are met:
  12:..\u8g2\csrc/u8x8_d_sh1107.c **** 
  13:..\u8g2\csrc/u8x8_d_sh1107.c ****   * Redistributions of source code must retain the above copyright notice, this list 
  14:..\u8g2\csrc/u8x8_d_sh1107.c ****     of conditions and the following disclaimer.
  15:..\u8g2\csrc/u8x8_d_sh1107.c ****     
  16:..\u8g2\csrc/u8x8_d_sh1107.c ****   * Redistributions in binary form must reproduce the above copyright notice, this 
  17:..\u8g2\csrc/u8x8_d_sh1107.c ****     list of conditions and the following disclaimer in the documentation and/or other 
  18:..\u8g2\csrc/u8x8_d_sh1107.c ****     materials provided with the distribution.
  19:..\u8g2\csrc/u8x8_d_sh1107.c **** 
  20:..\u8g2\csrc/u8x8_d_sh1107.c ****   THIS SOFTWARE IS PROVIDED BY THE COPYRIGHT HOLDERS AND 
  21:..\u8g2\csrc/u8x8_d_sh1107.c ****   CONTRIBUTORS "AS IS" AND ANY EXPRESS OR IMPLIED WARRANTIES, 
  22:..\u8g2\csrc/u8x8_d_sh1107.c ****   INCLUDING, BUT NOT LIMITED TO, THE IMPLIED WARRANTIES OF 
  23:..\u8g2\csrc/u8x8_d_sh1107.c ****   MERCHANTABILITY AND FITNESS FOR A PARTICULAR PURPOSE ARE 
  24:..\u8g2\csrc/u8x8_d_sh1107.c ****   DISCLAIMED. IN NO EVENT SHALL THE COPYRIGHT HOLDER OR 
  25:..\u8g2\csrc/u8x8_d_sh1107.c ****   CONTRIBUTORS BE LIABLE FOR ANY DIRECT, INDIRECT, INCIDENTAL, 
  26:..\u8g2\csrc/u8x8_d_sh1107.c ****   SPECIAL, EXEMPLARY, OR CONSEQUENTIAL DAMAGES (INCLUDING, BUT 
  27:..\u8g2\csrc/u8x8_d_sh1107.c ****   NOT LIMITED TO, PROCUREMENT OF SUBSTITUTE GOODS OR SERVICES; 
  28:..\u8g2\csrc/u8x8_d_sh1107.c ****   LOSS OF USE, DATA, OR PROFITS; OR BUSINESS INTERRUPTION) HOWEVER 
  29:..\u8g2\csrc/u8x8_d_sh1107.c ****   CAUSED AND ON ANY THEORY OF LIABILITY, WHETHER IN CONTRACT, 
  30:..\u8g2\csrc/u8x8_d_sh1107.c ****   STRICT LIABILITY, OR TORT (INCLUDING NEGLIGENCE OR OTHERWISE) 
  31:..\u8g2\csrc/u8x8_d_sh1107.c ****   ARISING IN ANY WAY OUT OF THE USE OF THIS SOFTWARE, EVEN IF 
ARM GAS  C:\Users\brian\AppData\Local\Temp\ccHikCPz.s 			page 2


  32:..\u8g2\csrc/u8x8_d_sh1107.c ****   ADVISED OF THE POSSIBILITY OF SUCH DAMAGE.  
  33:..\u8g2\csrc/u8x8_d_sh1107.c ****   
  34:..\u8g2\csrc/u8x8_d_sh1107.c **** */
  35:..\u8g2\csrc/u8x8_d_sh1107.c **** 
  36:..\u8g2\csrc/u8x8_d_sh1107.c **** 
  37:..\u8g2\csrc/u8x8_d_sh1107.c **** #include "u8x8.h"
  38:..\u8g2\csrc/u8x8_d_sh1107.c **** 
  39:..\u8g2\csrc/u8x8_d_sh1107.c **** /* code copyied from SSD1306 */
  40:..\u8g2\csrc/u8x8_d_sh1107.c **** 
  41:..\u8g2\csrc/u8x8_d_sh1107.c **** 
  42:..\u8g2\csrc/u8x8_d_sh1107.c **** 
  43:..\u8g2\csrc/u8x8_d_sh1107.c **** static const uint8_t u8x8_d_sh1107_64x128_noname_powersave0_seq[] = {
  44:..\u8g2\csrc/u8x8_d_sh1107.c ****   U8X8_START_TRANSFER(),             	/* enable chip, delay is part of the transfer start */
  45:..\u8g2\csrc/u8x8_d_sh1107.c ****   U8X8_C(0x0af),		                /* display on */
  46:..\u8g2\csrc/u8x8_d_sh1107.c ****   U8X8_END_TRANSFER(),             	/* disable chip */
  47:..\u8g2\csrc/u8x8_d_sh1107.c ****   U8X8_END()             			/* end of sequence */
  48:..\u8g2\csrc/u8x8_d_sh1107.c **** };
  49:..\u8g2\csrc/u8x8_d_sh1107.c **** 
  50:..\u8g2\csrc/u8x8_d_sh1107.c **** static const uint8_t u8x8_d_sh1107_64x128_noname_powersave1_seq[] = {
  51:..\u8g2\csrc/u8x8_d_sh1107.c ****   U8X8_START_TRANSFER(),             	/* enable chip, delay is part of the transfer start */
  52:..\u8g2\csrc/u8x8_d_sh1107.c ****   U8X8_C(0x0ae),		                /* display off */
  53:..\u8g2\csrc/u8x8_d_sh1107.c ****   U8X8_END_TRANSFER(),             	/* disable chip */
  54:..\u8g2\csrc/u8x8_d_sh1107.c ****   U8X8_END()             			/* end of sequence */
  55:..\u8g2\csrc/u8x8_d_sh1107.c **** };
  56:..\u8g2\csrc/u8x8_d_sh1107.c **** 
  57:..\u8g2\csrc/u8x8_d_sh1107.c **** static const uint8_t u8x8_d_sh1107_64x128_noname_flip0_seq[] = {
  58:..\u8g2\csrc/u8x8_d_sh1107.c ****   U8X8_START_TRANSFER(),             	/* enable chip, delay is part of the transfer start */
  59:..\u8g2\csrc/u8x8_d_sh1107.c ****   U8X8_C(0x0a1),				/* segment remap a0/a1*/
  60:..\u8g2\csrc/u8x8_d_sh1107.c ****   U8X8_C(0x0c8),				/* c0: scan dir normal, c8: reverse */
  61:..\u8g2\csrc/u8x8_d_sh1107.c ****   U8X8_END_TRANSFER(),             	/* disable chip */
  62:..\u8g2\csrc/u8x8_d_sh1107.c ****   U8X8_END()             			/* end of sequence */
  63:..\u8g2\csrc/u8x8_d_sh1107.c **** };
  64:..\u8g2\csrc/u8x8_d_sh1107.c **** 
  65:..\u8g2\csrc/u8x8_d_sh1107.c **** static const uint8_t u8x8_d_sh1107_64x128_noname_flip1_seq[] = {
  66:..\u8g2\csrc/u8x8_d_sh1107.c ****   U8X8_START_TRANSFER(),             	/* enable chip, delay is part of the transfer start */
  67:..\u8g2\csrc/u8x8_d_sh1107.c ****   U8X8_C(0x0a0),				/* segment remap a0/a1*/
  68:..\u8g2\csrc/u8x8_d_sh1107.c ****   U8X8_C(0x0c0),				/* c0: scan dir normal, c8: reverse */
  69:..\u8g2\csrc/u8x8_d_sh1107.c ****   U8X8_END_TRANSFER(),             	/* disable chip */
  70:..\u8g2\csrc/u8x8_d_sh1107.c ****   U8X8_END()             			/* end of sequence */
  71:..\u8g2\csrc/u8x8_d_sh1107.c **** };
  72:..\u8g2\csrc/u8x8_d_sh1107.c **** 
  73:..\u8g2\csrc/u8x8_d_sh1107.c **** 
  74:..\u8g2\csrc/u8x8_d_sh1107.c **** static uint8_t u8x8_d_sh1107_generic(u8x8_t *u8x8, uint8_t msg, uint8_t arg_int, void *arg_ptr)
  75:..\u8g2\csrc/u8x8_d_sh1107.c **** {
  27              		.loc 1 75 0
  28              		.cfi_startproc
  29              		@ args = 0, pretend = 0, frame = 0
  30              		@ frame_needed = 0, uses_anonymous_args = 0
  31              	.LVL0:
  32 0000 F8B5     		push	{r3, r4, r5, r6, r7, lr}
  33              		.cfi_def_cfa_offset 24
  34              		.cfi_offset 3, -24
  35              		.cfi_offset 4, -20
  36              		.cfi_offset 5, -16
  37              		.cfi_offset 6, -12
  38              		.cfi_offset 7, -8
  39              		.cfi_offset 14, -4
ARM GAS  C:\Users\brian\AppData\Local\Temp\ccHikCPz.s 			page 3


  40 0002 0546     		mov	r5, r0
  41 0004 1446     		mov	r4, r2
  42 0006 1E46     		mov	r6, r3
  76:..\u8g2\csrc/u8x8_d_sh1107.c ****   uint8_t x, c;
  77:..\u8g2\csrc/u8x8_d_sh1107.c ****   uint8_t *ptr;
  78:..\u8g2\csrc/u8x8_d_sh1107.c ****   switch(msg)
  43              		.loc 1 78 0
  44 0008 0B39     		subs	r1, r1, #11
  45              	.LVL1:
  46 000a 0429     		cmp	r1, #4
  47 000c 5CD8     		bhi	.L11
  48 000e DFE801F0 		tbb	[pc, r1]
  49              	.LVL2:
  50              	.L4:
  51 0012 03       		.byte	(.L3-.L4)/2
  52 0013 5B       		.byte	(.L11-.L4)/2
  53 0014 0E       		.byte	(.L5-.L4)/2
  54 0015 21       		.byte	(.L6-.L4)/2
  55 0016 30       		.byte	(.L7-.L4)/2
  56 0017 00       		.p2align 1
  57              	.L3:
  79:..\u8g2\csrc/u8x8_d_sh1107.c ****   {
  80:..\u8g2\csrc/u8x8_d_sh1107.c ****     /* handled by the calling function
  81:..\u8g2\csrc/u8x8_d_sh1107.c ****     case U8X8_MSG_DISPLAY_SETUP_MEMORY:
  82:..\u8g2\csrc/u8x8_d_sh1107.c ****       u8x8_d_helper_display_setup_memory(u8x8, &u8x8_sh1107_64x128_noname_display_info);
  83:..\u8g2\csrc/u8x8_d_sh1107.c ****       break;
  84:..\u8g2\csrc/u8x8_d_sh1107.c ****     */
  85:..\u8g2\csrc/u8x8_d_sh1107.c ****     /* handled by the calling function
  86:..\u8g2\csrc/u8x8_d_sh1107.c ****     case U8X8_MSG_DISPLAY_INIT:
  87:..\u8g2\csrc/u8x8_d_sh1107.c ****       u8x8_d_helper_display_init(u8x8);
  88:..\u8g2\csrc/u8x8_d_sh1107.c ****       u8x8_cad_SendSequence(u8x8, u8x8_d_sh1107_64x128_noname_init_seq);    
  89:..\u8g2\csrc/u8x8_d_sh1107.c ****       break;
  90:..\u8g2\csrc/u8x8_d_sh1107.c ****     */
  91:..\u8g2\csrc/u8x8_d_sh1107.c ****     case U8X8_MSG_DISPLAY_SET_POWER_SAVE:
  92:..\u8g2\csrc/u8x8_d_sh1107.c ****       if ( arg_int == 0 )
  58              		.loc 1 92 0
  59 0018 22B9     		cbnz	r2, .L8
  93:..\u8g2\csrc/u8x8_d_sh1107.c **** 	u8x8_cad_SendSequence(u8x8, u8x8_d_sh1107_64x128_noname_powersave0_seq);
  60              		.loc 1 93 0
  61 001a 2C49     		ldr	r1, .L13
  62 001c FFF7FEFF 		bl	u8x8_cad_SendSequence
  63              	.LVL3:
  94:..\u8g2\csrc/u8x8_d_sh1107.c ****       else
  95:..\u8g2\csrc/u8x8_d_sh1107.c **** 	u8x8_cad_SendSequence(u8x8, u8x8_d_sh1107_64x128_noname_powersave1_seq);
  96:..\u8g2\csrc/u8x8_d_sh1107.c ****       break;
  97:..\u8g2\csrc/u8x8_d_sh1107.c ****     case U8X8_MSG_DISPLAY_SET_FLIP_MODE:
  98:..\u8g2\csrc/u8x8_d_sh1107.c ****       if ( arg_int == 0 )
  99:..\u8g2\csrc/u8x8_d_sh1107.c ****       {
 100:..\u8g2\csrc/u8x8_d_sh1107.c **** 	u8x8_cad_SendSequence(u8x8, u8x8_d_sh1107_64x128_noname_flip0_seq);
 101:..\u8g2\csrc/u8x8_d_sh1107.c **** 	u8x8->x_offset = u8x8->display_info->default_x_offset;
 102:..\u8g2\csrc/u8x8_d_sh1107.c ****       }
 103:..\u8g2\csrc/u8x8_d_sh1107.c ****       else
 104:..\u8g2\csrc/u8x8_d_sh1107.c ****       {
 105:..\u8g2\csrc/u8x8_d_sh1107.c **** 	u8x8_cad_SendSequence(u8x8, u8x8_d_sh1107_64x128_noname_flip1_seq);
 106:..\u8g2\csrc/u8x8_d_sh1107.c **** 	u8x8->x_offset = u8x8->display_info->flipmode_x_offset;
 107:..\u8g2\csrc/u8x8_d_sh1107.c ****       }
 108:..\u8g2\csrc/u8x8_d_sh1107.c ****       break;
ARM GAS  C:\Users\brian\AppData\Local\Temp\ccHikCPz.s 			page 4


 109:..\u8g2\csrc/u8x8_d_sh1107.c **** #ifdef U8X8_WITH_SET_CONTRAST
 110:..\u8g2\csrc/u8x8_d_sh1107.c ****     case U8X8_MSG_DISPLAY_SET_CONTRAST:
 111:..\u8g2\csrc/u8x8_d_sh1107.c ****       u8x8_cad_StartTransfer(u8x8);
 112:..\u8g2\csrc/u8x8_d_sh1107.c ****       u8x8_cad_SendCmd(u8x8, 0x081 );
 113:..\u8g2\csrc/u8x8_d_sh1107.c ****       u8x8_cad_SendArg(u8x8, arg_int );	/* sh1107 has range from 0 to 255 */
 114:..\u8g2\csrc/u8x8_d_sh1107.c ****       u8x8_cad_EndTransfer(u8x8);
 115:..\u8g2\csrc/u8x8_d_sh1107.c ****       break;
 116:..\u8g2\csrc/u8x8_d_sh1107.c **** #endif
 117:..\u8g2\csrc/u8x8_d_sh1107.c ****     case U8X8_MSG_DISPLAY_DRAW_TILE:
 118:..\u8g2\csrc/u8x8_d_sh1107.c ****       u8x8_cad_StartTransfer(u8x8);
 119:..\u8g2\csrc/u8x8_d_sh1107.c ****       x = ((u8x8_tile_t *)arg_ptr)->x_pos;    
 120:..\u8g2\csrc/u8x8_d_sh1107.c ****       x *= 8;
 121:..\u8g2\csrc/u8x8_d_sh1107.c ****       x += u8x8->x_offset;
 122:..\u8g2\csrc/u8x8_d_sh1107.c **** 
 123:..\u8g2\csrc/u8x8_d_sh1107.c ****       //u8x8_cad_SendCmd(u8x8, 0x040 ); /* set line offset to 0 */
 124:..\u8g2\csrc/u8x8_d_sh1107.c **** 
 125:..\u8g2\csrc/u8x8_d_sh1107.c ****       // set column address
 126:..\u8g2\csrc/u8x8_d_sh1107.c ****       u8x8_cad_SendCmd(u8x8, 0x010 | (x >> 4));
 127:..\u8g2\csrc/u8x8_d_sh1107.c ****       u8x8_cad_SendCmd(u8x8, 0x000 | ((x & 15))); /* probably wrong, should be SendCmd */
 128:..\u8g2\csrc/u8x8_d_sh1107.c ****       
 129:..\u8g2\csrc/u8x8_d_sh1107.c ****       // set page address
 130:..\u8g2\csrc/u8x8_d_sh1107.c ****       u8x8_cad_SendCmd(u8x8, 0x0b0 | (((u8x8_tile_t *)arg_ptr)->y_pos)); /* probably wrong, should 
 131:..\u8g2\csrc/u8x8_d_sh1107.c ****     
 132:..\u8g2\csrc/u8x8_d_sh1107.c ****       do
 133:..\u8g2\csrc/u8x8_d_sh1107.c ****       {
 134:..\u8g2\csrc/u8x8_d_sh1107.c **** 	c = ((u8x8_tile_t *)arg_ptr)->cnt;
 135:..\u8g2\csrc/u8x8_d_sh1107.c **** 	ptr = ((u8x8_tile_t *)arg_ptr)->tile_ptr;
 136:..\u8g2\csrc/u8x8_d_sh1107.c **** 	u8x8_cad_SendData(u8x8, c*8, ptr); 	/* note: SendData can not handle more than 255 bytes */
 137:..\u8g2\csrc/u8x8_d_sh1107.c **** 	/*
 138:..\u8g2\csrc/u8x8_d_sh1107.c **** 	do
 139:..\u8g2\csrc/u8x8_d_sh1107.c **** 	{
 140:..\u8g2\csrc/u8x8_d_sh1107.c **** 	  u8x8_cad_SendData(u8x8, 8, ptr);
 141:..\u8g2\csrc/u8x8_d_sh1107.c **** 	  ptr += 8;
 142:..\u8g2\csrc/u8x8_d_sh1107.c **** 	  c--;
 143:..\u8g2\csrc/u8x8_d_sh1107.c **** 	} while( c > 0 );
 144:..\u8g2\csrc/u8x8_d_sh1107.c **** 	*/
 145:..\u8g2\csrc/u8x8_d_sh1107.c **** 	arg_int--;
 146:..\u8g2\csrc/u8x8_d_sh1107.c ****       } while( arg_int > 0 );
 147:..\u8g2\csrc/u8x8_d_sh1107.c ****       
 148:..\u8g2\csrc/u8x8_d_sh1107.c ****       u8x8_cad_EndTransfer(u8x8);
 149:..\u8g2\csrc/u8x8_d_sh1107.c ****       break;
 150:..\u8g2\csrc/u8x8_d_sh1107.c ****     default:
 151:..\u8g2\csrc/u8x8_d_sh1107.c ****       return 0;
 152:..\u8g2\csrc/u8x8_d_sh1107.c ****   }
 153:..\u8g2\csrc/u8x8_d_sh1107.c ****   return 1;
  64              		.loc 1 153 0
  65 0020 0120     		movs	r0, #1
  66 0022 F8BD     		pop	{r3, r4, r5, r6, r7, pc}
  67              	.LVL4:
  68              	.L8:
  95:..\u8g2\csrc/u8x8_d_sh1107.c ****       break;
  69              		.loc 1 95 0
  70 0024 2A49     		ldr	r1, .L13+4
  71 0026 FFF7FEFF 		bl	u8x8_cad_SendSequence
  72              	.LVL5:
  73              		.loc 1 153 0
  74 002a 0120     		movs	r0, #1
ARM GAS  C:\Users\brian\AppData\Local\Temp\ccHikCPz.s 			page 5


  75 002c F8BD     		pop	{r3, r4, r5, r6, r7, pc}
  76              	.LVL6:
  77              	.L5:
  98:..\u8g2\csrc/u8x8_d_sh1107.c ****       {
  78              		.loc 1 98 0
  79 002e 42B9     		cbnz	r2, .L9
 100:..\u8g2\csrc/u8x8_d_sh1107.c **** 	u8x8->x_offset = u8x8->display_info->default_x_offset;
  80              		.loc 1 100 0
  81 0030 2849     		ldr	r1, .L13+8
  82 0032 FFF7FEFF 		bl	u8x8_cad_SendSequence
  83              	.LVL7:
 101:..\u8g2\csrc/u8x8_d_sh1107.c ****       }
  84              		.loc 1 101 0
  85 0036 2B68     		ldr	r3, [r5]
  86 0038 9B7C     		ldrb	r3, [r3, #18]	@ zero_extendqisi2
  87 003a 85F82230 		strb	r3, [r5, #34]
  88              		.loc 1 153 0
  89 003e 0120     		movs	r0, #1
  90 0040 F8BD     		pop	{r3, r4, r5, r6, r7, pc}
  91              	.LVL8:
  92              	.L9:
 105:..\u8g2\csrc/u8x8_d_sh1107.c **** 	u8x8->x_offset = u8x8->display_info->flipmode_x_offset;
  93              		.loc 1 105 0
  94 0042 2549     		ldr	r1, .L13+12
  95 0044 FFF7FEFF 		bl	u8x8_cad_SendSequence
  96              	.LVL9:
 106:..\u8g2\csrc/u8x8_d_sh1107.c ****       }
  97              		.loc 1 106 0
  98 0048 2B68     		ldr	r3, [r5]
  99 004a DB7C     		ldrb	r3, [r3, #19]	@ zero_extendqisi2
 100 004c 85F82230 		strb	r3, [r5, #34]
 101              		.loc 1 153 0
 102 0050 0120     		movs	r0, #1
 103 0052 F8BD     		pop	{r3, r4, r5, r6, r7, pc}
 104              	.LVL10:
 105              	.L6:
 111:..\u8g2\csrc/u8x8_d_sh1107.c ****       u8x8_cad_SendCmd(u8x8, 0x081 );
 106              		.loc 1 111 0
 107 0054 FFF7FEFF 		bl	u8x8_cad_StartTransfer
 108              	.LVL11:
 112:..\u8g2\csrc/u8x8_d_sh1107.c ****       u8x8_cad_SendArg(u8x8, arg_int );	/* sh1107 has range from 0 to 255 */
 109              		.loc 1 112 0
 110 0058 8121     		movs	r1, #129
 111 005a 2846     		mov	r0, r5
 112 005c FFF7FEFF 		bl	u8x8_cad_SendCmd
 113              	.LVL12:
 113:..\u8g2\csrc/u8x8_d_sh1107.c ****       u8x8_cad_EndTransfer(u8x8);
 114              		.loc 1 113 0
 115 0060 2146     		mov	r1, r4
 116 0062 2846     		mov	r0, r5
 117 0064 FFF7FEFF 		bl	u8x8_cad_SendArg
 118              	.LVL13:
 114:..\u8g2\csrc/u8x8_d_sh1107.c ****       break;
 119              		.loc 1 114 0
 120 0068 2846     		mov	r0, r5
 121 006a FFF7FEFF 		bl	u8x8_cad_EndTransfer
 122              	.LVL14:
ARM GAS  C:\Users\brian\AppData\Local\Temp\ccHikCPz.s 			page 6


 123              		.loc 1 153 0
 124 006e 0120     		movs	r0, #1
 115:..\u8g2\csrc/u8x8_d_sh1107.c **** #endif
 125              		.loc 1 115 0
 126 0070 F8BD     		pop	{r3, r4, r5, r6, r7, pc}
 127              	.LVL15:
 128              	.L7:
 118:..\u8g2\csrc/u8x8_d_sh1107.c ****       x = ((u8x8_tile_t *)arg_ptr)->x_pos;    
 129              		.loc 1 118 0
 130 0072 FFF7FEFF 		bl	u8x8_cad_StartTransfer
 131              	.LVL16:
 119:..\u8g2\csrc/u8x8_d_sh1107.c ****       x *= 8;
 132              		.loc 1 119 0
 133 0076 7779     		ldrb	r7, [r6, #5]	@ zero_extendqisi2
 134              	.LVL17:
 120:..\u8g2\csrc/u8x8_d_sh1107.c ****       x += u8x8->x_offset;
 135              		.loc 1 120 0
 136 0078 FF00     		lsls	r7, r7, #3
 137              	.LVL18:
 138 007a FFB2     		uxtb	r7, r7
 139              	.LVL19:
 121:..\u8g2\csrc/u8x8_d_sh1107.c **** 
 140              		.loc 1 121 0
 141 007c 95F82230 		ldrb	r3, [r5, #34]	@ zero_extendqisi2
 142 0080 1F44     		add	r7, r7, r3
 143              	.LVL20:
 144 0082 FFB2     		uxtb	r7, r7
 145              	.LVL21:
 126:..\u8g2\csrc/u8x8_d_sh1107.c ****       u8x8_cad_SendCmd(u8x8, 0x000 | ((x & 15))); /* probably wrong, should be SendCmd */
 146              		.loc 1 126 0
 147 0084 3909     		lsrs	r1, r7, #4
 148 0086 41F01001 		orr	r1, r1, #16
 149 008a 2846     		mov	r0, r5
 150 008c FFF7FEFF 		bl	u8x8_cad_SendCmd
 151              	.LVL22:
 127:..\u8g2\csrc/u8x8_d_sh1107.c ****       
 152              		.loc 1 127 0
 153 0090 07F00F01 		and	r1, r7, #15
 154 0094 2846     		mov	r0, r5
 155 0096 FFF7FEFF 		bl	u8x8_cad_SendCmd
 156              	.LVL23:
 130:..\u8g2\csrc/u8x8_d_sh1107.c ****     
 157              		.loc 1 130 0
 158 009a B179     		ldrb	r1, [r6, #6]	@ zero_extendqisi2
 159 009c 41F0B001 		orr	r1, r1, #176
 160 00a0 2846     		mov	r0, r5
 161 00a2 FFF7FEFF 		bl	u8x8_cad_SendCmd
 162              	.LVL24:
 163              	.L10:
 134:..\u8g2\csrc/u8x8_d_sh1107.c **** 	ptr = ((u8x8_tile_t *)arg_ptr)->tile_ptr;
 164              		.loc 1 134 0 discriminator 1
 165 00a6 3179     		ldrb	r1, [r6, #4]	@ zero_extendqisi2
 166              	.LVL25:
 136:..\u8g2\csrc/u8x8_d_sh1107.c **** 	/*
 167              		.loc 1 136 0 discriminator 1
 168 00a8 C900     		lsls	r1, r1, #3
 169              	.LVL26:
ARM GAS  C:\Users\brian\AppData\Local\Temp\ccHikCPz.s 			page 7


 170 00aa 3268     		ldr	r2, [r6]
 171 00ac 01F0F801 		and	r1, r1, #248
 172 00b0 2846     		mov	r0, r5
 173 00b2 FFF7FEFF 		bl	u8x8_cad_SendData
 174              	.LVL27:
 145:..\u8g2\csrc/u8x8_d_sh1107.c ****       } while( arg_int > 0 );
 175              		.loc 1 145 0 discriminator 1
 176 00b6 621E     		subs	r2, r4, #1
 177              	.LVL28:
 146:..\u8g2\csrc/u8x8_d_sh1107.c ****       
 178              		.loc 1 146 0 discriminator 1
 179 00b8 12F0FF04 		ands	r4, r2, #255
 180 00bc F3D1     		bne	.L10
 148:..\u8g2\csrc/u8x8_d_sh1107.c ****       break;
 181              		.loc 1 148 0
 182 00be 2846     		mov	r0, r5
 183 00c0 FFF7FEFF 		bl	u8x8_cad_EndTransfer
 184              	.LVL29:
 185              		.loc 1 153 0
 186 00c4 0120     		movs	r0, #1
 149:..\u8g2\csrc/u8x8_d_sh1107.c ****     default:
 187              		.loc 1 149 0
 188 00c6 F8BD     		pop	{r3, r4, r5, r6, r7, pc}
 189              	.LVL30:
 190              	.L11:
 151:..\u8g2\csrc/u8x8_d_sh1107.c ****   }
 191              		.loc 1 151 0
 192 00c8 0020     		movs	r0, #0
 193              	.LVL31:
 154:..\u8g2\csrc/u8x8_d_sh1107.c **** }
 194              		.loc 1 154 0
 195 00ca F8BD     		pop	{r3, r4, r5, r6, r7, pc}
 196              	.LVL32:
 197              	.L14:
 198              		.align	2
 199              	.L13:
 200 00cc 00000000 		.word	.LANCHOR0
 201 00d0 08000000 		.word	.LANCHOR0+8
 202 00d4 10000000 		.word	.LANCHOR0+16
 203 00d8 18000000 		.word	.LANCHOR0+24
 204              		.cfi_endproc
 205              	.LFE0:
 206              		.size	u8x8_d_sh1107_generic, .-u8x8_d_sh1107_generic
 207              		.section	.text.u8x8_d_sh1107_64x128,"ax",%progbits
 208              		.align	2
 209              		.global	u8x8_d_sh1107_64x128
 210              		.thumb
 211              		.thumb_func
 212              		.type	u8x8_d_sh1107_64x128, %function
 213              	u8x8_d_sh1107_64x128:
 214              	.LFB1:
 155:..\u8g2\csrc/u8x8_d_sh1107.c **** 
 156:..\u8g2\csrc/u8x8_d_sh1107.c **** /*==================================================*/
 157:..\u8g2\csrc/u8x8_d_sh1107.c **** 
 158:..\u8g2\csrc/u8x8_d_sh1107.c **** /* QG-6428TSWKG01 */
 159:..\u8g2\csrc/u8x8_d_sh1107.c **** static const uint8_t u8x8_d_sh1107_64x128_noname_init_seq[] = {
 160:..\u8g2\csrc/u8x8_d_sh1107.c ****     
ARM GAS  C:\Users\brian\AppData\Local\Temp\ccHikCPz.s 			page 8


 161:..\u8g2\csrc/u8x8_d_sh1107.c ****   U8X8_START_TRANSFER(),             	/* enable chip, delay is part of the transfer start */
 162:..\u8g2\csrc/u8x8_d_sh1107.c ****   
 163:..\u8g2\csrc/u8x8_d_sh1107.c ****   
 164:..\u8g2\csrc/u8x8_d_sh1107.c ****   U8X8_C(0x0ae),		                /* display off */
 165:..\u8g2\csrc/u8x8_d_sh1107.c ****   U8X8_CA(0x0dc, 0x000),		/* start line */
 166:..\u8g2\csrc/u8x8_d_sh1107.c ****   U8X8_CA(0x081, 0x02f), 		/* [2] set contrast control */
 167:..\u8g2\csrc/u8x8_d_sh1107.c ****   U8X8_C(0x020),		                /* addressing mode */
 168:..\u8g2\csrc/u8x8_d_sh1107.c **** 
 169:..\u8g2\csrc/u8x8_d_sh1107.c ****   // U8X8_C(0x0a1),				/* segment remap a0/a1*/
 170:..\u8g2\csrc/u8x8_d_sh1107.c ****   // U8X8_C(0x0c8),				/* c0: scan dir normal, c8: reverse */
 171:..\u8g2\csrc/u8x8_d_sh1107.c ****   // Flipmode
 172:..\u8g2\csrc/u8x8_d_sh1107.c ****   U8X8_C(0x0a0),				/* segment remap a0/a1*/
 173:..\u8g2\csrc/u8x8_d_sh1107.c ****   U8X8_C(0x0c0),				/* c0: scan dir normal, c8: reverse */
 174:..\u8g2\csrc/u8x8_d_sh1107.c ****   
 175:..\u8g2\csrc/u8x8_d_sh1107.c ****   U8X8_CA(0x0a8, 0x7f),		/* 0x03f) multiplex ratio */
 176:..\u8g2\csrc/u8x8_d_sh1107.c ****   U8X8_CA(0x0d3, 0x060),		/* display offset */
 177:..\u8g2\csrc/u8x8_d_sh1107.c ****   U8X8_CA(0x0d5, 0x051),		/* clock divide ratio (0x00=1) and oscillator frequency (0x8) */
 178:..\u8g2\csrc/u8x8_d_sh1107.c ****   U8X8_CA(0x0d9, 0x022), 		/* [2] pre-charge period 0x022/f1*/
 179:..\u8g2\csrc/u8x8_d_sh1107.c ****   U8X8_CA(0x0db, 0x035), 		/* vcomh deselect level */  
 180:..\u8g2\csrc/u8x8_d_sh1107.c ****   
 181:..\u8g2\csrc/u8x8_d_sh1107.c ****   U8X8_C(0x0b0), /* set page address */
 182:..\u8g2\csrc/u8x8_d_sh1107.c ****   U8X8_CA(0x0da, 0x012), /* set com pins */
 183:..\u8g2\csrc/u8x8_d_sh1107.c ****   U8X8_C(0x0a4),				/* output ram to display */
 184:..\u8g2\csrc/u8x8_d_sh1107.c ****   U8X8_C(0x0a6),				/* none inverted normal display mode */
 185:..\u8g2\csrc/u8x8_d_sh1107.c ****     
 186:..\u8g2\csrc/u8x8_d_sh1107.c ****   U8X8_END_TRANSFER(),             	/* disable chip */
 187:..\u8g2\csrc/u8x8_d_sh1107.c ****   U8X8_END()             			/* end of sequence */
 188:..\u8g2\csrc/u8x8_d_sh1107.c **** };
 189:..\u8g2\csrc/u8x8_d_sh1107.c **** 
 190:..\u8g2\csrc/u8x8_d_sh1107.c **** static const u8x8_display_info_t u8x8_sh1107_64x128_noname_display_info =
 191:..\u8g2\csrc/u8x8_d_sh1107.c **** {
 192:..\u8g2\csrc/u8x8_d_sh1107.c ****   /* chip_enable_level = */ 0,
 193:..\u8g2\csrc/u8x8_d_sh1107.c ****   /* chip_disable_level = */ 1,
 194:..\u8g2\csrc/u8x8_d_sh1107.c ****   
 195:..\u8g2\csrc/u8x8_d_sh1107.c ****   /* post_chip_enable_wait_ns = */ 20,
 196:..\u8g2\csrc/u8x8_d_sh1107.c ****   /* pre_chip_disable_wait_ns = */ 10,
 197:..\u8g2\csrc/u8x8_d_sh1107.c ****   /* reset_pulse_width_ms = */ 100, 	/* sh1107: 3 us */
 198:..\u8g2\csrc/u8x8_d_sh1107.c ****   /* post_reset_wait_ms = */ 100, /* far east OLEDs need much longer setup time */
 199:..\u8g2\csrc/u8x8_d_sh1107.c ****   /* sda_setup_time_ns = */ 50,		/* sh1107: 15ns, but cycle time is 100ns, so use 100/2 */
 200:..\u8g2\csrc/u8x8_d_sh1107.c ****   /* sck_pulse_width_ns = */ 50,	/* sh1107: 20ns, but cycle time is 100ns, so use 100/2, AVR: below
 201:..\u8g2\csrc/u8x8_d_sh1107.c ****   /* sck_clock_hz = */ 8000000UL,	/* since Arduino 1.6.0, the SPI bus speed in Hz. Should be  10000
 202:..\u8g2\csrc/u8x8_d_sh1107.c ****   /* spi_mode = */ 0,		/* active high, rising edge */
 203:..\u8g2\csrc/u8x8_d_sh1107.c ****   /* i2c_bus_clock_100kHz = */ 4,
 204:..\u8g2\csrc/u8x8_d_sh1107.c ****   /* data_setup_time_ns = */ 40,
 205:..\u8g2\csrc/u8x8_d_sh1107.c ****   /* write_pulse_width_ns = */ 150,	/* sh1107: cycle time is 300ns, so use 300/2 = 150 */
 206:..\u8g2\csrc/u8x8_d_sh1107.c ****   /* tile_width = */ 8,
 207:..\u8g2\csrc/u8x8_d_sh1107.c ****   /* tile_height = */ 16,
 208:..\u8g2\csrc/u8x8_d_sh1107.c ****   /* default_x_offset = */ 0,
 209:..\u8g2\csrc/u8x8_d_sh1107.c ****   /* flipmode_x_offset = */ 0,
 210:..\u8g2\csrc/u8x8_d_sh1107.c ****   /* pixel_width = */ 64,
 211:..\u8g2\csrc/u8x8_d_sh1107.c ****   /* pixel_height = */ 128
 212:..\u8g2\csrc/u8x8_d_sh1107.c **** };
 213:..\u8g2\csrc/u8x8_d_sh1107.c **** 
 214:..\u8g2\csrc/u8x8_d_sh1107.c **** uint8_t u8x8_d_sh1107_64x128(u8x8_t *u8x8, uint8_t msg, uint8_t arg_int, void *arg_ptr)
 215:..\u8g2\csrc/u8x8_d_sh1107.c **** {
 215              		.loc 1 215 0
 216              		.cfi_startproc
ARM GAS  C:\Users\brian\AppData\Local\Temp\ccHikCPz.s 			page 9


 217              		@ args = 0, pretend = 0, frame = 0
 218              		@ frame_needed = 0, uses_anonymous_args = 0
 219              	.LVL33:
 220 0000 38B5     		push	{r3, r4, r5, lr}
 221              		.cfi_def_cfa_offset 16
 222              		.cfi_offset 3, -16
 223              		.cfi_offset 4, -12
 224              		.cfi_offset 5, -8
 225              		.cfi_offset 14, -4
 226 0002 0546     		mov	r5, r0
 227 0004 0C46     		mov	r4, r1
 216:..\u8g2\csrc/u8x8_d_sh1107.c ****     
 217:..\u8g2\csrc/u8x8_d_sh1107.c ****   if ( u8x8_d_sh1107_generic(u8x8, msg, arg_int, arg_ptr) != 0 )
 228              		.loc 1 217 0
 229 0006 FFF7FEFF 		bl	u8x8_d_sh1107_generic
 230              	.LVL34:
 231 000a 98B9     		cbnz	r0, .L19
 232 000c 0346     		mov	r3, r0
 218:..\u8g2\csrc/u8x8_d_sh1107.c ****     return 1;
 219:..\u8g2\csrc/u8x8_d_sh1107.c ****   
 220:..\u8g2\csrc/u8x8_d_sh1107.c ****   switch(msg)
 233              		.loc 1 220 0
 234 000e 092C     		cmp	r4, #9
 235 0010 0AD0     		beq	.L17
 236 0012 0A2C     		cmp	r4, #10
 237 0014 0FD1     		bne	.L16
 221:..\u8g2\csrc/u8x8_d_sh1107.c ****   {
 222:..\u8g2\csrc/u8x8_d_sh1107.c ****     case U8X8_MSG_DISPLAY_INIT:
 223:..\u8g2\csrc/u8x8_d_sh1107.c ****       u8x8_d_helper_display_init(u8x8);
 238              		.loc 1 223 0
 239 0016 2846     		mov	r0, r5
 240 0018 FFF7FEFF 		bl	u8x8_d_helper_display_init
 241              	.LVL35:
 224:..\u8g2\csrc/u8x8_d_sh1107.c ****       u8x8_cad_SendSequence(u8x8, u8x8_d_sh1107_64x128_noname_init_seq);    
 242              		.loc 1 224 0
 243 001c 0749     		ldr	r1, .L21
 244 001e 2846     		mov	r0, r5
 245 0020 FFF7FEFF 		bl	u8x8_cad_SendSequence
 246              	.LVL36:
 225:..\u8g2\csrc/u8x8_d_sh1107.c ****       break;
 226:..\u8g2\csrc/u8x8_d_sh1107.c ****     case U8X8_MSG_DISPLAY_SETUP_MEMORY:
 227:..\u8g2\csrc/u8x8_d_sh1107.c ****       u8x8_d_helper_display_setup_memory(u8x8, &u8x8_sh1107_64x128_noname_display_info);
 228:..\u8g2\csrc/u8x8_d_sh1107.c ****       break;
 229:..\u8g2\csrc/u8x8_d_sh1107.c ****     default:
 230:..\u8g2\csrc/u8x8_d_sh1107.c ****       return 0;
 231:..\u8g2\csrc/u8x8_d_sh1107.c ****   }
 232:..\u8g2\csrc/u8x8_d_sh1107.c ****   return 1;
 247              		.loc 1 232 0
 248 0024 0123     		movs	r3, #1
 225:..\u8g2\csrc/u8x8_d_sh1107.c ****       break;
 249              		.loc 1 225 0
 250 0026 06E0     		b	.L16
 251              	.L17:
 227:..\u8g2\csrc/u8x8_d_sh1107.c ****       break;
 252              		.loc 1 227 0
 253 0028 0549     		ldr	r1, .L21+4
 254 002a 2846     		mov	r0, r5
ARM GAS  C:\Users\brian\AppData\Local\Temp\ccHikCPz.s 			page 10


 255 002c FFF7FEFF 		bl	u8x8_d_helper_display_setup_memory
 256              	.LVL37:
 257              		.loc 1 232 0
 258 0030 0123     		movs	r3, #1
 228:..\u8g2\csrc/u8x8_d_sh1107.c ****     default:
 259              		.loc 1 228 0
 260 0032 00E0     		b	.L16
 261              	.L19:
 218:..\u8g2\csrc/u8x8_d_sh1107.c ****   
 262              		.loc 1 218 0
 263 0034 0123     		movs	r3, #1
 264              	.L16:
 233:..\u8g2\csrc/u8x8_d_sh1107.c **** }
 265              		.loc 1 233 0
 266 0036 1846     		mov	r0, r3
 267 0038 38BD     		pop	{r3, r4, r5, pc}
 268              	.LVL38:
 269              	.L22:
 270 003a 00BF     		.align	2
 271              	.L21:
 272 003c 20000000 		.word	.LANCHOR0+32
 273 0040 54000000 		.word	.LANCHOR0+84
 274              		.cfi_endproc
 275              	.LFE1:
 276              		.size	u8x8_d_sh1107_64x128, .-u8x8_d_sh1107_64x128
 277              		.section	.text.u8x8_d_sh1107_seeed_96x96,"ax",%progbits
 278              		.align	2
 279              		.global	u8x8_d_sh1107_seeed_96x96
 280              		.thumb
 281              		.thumb_func
 282              		.type	u8x8_d_sh1107_seeed_96x96, %function
 283              	u8x8_d_sh1107_seeed_96x96:
 284              	.LFB2:
 234:..\u8g2\csrc/u8x8_d_sh1107.c **** 
 235:..\u8g2\csrc/u8x8_d_sh1107.c **** /*==================================================*/
 236:..\u8g2\csrc/u8x8_d_sh1107.c **** 
 237:..\u8g2\csrc/u8x8_d_sh1107.c **** /* init sequence from Grove OLED 96x96 */
 238:..\u8g2\csrc/u8x8_d_sh1107.c **** static const uint8_t u8x8_d_sh1107_seeed_96x96_init_seq[] = {
 239:..\u8g2\csrc/u8x8_d_sh1107.c ****     
 240:..\u8g2\csrc/u8x8_d_sh1107.c ****   U8X8_START_TRANSFER(),             	/* enable chip, delay is part of the transfer start */
 241:..\u8g2\csrc/u8x8_d_sh1107.c ****   
 242:..\u8g2\csrc/u8x8_d_sh1107.c ****   
 243:..\u8g2\csrc/u8x8_d_sh1107.c ****   U8X8_C(0x0ae),		                /* display off */
 244:..\u8g2\csrc/u8x8_d_sh1107.c ****   U8X8_CA(0x0d5, 0x050),		/* clock divide ratio (0x00=1) and oscillator frequency (0x5) */
 245:..\u8g2\csrc/u8x8_d_sh1107.c ****   U8X8_C(0x020),		                /* use page addressing mode */
 246:..\u8g2\csrc/u8x8_d_sh1107.c ****   //U8X8_CA(0x0a8, 0x03f),		/* multiplex ratio */
 247:..\u8g2\csrc/u8x8_d_sh1107.c ****   U8X8_CA(0x0d3, 0x000),		/* display offset */
 248:..\u8g2\csrc/u8x8_d_sh1107.c ****   U8X8_CA(0x0dc, 0x000),		/* start line */
 249:..\u8g2\csrc/u8x8_d_sh1107.c ****   //U8X8_CA(0x020, 0x000),		/* horizontal addressing mode */
 250:..\u8g2\csrc/u8x8_d_sh1107.c ****   
 251:..\u8g2\csrc/u8x8_d_sh1107.c ****   U8X8_C(0x0a1),				/* segment remap a0/a1*/
 252:..\u8g2\csrc/u8x8_d_sh1107.c ****   U8X8_C(0x0c8),				/* c0: scan dir normal, c8: reverse */
 253:..\u8g2\csrc/u8x8_d_sh1107.c ****   // Flipmode
 254:..\u8g2\csrc/u8x8_d_sh1107.c ****   // U8X8_C(0x0a0),				/* segment remap a0/a1*/
 255:..\u8g2\csrc/u8x8_d_sh1107.c ****   // U8X8_C(0x0c0),				/* c0: scan dir normal, c8: reverse */
 256:..\u8g2\csrc/u8x8_d_sh1107.c ****   
 257:..\u8g2\csrc/u8x8_d_sh1107.c ****   //U8X8_CA(0x0da, 0x012),		/* com pin HW config, sequential com pin config (bit 4), disable left/r
ARM GAS  C:\Users\brian\AppData\Local\Temp\ccHikCPz.s 			page 11


 258:..\u8g2\csrc/u8x8_d_sh1107.c **** 
 259:..\u8g2\csrc/u8x8_d_sh1107.c ****   U8X8_CA(0x081, 0x080), 		/* [2] set contrast control */
 260:..\u8g2\csrc/u8x8_d_sh1107.c ****   U8X8_CA(0x0ad, 0x080), 		/* */  
 261:..\u8g2\csrc/u8x8_d_sh1107.c ****   U8X8_CA(0x0d9, 0x01f), 		/* [2] pre-charge period 0x022/f1*/
 262:..\u8g2\csrc/u8x8_d_sh1107.c ****   U8X8_CA(0x0db, 0x027), 		/* vcomh deselect level */  
 263:..\u8g2\csrc/u8x8_d_sh1107.c ****   // if vcomh is 0, then this will give the biggest range for contrast control issue #98
 264:..\u8g2\csrc/u8x8_d_sh1107.c ****   // restored the old values for the noname constructor, because vcomh=0 will not work for all OLED
 265:..\u8g2\csrc/u8x8_d_sh1107.c ****   
 266:..\u8g2\csrc/u8x8_d_sh1107.c ****   //U8X8_C(0x02e),				/* Deactivate scroll */ 
 267:..\u8g2\csrc/u8x8_d_sh1107.c ****   U8X8_C(0x0a4),				/* output ram to display */
 268:..\u8g2\csrc/u8x8_d_sh1107.c ****   U8X8_C(0x0a6),				/* none inverted normal display mode */
 269:..\u8g2\csrc/u8x8_d_sh1107.c ****     
 270:..\u8g2\csrc/u8x8_d_sh1107.c ****   U8X8_END_TRANSFER(),             	/* disable chip */
 271:..\u8g2\csrc/u8x8_d_sh1107.c ****   U8X8_END()             			/* end of sequence */
 272:..\u8g2\csrc/u8x8_d_sh1107.c **** };
 273:..\u8g2\csrc/u8x8_d_sh1107.c **** 
 274:..\u8g2\csrc/u8x8_d_sh1107.c **** static const u8x8_display_info_t u8x8_sh1107_seeed_96x96_display_info =
 275:..\u8g2\csrc/u8x8_d_sh1107.c **** {
 276:..\u8g2\csrc/u8x8_d_sh1107.c ****   /* chip_enable_level = */ 0,
 277:..\u8g2\csrc/u8x8_d_sh1107.c ****   /* chip_disable_level = */ 1,
 278:..\u8g2\csrc/u8x8_d_sh1107.c ****   
 279:..\u8g2\csrc/u8x8_d_sh1107.c ****   /* post_chip_enable_wait_ns = */ 20,
 280:..\u8g2\csrc/u8x8_d_sh1107.c ****   /* pre_chip_disable_wait_ns = */ 10,
 281:..\u8g2\csrc/u8x8_d_sh1107.c ****   /* reset_pulse_width_ms = */ 100, 	/* */
 282:..\u8g2\csrc/u8x8_d_sh1107.c ****   /* post_reset_wait_ms = */ 100, /* far east OLEDs need much longer setup time */
 283:..\u8g2\csrc/u8x8_d_sh1107.c ****   /* sda_setup_time_ns = */ 100,		/* cycle time is 100ns, so use 100/2 */
 284:..\u8g2\csrc/u8x8_d_sh1107.c ****   /* sck_pulse_width_ns = */ 100,	/* cycle time is 100ns, so use 100/2, AVR: below 70: 8 MHz, >= 70
 285:..\u8g2\csrc/u8x8_d_sh1107.c ****   /* sck_clock_hz = */ 4000000UL,	/* since Arduino 1.6.0, the SPI bus speed in Hz. Should be  10000
 286:..\u8g2\csrc/u8x8_d_sh1107.c ****   /* spi_mode = */ 0,		/* active high, rising edge */
 287:..\u8g2\csrc/u8x8_d_sh1107.c ****   /* i2c_bus_clock_100kHz = */ 4,
 288:..\u8g2\csrc/u8x8_d_sh1107.c ****   /* data_setup_time_ns = */ 40,
 289:..\u8g2\csrc/u8x8_d_sh1107.c ****   /* write_pulse_width_ns = */ 150,	/* sh1107: cycle time is 300ns, so use 300/2 = 150 */
 290:..\u8g2\csrc/u8x8_d_sh1107.c ****   /* tile_width = */ 12,
 291:..\u8g2\csrc/u8x8_d_sh1107.c ****   /* tile_hight = */ 12,
 292:..\u8g2\csrc/u8x8_d_sh1107.c ****   /* default_x_offset = */ 0,
 293:..\u8g2\csrc/u8x8_d_sh1107.c ****   /* flipmode_x_offset = */ 0,
 294:..\u8g2\csrc/u8x8_d_sh1107.c ****   /* pixel_width = */ 96,
 295:..\u8g2\csrc/u8x8_d_sh1107.c ****   /* pixel_height = */ 96
 296:..\u8g2\csrc/u8x8_d_sh1107.c **** };
 297:..\u8g2\csrc/u8x8_d_sh1107.c **** 
 298:..\u8g2\csrc/u8x8_d_sh1107.c **** uint8_t u8x8_d_sh1107_seeed_96x96(u8x8_t *u8x8, uint8_t msg, uint8_t arg_int, void *arg_ptr)
 299:..\u8g2\csrc/u8x8_d_sh1107.c **** {
 285              		.loc 1 299 0
 286              		.cfi_startproc
 287              		@ args = 0, pretend = 0, frame = 0
 288              		@ frame_needed = 0, uses_anonymous_args = 0
 289              	.LVL39:
 290 0000 38B5     		push	{r3, r4, r5, lr}
 291              		.cfi_def_cfa_offset 16
 292              		.cfi_offset 3, -16
 293              		.cfi_offset 4, -12
 294              		.cfi_offset 5, -8
 295              		.cfi_offset 14, -4
 296 0002 0546     		mov	r5, r0
 297 0004 0C46     		mov	r4, r1
 300:..\u8g2\csrc/u8x8_d_sh1107.c ****     
 301:..\u8g2\csrc/u8x8_d_sh1107.c ****   if ( u8x8_d_sh1107_generic(u8x8, msg, arg_int, arg_ptr) != 0 )
ARM GAS  C:\Users\brian\AppData\Local\Temp\ccHikCPz.s 			page 12


 298              		.loc 1 301 0
 299 0006 FFF7FEFF 		bl	u8x8_d_sh1107_generic
 300              	.LVL40:
 301 000a 98B9     		cbnz	r0, .L27
 302 000c 0346     		mov	r3, r0
 302:..\u8g2\csrc/u8x8_d_sh1107.c ****     return 1;
 303:..\u8g2\csrc/u8x8_d_sh1107.c ****   
 304:..\u8g2\csrc/u8x8_d_sh1107.c ****   switch(msg)
 303              		.loc 1 304 0
 304 000e 092C     		cmp	r4, #9
 305 0010 0AD0     		beq	.L25
 306 0012 0A2C     		cmp	r4, #10
 307 0014 0FD1     		bne	.L24
 305:..\u8g2\csrc/u8x8_d_sh1107.c ****   {
 306:..\u8g2\csrc/u8x8_d_sh1107.c ****     case U8X8_MSG_DISPLAY_INIT:
 307:..\u8g2\csrc/u8x8_d_sh1107.c ****       u8x8_d_helper_display_init(u8x8);
 308              		.loc 1 307 0
 309 0016 2846     		mov	r0, r5
 310 0018 FFF7FEFF 		bl	u8x8_d_helper_display_init
 311              	.LVL41:
 308:..\u8g2\csrc/u8x8_d_sh1107.c ****       u8x8_cad_SendSequence(u8x8, u8x8_d_sh1107_seeed_96x96_init_seq);    
 312              		.loc 1 308 0
 313 001c 0749     		ldr	r1, .L29
 314 001e 2846     		mov	r0, r5
 315 0020 FFF7FEFF 		bl	u8x8_cad_SendSequence
 316              	.LVL42:
 309:..\u8g2\csrc/u8x8_d_sh1107.c ****       break;
 310:..\u8g2\csrc/u8x8_d_sh1107.c ****     case U8X8_MSG_DISPLAY_SETUP_MEMORY:
 311:..\u8g2\csrc/u8x8_d_sh1107.c ****       u8x8_d_helper_display_setup_memory(u8x8, &u8x8_sh1107_seeed_96x96_display_info);
 312:..\u8g2\csrc/u8x8_d_sh1107.c ****       break;
 313:..\u8g2\csrc/u8x8_d_sh1107.c ****     default:
 314:..\u8g2\csrc/u8x8_d_sh1107.c ****       return 0;
 315:..\u8g2\csrc/u8x8_d_sh1107.c ****   }
 316:..\u8g2\csrc/u8x8_d_sh1107.c ****   return 1;
 317              		.loc 1 316 0
 318 0024 0123     		movs	r3, #1
 309:..\u8g2\csrc/u8x8_d_sh1107.c ****       break;
 319              		.loc 1 309 0
 320 0026 06E0     		b	.L24
 321              	.L25:
 311:..\u8g2\csrc/u8x8_d_sh1107.c ****       break;
 322              		.loc 1 311 0
 323 0028 0549     		ldr	r1, .L29+4
 324 002a 2846     		mov	r0, r5
 325 002c FFF7FEFF 		bl	u8x8_d_helper_display_setup_memory
 326              	.LVL43:
 327              		.loc 1 316 0
 328 0030 0123     		movs	r3, #1
 312:..\u8g2\csrc/u8x8_d_sh1107.c ****     default:
 329              		.loc 1 312 0
 330 0032 00E0     		b	.L24
 331              	.L27:
 302:..\u8g2\csrc/u8x8_d_sh1107.c ****   
 332              		.loc 1 302 0
 333 0034 0123     		movs	r3, #1
 334              	.L24:
 317:..\u8g2\csrc/u8x8_d_sh1107.c **** }
ARM GAS  C:\Users\brian\AppData\Local\Temp\ccHikCPz.s 			page 13


 335              		.loc 1 317 0
 336 0036 1846     		mov	r0, r3
 337 0038 38BD     		pop	{r3, r4, r5, pc}
 338              	.LVL44:
 339              	.L30:
 340 003a 00BF     		.align	2
 341              	.L29:
 342 003c 6C000000 		.word	.LANCHOR0+108
 343 0040 98000000 		.word	.LANCHOR0+152
 344              		.cfi_endproc
 345              	.LFE2:
 346              		.size	u8x8_d_sh1107_seeed_96x96, .-u8x8_d_sh1107_seeed_96x96
 347              		.section	.text.u8x8_d_sh1107_128x128,"ax",%progbits
 348              		.align	2
 349              		.global	u8x8_d_sh1107_128x128
 350              		.thumb
 351              		.thumb_func
 352              		.type	u8x8_d_sh1107_128x128, %function
 353              	u8x8_d_sh1107_128x128:
 354              	.LFB3:
 318:..\u8g2\csrc/u8x8_d_sh1107.c **** 
 319:..\u8g2\csrc/u8x8_d_sh1107.c **** 
 320:..\u8g2\csrc/u8x8_d_sh1107.c **** /*==================================================*/
 321:..\u8g2\csrc/u8x8_d_sh1107.c **** /* 128x128 OLED: this display has a very strange x offset */
 322:..\u8g2\csrc/u8x8_d_sh1107.c **** 
 323:..\u8g2\csrc/u8x8_d_sh1107.c **** /* sequence taken over from 64x128 sequence, because it seems to work mostly */
 324:..\u8g2\csrc/u8x8_d_sh1107.c **** static const uint8_t u8x8_d_sh1107_128x128_init_seq[] = {
 325:..\u8g2\csrc/u8x8_d_sh1107.c ****     
 326:..\u8g2\csrc/u8x8_d_sh1107.c ****   U8X8_START_TRANSFER(),             	/* enable chip, delay is part of the transfer start */
 327:..\u8g2\csrc/u8x8_d_sh1107.c ****   
 328:..\u8g2\csrc/u8x8_d_sh1107.c ****   
 329:..\u8g2\csrc/u8x8_d_sh1107.c ****   U8X8_C(0x0ae),		                /* display off */
 330:..\u8g2\csrc/u8x8_d_sh1107.c ****   U8X8_CA(0x0dc, 0x000),		/* start line */
 331:..\u8g2\csrc/u8x8_d_sh1107.c ****   U8X8_CA(0x081, 0x02f), 		/* [2] set contrast control */
 332:..\u8g2\csrc/u8x8_d_sh1107.c ****   U8X8_C(0x020),		                /* use page addressing mode */
 333:..\u8g2\csrc/u8x8_d_sh1107.c **** 
 334:..\u8g2\csrc/u8x8_d_sh1107.c ****   // U8X8_C(0x0a1),				/* segment remap a0/a1*/
 335:..\u8g2\csrc/u8x8_d_sh1107.c ****   // U8X8_C(0x0c8),				/* c0: scan dir normal, c8: reverse */
 336:..\u8g2\csrc/u8x8_d_sh1107.c ****   // Flipmode
 337:..\u8g2\csrc/u8x8_d_sh1107.c ****   U8X8_C(0x0a0),				/* segment remap a0/a1*/
 338:..\u8g2\csrc/u8x8_d_sh1107.c ****   U8X8_C(0x0c0),				/* c0: scan dir normal, c8: reverse */
 339:..\u8g2\csrc/u8x8_d_sh1107.c ****   
 340:..\u8g2\csrc/u8x8_d_sh1107.c ****   U8X8_CA(0x0a8, 0x7f),		/* 0x03f multiplex ratio */
 341:..\u8g2\csrc/u8x8_d_sh1107.c ****   //U8X8_CA(0x0d3, 0x060),		/* display offset (removed, not in datasheet ) */
 342:..\u8g2\csrc/u8x8_d_sh1107.c ****   U8X8_CA(0x0d5, 0x050),		/* clock divide ratio (0x00=1) and oscillator frequency (0x8), changed to
 343:..\u8g2\csrc/u8x8_d_sh1107.c ****   U8X8_CA(0x0d9, 0x022), 		/* [2] pre-charge period 0x022/f1*/
 344:..\u8g2\csrc/u8x8_d_sh1107.c ****   U8X8_CA(0x0db, 0x035), 		/* vcomh deselect level */  
 345:..\u8g2\csrc/u8x8_d_sh1107.c ****   
 346:..\u8g2\csrc/u8x8_d_sh1107.c ****   U8X8_C(0x0b0), /* set page address */
 347:..\u8g2\csrc/u8x8_d_sh1107.c ****   U8X8_CA(0x0da, 0x012), /* set com pins */
 348:..\u8g2\csrc/u8x8_d_sh1107.c ****   U8X8_C(0x0a4),				/* output ram to display */
 349:..\u8g2\csrc/u8x8_d_sh1107.c ****   U8X8_C(0x0a6),				/* none inverted normal display mode */
 350:..\u8g2\csrc/u8x8_d_sh1107.c ****     
 351:..\u8g2\csrc/u8x8_d_sh1107.c ****   U8X8_END_TRANSFER(),             	/* disable chip */
 352:..\u8g2\csrc/u8x8_d_sh1107.c ****   U8X8_END()             			/* end of sequence */
 353:..\u8g2\csrc/u8x8_d_sh1107.c **** };
 354:..\u8g2\csrc/u8x8_d_sh1107.c **** 
ARM GAS  C:\Users\brian\AppData\Local\Temp\ccHikCPz.s 			page 14


 355:..\u8g2\csrc/u8x8_d_sh1107.c **** 
 356:..\u8g2\csrc/u8x8_d_sh1107.c **** static const u8x8_display_info_t u8x8_sh1107_128x128_display_info =
 357:..\u8g2\csrc/u8x8_d_sh1107.c **** {
 358:..\u8g2\csrc/u8x8_d_sh1107.c ****   /* chip_enable_level = */ 0,
 359:..\u8g2\csrc/u8x8_d_sh1107.c ****   /* chip_disable_level = */ 1,
 360:..\u8g2\csrc/u8x8_d_sh1107.c ****   
 361:..\u8g2\csrc/u8x8_d_sh1107.c ****   /* post_chip_enable_wait_ns = */ 20,
 362:..\u8g2\csrc/u8x8_d_sh1107.c ****   /* pre_chip_disable_wait_ns = */ 10,
 363:..\u8g2\csrc/u8x8_d_sh1107.c ****   /* reset_pulse_width_ms = */ 100, 	/* */
 364:..\u8g2\csrc/u8x8_d_sh1107.c ****   /* post_reset_wait_ms = */ 100, /* far east OLEDs need much longer setup time */
 365:..\u8g2\csrc/u8x8_d_sh1107.c ****   /* sda_setup_time_ns = */ 100,		/* cycle time is 100ns, so use 100/2 */
 366:..\u8g2\csrc/u8x8_d_sh1107.c ****   /* sck_pulse_width_ns = */ 100,	/* cycle time is 100ns, so use 100/2, AVR: below 70: 8 MHz, >= 70
 367:..\u8g2\csrc/u8x8_d_sh1107.c ****   /* sck_clock_hz = */ 4000000UL,	/* since Arduino 1.6.0, the SPI bus speed in Hz. Should be  10000
 368:..\u8g2\csrc/u8x8_d_sh1107.c ****   /* spi_mode = */ 0,		/* active high, rising edge */
 369:..\u8g2\csrc/u8x8_d_sh1107.c ****   /* i2c_bus_clock_100kHz = */ 4,
 370:..\u8g2\csrc/u8x8_d_sh1107.c ****   /* data_setup_time_ns = */ 40,
 371:..\u8g2\csrc/u8x8_d_sh1107.c ****   /* write_pulse_width_ns = */ 150,	/* sh1107: cycle time is 300ns, so use 300/2 = 150 */
 372:..\u8g2\csrc/u8x8_d_sh1107.c ****   /* tile_width = */ 16,
 373:..\u8g2\csrc/u8x8_d_sh1107.c ****   /* tile_hight = */ 16,
 374:..\u8g2\csrc/u8x8_d_sh1107.c ****   /* default_x_offset = */ 96,
 375:..\u8g2\csrc/u8x8_d_sh1107.c ****   /* flipmode_x_offset = */ 96,
 376:..\u8g2\csrc/u8x8_d_sh1107.c ****   /* pixel_width = */ 128,
 377:..\u8g2\csrc/u8x8_d_sh1107.c ****   /* pixel_height = */ 128
 378:..\u8g2\csrc/u8x8_d_sh1107.c **** };
 379:..\u8g2\csrc/u8x8_d_sh1107.c **** 
 380:..\u8g2\csrc/u8x8_d_sh1107.c **** uint8_t u8x8_d_sh1107_128x128(u8x8_t *u8x8, uint8_t msg, uint8_t arg_int, void *arg_ptr)
 381:..\u8g2\csrc/u8x8_d_sh1107.c **** {
 355              		.loc 1 381 0
 356              		.cfi_startproc
 357              		@ args = 0, pretend = 0, frame = 0
 358              		@ frame_needed = 0, uses_anonymous_args = 0
 359              	.LVL45:
 360 0000 38B5     		push	{r3, r4, r5, lr}
 361              		.cfi_def_cfa_offset 16
 362              		.cfi_offset 3, -16
 363              		.cfi_offset 4, -12
 364              		.cfi_offset 5, -8
 365              		.cfi_offset 14, -4
 366 0002 0546     		mov	r5, r0
 367 0004 0C46     		mov	r4, r1
 382:..\u8g2\csrc/u8x8_d_sh1107.c ****     
 383:..\u8g2\csrc/u8x8_d_sh1107.c ****   if ( u8x8_d_sh1107_generic(u8x8, msg, arg_int, arg_ptr) != 0 )
 368              		.loc 1 383 0
 369 0006 FFF7FEFF 		bl	u8x8_d_sh1107_generic
 370              	.LVL46:
 371 000a 98B9     		cbnz	r0, .L35
 372 000c 0346     		mov	r3, r0
 384:..\u8g2\csrc/u8x8_d_sh1107.c ****     return 1;
 385:..\u8g2\csrc/u8x8_d_sh1107.c ****   
 386:..\u8g2\csrc/u8x8_d_sh1107.c ****   switch(msg)
 373              		.loc 1 386 0
 374 000e 092C     		cmp	r4, #9
 375 0010 0AD0     		beq	.L33
 376 0012 0A2C     		cmp	r4, #10
 377 0014 0FD1     		bne	.L32
 387:..\u8g2\csrc/u8x8_d_sh1107.c ****   {
 388:..\u8g2\csrc/u8x8_d_sh1107.c ****     case U8X8_MSG_DISPLAY_INIT:
ARM GAS  C:\Users\brian\AppData\Local\Temp\ccHikCPz.s 			page 15


 389:..\u8g2\csrc/u8x8_d_sh1107.c ****       u8x8_d_helper_display_init(u8x8);
 378              		.loc 1 389 0
 379 0016 2846     		mov	r0, r5
 380 0018 FFF7FEFF 		bl	u8x8_d_helper_display_init
 381              	.LVL47:
 390:..\u8g2\csrc/u8x8_d_sh1107.c ****       u8x8_cad_SendSequence(u8x8, u8x8_d_sh1107_128x128_init_seq);    
 382              		.loc 1 390 0
 383 001c 0749     		ldr	r1, .L37
 384 001e 2846     		mov	r0, r5
 385 0020 FFF7FEFF 		bl	u8x8_cad_SendSequence
 386              	.LVL48:
 391:..\u8g2\csrc/u8x8_d_sh1107.c ****       break;
 392:..\u8g2\csrc/u8x8_d_sh1107.c ****     case U8X8_MSG_DISPLAY_SETUP_MEMORY:
 393:..\u8g2\csrc/u8x8_d_sh1107.c ****       u8x8_d_helper_display_setup_memory(u8x8, &u8x8_sh1107_128x128_display_info);
 394:..\u8g2\csrc/u8x8_d_sh1107.c ****       break;
 395:..\u8g2\csrc/u8x8_d_sh1107.c ****     default:
 396:..\u8g2\csrc/u8x8_d_sh1107.c ****       return 0;
 397:..\u8g2\csrc/u8x8_d_sh1107.c ****   }
 398:..\u8g2\csrc/u8x8_d_sh1107.c ****   return 1;
 387              		.loc 1 398 0
 388 0024 0123     		movs	r3, #1
 391:..\u8g2\csrc/u8x8_d_sh1107.c ****       break;
 389              		.loc 1 391 0
 390 0026 06E0     		b	.L32
 391              	.L33:
 393:..\u8g2\csrc/u8x8_d_sh1107.c ****       break;
 392              		.loc 1 393 0
 393 0028 0549     		ldr	r1, .L37+4
 394 002a 2846     		mov	r0, r5
 395 002c FFF7FEFF 		bl	u8x8_d_helper_display_setup_memory
 396              	.LVL49:
 397              		.loc 1 398 0
 398 0030 0123     		movs	r3, #1
 394:..\u8g2\csrc/u8x8_d_sh1107.c ****     default:
 399              		.loc 1 394 0
 400 0032 00E0     		b	.L32
 401              	.L35:
 384:..\u8g2\csrc/u8x8_d_sh1107.c ****   
 402              		.loc 1 384 0
 403 0034 0123     		movs	r3, #1
 404              	.L32:
 399:..\u8g2\csrc/u8x8_d_sh1107.c **** }
 405              		.loc 1 399 0
 406 0036 1846     		mov	r0, r3
 407 0038 38BD     		pop	{r3, r4, r5, pc}
 408              	.LVL50:
 409              	.L38:
 410 003a 00BF     		.align	2
 411              	.L37:
 412 003c B0000000 		.word	.LANCHOR0+176
 413 0040 E0000000 		.word	.LANCHOR0+224
 414              		.cfi_endproc
 415              	.LFE3:
 416              		.size	u8x8_d_sh1107_128x128, .-u8x8_d_sh1107_128x128
 417              		.section	.text.u8x8_d_sh1107_128x80,"ax",%progbits
 418              		.align	2
 419              		.global	u8x8_d_sh1107_128x80
ARM GAS  C:\Users\brian\AppData\Local\Temp\ccHikCPz.s 			page 16


 420              		.thumb
 421              		.thumb_func
 422              		.type	u8x8_d_sh1107_128x80, %function
 423              	u8x8_d_sh1107_128x80:
 424              	.LFB4:
 400:..\u8g2\csrc/u8x8_d_sh1107.c **** 
 401:..\u8g2\csrc/u8x8_d_sh1107.c **** /*==================================================*/
 402:..\u8g2\csrc/u8x8_d_sh1107.c **** /* 128x80 OLED, copyied from SEEED 128x128 oled,  this display has a very strange x offset */
 403:..\u8g2\csrc/u8x8_d_sh1107.c **** /* https://github.com/olikraus/u8g2/issues/1598 */
 404:..\u8g2\csrc/u8x8_d_sh1107.c **** /* this is actually a 80x128 display, but let's keep the 128x80 name */
 405:..\u8g2\csrc/u8x8_d_sh1107.c **** 
 406:..\u8g2\csrc/u8x8_d_sh1107.c **** 
 407:..\u8g2\csrc/u8x8_d_sh1107.c **** static const u8x8_display_info_t u8x8_sh1107_128x80_display_info =
 408:..\u8g2\csrc/u8x8_d_sh1107.c **** {
 409:..\u8g2\csrc/u8x8_d_sh1107.c ****   /* chip_enable_level = */ 0,
 410:..\u8g2\csrc/u8x8_d_sh1107.c ****   /* chip_disable_level = */ 1,
 411:..\u8g2\csrc/u8x8_d_sh1107.c ****   
 412:..\u8g2\csrc/u8x8_d_sh1107.c ****   /* post_chip_enable_wait_ns = */ 20,
 413:..\u8g2\csrc/u8x8_d_sh1107.c ****   /* pre_chip_disable_wait_ns = */ 10,
 414:..\u8g2\csrc/u8x8_d_sh1107.c ****   /* reset_pulse_width_ms = */ 100, 	/* */
 415:..\u8g2\csrc/u8x8_d_sh1107.c ****   /* post_reset_wait_ms = */ 100, /* far east OLEDs need much longer setup time */
 416:..\u8g2\csrc/u8x8_d_sh1107.c ****   /* sda_setup_time_ns = */ 100,		/* cycle time is 100ns, so use 100/2 */
 417:..\u8g2\csrc/u8x8_d_sh1107.c ****   /* sck_pulse_width_ns = */ 100,	/* cycle time is 100ns, so use 100/2, AVR: below 70: 8 MHz, >= 70
 418:..\u8g2\csrc/u8x8_d_sh1107.c ****   /* sck_clock_hz = */ 4000000UL,	/* since Arduino 1.6.0, the SPI bus speed in Hz. Should be  10000
 419:..\u8g2\csrc/u8x8_d_sh1107.c ****   /* spi_mode = */ 0,		/* active high, rising edge */
 420:..\u8g2\csrc/u8x8_d_sh1107.c ****   /* i2c_bus_clock_100kHz = */ 4,
 421:..\u8g2\csrc/u8x8_d_sh1107.c ****   /* data_setup_time_ns = */ 40,
 422:..\u8g2\csrc/u8x8_d_sh1107.c ****   /* write_pulse_width_ns = */ 150,	/* sh1107: cycle time is 300ns, so use 300/2 = 150 */
 423:..\u8g2\csrc/u8x8_d_sh1107.c ****   /* tile_width = */ 10,
 424:..\u8g2\csrc/u8x8_d_sh1107.c ****   /* tile_hight = */ 16,
 425:..\u8g2\csrc/u8x8_d_sh1107.c ****   /* default_x_offset = */ 24,
 426:..\u8g2\csrc/u8x8_d_sh1107.c ****   /* flipmode_x_offset = */ 24,
 427:..\u8g2\csrc/u8x8_d_sh1107.c ****   /* pixel_width = */ 80,
 428:..\u8g2\csrc/u8x8_d_sh1107.c ****   /* pixel_height = */ 128
 429:..\u8g2\csrc/u8x8_d_sh1107.c **** };
 430:..\u8g2\csrc/u8x8_d_sh1107.c **** 
 431:..\u8g2\csrc/u8x8_d_sh1107.c **** uint8_t u8x8_d_sh1107_128x80(u8x8_t *u8x8, uint8_t msg, uint8_t arg_int, void *arg_ptr)
 432:..\u8g2\csrc/u8x8_d_sh1107.c **** {
 425              		.loc 1 432 0
 426              		.cfi_startproc
 427              		@ args = 0, pretend = 0, frame = 0
 428              		@ frame_needed = 0, uses_anonymous_args = 0
 429              	.LVL51:
 430 0000 38B5     		push	{r3, r4, r5, lr}
 431              		.cfi_def_cfa_offset 16
 432              		.cfi_offset 3, -16
 433              		.cfi_offset 4, -12
 434              		.cfi_offset 5, -8
 435              		.cfi_offset 14, -4
 436 0002 0546     		mov	r5, r0
 437 0004 0C46     		mov	r4, r1
 433:..\u8g2\csrc/u8x8_d_sh1107.c ****     
 434:..\u8g2\csrc/u8x8_d_sh1107.c ****   if ( u8x8_d_sh1107_generic(u8x8, msg, arg_int, arg_ptr) != 0 )
 438              		.loc 1 434 0
 439 0006 FFF7FEFF 		bl	u8x8_d_sh1107_generic
 440              	.LVL52:
 441 000a 98B9     		cbnz	r0, .L43
ARM GAS  C:\Users\brian\AppData\Local\Temp\ccHikCPz.s 			page 17


 442 000c 0346     		mov	r3, r0
 435:..\u8g2\csrc/u8x8_d_sh1107.c ****     return 1;
 436:..\u8g2\csrc/u8x8_d_sh1107.c ****   
 437:..\u8g2\csrc/u8x8_d_sh1107.c ****   switch(msg)
 443              		.loc 1 437 0
 444 000e 092C     		cmp	r4, #9
 445 0010 0AD0     		beq	.L41
 446 0012 0A2C     		cmp	r4, #10
 447 0014 0FD1     		bne	.L40
 438:..\u8g2\csrc/u8x8_d_sh1107.c ****   {
 439:..\u8g2\csrc/u8x8_d_sh1107.c ****     case U8X8_MSG_DISPLAY_INIT:
 440:..\u8g2\csrc/u8x8_d_sh1107.c ****       u8x8_d_helper_display_init(u8x8);
 448              		.loc 1 440 0
 449 0016 2846     		mov	r0, r5
 450 0018 FFF7FEFF 		bl	u8x8_d_helper_display_init
 451              	.LVL53:
 441:..\u8g2\csrc/u8x8_d_sh1107.c ****       u8x8_cad_SendSequence(u8x8, u8x8_d_sh1107_128x128_init_seq);    
 452              		.loc 1 441 0
 453 001c 0749     		ldr	r1, .L45
 454 001e 2846     		mov	r0, r5
 455 0020 FFF7FEFF 		bl	u8x8_cad_SendSequence
 456              	.LVL54:
 442:..\u8g2\csrc/u8x8_d_sh1107.c ****       break;
 443:..\u8g2\csrc/u8x8_d_sh1107.c ****     case U8X8_MSG_DISPLAY_SETUP_MEMORY:
 444:..\u8g2\csrc/u8x8_d_sh1107.c ****       u8x8_d_helper_display_setup_memory(u8x8, &u8x8_sh1107_128x80_display_info);
 445:..\u8g2\csrc/u8x8_d_sh1107.c ****       break;
 446:..\u8g2\csrc/u8x8_d_sh1107.c ****     default:
 447:..\u8g2\csrc/u8x8_d_sh1107.c ****       return 0;
 448:..\u8g2\csrc/u8x8_d_sh1107.c ****   }
 449:..\u8g2\csrc/u8x8_d_sh1107.c ****   return 1;
 457              		.loc 1 449 0
 458 0024 0123     		movs	r3, #1
 442:..\u8g2\csrc/u8x8_d_sh1107.c ****       break;
 459              		.loc 1 442 0
 460 0026 06E0     		b	.L40
 461              	.L41:
 444:..\u8g2\csrc/u8x8_d_sh1107.c ****       break;
 462              		.loc 1 444 0
 463 0028 0549     		ldr	r1, .L45+4
 464 002a 2846     		mov	r0, r5
 465 002c FFF7FEFF 		bl	u8x8_d_helper_display_setup_memory
 466              	.LVL55:
 467              		.loc 1 449 0
 468 0030 0123     		movs	r3, #1
 445:..\u8g2\csrc/u8x8_d_sh1107.c ****     default:
 469              		.loc 1 445 0
 470 0032 00E0     		b	.L40
 471              	.L43:
 435:..\u8g2\csrc/u8x8_d_sh1107.c ****   
 472              		.loc 1 435 0
 473 0034 0123     		movs	r3, #1
 474              	.L40:
 450:..\u8g2\csrc/u8x8_d_sh1107.c **** }
 475              		.loc 1 450 0
 476 0036 1846     		mov	r0, r3
 477 0038 38BD     		pop	{r3, r4, r5, pc}
 478              	.LVL56:
ARM GAS  C:\Users\brian\AppData\Local\Temp\ccHikCPz.s 			page 18


 479              	.L46:
 480 003a 00BF     		.align	2
 481              	.L45:
 482 003c B0000000 		.word	.LANCHOR0+176
 483 0040 F8000000 		.word	.LANCHOR0+248
 484              		.cfi_endproc
 485              	.LFE4:
 486              		.size	u8x8_d_sh1107_128x80, .-u8x8_d_sh1107_128x80
 487              		.section	.text.u8x8_d_sh1107_pimoroni_128x128,"ax",%progbits
 488              		.align	2
 489              		.global	u8x8_d_sh1107_pimoroni_128x128
 490              		.thumb
 491              		.thumb_func
 492              		.type	u8x8_d_sh1107_pimoroni_128x128, %function
 493              	u8x8_d_sh1107_pimoroni_128x128:
 494              	.LFB5:
 451:..\u8g2\csrc/u8x8_d_sh1107.c **** 
 452:..\u8g2\csrc/u8x8_d_sh1107.c **** /*==================================================*/
 453:..\u8g2\csrc/u8x8_d_sh1107.c **** /* pimoroni_128x128_display */
 454:..\u8g2\csrc/u8x8_d_sh1107.c **** 
 455:..\u8g2\csrc/u8x8_d_sh1107.c **** static const u8x8_display_info_t u8x8_sh1107_pimoroni_128x128_display_info =
 456:..\u8g2\csrc/u8x8_d_sh1107.c **** {
 457:..\u8g2\csrc/u8x8_d_sh1107.c ****   /* chip_enable_level = */ 0,
 458:..\u8g2\csrc/u8x8_d_sh1107.c ****   /* chip_disable_level = */ 1,
 459:..\u8g2\csrc/u8x8_d_sh1107.c ****   
 460:..\u8g2\csrc/u8x8_d_sh1107.c ****   /* post_chip_enable_wait_ns = */ 20,
 461:..\u8g2\csrc/u8x8_d_sh1107.c ****   /* pre_chip_disable_wait_ns = */ 10,
 462:..\u8g2\csrc/u8x8_d_sh1107.c ****   /* reset_pulse_width_ms = */ 100, 	/* */
 463:..\u8g2\csrc/u8x8_d_sh1107.c ****   /* post_reset_wait_ms = */ 100, /* far east OLEDs need much longer setup time */
 464:..\u8g2\csrc/u8x8_d_sh1107.c ****   /* sda_setup_time_ns = */ 100,		/* cycle time is 100ns, so use 100/2 */
 465:..\u8g2\csrc/u8x8_d_sh1107.c ****   /* sck_pulse_width_ns = */ 100,	/* cycle time is 100ns, so use 100/2, AVR: below 70: 8 MHz, >= 70
 466:..\u8g2\csrc/u8x8_d_sh1107.c ****   /* sck_clock_hz = */ 4000000UL,	/* since Arduino 1.6.0, the SPI bus speed in Hz. Should be  10000
 467:..\u8g2\csrc/u8x8_d_sh1107.c ****   /* spi_mode = */ 0,		/* active high, rising edge */
 468:..\u8g2\csrc/u8x8_d_sh1107.c ****   /* i2c_bus_clock_100kHz = */ 4,
 469:..\u8g2\csrc/u8x8_d_sh1107.c ****   /* data_setup_time_ns = */ 40,
 470:..\u8g2\csrc/u8x8_d_sh1107.c ****   /* write_pulse_width_ns = */ 150,	/* sh1107: cycle time is 300ns, so use 300/2 = 150 */
 471:..\u8g2\csrc/u8x8_d_sh1107.c ****   /* tile_width = */ 16,
 472:..\u8g2\csrc/u8x8_d_sh1107.c ****   /* tile_hight = */ 16,
 473:..\u8g2\csrc/u8x8_d_sh1107.c ****   /* default_x_offset = */ 0,
 474:..\u8g2\csrc/u8x8_d_sh1107.c ****   /* flipmode_x_offset = */ 0,
 475:..\u8g2\csrc/u8x8_d_sh1107.c ****   /* pixel_width = */ 128,
 476:..\u8g2\csrc/u8x8_d_sh1107.c ****   /* pixel_height = */ 128
 477:..\u8g2\csrc/u8x8_d_sh1107.c **** };
 478:..\u8g2\csrc/u8x8_d_sh1107.c **** 
 479:..\u8g2\csrc/u8x8_d_sh1107.c **** uint8_t u8x8_d_sh1107_pimoroni_128x128(u8x8_t *u8x8, uint8_t msg, uint8_t arg_int, void *arg_ptr)
 480:..\u8g2\csrc/u8x8_d_sh1107.c **** {
 495              		.loc 1 480 0
 496              		.cfi_startproc
 497              		@ args = 0, pretend = 0, frame = 0
 498              		@ frame_needed = 0, uses_anonymous_args = 0
 499              	.LVL57:
 500 0000 38B5     		push	{r3, r4, r5, lr}
 501              		.cfi_def_cfa_offset 16
 502              		.cfi_offset 3, -16
 503              		.cfi_offset 4, -12
 504              		.cfi_offset 5, -8
 505              		.cfi_offset 14, -4
ARM GAS  C:\Users\brian\AppData\Local\Temp\ccHikCPz.s 			page 19


 506 0002 0546     		mov	r5, r0
 507 0004 0C46     		mov	r4, r1
 481:..\u8g2\csrc/u8x8_d_sh1107.c ****     
 482:..\u8g2\csrc/u8x8_d_sh1107.c ****   if ( u8x8_d_sh1107_generic(u8x8, msg, arg_int, arg_ptr) != 0 )
 508              		.loc 1 482 0
 509 0006 FFF7FEFF 		bl	u8x8_d_sh1107_generic
 510              	.LVL58:
 511 000a 98B9     		cbnz	r0, .L51
 512 000c 0346     		mov	r3, r0
 483:..\u8g2\csrc/u8x8_d_sh1107.c ****     return 1;
 484:..\u8g2\csrc/u8x8_d_sh1107.c ****   
 485:..\u8g2\csrc/u8x8_d_sh1107.c ****   switch(msg)
 513              		.loc 1 485 0
 514 000e 092C     		cmp	r4, #9
 515 0010 0AD0     		beq	.L49
 516 0012 0A2C     		cmp	r4, #10
 517 0014 0FD1     		bne	.L48
 486:..\u8g2\csrc/u8x8_d_sh1107.c ****   {
 487:..\u8g2\csrc/u8x8_d_sh1107.c ****     case U8X8_MSG_DISPLAY_INIT:
 488:..\u8g2\csrc/u8x8_d_sh1107.c ****       u8x8_d_helper_display_init(u8x8);
 518              		.loc 1 488 0
 519 0016 2846     		mov	r0, r5
 520 0018 FFF7FEFF 		bl	u8x8_d_helper_display_init
 521              	.LVL59:
 489:..\u8g2\csrc/u8x8_d_sh1107.c ****       u8x8_cad_SendSequence(u8x8, u8x8_d_sh1107_128x128_init_seq);    
 522              		.loc 1 489 0
 523 001c 0749     		ldr	r1, .L53
 524 001e 2846     		mov	r0, r5
 525 0020 FFF7FEFF 		bl	u8x8_cad_SendSequence
 526              	.LVL60:
 490:..\u8g2\csrc/u8x8_d_sh1107.c ****       break;
 491:..\u8g2\csrc/u8x8_d_sh1107.c ****     case U8X8_MSG_DISPLAY_SETUP_MEMORY:
 492:..\u8g2\csrc/u8x8_d_sh1107.c ****       u8x8_d_helper_display_setup_memory(u8x8, &u8x8_sh1107_pimoroni_128x128_display_info);
 493:..\u8g2\csrc/u8x8_d_sh1107.c ****       break;
 494:..\u8g2\csrc/u8x8_d_sh1107.c ****     default:
 495:..\u8g2\csrc/u8x8_d_sh1107.c ****       return 0;
 496:..\u8g2\csrc/u8x8_d_sh1107.c ****   }
 497:..\u8g2\csrc/u8x8_d_sh1107.c ****   return 1;
 527              		.loc 1 497 0
 528 0024 0123     		movs	r3, #1
 490:..\u8g2\csrc/u8x8_d_sh1107.c ****       break;
 529              		.loc 1 490 0
 530 0026 06E0     		b	.L48
 531              	.L49:
 492:..\u8g2\csrc/u8x8_d_sh1107.c ****       break;
 532              		.loc 1 492 0
 533 0028 0549     		ldr	r1, .L53+4
 534 002a 2846     		mov	r0, r5
 535 002c FFF7FEFF 		bl	u8x8_d_helper_display_setup_memory
 536              	.LVL61:
 537              		.loc 1 497 0
 538 0030 0123     		movs	r3, #1
 493:..\u8g2\csrc/u8x8_d_sh1107.c ****     default:
 539              		.loc 1 493 0
 540 0032 00E0     		b	.L48
 541              	.L51:
 483:..\u8g2\csrc/u8x8_d_sh1107.c ****   
ARM GAS  C:\Users\brian\AppData\Local\Temp\ccHikCPz.s 			page 20


 542              		.loc 1 483 0
 543 0034 0123     		movs	r3, #1
 544              	.L48:
 498:..\u8g2\csrc/u8x8_d_sh1107.c **** }
 545              		.loc 1 498 0
 546 0036 1846     		mov	r0, r3
 547 0038 38BD     		pop	{r3, r4, r5, pc}
 548              	.LVL62:
 549              	.L54:
 550 003a 00BF     		.align	2
 551              	.L53:
 552 003c B0000000 		.word	.LANCHOR0+176
 553 0040 10010000 		.word	.LANCHOR0+272
 554              		.cfi_endproc
 555              	.LFE5:
 556              		.size	u8x8_d_sh1107_pimoroni_128x128, .-u8x8_d_sh1107_pimoroni_128x128
 557              		.section	.text.u8x8_d_sh1107_seeed_128x128,"ax",%progbits
 558              		.align	2
 559              		.global	u8x8_d_sh1107_seeed_128x128
 560              		.thumb
 561              		.thumb_func
 562              		.type	u8x8_d_sh1107_seeed_128x128, %function
 563              	u8x8_d_sh1107_seeed_128x128:
 564              	.LFB6:
 499:..\u8g2\csrc/u8x8_d_sh1107.c **** 
 500:..\u8g2\csrc/u8x8_d_sh1107.c **** /*==================================================*/
 501:..\u8g2\csrc/u8x8_d_sh1107.c **** /*
 502:..\u8g2\csrc/u8x8_d_sh1107.c **** Name: 	SH1107_seeed_128x128
 503:..\u8g2\csrc/u8x8_d_sh1107.c **** URL: 	https://www.seeedstudio.com/Grove-OLED-Display-1-12-V2.html 
 504:..\u8g2\csrc/u8x8_d_sh1107.c **** Display is there in my lab. Backside PCB label: "OLED Display 1.12 inch v1.0"
 505:..\u8g2\csrc/u8x8_d_sh1107.c **** Tookover code from SSD1327_SEEED_96X96 because none of the other displays did work
 506:..\u8g2\csrc/u8x8_d_sh1107.c **** and at least the 96x96 driver did show something.
 507:..\u8g2\csrc/u8x8_d_sh1107.c **** */
 508:..\u8g2\csrc/u8x8_d_sh1107.c **** 
 509:..\u8g2\csrc/u8x8_d_sh1107.c **** static const u8x8_display_info_t u8x8_seeed_128x128_display_info =
 510:..\u8g2\csrc/u8x8_d_sh1107.c **** {
 511:..\u8g2\csrc/u8x8_d_sh1107.c ****   /* chip_enable_level = */ 0,
 512:..\u8g2\csrc/u8x8_d_sh1107.c ****   /* chip_disable_level = */ 1,
 513:..\u8g2\csrc/u8x8_d_sh1107.c ****   
 514:..\u8g2\csrc/u8x8_d_sh1107.c ****   /* post_chip_enable_wait_ns = */ 20,
 515:..\u8g2\csrc/u8x8_d_sh1107.c ****   /* pre_chip_disable_wait_ns = */ 10,
 516:..\u8g2\csrc/u8x8_d_sh1107.c ****   /* reset_pulse_width_ms = */ 100, 	/* */
 517:..\u8g2\csrc/u8x8_d_sh1107.c ****   /* post_reset_wait_ms = */ 100, /* far east OLEDs need much longer setup time */
 518:..\u8g2\csrc/u8x8_d_sh1107.c ****   /* sda_setup_time_ns = */ 100,		/* cycle time is 100ns, so use 100/2 */
 519:..\u8g2\csrc/u8x8_d_sh1107.c ****   /* sck_pulse_width_ns = */ 100,	/* cycle time is 100ns, so use 100/2, AVR: below 70: 8 MHz, >= 70
 520:..\u8g2\csrc/u8x8_d_sh1107.c ****   /* sck_clock_hz = */ 4000000UL,	/* since Arduino 1.6.0, the SPI bus speed in Hz. Should be  10000
 521:..\u8g2\csrc/u8x8_d_sh1107.c ****   /* spi_mode = */ 0,		/* active high, rising edge */
 522:..\u8g2\csrc/u8x8_d_sh1107.c ****   /* i2c_bus_clock_100kHz = */ 2,		// 400kHz does not work, but 200kHz seems to be ok
 523:..\u8g2\csrc/u8x8_d_sh1107.c ****   /* data_setup_time_ns = */ 40,
 524:..\u8g2\csrc/u8x8_d_sh1107.c ****   /* write_pulse_width_ns = */ 150,	/* sh1107: cycle time is 300ns, so use 300/2 = 150 */
 525:..\u8g2\csrc/u8x8_d_sh1107.c ****   /* tile_width = */ 16,
 526:..\u8g2\csrc/u8x8_d_sh1107.c ****   /* tile_hight = */ 16,
 527:..\u8g2\csrc/u8x8_d_sh1107.c ****   /* default_x_offset = */ 0,
 528:..\u8g2\csrc/u8x8_d_sh1107.c ****   /* flipmode_x_offset = */ 0,
 529:..\u8g2\csrc/u8x8_d_sh1107.c ****   /* pixel_width = */ 128,
 530:..\u8g2\csrc/u8x8_d_sh1107.c ****   /* pixel_height = */ 128
 531:..\u8g2\csrc/u8x8_d_sh1107.c **** };
ARM GAS  C:\Users\brian\AppData\Local\Temp\ccHikCPz.s 			page 21


 532:..\u8g2\csrc/u8x8_d_sh1107.c **** 
 533:..\u8g2\csrc/u8x8_d_sh1107.c **** uint8_t u8x8_d_sh1107_seeed_128x128(u8x8_t *u8x8, uint8_t msg, uint8_t arg_int, void *arg_ptr)
 534:..\u8g2\csrc/u8x8_d_sh1107.c **** {
 565              		.loc 1 534 0
 566              		.cfi_startproc
 567              		@ args = 0, pretend = 0, frame = 0
 568              		@ frame_needed = 0, uses_anonymous_args = 0
 569              	.LVL63:
 570 0000 38B5     		push	{r3, r4, r5, lr}
 571              		.cfi_def_cfa_offset 16
 572              		.cfi_offset 3, -16
 573              		.cfi_offset 4, -12
 574              		.cfi_offset 5, -8
 575              		.cfi_offset 14, -4
 576 0002 0546     		mov	r5, r0
 577 0004 0C46     		mov	r4, r1
 535:..\u8g2\csrc/u8x8_d_sh1107.c ****     
 536:..\u8g2\csrc/u8x8_d_sh1107.c ****   if ( u8x8_d_sh1107_generic(u8x8, msg, arg_int, arg_ptr) != 0 )
 578              		.loc 1 536 0
 579 0006 FFF7FEFF 		bl	u8x8_d_sh1107_generic
 580              	.LVL64:
 581 000a 98B9     		cbnz	r0, .L59
 582 000c 0346     		mov	r3, r0
 537:..\u8g2\csrc/u8x8_d_sh1107.c ****     return 1;
 538:..\u8g2\csrc/u8x8_d_sh1107.c ****   
 539:..\u8g2\csrc/u8x8_d_sh1107.c ****   switch(msg)
 583              		.loc 1 539 0
 584 000e 092C     		cmp	r4, #9
 585 0010 0AD0     		beq	.L57
 586 0012 0A2C     		cmp	r4, #10
 587 0014 0FD1     		bne	.L56
 540:..\u8g2\csrc/u8x8_d_sh1107.c ****   {
 541:..\u8g2\csrc/u8x8_d_sh1107.c ****     case U8X8_MSG_DISPLAY_INIT:
 542:..\u8g2\csrc/u8x8_d_sh1107.c ****       u8x8_d_helper_display_init(u8x8);
 588              		.loc 1 542 0
 589 0016 2846     		mov	r0, r5
 590 0018 FFF7FEFF 		bl	u8x8_d_helper_display_init
 591              	.LVL65:
 543:..\u8g2\csrc/u8x8_d_sh1107.c ****       u8x8_cad_SendSequence(u8x8, u8x8_d_sh1107_128x128_init_seq); 
 592              		.loc 1 543 0
 593 001c 0749     		ldr	r1, .L61
 594 001e 2846     		mov	r0, r5
 595 0020 FFF7FEFF 		bl	u8x8_cad_SendSequence
 596              	.LVL66:
 544:..\u8g2\csrc/u8x8_d_sh1107.c ****       break;
 545:..\u8g2\csrc/u8x8_d_sh1107.c ****     case U8X8_MSG_DISPLAY_SETUP_MEMORY:
 546:..\u8g2\csrc/u8x8_d_sh1107.c ****       u8x8_d_helper_display_setup_memory(u8x8, &u8x8_seeed_128x128_display_info);
 547:..\u8g2\csrc/u8x8_d_sh1107.c ****       break;
 548:..\u8g2\csrc/u8x8_d_sh1107.c ****     default:
 549:..\u8g2\csrc/u8x8_d_sh1107.c ****       return 0;
 550:..\u8g2\csrc/u8x8_d_sh1107.c ****   }
 551:..\u8g2\csrc/u8x8_d_sh1107.c ****   return 1;
 597              		.loc 1 551 0
 598 0024 0123     		movs	r3, #1
 544:..\u8g2\csrc/u8x8_d_sh1107.c ****       break;
 599              		.loc 1 544 0
 600 0026 06E0     		b	.L56
ARM GAS  C:\Users\brian\AppData\Local\Temp\ccHikCPz.s 			page 22


 601              	.L57:
 546:..\u8g2\csrc/u8x8_d_sh1107.c ****       break;
 602              		.loc 1 546 0
 603 0028 0549     		ldr	r1, .L61+4
 604 002a 2846     		mov	r0, r5
 605 002c FFF7FEFF 		bl	u8x8_d_helper_display_setup_memory
 606              	.LVL67:
 607              		.loc 1 551 0
 608 0030 0123     		movs	r3, #1
 547:..\u8g2\csrc/u8x8_d_sh1107.c ****     default:
 609              		.loc 1 547 0
 610 0032 00E0     		b	.L56
 611              	.L59:
 537:..\u8g2\csrc/u8x8_d_sh1107.c ****   
 612              		.loc 1 537 0
 613 0034 0123     		movs	r3, #1
 614              	.L56:
 552:..\u8g2\csrc/u8x8_d_sh1107.c **** }
 615              		.loc 1 552 0
 616 0036 1846     		mov	r0, r3
 617 0038 38BD     		pop	{r3, r4, r5, pc}
 618              	.LVL68:
 619              	.L62:
 620 003a 00BF     		.align	2
 621              	.L61:
 622 003c B0000000 		.word	.LANCHOR0+176
 623 0040 28010000 		.word	.LANCHOR0+296
 624              		.cfi_endproc
 625              	.LFE6:
 626              		.size	u8x8_d_sh1107_seeed_128x128, .-u8x8_d_sh1107_seeed_128x128
 627              		.section	.rodata
 628              		.align	2
 629              		.set	.LANCHOR0,. + 0
 630              		.type	u8x8_d_sh1107_64x128_noname_powersave0_seq, %object
 631              		.size	u8x8_d_sh1107_64x128_noname_powersave0_seq, 5
 632              	u8x8_d_sh1107_64x128_noname_powersave0_seq:
 633 0000 18       		.byte	24
 634 0001 15       		.byte	21
 635 0002 AF       		.byte	-81
 636 0003 19       		.byte	25
 637 0004 FF       		.byte	-1
 638 0005 000000   		.space	3
 639              		.type	u8x8_d_sh1107_64x128_noname_powersave1_seq, %object
 640              		.size	u8x8_d_sh1107_64x128_noname_powersave1_seq, 5
 641              	u8x8_d_sh1107_64x128_noname_powersave1_seq:
 642 0008 18       		.byte	24
 643 0009 15       		.byte	21
 644 000a AE       		.byte	-82
 645 000b 19       		.byte	25
 646 000c FF       		.byte	-1
 647 000d 000000   		.space	3
 648              		.type	u8x8_d_sh1107_64x128_noname_flip0_seq, %object
 649              		.size	u8x8_d_sh1107_64x128_noname_flip0_seq, 7
 650              	u8x8_d_sh1107_64x128_noname_flip0_seq:
 651 0010 18       		.byte	24
 652 0011 15       		.byte	21
 653 0012 A1       		.byte	-95
ARM GAS  C:\Users\brian\AppData\Local\Temp\ccHikCPz.s 			page 23


 654 0013 15       		.byte	21
 655 0014 C8       		.byte	-56
 656 0015 19       		.byte	25
 657 0016 FF       		.byte	-1
 658 0017 00       		.space	1
 659              		.type	u8x8_d_sh1107_64x128_noname_flip1_seq, %object
 660              		.size	u8x8_d_sh1107_64x128_noname_flip1_seq, 7
 661              	u8x8_d_sh1107_64x128_noname_flip1_seq:
 662 0018 18       		.byte	24
 663 0019 15       		.byte	21
 664 001a A0       		.byte	-96
 665 001b 15       		.byte	21
 666 001c C0       		.byte	-64
 667 001d 19       		.byte	25
 668 001e FF       		.byte	-1
 669 001f 00       		.space	1
 670              		.type	u8x8_d_sh1107_64x128_noname_init_seq, %object
 671              		.size	u8x8_d_sh1107_64x128_noname_init_seq, 49
 672              	u8x8_d_sh1107_64x128_noname_init_seq:
 673 0020 18       		.byte	24
 674 0021 15       		.byte	21
 675 0022 AE       		.byte	-82
 676 0023 15       		.byte	21
 677 0024 DC       		.byte	-36
 678 0025 16       		.byte	22
 679 0026 00       		.byte	0
 680 0027 15       		.byte	21
 681 0028 81       		.byte	-127
 682 0029 16       		.byte	22
 683 002a 2F       		.byte	47
 684 002b 15       		.byte	21
 685 002c 20       		.byte	32
 686 002d 15       		.byte	21
 687 002e A0       		.byte	-96
 688 002f 15       		.byte	21
 689 0030 C0       		.byte	-64
 690 0031 15       		.byte	21
 691 0032 A8       		.byte	-88
 692 0033 16       		.byte	22
 693 0034 7F       		.byte	127
 694 0035 15       		.byte	21
 695 0036 D3       		.byte	-45
 696 0037 16       		.byte	22
 697 0038 60       		.byte	96
 698 0039 15       		.byte	21
 699 003a D5       		.byte	-43
 700 003b 16       		.byte	22
 701 003c 51       		.byte	81
 702 003d 15       		.byte	21
 703 003e D9       		.byte	-39
 704 003f 16       		.byte	22
 705 0040 22       		.byte	34
 706 0041 15       		.byte	21
 707 0042 DB       		.byte	-37
 708 0043 16       		.byte	22
 709 0044 35       		.byte	53
 710 0045 15       		.byte	21
ARM GAS  C:\Users\brian\AppData\Local\Temp\ccHikCPz.s 			page 24


 711 0046 B0       		.byte	-80
 712 0047 15       		.byte	21
 713 0048 DA       		.byte	-38
 714 0049 16       		.byte	22
 715 004a 12       		.byte	18
 716 004b 15       		.byte	21
 717 004c A4       		.byte	-92
 718 004d 15       		.byte	21
 719 004e A6       		.byte	-90
 720 004f 19       		.byte	25
 721 0050 FF       		.byte	-1
 722 0051 000000   		.space	3
 723              		.type	u8x8_sh1107_64x128_noname_display_info, %object
 724              		.size	u8x8_sh1107_64x128_noname_display_info, 24
 725              	u8x8_sh1107_64x128_noname_display_info:
 726 0054 00       		.byte	0
 727 0055 01       		.byte	1
 728 0056 14       		.byte	20
 729 0057 0A       		.byte	10
 730 0058 64       		.byte	100
 731 0059 64       		.byte	100
 732 005a 32       		.byte	50
 733 005b 32       		.byte	50
 734 005c 00127A00 		.word	8000000
 735 0060 00       		.byte	0
 736 0061 04       		.byte	4
 737 0062 28       		.byte	40
 738 0063 96       		.byte	-106
 739 0064 08       		.byte	8
 740 0065 10       		.byte	16
 741 0066 00       		.byte	0
 742 0067 00       		.byte	0
 743 0068 4000     		.short	64
 744 006a 8000     		.short	128
 745              		.type	u8x8_d_sh1107_seeed_96x96_init_seq, %object
 746              		.size	u8x8_d_sh1107_seeed_96x96_init_seq, 43
 747              	u8x8_d_sh1107_seeed_96x96_init_seq:
 748 006c 18       		.byte	24
 749 006d 15       		.byte	21
 750 006e AE       		.byte	-82
 751 006f 15       		.byte	21
 752 0070 D5       		.byte	-43
 753 0071 16       		.byte	22
 754 0072 50       		.byte	80
 755 0073 15       		.byte	21
 756 0074 20       		.byte	32
 757 0075 15       		.byte	21
 758 0076 D3       		.byte	-45
 759 0077 16       		.byte	22
 760 0078 00       		.byte	0
 761 0079 15       		.byte	21
 762 007a DC       		.byte	-36
 763 007b 16       		.byte	22
 764 007c 00       		.byte	0
 765 007d 15       		.byte	21
 766 007e A1       		.byte	-95
 767 007f 15       		.byte	21
ARM GAS  C:\Users\brian\AppData\Local\Temp\ccHikCPz.s 			page 25


 768 0080 C8       		.byte	-56
 769 0081 15       		.byte	21
 770 0082 81       		.byte	-127
 771 0083 16       		.byte	22
 772 0084 80       		.byte	-128
 773 0085 15       		.byte	21
 774 0086 AD       		.byte	-83
 775 0087 16       		.byte	22
 776 0088 80       		.byte	-128
 777 0089 15       		.byte	21
 778 008a D9       		.byte	-39
 779 008b 16       		.byte	22
 780 008c 1F       		.byte	31
 781 008d 15       		.byte	21
 782 008e DB       		.byte	-37
 783 008f 16       		.byte	22
 784 0090 27       		.byte	39
 785 0091 15       		.byte	21
 786 0092 A4       		.byte	-92
 787 0093 15       		.byte	21
 788 0094 A6       		.byte	-90
 789 0095 19       		.byte	25
 790 0096 FF       		.byte	-1
 791 0097 00       		.space	1
 792              		.type	u8x8_sh1107_seeed_96x96_display_info, %object
 793              		.size	u8x8_sh1107_seeed_96x96_display_info, 24
 794              	u8x8_sh1107_seeed_96x96_display_info:
 795 0098 00       		.byte	0
 796 0099 01       		.byte	1
 797 009a 14       		.byte	20
 798 009b 0A       		.byte	10
 799 009c 64       		.byte	100
 800 009d 64       		.byte	100
 801 009e 64       		.byte	100
 802 009f 64       		.byte	100
 803 00a0 00093D00 		.word	4000000
 804 00a4 00       		.byte	0
 805 00a5 04       		.byte	4
 806 00a6 28       		.byte	40
 807 00a7 96       		.byte	-106
 808 00a8 0C       		.byte	12
 809 00a9 0C       		.byte	12
 810 00aa 00       		.byte	0
 811 00ab 00       		.byte	0
 812 00ac 6000     		.short	96
 813 00ae 6000     		.short	96
 814              		.type	u8x8_d_sh1107_128x128_init_seq, %object
 815              		.size	u8x8_d_sh1107_128x128_init_seq, 45
 816              	u8x8_d_sh1107_128x128_init_seq:
 817 00b0 18       		.byte	24
 818 00b1 15       		.byte	21
 819 00b2 AE       		.byte	-82
 820 00b3 15       		.byte	21
 821 00b4 DC       		.byte	-36
 822 00b5 16       		.byte	22
 823 00b6 00       		.byte	0
 824 00b7 15       		.byte	21
ARM GAS  C:\Users\brian\AppData\Local\Temp\ccHikCPz.s 			page 26


 825 00b8 81       		.byte	-127
 826 00b9 16       		.byte	22
 827 00ba 2F       		.byte	47
 828 00bb 15       		.byte	21
 829 00bc 20       		.byte	32
 830 00bd 15       		.byte	21
 831 00be A0       		.byte	-96
 832 00bf 15       		.byte	21
 833 00c0 C0       		.byte	-64
 834 00c1 15       		.byte	21
 835 00c2 A8       		.byte	-88
 836 00c3 16       		.byte	22
 837 00c4 7F       		.byte	127
 838 00c5 15       		.byte	21
 839 00c6 D5       		.byte	-43
 840 00c7 16       		.byte	22
 841 00c8 50       		.byte	80
 842 00c9 15       		.byte	21
 843 00ca D9       		.byte	-39
 844 00cb 16       		.byte	22
 845 00cc 22       		.byte	34
 846 00cd 15       		.byte	21
 847 00ce DB       		.byte	-37
 848 00cf 16       		.byte	22
 849 00d0 35       		.byte	53
 850 00d1 15       		.byte	21
 851 00d2 B0       		.byte	-80
 852 00d3 15       		.byte	21
 853 00d4 DA       		.byte	-38
 854 00d5 16       		.byte	22
 855 00d6 12       		.byte	18
 856 00d7 15       		.byte	21
 857 00d8 A4       		.byte	-92
 858 00d9 15       		.byte	21
 859 00da A6       		.byte	-90
 860 00db 19       		.byte	25
 861 00dc FF       		.byte	-1
 862 00dd 000000   		.space	3
 863              		.type	u8x8_sh1107_128x128_display_info, %object
 864              		.size	u8x8_sh1107_128x128_display_info, 24
 865              	u8x8_sh1107_128x128_display_info:
 866 00e0 00       		.byte	0
 867 00e1 01       		.byte	1
 868 00e2 14       		.byte	20
 869 00e3 0A       		.byte	10
 870 00e4 64       		.byte	100
 871 00e5 64       		.byte	100
 872 00e6 64       		.byte	100
 873 00e7 64       		.byte	100
 874 00e8 00093D00 		.word	4000000
 875 00ec 00       		.byte	0
 876 00ed 04       		.byte	4
 877 00ee 28       		.byte	40
 878 00ef 96       		.byte	-106
 879 00f0 10       		.byte	16
 880 00f1 10       		.byte	16
 881 00f2 60       		.byte	96
ARM GAS  C:\Users\brian\AppData\Local\Temp\ccHikCPz.s 			page 27


 882 00f3 60       		.byte	96
 883 00f4 8000     		.short	128
 884 00f6 8000     		.short	128
 885              		.type	u8x8_sh1107_128x80_display_info, %object
 886              		.size	u8x8_sh1107_128x80_display_info, 24
 887              	u8x8_sh1107_128x80_display_info:
 888 00f8 00       		.byte	0
 889 00f9 01       		.byte	1
 890 00fa 14       		.byte	20
 891 00fb 0A       		.byte	10
 892 00fc 64       		.byte	100
 893 00fd 64       		.byte	100
 894 00fe 64       		.byte	100
 895 00ff 64       		.byte	100
 896 0100 00093D00 		.word	4000000
 897 0104 00       		.byte	0
 898 0105 04       		.byte	4
 899 0106 28       		.byte	40
 900 0107 96       		.byte	-106
 901 0108 0A       		.byte	10
 902 0109 10       		.byte	16
 903 010a 18       		.byte	24
 904 010b 18       		.byte	24
 905 010c 5000     		.short	80
 906 010e 8000     		.short	128
 907              		.type	u8x8_sh1107_pimoroni_128x128_display_info, %object
 908              		.size	u8x8_sh1107_pimoroni_128x128_display_info, 24
 909              	u8x8_sh1107_pimoroni_128x128_display_info:
 910 0110 00       		.byte	0
 911 0111 01       		.byte	1
 912 0112 14       		.byte	20
 913 0113 0A       		.byte	10
 914 0114 64       		.byte	100
 915 0115 64       		.byte	100
 916 0116 64       		.byte	100
 917 0117 64       		.byte	100
 918 0118 00093D00 		.word	4000000
 919 011c 00       		.byte	0
 920 011d 04       		.byte	4
 921 011e 28       		.byte	40
 922 011f 96       		.byte	-106
 923 0120 10       		.byte	16
 924 0121 10       		.byte	16
 925 0122 00       		.byte	0
 926 0123 00       		.byte	0
 927 0124 8000     		.short	128
 928 0126 8000     		.short	128
 929              		.type	u8x8_seeed_128x128_display_info, %object
 930              		.size	u8x8_seeed_128x128_display_info, 24
 931              	u8x8_seeed_128x128_display_info:
 932 0128 00       		.byte	0
 933 0129 01       		.byte	1
 934 012a 14       		.byte	20
 935 012b 0A       		.byte	10
 936 012c 64       		.byte	100
 937 012d 64       		.byte	100
 938 012e 64       		.byte	100
ARM GAS  C:\Users\brian\AppData\Local\Temp\ccHikCPz.s 			page 28


 939 012f 64       		.byte	100
 940 0130 00093D00 		.word	4000000
 941 0134 00       		.byte	0
 942 0135 02       		.byte	2
 943 0136 28       		.byte	40
 944 0137 96       		.byte	-106
 945 0138 10       		.byte	16
 946 0139 10       		.byte	16
 947 013a 00       		.byte	0
 948 013b 00       		.byte	0
 949 013c 8000     		.short	128
 950 013e 8000     		.short	128
 951              		.text
 952              	.Letext0:
 953              		.file 2 "c:\\program files (x86)\\cypress\\psoc creator\\4.4\\psoc creator\\import\\gnu\\arm\\5.4.
 954              		.file 3 "c:\\program files (x86)\\cypress\\psoc creator\\4.4\\psoc creator\\import\\gnu\\arm\\5.4.
 955              		.file 4 "..\\u8g2\\csrc\\u8x8.h"