ARM GAS  C:\Users\brian\AppData\Local\Temp\cceAk6Dt.s 			page 1


   1              		.syntax unified
   2              		.cpu cortex-m3
   3              		.fpu softvfp
   4              		.eabi_attribute 20, 1
   5              		.eabi_attribute 21, 1
   6              		.eabi_attribute 23, 3
   7              		.eabi_attribute 24, 1
   8              		.eabi_attribute 25, 1
   9              		.eabi_attribute 26, 1
  10              		.eabi_attribute 30, 1
  11              		.eabi_attribute 34, 1
  12              		.eabi_attribute 18, 4
  13              		.thumb
  14              		.syntax unified
  15              		.file	"u8x8_d_st7586s_erc240160.c"
  16              		.text
  17              	.Ltext0:
  18              		.cfi_sections	.debug_frame
  19              		.section	.text.u8x8_d_st7586s_erc240160,"ax",%progbits
  20              		.align	2
  21              		.global	u8x8_d_st7586s_erc240160
  22              		.thumb
  23              		.thumb_func
  24              		.type	u8x8_d_st7586s_erc240160, %function
  25              	u8x8_d_st7586s_erc240160:
  26              	.LFB0:
  27              		.file 1 "..\\u8g2\\csrc\\u8x8_d_st7586s_erc240160.c"
   1:..\u8g2\csrc/u8x8_d_st7586s_erc240160.c **** /*
   2:..\u8g2\csrc/u8x8_d_st7586s_erc240160.c ****   u8x8_d_st7586s_erc240160.c
   3:..\u8g2\csrc/u8x8_d_st7586s_erc240160.c **** 
   4:..\u8g2\csrc/u8x8_d_st7586s_erc240160.c ****   Display: 240x160 pixel
   5:..\u8g2\csrc/u8x8_d_st7586s_erc240160.c ****   ST7586s: 384 x 160 x 2
   6:..\u8g2\csrc/u8x8_d_st7586s_erc240160.c **** 
   7:..\u8g2\csrc/u8x8_d_st7586s_erc240160.c ****   Universal 8bit Graphics Library (https://github.com/olikraus/u8g2/)
   8:..\u8g2\csrc/u8x8_d_st7586s_erc240160.c ****   
   9:..\u8g2\csrc/u8x8_d_st7586s_erc240160.c ****   Copyright (c) 2018, olikraus@gmail.com
  10:..\u8g2\csrc/u8x8_d_st7586s_erc240160.c ****   
  11:..\u8g2\csrc/u8x8_d_st7586s_erc240160.c ****   All rights reserved.
  12:..\u8g2\csrc/u8x8_d_st7586s_erc240160.c ****   Redistribution and use in source and binary forms, with or without modification, 
  13:..\u8g2\csrc/u8x8_d_st7586s_erc240160.c ****   are permitted provided that the following conditions are met:
  14:..\u8g2\csrc/u8x8_d_st7586s_erc240160.c ****   * Redistributions of source code must retain the above copyright notice, this list 
  15:..\u8g2\csrc/u8x8_d_st7586s_erc240160.c ****     of conditions and the following disclaimer.
  16:..\u8g2\csrc/u8x8_d_st7586s_erc240160.c ****     
  17:..\u8g2\csrc/u8x8_d_st7586s_erc240160.c ****   * Redistributions in binary form must reproduce the above copyright notice, this 
  18:..\u8g2\csrc/u8x8_d_st7586s_erc240160.c ****     list of conditions and the following disclaimer in the documentation and/or other 
  19:..\u8g2\csrc/u8x8_d_st7586s_erc240160.c ****     materials provided with the distribution.
  20:..\u8g2\csrc/u8x8_d_st7586s_erc240160.c ****   THIS SOFTWARE IS PROVIDED BY THE COPYRIGHT HOLDERS AND 
  21:..\u8g2\csrc/u8x8_d_st7586s_erc240160.c ****   CONTRIBUTORS "AS IS" AND ANY EXPRESS OR IMPLIED WARRANTIES, 
  22:..\u8g2\csrc/u8x8_d_st7586s_erc240160.c ****   INCLUDING, BUT NOT LIMITED TO, THE IMPLIED WARRANTIES OF 
  23:..\u8g2\csrc/u8x8_d_st7586s_erc240160.c ****   MERCHANTABILITY AND FITNESS FOR A PARTICULAR PURPOSE ARE 
  24:..\u8g2\csrc/u8x8_d_st7586s_erc240160.c ****   DISCLAIMED. IN NO EVENT SHALL THE COPYRIGHT HOLDER OR 
  25:..\u8g2\csrc/u8x8_d_st7586s_erc240160.c ****   CONTRIBUTORS BE LIABLE FOR ANY DIRECT, INDIRECT, INCIDENTAL, 
  26:..\u8g2\csrc/u8x8_d_st7586s_erc240160.c ****   SPECIAL, EXEMPLARY, OR CONSEQUENTIAL DAMAGES (INCLUDING, BUT 
  27:..\u8g2\csrc/u8x8_d_st7586s_erc240160.c ****   NOT LIMITED TO, PROCUREMENT OF SUBSTITUTE GOODS OR SERVICES; 
  28:..\u8g2\csrc/u8x8_d_st7586s_erc240160.c ****   LOSS OF USE, DATA, OR PROFITS; OR BUSINESS INTERRUPTION) HOWEVER 
  29:..\u8g2\csrc/u8x8_d_st7586s_erc240160.c ****   CAUSED AND ON ANY THEORY OF LIABILITY, WHETHER IN CONTRACT, 
  30:..\u8g2\csrc/u8x8_d_st7586s_erc240160.c ****   STRICT LIABILITY, OR TORT (INCLUDING NEGLIGENCE OR OTHERWISE) 
ARM GAS  C:\Users\brian\AppData\Local\Temp\cceAk6Dt.s 			page 2


  31:..\u8g2\csrc/u8x8_d_st7586s_erc240160.c ****   ARISING IN ANY WAY OUT OF THE USE OF THIS SOFTWARE, EVEN IF 
  32:..\u8g2\csrc/u8x8_d_st7586s_erc240160.c ****   ADVISED OF THE POSSIBILITY OF SUCH DAMAGE.  
  33:..\u8g2\csrc/u8x8_d_st7586s_erc240160.c ****   
  34:..\u8g2\csrc/u8x8_d_st7586s_erc240160.c **** */
  35:..\u8g2\csrc/u8x8_d_st7586s_erc240160.c **** 
  36:..\u8g2\csrc/u8x8_d_st7586s_erc240160.c **** #include "u8g2.h"
  37:..\u8g2\csrc/u8x8_d_st7586s_erc240160.c **** 
  38:..\u8g2\csrc/u8x8_d_st7586s_erc240160.c **** 
  39:..\u8g2\csrc/u8x8_d_st7586s_erc240160.c **** static const uint8_t u8x8_d_st7586s_sleep_on[] = {
  40:..\u8g2\csrc/u8x8_d_st7586s_erc240160.c ****   U8X8_START_TRANSFER(),  /* enable chip, delay is part of the transfer start */
  41:..\u8g2\csrc/u8x8_d_st7586s_erc240160.c ****   U8X8_C(0x010), /* set power save mode */
  42:..\u8g2\csrc/u8x8_d_st7586s_erc240160.c ****   U8X8_END_TRANSFER(),  /* disable chip */
  43:..\u8g2\csrc/u8x8_d_st7586s_erc240160.c ****   U8X8_END()                  /* end of sequence */
  44:..\u8g2\csrc/u8x8_d_st7586s_erc240160.c **** };
  45:..\u8g2\csrc/u8x8_d_st7586s_erc240160.c **** 
  46:..\u8g2\csrc/u8x8_d_st7586s_erc240160.c **** static const uint8_t u8x8_d_st7586s_sleep_off[] = {
  47:..\u8g2\csrc/u8x8_d_st7586s_erc240160.c ****   U8X8_START_TRANSFER(),  /* enable chip, delay is part of the transfer start */
  48:..\u8g2\csrc/u8x8_d_st7586s_erc240160.c ****   U8X8_C(0x011), //Sleep out
  49:..\u8g2\csrc/u8x8_d_st7586s_erc240160.c ****   U8X8_DLY(50), /* delay 50 ms */
  50:..\u8g2\csrc/u8x8_d_st7586s_erc240160.c ****   U8X8_END_TRANSFER(),  /* disable chip */
  51:..\u8g2\csrc/u8x8_d_st7586s_erc240160.c ****   U8X8_END()                  /* end of sequence */
  52:..\u8g2\csrc/u8x8_d_st7586s_erc240160.c **** };
  53:..\u8g2\csrc/u8x8_d_st7586s_erc240160.c **** 
  54:..\u8g2\csrc/u8x8_d_st7586s_erc240160.c **** static const uint8_t u8x8_d_st7586s_erc240160_flip0_seq[] = {
  55:..\u8g2\csrc/u8x8_d_st7586s_erc240160.c ****   U8X8_START_TRANSFER(),             	/* enable chip, delay is part of the transfer start */
  56:..\u8g2\csrc/u8x8_d_st7586s_erc240160.c ****   U8X8_C(0x036),  /* Scan Direction Setting */
  57:..\u8g2\csrc/u8x8_d_st7586s_erc240160.c ****   U8X8_A(0x0C8),	/* COM159 -> COM0 SEG383 -> SEG0 */
  58:..\u8g2\csrc/u8x8_d_st7586s_erc240160.c ****   U8X8_C(0x037),	/* Start line 0 */
  59:..\u8g2\csrc/u8x8_d_st7586s_erc240160.c ****   U8X8_A(0x000),
  60:..\u8g2\csrc/u8x8_d_st7586s_erc240160.c ****   U8X8_C(0x02A), /* Column Address Setting */
  61:..\u8g2\csrc/u8x8_d_st7586s_erc240160.c ****   U8X8_A(0x000),  /* COL8 -> COL127 */
  62:..\u8g2\csrc/u8x8_d_st7586s_erc240160.c ****   U8X8_A(0x008),  
  63:..\u8g2\csrc/u8x8_d_st7586s_erc240160.c ****   U8X8_A(0x000), 
  64:..\u8g2\csrc/u8x8_d_st7586s_erc240160.c ****   U8X8_A(0x07F),  /* 120*3=240 pixels + 120 unused */
  65:..\u8g2\csrc/u8x8_d_st7586s_erc240160.c ****   U8X8_END_TRANSFER(),  /* disable chip */
  66:..\u8g2\csrc/u8x8_d_st7586s_erc240160.c ****   U8X8_END()           	/* end of sequence */
  67:..\u8g2\csrc/u8x8_d_st7586s_erc240160.c **** };
  68:..\u8g2\csrc/u8x8_d_st7586s_erc240160.c **** 
  69:..\u8g2\csrc/u8x8_d_st7586s_erc240160.c **** static const uint8_t u8x8_d_st7586s_erc240160_flip1_seq[] = {
  70:..\u8g2\csrc/u8x8_d_st7586s_erc240160.c ****   U8X8_START_TRANSFER(),             	/* enable chip, delay is part of the transfer start */
  71:..\u8g2\csrc/u8x8_d_st7586s_erc240160.c ****   U8X8_C(0x036),  /* Scan Direction Setting */
  72:..\u8g2\csrc/u8x8_d_st7586s_erc240160.c ****   U8X8_A(0x000),  /* COM0 -> COM159 SEG0 -> SEG383 */
  73:..\u8g2\csrc/u8x8_d_st7586s_erc240160.c ****   U8X8_C(0x037),  /* Start line 0 */
  74:..\u8g2\csrc/u8x8_d_st7586s_erc240160.c ****   U8X8_A(0x000),
  75:..\u8g2\csrc/u8x8_d_st7586s_erc240160.c ****   U8X8_C(0x02A),  /* Column Address Setting */
  76:..\u8g2\csrc/u8x8_d_st7586s_erc240160.c ****   U8X8_A(0x000),  /* COL0 -> COL119 */
  77:..\u8g2\csrc/u8x8_d_st7586s_erc240160.c ****   U8X8_A(0x000),
  78:..\u8g2\csrc/u8x8_d_st7586s_erc240160.c ****   U8X8_A(0x000),
  79:..\u8g2\csrc/u8x8_d_st7586s_erc240160.c ****   U8X8_A(0x077),  /* 120*3=240 pixels + 120 unused */
  80:..\u8g2\csrc/u8x8_d_st7586s_erc240160.c ****   U8X8_END_TRANSFER(),  /* disable chip */
  81:..\u8g2\csrc/u8x8_d_st7586s_erc240160.c ****   U8X8_END()            /* end of sequence */
  82:..\u8g2\csrc/u8x8_d_st7586s_erc240160.c **** };
  83:..\u8g2\csrc/u8x8_d_st7586s_erc240160.c **** 
  84:..\u8g2\csrc/u8x8_d_st7586s_erc240160.c **** static const uint8_t u8x8_d_st7586s_erc240160_init_seq[] = {
  85:..\u8g2\csrc/u8x8_d_st7586s_erc240160.c ****   U8X8_START_TRANSFER(),/* enable chip */
  86:..\u8g2\csrc/u8x8_d_st7586s_erc240160.c ****   U8X8_END_TRANSFER(),/* disable chip */
  87:..\u8g2\csrc/u8x8_d_st7586s_erc240160.c ****  // U8G_ESC_RST(1), /* hardware reset */
ARM GAS  C:\Users\brian\AppData\Local\Temp\cceAk6Dt.s 			page 3


  88:..\u8g2\csrc/u8x8_d_st7586s_erc240160.c ****   U8X8_DLY(60),   /* Delay 60 ms */
  89:..\u8g2\csrc/u8x8_d_st7586s_erc240160.c ****   U8X8_START_TRANSFER(),/* enable chip */
  90:..\u8g2\csrc/u8x8_d_st7586s_erc240160.c **** 
  91:..\u8g2\csrc/u8x8_d_st7586s_erc240160.c ****   U8X8_C(0x001), // Soft reset
  92:..\u8g2\csrc/u8x8_d_st7586s_erc240160.c ****   U8X8_DLY(60), // Delay 120 ms
  93:..\u8g2\csrc/u8x8_d_st7586s_erc240160.c **** 
  94:..\u8g2\csrc/u8x8_d_st7586s_erc240160.c ****   U8X8_C(0x011), // Sleep Out
  95:..\u8g2\csrc/u8x8_d_st7586s_erc240160.c ****   U8X8_C(0x028), // Display OFF
  96:..\u8g2\csrc/u8x8_d_st7586s_erc240160.c ****   U8X8_DLY(25), // Delay 50 ms
  97:..\u8g2\csrc/u8x8_d_st7586s_erc240160.c **** 
  98:..\u8g2\csrc/u8x8_d_st7586s_erc240160.c ****   U8X8_CAA(0x0C0,0x036,0x01),// Vop = 136h data sheet suggested 0x0145 but this caused streaks
  99:..\u8g2\csrc/u8x8_d_st7586s_erc240160.c **** 
 100:..\u8g2\csrc/u8x8_d_st7586s_erc240160.c ****   U8X8_CA(0x0C3,0x000), // BIAS = 1/14
 101:..\u8g2\csrc/u8x8_d_st7586s_erc240160.c **** 
 102:..\u8g2\csrc/u8x8_d_st7586s_erc240160.c ****   U8X8_CA(0x0C4,0x007), // Booster = x8
 103:..\u8g2\csrc/u8x8_d_st7586s_erc240160.c **** 
 104:..\u8g2\csrc/u8x8_d_st7586s_erc240160.c ****   U8X8_CA(0x0D0,0x01D), // Enable Analog Circuit
 105:..\u8g2\csrc/u8x8_d_st7586s_erc240160.c **** 
 106:..\u8g2\csrc/u8x8_d_st7586s_erc240160.c ****   U8X8_CA(0x0B3,0x000), // Set FOSC divider
 107:..\u8g2\csrc/u8x8_d_st7586s_erc240160.c **** 
 108:..\u8g2\csrc/u8x8_d_st7586s_erc240160.c ****   U8X8_CA(0x0B5,0x000), // N-Line = 0
 109:..\u8g2\csrc/u8x8_d_st7586s_erc240160.c **** 
 110:..\u8g2\csrc/u8x8_d_st7586s_erc240160.c ****   U8X8_C(0x039), // 0x39 Monochrome mode. 0x38 - gray Mode
 111:..\u8g2\csrc/u8x8_d_st7586s_erc240160.c **** 
 112:..\u8g2\csrc/u8x8_d_st7586s_erc240160.c ****   U8X8_C(0x03A), // Enable DDRAM Interface
 113:..\u8g2\csrc/u8x8_d_st7586s_erc240160.c ****   U8X8_A(0x002), // monochrome and 4-level
 114:..\u8g2\csrc/u8x8_d_st7586s_erc240160.c **** 
 115:..\u8g2\csrc/u8x8_d_st7586s_erc240160.c ****   U8X8_C(0x036), // Scan Direction Setting
 116:..\u8g2\csrc/u8x8_d_st7586s_erc240160.c ****   U8X8_A(0x0C8), // COM:C159->C0   SEG: SEG383->SEG0
 117:..\u8g2\csrc/u8x8_d_st7586s_erc240160.c **** 
 118:..\u8g2\csrc/u8x8_d_st7586s_erc240160.c ****   U8X8_C(0x0B1), // First output COM
 119:..\u8g2\csrc/u8x8_d_st7586s_erc240160.c ****   U8X8_A(0x000), // 
 120:..\u8g2\csrc/u8x8_d_st7586s_erc240160.c ****   
 121:..\u8g2\csrc/u8x8_d_st7586s_erc240160.c ****   U8X8_C(0x0B0), // Duty Setting (num rows - 1)
 122:..\u8g2\csrc/u8x8_d_st7586s_erc240160.c ****   U8X8_A(0x09F), 
 123:..\u8g2\csrc/u8x8_d_st7586s_erc240160.c **** 
 124:..\u8g2\csrc/u8x8_d_st7586s_erc240160.c ****   U8X8_C(0x020), // Display inversion off
 125:..\u8g2\csrc/u8x8_d_st7586s_erc240160.c **** 
 126:..\u8g2\csrc/u8x8_d_st7586s_erc240160.c ****   U8X8_C(0x02A), // Column Address Setting
 127:..\u8g2\csrc/u8x8_d_st7586s_erc240160.c ****   U8X8_A(0x000), // COL0 -> COL127
 128:..\u8g2\csrc/u8x8_d_st7586s_erc240160.c ****   U8X8_A(0x008), // 
 129:..\u8g2\csrc/u8x8_d_st7586s_erc240160.c ****   U8X8_A(0x000), //
 130:..\u8g2\csrc/u8x8_d_st7586s_erc240160.c ****   U8X8_A(0x07F), // 80*3=240 pixels
 131:..\u8g2\csrc/u8x8_d_st7586s_erc240160.c **** 
 132:..\u8g2\csrc/u8x8_d_st7586s_erc240160.c ****   U8X8_C(0x02B), // Row Address Setting
 133:..\u8g2\csrc/u8x8_d_st7586s_erc240160.c ****   U8X8_A(0x000), // ROW0 -> ROW159
 134:..\u8g2\csrc/u8x8_d_st7586s_erc240160.c ****   U8X8_A(0x000), //
 135:..\u8g2\csrc/u8x8_d_st7586s_erc240160.c ****   U8X8_A(0x000), //
 136:..\u8g2\csrc/u8x8_d_st7586s_erc240160.c ****   U8X8_A(0x09F), // 160 pixels
 137:..\u8g2\csrc/u8x8_d_st7586s_erc240160.c **** 
 138:..\u8g2\csrc/u8x8_d_st7586s_erc240160.c ****   U8X8_C(0x029), // Display ON
 139:..\u8g2\csrc/u8x8_d_st7586s_erc240160.c ****   U8X8_END_TRANSFER(),/* disable chip */
 140:..\u8g2\csrc/u8x8_d_st7586s_erc240160.c ****   U8X8_END()  /* end of sequence */
 141:..\u8g2\csrc/u8x8_d_st7586s_erc240160.c **** };
 142:..\u8g2\csrc/u8x8_d_st7586s_erc240160.c **** 
 143:..\u8g2\csrc/u8x8_d_st7586s_erc240160.c **** static const u8x8_display_info_t u8x8_st7586s_erc240160_display_info =
 144:..\u8g2\csrc/u8x8_d_st7586s_erc240160.c **** {
ARM GAS  C:\Users\brian\AppData\Local\Temp\cceAk6Dt.s 			page 4


 145:..\u8g2\csrc/u8x8_d_st7586s_erc240160.c ****   /* chip_enable_level = */ 0,
 146:..\u8g2\csrc/u8x8_d_st7586s_erc240160.c ****   /* chip_disable_level = */ 1,
 147:..\u8g2\csrc/u8x8_d_st7586s_erc240160.c **** 
 148:..\u8g2\csrc/u8x8_d_st7586s_erc240160.c ****   /* post_chip_enable_wait_ns = */ 5,
 149:..\u8g2\csrc/u8x8_d_st7586s_erc240160.c ****   /* pre_chip_disable_wait_ns = */ 5,
 150:..\u8g2\csrc/u8x8_d_st7586s_erc240160.c ****   /* reset_pulse_width_ms = */ 1,
 151:..\u8g2\csrc/u8x8_d_st7586s_erc240160.c ****   /* post_reset_wait_ms = */ 6,
 152:..\u8g2\csrc/u8x8_d_st7586s_erc240160.c ****   /* sda_setup_time_ns = */ 20,
 153:..\u8g2\csrc/u8x8_d_st7586s_erc240160.c ****   /* sck_pulse_width_ns = */  100,  /* datasheet ST7586S */
 154:..\u8g2\csrc/u8x8_d_st7586s_erc240160.c ****   /* sck_clock_hz = */ 8000000UL, /* since Arduino 1.6.0, the SPI bus speed in Hz. Should be  10000
 155:..\u8g2\csrc/u8x8_d_st7586s_erc240160.c ****   /* ST7586+Atmega128RFA1 works with 8MHz */
 156:..\u8g2\csrc/u8x8_d_st7586s_erc240160.c ****   /* spi_mode = */ 3,   /* active high, rising edge */
 157:..\u8g2\csrc/u8x8_d_st7586s_erc240160.c ****   /* i2c_bus_clock_100kHz = */ 4,
 158:..\u8g2\csrc/u8x8_d_st7586s_erc240160.c ****   /* data_setup_time_ns = */ 20, /* datasheet suggests min 20 */
 159:..\u8g2\csrc/u8x8_d_st7586s_erc240160.c ****   /* write_pulse_width_ns = */ 40,
 160:..\u8g2\csrc/u8x8_d_st7586s_erc240160.c ****   /* tile_width = */ 30,
 161:..\u8g2\csrc/u8x8_d_st7586s_erc240160.c ****   /* tile_height = */ 20,
 162:..\u8g2\csrc/u8x8_d_st7586s_erc240160.c ****   /* default_x_offset = */ 0,  /* abused as flag to know if we are flipped */
 163:..\u8g2\csrc/u8x8_d_st7586s_erc240160.c ****   /* flipmode_x_offset = */ 1, /* as pixel order different for normal/flipped  */
 164:..\u8g2\csrc/u8x8_d_st7586s_erc240160.c ****   /* pixel_width = */ 240,
 165:..\u8g2\csrc/u8x8_d_st7586s_erc240160.c ****   /* pixel_height = */ 160
 166:..\u8g2\csrc/u8x8_d_st7586s_erc240160.c **** };
 167:..\u8g2\csrc/u8x8_d_st7586s_erc240160.c **** 
 168:..\u8g2\csrc/u8x8_d_st7586s_erc240160.c **** /*******************************************************************************
 169:..\u8g2\csrc/u8x8_d_st7586s_erc240160.c ****  * st7586s_erc240160 driver. ST7586 based display from buydisplay.com
 170:..\u8g2\csrc/u8x8_d_st7586s_erc240160.c ****  ******************************************************************************/
 171:..\u8g2\csrc/u8x8_d_st7586s_erc240160.c **** uint8_t u8x8_d_st7586s_erc240160(u8x8_t *u8x8, uint8_t msg, uint8_t arg_int, void *arg_ptr) {
  28              		.loc 1 171 0
  29              		.cfi_startproc
  30              		@ args = 0, pretend = 0, frame = 8
  31              		@ frame_needed = 0, uses_anonymous_args = 0
  32              	.LVL0:
  33 0000 70B5     		push	{r4, r5, r6, lr}
  34              		.cfi_def_cfa_offset 16
  35              		.cfi_offset 4, -16
  36              		.cfi_offset 5, -12
  37              		.cfi_offset 6, -8
  38              		.cfi_offset 14, -4
  39 0002 82B0     		sub	sp, sp, #8
  40              		.cfi_def_cfa_offset 24
  41 0004 0446     		mov	r4, r0
  42 0006 1546     		mov	r5, r2
  43 0008 1E46     		mov	r6, r3
 172:..\u8g2\csrc/u8x8_d_st7586s_erc240160.c ****   
 173:..\u8g2\csrc/u8x8_d_st7586s_erc240160.c ****   uint8_t c;
 174:..\u8g2\csrc/u8x8_d_st7586s_erc240160.c ****   uint8_t *ptr;
 175:..\u8g2\csrc/u8x8_d_st7586s_erc240160.c ****   uint8_t i, byte;
 176:..\u8g2\csrc/u8x8_d_st7586s_erc240160.c ****   uint32_t input;
 177:..\u8g2\csrc/u8x8_d_st7586s_erc240160.c ****   uint8_t output[4];
 178:..\u8g2\csrc/u8x8_d_st7586s_erc240160.c ****   switch (msg) {
  44              		.loc 1 178 0
  45 000a 0939     		subs	r1, r1, #9
  46              	.LVL1:
  47 000c 0629     		cmp	r1, #6
  48 000e 00F29D80 		bhi	.L20
  49 0012 DFE801F0 		tbb	[pc, r1]
  50              	.LVL2:
ARM GAS  C:\Users\brian\AppData\Local\Temp\cceAk6Dt.s 			page 5


  51              	.L4:
  52 0016 65       		.byte	(.L3-.L4)/2
  53 0017 5D       		.byte	(.L5-.L4)/2
  54 0018 7D       		.byte	(.L6-.L4)/2
  55 0019 9B       		.byte	(.L20-.L4)/2
  56 001a 6A       		.byte	(.L7-.L4)/2
  57 001b 88       		.byte	(.L8-.L4)/2
  58 001c 04       		.byte	(.L9-.L4)/2
  59 001d 00       		.p2align 1
  60              	.L9:
 179:..\u8g2\csrc/u8x8_d_st7586s_erc240160.c ****     case U8X8_MSG_DISPLAY_DRAW_TILE:
 180:..\u8g2\csrc/u8x8_d_st7586s_erc240160.c ****     u8x8_cad_StartTransfer(u8x8); // OK Start transfer
  61              		.loc 1 180 0
  62 001e FFF7FEFF 		bl	u8x8_cad_StartTransfer
  63              	.LVL3:
 181:..\u8g2\csrc/u8x8_d_st7586s_erc240160.c ****     u8x8_cad_SendCmd(u8x8, 0x02B);  /* Row Address Setting */
  64              		.loc 1 181 0
  65 0022 2B21     		movs	r1, #43
  66 0024 2046     		mov	r0, r4
  67 0026 FFF7FEFF 		bl	u8x8_cad_SendCmd
  68              	.LVL4:
 182:..\u8g2\csrc/u8x8_d_st7586s_erc240160.c ****     u8x8_cad_SendArg(u8x8, 0x000);
  69              		.loc 1 182 0
  70 002a 0021     		movs	r1, #0
  71 002c 2046     		mov	r0, r4
  72 002e FFF7FEFF 		bl	u8x8_cad_SendArg
  73              	.LVL5:
 183:..\u8g2\csrc/u8x8_d_st7586s_erc240160.c ****     u8x8_cad_SendArg(u8x8, 0x008 * ((u8x8_tile_t *)arg_ptr)->y_pos);
  74              		.loc 1 183 0
  75 0032 B179     		ldrb	r1, [r6, #6]	@ zero_extendqisi2
  76 0034 C900     		lsls	r1, r1, #3
  77 0036 01F0F801 		and	r1, r1, #248
  78 003a 2046     		mov	r0, r4
  79 003c FFF7FEFF 		bl	u8x8_cad_SendArg
  80              	.LVL6:
 184:..\u8g2\csrc/u8x8_d_st7586s_erc240160.c ****     u8x8_cad_SendArg(u8x8, 0x000);
  81              		.loc 1 184 0
  82 0040 0021     		movs	r1, #0
  83 0042 2046     		mov	r0, r4
  84 0044 FFF7FEFF 		bl	u8x8_cad_SendArg
  85              	.LVL7:
 185:..\u8g2\csrc/u8x8_d_st7586s_erc240160.c ****     u8x8_cad_SendArg(u8x8, 0x09F); // should set end row based on display dimensions
  86              		.loc 1 185 0
  87 0048 9F21     		movs	r1, #159
  88 004a 2046     		mov	r0, r4
  89 004c FFF7FEFF 		bl	u8x8_cad_SendArg
  90              	.LVL8:
 186:..\u8g2\csrc/u8x8_d_st7586s_erc240160.c ****     u8x8_cad_SendCmd(u8x8, 0x02C);  /* cmd write display data to ram */
  91              		.loc 1 186 0
  92 0050 2C21     		movs	r1, #44
  93 0052 2046     		mov	r0, r4
  94 0054 FFF7FEFF 		bl	u8x8_cad_SendCmd
  95              	.LVL9:
 187:..\u8g2\csrc/u8x8_d_st7586s_erc240160.c ****     c = ((u8x8_tile_t *) arg_ptr)->cnt; //
  96              		.loc 1 187 0
  97 0058 3579     		ldrb	r5, [r6, #4]	@ zero_extendqisi2
  98              	.LVL10:
ARM GAS  C:\Users\brian\AppData\Local\Temp\cceAk6Dt.s 			page 6


 188:..\u8g2\csrc/u8x8_d_st7586s_erc240160.c ****     c *= 8;
  99              		.loc 1 188 0
 100 005a ED00     		lsls	r5, r5, #3
 101              	.LVL11:
 102 005c EDB2     		uxtb	r5, r5
 103              	.LVL12:
 189:..\u8g2\csrc/u8x8_d_st7586s_erc240160.c ****     ptr = ((u8x8_tile_t *) arg_ptr)->tile_ptr;  //
 104              		.loc 1 189 0
 105 005e 3668     		ldr	r6, [r6]
 106              	.LVL13:
 190:..\u8g2\csrc/u8x8_d_st7586s_erc240160.c **** 
 191:..\u8g2\csrc/u8x8_d_st7586s_erc240160.c **** // The ST7586S has an unusual 3 pixels per byte format the ERC240160 is even more annoying
 192:..\u8g2\csrc/u8x8_d_st7586s_erc240160.c **** // as it has every 3rd COM line disconnected for extra oddness so here we read in a byte 
 193:..\u8g2\csrc/u8x8_d_st7586s_erc240160.c **** // (8 pixels) and pack that into 4 bytes of 2 pixels + 1 unused each. This has to be done
 194:..\u8g2\csrc/u8x8_d_st7586s_erc240160.c **** // in a different order for flipped, normal UUx11x22 flipped 11x22xUU
 195:..\u8g2\csrc/u8x8_d_st7586s_erc240160.c **** 	while (c > 0) {
 107              		.loc 1 195 0
 108 0060 2FE0     		b	.L10
 109              	.L17:
 196:..\u8g2\csrc/u8x8_d_st7586s_erc240160.c ****       input = ((uint8_t)ptr[0]);
 110              		.loc 1 196 0
 111 0062 3278     		ldrb	r2, [r6]	@ zero_extendqisi2
 112              	.LVL14:
 197:..\u8g2\csrc/u8x8_d_st7586s_erc240160.c ****       
 198:..\u8g2\csrc/u8x8_d_st7586s_erc240160.c ****       for (i=0; i<4; i++)
 113              		.loc 1 198 0
 114 0064 0023     		movs	r3, #0
 115 0066 22E0     		b	.L11
 116              	.LVL15:
 117              	.L16:
 199:..\u8g2\csrc/u8x8_d_st7586s_erc240160.c ****       {
 200:..\u8g2\csrc/u8x8_d_st7586s_erc240160.c ****         byte = 0;
 201:..\u8g2\csrc/u8x8_d_st7586s_erc240160.c ****         if (u8x8->x_offset ==0){
 118              		.loc 1 201 0
 119 0068 94F82200 		ldrb	r0, [r4, #34]	@ zero_extendqisi2
 120 006c 58B9     		cbnz	r0, .L21
 202:..\u8g2\csrc/u8x8_d_st7586s_erc240160.c ****           if (input & 0x80)          // if bit 7
 121              		.loc 1 202 0
 122 006e 12F0800F 		tst	r2, #128
 123 0072 01D1     		bne	.L22
 200:..\u8g2\csrc/u8x8_d_st7586s_erc240160.c ****         if (u8x8->x_offset ==0){
 124              		.loc 1 200 0
 125 0074 0021     		movs	r1, #0
 126 0076 00E0     		b	.L13
 127              	.L22:
 203:..\u8g2\csrc/u8x8_d_st7586s_erc240160.c ****             byte = byte | 0x18;  //set pixel 1
 128              		.loc 1 203 0
 129 0078 1821     		movs	r1, #24
 130              	.L13:
 131              	.LVL16:
 204:..\u8g2\csrc/u8x8_d_st7586s_erc240160.c ****           if (input & 0x40)          // if bit 6
 132              		.loc 1 204 0
 133 007a 12F0400F 		tst	r2, #64
 134 007e 03D0     		beq	.L12
 205:..\u8g2\csrc/u8x8_d_st7586s_erc240160.c ****             byte = byte | 0x3;  //set pixel 2
 135              		.loc 1 205 0
 136 0080 41F00301 		orr	r1, r1, #3
ARM GAS  C:\Users\brian\AppData\Local\Temp\cceAk6Dt.s 			page 7


 137              	.LVL17:
 138 0084 00E0     		b	.L12
 139              	.LVL18:
 140              	.L21:
 200:..\u8g2\csrc/u8x8_d_st7586s_erc240160.c ****         if (u8x8->x_offset ==0){
 141              		.loc 1 200 0
 142 0086 0021     		movs	r1, #0
 143              	.LVL19:
 144              	.L12:
 206:..\u8g2\csrc/u8x8_d_st7586s_erc240160.c ****         }
 207:..\u8g2\csrc/u8x8_d_st7586s_erc240160.c ****         if (u8x8->x_offset ==1){
 145              		.loc 1 207 0
 146 0088 0128     		cmp	r0, #1
 147 008a 09D1     		bne	.L14
 208:..\u8g2\csrc/u8x8_d_st7586s_erc240160.c ****           if (input & 0x80)          // if bit 7
 148              		.loc 1 208 0
 149 008c 12F0800F 		tst	r2, #128
 150 0090 01D0     		beq	.L15
 209:..\u8g2\csrc/u8x8_d_st7586s_erc240160.c ****             byte = byte | 0xC0;  //set pixel 1
 151              		.loc 1 209 0
 152 0092 41F0C001 		orr	r1, r1, #192
 153              	.LVL20:
 154              	.L15:
 210:..\u8g2\csrc/u8x8_d_st7586s_erc240160.c ****           if (input & 0x40)          // if bit 6
 155              		.loc 1 210 0
 156 0096 12F0400F 		tst	r2, #64
 157 009a 01D0     		beq	.L14
 211:..\u8g2\csrc/u8x8_d_st7586s_erc240160.c ****             byte = byte | 0x18;  //set pixel 2
 158              		.loc 1 211 0
 159 009c 41F01801 		orr	r1, r1, #24
 160              	.LVL21:
 161              	.L14:
 212:..\u8g2\csrc/u8x8_d_st7586s_erc240160.c ****         }
 213:..\u8g2\csrc/u8x8_d_st7586s_erc240160.c ****         output[i] = byte;
 162              		.loc 1 213 0 discriminator 2
 163 00a0 02A8     		add	r0, sp, #8
 164 00a2 1844     		add	r0, r0, r3
 165 00a4 00F8041C 		strb	r1, [r0, #-4]
 214:..\u8g2\csrc/u8x8_d_st7586s_erc240160.c ****         input <<= 2;
 166              		.loc 1 214 0 discriminator 2
 167 00a8 9200     		lsls	r2, r2, #2
 168              	.LVL22:
 198:..\u8g2\csrc/u8x8_d_st7586s_erc240160.c ****       {
 169              		.loc 1 198 0 discriminator 2
 170 00aa 0133     		adds	r3, r3, #1
 171              	.LVL23:
 172 00ac DBB2     		uxtb	r3, r3
 173              	.LVL24:
 174              	.L11:
 198:..\u8g2\csrc/u8x8_d_st7586s_erc240160.c ****       {
 175              		.loc 1 198 0 is_stmt 0 discriminator 1
 176 00ae 032B     		cmp	r3, #3
 177 00b0 DAD9     		bls	.L16
 215:..\u8g2\csrc/u8x8_d_st7586s_erc240160.c ****       }
 216:..\u8g2\csrc/u8x8_d_st7586s_erc240160.c ****       
 217:..\u8g2\csrc/u8x8_d_st7586s_erc240160.c ****       u8x8_cad_SendData(u8x8, 4, output);
 178              		.loc 1 217 0 is_stmt 1
ARM GAS  C:\Users\brian\AppData\Local\Temp\cceAk6Dt.s 			page 8


 179 00b2 01AA     		add	r2, sp, #4
 180              	.LVL25:
 181 00b4 0421     		movs	r1, #4
 182 00b6 2046     		mov	r0, r4
 183 00b8 FFF7FEFF 		bl	u8x8_cad_SendData
 184              	.LVL26:
 218:..\u8g2\csrc/u8x8_d_st7586s_erc240160.c ****       ptr += 1;
 185              		.loc 1 218 0
 186 00bc 0136     		adds	r6, r6, #1
 187              	.LVL27:
 219:..\u8g2\csrc/u8x8_d_st7586s_erc240160.c ****       c -= 1;
 188              		.loc 1 219 0
 189 00be 013D     		subs	r5, r5, #1
 190              	.LVL28:
 191 00c0 EDB2     		uxtb	r5, r5
 192              	.LVL29:
 193              	.L10:
 195:..\u8g2\csrc/u8x8_d_st7586s_erc240160.c ****       input = ((uint8_t)ptr[0]);
 194              		.loc 1 195 0
 195 00c2 002D     		cmp	r5, #0
 196 00c4 CDD1     		bne	.L17
 220:..\u8g2\csrc/u8x8_d_st7586s_erc240160.c ****     }
 221:..\u8g2\csrc/u8x8_d_st7586s_erc240160.c ****     u8x8_cad_EndTransfer(u8x8); 
 197              		.loc 1 221 0
 198 00c6 2046     		mov	r0, r4
 199 00c8 FFF7FEFF 		bl	u8x8_cad_EndTransfer
 200              	.LVL30:
 222:..\u8g2\csrc/u8x8_d_st7586s_erc240160.c ****     break;
 223:..\u8g2\csrc/u8x8_d_st7586s_erc240160.c ****   case U8X8_MSG_DISPLAY_INIT:
 224:..\u8g2\csrc/u8x8_d_st7586s_erc240160.c ****     u8x8_d_helper_display_init(u8x8);
 225:..\u8g2\csrc/u8x8_d_st7586s_erc240160.c ****     u8x8_cad_SendSequence(u8x8, u8x8_d_st7586s_erc240160_init_seq);
 226:..\u8g2\csrc/u8x8_d_st7586s_erc240160.c ****     break;
 227:..\u8g2\csrc/u8x8_d_st7586s_erc240160.c ****   case U8X8_MSG_DISPLAY_SETUP_MEMORY:
 228:..\u8g2\csrc/u8x8_d_st7586s_erc240160.c ****     u8x8_d_helper_display_setup_memory(u8x8, &u8x8_st7586s_erc240160_display_info);
 229:..\u8g2\csrc/u8x8_d_st7586s_erc240160.c ****     break;
 230:..\u8g2\csrc/u8x8_d_st7586s_erc240160.c ****   case U8X8_MSG_DISPLAY_SET_FLIP_MODE:
 231:..\u8g2\csrc/u8x8_d_st7586s_erc240160.c ****   	if ( arg_int == 0 )
 232:..\u8g2\csrc/u8x8_d_st7586s_erc240160.c ****     {
 233:..\u8g2\csrc/u8x8_d_st7586s_erc240160.c ****        u8x8_cad_SendSequence(u8x8, u8x8_d_st7586s_erc240160_flip0_seq);
 234:..\u8g2\csrc/u8x8_d_st7586s_erc240160.c ****        u8x8->x_offset = u8x8->display_info->default_x_offset;
 235:..\u8g2\csrc/u8x8_d_st7586s_erc240160.c ****     }
 236:..\u8g2\csrc/u8x8_d_st7586s_erc240160.c ****     else
 237:..\u8g2\csrc/u8x8_d_st7586s_erc240160.c ****     {
 238:..\u8g2\csrc/u8x8_d_st7586s_erc240160.c ****       u8x8_cad_SendSequence(u8x8, u8x8_d_st7586s_erc240160_flip1_seq);
 239:..\u8g2\csrc/u8x8_d_st7586s_erc240160.c ****       u8x8->x_offset = u8x8->display_info->flipmode_x_offset;
 240:..\u8g2\csrc/u8x8_d_st7586s_erc240160.c ****     }	
 241:..\u8g2\csrc/u8x8_d_st7586s_erc240160.c ****     break;
 242:..\u8g2\csrc/u8x8_d_st7586s_erc240160.c ****   case U8X8_MSG_DISPLAY_SET_POWER_SAVE:
 243:..\u8g2\csrc/u8x8_d_st7586s_erc240160.c ****     if (arg_int == 0)
 244:..\u8g2\csrc/u8x8_d_st7586s_erc240160.c ****       u8x8_cad_SendSequence(u8x8, u8x8_d_st7586s_sleep_off);
 245:..\u8g2\csrc/u8x8_d_st7586s_erc240160.c ****     else
 246:..\u8g2\csrc/u8x8_d_st7586s_erc240160.c ****       u8x8_cad_SendSequence(u8x8, u8x8_d_st7586s_sleep_on);
 247:..\u8g2\csrc/u8x8_d_st7586s_erc240160.c ****     break;
 248:..\u8g2\csrc/u8x8_d_st7586s_erc240160.c **** #ifdef U8X8_WITH_SET_CONTRAST
 249:..\u8g2\csrc/u8x8_d_st7586s_erc240160.c ****   case U8X8_MSG_DISPLAY_SET_CONTRAST:
 250:..\u8g2\csrc/u8x8_d_st7586s_erc240160.c ****     u8x8_cad_StartTransfer(u8x8);
 251:..\u8g2\csrc/u8x8_d_st7586s_erc240160.c ****     u8x8_cad_SendCmd(u8x8, 0x0C0);
ARM GAS  C:\Users\brian\AppData\Local\Temp\cceAk6Dt.s 			page 9


 252:..\u8g2\csrc/u8x8_d_st7586s_erc240160.c ****     u8x8_cad_SendArg(u8x8, arg_int);
 253:..\u8g2\csrc/u8x8_d_st7586s_erc240160.c ****     u8x8_cad_SendArg(u8x8, 1);
 254:..\u8g2\csrc/u8x8_d_st7586s_erc240160.c ****     u8x8_cad_EndTransfer(u8x8);
 255:..\u8g2\csrc/u8x8_d_st7586s_erc240160.c ****     break;
 256:..\u8g2\csrc/u8x8_d_st7586s_erc240160.c **** #endif
 257:..\u8g2\csrc/u8x8_d_st7586s_erc240160.c ****   default:
 258:..\u8g2\csrc/u8x8_d_st7586s_erc240160.c ****     return 0;
 259:..\u8g2\csrc/u8x8_d_st7586s_erc240160.c ****   }
 260:..\u8g2\csrc/u8x8_d_st7586s_erc240160.c ****   return 1;
 201              		.loc 1 260 0
 202 00cc 0120     		movs	r0, #1
 222:..\u8g2\csrc/u8x8_d_st7586s_erc240160.c ****     break;
 203              		.loc 1 222 0
 204 00ce 3EE0     		b	.L2
 205              	.LVL31:
 206              	.L5:
 224:..\u8g2\csrc/u8x8_d_st7586s_erc240160.c ****     u8x8_cad_SendSequence(u8x8, u8x8_d_st7586s_erc240160_init_seq);
 207              		.loc 1 224 0
 208 00d0 FFF7FEFF 		bl	u8x8_d_helper_display_init
 209              	.LVL32:
 225:..\u8g2\csrc/u8x8_d_st7586s_erc240160.c ****     break;
 210              		.loc 1 225 0
 211 00d4 1F49     		ldr	r1, .L24
 212 00d6 2046     		mov	r0, r4
 213 00d8 FFF7FEFF 		bl	u8x8_cad_SendSequence
 214              	.LVL33:
 215              		.loc 1 260 0
 216 00dc 0120     		movs	r0, #1
 226:..\u8g2\csrc/u8x8_d_st7586s_erc240160.c ****   case U8X8_MSG_DISPLAY_SETUP_MEMORY:
 217              		.loc 1 226 0
 218 00de 36E0     		b	.L2
 219              	.LVL34:
 220              	.L3:
 228:..\u8g2\csrc/u8x8_d_st7586s_erc240160.c ****     break;
 221              		.loc 1 228 0
 222 00e0 1D49     		ldr	r1, .L24+4
 223 00e2 FFF7FEFF 		bl	u8x8_d_helper_display_setup_memory
 224              	.LVL35:
 225              		.loc 1 260 0
 226 00e6 0120     		movs	r0, #1
 229:..\u8g2\csrc/u8x8_d_st7586s_erc240160.c ****   case U8X8_MSG_DISPLAY_SET_FLIP_MODE:
 227              		.loc 1 229 0
 228 00e8 31E0     		b	.L2
 229              	.LVL36:
 230              	.L7:
 231:..\u8g2\csrc/u8x8_d_st7586s_erc240160.c ****     {
 231              		.loc 1 231 0
 232 00ea 42B9     		cbnz	r2, .L18
 233:..\u8g2\csrc/u8x8_d_st7586s_erc240160.c ****        u8x8->x_offset = u8x8->display_info->default_x_offset;
 233              		.loc 1 233 0
 234 00ec 1B49     		ldr	r1, .L24+8
 235 00ee FFF7FEFF 		bl	u8x8_cad_SendSequence
 236              	.LVL37:
 234:..\u8g2\csrc/u8x8_d_st7586s_erc240160.c ****     }
 237              		.loc 1 234 0
 238 00f2 2368     		ldr	r3, [r4]
 239 00f4 9B7C     		ldrb	r3, [r3, #18]	@ zero_extendqisi2
ARM GAS  C:\Users\brian\AppData\Local\Temp\cceAk6Dt.s 			page 10


 240 00f6 84F82230 		strb	r3, [r4, #34]
 241              		.loc 1 260 0
 242 00fa 0120     		movs	r0, #1
 243 00fc 27E0     		b	.L2
 244              	.LVL38:
 245              	.L18:
 238:..\u8g2\csrc/u8x8_d_st7586s_erc240160.c ****       u8x8->x_offset = u8x8->display_info->flipmode_x_offset;
 246              		.loc 1 238 0
 247 00fe 1849     		ldr	r1, .L24+12
 248 0100 FFF7FEFF 		bl	u8x8_cad_SendSequence
 249              	.LVL39:
 239:..\u8g2\csrc/u8x8_d_st7586s_erc240160.c ****     }	
 250              		.loc 1 239 0
 251 0104 2368     		ldr	r3, [r4]
 252 0106 DB7C     		ldrb	r3, [r3, #19]	@ zero_extendqisi2
 253 0108 84F82230 		strb	r3, [r4, #34]
 254              		.loc 1 260 0
 255 010c 0120     		movs	r0, #1
 256 010e 1EE0     		b	.L2
 257              	.LVL40:
 258              	.L6:
 243:..\u8g2\csrc/u8x8_d_st7586s_erc240160.c ****       u8x8_cad_SendSequence(u8x8, u8x8_d_st7586s_sleep_off);
 259              		.loc 1 243 0
 260 0110 22B9     		cbnz	r2, .L19
 244:..\u8g2\csrc/u8x8_d_st7586s_erc240160.c ****     else
 261              		.loc 1 244 0
 262 0112 1449     		ldr	r1, .L24+16
 263 0114 FFF7FEFF 		bl	u8x8_cad_SendSequence
 264              	.LVL41:
 265              		.loc 1 260 0
 266 0118 0120     		movs	r0, #1
 267 011a 18E0     		b	.L2
 268              	.LVL42:
 269              	.L19:
 246:..\u8g2\csrc/u8x8_d_st7586s_erc240160.c ****     break;
 270              		.loc 1 246 0
 271 011c 1249     		ldr	r1, .L24+20
 272 011e FFF7FEFF 		bl	u8x8_cad_SendSequence
 273              	.LVL43:
 274              		.loc 1 260 0
 275 0122 0120     		movs	r0, #1
 276 0124 13E0     		b	.L2
 277              	.LVL44:
 278              	.L8:
 250:..\u8g2\csrc/u8x8_d_st7586s_erc240160.c ****     u8x8_cad_SendCmd(u8x8, 0x0C0);
 279              		.loc 1 250 0
 280 0126 FFF7FEFF 		bl	u8x8_cad_StartTransfer
 281              	.LVL45:
 251:..\u8g2\csrc/u8x8_d_st7586s_erc240160.c ****     u8x8_cad_SendArg(u8x8, arg_int);
 282              		.loc 1 251 0
 283 012a C021     		movs	r1, #192
 284 012c 2046     		mov	r0, r4
 285 012e FFF7FEFF 		bl	u8x8_cad_SendCmd
 286              	.LVL46:
 252:..\u8g2\csrc/u8x8_d_st7586s_erc240160.c ****     u8x8_cad_SendArg(u8x8, 1);
 287              		.loc 1 252 0
 288 0132 2946     		mov	r1, r5
ARM GAS  C:\Users\brian\AppData\Local\Temp\cceAk6Dt.s 			page 11


 289 0134 2046     		mov	r0, r4
 290 0136 FFF7FEFF 		bl	u8x8_cad_SendArg
 291              	.LVL47:
 253:..\u8g2\csrc/u8x8_d_st7586s_erc240160.c ****     u8x8_cad_EndTransfer(u8x8);
 292              		.loc 1 253 0
 293 013a 0121     		movs	r1, #1
 294 013c 2046     		mov	r0, r4
 295 013e FFF7FEFF 		bl	u8x8_cad_SendArg
 296              	.LVL48:
 254:..\u8g2\csrc/u8x8_d_st7586s_erc240160.c ****     break;
 297              		.loc 1 254 0
 298 0142 2046     		mov	r0, r4
 299 0144 FFF7FEFF 		bl	u8x8_cad_EndTransfer
 300              	.LVL49:
 301              		.loc 1 260 0
 302 0148 0120     		movs	r0, #1
 255:..\u8g2\csrc/u8x8_d_st7586s_erc240160.c **** #endif
 303              		.loc 1 255 0
 304 014a 00E0     		b	.L2
 305              	.LVL50:
 306              	.L20:
 258:..\u8g2\csrc/u8x8_d_st7586s_erc240160.c ****   }
 307              		.loc 1 258 0
 308 014c 0020     		movs	r0, #0
 309              	.LVL51:
 310              	.L2:
 261:..\u8g2\csrc/u8x8_d_st7586s_erc240160.c **** }
 311              		.loc 1 261 0
 312 014e 02B0     		add	sp, sp, #8
 313              		.cfi_def_cfa_offset 16
 314              		@ sp needed
 315 0150 70BD     		pop	{r4, r5, r6, pc}
 316              	.LVL52:
 317              	.L25:
 318 0152 00BF     		.align	2
 319              	.L24:
 320 0154 00000000 		.word	.LANCHOR0
 321 0158 58000000 		.word	.LANCHOR0+88
 322 015c 70000000 		.word	.LANCHOR0+112
 323 0160 88000000 		.word	.LANCHOR0+136
 324 0164 A0000000 		.word	.LANCHOR0+160
 325 0168 A8000000 		.word	.LANCHOR0+168
 326              		.cfi_endproc
 327              	.LFE0:
 328              		.size	u8x8_d_st7586s_erc240160, .-u8x8_d_st7586s_erc240160
 329              		.section	.rodata
 330              		.align	2
 331              		.set	.LANCHOR0,. + 0
 332              		.type	u8x8_d_st7586s_erc240160_init_seq, %object
 333              		.size	u8x8_d_st7586s_erc240160_init_seq, 85
 334              	u8x8_d_st7586s_erc240160_init_seq:
 335 0000 18       		.byte	24
 336 0001 19       		.byte	25
 337 0002 FE       		.byte	-2
 338 0003 3C       		.byte	60
 339 0004 18       		.byte	24
 340 0005 15       		.byte	21
ARM GAS  C:\Users\brian\AppData\Local\Temp\cceAk6Dt.s 			page 12


 341 0006 01       		.byte	1
 342 0007 FE       		.byte	-2
 343 0008 3C       		.byte	60
 344 0009 15       		.byte	21
 345 000a 11       		.byte	17
 346 000b 15       		.byte	21
 347 000c 28       		.byte	40
 348 000d FE       		.byte	-2
 349 000e 19       		.byte	25
 350 000f 15       		.byte	21
 351 0010 C0       		.byte	-64
 352 0011 16       		.byte	22
 353 0012 36       		.byte	54
 354 0013 16       		.byte	22
 355 0014 01       		.byte	1
 356 0015 15       		.byte	21
 357 0016 C3       		.byte	-61
 358 0017 16       		.byte	22
 359 0018 00       		.byte	0
 360 0019 15       		.byte	21
 361 001a C4       		.byte	-60
 362 001b 16       		.byte	22
 363 001c 07       		.byte	7
 364 001d 15       		.byte	21
 365 001e D0       		.byte	-48
 366 001f 16       		.byte	22
 367 0020 1D       		.byte	29
 368 0021 15       		.byte	21
 369 0022 B3       		.byte	-77
 370 0023 16       		.byte	22
 371 0024 00       		.byte	0
 372 0025 15       		.byte	21
 373 0026 B5       		.byte	-75
 374 0027 16       		.byte	22
 375 0028 00       		.byte	0
 376 0029 15       		.byte	21
 377 002a 39       		.byte	57
 378 002b 15       		.byte	21
 379 002c 3A       		.byte	58
 380 002d 16       		.byte	22
 381 002e 02       		.byte	2
 382 002f 15       		.byte	21
 383 0030 36       		.byte	54
 384 0031 16       		.byte	22
 385 0032 C8       		.byte	-56
 386 0033 15       		.byte	21
 387 0034 B1       		.byte	-79
 388 0035 16       		.byte	22
 389 0036 00       		.byte	0
 390 0037 15       		.byte	21
 391 0038 B0       		.byte	-80
 392 0039 16       		.byte	22
 393 003a 9F       		.byte	-97
 394 003b 15       		.byte	21
 395 003c 20       		.byte	32
 396 003d 15       		.byte	21
 397 003e 2A       		.byte	42
ARM GAS  C:\Users\brian\AppData\Local\Temp\cceAk6Dt.s 			page 13


 398 003f 16       		.byte	22
 399 0040 00       		.byte	0
 400 0041 16       		.byte	22
 401 0042 08       		.byte	8
 402 0043 16       		.byte	22
 403 0044 00       		.byte	0
 404 0045 16       		.byte	22
 405 0046 7F       		.byte	127
 406 0047 15       		.byte	21
 407 0048 2B       		.byte	43
 408 0049 16       		.byte	22
 409 004a 00       		.byte	0
 410 004b 16       		.byte	22
 411 004c 00       		.byte	0
 412 004d 16       		.byte	22
 413 004e 00       		.byte	0
 414 004f 16       		.byte	22
 415 0050 9F       		.byte	-97
 416 0051 15       		.byte	21
 417 0052 29       		.byte	41
 418 0053 19       		.byte	25
 419 0054 FF       		.byte	-1
 420 0055 000000   		.space	3
 421              		.type	u8x8_st7586s_erc240160_display_info, %object
 422              		.size	u8x8_st7586s_erc240160_display_info, 24
 423              	u8x8_st7586s_erc240160_display_info:
 424 0058 00       		.byte	0
 425 0059 01       		.byte	1
 426 005a 05       		.byte	5
 427 005b 05       		.byte	5
 428 005c 01       		.byte	1
 429 005d 06       		.byte	6
 430 005e 14       		.byte	20
 431 005f 64       		.byte	100
 432 0060 00127A00 		.word	8000000
 433 0064 03       		.byte	3
 434 0065 04       		.byte	4
 435 0066 14       		.byte	20
 436 0067 28       		.byte	40
 437 0068 1E       		.byte	30
 438 0069 14       		.byte	20
 439 006a 00       		.byte	0
 440 006b 01       		.byte	1
 441 006c F000     		.short	240
 442 006e A000     		.short	160
 443              		.type	u8x8_d_st7586s_erc240160_flip0_seq, %object
 444              		.size	u8x8_d_st7586s_erc240160_flip0_seq, 21
 445              	u8x8_d_st7586s_erc240160_flip0_seq:
 446 0070 18       		.byte	24
 447 0071 15       		.byte	21
 448 0072 36       		.byte	54
 449 0073 16       		.byte	22
 450 0074 C8       		.byte	-56
 451 0075 15       		.byte	21
 452 0076 37       		.byte	55
 453 0077 16       		.byte	22
 454 0078 00       		.byte	0
ARM GAS  C:\Users\brian\AppData\Local\Temp\cceAk6Dt.s 			page 14


 455 0079 15       		.byte	21
 456 007a 2A       		.byte	42
 457 007b 16       		.byte	22
 458 007c 00       		.byte	0
 459 007d 16       		.byte	22
 460 007e 08       		.byte	8
 461 007f 16       		.byte	22
 462 0080 00       		.byte	0
 463 0081 16       		.byte	22
 464 0082 7F       		.byte	127
 465 0083 19       		.byte	25
 466 0084 FF       		.byte	-1
 467 0085 000000   		.space	3
 468              		.type	u8x8_d_st7586s_erc240160_flip1_seq, %object
 469              		.size	u8x8_d_st7586s_erc240160_flip1_seq, 21
 470              	u8x8_d_st7586s_erc240160_flip1_seq:
 471 0088 18       		.byte	24
 472 0089 15       		.byte	21
 473 008a 36       		.byte	54
 474 008b 16       		.byte	22
 475 008c 00       		.byte	0
 476 008d 15       		.byte	21
 477 008e 37       		.byte	55
 478 008f 16       		.byte	22
 479 0090 00       		.byte	0
 480 0091 15       		.byte	21
 481 0092 2A       		.byte	42
 482 0093 16       		.byte	22
 483 0094 00       		.byte	0
 484 0095 16       		.byte	22
 485 0096 00       		.byte	0
 486 0097 16       		.byte	22
 487 0098 00       		.byte	0
 488 0099 16       		.byte	22
 489 009a 77       		.byte	119
 490 009b 19       		.byte	25
 491 009c FF       		.byte	-1
 492 009d 000000   		.space	3
 493              		.type	u8x8_d_st7586s_sleep_off, %object
 494              		.size	u8x8_d_st7586s_sleep_off, 7
 495              	u8x8_d_st7586s_sleep_off:
 496 00a0 18       		.byte	24
 497 00a1 15       		.byte	21
 498 00a2 11       		.byte	17
 499 00a3 FE       		.byte	-2
 500 00a4 32       		.byte	50
 501 00a5 19       		.byte	25
 502 00a6 FF       		.byte	-1
 503 00a7 00       		.space	1
 504              		.type	u8x8_d_st7586s_sleep_on, %object
 505              		.size	u8x8_d_st7586s_sleep_on, 5
 506              	u8x8_d_st7586s_sleep_on:
 507 00a8 18       		.byte	24
 508 00a9 15       		.byte	21
 509 00aa 10       		.byte	16
 510 00ab 19       		.byte	25
 511 00ac FF       		.byte	-1
ARM GAS  C:\Users\brian\AppData\Local\Temp\cceAk6Dt.s 			page 15


 512              		.text
 513              	.Letext0:
 514              		.file 2 "c:\\program files (x86)\\cypress\\psoc creator\\4.4\\psoc creator\\import\\gnu\\arm\\5.4.
 515              		.file 3 "c:\\program files (x86)\\cypress\\psoc creator\\4.4\\psoc creator\\import\\gnu\\arm\\5.4.
 516              		.file 4 "..\\u8g2\\csrc\\u8x8.h"