ARM GAS  C:\Users\brian\AppData\Local\Temp\cc4EvKKV.s 			page 1


   1              		.syntax unified
   2              		.cpu cortex-m3
   3              		.fpu softvfp
   4              		.eabi_attribute 20, 1
   5              		.eabi_attribute 21, 1
   6              		.eabi_attribute 23, 3
   7              		.eabi_attribute 24, 1
   8              		.eabi_attribute 25, 1
   9              		.eabi_attribute 26, 1
  10              		.eabi_attribute 30, 1
  11              		.eabi_attribute 34, 1
  12              		.eabi_attribute 18, 4
  13              		.thumb
  14              		.syntax unified
  15              		.file	"u8x8_d_st7920.c"
  16              		.text
  17              	.Ltext0:
  18              		.cfi_sections	.debug_frame
  19              		.section	.text.u8x8_d_st7920_common,"ax",%progbits
  20              		.align	2
  21              		.global	u8x8_d_st7920_common
  22              		.thumb
  23              		.thumb_func
  24              		.type	u8x8_d_st7920_common, %function
  25              	u8x8_d_st7920_common:
  26              	.LFB0:
  27              		.file 1 "..\\u8g2\\csrc\\u8x8_d_st7920.c"
   1:..\u8g2\csrc/u8x8_d_st7920.c **** /*
   2:..\u8g2\csrc/u8x8_d_st7920.c **** 
   3:..\u8g2\csrc/u8x8_d_st7920.c ****   u8x8_d_st7920.c
   4:..\u8g2\csrc/u8x8_d_st7920.c ****   
   5:..\u8g2\csrc/u8x8_d_st7920.c ****   Universal 8bit Graphics Library (https://github.com/olikraus/u8g2/)
   6:..\u8g2\csrc/u8x8_d_st7920.c **** 
   7:..\u8g2\csrc/u8x8_d_st7920.c ****   Copyright (c) 2016, olikraus@gmail.com
   8:..\u8g2\csrc/u8x8_d_st7920.c ****   All rights reserved.
   9:..\u8g2\csrc/u8x8_d_st7920.c **** 
  10:..\u8g2\csrc/u8x8_d_st7920.c ****   Redistribution and use in source and binary forms, with or without modification, 
  11:..\u8g2\csrc/u8x8_d_st7920.c ****   are permitted provided that the following conditions are met:
  12:..\u8g2\csrc/u8x8_d_st7920.c **** 
  13:..\u8g2\csrc/u8x8_d_st7920.c ****   * Redistributions of source code must retain the above copyright notice, this list 
  14:..\u8g2\csrc/u8x8_d_st7920.c ****     of conditions and the following disclaimer.
  15:..\u8g2\csrc/u8x8_d_st7920.c ****     
  16:..\u8g2\csrc/u8x8_d_st7920.c ****   * Redistributions in binary form must reproduce the above copyright notice, this 
  17:..\u8g2\csrc/u8x8_d_st7920.c ****     list of conditions and the following disclaimer in the documentation and/or other 
  18:..\u8g2\csrc/u8x8_d_st7920.c ****     materials provided with the distribution.
  19:..\u8g2\csrc/u8x8_d_st7920.c **** 
  20:..\u8g2\csrc/u8x8_d_st7920.c ****   THIS SOFTWARE IS PROVIDED BY THE COPYRIGHT HOLDERS AND 
  21:..\u8g2\csrc/u8x8_d_st7920.c ****   CONTRIBUTORS "AS IS" AND ANY EXPRESS OR IMPLIED WARRANTIES, 
  22:..\u8g2\csrc/u8x8_d_st7920.c ****   INCLUDING, BUT NOT LIMITED TO, THE IMPLIED WARRANTIES OF 
  23:..\u8g2\csrc/u8x8_d_st7920.c ****   MERCHANTABILITY AND FITNESS FOR A PARTICULAR PURPOSE ARE 
  24:..\u8g2\csrc/u8x8_d_st7920.c ****   DISCLAIMED. IN NO EVENT SHALL THE COPYRIGHT HOLDER OR 
  25:..\u8g2\csrc/u8x8_d_st7920.c ****   CONTRIBUTORS BE LIABLE FOR ANY DIRECT, INDIRECT, INCIDENTAL, 
  26:..\u8g2\csrc/u8x8_d_st7920.c ****   SPECIAL, EXEMPLARY, OR CONSEQUENTIAL DAMAGES (INCLUDING, BUT 
  27:..\u8g2\csrc/u8x8_d_st7920.c ****   NOT LIMITED TO, PROCUREMENT OF SUBSTITUTE GOODS OR SERVICES; 
  28:..\u8g2\csrc/u8x8_d_st7920.c ****   LOSS OF USE, DATA, OR PROFITS; OR BUSINESS INTERRUPTION) HOWEVER 
  29:..\u8g2\csrc/u8x8_d_st7920.c ****   CAUSED AND ON ANY THEORY OF LIABILITY, WHETHER IN CONTRACT, 
  30:..\u8g2\csrc/u8x8_d_st7920.c ****   STRICT LIABILITY, OR TORT (INCLUDING NEGLIGENCE OR OTHERWISE) 
ARM GAS  C:\Users\brian\AppData\Local\Temp\cc4EvKKV.s 			page 2


  31:..\u8g2\csrc/u8x8_d_st7920.c ****   ARISING IN ANY WAY OUT OF THE USE OF THIS SOFTWARE, EVEN IF 
  32:..\u8g2\csrc/u8x8_d_st7920.c ****   ADVISED OF THE POSSIBILITY OF SUCH DAMAGE.  
  33:..\u8g2\csrc/u8x8_d_st7920.c **** 
  34:..\u8g2\csrc/u8x8_d_st7920.c **** 
  35:..\u8g2\csrc/u8x8_d_st7920.c ****   The ST7920 controller does not support hardware graphics flip.
  36:..\u8g2\csrc/u8x8_d_st7920.c ****   Contrast adjustment is done by an external resistor --> no support for contrast adjustment
  37:..\u8g2\csrc/u8x8_d_st7920.c ****   
  38:..\u8g2\csrc/u8x8_d_st7920.c ****   
  39:..\u8g2\csrc/u8x8_d_st7920.c **** */
  40:..\u8g2\csrc/u8x8_d_st7920.c **** #include "u8x8.h"
  41:..\u8g2\csrc/u8x8_d_st7920.c **** 
  42:..\u8g2\csrc/u8x8_d_st7920.c **** 
  43:..\u8g2\csrc/u8x8_d_st7920.c **** 
  44:..\u8g2\csrc/u8x8_d_st7920.c **** static const uint8_t u8x8_d_st7920_init_seq[] = {
  45:..\u8g2\csrc/u8x8_d_st7920.c ****     
  46:..\u8g2\csrc/u8x8_d_st7920.c ****   U8X8_DLY(100),
  47:..\u8g2\csrc/u8x8_d_st7920.c ****   U8X8_START_TRANSFER(),             	/* enable chip, delay is part of the transfer start */
  48:..\u8g2\csrc/u8x8_d_st7920.c ****   U8X8_DLY(10),
  49:..\u8g2\csrc/u8x8_d_st7920.c ****   
  50:..\u8g2\csrc/u8x8_d_st7920.c ****   U8X8_C(0x038),            			/* 8 Bit interface (DL=1), basic instruction set (RE=0) */
  51:..\u8g2\csrc/u8x8_d_st7920.c ****   U8X8_C(0x008),		                /* display on, cursor & blink off; 0x08: all off */
  52:..\u8g2\csrc/u8x8_d_st7920.c ****   U8X8_C(0x006),		                /* Entry mode: Cursor move to right ,DDRAM address counter (AC) p
  53:..\u8g2\csrc/u8x8_d_st7920.c ****   U8X8_C(0x002),		                /* disable scroll, enable CGRAM adress  */
  54:..\u8g2\csrc/u8x8_d_st7920.c ****   U8X8_C(0x001),		                /* clear RAM, needs 1.6 ms */
  55:..\u8g2\csrc/u8x8_d_st7920.c ****   U8X8_DLY(4),					/* delay 2ms */
  56:..\u8g2\csrc/u8x8_d_st7920.c **** 
  57:..\u8g2\csrc/u8x8_d_st7920.c ****   
  58:..\u8g2\csrc/u8x8_d_st7920.c ****   U8X8_END_TRANSFER(),             	/* disable chip */
  59:..\u8g2\csrc/u8x8_d_st7920.c ****   U8X8_END()             			/* end of sequence */
  60:..\u8g2\csrc/u8x8_d_st7920.c **** };
  61:..\u8g2\csrc/u8x8_d_st7920.c **** 
  62:..\u8g2\csrc/u8x8_d_st7920.c **** static const uint8_t u8x8_d_st7920_powersave0_seq[] = {
  63:..\u8g2\csrc/u8x8_d_st7920.c ****   U8X8_START_TRANSFER(),             	/* enable chip, delay is part of the transfer start */
  64:..\u8g2\csrc/u8x8_d_st7920.c ****   U8X8_C(0x038),            			/* 8 Bit interface (DL=1), basic instruction set (RE=0) */
  65:..\u8g2\csrc/u8x8_d_st7920.c ****   U8X8_C(0x00c),		                /* display on, cursor & blink off */
  66:..\u8g2\csrc/u8x8_d_st7920.c ****   U8X8_END_TRANSFER(),             	/* disable chip */
  67:..\u8g2\csrc/u8x8_d_st7920.c ****   U8X8_END()             			/* end of sequence */
  68:..\u8g2\csrc/u8x8_d_st7920.c **** };
  69:..\u8g2\csrc/u8x8_d_st7920.c **** 
  70:..\u8g2\csrc/u8x8_d_st7920.c **** static const uint8_t u8x8_d_st7920_powersave1_seq[] = {
  71:..\u8g2\csrc/u8x8_d_st7920.c ****   U8X8_START_TRANSFER(),             	/* enable chip, delay is part of the transfer start */
  72:..\u8g2\csrc/u8x8_d_st7920.c ****   U8X8_C(0x038),            			/* 8 Bit interface (DL=1), basic instruction set (RE=0) */
  73:..\u8g2\csrc/u8x8_d_st7920.c ****   U8X8_C(0x008),		                /* display off */
  74:..\u8g2\csrc/u8x8_d_st7920.c ****   U8X8_C(0x034), /* 8 Bit interface (DL=1), extended instruction set (RE=1) */
  75:..\u8g2\csrc/u8x8_d_st7920.c ****   U8X8_C(0x001), /* Standby mode */
  76:..\u8g2\csrc/u8x8_d_st7920.c ****     
  77:..\u8g2\csrc/u8x8_d_st7920.c ****   U8X8_END_TRANSFER(),             	/* disable chip */
  78:..\u8g2\csrc/u8x8_d_st7920.c ****   U8X8_END()             			/* end of sequence */
  79:..\u8g2\csrc/u8x8_d_st7920.c **** };
  80:..\u8g2\csrc/u8x8_d_st7920.c **** 
  81:..\u8g2\csrc/u8x8_d_st7920.c **** 
  82:..\u8g2\csrc/u8x8_d_st7920.c **** uint8_t u8x8_d_st7920_common(u8x8_t *u8x8, uint8_t msg, uint8_t arg_int, void *arg_ptr)
  83:..\u8g2\csrc/u8x8_d_st7920.c **** {
  28              		.loc 1 83 0
  29              		.cfi_startproc
  30              		@ args = 0, pretend = 0, frame = 0
  31              		@ frame_needed = 0, uses_anonymous_args = 0
ARM GAS  C:\Users\brian\AppData\Local\Temp\cc4EvKKV.s 			page 3


  32              	.LVL0:
  33 0000 2DE9F047 		push	{r4, r5, r6, r7, r8, r9, r10, lr}
  34              		.cfi_def_cfa_offset 32
  35              		.cfi_offset 4, -32
  36              		.cfi_offset 5, -28
  37              		.cfi_offset 6, -24
  38              		.cfi_offset 7, -20
  39              		.cfi_offset 8, -16
  40              		.cfi_offset 9, -12
  41              		.cfi_offset 10, -8
  42              		.cfi_offset 14, -4
  43 0004 0546     		mov	r5, r0
  84:..\u8g2\csrc/u8x8_d_st7920.c ****   uint8_t x, y, c, i;
  85:..\u8g2\csrc/u8x8_d_st7920.c ****   uint8_t *ptr;
  86:..\u8g2\csrc/u8x8_d_st7920.c ****   switch(msg)
  44              		.loc 1 86 0
  45 0006 0B29     		cmp	r1, #11
  46 0008 0DD0     		beq	.L3
  47 000a 9846     		mov	r8, r3
  48 000c 0F29     		cmp	r1, #15
  49 000e 17D0     		beq	.L4
  50 0010 0A29     		cmp	r1, #10
  51 0012 50D1     		bne	.L11
  87:..\u8g2\csrc/u8x8_d_st7920.c ****   {
  88:..\u8g2\csrc/u8x8_d_st7920.c ****     /* U8X8_MSG_DISPLAY_SETUP_MEMORY is handled by the calling function */
  89:..\u8g2\csrc/u8x8_d_st7920.c ****     /*
  90:..\u8g2\csrc/u8x8_d_st7920.c ****     case U8X8_MSG_DISPLAY_SETUP_MEMORY:
  91:..\u8g2\csrc/u8x8_d_st7920.c ****       break;
  92:..\u8g2\csrc/u8x8_d_st7920.c ****     */
  93:..\u8g2\csrc/u8x8_d_st7920.c ****     case U8X8_MSG_DISPLAY_INIT:
  94:..\u8g2\csrc/u8x8_d_st7920.c ****       u8x8_d_helper_display_init(u8x8);
  52              		.loc 1 94 0
  53 0014 FFF7FEFF 		bl	u8x8_d_helper_display_init
  54              	.LVL1:
  95:..\u8g2\csrc/u8x8_d_st7920.c ****       u8x8_cad_SendSequence(u8x8, u8x8_d_st7920_init_seq);
  55              		.loc 1 95 0
  56 0018 2849     		ldr	r1, .L13
  57 001a 2846     		mov	r0, r5
  58 001c FFF7FEFF 		bl	u8x8_cad_SendSequence
  59              	.LVL2:
  96:..\u8g2\csrc/u8x8_d_st7920.c ****       break;
  97:..\u8g2\csrc/u8x8_d_st7920.c ****     case U8X8_MSG_DISPLAY_SET_POWER_SAVE:
  98:..\u8g2\csrc/u8x8_d_st7920.c ****       if ( arg_int == 0 )
  99:..\u8g2\csrc/u8x8_d_st7920.c **** 	u8x8_cad_SendSequence(u8x8, u8x8_d_st7920_powersave0_seq);
 100:..\u8g2\csrc/u8x8_d_st7920.c ****       else
 101:..\u8g2\csrc/u8x8_d_st7920.c **** 	u8x8_cad_SendSequence(u8x8, u8x8_d_st7920_powersave1_seq);
 102:..\u8g2\csrc/u8x8_d_st7920.c ****       break;
 103:..\u8g2\csrc/u8x8_d_st7920.c ****     case U8X8_MSG_DISPLAY_DRAW_TILE:
 104:..\u8g2\csrc/u8x8_d_st7920.c ****       y = (((u8x8_tile_t *)arg_ptr)->y_pos);
 105:..\u8g2\csrc/u8x8_d_st7920.c ****       y*=8;
 106:..\u8g2\csrc/u8x8_d_st7920.c ****       x = ((u8x8_tile_t *)arg_ptr)->x_pos;
 107:..\u8g2\csrc/u8x8_d_st7920.c ****       x /= 2;		/* not sure whether this is a clever idea, problem is, the ST7920 can address only e
 108:..\u8g2\csrc/u8x8_d_st7920.c ****     
 109:..\u8g2\csrc/u8x8_d_st7920.c ****       if ( y >= 32 )	/* this is the adjustment for 128x64 displays */
 110:..\u8g2\csrc/u8x8_d_st7920.c ****       {
 111:..\u8g2\csrc/u8x8_d_st7920.c **** 	y-=32;
 112:..\u8g2\csrc/u8x8_d_st7920.c **** 	x+=8;
ARM GAS  C:\Users\brian\AppData\Local\Temp\cc4EvKKV.s 			page 4


 113:..\u8g2\csrc/u8x8_d_st7920.c ****       }
 114:..\u8g2\csrc/u8x8_d_st7920.c ****     
 115:..\u8g2\csrc/u8x8_d_st7920.c ****       u8x8_cad_StartTransfer(u8x8);
 116:..\u8g2\csrc/u8x8_d_st7920.c ****         
 117:..\u8g2\csrc/u8x8_d_st7920.c **** 
 118:..\u8g2\csrc/u8x8_d_st7920.c ****       /* 
 119:..\u8g2\csrc/u8x8_d_st7920.c **** 	Tile structure is reused here for the ST7920, however u8x8 is not supported 
 120:..\u8g2\csrc/u8x8_d_st7920.c **** 	tile_ptr points to data which has cnt*8 bytes (same as SSD1306 tiles)
 121:..\u8g2\csrc/u8x8_d_st7920.c **** 	Buffer is expected to have 8 lines of code fitting to the ST7920 internal memory
 122:..\u8g2\csrc/u8x8_d_st7920.c **** 	"cnt" includes the number of horizontal bytes. width is equal to cnt*8
 123:..\u8g2\csrc/u8x8_d_st7920.c **** 	Also important: Width must be a multiple of 16 (ST7920 requirement), so cnt must be even.
 124:..\u8g2\csrc/u8x8_d_st7920.c **** 	
 125:..\u8g2\csrc/u8x8_d_st7920.c **** 	TODO: Consider arg_int, however arg_int is not used by u8g2
 126:..\u8g2\csrc/u8x8_d_st7920.c ****       */
 127:..\u8g2\csrc/u8x8_d_st7920.c ****       c = ((u8x8_tile_t *)arg_ptr)->cnt;	/* number of tiles */
 128:..\u8g2\csrc/u8x8_d_st7920.c ****       ptr = ((u8x8_tile_t *)arg_ptr)->tile_ptr;	/* data ptr to the tiles */
 129:..\u8g2\csrc/u8x8_d_st7920.c ****       /* The following byte is sent to allow the ST7920 to sync up with the data */
 130:..\u8g2\csrc/u8x8_d_st7920.c ****       /* it solves some issues with garbage data */
 131:..\u8g2\csrc/u8x8_d_st7920.c ****       u8x8_cad_SendCmd(u8x8, 0x03e );	/* enable extended mode */
 132:..\u8g2\csrc/u8x8_d_st7920.c ****       u8x8_cad_SendCmd(u8x8, 0x03e );	/* enable extended mode, issue 487 */
 133:..\u8g2\csrc/u8x8_d_st7920.c ****       for( i = 0; i < 8; i++ )
 134:..\u8g2\csrc/u8x8_d_st7920.c ****       {
 135:..\u8g2\csrc/u8x8_d_st7920.c **** 	//u8x8_cad_SendCmd(u8x8, 0x03e );	/* enable extended mode */
 136:..\u8g2\csrc/u8x8_d_st7920.c **** 	u8x8_cad_SendCmd(u8x8, 0x080 | (y+i) );      /* y pos  */
 137:..\u8g2\csrc/u8x8_d_st7920.c **** 	u8x8_cad_SendCmd(u8x8, 0x080 | x );      /* set x pos */
 138:..\u8g2\csrc/u8x8_d_st7920.c **** 	c = ((u8x8_tile_t *)arg_ptr)->cnt;	/* number of tiles */
 139:..\u8g2\csrc/u8x8_d_st7920.c **** 
 140:..\u8g2\csrc/u8x8_d_st7920.c **** 	//u8x8->gpio_and_delay_cb(u8x8, U8X8_MSG_DELAY_NANO, 200, NULL);	/* extra dely required */
 141:..\u8g2\csrc/u8x8_d_st7920.c **** 	u8x8_cad_SendData(u8x8, c, ptr);	/* note: SendData can not handle more than 255 bytes, send one li
 142:..\u8g2\csrc/u8x8_d_st7920.c **** 	ptr += c;
 143:..\u8g2\csrc/u8x8_d_st7920.c **** 	//u8x8->gpio_and_delay_cb(u8x8, U8X8_MSG_DELAY_NANO, 200, NULL);	/* extra dely required */
 144:..\u8g2\csrc/u8x8_d_st7920.c ****       }
 145:..\u8g2\csrc/u8x8_d_st7920.c **** 
 146:..\u8g2\csrc/u8x8_d_st7920.c ****       u8x8_cad_EndTransfer(u8x8);
 147:..\u8g2\csrc/u8x8_d_st7920.c **** 
 148:..\u8g2\csrc/u8x8_d_st7920.c ****       break;
 149:..\u8g2\csrc/u8x8_d_st7920.c ****     default:
 150:..\u8g2\csrc/u8x8_d_st7920.c ****       return 0;
 151:..\u8g2\csrc/u8x8_d_st7920.c ****   }
 152:..\u8g2\csrc/u8x8_d_st7920.c ****   return 1;
  60              		.loc 1 152 0
  61 0020 0120     		movs	r0, #1
  96:..\u8g2\csrc/u8x8_d_st7920.c ****       break;
  62              		.loc 1 96 0
  63 0022 BDE8F087 		pop	{r4, r5, r6, r7, r8, r9, r10, pc}
  64              	.LVL3:
  65              	.L3:
  98:..\u8g2\csrc/u8x8_d_st7920.c **** 	u8x8_cad_SendSequence(u8x8, u8x8_d_st7920_powersave0_seq);
  66              		.loc 1 98 0
  67 0026 2AB9     		cbnz	r2, .L6
  99:..\u8g2\csrc/u8x8_d_st7920.c ****       else
  68              		.loc 1 99 0
  69 0028 2549     		ldr	r1, .L13+4
  70              	.LVL4:
  71 002a FFF7FEFF 		bl	u8x8_cad_SendSequence
  72              	.LVL5:
  73              		.loc 1 152 0
ARM GAS  C:\Users\brian\AppData\Local\Temp\cc4EvKKV.s 			page 5


  74 002e 0120     		movs	r0, #1
  75 0030 BDE8F087 		pop	{r4, r5, r6, r7, r8, r9, r10, pc}
  76              	.LVL6:
  77              	.L6:
 101:..\u8g2\csrc/u8x8_d_st7920.c ****       break;
  78              		.loc 1 101 0
  79 0034 2349     		ldr	r1, .L13+8
  80              	.LVL7:
  81 0036 FFF7FEFF 		bl	u8x8_cad_SendSequence
  82              	.LVL8:
  83              		.loc 1 152 0
  84 003a 0120     		movs	r0, #1
  85 003c BDE8F087 		pop	{r4, r5, r6, r7, r8, r9, r10, pc}
  86              	.LVL9:
  87              	.L4:
 104:..\u8g2\csrc/u8x8_d_st7920.c ****       y*=8;
  88              		.loc 1 104 0
  89 0040 9F79     		ldrb	r7, [r3, #6]	@ zero_extendqisi2
  90              	.LVL10:
 105:..\u8g2\csrc/u8x8_d_st7920.c ****       x = ((u8x8_tile_t *)arg_ptr)->x_pos;
  91              		.loc 1 105 0
  92 0042 FF00     		lsls	r7, r7, #3
  93              	.LVL11:
  94 0044 FFB2     		uxtb	r7, r7
  95              	.LVL12:
 106:..\u8g2\csrc/u8x8_d_st7920.c ****       x /= 2;		/* not sure whether this is a clever idea, problem is, the ST7920 can address only e
  96              		.loc 1 106 0
  97 0046 93F80590 		ldrb	r9, [r3, #5]	@ zero_extendqisi2
  98              	.LVL13:
 107:..\u8g2\csrc/u8x8_d_st7920.c ****     
  99              		.loc 1 107 0
 100 004a 4FEA5909 		lsr	r9, r9, #1
 101              	.LVL14:
 109:..\u8g2\csrc/u8x8_d_st7920.c ****       {
 102              		.loc 1 109 0
 103 004e 1F2F     		cmp	r7, #31
 104 0050 03D9     		bls	.L7
 111:..\u8g2\csrc/u8x8_d_st7920.c **** 	x+=8;
 105              		.loc 1 111 0
 106 0052 203F     		subs	r7, r7, #32
 107              	.LVL15:
 108 0054 FFB2     		uxtb	r7, r7
 109              	.LVL16:
 112:..\u8g2\csrc/u8x8_d_st7920.c ****       }
 110              		.loc 1 112 0
 111 0056 09F10809 		add	r9, r9, #8
 112              	.LVL17:
 113              	.L7:
 115:..\u8g2\csrc/u8x8_d_st7920.c ****         
 114              		.loc 1 115 0
 115 005a 2846     		mov	r0, r5
 116              	.LVL18:
 117 005c FFF7FEFF 		bl	u8x8_cad_StartTransfer
 118              	.LVL19:
 128:..\u8g2\csrc/u8x8_d_st7920.c ****       /* The following byte is sent to allow the ST7920 to sync up with the data */
 119              		.loc 1 128 0
 120 0060 D8F80060 		ldr	r6, [r8]
ARM GAS  C:\Users\brian\AppData\Local\Temp\cc4EvKKV.s 			page 6


 121              	.LVL20:
 131:..\u8g2\csrc/u8x8_d_st7920.c ****       u8x8_cad_SendCmd(u8x8, 0x03e );	/* enable extended mode, issue 487 */
 122              		.loc 1 131 0
 123 0064 3E21     		movs	r1, #62
 124 0066 2846     		mov	r0, r5
 125 0068 FFF7FEFF 		bl	u8x8_cad_SendCmd
 126              	.LVL21:
 132:..\u8g2\csrc/u8x8_d_st7920.c ****       for( i = 0; i < 8; i++ )
 127              		.loc 1 132 0
 128 006c 3E21     		movs	r1, #62
 129 006e 2846     		mov	r0, r5
 130 0070 FFF7FEFF 		bl	u8x8_cad_SendCmd
 131              	.LVL22:
 133:..\u8g2\csrc/u8x8_d_st7920.c ****       {
 132              		.loc 1 133 0
 133 0074 0024     		movs	r4, #0
 134 0076 16E0     		b	.L8
 135              	.LVL23:
 136              	.L9:
 136:..\u8g2\csrc/u8x8_d_st7920.c **** 	u8x8_cad_SendCmd(u8x8, 0x080 | x );      /* set x pos */
 137              		.loc 1 136 0 discriminator 3
 138 0078 3919     		adds	r1, r7, r4
 139 007a 61F07F01 		orn	r1, r1, #127
 140 007e C9B2     		uxtb	r1, r1
 141 0080 2846     		mov	r0, r5
 142 0082 FFF7FEFF 		bl	u8x8_cad_SendCmd
 143              	.LVL24:
 137:..\u8g2\csrc/u8x8_d_st7920.c **** 	c = ((u8x8_tile_t *)arg_ptr)->cnt;	/* number of tiles */
 144              		.loc 1 137 0 discriminator 3
 145 0086 69F07F01 		orn	r1, r9, #127
 146 008a C9B2     		uxtb	r1, r1
 147 008c 2846     		mov	r0, r5
 148 008e FFF7FEFF 		bl	u8x8_cad_SendCmd
 149              	.LVL25:
 138:..\u8g2\csrc/u8x8_d_st7920.c **** 
 150              		.loc 1 138 0 discriminator 3
 151 0092 98F804A0 		ldrb	r10, [r8, #4]	@ zero_extendqisi2
 152              	.LVL26:
 141:..\u8g2\csrc/u8x8_d_st7920.c **** 	ptr += c;
 153              		.loc 1 141 0 discriminator 3
 154 0096 3246     		mov	r2, r6
 155 0098 5146     		mov	r1, r10
 156 009a 2846     		mov	r0, r5
 157 009c FFF7FEFF 		bl	u8x8_cad_SendData
 158              	.LVL27:
 142:..\u8g2\csrc/u8x8_d_st7920.c **** 	//u8x8->gpio_and_delay_cb(u8x8, U8X8_MSG_DELAY_NANO, 200, NULL);	/* extra dely required */
 159              		.loc 1 142 0 discriminator 3
 160 00a0 5644     		add	r6, r6, r10
 161              	.LVL28:
 133:..\u8g2\csrc/u8x8_d_st7920.c ****       {
 162              		.loc 1 133 0 discriminator 3
 163 00a2 0134     		adds	r4, r4, #1
 164              	.LVL29:
 165 00a4 E4B2     		uxtb	r4, r4
 166              	.LVL30:
 167              	.L8:
 133:..\u8g2\csrc/u8x8_d_st7920.c ****       {
ARM GAS  C:\Users\brian\AppData\Local\Temp\cc4EvKKV.s 			page 7


 168              		.loc 1 133 0 is_stmt 0 discriminator 1
 169 00a6 072C     		cmp	r4, #7
 170 00a8 E6D9     		bls	.L9
 146:..\u8g2\csrc/u8x8_d_st7920.c **** 
 171              		.loc 1 146 0 is_stmt 1
 172 00aa 2846     		mov	r0, r5
 173 00ac FFF7FEFF 		bl	u8x8_cad_EndTransfer
 174              	.LVL31:
 175              		.loc 1 152 0
 176 00b0 0120     		movs	r0, #1
 148:..\u8g2\csrc/u8x8_d_st7920.c ****     default:
 177              		.loc 1 148 0
 178 00b2 BDE8F087 		pop	{r4, r5, r6, r7, r8, r9, r10, pc}
 179              	.LVL32:
 180              	.L11:
 150:..\u8g2\csrc/u8x8_d_st7920.c ****   }
 181              		.loc 1 150 0
 182 00b6 0020     		movs	r0, #0
 183              	.LVL33:
 153:..\u8g2\csrc/u8x8_d_st7920.c **** }
 184              		.loc 1 153 0
 185 00b8 BDE8F087 		pop	{r4, r5, r6, r7, r8, r9, r10, pc}
 186              	.LVL34:
 187              	.L14:
 188              		.align	2
 189              	.L13:
 190 00bc 00000000 		.word	.LANCHOR0
 191 00c0 14000000 		.word	.LANCHOR0+20
 192 00c4 1C000000 		.word	.LANCHOR0+28
 193              		.cfi_endproc
 194              	.LFE0:
 195              		.size	u8x8_d_st7920_common, .-u8x8_d_st7920_common
 196              		.section	.text.u8x8_d_st7920_192x32,"ax",%progbits
 197              		.align	2
 198              		.global	u8x8_d_st7920_192x32
 199              		.thumb
 200              		.thumb_func
 201              		.type	u8x8_d_st7920_192x32, %function
 202              	u8x8_d_st7920_192x32:
 203              	.LFB1:
 154:..\u8g2\csrc/u8x8_d_st7920.c **** 
 155:..\u8g2\csrc/u8x8_d_st7920.c **** static const u8x8_display_info_t u8x8_st7920_192x32_display_info =
 156:..\u8g2\csrc/u8x8_d_st7920.c **** {
 157:..\u8g2\csrc/u8x8_d_st7920.c ****   /* chip_enable_level = */ 1,
 158:..\u8g2\csrc/u8x8_d_st7920.c ****   /* chip_disable_level = */ 0,
 159:..\u8g2\csrc/u8x8_d_st7920.c ****   
 160:..\u8g2\csrc/u8x8_d_st7920.c ****   /* post_chip_enable_wait_ns = */ 5,
 161:..\u8g2\csrc/u8x8_d_st7920.c ****   /* pre_chip_disable_wait_ns = */ 5,
 162:..\u8g2\csrc/u8x8_d_st7920.c ****   /* reset_pulse_width_ms = */ 1, 
 163:..\u8g2\csrc/u8x8_d_st7920.c ****   /* post_reset_wait_ms = */ 6, 
 164:..\u8g2\csrc/u8x8_d_st7920.c ****   /* sda_setup_time_ns = */ 20,		
 165:..\u8g2\csrc/u8x8_d_st7920.c ****   /* sck_pulse_width_ns = */  140,	/* datasheet ST7920 */
 166:..\u8g2\csrc/u8x8_d_st7920.c ****   /* sck_clock_hz = */ 1000000UL,	/* since Arduino 1.6.0, the SPI bus speed in Hz. Should be  10000
 167:..\u8g2\csrc/u8x8_d_st7920.c ****   /* spi_mode = */ 3,		/* old: sck_takeover_edge, new: active high (bit 1), rising edge (bit 0), 18
 168:..\u8g2\csrc/u8x8_d_st7920.c **** 	/* Arduino mode 3: aktive low clock, but use rising edge */
 169:..\u8g2\csrc/u8x8_d_st7920.c ****   /* i2c_bus_clock_100kHz = */ 4,
 170:..\u8g2\csrc/u8x8_d_st7920.c ****   /* data_setup_time_ns = */ 30,
ARM GAS  C:\Users\brian\AppData\Local\Temp\cc4EvKKV.s 			page 8


 171:..\u8g2\csrc/u8x8_d_st7920.c ****   /* write_pulse_width_ns = */ 40,
 172:..\u8g2\csrc/u8x8_d_st7920.c ****   /* tile_width = */ 24,
 173:..\u8g2\csrc/u8x8_d_st7920.c ****   /* tile_hight = */ 4,
 174:..\u8g2\csrc/u8x8_d_st7920.c ****   /* default_x_offset = */ 0,
 175:..\u8g2\csrc/u8x8_d_st7920.c ****   /* flipmode_x_offset = */ 0,
 176:..\u8g2\csrc/u8x8_d_st7920.c ****   /* pixel_width = */ 192,
 177:..\u8g2\csrc/u8x8_d_st7920.c ****   /* pixel_height = */ 32
 178:..\u8g2\csrc/u8x8_d_st7920.c **** };
 179:..\u8g2\csrc/u8x8_d_st7920.c **** 
 180:..\u8g2\csrc/u8x8_d_st7920.c **** static const u8x8_display_info_t u8x8_st7920_128x64_display_info =
 181:..\u8g2\csrc/u8x8_d_st7920.c **** {
 182:..\u8g2\csrc/u8x8_d_st7920.c ****   /* chip_enable_level = */ 1,
 183:..\u8g2\csrc/u8x8_d_st7920.c ****   /* chip_disable_level = */ 0,
 184:..\u8g2\csrc/u8x8_d_st7920.c ****   
 185:..\u8g2\csrc/u8x8_d_st7920.c ****   /* post_chip_enable_wait_ns = */ 5,
 186:..\u8g2\csrc/u8x8_d_st7920.c ****   /* pre_chip_disable_wait_ns = */ 5,
 187:..\u8g2\csrc/u8x8_d_st7920.c ****   /* reset_pulse_width_ms = */ 1, 
 188:..\u8g2\csrc/u8x8_d_st7920.c ****   /* post_reset_wait_ms = */ 6, 
 189:..\u8g2\csrc/u8x8_d_st7920.c ****   /* sda_setup_time_ns = */ 20,		
 190:..\u8g2\csrc/u8x8_d_st7920.c ****   /* sck_pulse_width_ns = */  140,	/* datasheet ST7920 */
 191:..\u8g2\csrc/u8x8_d_st7920.c ****   /* sck_clock_hz = */ 1000000UL,	/* since Arduino 1.6.0, the SPI bus speed in Hz. Should be  10000
 192:..\u8g2\csrc/u8x8_d_st7920.c ****   /* ST7920+Due work with 1MHz but not with 2MHz, ST7920+Uno works with 2MHz */
 193:..\u8g2\csrc/u8x8_d_st7920.c ****   /* spi_mode = */ 3,		/* active high, rising edge, 18 Aug 16: changed from 1 to 3 which works for 
 194:..\u8g2\csrc/u8x8_d_st7920.c ****   /* in theory mode 3 should be correct  */
 195:..\u8g2\csrc/u8x8_d_st7920.c ****   /* i2c_bus_clock_100kHz = */ 4,
 196:..\u8g2\csrc/u8x8_d_st7920.c ****   /* data_setup_time_ns = */ 30,
 197:..\u8g2\csrc/u8x8_d_st7920.c ****   /* write_pulse_width_ns = */ 40,
 198:..\u8g2\csrc/u8x8_d_st7920.c ****   /* tile_width = */ 16,
 199:..\u8g2\csrc/u8x8_d_st7920.c ****   /* tile_hight = */ 8,
 200:..\u8g2\csrc/u8x8_d_st7920.c ****   /* default_x_offset = */ 0,
 201:..\u8g2\csrc/u8x8_d_st7920.c ****   /* flipmode_x_offset = */ 0,
 202:..\u8g2\csrc/u8x8_d_st7920.c ****   /* pixel_width = */ 128,
 203:..\u8g2\csrc/u8x8_d_st7920.c ****   /* pixel_height = */ 64
 204:..\u8g2\csrc/u8x8_d_st7920.c **** };
 205:..\u8g2\csrc/u8x8_d_st7920.c **** 
 206:..\u8g2\csrc/u8x8_d_st7920.c **** uint8_t u8x8_d_st7920_192x32(u8x8_t *u8x8, uint8_t msg, uint8_t arg_int, void *arg_ptr)
 207:..\u8g2\csrc/u8x8_d_st7920.c **** {
 204              		.loc 1 207 0
 205              		.cfi_startproc
 206              		@ args = 0, pretend = 0, frame = 0
 207              		@ frame_needed = 0, uses_anonymous_args = 0
 208              	.LVL35:
 209 0000 08B5     		push	{r3, lr}
 210              		.cfi_def_cfa_offset 8
 211              		.cfi_offset 3, -8
 212              		.cfi_offset 14, -4
 208:..\u8g2\csrc/u8x8_d_st7920.c ****   switch(msg)
 213              		.loc 1 208 0
 214 0002 0929     		cmp	r1, #9
 215 0004 04D1     		bne	.L19
 209:..\u8g2\csrc/u8x8_d_st7920.c ****   {
 210:..\u8g2\csrc/u8x8_d_st7920.c ****     case U8X8_MSG_DISPLAY_SETUP_MEMORY:
 211:..\u8g2\csrc/u8x8_d_st7920.c ****       u8x8_d_helper_display_setup_memory(u8x8, &u8x8_st7920_192x32_display_info);
 216              		.loc 1 211 0
 217 0006 0449     		ldr	r1, .L21
 218              	.LVL36:
 219 0008 FFF7FEFF 		bl	u8x8_d_helper_display_setup_memory
ARM GAS  C:\Users\brian\AppData\Local\Temp\cc4EvKKV.s 			page 9


 220              	.LVL37:
 212:..\u8g2\csrc/u8x8_d_st7920.c ****       break;
 213:..\u8g2\csrc/u8x8_d_st7920.c ****     default:
 214:..\u8g2\csrc/u8x8_d_st7920.c ****       return u8x8_d_st7920_common(u8x8, msg, arg_int, arg_ptr);
 215:..\u8g2\csrc/u8x8_d_st7920.c ****   }
 216:..\u8g2\csrc/u8x8_d_st7920.c ****   return 1;
 221              		.loc 1 216 0
 222 000c 0120     		movs	r0, #1
 223 000e 08BD     		pop	{r3, pc}
 224              	.LVL38:
 225              	.L19:
 214:..\u8g2\csrc/u8x8_d_st7920.c ****   }
 226              		.loc 1 214 0
 227 0010 FFF7FEFF 		bl	u8x8_d_st7920_common
 228              	.LVL39:
 217:..\u8g2\csrc/u8x8_d_st7920.c **** }
 229              		.loc 1 217 0
 230 0014 08BD     		pop	{r3, pc}
 231              	.L22:
 232 0016 00BF     		.align	2
 233              	.L21:
 234 0018 28000000 		.word	.LANCHOR0+40
 235              		.cfi_endproc
 236              	.LFE1:
 237              		.size	u8x8_d_st7920_192x32, .-u8x8_d_st7920_192x32
 238              		.section	.text.u8x8_d_st7920_128x64,"ax",%progbits
 239              		.align	2
 240              		.global	u8x8_d_st7920_128x64
 241              		.thumb
 242              		.thumb_func
 243              		.type	u8x8_d_st7920_128x64, %function
 244              	u8x8_d_st7920_128x64:
 245              	.LFB2:
 218:..\u8g2\csrc/u8x8_d_st7920.c **** 
 219:..\u8g2\csrc/u8x8_d_st7920.c **** uint8_t u8x8_d_st7920_128x64(u8x8_t *u8x8, uint8_t msg, uint8_t arg_int, void *arg_ptr)
 220:..\u8g2\csrc/u8x8_d_st7920.c **** {
 246              		.loc 1 220 0
 247              		.cfi_startproc
 248              		@ args = 0, pretend = 0, frame = 0
 249              		@ frame_needed = 0, uses_anonymous_args = 0
 250              	.LVL40:
 251 0000 08B5     		push	{r3, lr}
 252              		.cfi_def_cfa_offset 8
 253              		.cfi_offset 3, -8
 254              		.cfi_offset 14, -4
 221:..\u8g2\csrc/u8x8_d_st7920.c ****   switch(msg)
 255              		.loc 1 221 0
 256 0002 0929     		cmp	r1, #9
 257 0004 04D1     		bne	.L27
 222:..\u8g2\csrc/u8x8_d_st7920.c ****   {
 223:..\u8g2\csrc/u8x8_d_st7920.c ****     case U8X8_MSG_DISPLAY_SETUP_MEMORY:
 224:..\u8g2\csrc/u8x8_d_st7920.c ****       u8x8_d_helper_display_setup_memory(u8x8, &u8x8_st7920_128x64_display_info);
 258              		.loc 1 224 0
 259 0006 0449     		ldr	r1, .L29
 260              	.LVL41:
 261 0008 FFF7FEFF 		bl	u8x8_d_helper_display_setup_memory
 262              	.LVL42:
ARM GAS  C:\Users\brian\AppData\Local\Temp\cc4EvKKV.s 			page 10


 225:..\u8g2\csrc/u8x8_d_st7920.c ****       break;
 226:..\u8g2\csrc/u8x8_d_st7920.c ****     default:
 227:..\u8g2\csrc/u8x8_d_st7920.c ****       return u8x8_d_st7920_common(u8x8, msg, arg_int, arg_ptr);
 228:..\u8g2\csrc/u8x8_d_st7920.c ****   }
 229:..\u8g2\csrc/u8x8_d_st7920.c ****   return 1;
 263              		.loc 1 229 0
 264 000c 0120     		movs	r0, #1
 265 000e 08BD     		pop	{r3, pc}
 266              	.LVL43:
 267              	.L27:
 227:..\u8g2\csrc/u8x8_d_st7920.c ****   }
 268              		.loc 1 227 0
 269 0010 FFF7FEFF 		bl	u8x8_d_st7920_common
 270              	.LVL44:
 230:..\u8g2\csrc/u8x8_d_st7920.c **** }
 271              		.loc 1 230 0
 272 0014 08BD     		pop	{r3, pc}
 273              	.L30:
 274 0016 00BF     		.align	2
 275              	.L29:
 276 0018 40000000 		.word	.LANCHOR0+64
 277              		.cfi_endproc
 278              	.LFE2:
 279              		.size	u8x8_d_st7920_128x64, .-u8x8_d_st7920_128x64
 280              		.section	.text.u8x8_d_st7920_256x32,"ax",%progbits
 281              		.align	2
 282              		.global	u8x8_d_st7920_256x32
 283              		.thumb
 284              		.thumb_func
 285              		.type	u8x8_d_st7920_256x32, %function
 286              	u8x8_d_st7920_256x32:
 287              	.LFB3:
 231:..\u8g2\csrc/u8x8_d_st7920.c **** 
 232:..\u8g2\csrc/u8x8_d_st7920.c **** /* https://github.com/olikraus/u8g2/issues/1593 */
 233:..\u8g2\csrc/u8x8_d_st7920.c **** 
 234:..\u8g2\csrc/u8x8_d_st7920.c **** static const u8x8_display_info_t u8x8_st7920_256x32_display_info =
 235:..\u8g2\csrc/u8x8_d_st7920.c **** {
 236:..\u8g2\csrc/u8x8_d_st7920.c ****   /* chip_enable_level = */ 1,
 237:..\u8g2\csrc/u8x8_d_st7920.c ****   /* chip_disable_level = */ 0,
 238:..\u8g2\csrc/u8x8_d_st7920.c **** 
 239:..\u8g2\csrc/u8x8_d_st7920.c ****   /* post_chip_enable_wait_ns = */ 5,
 240:..\u8g2\csrc/u8x8_d_st7920.c ****   /* pre_chip_disable_wait_ns = */ 5,
 241:..\u8g2\csrc/u8x8_d_st7920.c ****   /* reset_pulse_width_ms = */ 1,
 242:..\u8g2\csrc/u8x8_d_st7920.c ****   /* post_reset_wait_ms = */ 6,
 243:..\u8g2\csrc/u8x8_d_st7920.c ****   /* sda_setup_time_ns = */ 20,
 244:..\u8g2\csrc/u8x8_d_st7920.c ****   /* sck_pulse_width_ns = */  140,	/* datasheet ST7920 */
 245:..\u8g2\csrc/u8x8_d_st7920.c ****   /* sck_clock_hz = */ 1000000UL,	/* since Arduino 1.6.0, the SPI bus speed in Hz. Should be  10000
 246:..\u8g2\csrc/u8x8_d_st7920.c ****   /* ST7920+Due work with 1MHz but not with 2MHz, ST7920+Uno works with 2MHz */
 247:..\u8g2\csrc/u8x8_d_st7920.c ****   /* spi_mode = */ 3,		/* active high, rising edge, 18 Aug 16: changed from 1 to 3 which works for 
 248:..\u8g2\csrc/u8x8_d_st7920.c ****   /* in theory mode 3 should be correct  */
 249:..\u8g2\csrc/u8x8_d_st7920.c ****   /* i2c_bus_clock_100kHz = */ 4,
 250:..\u8g2\csrc/u8x8_d_st7920.c ****   /* data_setup_time_ns = */ 30,
 251:..\u8g2\csrc/u8x8_d_st7920.c ****   /* write_pulse_width_ns = */ 40,
 252:..\u8g2\csrc/u8x8_d_st7920.c ****   /* tile_width = */ 32,
 253:..\u8g2\csrc/u8x8_d_st7920.c ****   /* tile_hight = */ 4,
 254:..\u8g2\csrc/u8x8_d_st7920.c ****   /* default_x_offset = */ 0,
 255:..\u8g2\csrc/u8x8_d_st7920.c ****   /* flipmode_x_offset = */ 0,
ARM GAS  C:\Users\brian\AppData\Local\Temp\cc4EvKKV.s 			page 11


 256:..\u8g2\csrc/u8x8_d_st7920.c ****   /* pixel_width = */ 256,
 257:..\u8g2\csrc/u8x8_d_st7920.c ****   /* pixel_height = */ 32
 258:..\u8g2\csrc/u8x8_d_st7920.c **** };
 259:..\u8g2\csrc/u8x8_d_st7920.c ****   
 260:..\u8g2\csrc/u8x8_d_st7920.c **** 
 261:..\u8g2\csrc/u8x8_d_st7920.c **** uint8_t u8x8_d_st7920_256x32(u8x8_t *u8x8, uint8_t msg, uint8_t arg_int, void *arg_ptr)
 262:..\u8g2\csrc/u8x8_d_st7920.c **** {
 288              		.loc 1 262 0
 289              		.cfi_startproc
 290              		@ args = 0, pretend = 0, frame = 0
 291              		@ frame_needed = 0, uses_anonymous_args = 0
 292              	.LVL45:
 293 0000 08B5     		push	{r3, lr}
 294              		.cfi_def_cfa_offset 8
 295              		.cfi_offset 3, -8
 296              		.cfi_offset 14, -4
 263:..\u8g2\csrc/u8x8_d_st7920.c ****   switch(msg)
 297              		.loc 1 263 0
 298 0002 0929     		cmp	r1, #9
 299 0004 04D1     		bne	.L35
 264:..\u8g2\csrc/u8x8_d_st7920.c ****   {
 265:..\u8g2\csrc/u8x8_d_st7920.c **** 	case U8X8_MSG_DISPLAY_SETUP_MEMORY:
 266:..\u8g2\csrc/u8x8_d_st7920.c **** 	  u8x8_d_helper_display_setup_memory(u8x8, &u8x8_st7920_256x32_display_info);
 300              		.loc 1 266 0
 301 0006 0449     		ldr	r1, .L37
 302              	.LVL46:
 303 0008 FFF7FEFF 		bl	u8x8_d_helper_display_setup_memory
 304              	.LVL47:
 267:..\u8g2\csrc/u8x8_d_st7920.c **** 	  break;
 268:..\u8g2\csrc/u8x8_d_st7920.c **** 	default:
 269:..\u8g2\csrc/u8x8_d_st7920.c **** 	  return u8x8_d_st7920_common(u8x8, msg, arg_int, arg_ptr);
 270:..\u8g2\csrc/u8x8_d_st7920.c ****   }
 271:..\u8g2\csrc/u8x8_d_st7920.c ****   return 1;
 305              		.loc 1 271 0
 306 000c 0120     		movs	r0, #1
 307 000e 08BD     		pop	{r3, pc}
 308              	.LVL48:
 309              	.L35:
 269:..\u8g2\csrc/u8x8_d_st7920.c ****   }
 310              		.loc 1 269 0
 311 0010 FFF7FEFF 		bl	u8x8_d_st7920_common
 312              	.LVL49:
 272:..\u8g2\csrc/u8x8_d_st7920.c **** }...
 313              		.loc 1 272 0
 314 0014 08BD     		pop	{r3, pc}
 315              	.L38:
 316 0016 00BF     		.align	2
 317              	.L37:
 318 0018 58000000 		.word	.LANCHOR0+88
 319              		.cfi_endproc
 320              	.LFE3:
 321              		.size	u8x8_d_st7920_256x32, .-u8x8_d_st7920_256x32
 322              		.section	.rodata
 323              		.align	2
 324              		.set	.LANCHOR0,. + 0
 325              		.type	u8x8_d_st7920_init_seq, %object
 326              		.size	u8x8_d_st7920_init_seq, 19
ARM GAS  C:\Users\brian\AppData\Local\Temp\cc4EvKKV.s 			page 12


 327              	u8x8_d_st7920_init_seq:
 328 0000 FE       		.byte	-2
 329 0001 64       		.byte	100
 330 0002 18       		.byte	24
 331 0003 FE       		.byte	-2
 332 0004 0A       		.byte	10
 333 0005 15       		.byte	21
 334 0006 38       		.byte	56
 335 0007 15       		.byte	21
 336 0008 08       		.byte	8
 337 0009 15       		.byte	21
 338 000a 06       		.byte	6
 339 000b 15       		.byte	21
 340 000c 02       		.byte	2
 341 000d 15       		.byte	21
 342 000e 01       		.byte	1
 343 000f FE       		.byte	-2
 344 0010 04       		.byte	4
 345 0011 19       		.byte	25
 346 0012 FF       		.byte	-1
 347 0013 00       		.space	1
 348              		.type	u8x8_d_st7920_powersave0_seq, %object
 349              		.size	u8x8_d_st7920_powersave0_seq, 7
 350              	u8x8_d_st7920_powersave0_seq:
 351 0014 18       		.byte	24
 352 0015 15       		.byte	21
 353 0016 38       		.byte	56
 354 0017 15       		.byte	21
 355 0018 0C       		.byte	12
 356 0019 19       		.byte	25
 357 001a FF       		.byte	-1
 358 001b 00       		.space	1
 359              		.type	u8x8_d_st7920_powersave1_seq, %object
 360              		.size	u8x8_d_st7920_powersave1_seq, 11
 361              	u8x8_d_st7920_powersave1_seq:
 362 001c 18       		.byte	24
 363 001d 15       		.byte	21
 364 001e 38       		.byte	56
 365 001f 15       		.byte	21
 366 0020 08       		.byte	8
 367 0021 15       		.byte	21
 368 0022 34       		.byte	52
 369 0023 15       		.byte	21
 370 0024 01       		.byte	1
 371 0025 19       		.byte	25
 372 0026 FF       		.byte	-1
 373 0027 00       		.space	1
 374              		.type	u8x8_st7920_192x32_display_info, %object
 375              		.size	u8x8_st7920_192x32_display_info, 24
 376              	u8x8_st7920_192x32_display_info:
 377 0028 01       		.byte	1
 378 0029 00       		.byte	0
 379 002a 05       		.byte	5
 380 002b 05       		.byte	5
 381 002c 01       		.byte	1
 382 002d 06       		.byte	6
 383 002e 14       		.byte	20
ARM GAS  C:\Users\brian\AppData\Local\Temp\cc4EvKKV.s 			page 13


 384 002f 8C       		.byte	-116
 385 0030 40420F00 		.word	1000000
 386 0034 03       		.byte	3
 387 0035 04       		.byte	4
 388 0036 1E       		.byte	30
 389 0037 28       		.byte	40
 390 0038 18       		.byte	24
 391 0039 04       		.byte	4
 392 003a 00       		.byte	0
 393 003b 00       		.byte	0
 394 003c C000     		.short	192
 395 003e 2000     		.short	32
 396              		.type	u8x8_st7920_128x64_display_info, %object
 397              		.size	u8x8_st7920_128x64_display_info, 24
 398              	u8x8_st7920_128x64_display_info:
 399 0040 01       		.byte	1
 400 0041 00       		.byte	0
 401 0042 05       		.byte	5
 402 0043 05       		.byte	5
 403 0044 01       		.byte	1
 404 0045 06       		.byte	6
 405 0046 14       		.byte	20
 406 0047 8C       		.byte	-116
 407 0048 40420F00 		.word	1000000
 408 004c 03       		.byte	3
 409 004d 04       		.byte	4
 410 004e 1E       		.byte	30
 411 004f 28       		.byte	40
 412 0050 10       		.byte	16
 413 0051 08       		.byte	8
 414 0052 00       		.byte	0
 415 0053 00       		.byte	0
 416 0054 8000     		.short	128
 417 0056 4000     		.short	64
 418              		.type	u8x8_st7920_256x32_display_info, %object
 419              		.size	u8x8_st7920_256x32_display_info, 24
 420              	u8x8_st7920_256x32_display_info:
 421 0058 01       		.byte	1
 422 0059 00       		.byte	0
 423 005a 05       		.byte	5
 424 005b 05       		.byte	5
 425 005c 01       		.byte	1
 426 005d 06       		.byte	6
 427 005e 14       		.byte	20
 428 005f 8C       		.byte	-116
 429 0060 40420F00 		.word	1000000
 430 0064 03       		.byte	3
 431 0065 04       		.byte	4
 432 0066 1E       		.byte	30
 433 0067 28       		.byte	40
 434 0068 20       		.byte	32
 435 0069 04       		.byte	4
 436 006a 00       		.byte	0
 437 006b 00       		.byte	0
 438 006c 0001     		.short	256
 439 006e 2000     		.short	32
 440              		.text
ARM GAS  C:\Users\brian\AppData\Local\Temp\cc4EvKKV.s 			page 14


 441              	.Letext0:
 442              		.file 2 "c:\\program files (x86)\\cypress\\psoc creator\\4.4\\psoc creator\\import\\gnu\\arm\\5.4.
 443              		.file 3 "c:\\program files (x86)\\cypress\\psoc creator\\4.4\\psoc creator\\import\\gnu\\arm\\5.4.
 444              		.file 4 "..\\u8g2\\csrc\\u8x8.h"