ARM GAS  C:\Users\brian\AppData\Local\Temp\ccYhoQ5g.s 			page 1


   1              		.syntax unified
   2              		.cpu cortex-m3
   3              		.fpu softvfp
   4              		.eabi_attribute 20, 1
   5              		.eabi_attribute 21, 1
   6              		.eabi_attribute 23, 3
   7              		.eabi_attribute 24, 1
   8              		.eabi_attribute 25, 1
   9              		.eabi_attribute 26, 1
  10              		.eabi_attribute 30, 1
  11              		.eabi_attribute 34, 1
  12              		.eabi_attribute 18, 4
  13              		.thumb
  14              		.syntax unified
  15              		.file	"u8x8_d_sbn1661.c"
  16              		.text
  17              	.Ltext0:
  18              		.cfi_sections	.debug_frame
  19              		.section	.text.u8x8_d_sbn1661_122x32,"ax",%progbits
  20              		.align	2
  21              		.global	u8x8_d_sbn1661_122x32
  22              		.thumb
  23              		.thumb_func
  24              		.type	u8x8_d_sbn1661_122x32, %function
  25              	u8x8_d_sbn1661_122x32:
  26              	.LFB0:
  27              		.file 1 "..\\u8g2\\csrc\\u8x8_d_sbn1661.c"
   1:..\u8g2\csrc/u8x8_d_sbn1661.c **** /*
   2:..\u8g2\csrc/u8x8_d_sbn1661.c **** 
   3:..\u8g2\csrc/u8x8_d_sbn1661.c ****   u8x8_d_sbn1661.c 
   4:..\u8g2\csrc/u8x8_d_sbn1661.c ****   
   5:..\u8g2\csrc/u8x8_d_sbn1661.c ****   SED1520 / SBN1661 122x32 5V LCD
   6:..\u8g2\csrc/u8x8_d_sbn1661.c ****   
   7:..\u8g2\csrc/u8x8_d_sbn1661.c ****   Universal 8bit Graphics Library (https://github.com/olikraus/u8g2/)
   8:..\u8g2\csrc/u8x8_d_sbn1661.c **** 
   9:..\u8g2\csrc/u8x8_d_sbn1661.c ****   Copyright (c) 2016, olikraus@gmail.com
  10:..\u8g2\csrc/u8x8_d_sbn1661.c ****   All rights reserved.
  11:..\u8g2\csrc/u8x8_d_sbn1661.c **** 
  12:..\u8g2\csrc/u8x8_d_sbn1661.c ****   Redistribution and use in source and binary forms, with or without modification, 
  13:..\u8g2\csrc/u8x8_d_sbn1661.c ****   are permitted provided that the following conditions are met:
  14:..\u8g2\csrc/u8x8_d_sbn1661.c **** 
  15:..\u8g2\csrc/u8x8_d_sbn1661.c ****   * Redistributions of source code must retain the above copyright notice, this list 
  16:..\u8g2\csrc/u8x8_d_sbn1661.c ****     of conditions and the following disclaimer.
  17:..\u8g2\csrc/u8x8_d_sbn1661.c ****     
  18:..\u8g2\csrc/u8x8_d_sbn1661.c ****   * Redistributions in binary form must reproduce the above copyright notice, this 
  19:..\u8g2\csrc/u8x8_d_sbn1661.c ****     list of conditions and the following disclaimer in the documentation and/or other 
  20:..\u8g2\csrc/u8x8_d_sbn1661.c ****     materials provided with the distribution.
  21:..\u8g2\csrc/u8x8_d_sbn1661.c **** 
  22:..\u8g2\csrc/u8x8_d_sbn1661.c ****   THIS SOFTWARE IS PROVIDED BY THE COPYRIGHT HOLDERS AND 
  23:..\u8g2\csrc/u8x8_d_sbn1661.c ****   CONTRIBUTORS "AS IS" AND ANY EXPRESS OR IMPLIED WARRANTIES, 
  24:..\u8g2\csrc/u8x8_d_sbn1661.c ****   INCLUDING, BUT NOT LIMITED TO, THE IMPLIED WARRANTIES OF 
  25:..\u8g2\csrc/u8x8_d_sbn1661.c ****   MERCHANTABILITY AND FITNESS FOR A PARTICULAR PURPOSE ARE 
  26:..\u8g2\csrc/u8x8_d_sbn1661.c ****   DISCLAIMED. IN NO EVENT SHALL THE COPYRIGHT HOLDER OR 
  27:..\u8g2\csrc/u8x8_d_sbn1661.c ****   CONTRIBUTORS BE LIABLE FOR ANY DIRECT, INDIRECT, INCIDENTAL, 
  28:..\u8g2\csrc/u8x8_d_sbn1661.c ****   SPECIAL, EXEMPLARY, OR CONSEQUENTIAL DAMAGES (INCLUDING, BUT 
  29:..\u8g2\csrc/u8x8_d_sbn1661.c ****   NOT LIMITED TO, PROCUREMENT OF SUBSTITUTE GOODS OR SERVICES; 
  30:..\u8g2\csrc/u8x8_d_sbn1661.c ****   LOSS OF USE, DATA, OR PROFITS; OR BUSINESS INTERRUPTION) HOWEVER 
ARM GAS  C:\Users\brian\AppData\Local\Temp\ccYhoQ5g.s 			page 2


  31:..\u8g2\csrc/u8x8_d_sbn1661.c ****   CAUSED AND ON ANY THEORY OF LIABILITY, WHETHER IN CONTRACT, 
  32:..\u8g2\csrc/u8x8_d_sbn1661.c ****   STRICT LIABILITY, OR TORT (INCLUDING NEGLIGENCE OR OTHERWISE) 
  33:..\u8g2\csrc/u8x8_d_sbn1661.c ****   ARISING IN ANY WAY OUT OF THE USE OF THIS SOFTWARE, EVEN IF 
  34:..\u8g2\csrc/u8x8_d_sbn1661.c ****   ADVISED OF THE POSSIBILITY OF SUCH DAMAGE.  
  35:..\u8g2\csrc/u8x8_d_sbn1661.c **** 
  36:..\u8g2\csrc/u8x8_d_sbn1661.c ****   
  37:..\u8g2\csrc/u8x8_d_sbn1661.c **** */
  38:..\u8g2\csrc/u8x8_d_sbn1661.c **** #include "u8x8.h"
  39:..\u8g2\csrc/u8x8_d_sbn1661.c **** 
  40:..\u8g2\csrc/u8x8_d_sbn1661.c **** 
  41:..\u8g2\csrc/u8x8_d_sbn1661.c **** 
  42:..\u8g2\csrc/u8x8_d_sbn1661.c **** 
  43:..\u8g2\csrc/u8x8_d_sbn1661.c **** static const uint8_t u8x8_d_sbn1661_init_seq[] = {
  44:..\u8g2\csrc/u8x8_d_sbn1661.c ****   U8X8_C(0x0c0),		                /* display start at line 0  */  
  45:..\u8g2\csrc/u8x8_d_sbn1661.c ****   U8X8_C(0x0a0),		                /* a0: ADC forward, a1: ADC reverse */  
  46:..\u8g2\csrc/u8x8_d_sbn1661.c ****   U8X8_C(0x0a4),		                /* a4: normal driving, a5: power save */  
  47:..\u8g2\csrc/u8x8_d_sbn1661.c ****   U8X8_C(0x0a9),		                /* a8: 1/16, a9: 1/32 duty */  
  48:..\u8g2\csrc/u8x8_d_sbn1661.c **** 
  49:..\u8g2\csrc/u8x8_d_sbn1661.c ****   //U8X8_C(0x0af),				/* display on */
  50:..\u8g2\csrc/u8x8_d_sbn1661.c ****   
  51:..\u8g2\csrc/u8x8_d_sbn1661.c ****   U8X8_END()             			/* end of sequence */
  52:..\u8g2\csrc/u8x8_d_sbn1661.c **** };
  53:..\u8g2\csrc/u8x8_d_sbn1661.c **** 
  54:..\u8g2\csrc/u8x8_d_sbn1661.c **** static const uint8_t u8x8_d_sbn1661_powersave0_seq[] = {
  55:..\u8g2\csrc/u8x8_d_sbn1661.c ****   U8X8_C(0x0af),		                /* display on */
  56:..\u8g2\csrc/u8x8_d_sbn1661.c ****   U8X8_END()             			/* end of sequence */
  57:..\u8g2\csrc/u8x8_d_sbn1661.c **** };
  58:..\u8g2\csrc/u8x8_d_sbn1661.c **** 
  59:..\u8g2\csrc/u8x8_d_sbn1661.c **** static const uint8_t u8x8_d_sbn1661_powersave1_seq[] = {
  60:..\u8g2\csrc/u8x8_d_sbn1661.c ****   U8X8_C(0x0ae),		                /* display off */
  61:..\u8g2\csrc/u8x8_d_sbn1661.c ****   U8X8_END()             			/* end of sequence */
  62:..\u8g2\csrc/u8x8_d_sbn1661.c **** };
  63:..\u8g2\csrc/u8x8_d_sbn1661.c **** 
  64:..\u8g2\csrc/u8x8_d_sbn1661.c **** 
  65:..\u8g2\csrc/u8x8_d_sbn1661.c **** struct u8x8_sbn1661_vars
  66:..\u8g2\csrc/u8x8_d_sbn1661.c **** {
  67:..\u8g2\csrc/u8x8_d_sbn1661.c ****   uint8_t *ptr;
  68:..\u8g2\csrc/u8x8_d_sbn1661.c ****   uint8_t x;
  69:..\u8g2\csrc/u8x8_d_sbn1661.c ****   uint8_t c;
  70:..\u8g2\csrc/u8x8_d_sbn1661.c ****   uint8_t arg_int;
  71:..\u8g2\csrc/u8x8_d_sbn1661.c **** };
  72:..\u8g2\csrc/u8x8_d_sbn1661.c **** 
  73:..\u8g2\csrc/u8x8_d_sbn1661.c **** #ifdef NOT_USED
  74:..\u8g2\csrc/u8x8_d_sbn1661.c **** static void u8x8_sbn1661_out(u8x8_t *u8x8, struct u8x8_sbn1661_vars *v, void *arg_ptr)
  75:..\u8g2\csrc/u8x8_d_sbn1661.c **** {
  76:..\u8g2\csrc/u8x8_d_sbn1661.c ****   uint8_t cnt;
  77:..\u8g2\csrc/u8x8_d_sbn1661.c ****   u8x8_cad_SendCmd(u8x8, 0x000 | ((v->x << 3) & 63) );
  78:..\u8g2\csrc/u8x8_d_sbn1661.c ****   u8x8_cad_SendCmd(u8x8, 0x0b8 | (((u8x8_tile_t *)arg_ptr)->y_pos));
  79:..\u8g2\csrc/u8x8_d_sbn1661.c ****   
  80:..\u8g2\csrc/u8x8_d_sbn1661.c ****   while( v->arg_int > 0 )
  81:..\u8g2\csrc/u8x8_d_sbn1661.c ****   {
  82:..\u8g2\csrc/u8x8_d_sbn1661.c ****       /* calculate tiles to next boundary (end or chip limit) */
  83:..\u8g2\csrc/u8x8_d_sbn1661.c ****       cnt = v->x;
  84:..\u8g2\csrc/u8x8_d_sbn1661.c ****       cnt += 8;
  85:..\u8g2\csrc/u8x8_d_sbn1661.c ****       cnt &= 0x0f8;
  86:..\u8g2\csrc/u8x8_d_sbn1661.c ****       cnt -= v->x;
  87:..\u8g2\csrc/u8x8_d_sbn1661.c ****             
ARM GAS  C:\Users\brian\AppData\Local\Temp\ccYhoQ5g.s 			page 3


  88:..\u8g2\csrc/u8x8_d_sbn1661.c ****       if ( cnt > v->c )
  89:..\u8g2\csrc/u8x8_d_sbn1661.c **** 	cnt = v->c;
  90:..\u8g2\csrc/u8x8_d_sbn1661.c ****     
  91:..\u8g2\csrc/u8x8_d_sbn1661.c ****       /* of course we still could use cnt=1 here... */
  92:..\u8g2\csrc/u8x8_d_sbn1661.c ****       /* but setting cnt to 1 is not very efficient */
  93:..\u8g2\csrc/u8x8_d_sbn1661.c ****       //cnt = 1;
  94:..\u8g2\csrc/u8x8_d_sbn1661.c ****     
  95:..\u8g2\csrc/u8x8_d_sbn1661.c ****       v->x +=cnt;
  96:..\u8g2\csrc/u8x8_d_sbn1661.c ****       v->c-=cnt;
  97:..\u8g2\csrc/u8x8_d_sbn1661.c ****       cnt<<=3;
  98:..\u8g2\csrc/u8x8_d_sbn1661.c ****       u8x8_cad_SendData(u8x8, cnt, v->ptr);	/* note: SendData can not handle more than 255 bytes */
  99:..\u8g2\csrc/u8x8_d_sbn1661.c ****       v->ptr += cnt;
 100:..\u8g2\csrc/u8x8_d_sbn1661.c ****     
 101:..\u8g2\csrc/u8x8_d_sbn1661.c ****       if ( v->c == 0 )
 102:..\u8g2\csrc/u8x8_d_sbn1661.c ****       {
 103:..\u8g2\csrc/u8x8_d_sbn1661.c **** 	v->ptr = ((u8x8_tile_t *)arg_ptr)->tile_ptr;
 104:..\u8g2\csrc/u8x8_d_sbn1661.c **** 	v->c = ((u8x8_tile_t *)arg_ptr)->cnt;
 105:..\u8g2\csrc/u8x8_d_sbn1661.c **** 	v->arg_int--;
 106:..\u8g2\csrc/u8x8_d_sbn1661.c ****       }
 107:..\u8g2\csrc/u8x8_d_sbn1661.c ****       if ( ((v->x) & 7) == 0 )
 108:..\u8g2\csrc/u8x8_d_sbn1661.c **** 	break;       
 109:..\u8g2\csrc/u8x8_d_sbn1661.c ****   } 
 110:..\u8g2\csrc/u8x8_d_sbn1661.c **** }
 111:..\u8g2\csrc/u8x8_d_sbn1661.c **** #endif /* NOT_USED */
 112:..\u8g2\csrc/u8x8_d_sbn1661.c **** 
 113:..\u8g2\csrc/u8x8_d_sbn1661.c **** 
 114:..\u8g2\csrc/u8x8_d_sbn1661.c **** static const u8x8_display_info_t u8x8_sbn1661_122x32_display_info =
 115:..\u8g2\csrc/u8x8_d_sbn1661.c **** {
 116:..\u8g2\csrc/u8x8_d_sbn1661.c ****   /* chip_enable_level = */ 0,		/* sbn1661: Not used */
 117:..\u8g2\csrc/u8x8_d_sbn1661.c ****   /* chip_disable_level = */ 1,		/* sbn1661: Not used */
 118:..\u8g2\csrc/u8x8_d_sbn1661.c ****   
 119:..\u8g2\csrc/u8x8_d_sbn1661.c ****   /* post_chip_enable_wait_ns = */ 100,
 120:..\u8g2\csrc/u8x8_d_sbn1661.c ****   /* pre_chip_disable_wait_ns = */ 20,
 121:..\u8g2\csrc/u8x8_d_sbn1661.c ****   /* reset_pulse_width_ms = */ 1, 
 122:..\u8g2\csrc/u8x8_d_sbn1661.c ****   /* post_reset_wait_ms = */ 6, 		/*  */
 123:..\u8g2\csrc/u8x8_d_sbn1661.c ****   /* sda_setup_time_ns = */ 12,		
 124:..\u8g2\csrc/u8x8_d_sbn1661.c ****   /* sck_pulse_width_ns = */ 75,	/* sbn1661: Not used */
 125:..\u8g2\csrc/u8x8_d_sbn1661.c ****   /* sck_clock_hz = */ 4000000UL,	/* sbn1661: Not used */
 126:..\u8g2\csrc/u8x8_d_sbn1661.c ****   /* spi_mode = */ 0,				/* active high, rising edge */
 127:..\u8g2\csrc/u8x8_d_sbn1661.c ****   /* i2c_bus_clock_100kHz = */ 4,	/* sbn1661: Not used */
 128:..\u8g2\csrc/u8x8_d_sbn1661.c ****   /* data_setup_time_ns = */ 200,
 129:..\u8g2\csrc/u8x8_d_sbn1661.c ****   /* write_pulse_width_ns = */ 200,	/*  */
 130:..\u8g2\csrc/u8x8_d_sbn1661.c ****   /* tile_width = */ 16,		/* width of 16*8=128 pixel */
 131:..\u8g2\csrc/u8x8_d_sbn1661.c ****   /* tile_hight = */ 4,
 132:..\u8g2\csrc/u8x8_d_sbn1661.c ****   /* default_x_offset = */ 0,
 133:..\u8g2\csrc/u8x8_d_sbn1661.c ****   /* flipmode_x_offset = */ 0,
 134:..\u8g2\csrc/u8x8_d_sbn1661.c ****   /* pixel_width = */ 122,
 135:..\u8g2\csrc/u8x8_d_sbn1661.c ****   /* pixel_height = */ 32
 136:..\u8g2\csrc/u8x8_d_sbn1661.c **** };
 137:..\u8g2\csrc/u8x8_d_sbn1661.c **** 
 138:..\u8g2\csrc/u8x8_d_sbn1661.c **** uint8_t u8x8_d_sbn1661_122x32(u8x8_t *u8x8, uint8_t msg, uint8_t arg_int, void *arg_ptr)
 139:..\u8g2\csrc/u8x8_d_sbn1661.c **** {
  28              		.loc 1 139 0
  29              		.cfi_startproc
  30              		@ args = 0, pretend = 0, frame = 0
  31              		@ frame_needed = 0, uses_anonymous_args = 0
  32              	.LVL0:
ARM GAS  C:\Users\brian\AppData\Local\Temp\ccYhoQ5g.s 			page 4


  33 0000 F8B5     		push	{r3, r4, r5, r6, r7, lr}
  34              		.cfi_def_cfa_offset 24
  35              		.cfi_offset 3, -24
  36              		.cfi_offset 4, -20
  37              		.cfi_offset 5, -16
  38              		.cfi_offset 6, -12
  39              		.cfi_offset 7, -8
  40              		.cfi_offset 14, -4
  41 0002 0446     		mov	r4, r0
  42 0004 1D46     		mov	r5, r3
 140:..\u8g2\csrc/u8x8_d_sbn1661.c ****   uint8_t *ptr;
 141:..\u8g2\csrc/u8x8_d_sbn1661.c ****   //uint8_t x;
 142:..\u8g2\csrc/u8x8_d_sbn1661.c ****   //uint8_t c;
 143:..\u8g2\csrc/u8x8_d_sbn1661.c ****   
 144:..\u8g2\csrc/u8x8_d_sbn1661.c ****   switch(msg)
  43              		.loc 1 144 0
  44 0006 0939     		subs	r1, r1, #9
  45              	.LVL1:
  46 0008 0629     		cmp	r1, #6
  47 000a 00F2AE80 		bhi	.L9
  48 000e DFE801F0 		tbb	[pc, r1]
  49              	.LVL2:
  50              	.L4:
  51 0012 04       		.byte	(.L3-.L4)/2
  52 0013 09       		.byte	(.L5-.L4)/2
  53 0014 2E       		.byte	(.L6-.L4)/2
  54 0015 AC       		.byte	(.L9-.L4)/2
  55 0016 AC       		.byte	(.L9-.L4)/2
  56 0017 AC       		.byte	(.L9-.L4)/2
  57 0018 73       		.byte	(.L7-.L4)/2
  58 0019 00       		.p2align 1
  59              	.L3:
 145:..\u8g2\csrc/u8x8_d_sbn1661.c ****   {
 146:..\u8g2\csrc/u8x8_d_sbn1661.c ****     case U8X8_MSG_DISPLAY_SETUP_MEMORY:
 147:..\u8g2\csrc/u8x8_d_sbn1661.c ****       u8x8_d_helper_display_setup_memory(u8x8, &u8x8_sbn1661_122x32_display_info);
  60              		.loc 1 147 0
  61 001a 5549     		ldr	r1, .L11
  62 001c FFF7FEFF 		bl	u8x8_d_helper_display_setup_memory
  63              	.LVL3:
 148:..\u8g2\csrc/u8x8_d_sbn1661.c ****       break;
 149:..\u8g2\csrc/u8x8_d_sbn1661.c ****     case U8X8_MSG_DISPLAY_INIT:
 150:..\u8g2\csrc/u8x8_d_sbn1661.c ****       u8x8_d_helper_display_init(u8x8);
 151:..\u8g2\csrc/u8x8_d_sbn1661.c ****     
 152:..\u8g2\csrc/u8x8_d_sbn1661.c ****       u8x8->cad_cb(u8x8, U8X8_MSG_CAD_START_TRANSFER, 0, NULL);
 153:..\u8g2\csrc/u8x8_d_sbn1661.c ****       u8x8_cad_SendSequence(u8x8, u8x8_d_sbn1661_init_seq);
 154:..\u8g2\csrc/u8x8_d_sbn1661.c ****       u8x8->cad_cb(u8x8, U8X8_MSG_CAD_END_TRANSFER, 0, NULL);
 155:..\u8g2\csrc/u8x8_d_sbn1661.c ****     
 156:..\u8g2\csrc/u8x8_d_sbn1661.c ****       u8x8->cad_cb(u8x8, U8X8_MSG_CAD_START_TRANSFER, 1, NULL);
 157:..\u8g2\csrc/u8x8_d_sbn1661.c ****       u8x8_cad_SendSequence(u8x8, u8x8_d_sbn1661_init_seq);
 158:..\u8g2\csrc/u8x8_d_sbn1661.c ****       u8x8->cad_cb(u8x8, U8X8_MSG_CAD_END_TRANSFER, 1, NULL);
 159:..\u8g2\csrc/u8x8_d_sbn1661.c ****       break;
 160:..\u8g2\csrc/u8x8_d_sbn1661.c ****     case U8X8_MSG_DISPLAY_SET_POWER_SAVE:
 161:..\u8g2\csrc/u8x8_d_sbn1661.c ****       
 162:..\u8g2\csrc/u8x8_d_sbn1661.c ****       if ( arg_int == 0 )
 163:..\u8g2\csrc/u8x8_d_sbn1661.c ****       {
 164:..\u8g2\csrc/u8x8_d_sbn1661.c **** 	u8x8->cad_cb(u8x8, U8X8_MSG_CAD_START_TRANSFER, 0, NULL);
 165:..\u8g2\csrc/u8x8_d_sbn1661.c **** 	u8x8_cad_SendSequence(u8x8, u8x8_d_sbn1661_powersave0_seq);
ARM GAS  C:\Users\brian\AppData\Local\Temp\ccYhoQ5g.s 			page 5


 166:..\u8g2\csrc/u8x8_d_sbn1661.c **** 	u8x8->cad_cb(u8x8, U8X8_MSG_CAD_END_TRANSFER, 0, NULL);
 167:..\u8g2\csrc/u8x8_d_sbn1661.c **** 
 168:..\u8g2\csrc/u8x8_d_sbn1661.c **** 	u8x8->cad_cb(u8x8, U8X8_MSG_CAD_START_TRANSFER, 1, NULL);
 169:..\u8g2\csrc/u8x8_d_sbn1661.c **** 	u8x8_cad_SendSequence(u8x8, u8x8_d_sbn1661_powersave0_seq);
 170:..\u8g2\csrc/u8x8_d_sbn1661.c **** 	u8x8->cad_cb(u8x8, U8X8_MSG_CAD_END_TRANSFER, 1, NULL);	
 171:..\u8g2\csrc/u8x8_d_sbn1661.c ****       }
 172:..\u8g2\csrc/u8x8_d_sbn1661.c ****       else
 173:..\u8g2\csrc/u8x8_d_sbn1661.c ****       {
 174:..\u8g2\csrc/u8x8_d_sbn1661.c **** 	u8x8->cad_cb(u8x8, U8X8_MSG_CAD_START_TRANSFER, 0, NULL);
 175:..\u8g2\csrc/u8x8_d_sbn1661.c **** 	u8x8_cad_SendSequence(u8x8, u8x8_d_sbn1661_powersave1_seq);
 176:..\u8g2\csrc/u8x8_d_sbn1661.c **** 	u8x8->cad_cb(u8x8, U8X8_MSG_CAD_END_TRANSFER, 0, NULL);
 177:..\u8g2\csrc/u8x8_d_sbn1661.c **** 	
 178:..\u8g2\csrc/u8x8_d_sbn1661.c **** 	u8x8->cad_cb(u8x8, U8X8_MSG_CAD_START_TRANSFER, 1, NULL);
 179:..\u8g2\csrc/u8x8_d_sbn1661.c **** 	u8x8_cad_SendSequence(u8x8, u8x8_d_sbn1661_powersave1_seq);
 180:..\u8g2\csrc/u8x8_d_sbn1661.c **** 	u8x8->cad_cb(u8x8, U8X8_MSG_CAD_END_TRANSFER, 1, NULL);
 181:..\u8g2\csrc/u8x8_d_sbn1661.c **** 	
 182:..\u8g2\csrc/u8x8_d_sbn1661.c ****       }
 183:..\u8g2\csrc/u8x8_d_sbn1661.c ****       break;
 184:..\u8g2\csrc/u8x8_d_sbn1661.c ****     case U8X8_MSG_DISPLAY_DRAW_TILE:
 185:..\u8g2\csrc/u8x8_d_sbn1661.c **** 
 186:..\u8g2\csrc/u8x8_d_sbn1661.c ****       ptr = ((u8x8_tile_t *)arg_ptr)->tile_ptr;
 187:..\u8g2\csrc/u8x8_d_sbn1661.c ****       // x and c are ignored (u8g2 only)
 188:..\u8g2\csrc/u8x8_d_sbn1661.c ****       //x = ((u8x8_tile_t *)arg_ptr)->x_pos;
 189:..\u8g2\csrc/u8x8_d_sbn1661.c ****       //c = ((u8x8_tile_t *)arg_ptr)->cnt;
 190:..\u8g2\csrc/u8x8_d_sbn1661.c ****       
 191:..\u8g2\csrc/u8x8_d_sbn1661.c ****       u8x8->cad_cb(u8x8, U8X8_MSG_CAD_START_TRANSFER, 0, NULL);
 192:..\u8g2\csrc/u8x8_d_sbn1661.c ****       u8x8_cad_SendCmd(u8x8, 0x000 | 0);		// column 0
 193:..\u8g2\csrc/u8x8_d_sbn1661.c ****       u8x8_cad_SendCmd(u8x8, 0x0b8 | (((u8x8_tile_t *)arg_ptr)->y_pos));
 194:..\u8g2\csrc/u8x8_d_sbn1661.c ****       u8x8_cad_SendData(u8x8, 61, ptr);	/* note: SendData can not handle more than 255 bytes */    
 195:..\u8g2\csrc/u8x8_d_sbn1661.c ****       u8x8->cad_cb(u8x8, U8X8_MSG_CAD_END_TRANSFER, 0, NULL);
 196:..\u8g2\csrc/u8x8_d_sbn1661.c **** 
 197:..\u8g2\csrc/u8x8_d_sbn1661.c ****       ptr += 61;
 198:..\u8g2\csrc/u8x8_d_sbn1661.c ****       
 199:..\u8g2\csrc/u8x8_d_sbn1661.c ****       u8x8->cad_cb(u8x8, U8X8_MSG_CAD_START_TRANSFER, 1, NULL);
 200:..\u8g2\csrc/u8x8_d_sbn1661.c ****       u8x8_cad_SendCmd(u8x8, 0x000 | 0);		// column 0
 201:..\u8g2\csrc/u8x8_d_sbn1661.c ****       u8x8_cad_SendCmd(u8x8, 0x0b8 | (((u8x8_tile_t *)arg_ptr)->y_pos));
 202:..\u8g2\csrc/u8x8_d_sbn1661.c ****     
 203:..\u8g2\csrc/u8x8_d_sbn1661.c ****       u8x8_cad_SendData(u8x8, 61, ptr);	/* note: SendData can not handle more than 255 bytes */    
 204:..\u8g2\csrc/u8x8_d_sbn1661.c ****       u8x8->cad_cb(u8x8, U8X8_MSG_CAD_END_TRANSFER, 1, NULL);
 205:..\u8g2\csrc/u8x8_d_sbn1661.c ****     
 206:..\u8g2\csrc/u8x8_d_sbn1661.c ****       break;
 207:..\u8g2\csrc/u8x8_d_sbn1661.c ****     default:
 208:..\u8g2\csrc/u8x8_d_sbn1661.c ****       return 0;
 209:..\u8g2\csrc/u8x8_d_sbn1661.c ****   }
 210:..\u8g2\csrc/u8x8_d_sbn1661.c ****   return 1;
  64              		.loc 1 210 0
  65 0020 0120     		movs	r0, #1
 148:..\u8g2\csrc/u8x8_d_sbn1661.c ****       break;
  66              		.loc 1 148 0
  67 0022 F8BD     		pop	{r3, r4, r5, r6, r7, pc}
  68              	.LVL4:
  69              	.L5:
 150:..\u8g2\csrc/u8x8_d_sbn1661.c ****     
  70              		.loc 1 150 0
  71 0024 FFF7FEFF 		bl	u8x8_d_helper_display_init
  72              	.LVL5:
 152:..\u8g2\csrc/u8x8_d_sbn1661.c ****       u8x8_cad_SendSequence(u8x8, u8x8_d_sbn1661_init_seq);
ARM GAS  C:\Users\brian\AppData\Local\Temp\ccYhoQ5g.s 			page 6


  73              		.loc 1 152 0
  74 0028 E568     		ldr	r5, [r4, #12]
  75              	.LVL6:
  76 002a 0023     		movs	r3, #0
  77 002c 1A46     		mov	r2, r3
  78 002e 1821     		movs	r1, #24
  79 0030 2046     		mov	r0, r4
  80 0032 A847     		blx	r5
  81              	.LVL7:
 153:..\u8g2\csrc/u8x8_d_sbn1661.c ****       u8x8->cad_cb(u8x8, U8X8_MSG_CAD_END_TRANSFER, 0, NULL);
  82              		.loc 1 153 0
  83 0034 4F4D     		ldr	r5, .L11+4
  84 0036 2946     		mov	r1, r5
  85 0038 2046     		mov	r0, r4
  86 003a FFF7FEFF 		bl	u8x8_cad_SendSequence
  87              	.LVL8:
 154:..\u8g2\csrc/u8x8_d_sbn1661.c ****     
  88              		.loc 1 154 0
  89 003e E668     		ldr	r6, [r4, #12]
  90 0040 0023     		movs	r3, #0
  91 0042 1A46     		mov	r2, r3
  92 0044 1921     		movs	r1, #25
  93 0046 2046     		mov	r0, r4
  94 0048 B047     		blx	r6
  95              	.LVL9:
 156:..\u8g2\csrc/u8x8_d_sbn1661.c ****       u8x8_cad_SendSequence(u8x8, u8x8_d_sbn1661_init_seq);
  96              		.loc 1 156 0
  97 004a E668     		ldr	r6, [r4, #12]
  98 004c 0023     		movs	r3, #0
  99 004e 0122     		movs	r2, #1
 100 0050 1821     		movs	r1, #24
 101 0052 2046     		mov	r0, r4
 102 0054 B047     		blx	r6
 103              	.LVL10:
 157:..\u8g2\csrc/u8x8_d_sbn1661.c ****       u8x8->cad_cb(u8x8, U8X8_MSG_CAD_END_TRANSFER, 1, NULL);
 104              		.loc 1 157 0
 105 0056 2946     		mov	r1, r5
 106 0058 2046     		mov	r0, r4
 107 005a FFF7FEFF 		bl	u8x8_cad_SendSequence
 108              	.LVL11:
 158:..\u8g2\csrc/u8x8_d_sbn1661.c ****       break;
 109              		.loc 1 158 0
 110 005e E568     		ldr	r5, [r4, #12]
 111 0060 0023     		movs	r3, #0
 112 0062 0122     		movs	r2, #1
 113 0064 1921     		movs	r1, #25
 114 0066 2046     		mov	r0, r4
 115 0068 A847     		blx	r5
 116              	.LVL12:
 117              		.loc 1 210 0
 118 006a 0120     		movs	r0, #1
 159:..\u8g2\csrc/u8x8_d_sbn1661.c ****     case U8X8_MSG_DISPLAY_SET_POWER_SAVE:
 119              		.loc 1 159 0
 120 006c F8BD     		pop	{r3, r4, r5, r6, r7, pc}
 121              	.LVL13:
 122              	.L6:
 162:..\u8g2\csrc/u8x8_d_sbn1661.c ****       {
ARM GAS  C:\Users\brian\AppData\Local\Temp\ccYhoQ5g.s 			page 7


 123              		.loc 1 162 0
 124 006e 0ABB     		cbnz	r2, .L8
 164:..\u8g2\csrc/u8x8_d_sbn1661.c **** 	u8x8_cad_SendSequence(u8x8, u8x8_d_sbn1661_powersave0_seq);
 125              		.loc 1 164 0
 126 0070 C568     		ldr	r5, [r0, #12]
 127              	.LVL14:
 128 0072 0023     		movs	r3, #0
 129 0074 1A46     		mov	r2, r3
 130              	.LVL15:
 131 0076 1821     		movs	r1, #24
 132 0078 A847     		blx	r5
 133              	.LVL16:
 165:..\u8g2\csrc/u8x8_d_sbn1661.c **** 	u8x8->cad_cb(u8x8, U8X8_MSG_CAD_END_TRANSFER, 0, NULL);
 134              		.loc 1 165 0
 135 007a 3F4D     		ldr	r5, .L11+8
 136 007c 2946     		mov	r1, r5
 137 007e 2046     		mov	r0, r4
 138 0080 FFF7FEFF 		bl	u8x8_cad_SendSequence
 139              	.LVL17:
 166:..\u8g2\csrc/u8x8_d_sbn1661.c **** 
 140              		.loc 1 166 0
 141 0084 E668     		ldr	r6, [r4, #12]
 142 0086 0023     		movs	r3, #0
 143 0088 1A46     		mov	r2, r3
 144 008a 1921     		movs	r1, #25
 145 008c 2046     		mov	r0, r4
 146 008e B047     		blx	r6
 147              	.LVL18:
 168:..\u8g2\csrc/u8x8_d_sbn1661.c **** 	u8x8_cad_SendSequence(u8x8, u8x8_d_sbn1661_powersave0_seq);
 148              		.loc 1 168 0
 149 0090 E668     		ldr	r6, [r4, #12]
 150 0092 0023     		movs	r3, #0
 151 0094 0122     		movs	r2, #1
 152 0096 1821     		movs	r1, #24
 153 0098 2046     		mov	r0, r4
 154 009a B047     		blx	r6
 155              	.LVL19:
 169:..\u8g2\csrc/u8x8_d_sbn1661.c **** 	u8x8->cad_cb(u8x8, U8X8_MSG_CAD_END_TRANSFER, 1, NULL);	
 156              		.loc 1 169 0
 157 009c 2946     		mov	r1, r5
 158 009e 2046     		mov	r0, r4
 159 00a0 FFF7FEFF 		bl	u8x8_cad_SendSequence
 160              	.LVL20:
 170:..\u8g2\csrc/u8x8_d_sbn1661.c ****       }
 161              		.loc 1 170 0
 162 00a4 E568     		ldr	r5, [r4, #12]
 163 00a6 0023     		movs	r3, #0
 164 00a8 0122     		movs	r2, #1
 165 00aa 1921     		movs	r1, #25
 166 00ac 2046     		mov	r0, r4
 167 00ae A847     		blx	r5
 168              	.LVL21:
 169              		.loc 1 210 0
 170 00b0 0120     		movs	r0, #1
 171 00b2 F8BD     		pop	{r3, r4, r5, r6, r7, pc}
 172              	.LVL22:
 173              	.L8:
ARM GAS  C:\Users\brian\AppData\Local\Temp\ccYhoQ5g.s 			page 8


 174:..\u8g2\csrc/u8x8_d_sbn1661.c **** 	u8x8_cad_SendSequence(u8x8, u8x8_d_sbn1661_powersave1_seq);
 174              		.loc 1 174 0
 175 00b4 C568     		ldr	r5, [r0, #12]
 176              	.LVL23:
 177 00b6 0023     		movs	r3, #0
 178 00b8 1A46     		mov	r2, r3
 179              	.LVL24:
 180 00ba 1821     		movs	r1, #24
 181 00bc A847     		blx	r5
 182              	.LVL25:
 175:..\u8g2\csrc/u8x8_d_sbn1661.c **** 	u8x8->cad_cb(u8x8, U8X8_MSG_CAD_END_TRANSFER, 0, NULL);
 183              		.loc 1 175 0
 184 00be 2F4D     		ldr	r5, .L11+12
 185 00c0 2946     		mov	r1, r5
 186 00c2 2046     		mov	r0, r4
 187 00c4 FFF7FEFF 		bl	u8x8_cad_SendSequence
 188              	.LVL26:
 176:..\u8g2\csrc/u8x8_d_sbn1661.c **** 	
 189              		.loc 1 176 0
 190 00c8 E668     		ldr	r6, [r4, #12]
 191 00ca 0023     		movs	r3, #0
 192 00cc 1A46     		mov	r2, r3
 193 00ce 1921     		movs	r1, #25
 194 00d0 2046     		mov	r0, r4
 195 00d2 B047     		blx	r6
 196              	.LVL27:
 178:..\u8g2\csrc/u8x8_d_sbn1661.c **** 	u8x8_cad_SendSequence(u8x8, u8x8_d_sbn1661_powersave1_seq);
 197              		.loc 1 178 0
 198 00d4 E668     		ldr	r6, [r4, #12]
 199 00d6 0023     		movs	r3, #0
 200 00d8 0122     		movs	r2, #1
 201 00da 1821     		movs	r1, #24
 202 00dc 2046     		mov	r0, r4
 203 00de B047     		blx	r6
 204              	.LVL28:
 179:..\u8g2\csrc/u8x8_d_sbn1661.c **** 	u8x8->cad_cb(u8x8, U8X8_MSG_CAD_END_TRANSFER, 1, NULL);
 205              		.loc 1 179 0
 206 00e0 2946     		mov	r1, r5
 207 00e2 2046     		mov	r0, r4
 208 00e4 FFF7FEFF 		bl	u8x8_cad_SendSequence
 209              	.LVL29:
 180:..\u8g2\csrc/u8x8_d_sbn1661.c **** 	
 210              		.loc 1 180 0
 211 00e8 E568     		ldr	r5, [r4, #12]
 212 00ea 0023     		movs	r3, #0
 213 00ec 0122     		movs	r2, #1
 214 00ee 1921     		movs	r1, #25
 215 00f0 2046     		mov	r0, r4
 216 00f2 A847     		blx	r5
 217              	.LVL30:
 218              		.loc 1 210 0
 219 00f4 0120     		movs	r0, #1
 220 00f6 F8BD     		pop	{r3, r4, r5, r6, r7, pc}
 221              	.LVL31:
 222              	.L7:
 186:..\u8g2\csrc/u8x8_d_sbn1661.c ****       // x and c are ignored (u8g2 only)
 223              		.loc 1 186 0
ARM GAS  C:\Users\brian\AppData\Local\Temp\ccYhoQ5g.s 			page 9


 224 00f8 2E68     		ldr	r6, [r5]
 225              	.LVL32:
 191:..\u8g2\csrc/u8x8_d_sbn1661.c ****       u8x8_cad_SendCmd(u8x8, 0x000 | 0);		// column 0
 226              		.loc 1 191 0
 227 00fa C768     		ldr	r7, [r0, #12]
 228 00fc 0023     		movs	r3, #0
 229 00fe 1A46     		mov	r2, r3
 230              	.LVL33:
 231 0100 1821     		movs	r1, #24
 232 0102 B847     		blx	r7
 233              	.LVL34:
 192:..\u8g2\csrc/u8x8_d_sbn1661.c ****       u8x8_cad_SendCmd(u8x8, 0x0b8 | (((u8x8_tile_t *)arg_ptr)->y_pos));
 234              		.loc 1 192 0
 235 0104 0021     		movs	r1, #0
 236 0106 2046     		mov	r0, r4
 237 0108 FFF7FEFF 		bl	u8x8_cad_SendCmd
 238              	.LVL35:
 193:..\u8g2\csrc/u8x8_d_sbn1661.c ****       u8x8_cad_SendData(u8x8, 61, ptr);	/* note: SendData can not handle more than 255 bytes */    
 239              		.loc 1 193 0
 240 010c A979     		ldrb	r1, [r5, #6]	@ zero_extendqisi2
 241 010e 41F0B801 		orr	r1, r1, #184
 242 0112 2046     		mov	r0, r4
 243 0114 FFF7FEFF 		bl	u8x8_cad_SendCmd
 244              	.LVL36:
 194:..\u8g2\csrc/u8x8_d_sbn1661.c ****       u8x8->cad_cb(u8x8, U8X8_MSG_CAD_END_TRANSFER, 0, NULL);
 245              		.loc 1 194 0
 246 0118 3246     		mov	r2, r6
 247 011a 3D21     		movs	r1, #61
 248 011c 2046     		mov	r0, r4
 249 011e FFF7FEFF 		bl	u8x8_cad_SendData
 250              	.LVL37:
 195:..\u8g2\csrc/u8x8_d_sbn1661.c **** 
 251              		.loc 1 195 0
 252 0122 E768     		ldr	r7, [r4, #12]
 253 0124 0023     		movs	r3, #0
 254 0126 1A46     		mov	r2, r3
 255 0128 1921     		movs	r1, #25
 256 012a 2046     		mov	r0, r4
 257 012c B847     		blx	r7
 258              	.LVL38:
 197:..\u8g2\csrc/u8x8_d_sbn1661.c ****       
 259              		.loc 1 197 0
 260 012e 3D36     		adds	r6, r6, #61
 261              	.LVL39:
 199:..\u8g2\csrc/u8x8_d_sbn1661.c ****       u8x8_cad_SendCmd(u8x8, 0x000 | 0);		// column 0
 262              		.loc 1 199 0
 263 0130 E768     		ldr	r7, [r4, #12]
 264 0132 0023     		movs	r3, #0
 265 0134 0122     		movs	r2, #1
 266 0136 1821     		movs	r1, #24
 267 0138 2046     		mov	r0, r4
 268 013a B847     		blx	r7
 269              	.LVL40:
 200:..\u8g2\csrc/u8x8_d_sbn1661.c ****       u8x8_cad_SendCmd(u8x8, 0x0b8 | (((u8x8_tile_t *)arg_ptr)->y_pos));
 270              		.loc 1 200 0
 271 013c 0021     		movs	r1, #0
 272 013e 2046     		mov	r0, r4
ARM GAS  C:\Users\brian\AppData\Local\Temp\ccYhoQ5g.s 			page 10


 273 0140 FFF7FEFF 		bl	u8x8_cad_SendCmd
 274              	.LVL41:
 201:..\u8g2\csrc/u8x8_d_sbn1661.c ****     
 275              		.loc 1 201 0
 276 0144 A979     		ldrb	r1, [r5, #6]	@ zero_extendqisi2
 277 0146 41F0B801 		orr	r1, r1, #184
 278 014a 2046     		mov	r0, r4
 279 014c FFF7FEFF 		bl	u8x8_cad_SendCmd
 280              	.LVL42:
 203:..\u8g2\csrc/u8x8_d_sbn1661.c ****       u8x8->cad_cb(u8x8, U8X8_MSG_CAD_END_TRANSFER, 1, NULL);
 281              		.loc 1 203 0
 282 0150 3246     		mov	r2, r6
 283 0152 3D21     		movs	r1, #61
 284 0154 2046     		mov	r0, r4
 285 0156 FFF7FEFF 		bl	u8x8_cad_SendData
 286              	.LVL43:
 204:..\u8g2\csrc/u8x8_d_sbn1661.c ****     
 287              		.loc 1 204 0
 288 015a E568     		ldr	r5, [r4, #12]
 289              	.LVL44:
 290 015c 0023     		movs	r3, #0
 291 015e 0122     		movs	r2, #1
 292 0160 1921     		movs	r1, #25
 293 0162 2046     		mov	r0, r4
 294 0164 A847     		blx	r5
 295              	.LVL45:
 296              		.loc 1 210 0
 297 0166 0120     		movs	r0, #1
 206:..\u8g2\csrc/u8x8_d_sbn1661.c ****     default:
 298              		.loc 1 206 0
 299 0168 F8BD     		pop	{r3, r4, r5, r6, r7, pc}
 300              	.LVL46:
 301              	.L9:
 208:..\u8g2\csrc/u8x8_d_sbn1661.c ****   }
 302              		.loc 1 208 0
 303 016a 0020     		movs	r0, #0
 304              	.LVL47:
 211:..\u8g2\csrc/u8x8_d_sbn1661.c **** }
 305              		.loc 1 211 0
 306 016c F8BD     		pop	{r3, r4, r5, r6, r7, pc}
 307              	.LVL48:
 308              	.L12:
 309 016e 00BF     		.align	2
 310              	.L11:
 311 0170 00000000 		.word	.LANCHOR0
 312 0174 18000000 		.word	.LANCHOR0+24
 313 0178 24000000 		.word	.LANCHOR0+36
 314 017c 28000000 		.word	.LANCHOR0+40
 315              		.cfi_endproc
 316              	.LFE0:
 317              		.size	u8x8_d_sbn1661_122x32, .-u8x8_d_sbn1661_122x32
 318              		.section	.text.u8x8_d_sed1520_122x32,"ax",%progbits
 319              		.align	2
 320              		.global	u8x8_d_sed1520_122x32
 321              		.thumb
 322              		.thumb_func
 323              		.type	u8x8_d_sed1520_122x32, %function
ARM GAS  C:\Users\brian\AppData\Local\Temp\ccYhoQ5g.s 			page 11


 324              	u8x8_d_sed1520_122x32:
 325              	.LFB1:
 212:..\u8g2\csrc/u8x8_d_sbn1661.c **** 
 213:..\u8g2\csrc/u8x8_d_sbn1661.c **** uint8_t u8x8_d_sed1520_122x32(u8x8_t *u8x8, uint8_t msg, uint8_t arg_int, void *arg_ptr)
 214:..\u8g2\csrc/u8x8_d_sbn1661.c **** {
 326              		.loc 1 214 0
 327              		.cfi_startproc
 328              		@ args = 0, pretend = 0, frame = 0
 329              		@ frame_needed = 0, uses_anonymous_args = 0
 330              	.LVL49:
 331 0000 08B5     		push	{r3, lr}
 332              		.cfi_def_cfa_offset 8
 333              		.cfi_offset 3, -8
 334              		.cfi_offset 14, -4
 215:..\u8g2\csrc/u8x8_d_sbn1661.c ****   return u8x8_d_sbn1661_122x32(u8x8, msg, arg_int, arg_ptr);
 335              		.loc 1 215 0
 336 0002 FFF7FEFF 		bl	u8x8_d_sbn1661_122x32
 337              	.LVL50:
 216:..\u8g2\csrc/u8x8_d_sbn1661.c **** 
 217:..\u8g2\csrc/u8x8_d_sbn1661.c **** }
 338              		.loc 1 217 0
 339 0006 08BD     		pop	{r3, pc}
 340              		.cfi_endproc
 341              	.LFE1:
 342              		.size	u8x8_d_sed1520_122x32, .-u8x8_d_sed1520_122x32
 343              		.section	.rodata
 344              		.align	2
 345              		.set	.LANCHOR0,. + 0
 346              		.type	u8x8_sbn1661_122x32_display_info, %object
 347              		.size	u8x8_sbn1661_122x32_display_info, 24
 348              	u8x8_sbn1661_122x32_display_info:
 349 0000 00       		.byte	0
 350 0001 01       		.byte	1
 351 0002 64       		.byte	100
 352 0003 14       		.byte	20
 353 0004 01       		.byte	1
 354 0005 06       		.byte	6
 355 0006 0C       		.byte	12
 356 0007 4B       		.byte	75
 357 0008 00093D00 		.word	4000000
 358 000c 00       		.byte	0
 359 000d 04       		.byte	4
 360 000e C8       		.byte	-56
 361 000f C8       		.byte	-56
 362 0010 10       		.byte	16
 363 0011 04       		.byte	4
 364 0012 00       		.byte	0
 365 0013 00       		.byte	0
 366 0014 7A00     		.short	122
 367 0016 2000     		.short	32
 368              		.type	u8x8_d_sbn1661_init_seq, %object
 369              		.size	u8x8_d_sbn1661_init_seq, 9
 370              	u8x8_d_sbn1661_init_seq:
 371 0018 15       		.byte	21
 372 0019 C0       		.byte	-64
 373 001a 15       		.byte	21
 374 001b A0       		.byte	-96
ARM GAS  C:\Users\brian\AppData\Local\Temp\ccYhoQ5g.s 			page 12


 375 001c 15       		.byte	21
 376 001d A4       		.byte	-92
 377 001e 15       		.byte	21
 378 001f A9       		.byte	-87
 379 0020 FF       		.byte	-1
 380 0021 000000   		.space	3
 381              		.type	u8x8_d_sbn1661_powersave0_seq, %object
 382              		.size	u8x8_d_sbn1661_powersave0_seq, 3
 383              	u8x8_d_sbn1661_powersave0_seq:
 384 0024 15       		.byte	21
 385 0025 AF       		.byte	-81
 386 0026 FF       		.byte	-1
 387 0027 00       		.space	1
 388              		.type	u8x8_d_sbn1661_powersave1_seq, %object
 389              		.size	u8x8_d_sbn1661_powersave1_seq, 3
 390              	u8x8_d_sbn1661_powersave1_seq:
 391 0028 15       		.byte	21
 392 0029 AE       		.byte	-82
 393 002a FF       		.byte	-1
 394              		.text
 395              	.Letext0:
 396              		.file 2 "c:\\program files (x86)\\cypress\\psoc creator\\4.4\\psoc creator\\import\\gnu\\arm\\5.4.
 397              		.file 3 "c:\\program files (x86)\\cypress\\psoc creator\\4.4\\psoc creator\\import\\gnu\\arm\\5.4.
 398              		.file 4 "..\\u8g2\\csrc\\u8x8.h"