ARM GAS  C:\Users\brian\AppData\Local\Temp\ccbhEcoA.s 			page 1


   1              		.syntax unified
   2              		.cpu cortex-m3
   3              		.fpu softvfp
   4              		.eabi_attribute 20, 1
   5              		.eabi_attribute 21, 1
   6              		.eabi_attribute 23, 3
   7              		.eabi_attribute 24, 1
   8              		.eabi_attribute 25, 1
   9              		.eabi_attribute 26, 1
  10              		.eabi_attribute 30, 1
  11              		.eabi_attribute 34, 1
  12              		.eabi_attribute 18, 4
  13              		.thumb
  14              		.syntax unified
  15              		.file	"u8x8_capture.c"
  16              		.text
  17              	.Ltext0:
  18              		.cfi_sections	.debug_frame
  19              		.section	.text.u8x8_capture_get_pixel_1,"ax",%progbits
  20              		.align	2
  21              		.global	u8x8_capture_get_pixel_1
  22              		.thumb
  23              		.thumb_func
  24              		.type	u8x8_capture_get_pixel_1, %function
  25              	u8x8_capture_get_pixel_1:
  26              	.LFB0:
  27              		.file 1 "..\\u8g2\\csrc\\u8x8_capture.c"
   1:..\u8g2\csrc/u8x8_capture.c **** /*
   2:..\u8g2\csrc/u8x8_capture.c **** 
   3:..\u8g2\csrc/u8x8_capture.c ****   u8x8_capture.c
   4:..\u8g2\csrc/u8x8_capture.c ****   
   5:..\u8g2\csrc/u8x8_capture.c ****   Screen capture funcion
   6:..\u8g2\csrc/u8x8_capture.c ****   
   7:..\u8g2\csrc/u8x8_capture.c ****   Universal 8bit Graphics Library (https://github.com/olikraus/u8g2/)
   8:..\u8g2\csrc/u8x8_capture.c **** 
   9:..\u8g2\csrc/u8x8_capture.c ****   Copyright (c) 2016, olikraus@gmail.com
  10:..\u8g2\csrc/u8x8_capture.c ****   All rights reserved.
  11:..\u8g2\csrc/u8x8_capture.c **** 
  12:..\u8g2\csrc/u8x8_capture.c ****   Redistribution and use in source and binary forms, with or without modification, 
  13:..\u8g2\csrc/u8x8_capture.c ****   are permitted provided that the following conditions are met:
  14:..\u8g2\csrc/u8x8_capture.c **** 
  15:..\u8g2\csrc/u8x8_capture.c ****   * Redistributions of source code must retain the above copyright notice, this list 
  16:..\u8g2\csrc/u8x8_capture.c ****     of conditions and the following disclaimer.
  17:..\u8g2\csrc/u8x8_capture.c ****     
  18:..\u8g2\csrc/u8x8_capture.c ****   * Redistributions in binary form must reproduce the above copyright notice, this 
  19:..\u8g2\csrc/u8x8_capture.c ****     list of conditions and the following disclaimer in the documentation and/or other 
  20:..\u8g2\csrc/u8x8_capture.c ****     materials provided with the distribution.
  21:..\u8g2\csrc/u8x8_capture.c **** 
  22:..\u8g2\csrc/u8x8_capture.c ****   THIS SOFTWARE IS PROVIDED BY THE COPYRIGHT HOLDERS AND 
  23:..\u8g2\csrc/u8x8_capture.c ****   CONTRIBUTORS "AS IS" AND ANY EXPRESS OR IMPLIED WARRANTIES, 
  24:..\u8g2\csrc/u8x8_capture.c ****   INCLUDING, BUT NOT LIMITED TO, THE IMPLIED WARRANTIES OF 
  25:..\u8g2\csrc/u8x8_capture.c ****   MERCHANTABILITY AND FITNESS FOR A PARTICULAR PURPOSE ARE 
  26:..\u8g2\csrc/u8x8_capture.c ****   DISCLAIMED. IN NO EVENT SHALL THE COPYRIGHT HOLDER OR 
  27:..\u8g2\csrc/u8x8_capture.c ****   CONTRIBUTORS BE LIABLE FOR ANY DIRECT, INDIRECT, INCIDENTAL, 
  28:..\u8g2\csrc/u8x8_capture.c ****   SPECIAL, EXEMPLARY, OR CONSEQUENTIAL DAMAGES (INCLUDING, BUT 
  29:..\u8g2\csrc/u8x8_capture.c ****   NOT LIMITED TO, PROCUREMENT OF SUBSTITUTE GOODS OR SERVICES; 
  30:..\u8g2\csrc/u8x8_capture.c ****   LOSS OF USE, DATA, OR PROFITS; OR BUSINESS INTERRUPTION) HOWEVER 
ARM GAS  C:\Users\brian\AppData\Local\Temp\ccbhEcoA.s 			page 2


  31:..\u8g2\csrc/u8x8_capture.c ****   CAUSED AND ON ANY THEORY OF LIABILITY, WHETHER IN CONTRACT, 
  32:..\u8g2\csrc/u8x8_capture.c ****   STRICT LIABILITY, OR TORT (INCLUDING NEGLIGENCE OR OTHERWISE) 
  33:..\u8g2\csrc/u8x8_capture.c ****   ARISING IN ANY WAY OUT OF THE USE OF THIS SOFTWARE, EVEN IF 
  34:..\u8g2\csrc/u8x8_capture.c ****   ADVISED OF THE POSSIBILITY OF SUCH DAMAGE.  
  35:..\u8g2\csrc/u8x8_capture.c **** 
  36:..\u8g2\csrc/u8x8_capture.c **** 
  37:..\u8g2\csrc/u8x8_capture.c **** */
  38:..\u8g2\csrc/u8x8_capture.c **** 
  39:..\u8g2\csrc/u8x8_capture.c **** #include "u8x8.h"
  40:..\u8g2\csrc/u8x8_capture.c **** 
  41:..\u8g2\csrc/u8x8_capture.c **** /*========================================================*/
  42:..\u8g2\csrc/u8x8_capture.c **** 
  43:..\u8g2\csrc/u8x8_capture.c **** 
  44:..\u8g2\csrc/u8x8_capture.c **** /* vertical top lsb memory architecture */
  45:..\u8g2\csrc/u8x8_capture.c **** uint8_t u8x8_capture_get_pixel_1(uint16_t x, uint16_t y, uint8_t *dest_ptr, uint8_t tile_width)
  46:..\u8g2\csrc/u8x8_capture.c **** {
  28              		.loc 1 46 0
  29              		.cfi_startproc
  30              		@ args = 0, pretend = 0, frame = 0
  31              		@ frame_needed = 0, uses_anonymous_args = 0
  32              		@ link register save eliminated.
  33              	.LVL0:
  34 0000 10B4     		push	{r4}
  35              		.cfi_def_cfa_offset 4
  36              		.cfi_offset 4, -4
  47:..\u8g2\csrc/u8x8_capture.c ****   //uint8_t *dest_ptr = capture->buffer;
  48:..\u8g2\csrc/u8x8_capture.c ****   //if ( dest_ptr == NULL )
  49:..\u8g2\csrc/u8x8_capture.c ****     //return 0;
  50:..\u8g2\csrc/u8x8_capture.c ****   //dest_ptr += (y/8)*capture->tile_width*8;
  51:..\u8g2\csrc/u8x8_capture.c ****   dest_ptr += (y/8)*tile_width*8;
  37              		.loc 1 51 0
  38 0002 CC08     		lsrs	r4, r1, #3
  39 0004 04FB03F3 		mul	r3, r4, r3
  40              	.LVL1:
  52:..\u8g2\csrc/u8x8_capture.c ****   y &= 7;
  41              		.loc 1 52 0
  42 0008 01F00701 		and	r1, r1, #7
  43              	.LVL2:
  53:..\u8g2\csrc/u8x8_capture.c ****   dest_ptr += x;
  44              		.loc 1 53 0
  45 000c 00EBC300 		add	r0, r0, r3, lsl #3
  46              	.LVL3:
  54:..\u8g2\csrc/u8x8_capture.c ****   if ( (*dest_ptr & (1<<y)) == 0 )
  47              		.loc 1 54 0
  48 0010 135C     		ldrb	r3, [r2, r0]	@ zero_extendqisi2
  49 0012 43FA01F1 		asr	r1, r3, r1
  50              	.LVL4:
  51 0016 11F0010F 		tst	r1, #1
  52 001a 01D1     		bne	.L3
  55:..\u8g2\csrc/u8x8_capture.c ****     return 0;
  53              		.loc 1 55 0
  54 001c 0020     		movs	r0, #0
  55              	.LVL5:
  56 001e 00E0     		b	.L2
  57              	.LVL6:
  58              	.L3:
  56:..\u8g2\csrc/u8x8_capture.c ****   return 1;
ARM GAS  C:\Users\brian\AppData\Local\Temp\ccbhEcoA.s 			page 3


  59              		.loc 1 56 0
  60 0020 0120     		movs	r0, #1
  61              	.LVL7:
  62              	.L2:
  57:..\u8g2\csrc/u8x8_capture.c **** }
  63              		.loc 1 57 0
  64 0022 10BC     		pop	{r4}
  65              		.cfi_restore 4
  66              		.cfi_def_cfa_offset 0
  67 0024 7047     		bx	lr
  68              		.cfi_endproc
  69              	.LFE0:
  70              		.size	u8x8_capture_get_pixel_1, .-u8x8_capture_get_pixel_1
  71 0026 00BF     		.section	.text.u8x8_capture_get_pixel_2,"ax",%progbits
  72              		.align	2
  73              		.global	u8x8_capture_get_pixel_2
  74              		.thumb
  75              		.thumb_func
  76              		.type	u8x8_capture_get_pixel_2, %function
  77              	u8x8_capture_get_pixel_2:
  78              	.LFB1:
  58:..\u8g2\csrc/u8x8_capture.c **** 
  59:..\u8g2\csrc/u8x8_capture.c **** /* horizontal right lsb memory architecture */
  60:..\u8g2\csrc/u8x8_capture.c **** /* SH1122, LD7032, ST7920, ST7986, LC7981, T6963, SED1330, RA8835, MAX7219, LS0 */ 
  61:..\u8g2\csrc/u8x8_capture.c **** uint8_t u8x8_capture_get_pixel_2(uint16_t x, uint16_t y, uint8_t *dest_ptr, uint8_t tile_width)
  62:..\u8g2\csrc/u8x8_capture.c **** {
  79              		.loc 1 62 0
  80              		.cfi_startproc
  81              		@ args = 0, pretend = 0, frame = 0
  82              		@ frame_needed = 0, uses_anonymous_args = 0
  83              		@ link register save eliminated.
  84              	.LVL8:
  63:..\u8g2\csrc/u8x8_capture.c ****   //uint8_t *dest_ptr = capture->buffer;
  64:..\u8g2\csrc/u8x8_capture.c ****   //if ( dest_ptr == NULL )
  65:..\u8g2\csrc/u8x8_capture.c ****   //  return 0;
  66:..\u8g2\csrc/u8x8_capture.c ****   //dest_ptr += y*capture->tile_width;
  67:..\u8g2\csrc/u8x8_capture.c ****   y *= tile_width;
  85              		.loc 1 67 0
  86 0000 03FB01F1 		mul	r1, r3, r1
  87              	.LVL9:
  88 0004 89B2     		uxth	r1, r1
  89              	.LVL10:
  68:..\u8g2\csrc/u8x8_capture.c ****   dest_ptr += y;
  69:..\u8g2\csrc/u8x8_capture.c ****   dest_ptr += x>>3;
  90              		.loc 1 69 0
  91 0006 01EBD001 		add	r1, r1, r0, lsr #3
  92              	.LVL11:
  70:..\u8g2\csrc/u8x8_capture.c ****   if ( (*dest_ptr & (128>>(x&7))) == 0 )
  93              		.loc 1 70 0
  94 000a 525C     		ldrb	r2, [r2, r1]	@ zero_extendqisi2
  95              	.LVL12:
  96 000c 00F00700 		and	r0, r0, #7
  97              	.LVL13:
  98 0010 8023     		movs	r3, #128
  99              	.LVL14:
 100 0012 43FA00F0 		asr	r0, r3, r0
 101 0016 0242     		tst	r2, r0
ARM GAS  C:\Users\brian\AppData\Local\Temp\ccbhEcoA.s 			page 4


 102 0018 01D1     		bne	.L7
  71:..\u8g2\csrc/u8x8_capture.c ****     return 0;
 103              		.loc 1 71 0
 104 001a 0020     		movs	r0, #0
 105 001c 7047     		bx	lr
 106              	.L7:
  72:..\u8g2\csrc/u8x8_capture.c ****   return 1;
 107              		.loc 1 72 0
 108 001e 0120     		movs	r0, #1
  73:..\u8g2\csrc/u8x8_capture.c **** }
 109              		.loc 1 73 0
 110 0020 7047     		bx	lr
 111              		.cfi_endproc
 112              	.LFE1:
 113              		.size	u8x8_capture_get_pixel_2, .-u8x8_capture_get_pixel_2
 114 0022 00BF     		.section	.text.u8x8_capture_write_pbm_pre,"ax",%progbits
 115              		.align	2
 116              		.global	u8x8_capture_write_pbm_pre
 117              		.thumb
 118              		.thumb_func
 119              		.type	u8x8_capture_write_pbm_pre, %function
 120              	u8x8_capture_write_pbm_pre:
 121              	.LFB2:
  74:..\u8g2\csrc/u8x8_capture.c **** 
  75:..\u8g2\csrc/u8x8_capture.c **** void u8x8_capture_write_pbm_pre(uint8_t tile_width, uint8_t tile_height, void (*out)(const char *s)
  76:..\u8g2\csrc/u8x8_capture.c **** {
 122              		.loc 1 76 0
 123              		.cfi_startproc
 124              		@ args = 0, pretend = 0, frame = 0
 125              		@ frame_needed = 0, uses_anonymous_args = 0
 126              	.LVL15:
 127 0000 70B5     		push	{r4, r5, r6, lr}
 128              		.cfi_def_cfa_offset 16
 129              		.cfi_offset 4, -16
 130              		.cfi_offset 5, -12
 131              		.cfi_offset 6, -8
 132              		.cfi_offset 14, -4
 133 0002 0546     		mov	r5, r0
 134 0004 0E46     		mov	r6, r1
 135 0006 1446     		mov	r4, r2
  77:..\u8g2\csrc/u8x8_capture.c ****   out("P1\n");
 136              		.loc 1 77 0
 137 0008 0748     		ldr	r0, .L10
 138              	.LVL16:
 139 000a 9047     		blx	r2
 140              	.LVL17:
  78:..\u8g2\csrc/u8x8_capture.c ****   out(u8x8_utoa((uint16_t)tile_width*8));
 141              		.loc 1 78 0
 142 000c E800     		lsls	r0, r5, #3
 143 000e FFF7FEFF 		bl	u8x8_utoa
 144              	.LVL18:
 145 0012 A047     		blx	r4
 146              	.LVL19:
  79:..\u8g2\csrc/u8x8_capture.c ****   out("\n");
 147              		.loc 1 79 0
 148 0014 054D     		ldr	r5, .L10+4
 149 0016 2846     		mov	r0, r5
ARM GAS  C:\Users\brian\AppData\Local\Temp\ccbhEcoA.s 			page 5


 150 0018 A047     		blx	r4
 151              	.LVL20:
  80:..\u8g2\csrc/u8x8_capture.c ****   out(u8x8_utoa((uint16_t)tile_height*8));
 152              		.loc 1 80 0
 153 001a F000     		lsls	r0, r6, #3
 154 001c FFF7FEFF 		bl	u8x8_utoa
 155              	.LVL21:
 156 0020 A047     		blx	r4
 157              	.LVL22:
  81:..\u8g2\csrc/u8x8_capture.c ****   out("\n");
 158              		.loc 1 81 0
 159 0022 2846     		mov	r0, r5
 160 0024 A047     		blx	r4
 161              	.LVL23:
 162 0026 70BD     		pop	{r4, r5, r6, pc}
 163              	.LVL24:
 164              	.L11:
 165              		.align	2
 166              	.L10:
 167 0028 00000000 		.word	.LC0
 168 002c 04000000 		.word	.LC1
 169              		.cfi_endproc
 170              	.LFE2:
 171              		.size	u8x8_capture_write_pbm_pre, .-u8x8_capture_write_pbm_pre
 172              		.section	.text.u8x8_capture_write_pbm_buffer,"ax",%progbits
 173              		.align	2
 174              		.global	u8x8_capture_write_pbm_buffer
 175              		.thumb
 176              		.thumb_func
 177              		.type	u8x8_capture_write_pbm_buffer, %function
 178              	u8x8_capture_write_pbm_buffer:
 179              	.LFB3:
  82:..\u8g2\csrc/u8x8_capture.c **** }
  83:..\u8g2\csrc/u8x8_capture.c **** 
  84:..\u8g2\csrc/u8x8_capture.c **** 
  85:..\u8g2\csrc/u8x8_capture.c **** void u8x8_capture_write_pbm_buffer(uint8_t *buffer, uint8_t tile_width, uint8_t tile_height, uint8_
  86:..\u8g2\csrc/u8x8_capture.c **** {
 180              		.loc 1 86 0
 181              		.cfi_startproc
 182              		@ args = 4, pretend = 0, frame = 0
 183              		@ frame_needed = 0, uses_anonymous_args = 0
 184              	.LVL25:
 185 0000 2DE9F84F 		push	{r3, r4, r5, r6, r7, r8, r9, r10, fp, lr}
 186              		.cfi_def_cfa_offset 40
 187              		.cfi_offset 3, -40
 188              		.cfi_offset 4, -36
 189              		.cfi_offset 5, -32
 190              		.cfi_offset 6, -28
 191              		.cfi_offset 7, -24
 192              		.cfi_offset 8, -20
 193              		.cfi_offset 9, -16
 194              		.cfi_offset 10, -12
 195              		.cfi_offset 11, -8
 196              		.cfi_offset 14, -4
 197 0004 8246     		mov	r10, r0
 198 0006 8846     		mov	r8, r1
 199 0008 9946     		mov	r9, r3
ARM GAS  C:\Users\brian\AppData\Local\Temp\ccbhEcoA.s 			page 6


 200 000a 0A9F     		ldr	r7, [sp, #40]
 201              	.LVL26:
  87:..\u8g2\csrc/u8x8_capture.c ****   uint16_t x, y;
  88:..\u8g2\csrc/u8x8_capture.c ****   uint16_t w, h;
  89:..\u8g2\csrc/u8x8_capture.c **** 
  90:..\u8g2\csrc/u8x8_capture.c ****   w = tile_width;
  91:..\u8g2\csrc/u8x8_capture.c ****   w *= 8;
 202              		.loc 1 91 0
 203 000c CE00     		lsls	r6, r1, #3
 204              	.LVL27:
  92:..\u8g2\csrc/u8x8_capture.c ****   h = tile_height;
  93:..\u8g2\csrc/u8x8_capture.c ****   h *= 8;
 205              		.loc 1 93 0
 206 000e 4FEAC20B 		lsl	fp, r2, #3
 207              	.LVL28:
  94:..\u8g2\csrc/u8x8_capture.c ****     
  95:..\u8g2\csrc/u8x8_capture.c ****   for( y = 0; y < h; y++)
 208              		.loc 1 95 0
 209 0012 0025     		movs	r5, #0
 210 0014 14E0     		b	.L13
 211              	.LVL29:
 212              	.L16:
  96:..\u8g2\csrc/u8x8_capture.c ****   {
  97:..\u8g2\csrc/u8x8_capture.c ****     for( x = 0; x < w; x++)
  98:..\u8g2\csrc/u8x8_capture.c ****     {
  99:..\u8g2\csrc/u8x8_capture.c ****       if ( get_pixel(x, y, buffer, tile_width) )
 213              		.loc 1 99 0
 214 0016 4346     		mov	r3, r8
 215 0018 5246     		mov	r2, r10
 216 001a 2946     		mov	r1, r5
 217 001c 2046     		mov	r0, r4
 218 001e C847     		blx	r9
 219              	.LVL30:
 220 0020 10B1     		cbz	r0, .L14
 100:..\u8g2\csrc/u8x8_capture.c **** 	out("1");
 221              		.loc 1 100 0
 222 0022 0948     		ldr	r0, .L20
 223 0024 B847     		blx	r7
 224              	.LVL31:
 225 0026 01E0     		b	.L15
 226              	.L14:
 101:..\u8g2\csrc/u8x8_capture.c ****       else
 102:..\u8g2\csrc/u8x8_capture.c **** 	out("0"); 	  
 227              		.loc 1 102 0
 228 0028 0848     		ldr	r0, .L20+4
 229 002a B847     		blx	r7
 230              	.LVL32:
 231              	.L15:
  97:..\u8g2\csrc/u8x8_capture.c ****     {
 232              		.loc 1 97 0 discriminator 2
 233 002c 0134     		adds	r4, r4, #1
 234              	.LVL33:
 235 002e A4B2     		uxth	r4, r4
 236              	.LVL34:
 237 0030 00E0     		b	.L17
 238              	.LVL35:
 239              	.L18:
ARM GAS  C:\Users\brian\AppData\Local\Temp\ccbhEcoA.s 			page 7


 240 0032 0024     		movs	r4, #0
 241              	.L17:
 242              	.LVL36:
  97:..\u8g2\csrc/u8x8_capture.c ****     {
 243              		.loc 1 97 0 is_stmt 0 discriminator 1
 244 0034 B442     		cmp	r4, r6
 245 0036 EED3     		bcc	.L16
 103:..\u8g2\csrc/u8x8_capture.c ****     }
 104:..\u8g2\csrc/u8x8_capture.c ****     out("\n");
 246              		.loc 1 104 0 is_stmt 1 discriminator 2
 247 0038 0548     		ldr	r0, .L20+8
 248 003a B847     		blx	r7
 249              	.LVL37:
  95:..\u8g2\csrc/u8x8_capture.c ****   {
 250              		.loc 1 95 0 discriminator 2
 251 003c 0135     		adds	r5, r5, #1
 252              	.LVL38:
 253 003e ADB2     		uxth	r5, r5
 254              	.LVL39:
 255              	.L13:
  95:..\u8g2\csrc/u8x8_capture.c ****   {
 256              		.loc 1 95 0 is_stmt 0 discriminator 1
 257 0040 5D45     		cmp	r5, fp
 258 0042 F6D3     		bcc	.L18
 105:..\u8g2\csrc/u8x8_capture.c ****   }
 106:..\u8g2\csrc/u8x8_capture.c **** }
 259              		.loc 1 106 0 is_stmt 1
 260 0044 BDE8F88F 		pop	{r3, r4, r5, r6, r7, r8, r9, r10, fp, pc}
 261              	.LVL40:
 262              	.L21:
 263              		.align	2
 264              	.L20:
 265 0048 08000000 		.word	.LC2
 266 004c 0C000000 		.word	.LC3
 267 0050 04000000 		.word	.LC1
 268              		.cfi_endproc
 269              	.LFE3:
 270              		.size	u8x8_capture_write_pbm_buffer, .-u8x8_capture_write_pbm_buffer
 271              		.section	.text.u8x8_capture_write_xbm_pre,"ax",%progbits
 272              		.align	2
 273              		.global	u8x8_capture_write_xbm_pre
 274              		.thumb
 275              		.thumb_func
 276              		.type	u8x8_capture_write_xbm_pre, %function
 277              	u8x8_capture_write_xbm_pre:
 278              	.LFB4:
 107:..\u8g2\csrc/u8x8_capture.c **** 
 108:..\u8g2\csrc/u8x8_capture.c **** 
 109:..\u8g2\csrc/u8x8_capture.c **** 
 110:..\u8g2\csrc/u8x8_capture.c **** 
 111:..\u8g2\csrc/u8x8_capture.c **** void u8x8_capture_write_xbm_pre(uint8_t tile_width, uint8_t tile_height, void (*out)(const char *s)
 112:..\u8g2\csrc/u8x8_capture.c **** {
 279              		.loc 1 112 0
 280              		.cfi_startproc
 281              		@ args = 0, pretend = 0, frame = 0
 282              		@ frame_needed = 0, uses_anonymous_args = 0
 283              	.LVL41:
ARM GAS  C:\Users\brian\AppData\Local\Temp\ccbhEcoA.s 			page 8


 284 0000 70B5     		push	{r4, r5, r6, lr}
 285              		.cfi_def_cfa_offset 16
 286              		.cfi_offset 4, -16
 287              		.cfi_offset 5, -12
 288              		.cfi_offset 6, -8
 289              		.cfi_offset 14, -4
 290 0002 0546     		mov	r5, r0
 291 0004 0E46     		mov	r6, r1
 292 0006 1446     		mov	r4, r2
 113:..\u8g2\csrc/u8x8_capture.c ****   out("#define xbm_width ");
 293              		.loc 1 113 0
 294 0008 0948     		ldr	r0, .L24
 295              	.LVL42:
 296 000a 9047     		blx	r2
 297              	.LVL43:
 114:..\u8g2\csrc/u8x8_capture.c ****   out(u8x8_utoa((uint16_t)tile_width*8));
 298              		.loc 1 114 0
 299 000c E800     		lsls	r0, r5, #3
 300 000e FFF7FEFF 		bl	u8x8_utoa
 301              	.LVL44:
 302 0012 A047     		blx	r4
 303              	.LVL45:
 115:..\u8g2\csrc/u8x8_capture.c ****   out("\n");
 304              		.loc 1 115 0
 305 0014 074D     		ldr	r5, .L24+4
 306 0016 2846     		mov	r0, r5
 307 0018 A047     		blx	r4
 308              	.LVL46:
 116:..\u8g2\csrc/u8x8_capture.c ****   out("#define xbm_height ");
 309              		.loc 1 116 0
 310 001a 0748     		ldr	r0, .L24+8
 311 001c A047     		blx	r4
 312              	.LVL47:
 117:..\u8g2\csrc/u8x8_capture.c ****   out(u8x8_utoa((uint16_t)tile_height*8));
 313              		.loc 1 117 0
 314 001e F000     		lsls	r0, r6, #3
 315 0020 FFF7FEFF 		bl	u8x8_utoa
 316              	.LVL48:
 317 0024 A047     		blx	r4
 318              	.LVL49:
 118:..\u8g2\csrc/u8x8_capture.c ****   out("\n");  
 319              		.loc 1 118 0
 320 0026 2846     		mov	r0, r5
 321 0028 A047     		blx	r4
 322              	.LVL50:
 119:..\u8g2\csrc/u8x8_capture.c ****   out("static unsigned char xbm_bits[] = {\n");  
 323              		.loc 1 119 0
 324 002a 0448     		ldr	r0, .L24+12
 325 002c A047     		blx	r4
 326              	.LVL51:
 327 002e 70BD     		pop	{r4, r5, r6, pc}
 328              	.LVL52:
 329              	.L25:
 330              		.align	2
 331              	.L24:
 332 0030 10000000 		.word	.LC4
 333 0034 04000000 		.word	.LC1
ARM GAS  C:\Users\brian\AppData\Local\Temp\ccbhEcoA.s 			page 9


 334 0038 24000000 		.word	.LC5
 335 003c 38000000 		.word	.LC6
 336              		.cfi_endproc
 337              	.LFE4:
 338              		.size	u8x8_capture_write_xbm_pre, .-u8x8_capture_write_xbm_pre
 339              		.section	.text.u8x8_capture_write_xbm_buffer,"ax",%progbits
 340              		.align	2
 341              		.global	u8x8_capture_write_xbm_buffer
 342              		.thumb
 343              		.thumb_func
 344              		.type	u8x8_capture_write_xbm_buffer, %function
 345              	u8x8_capture_write_xbm_buffer:
 346              	.LFB5:
 120:..\u8g2\csrc/u8x8_capture.c **** }
 121:..\u8g2\csrc/u8x8_capture.c **** 
 122:..\u8g2\csrc/u8x8_capture.c **** void u8x8_capture_write_xbm_buffer(uint8_t *buffer, uint8_t tile_width, uint8_t tile_height, uint8_
 123:..\u8g2\csrc/u8x8_capture.c **** {
 347              		.loc 1 123 0
 348              		.cfi_startproc
 349              		@ args = 4, pretend = 0, frame = 16
 350              		@ frame_needed = 0, uses_anonymous_args = 0
 351              	.LVL53:
 352 0000 2DE9F04F 		push	{r4, r5, r6, r7, r8, r9, r10, fp, lr}
 353              		.cfi_def_cfa_offset 36
 354              		.cfi_offset 4, -36
 355              		.cfi_offset 5, -32
 356              		.cfi_offset 6, -28
 357              		.cfi_offset 7, -24
 358              		.cfi_offset 8, -20
 359              		.cfi_offset 9, -16
 360              		.cfi_offset 10, -12
 361              		.cfi_offset 11, -8
 362              		.cfi_offset 14, -4
 363 0004 85B0     		sub	sp, sp, #20
 364              		.cfi_def_cfa_offset 56
 365 0006 8846     		mov	r8, r1
 366 0008 1F46     		mov	r7, r3
 367 000a DDF838A0 		ldr	r10, [sp, #56]
 124:..\u8g2\csrc/u8x8_capture.c ****   uint16_t x, y;
 125:..\u8g2\csrc/u8x8_capture.c ****   uint16_t w, h;
 126:..\u8g2\csrc/u8x8_capture.c ****   uint8_t v, b;
 127:..\u8g2\csrc/u8x8_capture.c ****   char s[2];
 128:..\u8g2\csrc/u8x8_capture.c ****   s[1] = '\0';
 368              		.loc 1 128 0
 369 000e 0023     		movs	r3, #0
 370              	.LVL54:
 371 0010 8DF80D30 		strb	r3, [sp, #13]
 372              	.LVL55:
 129:..\u8g2\csrc/u8x8_capture.c **** 
 130:..\u8g2\csrc/u8x8_capture.c ****   w = tile_width;
 131:..\u8g2\csrc/u8x8_capture.c ****   w *= 8;
 373              		.loc 1 131 0
 374 0014 4FEAC10B 		lsl	fp, r1, #3
 375              	.LVL56:
 132:..\u8g2\csrc/u8x8_capture.c ****   h = tile_height;
 133:..\u8g2\csrc/u8x8_capture.c ****   h *= 8;
 376              		.loc 1 133 0
ARM GAS  C:\Users\brian\AppData\Local\Temp\ccbhEcoA.s 			page 10


 377 0018 D200     		lsls	r2, r2, #3
 378              	.LVL57:
 379 001a 0192     		str	r2, [sp, #4]
 380              	.LVL58:
 134:..\u8g2\csrc/u8x8_capture.c **** 
 135:..\u8g2\csrc/u8x8_capture.c ****   y = 0;
 381              		.loc 1 135 0
 382 001c 0090     		str	r0, [sp]
 383 001e 9946     		mov	r9, r3
 384              	.LVL59:
 385              	.L37:
 136:..\u8g2\csrc/u8x8_capture.c ****   for(;;)
 137:..\u8g2\csrc/u8x8_capture.c ****   {
 138:..\u8g2\csrc/u8x8_capture.c ****     x = 0;
 386              		.loc 1 138 0
 387 0020 0026     		movs	r6, #0
 388              	.LVL60:
 389              	.L35:
 139:..\u8g2\csrc/u8x8_capture.c ****     for(;;)
 140:..\u8g2\csrc/u8x8_capture.c ****     {
 141:..\u8g2\csrc/u8x8_capture.c ****       v = 0;
 142:..\u8g2\csrc/u8x8_capture.c ****       for( b = 0; b < 8; b++ )
 390              		.loc 1 142 0
 391 0022 0024     		movs	r4, #0
 141:..\u8g2\csrc/u8x8_capture.c ****       for( b = 0; b < 8; b++ )
 392              		.loc 1 141 0
 393 0024 2546     		mov	r5, r4
 394              		.loc 1 142 0
 395 0026 0DE0     		b	.L27
 396              	.LVL61:
 397              	.L29:
 143:..\u8g2\csrc/u8x8_capture.c ****       {
 144:..\u8g2\csrc/u8x8_capture.c **** 	v <<= 1;
 398              		.loc 1 144 0
 399 0028 6D00     		lsls	r5, r5, #1
 400              	.LVL62:
 401 002a EDB2     		uxtb	r5, r5
 402              	.LVL63:
 145:..\u8g2\csrc/u8x8_capture.c **** 	if ( get_pixel(x+7-b, y, buffer, tile_width) )
 403              		.loc 1 145 0
 404 002c 301B     		subs	r0, r6, r4
 405 002e 0730     		adds	r0, r0, #7
 406 0030 4346     		mov	r3, r8
 407 0032 009A     		ldr	r2, [sp]
 408 0034 4946     		mov	r1, r9
 409 0036 80B2     		uxth	r0, r0
 410 0038 B847     		blx	r7
 411              	.LVL64:
 412 003a 08B1     		cbz	r0, .L28
 146:..\u8g2\csrc/u8x8_capture.c **** 	  v |= 1;
 413              		.loc 1 146 0
 414 003c 45F00105 		orr	r5, r5, #1
 415              	.LVL65:
 416              	.L28:
 142:..\u8g2\csrc/u8x8_capture.c ****       {
 417              		.loc 1 142 0 discriminator 2
 418 0040 0134     		adds	r4, r4, #1
ARM GAS  C:\Users\brian\AppData\Local\Temp\ccbhEcoA.s 			page 11


 419              	.LVL66:
 420 0042 E4B2     		uxtb	r4, r4
 421              	.LVL67:
 422              	.L27:
 142:..\u8g2\csrc/u8x8_capture.c ****       {
 423              		.loc 1 142 0 is_stmt 0 discriminator 1
 424 0044 072C     		cmp	r4, #7
 425 0046 EFD9     		bls	.L29
 147:..\u8g2\csrc/u8x8_capture.c ****       }
 148:..\u8g2\csrc/u8x8_capture.c ****       out("0x");
 426              		.loc 1 148 0 is_stmt 1
 427 0048 1948     		ldr	r0, .L39
 428 004a D047     		blx	r10
 429              	.LVL68:
 149:..\u8g2\csrc/u8x8_capture.c ****       s[0] = (v>>4);
 430              		.loc 1 149 0
 431 004c 2B09     		lsrs	r3, r5, #4
 150:..\u8g2\csrc/u8x8_capture.c ****       if ( s[0] <= 9 )
 432              		.loc 1 150 0
 433 004e 092B     		cmp	r3, #9
 434 0050 03D8     		bhi	.L30
 151:..\u8g2\csrc/u8x8_capture.c **** 	s[0] += '0';
 435              		.loc 1 151 0
 436 0052 3033     		adds	r3, r3, #48
 437 0054 8DF80C30 		strb	r3, [sp, #12]
 438 0058 02E0     		b	.L31
 439              	.L30:
 152:..\u8g2\csrc/u8x8_capture.c ****       else
 153:..\u8g2\csrc/u8x8_capture.c **** 	s[0] += 'a'-10;
 440              		.loc 1 153 0
 441 005a 5733     		adds	r3, r3, #87
 442 005c 8DF80C30 		strb	r3, [sp, #12]
 443              	.L31:
 154:..\u8g2\csrc/u8x8_capture.c ****       out(s);
 444              		.loc 1 154 0
 445 0060 03A8     		add	r0, sp, #12
 446 0062 D047     		blx	r10
 447              	.LVL69:
 155:..\u8g2\csrc/u8x8_capture.c ****       s[0] = (v&15);
 448              		.loc 1 155 0
 449 0064 05F00F05 		and	r5, r5, #15
 450              	.LVL70:
 156:..\u8g2\csrc/u8x8_capture.c ****       if ( s[0] <= 9 )
 451              		.loc 1 156 0
 452 0068 092D     		cmp	r5, #9
 453 006a 03D8     		bhi	.L32
 157:..\u8g2\csrc/u8x8_capture.c **** 	s[0] += '0';
 454              		.loc 1 157 0
 455 006c 3035     		adds	r5, r5, #48
 456 006e 8DF80C50 		strb	r5, [sp, #12]
 457 0072 02E0     		b	.L33
 458              	.L32:
 158:..\u8g2\csrc/u8x8_capture.c ****       else
 159:..\u8g2\csrc/u8x8_capture.c **** 	s[0] += 'a'-10;
 459              		.loc 1 159 0
 460 0074 5735     		adds	r5, r5, #87
 461 0076 8DF80C50 		strb	r5, [sp, #12]
ARM GAS  C:\Users\brian\AppData\Local\Temp\ccbhEcoA.s 			page 12


 462              	.L33:
 160:..\u8g2\csrc/u8x8_capture.c ****       out(s);
 463              		.loc 1 160 0
 464 007a 03A8     		add	r0, sp, #12
 465 007c D047     		blx	r10
 466              	.LVL71:
 161:..\u8g2\csrc/u8x8_capture.c ****       x += 8;
 467              		.loc 1 161 0
 468 007e 0836     		adds	r6, r6, #8
 469              	.LVL72:
 470 0080 B6B2     		uxth	r6, r6
 471              	.LVL73:
 162:..\u8g2\csrc/u8x8_capture.c ****       if ( x >= w )
 472              		.loc 1 162 0
 473 0082 B345     		cmp	fp, r6
 474 0084 02D9     		bls	.L34
 163:..\u8g2\csrc/u8x8_capture.c **** 	break;
 164:..\u8g2\csrc/u8x8_capture.c ****       out(",");
 475              		.loc 1 164 0
 476 0086 0B48     		ldr	r0, .L39+4
 477 0088 D047     		blx	r10
 478              	.LVL74:
 165:..\u8g2\csrc/u8x8_capture.c ****     }
 479              		.loc 1 165 0
 480 008a CAE7     		b	.L35
 481              	.L34:
 166:..\u8g2\csrc/u8x8_capture.c ****     y++;
 482              		.loc 1 166 0
 483 008c 09F10109 		add	r9, r9, #1
 484              	.LVL75:
 485 0090 1FFA89F9 		uxth	r9, r9
 486              	.LVL76:
 167:..\u8g2\csrc/u8x8_capture.c ****     if ( y >= h )
 487              		.loc 1 167 0
 488 0094 019B     		ldr	r3, [sp, #4]
 489 0096 4B45     		cmp	r3, r9
 490 0098 04D9     		bls	.L36
 168:..\u8g2\csrc/u8x8_capture.c ****       break;
 169:..\u8g2\csrc/u8x8_capture.c ****     out(",");
 491              		.loc 1 169 0
 492 009a 0648     		ldr	r0, .L39+4
 493 009c D047     		blx	r10
 494              	.LVL77:
 170:..\u8g2\csrc/u8x8_capture.c ****     out("\n");
 495              		.loc 1 170 0
 496 009e 0648     		ldr	r0, .L39+8
 497 00a0 D047     		blx	r10
 498              	.LVL78:
 171:..\u8g2\csrc/u8x8_capture.c ****   }
 499              		.loc 1 171 0
 500 00a2 BDE7     		b	.L37
 501              	.L36:
 172:..\u8g2\csrc/u8x8_capture.c ****   out("};\n");
 502              		.loc 1 172 0
 503 00a4 0548     		ldr	r0, .L39+12
 504 00a6 D047     		blx	r10
 505              	.LVL79:
ARM GAS  C:\Users\brian\AppData\Local\Temp\ccbhEcoA.s 			page 13


 173:..\u8g2\csrc/u8x8_capture.c ****   
 174:..\u8g2\csrc/u8x8_capture.c **** }
 506              		.loc 1 174 0
 507 00a8 05B0     		add	sp, sp, #20
 508              		.cfi_def_cfa_offset 36
 509              	.LVL80:
 510              		@ sp needed
 511 00aa BDE8F08F 		pop	{r4, r5, r6, r7, r8, r9, r10, fp, pc}
 512              	.LVL81:
 513              	.L40:
 514 00ae 00BF     		.align	2
 515              	.L39:
 516 00b0 60000000 		.word	.LC7
 517 00b4 64000000 		.word	.LC8
 518 00b8 04000000 		.word	.LC1
 519 00bc 68000000 		.word	.LC9
 520              		.cfi_endproc
 521              	.LFE5:
 522              		.size	u8x8_capture_write_xbm_buffer, .-u8x8_capture_write_xbm_buffer
 523              		.section	.rodata.str1.4,"aMS",%progbits,1
 524              		.align	2
 525              	.LC0:
 526 0000 50310A00 		.ascii	"P1\012\000"
 527              	.LC1:
 528 0004 0A00     		.ascii	"\012\000"
 529 0006 0000     		.space	2
 530              	.LC2:
 531 0008 3100     		.ascii	"1\000"
 532 000a 0000     		.space	2
 533              	.LC3:
 534 000c 3000     		.ascii	"0\000"
 535 000e 0000     		.space	2
 536              	.LC4:
 537 0010 23646566 		.ascii	"#define xbm_width \000"
 537      696E6520 
 537      78626D5F 
 537      77696474 
 537      682000
 538 0023 00       		.space	1
 539              	.LC5:
 540 0024 23646566 		.ascii	"#define xbm_height \000"
 540      696E6520 
 540      78626D5F 
 540      68656967 
 540      68742000 
 541              	.LC6:
 542 0038 73746174 		.ascii	"static unsigned char xbm_bits[] = {\012\000"
 542      69632075 
 542      6E736967 
 542      6E656420 
 542      63686172 
 543 005d 000000   		.space	3
 544              	.LC7:
 545 0060 307800   		.ascii	"0x\000"
 546 0063 00       		.space	1
 547              	.LC8:
 548 0064 2C00     		.ascii	",\000"
ARM GAS  C:\Users\brian\AppData\Local\Temp\ccbhEcoA.s 			page 14


 549 0066 0000     		.space	2
 550              	.LC9:
 551 0068 7D3B0A00 		.ascii	"};\012\000"
 552              		.text
 553              	.Letext0:
 554              		.file 2 "c:\\program files (x86)\\cypress\\psoc creator\\4.4\\psoc creator\\import\\gnu\\arm\\5.4.
 555              		.file 3 "c:\\program files (x86)\\cypress\\psoc creator\\4.4\\psoc creator\\import\\gnu\\arm\\5.4.
 556              		.file 4 "..\\u8g2\\csrc\\u8x8.h"