ARM GAS  C:\Users\brian\AppData\Local\Temp\ccvz5tDg.s 			page 1


   1              		.syntax unified
   2              		.cpu cortex-m3
   3              		.fpu softvfp
   4              		.eabi_attribute 20, 1
   5              		.eabi_attribute 21, 1
   6              		.eabi_attribute 23, 3
   7              		.eabi_attribute 24, 1
   8              		.eabi_attribute 25, 1
   9              		.eabi_attribute 26, 1
  10              		.eabi_attribute 30, 1
  11              		.eabi_attribute 34, 1
  12              		.eabi_attribute 18, 4
  13              		.thumb
  14              		.syntax unified
  15              		.file	"u8x8_d_ssd1325.c"
  16              		.text
  17              	.Ltext0:
  18              		.cfi_sections	.debug_frame
  19              		.section	.text.u8x8_ssd1325_8to32,"ax",%progbits
  20              		.align	2
  21              		.thumb
  22              		.thumb_func
  23              		.type	u8x8_ssd1325_8to32, %function
  24              	u8x8_ssd1325_8to32:
  25              	.LFB0:
  26              		.file 1 "..\\u8g2\\csrc\\u8x8_d_ssd1325.c"
   1:..\u8g2\csrc/u8x8_d_ssd1325.c **** /*
   2:..\u8g2\csrc/u8x8_d_ssd1325.c **** 
   3:..\u8g2\csrc/u8x8_d_ssd1325.c ****   u8x8_d_ssd1325.c
   4:..\u8g2\csrc/u8x8_d_ssd1325.c **** 
   5:..\u8g2\csrc/u8x8_d_ssd1325.c ****   Universal 8bit Graphics Library (https://github.com/olikraus/u8g2/)
   6:..\u8g2\csrc/u8x8_d_ssd1325.c **** 
   7:..\u8g2\csrc/u8x8_d_ssd1325.c ****   Copyright (c) 2016, olikraus@gmail.com
   8:..\u8g2\csrc/u8x8_d_ssd1325.c ****   All rights reserved.
   9:..\u8g2\csrc/u8x8_d_ssd1325.c **** 
  10:..\u8g2\csrc/u8x8_d_ssd1325.c ****   Redistribution and use in source and binary forms, with or without modification, 
  11:..\u8g2\csrc/u8x8_d_ssd1325.c ****   are permitted provided that the following conditions are met:
  12:..\u8g2\csrc/u8x8_d_ssd1325.c **** 
  13:..\u8g2\csrc/u8x8_d_ssd1325.c ****   * Redistributions of source code must retain the above copyright notice, this list 
  14:..\u8g2\csrc/u8x8_d_ssd1325.c ****     of conditions and the following disclaimer.
  15:..\u8g2\csrc/u8x8_d_ssd1325.c ****     
  16:..\u8g2\csrc/u8x8_d_ssd1325.c ****   * Redistributions in binary form must reproduce the above copyright notice, this 
  17:..\u8g2\csrc/u8x8_d_ssd1325.c ****     list of conditions and the following disclaimer in the documentation and/or other 
  18:..\u8g2\csrc/u8x8_d_ssd1325.c ****     materials provided with the distribution.
  19:..\u8g2\csrc/u8x8_d_ssd1325.c **** 
  20:..\u8g2\csrc/u8x8_d_ssd1325.c ****   THIS SOFTWARE IS PROVIDED BY THE COPYRIGHT HOLDERS AND 
  21:..\u8g2\csrc/u8x8_d_ssd1325.c ****   CONTRIBUTORS "AS IS" AND ANY EXPRESS OR IMPLIED WARRANTIES, 
  22:..\u8g2\csrc/u8x8_d_ssd1325.c ****   INCLUDING, BUT NOT LIMITED TO, THE IMPLIED WARRANTIES OF 
  23:..\u8g2\csrc/u8x8_d_ssd1325.c ****   MERCHANTABILITY AND FITNESS FOR A PARTICULAR PURPOSE ARE 
  24:..\u8g2\csrc/u8x8_d_ssd1325.c ****   DISCLAIMED. IN NO EVENT SHALL THE COPYRIGHT HOLDER OR 
  25:..\u8g2\csrc/u8x8_d_ssd1325.c ****   CONTRIBUTORS BE LIABLE FOR ANY DIRECT, INDIRECT, INCIDENTAL, 
  26:..\u8g2\csrc/u8x8_d_ssd1325.c ****   SPECIAL, EXEMPLARY, OR CONSEQUENTIAL DAMAGES (INCLUDING, BUT 
  27:..\u8g2\csrc/u8x8_d_ssd1325.c ****   NOT LIMITED TO, PROCUREMENT OF SUBSTITUTE GOODS OR SERVICES; 
  28:..\u8g2\csrc/u8x8_d_ssd1325.c ****   LOSS OF USE, DATA, OR PROFITS; OR BUSINESS INTERRUPTION) HOWEVER 
  29:..\u8g2\csrc/u8x8_d_ssd1325.c ****   CAUSED AND ON ANY THEORY OF LIABILITY, WHETHER IN CONTRACT, 
  30:..\u8g2\csrc/u8x8_d_ssd1325.c ****   STRICT LIABILITY, OR TORT (INCLUDING NEGLIGENCE OR OTHERWISE) 
  31:..\u8g2\csrc/u8x8_d_ssd1325.c ****   ARISING IN ANY WAY OUT OF THE USE OF THIS SOFTWARE, EVEN IF 
ARM GAS  C:\Users\brian\AppData\Local\Temp\ccvz5tDg.s 			page 2


  32:..\u8g2\csrc/u8x8_d_ssd1325.c ****   ADVISED OF THE POSSIBILITY OF SUCH DAMAGE.  
  33:..\u8g2\csrc/u8x8_d_ssd1325.c **** 
  34:..\u8g2\csrc/u8x8_d_ssd1325.c ****   SSD1325:
  35:..\u8g2\csrc/u8x8_d_ssd1325.c ****     128 x 80, 16 Gray Scale Dot Matrix
  36:..\u8g2\csrc/u8x8_d_ssd1325.c ****     
  37:..\u8g2\csrc/u8x8_d_ssd1325.c ****   SSD0323: Identical to SSD1325, issue 720
  38:..\u8g2\csrc/u8x8_d_ssd1325.c ****     
  39:..\u8g2\csrc/u8x8_d_ssd1325.c ****   
  40:..\u8g2\csrc/u8x8_d_ssd1325.c **** */
  41:..\u8g2\csrc/u8x8_d_ssd1325.c **** 
  42:..\u8g2\csrc/u8x8_d_ssd1325.c **** 
  43:..\u8g2\csrc/u8x8_d_ssd1325.c **** #include "u8x8.h"
  44:..\u8g2\csrc/u8x8_d_ssd1325.c **** 
  45:..\u8g2\csrc/u8x8_d_ssd1325.c **** 
  46:..\u8g2\csrc/u8x8_d_ssd1325.c **** 
  47:..\u8g2\csrc/u8x8_d_ssd1325.c **** static const uint8_t u8x8_d_ssd1325_128x64_nhd_powersave0_seq[] = {
  48:..\u8g2\csrc/u8x8_d_ssd1325.c ****   U8X8_START_TRANSFER(),             	/* enable chip, delay is part of the transfer start */
  49:..\u8g2\csrc/u8x8_d_ssd1325.c ****   U8X8_C(0x0af),		                /* display on */
  50:..\u8g2\csrc/u8x8_d_ssd1325.c ****   U8X8_END_TRANSFER(),             	/* disable chip */
  51:..\u8g2\csrc/u8x8_d_ssd1325.c ****   U8X8_END()             			/* end of sequence */
  52:..\u8g2\csrc/u8x8_d_ssd1325.c **** };
  53:..\u8g2\csrc/u8x8_d_ssd1325.c **** 
  54:..\u8g2\csrc/u8x8_d_ssd1325.c **** static const uint8_t u8x8_d_ssd1325_128x64_nhd_powersave1_seq[] = {
  55:..\u8g2\csrc/u8x8_d_ssd1325.c ****   U8X8_START_TRANSFER(),             	/* enable chip, delay is part of the transfer start */
  56:..\u8g2\csrc/u8x8_d_ssd1325.c ****   U8X8_C(0x0ae),		                /* display off */
  57:..\u8g2\csrc/u8x8_d_ssd1325.c ****   U8X8_END_TRANSFER(),             	/* disable chip */
  58:..\u8g2\csrc/u8x8_d_ssd1325.c ****   U8X8_END()             			/* end of sequence */
  59:..\u8g2\csrc/u8x8_d_ssd1325.c **** };
  60:..\u8g2\csrc/u8x8_d_ssd1325.c **** 
  61:..\u8g2\csrc/u8x8_d_ssd1325.c **** static const uint8_t u8x8_d_ssd1325_128x64_nhd_flip0_seq[] = {
  62:..\u8g2\csrc/u8x8_d_ssd1325.c ****   U8X8_START_TRANSFER(),             	/* enable chip, delay is part of the transfer start */
  63:..\u8g2\csrc/u8x8_d_ssd1325.c ****   U8X8_CA(0x0a0, 0x052),		/* remap */
  64:..\u8g2\csrc/u8x8_d_ssd1325.c ****   U8X8_END_TRANSFER(),             	/* disable chip */
  65:..\u8g2\csrc/u8x8_d_ssd1325.c ****   U8X8_END()             			/* end of sequence */
  66:..\u8g2\csrc/u8x8_d_ssd1325.c **** };
  67:..\u8g2\csrc/u8x8_d_ssd1325.c **** 
  68:..\u8g2\csrc/u8x8_d_ssd1325.c **** static const uint8_t u8x8_d_ssd1325_128x64_nhd_flip1_seq[] = {
  69:..\u8g2\csrc/u8x8_d_ssd1325.c ****   U8X8_START_TRANSFER(),             	/* enable chip, delay is part of the transfer start */
  70:..\u8g2\csrc/u8x8_d_ssd1325.c ****   U8X8_CA(0x0a0, 0x041),		/* remap */
  71:..\u8g2\csrc/u8x8_d_ssd1325.c ****   U8X8_END_TRANSFER(),             	/* disable chip */
  72:..\u8g2\csrc/u8x8_d_ssd1325.c ****   U8X8_END()             			/* end of sequence */
  73:..\u8g2\csrc/u8x8_d_ssd1325.c **** };
  74:..\u8g2\csrc/u8x8_d_ssd1325.c **** 
  75:..\u8g2\csrc/u8x8_d_ssd1325.c **** 
  76:..\u8g2\csrc/u8x8_d_ssd1325.c **** /*
  77:..\u8g2\csrc/u8x8_d_ssd1325.c ****   input:
  78:..\u8g2\csrc/u8x8_d_ssd1325.c ****     one tile (8 Bytes)
  79:..\u8g2\csrc/u8x8_d_ssd1325.c ****   output:
  80:..\u8g2\csrc/u8x8_d_ssd1325.c ****     Tile for SSD1325 (32 Bytes)
  81:..\u8g2\csrc/u8x8_d_ssd1325.c **** */
  82:..\u8g2\csrc/u8x8_d_ssd1325.c **** 
  83:..\u8g2\csrc/u8x8_d_ssd1325.c **** static uint8_t u8x8_ssd1325_8to32_dest_buf[32];
  84:..\u8g2\csrc/u8x8_d_ssd1325.c **** 
  85:..\u8g2\csrc/u8x8_d_ssd1325.c **** static uint8_t *u8x8_ssd1325_8to32(U8X8_UNUSED u8x8_t *u8x8, uint8_t *ptr)
  86:..\u8g2\csrc/u8x8_d_ssd1325.c **** {
  27              		.loc 1 86 0
  28              		.cfi_startproc
ARM GAS  C:\Users\brian\AppData\Local\Temp\ccvz5tDg.s 			page 3


  29              		@ args = 0, pretend = 0, frame = 0
  30              		@ frame_needed = 0, uses_anonymous_args = 0
  31              		@ link register save eliminated.
  32              	.LVL0:
  33 0000 70B4     		push	{r4, r5, r6}
  34              		.cfi_def_cfa_offset 12
  35              		.cfi_offset 4, -12
  36              		.cfi_offset 5, -8
  37              		.cfi_offset 6, -4
  38              	.LVL1:
  87:..\u8g2\csrc/u8x8_d_ssd1325.c ****   uint8_t v;
  88:..\u8g2\csrc/u8x8_d_ssd1325.c ****   uint8_t a,b;
  89:..\u8g2\csrc/u8x8_d_ssd1325.c ****   uint8_t i, j;
  90:..\u8g2\csrc/u8x8_d_ssd1325.c ****   uint8_t *dest;
  91:..\u8g2\csrc/u8x8_d_ssd1325.c ****   
  92:..\u8g2\csrc/u8x8_d_ssd1325.c ****   for( j = 0; j < 4; j++ )
  39              		.loc 1 92 0
  40 0002 0026     		movs	r6, #0
  41 0004 1BE0     		b	.L2
  42              	.LVL2:
  43              	.L7:
  93:..\u8g2\csrc/u8x8_d_ssd1325.c ****   {
  94:..\u8g2\csrc/u8x8_d_ssd1325.c ****     dest = u8x8_ssd1325_8to32_dest_buf;
  95:..\u8g2\csrc/u8x8_d_ssd1325.c ****     dest += j;
  44              		.loc 1 95 0
  45 0006 104D     		ldr	r5, .L10
  46 0008 3544     		add	r5, r5, r6
  47              	.LVL3:
  96:..\u8g2\csrc/u8x8_d_ssd1325.c ****     a =*ptr;
  48              		.loc 1 96 0
  49 000a 0878     		ldrb	r0, [r1]	@ zero_extendqisi2
  50              	.LVL4:
  97:..\u8g2\csrc/u8x8_d_ssd1325.c ****     ptr++;
  98:..\u8g2\csrc/u8x8_d_ssd1325.c ****     b = *ptr;
  51              		.loc 1 98 0
  52 000c 4A78     		ldrb	r2, [r1, #1]	@ zero_extendqisi2
  53              	.LVL5:
  99:..\u8g2\csrc/u8x8_d_ssd1325.c ****     ptr++;
  54              		.loc 1 99 0
  55 000e 0231     		adds	r1, r1, #2
  56              	.LVL6:
 100:..\u8g2\csrc/u8x8_d_ssd1325.c ****     for( i = 0; i < 8; i++ )
  57              		.loc 1 100 0
  58 0010 0023     		movs	r3, #0
  59 0012 10E0     		b	.L3
  60              	.LVL7:
  61              	.L6:
 101:..\u8g2\csrc/u8x8_d_ssd1325.c ****     {
 102:..\u8g2\csrc/u8x8_d_ssd1325.c ****       v = 0;
 103:..\u8g2\csrc/u8x8_d_ssd1325.c ****       if ( a&1 ) v |= 0xf0;
  62              		.loc 1 103 0
  63 0014 10F0010F 		tst	r0, #1
  64 0018 01D1     		bne	.L8
 102:..\u8g2\csrc/u8x8_d_ssd1325.c ****       if ( a&1 ) v |= 0xf0;
  65              		.loc 1 102 0
  66 001a 0024     		movs	r4, #0
  67 001c 00E0     		b	.L4
ARM GAS  C:\Users\brian\AppData\Local\Temp\ccvz5tDg.s 			page 4


  68              	.L8:
  69              		.loc 1 103 0
  70 001e F024     		movs	r4, #240
  71              	.L4:
  72              	.LVL8:
 104:..\u8g2\csrc/u8x8_d_ssd1325.c ****       if ( b&1 ) v |= 0x0f;
  73              		.loc 1 104 0
  74 0020 12F0010F 		tst	r2, #1
  75 0024 01D0     		beq	.L5
  76              		.loc 1 104 0 is_stmt 0 discriminator 1
  77 0026 44F00F04 		orr	r4, r4, #15
  78              	.LVL9:
  79              	.L5:
 105:..\u8g2\csrc/u8x8_d_ssd1325.c ****       *dest = v;
  80              		.loc 1 105 0 is_stmt 1 discriminator 2
  81 002a 05F8044B 		strb	r4, [r5], #4
  82              	.LVL10:
 106:..\u8g2\csrc/u8x8_d_ssd1325.c ****       dest+=4;
 107:..\u8g2\csrc/u8x8_d_ssd1325.c ****       a >>= 1;
  83              		.loc 1 107 0 discriminator 2
  84 002e 4008     		lsrs	r0, r0, #1
  85              	.LVL11:
 108:..\u8g2\csrc/u8x8_d_ssd1325.c ****       b >>= 1;
  86              		.loc 1 108 0 discriminator 2
  87 0030 5208     		lsrs	r2, r2, #1
  88              	.LVL12:
 100:..\u8g2\csrc/u8x8_d_ssd1325.c ****     {
  89              		.loc 1 100 0 discriminator 2
  90 0032 0133     		adds	r3, r3, #1
  91              	.LVL13:
  92 0034 DBB2     		uxtb	r3, r3
  93              	.LVL14:
  94              	.L3:
 100:..\u8g2\csrc/u8x8_d_ssd1325.c ****     {
  95              		.loc 1 100 0 is_stmt 0 discriminator 1
  96 0036 072B     		cmp	r3, #7
  97 0038 ECD9     		bls	.L6
  92:..\u8g2\csrc/u8x8_d_ssd1325.c ****   {
  98              		.loc 1 92 0 is_stmt 1 discriminator 2
  99 003a 0136     		adds	r6, r6, #1
 100              	.LVL15:
 101 003c F6B2     		uxtb	r6, r6
 102              	.LVL16:
 103              	.L2:
  92:..\u8g2\csrc/u8x8_d_ssd1325.c ****   {
 104              		.loc 1 92 0 is_stmt 0 discriminator 1
 105 003e 032E     		cmp	r6, #3
 106 0040 E1D9     		bls	.L7
 109:..\u8g2\csrc/u8x8_d_ssd1325.c ****     }
 110:..\u8g2\csrc/u8x8_d_ssd1325.c ****   }
 111:..\u8g2\csrc/u8x8_d_ssd1325.c ****   
 112:..\u8g2\csrc/u8x8_d_ssd1325.c ****   return u8x8_ssd1325_8to32_dest_buf;
 113:..\u8g2\csrc/u8x8_d_ssd1325.c **** }
 107              		.loc 1 113 0 is_stmt 1
 108 0042 0148     		ldr	r0, .L10
 109 0044 70BC     		pop	{r4, r5, r6}
 110              		.cfi_restore 6
ARM GAS  C:\Users\brian\AppData\Local\Temp\ccvz5tDg.s 			page 5


 111              		.cfi_restore 5
 112              		.cfi_restore 4
 113              		.cfi_def_cfa_offset 0
 114              	.LVL17:
 115 0046 7047     		bx	lr
 116              	.L11:
 117              		.align	2
 118              	.L10:
 119 0048 00000000 		.word	.LANCHOR0
 120              		.cfi_endproc
 121              	.LFE0:
 122              		.size	u8x8_ssd1325_8to32, .-u8x8_ssd1325_8to32
 123              		.section	.text.u8x8_d_ssd1325_128x64_generic,"ax",%progbits
 124              		.align	2
 125              		.thumb
 126              		.thumb_func
 127              		.type	u8x8_d_ssd1325_128x64_generic, %function
 128              	u8x8_d_ssd1325_128x64_generic:
 129              	.LFB1:
 114:..\u8g2\csrc/u8x8_d_ssd1325.c **** 
 115:..\u8g2\csrc/u8x8_d_ssd1325.c **** 
 116:..\u8g2\csrc/u8x8_d_ssd1325.c **** /*===================================================================*/
 117:..\u8g2\csrc/u8x8_d_ssd1325.c **** 
 118:..\u8g2\csrc/u8x8_d_ssd1325.c **** static uint8_t u8x8_d_ssd1325_128x64_generic(u8x8_t *u8x8, uint8_t msg, uint8_t arg_int, void *arg_
 119:..\u8g2\csrc/u8x8_d_ssd1325.c **** {
 130              		.loc 1 119 0
 131              		.cfi_startproc
 132              		@ args = 0, pretend = 0, frame = 8
 133              		@ frame_needed = 0, uses_anonymous_args = 0
 134              	.LVL18:
 135 0000 2DE9F04F 		push	{r4, r5, r6, r7, r8, r9, r10, fp, lr}
 136              		.cfi_def_cfa_offset 36
 137              		.cfi_offset 4, -36
 138              		.cfi_offset 5, -32
 139              		.cfi_offset 6, -28
 140              		.cfi_offset 7, -24
 141              		.cfi_offset 8, -20
 142              		.cfi_offset 9, -16
 143              		.cfi_offset 10, -12
 144              		.cfi_offset 11, -8
 145              		.cfi_offset 14, -4
 146 0004 83B0     		sub	sp, sp, #12
 147              		.cfi_def_cfa_offset 48
 148 0006 0646     		mov	r6, r0
 149 0008 9046     		mov	r8, r2
 120:..\u8g2\csrc/u8x8_d_ssd1325.c ****   uint8_t x, y, c;
 121:..\u8g2\csrc/u8x8_d_ssd1325.c ****   uint8_t *ptr;
 122:..\u8g2\csrc/u8x8_d_ssd1325.c ****   switch(msg)
 150              		.loc 1 122 0
 151 000a 0E29     		cmp	r1, #14
 152 000c 10D0     		beq	.L14
 153 000e 9946     		mov	r9, r3
 154 0010 0F29     		cmp	r1, #15
 155 0012 1CD0     		beq	.L15
 156 0014 0B29     		cmp	r1, #11
 157 0016 40F09A80 		bne	.L23
 123:..\u8g2\csrc/u8x8_d_ssd1325.c ****   {
ARM GAS  C:\Users\brian\AppData\Local\Temp\ccvz5tDg.s 			page 6


 124:..\u8g2\csrc/u8x8_d_ssd1325.c ****     /* handled by the calling function
 125:..\u8g2\csrc/u8x8_d_ssd1325.c ****     case U8X8_MSG_DISPLAY_SETUP_MEMORY:
 126:..\u8g2\csrc/u8x8_d_ssd1325.c ****       u8x8_d_helper_display_setup_memory(u8x8, &u8x8_ssd1325_128x64_nhd_display_info);
 127:..\u8g2\csrc/u8x8_d_ssd1325.c ****       break;
 128:..\u8g2\csrc/u8x8_d_ssd1325.c ****     */
 129:..\u8g2\csrc/u8x8_d_ssd1325.c ****     
 130:..\u8g2\csrc/u8x8_d_ssd1325.c ****     /* handled by the calling function
 131:..\u8g2\csrc/u8x8_d_ssd1325.c ****     case U8X8_MSG_DISPLAY_INIT:
 132:..\u8g2\csrc/u8x8_d_ssd1325.c ****       u8x8_d_helper_display_init(u8x8);
 133:..\u8g2\csrc/u8x8_d_ssd1325.c ****       u8x8_cad_SendSequence(u8x8, u8x8_d_ssd1325_128x64_nhd_init_seq);    
 134:..\u8g2\csrc/u8x8_d_ssd1325.c ****       break;
 135:..\u8g2\csrc/u8x8_d_ssd1325.c ****     */
 136:..\u8g2\csrc/u8x8_d_ssd1325.c ****     case U8X8_MSG_DISPLAY_SET_POWER_SAVE:
 137:..\u8g2\csrc/u8x8_d_ssd1325.c ****       if ( arg_int == 0 )
 158              		.loc 1 137 0
 159 001a 22B9     		cbnz	r2, .L17
 138:..\u8g2\csrc/u8x8_d_ssd1325.c **** 	u8x8_cad_SendSequence(u8x8, u8x8_d_ssd1325_128x64_nhd_powersave0_seq);
 160              		.loc 1 138 0
 161 001c 4E49     		ldr	r1, .L25
 162              	.LVL19:
 163 001e FFF7FEFF 		bl	u8x8_cad_SendSequence
 164              	.LVL20:
 139:..\u8g2\csrc/u8x8_d_ssd1325.c ****       else
 140:..\u8g2\csrc/u8x8_d_ssd1325.c **** 	u8x8_cad_SendSequence(u8x8, u8x8_d_ssd1325_128x64_nhd_powersave1_seq);
 141:..\u8g2\csrc/u8x8_d_ssd1325.c ****       break;
 142:..\u8g2\csrc/u8x8_d_ssd1325.c ****       
 143:..\u8g2\csrc/u8x8_d_ssd1325.c ****     /* handled by the calling function
 144:..\u8g2\csrc/u8x8_d_ssd1325.c ****     case U8X8_MSG_DISPLAY_SET_FLIP_MODE:
 145:..\u8g2\csrc/u8x8_d_ssd1325.c ****       if ( arg_int == 0 )
 146:..\u8g2\csrc/u8x8_d_ssd1325.c ****       {
 147:..\u8g2\csrc/u8x8_d_ssd1325.c **** 	u8x8_cad_SendSequence(u8x8, u8x8_d_ssd1325_128x64_nhd_flip0_seq);
 148:..\u8g2\csrc/u8x8_d_ssd1325.c **** 	u8x8->x_offset = u8x8->display_info->default_x_offset;
 149:..\u8g2\csrc/u8x8_d_ssd1325.c ****       }
 150:..\u8g2\csrc/u8x8_d_ssd1325.c ****       else
 151:..\u8g2\csrc/u8x8_d_ssd1325.c ****       {
 152:..\u8g2\csrc/u8x8_d_ssd1325.c **** 	u8x8_cad_SendSequence(u8x8, u8x8_d_ssd1325_128x64_nhd_flip1_seq);
 153:..\u8g2\csrc/u8x8_d_ssd1325.c **** 	u8x8->x_offset = u8x8->display_info->flipmode_x_offset;
 154:..\u8g2\csrc/u8x8_d_ssd1325.c ****       }
 155:..\u8g2\csrc/u8x8_d_ssd1325.c ****       break;
 156:..\u8g2\csrc/u8x8_d_ssd1325.c ****       */
 157:..\u8g2\csrc/u8x8_d_ssd1325.c **** #ifdef U8X8_WITH_SET_CONTRAST
 158:..\u8g2\csrc/u8x8_d_ssd1325.c ****     case U8X8_MSG_DISPLAY_SET_CONTRAST:
 159:..\u8g2\csrc/u8x8_d_ssd1325.c ****       u8x8_cad_StartTransfer(u8x8);
 160:..\u8g2\csrc/u8x8_d_ssd1325.c ****       u8x8_cad_SendCmd(u8x8, 0x081 );
 161:..\u8g2\csrc/u8x8_d_ssd1325.c ****       u8x8_cad_SendArg(u8x8, arg_int );	/* ssd1325 has range from 0 to 255 */
 162:..\u8g2\csrc/u8x8_d_ssd1325.c ****       u8x8_cad_EndTransfer(u8x8);
 163:..\u8g2\csrc/u8x8_d_ssd1325.c ****       break;
 164:..\u8g2\csrc/u8x8_d_ssd1325.c **** #endif
 165:..\u8g2\csrc/u8x8_d_ssd1325.c ****     case U8X8_MSG_DISPLAY_DRAW_TILE:
 166:..\u8g2\csrc/u8x8_d_ssd1325.c ****       u8x8_cad_StartTransfer(u8x8);
 167:..\u8g2\csrc/u8x8_d_ssd1325.c ****       x = ((u8x8_tile_t *)arg_ptr)->x_pos;    
 168:..\u8g2\csrc/u8x8_d_ssd1325.c ****       x *= 4;
 169:..\u8g2\csrc/u8x8_d_ssd1325.c ****     
 170:..\u8g2\csrc/u8x8_d_ssd1325.c ****       y = (((u8x8_tile_t *)arg_ptr)->y_pos);
 171:..\u8g2\csrc/u8x8_d_ssd1325.c ****       y *= 8;
 172:..\u8g2\csrc/u8x8_d_ssd1325.c ****       y += u8x8->x_offset;		/* x_offset is used as y offset for the SSD1325 */
 173:..\u8g2\csrc/u8x8_d_ssd1325.c ****     
ARM GAS  C:\Users\brian\AppData\Local\Temp\ccvz5tDg.s 			page 7


 174:..\u8g2\csrc/u8x8_d_ssd1325.c **** 
 175:..\u8g2\csrc/u8x8_d_ssd1325.c ****       u8x8_cad_SendCmd(u8x8, 0x075 );	/* set row address */
 176:..\u8g2\csrc/u8x8_d_ssd1325.c ****       u8x8_cad_SendArg(u8x8, y);
 177:..\u8g2\csrc/u8x8_d_ssd1325.c ****       u8x8_cad_SendArg(u8x8, y+7);
 178:..\u8g2\csrc/u8x8_d_ssd1325.c ****     
 179:..\u8g2\csrc/u8x8_d_ssd1325.c ****       do
 180:..\u8g2\csrc/u8x8_d_ssd1325.c ****       {
 181:..\u8g2\csrc/u8x8_d_ssd1325.c **** 	c = ((u8x8_tile_t *)arg_ptr)->cnt;
 182:..\u8g2\csrc/u8x8_d_ssd1325.c **** 	ptr = ((u8x8_tile_t *)arg_ptr)->tile_ptr;
 183:..\u8g2\csrc/u8x8_d_ssd1325.c **** 
 184:..\u8g2\csrc/u8x8_d_ssd1325.c **** 	do
 185:..\u8g2\csrc/u8x8_d_ssd1325.c **** 	{
 186:..\u8g2\csrc/u8x8_d_ssd1325.c **** 	  if ( ptr[0] | ptr[1] | ptr[2] | ptr[3] | ptr[4] | ptr[5] | ptr[6] | ptr[7] )
 187:..\u8g2\csrc/u8x8_d_ssd1325.c **** 	  {
 188:..\u8g2\csrc/u8x8_d_ssd1325.c **** 	    /* draw the tile if pattern is not zero for all bytes */
 189:..\u8g2\csrc/u8x8_d_ssd1325.c **** 	    u8x8_cad_SendCmd(u8x8, 0x015 );	/* set column address */
 190:..\u8g2\csrc/u8x8_d_ssd1325.c **** 	    u8x8_cad_SendArg(u8x8, x );	/* start */
 191:..\u8g2\csrc/u8x8_d_ssd1325.c **** 	    u8x8_cad_SendArg(u8x8, x+3 );	/* end */
 192:..\u8g2\csrc/u8x8_d_ssd1325.c **** 
 193:..\u8g2\csrc/u8x8_d_ssd1325.c **** 	    
 194:..\u8g2\csrc/u8x8_d_ssd1325.c **** 	    
 195:..\u8g2\csrc/u8x8_d_ssd1325.c **** 	    u8x8_cad_SendData(u8x8, 32, u8x8_ssd1325_8to32(u8x8, ptr));
 196:..\u8g2\csrc/u8x8_d_ssd1325.c **** 	  }
 197:..\u8g2\csrc/u8x8_d_ssd1325.c **** 	  else
 198:..\u8g2\csrc/u8x8_d_ssd1325.c **** 	  {
 199:..\u8g2\csrc/u8x8_d_ssd1325.c **** 	    /* tile is empty, use the graphics acceleration command */
 200:..\u8g2\csrc/u8x8_d_ssd1325.c **** 	    u8x8_cad_SendCmd(u8x8, 0x024 );	// draw rectangle
 201:..\u8g2\csrc/u8x8_d_ssd1325.c **** 	    u8x8_cad_SendArg(u8x8, x );	
 202:..\u8g2\csrc/u8x8_d_ssd1325.c **** 	    u8x8_cad_SendArg(u8x8, y );	
 203:..\u8g2\csrc/u8x8_d_ssd1325.c **** 	    u8x8_cad_SendArg(u8x8, x+3 );	
 204:..\u8g2\csrc/u8x8_d_ssd1325.c **** 	    u8x8_cad_SendArg(u8x8, y+7 );	
 205:..\u8g2\csrc/u8x8_d_ssd1325.c **** 	    u8x8_cad_SendArg(u8x8, 0 );	// clear	    
 206:..\u8g2\csrc/u8x8_d_ssd1325.c **** 	  }
 207:..\u8g2\csrc/u8x8_d_ssd1325.c **** 	  ptr += 8;
 208:..\u8g2\csrc/u8x8_d_ssd1325.c **** 	  x += 4;
 209:..\u8g2\csrc/u8x8_d_ssd1325.c **** 	  c--;
 210:..\u8g2\csrc/u8x8_d_ssd1325.c **** 	} while( c > 0 );
 211:..\u8g2\csrc/u8x8_d_ssd1325.c **** 	
 212:..\u8g2\csrc/u8x8_d_ssd1325.c **** 	//x += 4;
 213:..\u8g2\csrc/u8x8_d_ssd1325.c **** 	arg_int--;
 214:..\u8g2\csrc/u8x8_d_ssd1325.c ****       } while( arg_int > 0 );
 215:..\u8g2\csrc/u8x8_d_ssd1325.c **** 
 216:..\u8g2\csrc/u8x8_d_ssd1325.c ****       u8x8_cad_SendCmd(u8x8, 0xe3); // no-op needs to be sent after last byte before cs is toggled.
 217:..\u8g2\csrc/u8x8_d_ssd1325.c ****       
 218:..\u8g2\csrc/u8x8_d_ssd1325.c ****       u8x8_cad_EndTransfer(u8x8);
 219:..\u8g2\csrc/u8x8_d_ssd1325.c ****       break;
 220:..\u8g2\csrc/u8x8_d_ssd1325.c ****     default:
 221:..\u8g2\csrc/u8x8_d_ssd1325.c ****       return 0;
 222:..\u8g2\csrc/u8x8_d_ssd1325.c ****   }
 223:..\u8g2\csrc/u8x8_d_ssd1325.c ****   return 1;
 165              		.loc 1 223 0
 166 0022 0120     		movs	r0, #1
 167 0024 94E0     		b	.L13
 168              	.LVL21:
 169              	.L17:
 140:..\u8g2\csrc/u8x8_d_ssd1325.c ****       break;
 170              		.loc 1 140 0
ARM GAS  C:\Users\brian\AppData\Local\Temp\ccvz5tDg.s 			page 8


 171 0026 4D49     		ldr	r1, .L25+4
 172              	.LVL22:
 173 0028 FFF7FEFF 		bl	u8x8_cad_SendSequence
 174              	.LVL23:
 175              		.loc 1 223 0
 176 002c 0120     		movs	r0, #1
 177 002e 8FE0     		b	.L13
 178              	.LVL24:
 179              	.L14:
 159:..\u8g2\csrc/u8x8_d_ssd1325.c ****       u8x8_cad_SendCmd(u8x8, 0x081 );
 180              		.loc 1 159 0
 181 0030 FFF7FEFF 		bl	u8x8_cad_StartTransfer
 182              	.LVL25:
 160:..\u8g2\csrc/u8x8_d_ssd1325.c ****       u8x8_cad_SendArg(u8x8, arg_int );	/* ssd1325 has range from 0 to 255 */
 183              		.loc 1 160 0
 184 0034 8121     		movs	r1, #129
 185 0036 3046     		mov	r0, r6
 186 0038 FFF7FEFF 		bl	u8x8_cad_SendCmd
 187              	.LVL26:
 161:..\u8g2\csrc/u8x8_d_ssd1325.c ****       u8x8_cad_EndTransfer(u8x8);
 188              		.loc 1 161 0
 189 003c 4146     		mov	r1, r8
 190 003e 3046     		mov	r0, r6
 191 0040 FFF7FEFF 		bl	u8x8_cad_SendArg
 192              	.LVL27:
 162:..\u8g2\csrc/u8x8_d_ssd1325.c ****       break;
 193              		.loc 1 162 0
 194 0044 3046     		mov	r0, r6
 195 0046 FFF7FEFF 		bl	u8x8_cad_EndTransfer
 196              	.LVL28:
 197              		.loc 1 223 0
 198 004a 0120     		movs	r0, #1
 163:..\u8g2\csrc/u8x8_d_ssd1325.c **** #endif
 199              		.loc 1 163 0
 200 004c 80E0     		b	.L13
 201              	.LVL29:
 202              	.L15:
 166:..\u8g2\csrc/u8x8_d_ssd1325.c ****       x = ((u8x8_tile_t *)arg_ptr)->x_pos;    
 203              		.loc 1 166 0
 204 004e FFF7FEFF 		bl	u8x8_cad_StartTransfer
 205              	.LVL30:
 167:..\u8g2\csrc/u8x8_d_ssd1325.c ****       x *= 4;
 206              		.loc 1 167 0
 207 0052 99F80550 		ldrb	r5, [r9, #5]	@ zero_extendqisi2
 208              	.LVL31:
 168:..\u8g2\csrc/u8x8_d_ssd1325.c ****     
 209              		.loc 1 168 0
 210 0056 AD00     		lsls	r5, r5, #2
 211              	.LVL32:
 212 0058 EDB2     		uxtb	r5, r5
 213              	.LVL33:
 170:..\u8g2\csrc/u8x8_d_ssd1325.c ****       y *= 8;
 214              		.loc 1 170 0
 215 005a 99F80630 		ldrb	r3, [r9, #6]	@ zero_extendqisi2
 216              	.LVL34:
 171:..\u8g2\csrc/u8x8_d_ssd1325.c ****       y += u8x8->x_offset;		/* x_offset is used as y offset for the SSD1325 */
 217              		.loc 1 171 0
ARM GAS  C:\Users\brian\AppData\Local\Temp\ccvz5tDg.s 			page 9


 218 005e DB00     		lsls	r3, r3, #3
 219              	.LVL35:
 220 0060 DBB2     		uxtb	r3, r3
 221              	.LVL36:
 172:..\u8g2\csrc/u8x8_d_ssd1325.c ****     
 222              		.loc 1 172 0
 223 0062 96F82220 		ldrb	r2, [r6, #34]	@ zero_extendqisi2
 224 0066 1344     		add	r3, r3, r2
 225              	.LVL37:
 226 0068 DBB2     		uxtb	r3, r3
 227 006a 1C46     		mov	r4, r3
 228 006c 0093     		str	r3, [sp]
 229              	.LVL38:
 175:..\u8g2\csrc/u8x8_d_ssd1325.c ****       u8x8_cad_SendArg(u8x8, y);
 230              		.loc 1 175 0
 231 006e 7521     		movs	r1, #117
 232 0070 3046     		mov	r0, r6
 233 0072 FFF7FEFF 		bl	u8x8_cad_SendCmd
 234              	.LVL39:
 176:..\u8g2\csrc/u8x8_d_ssd1325.c ****       u8x8_cad_SendArg(u8x8, y+7);
 235              		.loc 1 176 0
 236 0076 2146     		mov	r1, r4
 237 0078 3046     		mov	r0, r6
 238 007a FFF7FEFF 		bl	u8x8_cad_SendArg
 239              	.LVL40:
 177:..\u8g2\csrc/u8x8_d_ssd1325.c ****     
 240              		.loc 1 177 0
 241 007e E31D     		adds	r3, r4, #7
 242 0080 DBB2     		uxtb	r3, r3
 243 0082 0193     		str	r3, [sp, #4]
 244 0084 1946     		mov	r1, r3
 245 0086 3046     		mov	r0, r6
 246 0088 FFF7FEFF 		bl	u8x8_cad_SendArg
 247              	.LVL41:
 248              	.L21:
 181:..\u8g2\csrc/u8x8_d_ssd1325.c **** 	ptr = ((u8x8_tile_t *)arg_ptr)->tile_ptr;
 249              		.loc 1 181 0
 250 008c 99F80470 		ldrb	r7, [r9, #4]	@ zero_extendqisi2
 251              	.LVL42:
 182:..\u8g2\csrc/u8x8_d_ssd1325.c **** 
 252              		.loc 1 182 0
 253 0090 D9F80040 		ldr	r4, [r9]
 254              	.LVL43:
 255              	.L20:
 186:..\u8g2\csrc/u8x8_d_ssd1325.c **** 	  {
 256              		.loc 1 186 0
 257 0094 2178     		ldrb	r1, [r4]	@ zero_extendqisi2
 258 0096 6078     		ldrb	r0, [r4, #1]	@ zero_extendqisi2
 259 0098 A278     		ldrb	r2, [r4, #2]	@ zero_extendqisi2
 260 009a 94F803B0 		ldrb	fp, [r4, #3]	@ zero_extendqisi2
 261 009e 2379     		ldrb	r3, [r4, #4]	@ zero_extendqisi2
 262 00a0 94F805A0 		ldrb	r10, [r4, #5]	@ zero_extendqisi2
 263 00a4 94F806C0 		ldrb	ip, [r4, #6]	@ zero_extendqisi2
 264 00a8 94F807E0 		ldrb	lr, [r4, #7]	@ zero_extendqisi2
 265 00ac 0143     		orrs	r1, r1, r0
 266 00ae 1143     		orrs	r1, r1, r2
 267 00b0 4BEA0102 		orr	r2, fp, r1
ARM GAS  C:\Users\brian\AppData\Local\Temp\ccvz5tDg.s 			page 10


 268 00b4 1A43     		orrs	r2, r2, r3
 269 00b6 4AEA0203 		orr	r3, r10, r2
 270 00ba 4CEA0303 		orr	r3, ip, r3
 271 00be 5EEA0303 		orrs	r3, lr, r3
 272 00c2 16D0     		beq	.L18
 189:..\u8g2\csrc/u8x8_d_ssd1325.c **** 	    u8x8_cad_SendArg(u8x8, x );	/* start */
 273              		.loc 1 189 0
 274 00c4 1521     		movs	r1, #21
 275 00c6 3046     		mov	r0, r6
 276 00c8 FFF7FEFF 		bl	u8x8_cad_SendCmd
 277              	.LVL44:
 190:..\u8g2\csrc/u8x8_d_ssd1325.c **** 	    u8x8_cad_SendArg(u8x8, x+3 );	/* end */
 278              		.loc 1 190 0
 279 00cc 2946     		mov	r1, r5
 280 00ce 3046     		mov	r0, r6
 281 00d0 FFF7FEFF 		bl	u8x8_cad_SendArg
 282              	.LVL45:
 191:..\u8g2\csrc/u8x8_d_ssd1325.c **** 
 283              		.loc 1 191 0
 284 00d4 E91C     		adds	r1, r5, #3
 285 00d6 C9B2     		uxtb	r1, r1
 286 00d8 3046     		mov	r0, r6
 287 00da FFF7FEFF 		bl	u8x8_cad_SendArg
 288              	.LVL46:
 195:..\u8g2\csrc/u8x8_d_ssd1325.c **** 	  }
 289              		.loc 1 195 0
 290 00de 2146     		mov	r1, r4
 291 00e0 3046     		mov	r0, r6
 292 00e2 FFF7FEFF 		bl	u8x8_ssd1325_8to32
 293              	.LVL47:
 294 00e6 0246     		mov	r2, r0
 295 00e8 2021     		movs	r1, #32
 296 00ea 3046     		mov	r0, r6
 297 00ec FFF7FEFF 		bl	u8x8_cad_SendData
 298              	.LVL48:
 299 00f0 18E0     		b	.L19
 300              	.L18:
 200:..\u8g2\csrc/u8x8_d_ssd1325.c **** 	    u8x8_cad_SendArg(u8x8, x );	
 301              		.loc 1 200 0
 302 00f2 2421     		movs	r1, #36
 303 00f4 3046     		mov	r0, r6
 304 00f6 FFF7FEFF 		bl	u8x8_cad_SendCmd
 305              	.LVL49:
 201:..\u8g2\csrc/u8x8_d_ssd1325.c **** 	    u8x8_cad_SendArg(u8x8, y );	
 306              		.loc 1 201 0
 307 00fa 2946     		mov	r1, r5
 308 00fc 3046     		mov	r0, r6
 309 00fe FFF7FEFF 		bl	u8x8_cad_SendArg
 310              	.LVL50:
 202:..\u8g2\csrc/u8x8_d_ssd1325.c **** 	    u8x8_cad_SendArg(u8x8, x+3 );	
 311              		.loc 1 202 0
 312 0102 0099     		ldr	r1, [sp]
 313 0104 3046     		mov	r0, r6
 314 0106 FFF7FEFF 		bl	u8x8_cad_SendArg
 315              	.LVL51:
 203:..\u8g2\csrc/u8x8_d_ssd1325.c **** 	    u8x8_cad_SendArg(u8x8, y+7 );	
 316              		.loc 1 203 0
ARM GAS  C:\Users\brian\AppData\Local\Temp\ccvz5tDg.s 			page 11


 317 010a E91C     		adds	r1, r5, #3
 318 010c C9B2     		uxtb	r1, r1
 319 010e 3046     		mov	r0, r6
 320 0110 FFF7FEFF 		bl	u8x8_cad_SendArg
 321              	.LVL52:
 204:..\u8g2\csrc/u8x8_d_ssd1325.c **** 	    u8x8_cad_SendArg(u8x8, 0 );	// clear	    
 322              		.loc 1 204 0
 323 0114 0199     		ldr	r1, [sp, #4]
 324 0116 3046     		mov	r0, r6
 325 0118 FFF7FEFF 		bl	u8x8_cad_SendArg
 326              	.LVL53:
 205:..\u8g2\csrc/u8x8_d_ssd1325.c **** 	  }
 327              		.loc 1 205 0
 328 011c 0021     		movs	r1, #0
 329 011e 3046     		mov	r0, r6
 330 0120 FFF7FEFF 		bl	u8x8_cad_SendArg
 331              	.LVL54:
 332              	.L19:
 207:..\u8g2\csrc/u8x8_d_ssd1325.c **** 	  x += 4;
 333              		.loc 1 207 0
 334 0124 0834     		adds	r4, r4, #8
 335              	.LVL55:
 208:..\u8g2\csrc/u8x8_d_ssd1325.c **** 	  c--;
 336              		.loc 1 208 0
 337 0126 0435     		adds	r5, r5, #4
 338              	.LVL56:
 339 0128 EDB2     		uxtb	r5, r5
 340              	.LVL57:
 209:..\u8g2\csrc/u8x8_d_ssd1325.c **** 	} while( c > 0 );
 341              		.loc 1 209 0
 342 012a 013F     		subs	r7, r7, #1
 343              	.LVL58:
 210:..\u8g2\csrc/u8x8_d_ssd1325.c **** 	
 344              		.loc 1 210 0
 345 012c 17F0FF07 		ands	r7, r7, #255
 346              	.LVL59:
 347 0130 B0D1     		bne	.L20
 213:..\u8g2\csrc/u8x8_d_ssd1325.c ****       } while( arg_int > 0 );
 348              		.loc 1 213 0
 349 0132 08F1FF38 		add	r8, r8, #-1
 350              	.LVL60:
 214:..\u8g2\csrc/u8x8_d_ssd1325.c **** 
 351              		.loc 1 214 0
 352 0136 18F0FF08 		ands	r8, r8, #255
 353              	.LVL61:
 354 013a A7D1     		bne	.L21
 216:..\u8g2\csrc/u8x8_d_ssd1325.c ****       
 355              		.loc 1 216 0
 356 013c E321     		movs	r1, #227
 357 013e 3046     		mov	r0, r6
 358 0140 FFF7FEFF 		bl	u8x8_cad_SendCmd
 359              	.LVL62:
 218:..\u8g2\csrc/u8x8_d_ssd1325.c ****       break;
 360              		.loc 1 218 0
 361 0144 3046     		mov	r0, r6
 362 0146 FFF7FEFF 		bl	u8x8_cad_EndTransfer
 363              	.LVL63:
ARM GAS  C:\Users\brian\AppData\Local\Temp\ccvz5tDg.s 			page 12


 364              		.loc 1 223 0
 365 014a 0120     		movs	r0, #1
 219:..\u8g2\csrc/u8x8_d_ssd1325.c ****     default:
 366              		.loc 1 219 0
 367 014c 00E0     		b	.L13
 368              	.LVL64:
 369              	.L23:
 221:..\u8g2\csrc/u8x8_d_ssd1325.c ****   }
 370              		.loc 1 221 0
 371 014e 0020     		movs	r0, #0
 372              	.LVL65:
 373              	.L13:
 224:..\u8g2\csrc/u8x8_d_ssd1325.c **** }
 374              		.loc 1 224 0
 375 0150 03B0     		add	sp, sp, #12
 376              		.cfi_def_cfa_offset 36
 377              		@ sp needed
 378 0152 BDE8F08F 		pop	{r4, r5, r6, r7, r8, r9, r10, fp, pc}
 379              	.LVL66:
 380              	.L26:
 381 0156 00BF     		.align	2
 382              	.L25:
 383 0158 00000000 		.word	.LANCHOR1
 384 015c 08000000 		.word	.LANCHOR1+8
 385              		.cfi_endproc
 386              	.LFE1:
 387              		.size	u8x8_d_ssd1325_128x64_generic, .-u8x8_d_ssd1325_128x64_generic
 388              		.section	.text.u8x8_d_ssd1325_nhd_128x64,"ax",%progbits
 389              		.align	2
 390              		.global	u8x8_d_ssd1325_nhd_128x64
 391              		.thumb
 392              		.thumb_func
 393              		.type	u8x8_d_ssd1325_nhd_128x64, %function
 394              	u8x8_d_ssd1325_nhd_128x64:
 395              	.LFB2:
 225:..\u8g2\csrc/u8x8_d_ssd1325.c **** 
 226:..\u8g2\csrc/u8x8_d_ssd1325.c **** /*===================================================================*/
 227:..\u8g2\csrc/u8x8_d_ssd1325.c **** 
 228:..\u8g2\csrc/u8x8_d_ssd1325.c **** /* http://www.newhavendisplay.com/app_notes/OLED_2_7_12864.txt */
 229:..\u8g2\csrc/u8x8_d_ssd1325.c **** static const uint8_t u8x8_d_ssd1325_128x64_nhd_init_seq[] = {
 230:..\u8g2\csrc/u8x8_d_ssd1325.c ****     
 231:..\u8g2\csrc/u8x8_d_ssd1325.c ****   U8X8_START_TRANSFER(),             	/* enable chip, delay is part of the transfer start */
 232:..\u8g2\csrc/u8x8_d_ssd1325.c ****   
 233:..\u8g2\csrc/u8x8_d_ssd1325.c ****   
 234:..\u8g2\csrc/u8x8_d_ssd1325.c ****   U8X8_C(0x0ae),		                /* display off */
 235:..\u8g2\csrc/u8x8_d_ssd1325.c ****   U8X8_CA(0x0b3, 0x091),		/* set display clock divide ratio/oscillator frequency (set clock as 135 
 236:..\u8g2\csrc/u8x8_d_ssd1325.c ****   U8X8_CA(0x0a8, 0x03f),		/* multiplex ratio: 0x03f * 1/64 duty */
 237:..\u8g2\csrc/u8x8_d_ssd1325.c ****   U8X8_CA(0x0a2, 0x04c),		/* display offset, shift mapping ram counter */
 238:..\u8g2\csrc/u8x8_d_ssd1325.c ****   U8X8_CA(0x0a1, 0x000),		/* display start line */
 239:..\u8g2\csrc/u8x8_d_ssd1325.c ****   U8X8_CA(0x0ad, 0x002),		/* master configuration: disable embedded DC-DC, enable internal VCOMH */
 240:..\u8g2\csrc/u8x8_d_ssd1325.c ****   U8X8_CA(0x0a0, 0x052),		/* remap configuration, horizontal address increment (bit 2 = 0), enable 
 241:..\u8g2\csrc/u8x8_d_ssd1325.c ****   U8X8_C(0x086),				/* full current range (0x084, 0x085, 0x086) */
 242:..\u8g2\csrc/u8x8_d_ssd1325.c ****   U8X8_C(0x0b8),				/* set gray scale table */
 243:..\u8g2\csrc/u8x8_d_ssd1325.c ****     U8X8_A(0x001),				/* */
 244:..\u8g2\csrc/u8x8_d_ssd1325.c ****     U8X8_A(0x011),				/* */
 245:..\u8g2\csrc/u8x8_d_ssd1325.c ****     U8X8_A(0x022),				/* */
 246:..\u8g2\csrc/u8x8_d_ssd1325.c ****     U8X8_A(0x032),				/* */
ARM GAS  C:\Users\brian\AppData\Local\Temp\ccvz5tDg.s 			page 13


 247:..\u8g2\csrc/u8x8_d_ssd1325.c ****     U8X8_A(0x043),				/* */
 248:..\u8g2\csrc/u8x8_d_ssd1325.c ****     U8X8_A(0x054),				/* */
 249:..\u8g2\csrc/u8x8_d_ssd1325.c ****     U8X8_A(0x065),				/* */
 250:..\u8g2\csrc/u8x8_d_ssd1325.c ****     U8X8_A(0x076),				/* */
 251:..\u8g2\csrc/u8x8_d_ssd1325.c ****     
 252:..\u8g2\csrc/u8x8_d_ssd1325.c ****   U8X8_CA(0x081, 0x070),		/* contrast, brightness, 0..128, Newhaven: 0x040 */
 253:..\u8g2\csrc/u8x8_d_ssd1325.c ****   U8X8_CA(0x0b2, 0x051),		/* frame frequency (row period) */
 254:..\u8g2\csrc/u8x8_d_ssd1325.c ****   U8X8_CA(0x0b1, 0x055),                    /* phase length */
 255:..\u8g2\csrc/u8x8_d_ssd1325.c ****   U8X8_CA(0x0bc, 0x010),                    /* pre-charge voltage level */
 256:..\u8g2\csrc/u8x8_d_ssd1325.c ****   U8X8_CA(0x0b4, 0x002),                    /* set pre-charge compensation level (not documented in
 257:..\u8g2\csrc/u8x8_d_ssd1325.c ****   U8X8_CA(0x0b0, 0x028),                    /* enable pre-charge compensation (not documented in th
 258:..\u8g2\csrc/u8x8_d_ssd1325.c ****   U8X8_CA(0x0be, 0x01c),                     /* VCOMH voltage */
 259:..\u8g2\csrc/u8x8_d_ssd1325.c ****   U8X8_CA(0x0bf, 0x002|0x00d),           /* VSL voltage level (not documented in the SDD1325 datash
 260:..\u8g2\csrc/u8x8_d_ssd1325.c ****   U8X8_C(0x0a4),				/* normal display mode */
 261:..\u8g2\csrc/u8x8_d_ssd1325.c ****     
 262:..\u8g2\csrc/u8x8_d_ssd1325.c ****   U8X8_CA(0x023, 0x003),		/* graphics accelleration: fill pixel */
 263:..\u8g2\csrc/u8x8_d_ssd1325.c ****     
 264:..\u8g2\csrc/u8x8_d_ssd1325.c ****   U8X8_END_TRANSFER(),             	/* disable chip */
 265:..\u8g2\csrc/u8x8_d_ssd1325.c ****   U8X8_END()             			/* end of sequence */
 266:..\u8g2\csrc/u8x8_d_ssd1325.c **** };
 267:..\u8g2\csrc/u8x8_d_ssd1325.c **** 
 268:..\u8g2\csrc/u8x8_d_ssd1325.c **** static const u8x8_display_info_t u8x8_nhd_ssd1325_128x64_display_info =
 269:..\u8g2\csrc/u8x8_d_ssd1325.c **** {
 270:..\u8g2\csrc/u8x8_d_ssd1325.c ****   /* chip_enable_level = */ 0,
 271:..\u8g2\csrc/u8x8_d_ssd1325.c ****   /* chip_disable_level = */ 1,
 272:..\u8g2\csrc/u8x8_d_ssd1325.c ****   
 273:..\u8g2\csrc/u8x8_d_ssd1325.c ****   /* post_chip_enable_wait_ns = */ 20,
 274:..\u8g2\csrc/u8x8_d_ssd1325.c ****   /* pre_chip_disable_wait_ns = */ 10,
 275:..\u8g2\csrc/u8x8_d_ssd1325.c ****   /* reset_pulse_width_ms = */ 100, 	
 276:..\u8g2\csrc/u8x8_d_ssd1325.c ****   /* post_reset_wait_ms = */ 100, 		/**/
 277:..\u8g2\csrc/u8x8_d_ssd1325.c ****   /* sda_setup_time_ns = */ 100,		/* SSD1325  */
 278:..\u8g2\csrc/u8x8_d_ssd1325.c ****   /* sck_pulse_width_ns = */ 100,	/* SSD1325  */
 279:..\u8g2\csrc/u8x8_d_ssd1325.c ****   /* sck_clock_hz = */ 4000000UL,	/* since Arduino 1.6.0, the SPI bus speed in Hz. Should be  10000
 280:..\u8g2\csrc/u8x8_d_ssd1325.c ****   /* spi_mode = */ 0,		/* active high, rising edge */
 281:..\u8g2\csrc/u8x8_d_ssd1325.c ****   /* i2c_bus_clock_100kHz = */ 4,
 282:..\u8g2\csrc/u8x8_d_ssd1325.c ****   /* data_setup_time_ns = */ 40,
 283:..\u8g2\csrc/u8x8_d_ssd1325.c ****   /* write_pulse_width_ns = */ 60,	/* SSD1325 */
 284:..\u8g2\csrc/u8x8_d_ssd1325.c ****   /* tile_width = */ 16,
 285:..\u8g2\csrc/u8x8_d_ssd1325.c ****   /* tile_hight = */ 8,
 286:..\u8g2\csrc/u8x8_d_ssd1325.c ****   /* default_x_offset = */ 0,		/* x_offset is used as y offset for the SSD1325 */
 287:..\u8g2\csrc/u8x8_d_ssd1325.c ****   /* flipmode_x_offset = */ 8,		/* x_offset is used as y offset for the SSD1325 */
 288:..\u8g2\csrc/u8x8_d_ssd1325.c ****   /* pixel_width = */ 128,
 289:..\u8g2\csrc/u8x8_d_ssd1325.c ****   /* pixel_height = */ 64
 290:..\u8g2\csrc/u8x8_d_ssd1325.c **** };
 291:..\u8g2\csrc/u8x8_d_ssd1325.c **** 
 292:..\u8g2\csrc/u8x8_d_ssd1325.c **** uint8_t u8x8_d_ssd1325_nhd_128x64(u8x8_t *u8x8, uint8_t msg, uint8_t arg_int, void *arg_ptr)
 293:..\u8g2\csrc/u8x8_d_ssd1325.c **** {
 396              		.loc 1 293 0
 397              		.cfi_startproc
 398              		@ args = 0, pretend = 0, frame = 0
 399              		@ frame_needed = 0, uses_anonymous_args = 0
 400              	.LVL67:
 401 0000 10B5     		push	{r4, lr}
 402              		.cfi_def_cfa_offset 8
 403              		.cfi_offset 4, -8
 404              		.cfi_offset 14, -4
 405 0002 0446     		mov	r4, r0
ARM GAS  C:\Users\brian\AppData\Local\Temp\ccvz5tDg.s 			page 14


 294:..\u8g2\csrc/u8x8_d_ssd1325.c ****     if ( msg == U8X8_MSG_DISPLAY_SETUP_MEMORY )
 406              		.loc 1 294 0
 407 0004 0929     		cmp	r1, #9
 408 0006 04D1     		bne	.L28
 295:..\u8g2\csrc/u8x8_d_ssd1325.c ****     {
 296:..\u8g2\csrc/u8x8_d_ssd1325.c ****       u8x8_d_helper_display_setup_memory(u8x8, &u8x8_nhd_ssd1325_128x64_display_info);
 409              		.loc 1 296 0
 410 0008 1349     		ldr	r1, .L34
 411              	.LVL68:
 412 000a FFF7FEFF 		bl	u8x8_d_helper_display_setup_memory
 413              	.LVL69:
 297:..\u8g2\csrc/u8x8_d_ssd1325.c ****       return 1;
 414              		.loc 1 297 0
 415 000e 0120     		movs	r0, #1
 416 0010 10BD     		pop	{r4, pc}
 417              	.LVL70:
 418              	.L28:
 298:..\u8g2\csrc/u8x8_d_ssd1325.c ****     }
 299:..\u8g2\csrc/u8x8_d_ssd1325.c ****     else if ( msg == U8X8_MSG_DISPLAY_INIT )
 419              		.loc 1 299 0
 420 0012 0A29     		cmp	r1, #10
 421 0014 07D1     		bne	.L30
 300:..\u8g2\csrc/u8x8_d_ssd1325.c ****     {
 301:..\u8g2\csrc/u8x8_d_ssd1325.c ****       u8x8_d_helper_display_init(u8x8);
 422              		.loc 1 301 0
 423 0016 FFF7FEFF 		bl	u8x8_d_helper_display_init
 424              	.LVL71:
 302:..\u8g2\csrc/u8x8_d_ssd1325.c ****       u8x8_cad_SendSequence(u8x8, u8x8_d_ssd1325_128x64_nhd_init_seq);    
 425              		.loc 1 302 0
 426 001a 1049     		ldr	r1, .L34+4
 427 001c 2046     		mov	r0, r4
 428 001e FFF7FEFF 		bl	u8x8_cad_SendSequence
 429              	.LVL72:
 303:..\u8g2\csrc/u8x8_d_ssd1325.c ****       return 1;
 430              		.loc 1 303 0
 431 0022 0120     		movs	r0, #1
 432 0024 10BD     		pop	{r4, pc}
 433              	.LVL73:
 434              	.L30:
 304:..\u8g2\csrc/u8x8_d_ssd1325.c ****     }    
 305:..\u8g2\csrc/u8x8_d_ssd1325.c ****     else if ( msg == U8X8_MSG_DISPLAY_SET_FLIP_MODE )
 435              		.loc 1 305 0
 436 0026 0D29     		cmp	r1, #13
 437 0028 12D1     		bne	.L31
 306:..\u8g2\csrc/u8x8_d_ssd1325.c ****     {
 307:..\u8g2\csrc/u8x8_d_ssd1325.c ****       if ( arg_int == 0 )
 438              		.loc 1 307 0
 439 002a 42B9     		cbnz	r2, .L32
 308:..\u8g2\csrc/u8x8_d_ssd1325.c ****       {
 309:..\u8g2\csrc/u8x8_d_ssd1325.c **** 	u8x8_cad_SendSequence(u8x8, u8x8_d_ssd1325_128x64_nhd_flip0_seq);
 440              		.loc 1 309 0
 441 002c 0C49     		ldr	r1, .L34+8
 442              	.LVL74:
 443 002e FFF7FEFF 		bl	u8x8_cad_SendSequence
 444              	.LVL75:
 310:..\u8g2\csrc/u8x8_d_ssd1325.c **** 	u8x8->x_offset = u8x8->display_info->default_x_offset;
 445              		.loc 1 310 0
ARM GAS  C:\Users\brian\AppData\Local\Temp\ccvz5tDg.s 			page 15


 446 0032 2368     		ldr	r3, [r4]
 447 0034 9B7C     		ldrb	r3, [r3, #18]	@ zero_extendqisi2
 448 0036 84F82230 		strb	r3, [r4, #34]
 311:..\u8g2\csrc/u8x8_d_ssd1325.c ****       }
 312:..\u8g2\csrc/u8x8_d_ssd1325.c ****       else
 313:..\u8g2\csrc/u8x8_d_ssd1325.c ****       {
 314:..\u8g2\csrc/u8x8_d_ssd1325.c **** 	u8x8_cad_SendSequence(u8x8, u8x8_d_ssd1325_128x64_nhd_flip1_seq);
 315:..\u8g2\csrc/u8x8_d_ssd1325.c **** 	u8x8->x_offset = u8x8->display_info->flipmode_x_offset;
 316:..\u8g2\csrc/u8x8_d_ssd1325.c ****       }
 317:..\u8g2\csrc/u8x8_d_ssd1325.c ****       return 1;
 449              		.loc 1 317 0
 450 003a 0120     		movs	r0, #1
 451 003c 10BD     		pop	{r4, pc}
 452              	.LVL76:
 453              	.L32:
 314:..\u8g2\csrc/u8x8_d_ssd1325.c **** 	u8x8->x_offset = u8x8->display_info->flipmode_x_offset;
 454              		.loc 1 314 0
 455 003e 0949     		ldr	r1, .L34+12
 456              	.LVL77:
 457 0040 FFF7FEFF 		bl	u8x8_cad_SendSequence
 458              	.LVL78:
 315:..\u8g2\csrc/u8x8_d_ssd1325.c ****       }
 459              		.loc 1 315 0
 460 0044 2368     		ldr	r3, [r4]
 461 0046 DB7C     		ldrb	r3, [r3, #19]	@ zero_extendqisi2
 462 0048 84F82230 		strb	r3, [r4, #34]
 463              		.loc 1 317 0
 464 004c 0120     		movs	r0, #1
 465 004e 10BD     		pop	{r4, pc}
 466              	.LVL79:
 467              	.L31:
 318:..\u8g2\csrc/u8x8_d_ssd1325.c ****     }
 319:..\u8g2\csrc/u8x8_d_ssd1325.c ****     return u8x8_d_ssd1325_128x64_generic(u8x8, msg, arg_int, arg_ptr);
 468              		.loc 1 319 0
 469 0050 FFF7FEFF 		bl	u8x8_d_ssd1325_128x64_generic
 470              	.LVL80:
 320:..\u8g2\csrc/u8x8_d_ssd1325.c **** }
 471              		.loc 1 320 0
 472 0054 10BD     		pop	{r4, pc}
 473              	.LVL81:
 474              	.L35:
 475 0056 00BF     		.align	2
 476              	.L34:
 477 0058 10000000 		.word	.LANCHOR1+16
 478 005c 28000000 		.word	.LANCHOR1+40
 479 0060 80000000 		.word	.LANCHOR1+128
 480 0064 88000000 		.word	.LANCHOR1+136
 481              		.cfi_endproc
 482              	.LFE2:
 483              		.size	u8x8_d_ssd1325_nhd_128x64, .-u8x8_d_ssd1325_nhd_128x64
 484              		.section	.text.u8x8_d_ssd0323_os128064,"ax",%progbits
 485              		.align	2
 486              		.global	u8x8_d_ssd0323_os128064
 487              		.thumb
 488              		.thumb_func
 489              		.type	u8x8_d_ssd0323_os128064, %function
 490              	u8x8_d_ssd0323_os128064:
ARM GAS  C:\Users\brian\AppData\Local\Temp\ccvz5tDg.s 			page 16


 491              	.LFB3:
 321:..\u8g2\csrc/u8x8_d_ssd1325.c **** 
 322:..\u8g2\csrc/u8x8_d_ssd1325.c **** /*===================================================================*/
 323:..\u8g2\csrc/u8x8_d_ssd1325.c **** /* OSRAM Pictiva 128x64 OLED */
 324:..\u8g2\csrc/u8x8_d_ssd1325.c **** /* https://github.com/olikraus/u8g2/issues/720 */
 325:..\u8g2\csrc/u8x8_d_ssd1325.c **** 
 326:..\u8g2\csrc/u8x8_d_ssd1325.c **** static const uint8_t u8x8_d_ssd0323_os128064_init_seq[] = {
 327:..\u8g2\csrc/u8x8_d_ssd1325.c **** 
 328:..\u8g2\csrc/u8x8_d_ssd1325.c ****   U8X8_START_TRANSFER(),                     /* enable chip, delay is part of the transfer start */
 329:..\u8g2\csrc/u8x8_d_ssd1325.c ****   U8X8_C(0x0ae),                                /* display off */
 330:..\u8g2\csrc/u8x8_d_ssd1325.c ****   U8X8_CA(0x0b3, 0x091),                /* set display clock divide ratio/oscillator frequency (set
 331:..\u8g2\csrc/u8x8_d_ssd1325.c ****   U8X8_CA(0x0a8, 0x03f),                /* multiplex ratio: 0x03f * 1/64 duty */
 332:..\u8g2\csrc/u8x8_d_ssd1325.c ****   U8X8_CA(0x0a2, 0x040),                /* display offset, shift mapping ram counter */
 333:..\u8g2\csrc/u8x8_d_ssd1325.c ****   U8X8_CA(0x0a1, 0x000),                /* display start line */
 334:..\u8g2\csrc/u8x8_d_ssd1325.c ****   U8X8_CA(0x0ad, 0x002),                /* master configuration: disable embedded DC-DC, enable int
 335:..\u8g2\csrc/u8x8_d_ssd1325.c ****   U8X8_CA(0x0a0, 0x052),                /* remap configuration, horizontal address increment (bit 2
 336:..\u8g2\csrc/u8x8_d_ssd1325.c ****   U8X8_C(0x086),                                /* full current range (0x084, 0x085, 0x086) */
 337:..\u8g2\csrc/u8x8_d_ssd1325.c ****   U8X8_C(0x0b8),                                /* set gray scale table */
 338:..\u8g2\csrc/u8x8_d_ssd1325.c ****     U8X8_A(0x001),                                /* */
 339:..\u8g2\csrc/u8x8_d_ssd1325.c ****     U8X8_A(0x011),                                /* */
 340:..\u8g2\csrc/u8x8_d_ssd1325.c ****     U8X8_A(0x022),                                /* */
 341:..\u8g2\csrc/u8x8_d_ssd1325.c ****     U8X8_A(0x032),                                /* */
 342:..\u8g2\csrc/u8x8_d_ssd1325.c ****     U8X8_A(0x043),                                /* */
 343:..\u8g2\csrc/u8x8_d_ssd1325.c ****     U8X8_A(0x054),                                /* */
 344:..\u8g2\csrc/u8x8_d_ssd1325.c ****     U8X8_A(0x065),                                /* */
 345:..\u8g2\csrc/u8x8_d_ssd1325.c ****     U8X8_A(0x076),                                /* */
 346:..\u8g2\csrc/u8x8_d_ssd1325.c **** 
 347:..\u8g2\csrc/u8x8_d_ssd1325.c ****   U8X8_CA(0x081, 0x070),                /* contrast, brightness, 0..128, Newhaven: 0x040 */
 348:..\u8g2\csrc/u8x8_d_ssd1325.c ****   U8X8_CA(0x0b2, 0x051),                /* frame frequency (row period) */
 349:..\u8g2\csrc/u8x8_d_ssd1325.c ****   U8X8_CA(0x0b1, 0x055),                    /* phase length */
 350:..\u8g2\csrc/u8x8_d_ssd1325.c ****   U8X8_CA(0x0bc, 0x010),                    /* pre-charge voltage level */
 351:..\u8g2\csrc/u8x8_d_ssd1325.c ****   U8X8_CA(0x0b4, 0x002),                    /* set pre-charge compensation level (not documented in
 352:..\u8g2\csrc/u8x8_d_ssd1325.c ****   U8X8_CA(0x0b0, 0x028),                    /* enable pre-charge compensation (not documented in th
 353:..\u8g2\csrc/u8x8_d_ssd1325.c ****   U8X8_CA(0x0be, 0x01c),                     /* VCOMH voltage */
 354:..\u8g2\csrc/u8x8_d_ssd1325.c ****   U8X8_CA(0x0bf, 0x002|0x00d),           /* VSL voltage level (not documented in the SDD1325 datash
 355:..\u8g2\csrc/u8x8_d_ssd1325.c ****   U8X8_C(0x0a4),                                /* normal display mode */
 356:..\u8g2\csrc/u8x8_d_ssd1325.c **** 
 357:..\u8g2\csrc/u8x8_d_ssd1325.c ****   U8X8_CA(0x023, 0x003),                /* graphics accelleration: fill pixel */
 358:..\u8g2\csrc/u8x8_d_ssd1325.c **** 
 359:..\u8g2\csrc/u8x8_d_ssd1325.c ****   U8X8_END_TRANSFER(),                     /* disable chip */
 360:..\u8g2\csrc/u8x8_d_ssd1325.c ****   U8X8_END()                                     /* end of sequence */
 361:..\u8g2\csrc/u8x8_d_ssd1325.c **** };
 362:..\u8g2\csrc/u8x8_d_ssd1325.c **** 
 363:..\u8g2\csrc/u8x8_d_ssd1325.c **** static const uint8_t u8x8_d_ssd0323_os128064_flip0_seq[] = {
 364:..\u8g2\csrc/u8x8_d_ssd1325.c ****   U8X8_START_TRANSFER(),                     /* enable chip, delay is part of the transfer start */
 365:..\u8g2\csrc/u8x8_d_ssd1325.c ****   U8X8_CA(0x0a0, 0x052),                /* remap */
 366:..\u8g2\csrc/u8x8_d_ssd1325.c ****   U8X8_CA(0x0a2, 0x040),                /* display offset, shift mapping ram counter */
 367:..\u8g2\csrc/u8x8_d_ssd1325.c ****   U8X8_END_TRANSFER(),                     /* disable chip */
 368:..\u8g2\csrc/u8x8_d_ssd1325.c ****   U8X8_END()                                     /* end of sequence */
 369:..\u8g2\csrc/u8x8_d_ssd1325.c **** };
 370:..\u8g2\csrc/u8x8_d_ssd1325.c **** 
 371:..\u8g2\csrc/u8x8_d_ssd1325.c **** static const uint8_t u8x8_d_ssd0323_os128064_flip1_seq[] = {
 372:..\u8g2\csrc/u8x8_d_ssd1325.c ****   U8X8_START_TRANSFER(),                     /* enable chip, delay is part of the transfer start */
 373:..\u8g2\csrc/u8x8_d_ssd1325.c ****   U8X8_CA(0x0a0, 0x041),                /* remap */
 374:..\u8g2\csrc/u8x8_d_ssd1325.c ****   U8X8_CA(0x0a2, 0x050),                /* display offset, shift mapping ram counter */
 375:..\u8g2\csrc/u8x8_d_ssd1325.c ****   U8X8_END_TRANSFER(),                     /* disable chip */
 376:..\u8g2\csrc/u8x8_d_ssd1325.c ****   U8X8_END()                                     /* end of sequence */
ARM GAS  C:\Users\brian\AppData\Local\Temp\ccvz5tDg.s 			page 17


 377:..\u8g2\csrc/u8x8_d_ssd1325.c **** };
 378:..\u8g2\csrc/u8x8_d_ssd1325.c **** 
 379:..\u8g2\csrc/u8x8_d_ssd1325.c **** 
 380:..\u8g2\csrc/u8x8_d_ssd1325.c **** static const u8x8_display_info_t u8x8_ssd0323_os128064_display_info =
 381:..\u8g2\csrc/u8x8_d_ssd1325.c **** {
 382:..\u8g2\csrc/u8x8_d_ssd1325.c ****   /* chip_enable_level = */ 0,
 383:..\u8g2\csrc/u8x8_d_ssd1325.c ****   /* chip_disable_level = */ 1,
 384:..\u8g2\csrc/u8x8_d_ssd1325.c ****   
 385:..\u8g2\csrc/u8x8_d_ssd1325.c ****   /* post_chip_enable_wait_ns = */ 20,
 386:..\u8g2\csrc/u8x8_d_ssd1325.c ****   /* pre_chip_disable_wait_ns = */ 10,
 387:..\u8g2\csrc/u8x8_d_ssd1325.c ****   /* reset_pulse_width_ms = */ 100, 	
 388:..\u8g2\csrc/u8x8_d_ssd1325.c ****   /* post_reset_wait_ms = */ 100, 		/**/
 389:..\u8g2\csrc/u8x8_d_ssd1325.c ****   /* sda_setup_time_ns = */ 100,		/* SSD1325  */
 390:..\u8g2\csrc/u8x8_d_ssd1325.c ****   /* sck_pulse_width_ns = */ 100,	/* SSD1325  */
 391:..\u8g2\csrc/u8x8_d_ssd1325.c ****   /* sck_clock_hz = */ 4000000UL,	/* since Arduino 1.6.0, the SPI bus speed in Hz. Should be  10000
 392:..\u8g2\csrc/u8x8_d_ssd1325.c ****   /* spi_mode = */ 0,		/* active high, rising edge */
 393:..\u8g2\csrc/u8x8_d_ssd1325.c ****   /* i2c_bus_clock_100kHz = */ 4,
 394:..\u8g2\csrc/u8x8_d_ssd1325.c ****   /* data_setup_time_ns = */ 40,
 395:..\u8g2\csrc/u8x8_d_ssd1325.c ****   /* write_pulse_width_ns = */ 60,	/* SSD1325 */
 396:..\u8g2\csrc/u8x8_d_ssd1325.c ****   /* tile_width = */ 16,
 397:..\u8g2\csrc/u8x8_d_ssd1325.c ****   /* tile_hight = */ 8,
 398:..\u8g2\csrc/u8x8_d_ssd1325.c ****   /* default_x_offset = */ 0,		/* x_offset is used as y offset for the SSD1325 */
 399:..\u8g2\csrc/u8x8_d_ssd1325.c ****   /* flipmode_x_offset = */ 0,		/* x_offset is used as y offset for the SSD1325 */
 400:..\u8g2\csrc/u8x8_d_ssd1325.c ****   /* pixel_width = */ 128,
 401:..\u8g2\csrc/u8x8_d_ssd1325.c ****   /* pixel_height = */ 64
 402:..\u8g2\csrc/u8x8_d_ssd1325.c **** };
 403:..\u8g2\csrc/u8x8_d_ssd1325.c **** 
 404:..\u8g2\csrc/u8x8_d_ssd1325.c **** uint8_t u8x8_d_ssd0323_os128064(u8x8_t *u8x8, uint8_t msg, uint8_t arg_int, void *arg_ptr)
 405:..\u8g2\csrc/u8x8_d_ssd1325.c **** {
 492              		.loc 1 405 0
 493              		.cfi_startproc
 494              		@ args = 0, pretend = 0, frame = 0
 495              		@ frame_needed = 0, uses_anonymous_args = 0
 496              	.LVL82:
 497 0000 10B5     		push	{r4, lr}
 498              		.cfi_def_cfa_offset 8
 499              		.cfi_offset 4, -8
 500              		.cfi_offset 14, -4
 501 0002 0446     		mov	r4, r0
 406:..\u8g2\csrc/u8x8_d_ssd1325.c ****     if ( msg == U8X8_MSG_DISPLAY_SETUP_MEMORY )
 502              		.loc 1 406 0
 503 0004 0929     		cmp	r1, #9
 504 0006 04D1     		bne	.L37
 407:..\u8g2\csrc/u8x8_d_ssd1325.c ****     {
 408:..\u8g2\csrc/u8x8_d_ssd1325.c ****       u8x8_d_helper_display_setup_memory(u8x8, &u8x8_ssd0323_os128064_display_info);
 505              		.loc 1 408 0
 506 0008 1349     		ldr	r1, .L43
 507              	.LVL83:
 508 000a FFF7FEFF 		bl	u8x8_d_helper_display_setup_memory
 509              	.LVL84:
 409:..\u8g2\csrc/u8x8_d_ssd1325.c ****       return 1;
 510              		.loc 1 409 0
 511 000e 0120     		movs	r0, #1
 512 0010 10BD     		pop	{r4, pc}
 513              	.LVL85:
 514              	.L37:
 410:..\u8g2\csrc/u8x8_d_ssd1325.c ****     }
ARM GAS  C:\Users\brian\AppData\Local\Temp\ccvz5tDg.s 			page 18


 411:..\u8g2\csrc/u8x8_d_ssd1325.c ****     else if ( msg == U8X8_MSG_DISPLAY_INIT )
 515              		.loc 1 411 0
 516 0012 0A29     		cmp	r1, #10
 517 0014 07D1     		bne	.L39
 412:..\u8g2\csrc/u8x8_d_ssd1325.c ****     {
 413:..\u8g2\csrc/u8x8_d_ssd1325.c ****       u8x8_d_helper_display_init(u8x8);
 518              		.loc 1 413 0
 519 0016 FFF7FEFF 		bl	u8x8_d_helper_display_init
 520              	.LVL86:
 414:..\u8g2\csrc/u8x8_d_ssd1325.c ****       u8x8_cad_SendSequence(u8x8, u8x8_d_ssd0323_os128064_init_seq);
 521              		.loc 1 414 0
 522 001a 1049     		ldr	r1, .L43+4
 523 001c 2046     		mov	r0, r4
 524 001e FFF7FEFF 		bl	u8x8_cad_SendSequence
 525              	.LVL87:
 415:..\u8g2\csrc/u8x8_d_ssd1325.c ****       return 1;
 526              		.loc 1 415 0
 527 0022 0120     		movs	r0, #1
 528 0024 10BD     		pop	{r4, pc}
 529              	.LVL88:
 530              	.L39:
 416:..\u8g2\csrc/u8x8_d_ssd1325.c ****     }    
 417:..\u8g2\csrc/u8x8_d_ssd1325.c ****     else if ( msg == U8X8_MSG_DISPLAY_SET_FLIP_MODE )
 531              		.loc 1 417 0
 532 0026 0D29     		cmp	r1, #13
 533 0028 12D1     		bne	.L40
 418:..\u8g2\csrc/u8x8_d_ssd1325.c ****     {
 419:..\u8g2\csrc/u8x8_d_ssd1325.c ****       if ( arg_int == 0 )
 534              		.loc 1 419 0
 535 002a 42B9     		cbnz	r2, .L41
 420:..\u8g2\csrc/u8x8_d_ssd1325.c ****       {
 421:..\u8g2\csrc/u8x8_d_ssd1325.c **** 	u8x8_cad_SendSequence(u8x8, u8x8_d_ssd0323_os128064_flip0_seq);
 536              		.loc 1 421 0
 537 002c 0C49     		ldr	r1, .L43+8
 538              	.LVL89:
 539 002e FFF7FEFF 		bl	u8x8_cad_SendSequence
 540              	.LVL90:
 422:..\u8g2\csrc/u8x8_d_ssd1325.c **** 	u8x8->x_offset = u8x8->display_info->default_x_offset;
 541              		.loc 1 422 0
 542 0032 2368     		ldr	r3, [r4]
 543 0034 9B7C     		ldrb	r3, [r3, #18]	@ zero_extendqisi2
 544 0036 84F82230 		strb	r3, [r4, #34]
 423:..\u8g2\csrc/u8x8_d_ssd1325.c ****       }
 424:..\u8g2\csrc/u8x8_d_ssd1325.c ****       else
 425:..\u8g2\csrc/u8x8_d_ssd1325.c ****       {
 426:..\u8g2\csrc/u8x8_d_ssd1325.c **** 	u8x8_cad_SendSequence(u8x8, u8x8_d_ssd0323_os128064_flip1_seq);
 427:..\u8g2\csrc/u8x8_d_ssd1325.c **** 	u8x8->x_offset = u8x8->display_info->flipmode_x_offset;
 428:..\u8g2\csrc/u8x8_d_ssd1325.c ****       }
 429:..\u8g2\csrc/u8x8_d_ssd1325.c ****       return 1;
 545              		.loc 1 429 0
 546 003a 0120     		movs	r0, #1
 547 003c 10BD     		pop	{r4, pc}
 548              	.LVL91:
 549              	.L41:
 426:..\u8g2\csrc/u8x8_d_ssd1325.c **** 	u8x8->x_offset = u8x8->display_info->flipmode_x_offset;
 550              		.loc 1 426 0
 551 003e 0949     		ldr	r1, .L43+12
ARM GAS  C:\Users\brian\AppData\Local\Temp\ccvz5tDg.s 			page 19


 552              	.LVL92:
 553 0040 FFF7FEFF 		bl	u8x8_cad_SendSequence
 554              	.LVL93:
 427:..\u8g2\csrc/u8x8_d_ssd1325.c ****       }
 555              		.loc 1 427 0
 556 0044 2368     		ldr	r3, [r4]
 557 0046 DB7C     		ldrb	r3, [r3, #19]	@ zero_extendqisi2
 558 0048 84F82230 		strb	r3, [r4, #34]
 559              		.loc 1 429 0
 560 004c 0120     		movs	r0, #1
 561 004e 10BD     		pop	{r4, pc}
 562              	.LVL94:
 563              	.L40:
 430:..\u8g2\csrc/u8x8_d_ssd1325.c ****     }
 431:..\u8g2\csrc/u8x8_d_ssd1325.c ****     return u8x8_d_ssd1325_128x64_generic(u8x8, msg, arg_int, arg_ptr);
 564              		.loc 1 431 0
 565 0050 FFF7FEFF 		bl	u8x8_d_ssd1325_128x64_generic
 566              	.LVL95:
 432:..\u8g2\csrc/u8x8_d_ssd1325.c **** }
 567              		.loc 1 432 0
 568 0054 10BD     		pop	{r4, pc}
 569              	.LVL96:
 570              	.L44:
 571 0056 00BF     		.align	2
 572              	.L43:
 573 0058 90000000 		.word	.LANCHOR1+144
 574 005c A8000000 		.word	.LANCHOR1+168
 575 0060 00010000 		.word	.LANCHOR1+256
 576 0064 0C010000 		.word	.LANCHOR1+268
 577              		.cfi_endproc
 578              	.LFE3:
 579              		.size	u8x8_d_ssd0323_os128064, .-u8x8_d_ssd0323_os128064
 580              		.section	.rodata
 581              		.align	2
 582              		.set	.LANCHOR1,. + 0
 583              		.type	u8x8_d_ssd1325_128x64_nhd_powersave0_seq, %object
 584              		.size	u8x8_d_ssd1325_128x64_nhd_powersave0_seq, 5
 585              	u8x8_d_ssd1325_128x64_nhd_powersave0_seq:
 586 0000 18       		.byte	24
 587 0001 15       		.byte	21
 588 0002 AF       		.byte	-81
 589 0003 19       		.byte	25
 590 0004 FF       		.byte	-1
 591 0005 000000   		.space	3
 592              		.type	u8x8_d_ssd1325_128x64_nhd_powersave1_seq, %object
 593              		.size	u8x8_d_ssd1325_128x64_nhd_powersave1_seq, 5
 594              	u8x8_d_ssd1325_128x64_nhd_powersave1_seq:
 595 0008 18       		.byte	24
 596 0009 15       		.byte	21
 597 000a AE       		.byte	-82
 598 000b 19       		.byte	25
 599 000c FF       		.byte	-1
 600 000d 000000   		.space	3
 601              		.type	u8x8_nhd_ssd1325_128x64_display_info, %object
 602              		.size	u8x8_nhd_ssd1325_128x64_display_info, 24
 603              	u8x8_nhd_ssd1325_128x64_display_info:
 604 0010 00       		.byte	0
ARM GAS  C:\Users\brian\AppData\Local\Temp\ccvz5tDg.s 			page 20


 605 0011 01       		.byte	1
 606 0012 14       		.byte	20
 607 0013 0A       		.byte	10
 608 0014 64       		.byte	100
 609 0015 64       		.byte	100
 610 0016 64       		.byte	100
 611 0017 64       		.byte	100
 612 0018 00093D00 		.word	4000000
 613 001c 00       		.byte	0
 614 001d 04       		.byte	4
 615 001e 28       		.byte	40
 616 001f 3C       		.byte	60
 617 0020 10       		.byte	16
 618 0021 08       		.byte	8
 619 0022 00       		.byte	0
 620 0023 08       		.byte	8
 621 0024 8000     		.short	128
 622 0026 4000     		.short	64
 623              		.type	u8x8_d_ssd1325_128x64_nhd_init_seq, %object
 624              		.size	u8x8_d_ssd1325_128x64_nhd_init_seq, 87
 625              	u8x8_d_ssd1325_128x64_nhd_init_seq:
 626 0028 18       		.byte	24
 627 0029 15       		.byte	21
 628 002a AE       		.byte	-82
 629 002b 15       		.byte	21
 630 002c B3       		.byte	-77
 631 002d 16       		.byte	22
 632 002e 91       		.byte	-111
 633 002f 15       		.byte	21
 634 0030 A8       		.byte	-88
 635 0031 16       		.byte	22
 636 0032 3F       		.byte	63
 637 0033 15       		.byte	21
 638 0034 A2       		.byte	-94
 639 0035 16       		.byte	22
 640 0036 4C       		.byte	76
 641 0037 15       		.byte	21
 642 0038 A1       		.byte	-95
 643 0039 16       		.byte	22
 644 003a 00       		.byte	0
 645 003b 15       		.byte	21
 646 003c AD       		.byte	-83
 647 003d 16       		.byte	22
 648 003e 02       		.byte	2
 649 003f 15       		.byte	21
 650 0040 A0       		.byte	-96
 651 0041 16       		.byte	22
 652 0042 52       		.byte	82
 653 0043 15       		.byte	21
 654 0044 86       		.byte	-122
 655 0045 15       		.byte	21
 656 0046 B8       		.byte	-72
 657 0047 16       		.byte	22
 658 0048 01       		.byte	1
 659 0049 16       		.byte	22
 660 004a 11       		.byte	17
 661 004b 16       		.byte	22
ARM GAS  C:\Users\brian\AppData\Local\Temp\ccvz5tDg.s 			page 21


 662 004c 22       		.byte	34
 663 004d 16       		.byte	22
 664 004e 32       		.byte	50
 665 004f 16       		.byte	22
 666 0050 43       		.byte	67
 667 0051 16       		.byte	22
 668 0052 54       		.byte	84
 669 0053 16       		.byte	22
 670 0054 65       		.byte	101
 671 0055 16       		.byte	22
 672 0056 76       		.byte	118
 673 0057 15       		.byte	21
 674 0058 81       		.byte	-127
 675 0059 16       		.byte	22
 676 005a 70       		.byte	112
 677 005b 15       		.byte	21
 678 005c B2       		.byte	-78
 679 005d 16       		.byte	22
 680 005e 51       		.byte	81
 681 005f 15       		.byte	21
 682 0060 B1       		.byte	-79
 683 0061 16       		.byte	22
 684 0062 55       		.byte	85
 685 0063 15       		.byte	21
 686 0064 BC       		.byte	-68
 687 0065 16       		.byte	22
 688 0066 10       		.byte	16
 689 0067 15       		.byte	21
 690 0068 B4       		.byte	-76
 691 0069 16       		.byte	22
 692 006a 02       		.byte	2
 693 006b 15       		.byte	21
 694 006c B0       		.byte	-80
 695 006d 16       		.byte	22
 696 006e 28       		.byte	40
 697 006f 15       		.byte	21
 698 0070 BE       		.byte	-66
 699 0071 16       		.byte	22
 700 0072 1C       		.byte	28
 701 0073 15       		.byte	21
 702 0074 BF       		.byte	-65
 703 0075 16       		.byte	22
 704 0076 0F       		.byte	15
 705 0077 15       		.byte	21
 706 0078 A4       		.byte	-92
 707 0079 15       		.byte	21
 708 007a 23       		.byte	35
 709 007b 16       		.byte	22
 710 007c 03       		.byte	3
 711 007d 19       		.byte	25
 712 007e FF       		.byte	-1
 713 007f 00       		.space	1
 714              		.type	u8x8_d_ssd1325_128x64_nhd_flip0_seq, %object
 715              		.size	u8x8_d_ssd1325_128x64_nhd_flip0_seq, 7
 716              	u8x8_d_ssd1325_128x64_nhd_flip0_seq:
 717 0080 18       		.byte	24
 718 0081 15       		.byte	21
ARM GAS  C:\Users\brian\AppData\Local\Temp\ccvz5tDg.s 			page 22


 719 0082 A0       		.byte	-96
 720 0083 16       		.byte	22
 721 0084 52       		.byte	82
 722 0085 19       		.byte	25
 723 0086 FF       		.byte	-1
 724 0087 00       		.space	1
 725              		.type	u8x8_d_ssd1325_128x64_nhd_flip1_seq, %object
 726              		.size	u8x8_d_ssd1325_128x64_nhd_flip1_seq, 7
 727              	u8x8_d_ssd1325_128x64_nhd_flip1_seq:
 728 0088 18       		.byte	24
 729 0089 15       		.byte	21
 730 008a A0       		.byte	-96
 731 008b 16       		.byte	22
 732 008c 41       		.byte	65
 733 008d 19       		.byte	25
 734 008e FF       		.byte	-1
 735 008f 00       		.space	1
 736              		.type	u8x8_ssd0323_os128064_display_info, %object
 737              		.size	u8x8_ssd0323_os128064_display_info, 24
 738              	u8x8_ssd0323_os128064_display_info:
 739 0090 00       		.byte	0
 740 0091 01       		.byte	1
 741 0092 14       		.byte	20
 742 0093 0A       		.byte	10
 743 0094 64       		.byte	100
 744 0095 64       		.byte	100
 745 0096 64       		.byte	100
 746 0097 64       		.byte	100
 747 0098 00093D00 		.word	4000000
 748 009c 00       		.byte	0
 749 009d 04       		.byte	4
 750 009e 28       		.byte	40
 751 009f 3C       		.byte	60
 752 00a0 10       		.byte	16
 753 00a1 08       		.byte	8
 754 00a2 00       		.byte	0
 755 00a3 00       		.byte	0
 756 00a4 8000     		.short	128
 757 00a6 4000     		.short	64
 758              		.type	u8x8_d_ssd0323_os128064_init_seq, %object
 759              		.size	u8x8_d_ssd0323_os128064_init_seq, 87
 760              	u8x8_d_ssd0323_os128064_init_seq:
 761 00a8 18       		.byte	24
 762 00a9 15       		.byte	21
 763 00aa AE       		.byte	-82
 764 00ab 15       		.byte	21
 765 00ac B3       		.byte	-77
 766 00ad 16       		.byte	22
 767 00ae 91       		.byte	-111
 768 00af 15       		.byte	21
 769 00b0 A8       		.byte	-88
 770 00b1 16       		.byte	22
 771 00b2 3F       		.byte	63
 772 00b3 15       		.byte	21
 773 00b4 A2       		.byte	-94
 774 00b5 16       		.byte	22
 775 00b6 40       		.byte	64
ARM GAS  C:\Users\brian\AppData\Local\Temp\ccvz5tDg.s 			page 23


 776 00b7 15       		.byte	21
 777 00b8 A1       		.byte	-95
 778 00b9 16       		.byte	22
 779 00ba 00       		.byte	0
 780 00bb 15       		.byte	21
 781 00bc AD       		.byte	-83
 782 00bd 16       		.byte	22
 783 00be 02       		.byte	2
 784 00bf 15       		.byte	21
 785 00c0 A0       		.byte	-96
 786 00c1 16       		.byte	22
 787 00c2 52       		.byte	82
 788 00c3 15       		.byte	21
 789 00c4 86       		.byte	-122
 790 00c5 15       		.byte	21
 791 00c6 B8       		.byte	-72
 792 00c7 16       		.byte	22
 793 00c8 01       		.byte	1
 794 00c9 16       		.byte	22
 795 00ca 11       		.byte	17
 796 00cb 16       		.byte	22
 797 00cc 22       		.byte	34
 798 00cd 16       		.byte	22
 799 00ce 32       		.byte	50
 800 00cf 16       		.byte	22
 801 00d0 43       		.byte	67
 802 00d1 16       		.byte	22
 803 00d2 54       		.byte	84
 804 00d3 16       		.byte	22
 805 00d4 65       		.byte	101
 806 00d5 16       		.byte	22
 807 00d6 76       		.byte	118
 808 00d7 15       		.byte	21
 809 00d8 81       		.byte	-127
 810 00d9 16       		.byte	22
 811 00da 70       		.byte	112
 812 00db 15       		.byte	21
 813 00dc B2       		.byte	-78
 814 00dd 16       		.byte	22
 815 00de 51       		.byte	81
 816 00df 15       		.byte	21
 817 00e0 B1       		.byte	-79
 818 00e1 16       		.byte	22
 819 00e2 55       		.byte	85
 820 00e3 15       		.byte	21
 821 00e4 BC       		.byte	-68
 822 00e5 16       		.byte	22
 823 00e6 10       		.byte	16
 824 00e7 15       		.byte	21
 825 00e8 B4       		.byte	-76
 826 00e9 16       		.byte	22
 827 00ea 02       		.byte	2
 828 00eb 15       		.byte	21
 829 00ec B0       		.byte	-80
 830 00ed 16       		.byte	22
 831 00ee 28       		.byte	40
 832 00ef 15       		.byte	21
ARM GAS  C:\Users\brian\AppData\Local\Temp\ccvz5tDg.s 			page 24


 833 00f0 BE       		.byte	-66
 834 00f1 16       		.byte	22
 835 00f2 1C       		.byte	28
 836 00f3 15       		.byte	21
 837 00f4 BF       		.byte	-65
 838 00f5 16       		.byte	22
 839 00f6 0F       		.byte	15
 840 00f7 15       		.byte	21
 841 00f8 A4       		.byte	-92
 842 00f9 15       		.byte	21
 843 00fa 23       		.byte	35
 844 00fb 16       		.byte	22
 845 00fc 03       		.byte	3
 846 00fd 19       		.byte	25
 847 00fe FF       		.byte	-1
 848 00ff 00       		.space	1
 849              		.type	u8x8_d_ssd0323_os128064_flip0_seq, %object
 850              		.size	u8x8_d_ssd0323_os128064_flip0_seq, 11
 851              	u8x8_d_ssd0323_os128064_flip0_seq:
 852 0100 18       		.byte	24
 853 0101 15       		.byte	21
 854 0102 A0       		.byte	-96
 855 0103 16       		.byte	22
 856 0104 52       		.byte	82
 857 0105 15       		.byte	21
 858 0106 A2       		.byte	-94
 859 0107 16       		.byte	22
 860 0108 40       		.byte	64
 861 0109 19       		.byte	25
 862 010a FF       		.byte	-1
 863 010b 00       		.space	1
 864              		.type	u8x8_d_ssd0323_os128064_flip1_seq, %object
 865              		.size	u8x8_d_ssd0323_os128064_flip1_seq, 11
 866              	u8x8_d_ssd0323_os128064_flip1_seq:
 867 010c 18       		.byte	24
 868 010d 15       		.byte	21
 869 010e A0       		.byte	-96
 870 010f 16       		.byte	22
 871 0110 41       		.byte	65
 872 0111 15       		.byte	21
 873 0112 A2       		.byte	-94
 874 0113 16       		.byte	22
 875 0114 50       		.byte	80
 876 0115 19       		.byte	25
 877 0116 FF       		.byte	-1
 878              		.bss
 879              		.align	2
 880              		.set	.LANCHOR0,. + 0
 881              		.type	u8x8_ssd1325_8to32_dest_buf, %object
 882              		.size	u8x8_ssd1325_8to32_dest_buf, 32
 883              	u8x8_ssd1325_8to32_dest_buf:
 884 0000 00000000 		.space	32
 884      00000000 
 884      00000000 
 884      00000000 
 884      00000000 
 885              		.text
ARM GAS  C:\Users\brian\AppData\Local\Temp\ccvz5tDg.s 			page 25


 886              	.Letext0:
 887              		.file 2 "c:\\program files (x86)\\cypress\\psoc creator\\4.4\\psoc creator\\import\\gnu\\arm\\5.4.
 888              		.file 3 "c:\\program files (x86)\\cypress\\psoc creator\\4.4\\psoc creator\\import\\gnu\\arm\\5.4.
 889              		.file 4 "..\\u8g2\\csrc\\u8x8.h"