ARM GAS  C:\Users\brian\AppData\Local\Temp\ccziuwtv.s 			page 1


   1              		.syntax unified
   2              		.cpu cortex-m3
   3              		.fpu softvfp
   4              		.eabi_attribute 20, 1
   5              		.eabi_attribute 21, 1
   6              		.eabi_attribute 23, 3
   7              		.eabi_attribute 24, 1
   8              		.eabi_attribute 25, 1
   9              		.eabi_attribute 26, 1
  10              		.eabi_attribute 30, 1
  11              		.eabi_attribute 34, 1
  12              		.eabi_attribute 18, 4
  13              		.thumb
  14              		.syntax unified
  15              		.file	"u8x8_d_uc1604.c"
  16              		.text
  17              	.Ltext0:
  18              		.cfi_sections	.debug_frame
  19              		.section	.text.u8x8_d_uc1604_common,"ax",%progbits
  20              		.align	2
  21              		.global	u8x8_d_uc1604_common
  22              		.thumb
  23              		.thumb_func
  24              		.type	u8x8_d_uc1604_common, %function
  25              	u8x8_d_uc1604_common:
  26              	.LFB0:
  27              		.file 1 "..\\u8g2\\csrc\\u8x8_d_uc1604.c"
   1:..\u8g2\csrc/u8x8_d_uc1604.c **** /*
   2:..\u8g2\csrc/u8x8_d_uc1604.c **** 
   3:..\u8g2\csrc/u8x8_d_uc1604.c ****   u8x8_d_uc1604.c
   4:..\u8g2\csrc/u8x8_d_uc1604.c ****   
   5:..\u8g2\csrc/u8x8_d_uc1604.c ****   Universal 8bit Graphics Library (https://github.com/olikraus/u8g2/)
   6:..\u8g2\csrc/u8x8_d_uc1604.c **** 
   7:..\u8g2\csrc/u8x8_d_uc1604.c ****   Copyright (c) 2016, olikraus@gmail.com
   8:..\u8g2\csrc/u8x8_d_uc1604.c ****   All rights reserved.
   9:..\u8g2\csrc/u8x8_d_uc1604.c **** 
  10:..\u8g2\csrc/u8x8_d_uc1604.c ****   Redistribution and use in source and binary forms, with or without modification, 
  11:..\u8g2\csrc/u8x8_d_uc1604.c ****   are permitted provided that the following conditions are met:
  12:..\u8g2\csrc/u8x8_d_uc1604.c **** 
  13:..\u8g2\csrc/u8x8_d_uc1604.c ****   * Redistributions of source code must retain the above copyright notice, this list 
  14:..\u8g2\csrc/u8x8_d_uc1604.c ****     of conditions and the following disclaimer.
  15:..\u8g2\csrc/u8x8_d_uc1604.c ****     
  16:..\u8g2\csrc/u8x8_d_uc1604.c ****   * Redistributions in binary form must reproduce the above copyright notice, this 
  17:..\u8g2\csrc/u8x8_d_uc1604.c ****     list of conditions and the following disclaimer in the documentation and/or other 
  18:..\u8g2\csrc/u8x8_d_uc1604.c ****     materials provided with the distribution.
  19:..\u8g2\csrc/u8x8_d_uc1604.c **** 
  20:..\u8g2\csrc/u8x8_d_uc1604.c ****   THIS SOFTWARE IS PROVIDED BY THE COPYRIGHT HOLDERS AND 
  21:..\u8g2\csrc/u8x8_d_uc1604.c ****   CONTRIBUTORS "AS IS" AND ANY EXPRESS OR IMPLIED WARRANTIES, 
  22:..\u8g2\csrc/u8x8_d_uc1604.c ****   INCLUDING, BUT NOT LIMITED TO, THE IMPLIED WARRANTIES OF 
  23:..\u8g2\csrc/u8x8_d_uc1604.c ****   MERCHANTABILITY AND FITNESS FOR A PARTICULAR PURPOSE ARE 
  24:..\u8g2\csrc/u8x8_d_uc1604.c ****   DISCLAIMED. IN NO EVENT SHALL THE COPYRIGHT HOLDER OR 
  25:..\u8g2\csrc/u8x8_d_uc1604.c ****   CONTRIBUTORS BE LIABLE FOR ANY DIRECT, INDIRECT, INCIDENTAL, 
  26:..\u8g2\csrc/u8x8_d_uc1604.c ****   SPECIAL, EXEMPLARY, OR CONSEQUENTIAL DAMAGES (INCLUDING, BUT 
  27:..\u8g2\csrc/u8x8_d_uc1604.c ****   NOT LIMITED TO, PROCUREMENT OF SUBSTITUTE GOODS OR SERVICES; 
  28:..\u8g2\csrc/u8x8_d_uc1604.c ****   LOSS OF USE, DATA, OR PROFITS; OR BUSINESS INTERRUPTION) HOWEVER 
  29:..\u8g2\csrc/u8x8_d_uc1604.c ****   CAUSED AND ON ANY THEORY OF LIABILITY, WHETHER IN CONTRACT, 
  30:..\u8g2\csrc/u8x8_d_uc1604.c ****   STRICT LIABILITY, OR TORT (INCLUDING NEGLIGENCE OR OTHERWISE) 
ARM GAS  C:\Users\brian\AppData\Local\Temp\ccziuwtv.s 			page 2


  31:..\u8g2\csrc/u8x8_d_uc1604.c ****   ARISING IN ANY WAY OUT OF THE USE OF THIS SOFTWARE, EVEN IF 
  32:..\u8g2\csrc/u8x8_d_uc1604.c ****   ADVISED OF THE POSSIBILITY OF SUCH DAMAGE.  
  33:..\u8g2\csrc/u8x8_d_uc1604.c **** 
  34:..\u8g2\csrc/u8x8_d_uc1604.c **** 
  35:..\u8g2\csrc/u8x8_d_uc1604.c ****   
  36:..\u8g2\csrc/u8x8_d_uc1604.c **** */
  37:..\u8g2\csrc/u8x8_d_uc1604.c **** #include "u8x8.h"
  38:..\u8g2\csrc/u8x8_d_uc1604.c **** 
  39:..\u8g2\csrc/u8x8_d_uc1604.c **** 
  40:..\u8g2\csrc/u8x8_d_uc1604.c **** 
  41:..\u8g2\csrc/u8x8_d_uc1604.c **** 
  42:..\u8g2\csrc/u8x8_d_uc1604.c **** 
  43:..\u8g2\csrc/u8x8_d_uc1604.c **** static const uint8_t u8x8_d_uc1604_powersave0_seq[] = {
  44:..\u8g2\csrc/u8x8_d_uc1604.c ****   U8X8_START_TRANSFER(),             	/* enable chip, delay is part of the transfer start */
  45:..\u8g2\csrc/u8x8_d_uc1604.c ****   U8X8_DLY(20),			
  46:..\u8g2\csrc/u8x8_d_uc1604.c ****   U8X8_C(0x0af),		                /* display on */
  47:..\u8g2\csrc/u8x8_d_uc1604.c ****   U8X8_DLY(20),				/* during setup, it seems that the startup is more reliable when sending this cm
  48:..\u8g2\csrc/u8x8_d_uc1604.c ****   U8X8_C(0x0af),		                /* display on */
  49:..\u8g2\csrc/u8x8_d_uc1604.c ****   U8X8_DLY(50),				/* startup takes some time */
  50:..\u8g2\csrc/u8x8_d_uc1604.c ****   U8X8_END_TRANSFER(),             	/* disable chip */
  51:..\u8g2\csrc/u8x8_d_uc1604.c ****   U8X8_END()             			/* end of sequence */
  52:..\u8g2\csrc/u8x8_d_uc1604.c **** };
  53:..\u8g2\csrc/u8x8_d_uc1604.c **** 
  54:..\u8g2\csrc/u8x8_d_uc1604.c **** static const uint8_t u8x8_d_uc1604_powersave1_seq[] = {
  55:..\u8g2\csrc/u8x8_d_uc1604.c ****   U8X8_START_TRANSFER(),             	/* enable chip, delay is part of the transfer start */
  56:..\u8g2\csrc/u8x8_d_uc1604.c ****   U8X8_C(0x0ae),		                /* display off, enter sleep mode */
  57:..\u8g2\csrc/u8x8_d_uc1604.c ****   U8X8_END_TRANSFER(),             	/* disable chip */
  58:..\u8g2\csrc/u8x8_d_uc1604.c ****   U8X8_END()             			/* end of sequence */
  59:..\u8g2\csrc/u8x8_d_uc1604.c **** };
  60:..\u8g2\csrc/u8x8_d_uc1604.c **** 
  61:..\u8g2\csrc/u8x8_d_uc1604.c **** static const uint8_t u8x8_d_uc1604_flip0_seq[] = {
  62:..\u8g2\csrc/u8x8_d_uc1604.c ****   U8X8_START_TRANSFER(),             	/* enable chip, delay is part of the transfer start */
  63:..\u8g2\csrc/u8x8_d_uc1604.c ****   U8X8_C(0x0c4),            			/* LCD Mapping */
  64:..\u8g2\csrc/u8x8_d_uc1604.c ****   U8X8_END_TRANSFER(),             	/* disable chip */
  65:..\u8g2\csrc/u8x8_d_uc1604.c ****   U8X8_END()             			/* end of sequence */
  66:..\u8g2\csrc/u8x8_d_uc1604.c **** };
  67:..\u8g2\csrc/u8x8_d_uc1604.c **** 
  68:..\u8g2\csrc/u8x8_d_uc1604.c **** static const uint8_t u8x8_d_uc1604_flip1_seq[] = {
  69:..\u8g2\csrc/u8x8_d_uc1604.c ****   U8X8_START_TRANSFER(),             	/* enable chip, delay is part of the transfer start */
  70:..\u8g2\csrc/u8x8_d_uc1604.c ****   U8X8_C(0x0c2),            			/* LCD Mapping */
  71:..\u8g2\csrc/u8x8_d_uc1604.c ****   U8X8_END_TRANSFER(),             	/* disable chip */
  72:..\u8g2\csrc/u8x8_d_uc1604.c ****   U8X8_END()             			/* end of sequence */
  73:..\u8g2\csrc/u8x8_d_uc1604.c **** };
  74:..\u8g2\csrc/u8x8_d_uc1604.c **** 
  75:..\u8g2\csrc/u8x8_d_uc1604.c **** 
  76:..\u8g2\csrc/u8x8_d_uc1604.c **** uint8_t u8x8_d_uc1604_common(u8x8_t *u8x8, uint8_t msg, uint8_t arg_int, void *arg_ptr)
  77:..\u8g2\csrc/u8x8_d_uc1604.c **** {
  28              		.loc 1 77 0
  29              		.cfi_startproc
  30              		@ args = 0, pretend = 0, frame = 0
  31              		@ frame_needed = 0, uses_anonymous_args = 0
  32              	.LVL0:
  33 0000 F8B5     		push	{r3, r4, r5, r6, r7, lr}
  34              		.cfi_def_cfa_offset 24
  35              		.cfi_offset 3, -24
  36              		.cfi_offset 4, -20
  37              		.cfi_offset 5, -16
ARM GAS  C:\Users\brian\AppData\Local\Temp\ccziuwtv.s 			page 3


  38              		.cfi_offset 6, -12
  39              		.cfi_offset 7, -8
  40              		.cfi_offset 14, -4
  41 0002 0546     		mov	r5, r0
  42 0004 1446     		mov	r4, r2
  43 0006 1F46     		mov	r7, r3
  78:..\u8g2\csrc/u8x8_d_uc1604.c ****   uint8_t x, y, c;
  79:..\u8g2\csrc/u8x8_d_uc1604.c ****   uint8_t *ptr;
  80:..\u8g2\csrc/u8x8_d_uc1604.c ****   switch(msg)
  44              		.loc 1 80 0
  45 0008 0B39     		subs	r1, r1, #11
  46              	.LVL1:
  47 000a 0429     		cmp	r1, #4
  48 000c 5ED8     		bhi	.L11
  49 000e DFE801F0 		tbb	[pc, r1]
  50              	.LVL2:
  51              	.L4:
  52 0012 30       		.byte	(.L3-.L4)/2
  53 0013 5D       		.byte	(.L11-.L4)/2
  54 0014 3B       		.byte	(.L5-.L4)/2
  55 0015 4E       		.byte	(.L6-.L4)/2
  56 0016 03       		.byte	(.L7-.L4)/2
  57 0017 00       		.p2align 1
  58              	.L7:
  81:..\u8g2\csrc/u8x8_d_uc1604.c ****   {
  82:..\u8g2\csrc/u8x8_d_uc1604.c ****     case U8X8_MSG_DISPLAY_DRAW_TILE:
  83:..\u8g2\csrc/u8x8_d_uc1604.c ****       u8x8_cad_StartTransfer(u8x8);
  59              		.loc 1 83 0
  60 0018 FFF7FEFF 		bl	u8x8_cad_StartTransfer
  61              	.LVL3:
  84:..\u8g2\csrc/u8x8_d_uc1604.c ****     
  85:..\u8g2\csrc/u8x8_d_uc1604.c ****       x = ((u8x8_tile_t *)arg_ptr)->x_pos;
  62              		.loc 1 85 0
  63 001c 7E79     		ldrb	r6, [r7, #5]	@ zero_extendqisi2
  64              	.LVL4:
  86:..\u8g2\csrc/u8x8_d_uc1604.c ****       x *= 8;
  65              		.loc 1 86 0
  66 001e F600     		lsls	r6, r6, #3
  67              	.LVL5:
  68 0020 F6B2     		uxtb	r6, r6
  69              	.LVL6:
  87:..\u8g2\csrc/u8x8_d_uc1604.c ****    
  88:..\u8g2\csrc/u8x8_d_uc1604.c ****       u8x8_cad_SendCmd(u8x8, 0x000 | ((x&15)));
  70              		.loc 1 88 0
  71 0022 06F00801 		and	r1, r6, #8
  72 0026 2846     		mov	r0, r5
  73 0028 FFF7FEFF 		bl	u8x8_cad_SendCmd
  74              	.LVL7:
  89:..\u8g2\csrc/u8x8_d_uc1604.c ****       u8x8_cad_SendCmd(u8x8, 0x010 | (x>>4) );
  75              		.loc 1 89 0
  76 002c 3109     		lsrs	r1, r6, #4
  77 002e 41F01001 		orr	r1, r1, #16
  78 0032 2846     		mov	r0, r5
  79 0034 FFF7FEFF 		bl	u8x8_cad_SendCmd
  80              	.LVL8:
  90:..\u8g2\csrc/u8x8_d_uc1604.c ****     
  91:..\u8g2\csrc/u8x8_d_uc1604.c ****       y = ((u8x8_tile_t *)arg_ptr)->y_pos;
ARM GAS  C:\Users\brian\AppData\Local\Temp\ccziuwtv.s 			page 4


  81              		.loc 1 91 0
  82 0038 B979     		ldrb	r1, [r7, #6]	@ zero_extendqisi2
  83              	.LVL9:
  92:..\u8g2\csrc/u8x8_d_uc1604.c ****       y += u8x8->x_offset;
  84              		.loc 1 92 0
  85 003a 95F82230 		ldrb	r3, [r5, #34]	@ zero_extendqisi2
  86 003e 1944     		add	r1, r1, r3
  87              	.LVL10:
  93:..\u8g2\csrc/u8x8_d_uc1604.c ****       u8x8_cad_SendCmd(u8x8, 0x0b0 | (y&15));
  88              		.loc 1 93 0
  89 0040 01F00F01 		and	r1, r1, #15
  90              	.LVL11:
  91 0044 41F0B001 		orr	r1, r1, #176
  92 0048 2846     		mov	r0, r5
  93 004a FFF7FEFF 		bl	u8x8_cad_SendCmd
  94              	.LVL12:
  94:..\u8g2\csrc/u8x8_d_uc1604.c ****     
  95:..\u8g2\csrc/u8x8_d_uc1604.c ****       c = ((u8x8_tile_t *)arg_ptr)->cnt;
  95              		.loc 1 95 0
  96 004e 3E79     		ldrb	r6, [r7, #4]	@ zero_extendqisi2
  97              	.LVL13:
  96:..\u8g2\csrc/u8x8_d_uc1604.c ****       c *= 8;
  98              		.loc 1 96 0
  99 0050 F600     		lsls	r6, r6, #3
 100              	.LVL14:
 101 0052 F6B2     		uxtb	r6, r6
 102              	.LVL15:
  97:..\u8g2\csrc/u8x8_d_uc1604.c ****       ptr = ((u8x8_tile_t *)arg_ptr)->tile_ptr;
 103              		.loc 1 97 0
 104 0054 3F68     		ldr	r7, [r7]
 105              	.LVL16:
 106              	.L8:
  98:..\u8g2\csrc/u8x8_d_uc1604.c ****       do
  99:..\u8g2\csrc/u8x8_d_uc1604.c ****       {
 100:..\u8g2\csrc/u8x8_d_uc1604.c **** 	u8x8_cad_SendData(u8x8, c, ptr);	/* note: SendData can not handle more than 255 bytes */
 107              		.loc 1 100 0 discriminator 1
 108 0056 3A46     		mov	r2, r7
 109 0058 3146     		mov	r1, r6
 110 005a 2846     		mov	r0, r5
 111 005c FFF7FEFF 		bl	u8x8_cad_SendData
 112              	.LVL17:
 101:..\u8g2\csrc/u8x8_d_uc1604.c **** 	arg_int--;
 113              		.loc 1 101 0 discriminator 1
 114 0060 621E     		subs	r2, r4, #1
 115              	.LVL18:
 102:..\u8g2\csrc/u8x8_d_uc1604.c ****       } while( arg_int > 0 );
 116              		.loc 1 102 0 discriminator 1
 117 0062 12F0FF04 		ands	r4, r2, #255
 118 0066 F6D1     		bne	.L8
 103:..\u8g2\csrc/u8x8_d_uc1604.c ****       
 104:..\u8g2\csrc/u8x8_d_uc1604.c ****       u8x8_cad_EndTransfer(u8x8);
 119              		.loc 1 104 0
 120 0068 2846     		mov	r0, r5
 121 006a FFF7FEFF 		bl	u8x8_cad_EndTransfer
 122              	.LVL19:
 105:..\u8g2\csrc/u8x8_d_uc1604.c ****       break;
 106:..\u8g2\csrc/u8x8_d_uc1604.c ****     /*	handled in the calling procedure 
ARM GAS  C:\Users\brian\AppData\Local\Temp\ccziuwtv.s 			page 5


 107:..\u8g2\csrc/u8x8_d_uc1604.c ****     case U8X8_MSG_DISPLAY_SETUP_MEMORY:
 108:..\u8g2\csrc/u8x8_d_uc1604.c ****       u8x8_d_helper_display_setup_memory(u8x8, &u8x8_uc1604_128x64_display_info);
 109:..\u8g2\csrc/u8x8_d_uc1604.c ****       break;
 110:..\u8g2\csrc/u8x8_d_uc1604.c ****     case U8X8_MSG_DISPLAY_INIT:
 111:..\u8g2\csrc/u8x8_d_uc1604.c ****       u8x8_d_helper_display_init(u8x8);
 112:..\u8g2\csrc/u8x8_d_uc1604.c ****       u8x8_cad_SendSequence(u8x8, u8x8_d_uc1701_dogs102_init_seq);
 113:..\u8g2\csrc/u8x8_d_uc1604.c ****       break;
 114:..\u8g2\csrc/u8x8_d_uc1604.c ****     */
 115:..\u8g2\csrc/u8x8_d_uc1604.c ****     case U8X8_MSG_DISPLAY_SET_POWER_SAVE:
 116:..\u8g2\csrc/u8x8_d_uc1604.c ****       if ( arg_int == 0 )
 117:..\u8g2\csrc/u8x8_d_uc1604.c **** 	u8x8_cad_SendSequence(u8x8, u8x8_d_uc1604_powersave0_seq);
 118:..\u8g2\csrc/u8x8_d_uc1604.c ****       else
 119:..\u8g2\csrc/u8x8_d_uc1604.c **** 	u8x8_cad_SendSequence(u8x8, u8x8_d_uc1604_powersave1_seq);
 120:..\u8g2\csrc/u8x8_d_uc1604.c ****       break;
 121:..\u8g2\csrc/u8x8_d_uc1604.c ****     case U8X8_MSG_DISPLAY_SET_FLIP_MODE:
 122:..\u8g2\csrc/u8x8_d_uc1604.c ****       if ( arg_int == 0 )
 123:..\u8g2\csrc/u8x8_d_uc1604.c ****       {
 124:..\u8g2\csrc/u8x8_d_uc1604.c **** 	u8x8_cad_SendSequence(u8x8, u8x8_d_uc1604_flip0_seq);
 125:..\u8g2\csrc/u8x8_d_uc1604.c **** 	u8x8->x_offset = u8x8->display_info->default_x_offset;
 126:..\u8g2\csrc/u8x8_d_uc1604.c ****       }
 127:..\u8g2\csrc/u8x8_d_uc1604.c ****       else
 128:..\u8g2\csrc/u8x8_d_uc1604.c ****       {
 129:..\u8g2\csrc/u8x8_d_uc1604.c **** 	u8x8_cad_SendSequence(u8x8, u8x8_d_uc1604_flip1_seq);
 130:..\u8g2\csrc/u8x8_d_uc1604.c **** 	u8x8->x_offset = u8x8->display_info->flipmode_x_offset;
 131:..\u8g2\csrc/u8x8_d_uc1604.c ****       }	
 132:..\u8g2\csrc/u8x8_d_uc1604.c ****       break;
 133:..\u8g2\csrc/u8x8_d_uc1604.c **** #ifdef U8X8_WITH_SET_CONTRAST
 134:..\u8g2\csrc/u8x8_d_uc1604.c ****     case U8X8_MSG_DISPLAY_SET_CONTRAST:
 135:..\u8g2\csrc/u8x8_d_uc1604.c ****       u8x8_cad_StartTransfer(u8x8);
 136:..\u8g2\csrc/u8x8_d_uc1604.c ****       u8x8_cad_SendCmd(u8x8, 0x081 );
 137:..\u8g2\csrc/u8x8_d_uc1604.c ****       u8x8_cad_SendArg(u8x8, arg_int  );	/* uc1604 has range from 0 to 255 */
 138:..\u8g2\csrc/u8x8_d_uc1604.c ****       u8x8_cad_EndTransfer(u8x8);
 139:..\u8g2\csrc/u8x8_d_uc1604.c ****       break;
 140:..\u8g2\csrc/u8x8_d_uc1604.c **** #endif
 141:..\u8g2\csrc/u8x8_d_uc1604.c ****     default:
 142:..\u8g2\csrc/u8x8_d_uc1604.c ****       return 0;
 143:..\u8g2\csrc/u8x8_d_uc1604.c ****   }
 144:..\u8g2\csrc/u8x8_d_uc1604.c ****   return 1;
 123              		.loc 1 144 0
 124 006e 0120     		movs	r0, #1
 105:..\u8g2\csrc/u8x8_d_uc1604.c ****       break;
 125              		.loc 1 105 0
 126 0070 F8BD     		pop	{r3, r4, r5, r6, r7, pc}
 127              	.LVL20:
 128              	.L3:
 116:..\u8g2\csrc/u8x8_d_uc1604.c **** 	u8x8_cad_SendSequence(u8x8, u8x8_d_uc1604_powersave0_seq);
 129              		.loc 1 116 0
 130 0072 22B9     		cbnz	r2, .L9
 117:..\u8g2\csrc/u8x8_d_uc1604.c ****       else
 131              		.loc 1 117 0
 132 0074 1649     		ldr	r1, .L13
 133 0076 FFF7FEFF 		bl	u8x8_cad_SendSequence
 134              	.LVL21:
 135              		.loc 1 144 0
 136 007a 0120     		movs	r0, #1
 137 007c F8BD     		pop	{r3, r4, r5, r6, r7, pc}
 138              	.LVL22:
ARM GAS  C:\Users\brian\AppData\Local\Temp\ccziuwtv.s 			page 6


 139              	.L9:
 119:..\u8g2\csrc/u8x8_d_uc1604.c ****       break;
 140              		.loc 1 119 0
 141 007e 1549     		ldr	r1, .L13+4
 142 0080 FFF7FEFF 		bl	u8x8_cad_SendSequence
 143              	.LVL23:
 144              		.loc 1 144 0
 145 0084 0120     		movs	r0, #1
 146 0086 F8BD     		pop	{r3, r4, r5, r6, r7, pc}
 147              	.LVL24:
 148              	.L5:
 122:..\u8g2\csrc/u8x8_d_uc1604.c ****       {
 149              		.loc 1 122 0
 150 0088 42B9     		cbnz	r2, .L10
 124:..\u8g2\csrc/u8x8_d_uc1604.c **** 	u8x8->x_offset = u8x8->display_info->default_x_offset;
 151              		.loc 1 124 0
 152 008a 1349     		ldr	r1, .L13+8
 153 008c FFF7FEFF 		bl	u8x8_cad_SendSequence
 154              	.LVL25:
 125:..\u8g2\csrc/u8x8_d_uc1604.c ****       }
 155              		.loc 1 125 0
 156 0090 2B68     		ldr	r3, [r5]
 157 0092 9B7C     		ldrb	r3, [r3, #18]	@ zero_extendqisi2
 158 0094 85F82230 		strb	r3, [r5, #34]
 159              		.loc 1 144 0
 160 0098 0120     		movs	r0, #1
 161 009a F8BD     		pop	{r3, r4, r5, r6, r7, pc}
 162              	.LVL26:
 163              	.L10:
 129:..\u8g2\csrc/u8x8_d_uc1604.c **** 	u8x8->x_offset = u8x8->display_info->flipmode_x_offset;
 164              		.loc 1 129 0
 165 009c 0F49     		ldr	r1, .L13+12
 166 009e FFF7FEFF 		bl	u8x8_cad_SendSequence
 167              	.LVL27:
 130:..\u8g2\csrc/u8x8_d_uc1604.c ****       }	
 168              		.loc 1 130 0
 169 00a2 2B68     		ldr	r3, [r5]
 170 00a4 DB7C     		ldrb	r3, [r3, #19]	@ zero_extendqisi2
 171 00a6 85F82230 		strb	r3, [r5, #34]
 172              		.loc 1 144 0
 173 00aa 0120     		movs	r0, #1
 174 00ac F8BD     		pop	{r3, r4, r5, r6, r7, pc}
 175              	.LVL28:
 176              	.L6:
 135:..\u8g2\csrc/u8x8_d_uc1604.c ****       u8x8_cad_SendCmd(u8x8, 0x081 );
 177              		.loc 1 135 0
 178 00ae FFF7FEFF 		bl	u8x8_cad_StartTransfer
 179              	.LVL29:
 136:..\u8g2\csrc/u8x8_d_uc1604.c ****       u8x8_cad_SendArg(u8x8, arg_int  );	/* uc1604 has range from 0 to 255 */
 180              		.loc 1 136 0
 181 00b2 8121     		movs	r1, #129
 182 00b4 2846     		mov	r0, r5
 183 00b6 FFF7FEFF 		bl	u8x8_cad_SendCmd
 184              	.LVL30:
 137:..\u8g2\csrc/u8x8_d_uc1604.c ****       u8x8_cad_EndTransfer(u8x8);
 185              		.loc 1 137 0
 186 00ba 2146     		mov	r1, r4
ARM GAS  C:\Users\brian\AppData\Local\Temp\ccziuwtv.s 			page 7


 187 00bc 2846     		mov	r0, r5
 188 00be FFF7FEFF 		bl	u8x8_cad_SendArg
 189              	.LVL31:
 138:..\u8g2\csrc/u8x8_d_uc1604.c ****       break;
 190              		.loc 1 138 0
 191 00c2 2846     		mov	r0, r5
 192 00c4 FFF7FEFF 		bl	u8x8_cad_EndTransfer
 193              	.LVL32:
 194              		.loc 1 144 0
 195 00c8 0120     		movs	r0, #1
 139:..\u8g2\csrc/u8x8_d_uc1604.c **** #endif
 196              		.loc 1 139 0
 197 00ca F8BD     		pop	{r3, r4, r5, r6, r7, pc}
 198              	.LVL33:
 199              	.L11:
 142:..\u8g2\csrc/u8x8_d_uc1604.c ****   }
 200              		.loc 1 142 0
 201 00cc 0020     		movs	r0, #0
 202              	.LVL34:
 145:..\u8g2\csrc/u8x8_d_uc1604.c **** }
 203              		.loc 1 145 0
 204 00ce F8BD     		pop	{r3, r4, r5, r6, r7, pc}
 205              	.LVL35:
 206              	.L14:
 207              		.align	2
 208              	.L13:
 209 00d0 00000000 		.word	.LANCHOR0
 210 00d4 10000000 		.word	.LANCHOR0+16
 211 00d8 18000000 		.word	.LANCHOR0+24
 212 00dc 20000000 		.word	.LANCHOR0+32
 213              		.cfi_endproc
 214              	.LFE0:
 215              		.size	u8x8_d_uc1604_common, .-u8x8_d_uc1604_common
 216              		.section	.text.u8x8_d_uc1604_jlx19264,"ax",%progbits
 217              		.align	2
 218              		.global	u8x8_d_uc1604_jlx19264
 219              		.thumb
 220              		.thumb_func
 221              		.type	u8x8_d_uc1604_jlx19264, %function
 222              	u8x8_d_uc1604_jlx19264:
 223              	.LFB1:
 146:..\u8g2\csrc/u8x8_d_uc1604.c **** 
 147:..\u8g2\csrc/u8x8_d_uc1604.c **** /*================================================*/
 148:..\u8g2\csrc/u8x8_d_uc1604.c **** /* JLX19264 */
 149:..\u8g2\csrc/u8x8_d_uc1604.c **** 
 150:..\u8g2\csrc/u8x8_d_uc1604.c **** /* 
 151:..\u8g2\csrc/u8x8_d_uc1604.c ****   timings from uc1608 
 152:..\u8g2\csrc/u8x8_d_uc1604.c **** 
 153:..\u8g2\csrc/u8x8_d_uc1604.c ****   UC1604 has two chip select inputs (CS0 and CS1).
 154:..\u8g2\csrc/u8x8_d_uc1604.c ****   CS0 is low active, CS1 is high active. It will depend on the display
 155:..\u8g2\csrc/u8x8_d_uc1604.c ****   module whether the display has a is low or high active chip select.
 156:..\u8g2\csrc/u8x8_d_uc1604.c **** 
 157:..\u8g2\csrc/u8x8_d_uc1604.c **** */
 158:..\u8g2\csrc/u8x8_d_uc1604.c **** static const u8x8_display_info_t u8x8_uc1604_192x64_display_info =
 159:..\u8g2\csrc/u8x8_d_uc1604.c **** {
 160:..\u8g2\csrc/u8x8_d_uc1604.c ****   /* chip_enable_level = */ 0,	/* JLX19264G uses CS0, which is low active CS*/
 161:..\u8g2\csrc/u8x8_d_uc1604.c ****   /* chip_disable_level = */ 1,
ARM GAS  C:\Users\brian\AppData\Local\Temp\ccziuwtv.s 			page 8


 162:..\u8g2\csrc/u8x8_d_uc1604.c ****   
 163:..\u8g2\csrc/u8x8_d_uc1604.c ****   /* post_chip_enable_wait_ns = */ 20,	
 164:..\u8g2\csrc/u8x8_d_uc1604.c ****   /* pre_chip_disable_wait_ns = */ 20,	
 165:..\u8g2\csrc/u8x8_d_uc1604.c ****   /* reset_pulse_width_ms = */ 1, 	
 166:..\u8g2\csrc/u8x8_d_uc1604.c ****   /* post_reset_wait_ms = */ 10, 	
 167:..\u8g2\csrc/u8x8_d_uc1604.c ****   /* sda_setup_time_ns = */ 30,		
 168:..\u8g2\csrc/u8x8_d_uc1604.c ****   /* sck_pulse_width_ns = */ 65,	/* half of cycle time  */
 169:..\u8g2\csrc/u8x8_d_uc1604.c ****   /* sck_clock_hz = */ 8000000UL,	/* since Arduino 1.6.0, the SPI bus speed in Hz. Should be  10000
 170:..\u8g2\csrc/u8x8_d_uc1604.c ****   /* spi_mode = */ 0,		/* active high, rising edge */
 171:..\u8g2\csrc/u8x8_d_uc1604.c ****   /* i2c_bus_clock_100kHz = */ 4,
 172:..\u8g2\csrc/u8x8_d_uc1604.c ****   /* data_setup_time_ns = */ 30,	
 173:..\u8g2\csrc/u8x8_d_uc1604.c ****   /* write_pulse_width_ns = */ 35,	
 174:..\u8g2\csrc/u8x8_d_uc1604.c ****   /* tile_width = */ 24,		/* width of 24*8=192 pixel */
 175:..\u8g2\csrc/u8x8_d_uc1604.c ****   /* tile_hight = */ 8,
 176:..\u8g2\csrc/u8x8_d_uc1604.c ****   /* default_x_offset = */ 0,	/* reused as y page offset */
 177:..\u8g2\csrc/u8x8_d_uc1604.c ****   /* flipmode_x_offset = */ 0,	/* reused as y page offset */
 178:..\u8g2\csrc/u8x8_d_uc1604.c ****   /* pixel_width = */ 192,
 179:..\u8g2\csrc/u8x8_d_uc1604.c ****   /* pixel_height = */ 64
 180:..\u8g2\csrc/u8x8_d_uc1604.c **** };
 181:..\u8g2\csrc/u8x8_d_uc1604.c **** 
 182:..\u8g2\csrc/u8x8_d_uc1604.c **** static const uint8_t u8x8_d_uc1604_jlx19264_init_seq[] = {
 183:..\u8g2\csrc/u8x8_d_uc1604.c ****     
 184:..\u8g2\csrc/u8x8_d_uc1604.c ****   U8X8_START_TRANSFER(),             	/* enable chip, delay is part of the transfer start */
 185:..\u8g2\csrc/u8x8_d_uc1604.c **** 
 186:..\u8g2\csrc/u8x8_d_uc1604.c ****   U8X8_C(0x0e2),            			/* soft reset */
 187:..\u8g2\csrc/u8x8_d_uc1604.c ****   U8X8_DLY(200),
 188:..\u8g2\csrc/u8x8_d_uc1604.c ****   U8X8_DLY(200),
 189:..\u8g2\csrc/u8x8_d_uc1604.c **** 
 190:..\u8g2\csrc/u8x8_d_uc1604.c ****   U8X8_C(0x02f),            			/* power on, Bit 2 PC2=1 (internal charge pump), Bits 0/1: cap of pa
 191:..\u8g2\csrc/u8x8_d_uc1604.c ****   U8X8_DLY(200),
 192:..\u8g2\csrc/u8x8_d_uc1604.c ****   U8X8_DLY(200),
 193:..\u8g2\csrc/u8x8_d_uc1604.c ****   
 194:..\u8g2\csrc/u8x8_d_uc1604.c ****   U8X8_CA(0x081, 0x052),		/* set contrast, JLX19264G suggestion: 0x045 */
 195:..\u8g2\csrc/u8x8_d_uc1604.c ****   U8X8_C(0x0eb),            			/* LCD bias Bits 0/1: 00=6 01=7, 10=8, 11=9 */
 196:..\u8g2\csrc/u8x8_d_uc1604.c **** 
 197:..\u8g2\csrc/u8x8_d_uc1604.c ****   
 198:..\u8g2\csrc/u8x8_d_uc1604.c ****   //U8X8_C(0x023),            			/* Bit 0/1: Temp compenstation, Bit 2: Multiplex Rate 0=96, 1=128 
 199:..\u8g2\csrc/u8x8_d_uc1604.c ****   //U8X8_C(0x027),            			/* Bit 0/1: Temp compenstation, Bit 2: Multiplex Rate 0=96, 1=128 
 200:..\u8g2\csrc/u8x8_d_uc1604.c **** 
 201:..\u8g2\csrc/u8x8_d_uc1604.c ****   U8X8_C(0x0c4),            			/* Map control, Bit 2: MY=1, Bit 1: MX=0 */
 202:..\u8g2\csrc/u8x8_d_uc1604.c ****   U8X8_C(0x0a0),            			/* 0xa0: 76Hz FPS, controller default: 0x0a1: 95Hz FPS */
 203:..\u8g2\csrc/u8x8_d_uc1604.c ****   
 204:..\u8g2\csrc/u8x8_d_uc1604.c ****   
 205:..\u8g2\csrc/u8x8_d_uc1604.c ****   U8X8_C(0x040),            			/* set scroll line to 0 */
 206:..\u8g2\csrc/u8x8_d_uc1604.c ****   U8X8_C(0x089),            			/* RAM access control (controller default: 0x089)*/
 207:..\u8g2\csrc/u8x8_d_uc1604.c ****   
 208:..\u8g2\csrc/u8x8_d_uc1604.c ****   
 209:..\u8g2\csrc/u8x8_d_uc1604.c ****   U8X8_C(0x000),		                /* column low nibble */
 210:..\u8g2\csrc/u8x8_d_uc1604.c ****   U8X8_C(0x010),		                /* column high nibble */  
 211:..\u8g2\csrc/u8x8_d_uc1604.c ****   U8X8_C(0x0b0),		                /* page adr  */
 212:..\u8g2\csrc/u8x8_d_uc1604.c ****   
 213:..\u8g2\csrc/u8x8_d_uc1604.c ****   
 214:..\u8g2\csrc/u8x8_d_uc1604.c ****   U8X8_END_TRANSFER(),             	/* disable chip */
 215:..\u8g2\csrc/u8x8_d_uc1604.c ****   U8X8_END()             			/* end of sequence */
 216:..\u8g2\csrc/u8x8_d_uc1604.c **** };
 217:..\u8g2\csrc/u8x8_d_uc1604.c **** 
 218:..\u8g2\csrc/u8x8_d_uc1604.c **** uint8_t u8x8_d_uc1604_jlx19264(u8x8_t *u8x8, uint8_t msg, uint8_t arg_int, void *arg_ptr)
ARM GAS  C:\Users\brian\AppData\Local\Temp\ccziuwtv.s 			page 9


 219:..\u8g2\csrc/u8x8_d_uc1604.c **** {
 224              		.loc 1 219 0
 225              		.cfi_startproc
 226              		@ args = 0, pretend = 0, frame = 0
 227              		@ frame_needed = 0, uses_anonymous_args = 0
 228              	.LVL36:
 229 0000 38B5     		push	{r3, r4, r5, lr}
 230              		.cfi_def_cfa_offset 16
 231              		.cfi_offset 3, -16
 232              		.cfi_offset 4, -12
 233              		.cfi_offset 5, -8
 234              		.cfi_offset 14, -4
 235 0002 0546     		mov	r5, r0
 236 0004 0C46     		mov	r4, r1
 220:..\u8g2\csrc/u8x8_d_uc1604.c ****   /* call common procedure first and handle messages there */
 221:..\u8g2\csrc/u8x8_d_uc1604.c ****   if ( u8x8_d_uc1604_common(u8x8, msg, arg_int, arg_ptr) == 0 )
 237              		.loc 1 221 0
 238 0006 FFF7FEFF 		bl	u8x8_d_uc1604_common
 239              	.LVL37:
 240 000a A0B9     		cbnz	r0, .L19
 241 000c 0346     		mov	r3, r0
 222:..\u8g2\csrc/u8x8_d_uc1604.c ****   {
 223:..\u8g2\csrc/u8x8_d_uc1604.c ****     /* msg not handled, then try here */
 224:..\u8g2\csrc/u8x8_d_uc1604.c ****     switch(msg)
 242              		.loc 1 224 0
 243 000e 092C     		cmp	r4, #9
 244 0010 02D0     		beq	.L17
 245 0012 0A2C     		cmp	r4, #10
 246 0014 06D0     		beq	.L18
 247 0016 0FE0     		b	.L16
 248              	.L17:
 225:..\u8g2\csrc/u8x8_d_uc1604.c ****     {
 226:..\u8g2\csrc/u8x8_d_uc1604.c ****       case U8X8_MSG_DISPLAY_SETUP_MEMORY:
 227:..\u8g2\csrc/u8x8_d_uc1604.c **** 	u8x8_d_helper_display_setup_memory(u8x8, &u8x8_uc1604_192x64_display_info);
 249              		.loc 1 227 0
 250 0018 0849     		ldr	r1, .L21
 251 001a 2846     		mov	r0, r5
 252 001c FFF7FEFF 		bl	u8x8_d_helper_display_setup_memory
 253              	.LVL38:
 228:..\u8g2\csrc/u8x8_d_uc1604.c **** 	break;
 229:..\u8g2\csrc/u8x8_d_uc1604.c ****       case U8X8_MSG_DISPLAY_INIT:
 230:..\u8g2\csrc/u8x8_d_uc1604.c **** 	u8x8_d_helper_display_init(u8x8);
 231:..\u8g2\csrc/u8x8_d_uc1604.c **** 	u8x8_cad_SendSequence(u8x8, u8x8_d_uc1604_jlx19264_init_seq);
 232:..\u8g2\csrc/u8x8_d_uc1604.c **** 	break;
 233:..\u8g2\csrc/u8x8_d_uc1604.c ****       default:
 234:..\u8g2\csrc/u8x8_d_uc1604.c **** 	return 0;		/* msg unknown */
 235:..\u8g2\csrc/u8x8_d_uc1604.c ****     }
 236:..\u8g2\csrc/u8x8_d_uc1604.c ****   }
 237:..\u8g2\csrc/u8x8_d_uc1604.c ****   return 1;
 254              		.loc 1 237 0
 255 0020 0123     		movs	r3, #1
 228:..\u8g2\csrc/u8x8_d_uc1604.c **** 	break;
 256              		.loc 1 228 0
 257 0022 09E0     		b	.L16
 258              	.L18:
 230:..\u8g2\csrc/u8x8_d_uc1604.c **** 	u8x8_cad_SendSequence(u8x8, u8x8_d_uc1604_jlx19264_init_seq);
 259              		.loc 1 230 0
ARM GAS  C:\Users\brian\AppData\Local\Temp\ccziuwtv.s 			page 10


 260 0024 2846     		mov	r0, r5
 261 0026 FFF7FEFF 		bl	u8x8_d_helper_display_init
 262              	.LVL39:
 231:..\u8g2\csrc/u8x8_d_uc1604.c **** 	break;
 263              		.loc 1 231 0
 264 002a 0549     		ldr	r1, .L21+4
 265 002c 2846     		mov	r0, r5
 266 002e FFF7FEFF 		bl	u8x8_cad_SendSequence
 267              	.LVL40:
 268              		.loc 1 237 0
 269 0032 0123     		movs	r3, #1
 232:..\u8g2\csrc/u8x8_d_uc1604.c ****       default:
 270              		.loc 1 232 0
 271 0034 00E0     		b	.L16
 272              	.L19:
 273              		.loc 1 237 0
 274 0036 0123     		movs	r3, #1
 275              	.L16:
 238:..\u8g2\csrc/u8x8_d_uc1604.c **** }
 276              		.loc 1 238 0
 277 0038 1846     		mov	r0, r3
 278 003a 38BD     		pop	{r3, r4, r5, pc}
 279              	.LVL41:
 280              	.L22:
 281              		.align	2
 282              	.L21:
 283 003c 28000000 		.word	.LANCHOR0+40
 284 0040 40000000 		.word	.LANCHOR0+64
 285              		.cfi_endproc
 286              	.LFE1:
 287              		.size	u8x8_d_uc1604_jlx19264, .-u8x8_d_uc1604_jlx19264
 288              		.section	.rodata
 289              		.align	2
 290              		.set	.LANCHOR0,. + 0
 291              		.type	u8x8_d_uc1604_powersave0_seq, %object
 292              		.size	u8x8_d_uc1604_powersave0_seq, 13
 293              	u8x8_d_uc1604_powersave0_seq:
 294 0000 18       		.byte	24
 295 0001 FE       		.byte	-2
 296 0002 14       		.byte	20
 297 0003 15       		.byte	21
 298 0004 AF       		.byte	-81
 299 0005 FE       		.byte	-2
 300 0006 14       		.byte	20
 301 0007 15       		.byte	21
 302 0008 AF       		.byte	-81
 303 0009 FE       		.byte	-2
 304 000a 32       		.byte	50
 305 000b 19       		.byte	25
 306 000c FF       		.byte	-1
 307 000d 000000   		.space	3
 308              		.type	u8x8_d_uc1604_powersave1_seq, %object
 309              		.size	u8x8_d_uc1604_powersave1_seq, 5
 310              	u8x8_d_uc1604_powersave1_seq:
 311 0010 18       		.byte	24
 312 0011 15       		.byte	21
 313 0012 AE       		.byte	-82
ARM GAS  C:\Users\brian\AppData\Local\Temp\ccziuwtv.s 			page 11


 314 0013 19       		.byte	25
 315 0014 FF       		.byte	-1
 316 0015 000000   		.space	3
 317              		.type	u8x8_d_uc1604_flip0_seq, %object
 318              		.size	u8x8_d_uc1604_flip0_seq, 5
 319              	u8x8_d_uc1604_flip0_seq:
 320 0018 18       		.byte	24
 321 0019 15       		.byte	21
 322 001a C4       		.byte	-60
 323 001b 19       		.byte	25
 324 001c FF       		.byte	-1
 325 001d 000000   		.space	3
 326              		.type	u8x8_d_uc1604_flip1_seq, %object
 327              		.size	u8x8_d_uc1604_flip1_seq, 5
 328              	u8x8_d_uc1604_flip1_seq:
 329 0020 18       		.byte	24
 330 0021 15       		.byte	21
 331 0022 C2       		.byte	-62
 332 0023 19       		.byte	25
 333 0024 FF       		.byte	-1
 334 0025 000000   		.space	3
 335              		.type	u8x8_uc1604_192x64_display_info, %object
 336              		.size	u8x8_uc1604_192x64_display_info, 24
 337              	u8x8_uc1604_192x64_display_info:
 338 0028 00       		.byte	0
 339 0029 01       		.byte	1
 340 002a 14       		.byte	20
 341 002b 14       		.byte	20
 342 002c 01       		.byte	1
 343 002d 0A       		.byte	10
 344 002e 1E       		.byte	30
 345 002f 41       		.byte	65
 346 0030 00127A00 		.word	8000000
 347 0034 00       		.byte	0
 348 0035 04       		.byte	4
 349 0036 1E       		.byte	30
 350 0037 23       		.byte	35
 351 0038 18       		.byte	24
 352 0039 08       		.byte	8
 353 003a 00       		.byte	0
 354 003b 00       		.byte	0
 355 003c C000     		.short	192
 356 003e 4000     		.short	64
 357              		.type	u8x8_d_uc1604_jlx19264_init_seq, %object
 358              		.size	u8x8_d_uc1604_jlx19264_init_seq, 35
 359              	u8x8_d_uc1604_jlx19264_init_seq:
 360 0040 18       		.byte	24
 361 0041 15       		.byte	21
 362 0042 E2       		.byte	-30
 363 0043 FE       		.byte	-2
 364 0044 C8       		.byte	-56
 365 0045 FE       		.byte	-2
 366 0046 C8       		.byte	-56
 367 0047 15       		.byte	21
 368 0048 2F       		.byte	47
 369 0049 FE       		.byte	-2
 370 004a C8       		.byte	-56
ARM GAS  C:\Users\brian\AppData\Local\Temp\ccziuwtv.s 			page 12


 371 004b FE       		.byte	-2
 372 004c C8       		.byte	-56
 373 004d 15       		.byte	21
 374 004e 81       		.byte	-127
 375 004f 16       		.byte	22
 376 0050 52       		.byte	82
 377 0051 15       		.byte	21
 378 0052 EB       		.byte	-21
 379 0053 15       		.byte	21
 380 0054 C4       		.byte	-60
 381 0055 15       		.byte	21
 382 0056 A0       		.byte	-96
 383 0057 15       		.byte	21
 384 0058 40       		.byte	64
 385 0059 15       		.byte	21
 386 005a 89       		.byte	-119
 387 005b 15       		.byte	21
 388 005c 00       		.byte	0
 389 005d 15       		.byte	21
 390 005e 10       		.byte	16
 391 005f 15       		.byte	21
 392 0060 B0       		.byte	-80
 393 0061 19       		.byte	25
 394 0062 FF       		.byte	-1
 395              		.text
 396              	.Letext0:
 397              		.file 2 "c:\\program files (x86)\\cypress\\psoc creator\\4.4\\psoc creator\\import\\gnu\\arm\\5.4.
 398              		.file 3 "c:\\program files (x86)\\cypress\\psoc creator\\4.4\\psoc creator\\import\\gnu\\arm\\5.4.
 399              		.file 4 "..\\u8g2\\csrc\\u8x8.h"