ARM GAS  C:\Users\brian\AppData\Local\Temp\ccGap93a.s 			page 1


   1              		.syntax unified
   2              		.cpu cortex-m3
   3              		.fpu softvfp
   4              		.eabi_attribute 20, 1
   5              		.eabi_attribute 21, 1
   6              		.eabi_attribute 23, 3
   7              		.eabi_attribute 24, 1
   8              		.eabi_attribute 25, 1
   9              		.eabi_attribute 26, 1
  10              		.eabi_attribute 30, 1
  11              		.eabi_attribute 34, 1
  12              		.eabi_attribute 18, 4
  13              		.thumb
  14              		.syntax unified
  15              		.file	"u8x8_u16toa.c"
  16              		.text
  17              	.Ltext0:
  18              		.cfi_sections	.debug_frame
  19              		.section	.text.u8x8_u16toap,"ax",%progbits
  20              		.align	2
  21              		.global	u8x8_u16toap
  22              		.thumb
  23              		.thumb_func
  24              		.type	u8x8_u16toap, %function
  25              	u8x8_u16toap:
  26              	.LFB0:
  27              		.file 1 "..\\u8g2\\csrc\\u8x8_u16toa.c"
   1:..\u8g2\csrc/u8x8_u16toa.c **** /*
   2:..\u8g2\csrc/u8x8_u16toa.c **** 
   3:..\u8g2\csrc/u8x8_u16toa.c ****   u8x8_u16toa.c
   4:..\u8g2\csrc/u8x8_u16toa.c **** 
   5:..\u8g2\csrc/u8x8_u16toa.c ****   Universal 8bit Graphics Library (https://github.com/olikraus/u8g2/)
   6:..\u8g2\csrc/u8x8_u16toa.c **** 
   7:..\u8g2\csrc/u8x8_u16toa.c ****   Copyright (c) 2016, olikraus@gmail.com
   8:..\u8g2\csrc/u8x8_u16toa.c ****   All rights reserved.
   9:..\u8g2\csrc/u8x8_u16toa.c **** 
  10:..\u8g2\csrc/u8x8_u16toa.c ****   Redistribution and use in source and binary forms, with or without modification, 
  11:..\u8g2\csrc/u8x8_u16toa.c ****   are permitted provided that the following conditions are met:
  12:..\u8g2\csrc/u8x8_u16toa.c **** 
  13:..\u8g2\csrc/u8x8_u16toa.c ****   * Redistributions of source code must retain the above copyright notice, this list 
  14:..\u8g2\csrc/u8x8_u16toa.c ****     of conditions and the following disclaimer.
  15:..\u8g2\csrc/u8x8_u16toa.c ****     
  16:..\u8g2\csrc/u8x8_u16toa.c ****   * Redistributions in binary form must reproduce the above copyright notice, this 
  17:..\u8g2\csrc/u8x8_u16toa.c ****     list of conditions and the following disclaimer in the documentation and/or other 
  18:..\u8g2\csrc/u8x8_u16toa.c ****     materials provided with the distribution.
  19:..\u8g2\csrc/u8x8_u16toa.c **** 
  20:..\u8g2\csrc/u8x8_u16toa.c ****   THIS SOFTWARE IS PROVIDED BY THE COPYRIGHT HOLDERS AND 
  21:..\u8g2\csrc/u8x8_u16toa.c ****   CONTRIBUTORS "AS IS" AND ANY EXPRESS OR IMPLIED WARRANTIES, 
  22:..\u8g2\csrc/u8x8_u16toa.c ****   INCLUDING, BUT NOT LIMITED TO, THE IMPLIED WARRANTIES OF 
  23:..\u8g2\csrc/u8x8_u16toa.c ****   MERCHANTABILITY AND FITNESS FOR A PARTICULAR PURPOSE ARE 
  24:..\u8g2\csrc/u8x8_u16toa.c ****   DISCLAIMED. IN NO EVENT SHALL THE COPYRIGHT HOLDER OR 
  25:..\u8g2\csrc/u8x8_u16toa.c ****   CONTRIBUTORS BE LIABLE FOR ANY DIRECT, INDIRECT, INCIDENTAL, 
  26:..\u8g2\csrc/u8x8_u16toa.c ****   SPECIAL, EXEMPLARY, OR CONSEQUENTIAL DAMAGES (INCLUDING, BUT 
  27:..\u8g2\csrc/u8x8_u16toa.c ****   NOT LIMITED TO, PROCUREMENT OF SUBSTITUTE GOODS OR SERVICES; 
  28:..\u8g2\csrc/u8x8_u16toa.c ****   LOSS OF USE, DATA, OR PROFITS; OR BUSINESS INTERRUPTION) HOWEVER 
  29:..\u8g2\csrc/u8x8_u16toa.c ****   CAUSED AND ON ANY THEORY OF LIABILITY, WHETHER IN CONTRACT, 
  30:..\u8g2\csrc/u8x8_u16toa.c ****   STRICT LIABILITY, OR TORT (INCLUDING NEGLIGENCE OR OTHERWISE) 
ARM GAS  C:\Users\brian\AppData\Local\Temp\ccGap93a.s 			page 2


  31:..\u8g2\csrc/u8x8_u16toa.c ****   ARISING IN ANY WAY OUT OF THE USE OF THIS SOFTWARE, EVEN IF 
  32:..\u8g2\csrc/u8x8_u16toa.c ****   ADVISED OF THE POSSIBILITY OF SUCH DAMAGE.  
  33:..\u8g2\csrc/u8x8_u16toa.c **** 
  34:..\u8g2\csrc/u8x8_u16toa.c ****   
  35:..\u8g2\csrc/u8x8_u16toa.c **** */
  36:..\u8g2\csrc/u8x8_u16toa.c **** 
  37:..\u8g2\csrc/u8x8_u16toa.c **** 
  38:..\u8g2\csrc/u8x8_u16toa.c **** #include "u8x8.h"
  39:..\u8g2\csrc/u8x8_u16toa.c **** 
  40:..\u8g2\csrc/u8x8_u16toa.c **** const char *u8x8_u16toap(char * dest, uint16_t v)
  41:..\u8g2\csrc/u8x8_u16toa.c **** {
  28              		.loc 1 41 0
  29              		.cfi_startproc
  30              		@ args = 0, pretend = 0, frame = 0
  31              		@ frame_needed = 0, uses_anonymous_args = 0
  32              		@ link register save eliminated.
  33              	.LVL0:
  34 0000 10B4     		push	{r4}
  35              		.cfi_def_cfa_offset 4
  36              		.cfi_offset 4, -4
  37              	.LVL1:
  42:..\u8g2\csrc/u8x8_u16toa.c ****   uint8_t pos;
  43:..\u8g2\csrc/u8x8_u16toa.c ****   uint8_t d;
  44:..\u8g2\csrc/u8x8_u16toa.c ****   uint16_t c;
  45:..\u8g2\csrc/u8x8_u16toa.c ****   c = 10000;
  38              		.loc 1 45 0
  39 0002 42F21072 		movw	r2, #10000
  46:..\u8g2\csrc/u8x8_u16toa.c ****   for( pos = 0; pos < 5; pos++ )
  40              		.loc 1 46 0
  41 0006 0024     		movs	r4, #0
  42 0008 0EE0     		b	.L2
  43              	.LVL2:
  44              	.L3:
  47:..\u8g2\csrc/u8x8_u16toa.c ****   {
  48:..\u8g2\csrc/u8x8_u16toa.c ****       d = '0';
  49:..\u8g2\csrc/u8x8_u16toa.c ****       while( v >= c )
  50:..\u8g2\csrc/u8x8_u16toa.c ****       {
  51:..\u8g2\csrc/u8x8_u16toa.c **** 	v -= c;
  45              		.loc 1 51 0
  46 000a 891A     		subs	r1, r1, r2
  47              	.LVL3:
  48 000c 89B2     		uxth	r1, r1
  49              	.LVL4:
  52:..\u8g2\csrc/u8x8_u16toa.c **** 	d++;
  50              		.loc 1 52 0
  51 000e 0133     		adds	r3, r3, #1
  52              	.LVL5:
  53 0010 DBB2     		uxtb	r3, r3
  54              	.LVL6:
  55 0012 00E0     		b	.L4
  56              	.LVL7:
  57              	.L5:
  58 0014 3023     		movs	r3, #48
  59              	.L4:
  60              	.LVL8:
  49:..\u8g2\csrc/u8x8_u16toa.c ****       {
  61              		.loc 1 49 0
ARM GAS  C:\Users\brian\AppData\Local\Temp\ccGap93a.s 			page 3


  62 0016 9142     		cmp	r1, r2
  63 0018 F7D2     		bcs	.L3
  53:..\u8g2\csrc/u8x8_u16toa.c ****       }
  54:..\u8g2\csrc/u8x8_u16toa.c ****       dest[pos] = d;
  64              		.loc 1 54 0 discriminator 2
  65 001a 0355     		strb	r3, [r0, r4]
  55:..\u8g2\csrc/u8x8_u16toa.c ****       c /= 10;
  66              		.loc 1 55 0 discriminator 2
  67 001c 054B     		ldr	r3, .L7
  68              	.LVL9:
  69 001e A3FB0232 		umull	r3, r2, r3, r2
  70              	.LVL10:
  71 0022 D208     		lsrs	r2, r2, #3
  72              	.LVL11:
  46:..\u8g2\csrc/u8x8_u16toa.c ****   {
  73              		.loc 1 46 0 discriminator 2
  74 0024 0134     		adds	r4, r4, #1
  75              	.LVL12:
  76 0026 E4B2     		uxtb	r4, r4
  77              	.LVL13:
  78              	.L2:
  46:..\u8g2\csrc/u8x8_u16toa.c ****   {
  79              		.loc 1 46 0 is_stmt 0 discriminator 1
  80 0028 042C     		cmp	r4, #4
  81 002a F3D9     		bls	.L5
  56:..\u8g2\csrc/u8x8_u16toa.c ****   }  
  57:..\u8g2\csrc/u8x8_u16toa.c ****   dest[5] = '\0';
  82              		.loc 1 57 0 is_stmt 1
  83 002c 0023     		movs	r3, #0
  84 002e 4371     		strb	r3, [r0, #5]
  58:..\u8g2\csrc/u8x8_u16toa.c ****   return dest;
  59:..\u8g2\csrc/u8x8_u16toa.c **** }
  85              		.loc 1 59 0
  86 0030 10BC     		pop	{r4}
  87              		.cfi_restore 4
  88              		.cfi_def_cfa_offset 0
  89              	.LVL14:
  90 0032 7047     		bx	lr
  91              	.L8:
  92              		.align	2
  93              	.L7:
  94 0034 CDCCCCCC 		.word	-858993459
  95              		.cfi_endproc
  96              	.LFE0:
  97              		.size	u8x8_u16toap, .-u8x8_u16toap
  98              		.section	.text.u8x8_u16toa,"ax",%progbits
  99              		.align	2
 100              		.global	u8x8_u16toa
 101              		.thumb
 102              		.thumb_func
 103              		.type	u8x8_u16toa, %function
 104              	u8x8_u16toa:
 105              	.LFB1:
  60:..\u8g2\csrc/u8x8_u16toa.c **** 
  61:..\u8g2\csrc/u8x8_u16toa.c **** /* v = value, d = number of digits */
  62:..\u8g2\csrc/u8x8_u16toa.c **** const char *u8x8_u16toa(uint16_t v, uint8_t d)
  63:..\u8g2\csrc/u8x8_u16toa.c **** {
ARM GAS  C:\Users\brian\AppData\Local\Temp\ccGap93a.s 			page 4


 106              		.loc 1 63 0
 107              		.cfi_startproc
 108              		@ args = 0, pretend = 0, frame = 0
 109              		@ frame_needed = 0, uses_anonymous_args = 0
 110              	.LVL15:
 111 0000 10B5     		push	{r4, lr}
 112              		.cfi_def_cfa_offset 8
 113              		.cfi_offset 4, -8
 114              		.cfi_offset 14, -4
  64:..\u8g2\csrc/u8x8_u16toa.c ****   static char buf[6];
  65:..\u8g2\csrc/u8x8_u16toa.c ****   d = 5-d;
 115              		.loc 1 65 0
 116 0002 C1F10501 		rsb	r1, r1, #5
 117              	.LVL16:
 118 0006 CCB2     		uxtb	r4, r1
 119              	.LVL17:
  66:..\u8g2\csrc/u8x8_u16toa.c ****   return u8x8_u16toap(buf, v) + d;
 120              		.loc 1 66 0
 121 0008 0146     		mov	r1, r0
 122 000a 0248     		ldr	r0, .L11
 123              	.LVL18:
 124 000c FFF7FEFF 		bl	u8x8_u16toap
 125              	.LVL19:
  67:..\u8g2\csrc/u8x8_u16toa.c **** }
 126              		.loc 1 67 0
 127 0010 2044     		add	r0, r0, r4
 128 0012 10BD     		pop	{r4, pc}
 129              	.LVL20:
 130              	.L12:
 131              		.align	2
 132              	.L11:
 133 0014 00000000 		.word	.LANCHOR0
 134              		.cfi_endproc
 135              	.LFE1:
 136              		.size	u8x8_u16toa, .-u8x8_u16toa
 137              		.section	.text.u8x8_utoa,"ax",%progbits
 138              		.align	2
 139              		.global	u8x8_utoa
 140              		.thumb
 141              		.thumb_func
 142              		.type	u8x8_utoa, %function
 143              	u8x8_utoa:
 144              	.LFB2:
  68:..\u8g2\csrc/u8x8_u16toa.c **** 
  69:..\u8g2\csrc/u8x8_u16toa.c **** const char *u8x8_utoa(uint16_t v)
  70:..\u8g2\csrc/u8x8_u16toa.c **** {
 145              		.loc 1 70 0
 146              		.cfi_startproc
 147              		@ args = 0, pretend = 0, frame = 0
 148              		@ frame_needed = 0, uses_anonymous_args = 0
 149              	.LVL21:
 150 0000 08B5     		push	{r3, lr}
 151              		.cfi_def_cfa_offset 8
 152              		.cfi_offset 3, -8
 153              		.cfi_offset 14, -4
  71:..\u8g2\csrc/u8x8_u16toa.c ****   const char *s = u8x8_u16toa(v, 5);
 154              		.loc 1 71 0
ARM GAS  C:\Users\brian\AppData\Local\Temp\ccGap93a.s 			page 5


 155 0002 0521     		movs	r1, #5
 156 0004 FFF7FEFF 		bl	u8x8_u16toa
 157              	.LVL22:
  72:..\u8g2\csrc/u8x8_u16toa.c ****   while( *s == '0' )
 158              		.loc 1 72 0
 159 0008 00E0     		b	.L14
 160              	.L15:
  73:..\u8g2\csrc/u8x8_u16toa.c ****     s++;
 161              		.loc 1 73 0
 162 000a 0130     		adds	r0, r0, #1
 163              	.LVL23:
 164              	.L14:
  72:..\u8g2\csrc/u8x8_u16toa.c ****   while( *s == '0' )
 165              		.loc 1 72 0
 166 000c 0378     		ldrb	r3, [r0]	@ zero_extendqisi2
 167 000e 302B     		cmp	r3, #48
 168 0010 FBD0     		beq	.L15
  74:..\u8g2\csrc/u8x8_u16toa.c ****   if ( *s == '\0' )
 169              		.loc 1 74 0
 170 0012 03B9     		cbnz	r3, .L16
  75:..\u8g2\csrc/u8x8_u16toa.c ****     s--;
 171              		.loc 1 75 0
 172 0014 0138     		subs	r0, r0, #1
 173              	.LVL24:
 174              	.L16:
  76:..\u8g2\csrc/u8x8_u16toa.c ****   return s;
  77:..\u8g2\csrc/u8x8_u16toa.c **** }...
 175              		.loc 1 77 0
 176 0016 08BD     		pop	{r3, pc}
 177              		.cfi_endproc
 178              	.LFE2:
 179              		.size	u8x8_utoa, .-u8x8_utoa
 180              		.bss
 181              		.align	2
 182              		.set	.LANCHOR0,. + 0
 183              		.type	buf.5696, %object
 184              		.size	buf.5696, 6
 185              	buf.5696:
 186 0000 00000000 		.space	6
 186      0000
 187              		.text
 188              	.Letext0:
 189              		.file 2 "c:\\program files (x86)\\cypress\\psoc creator\\4.4\\psoc creator\\import\\gnu\\arm\\5.4.
 190              		.file 3 "c:\\program files (x86)\\cypress\\psoc creator\\4.4\\psoc creator\\import\\gnu\\arm\\5.4.