ARM GAS  C:\Users\brian\AppData\Local\Temp\cc9zPYWY.s 			page 1


   1              		.syntax unified
   2              		.cpu cortex-m3
   3              		.fpu softvfp
   4              		.eabi_attribute 20, 1
   5              		.eabi_attribute 21, 1
   6              		.eabi_attribute 23, 3
   7              		.eabi_attribute 24, 1
   8              		.eabi_attribute 25, 1
   9              		.eabi_attribute 26, 1
  10              		.eabi_attribute 30, 1
  11              		.eabi_attribute 34, 1
  12              		.eabi_attribute 18, 4
  13              		.thumb
  14              		.syntax unified
  15              		.file	"u8x8_d_st7511.c"
  16              		.text
  17              	.Ltext0:
  18              		.cfi_sections	.debug_frame
  19              		.section	.text.u8x8_d_st7511_avd_320x240,"ax",%progbits
  20              		.align	2
  21              		.global	u8x8_d_st7511_avd_320x240
  22              		.thumb
  23              		.thumb_func
  24              		.type	u8x8_d_st7511_avd_320x240, %function
  25              	u8x8_d_st7511_avd_320x240:
  26              	.LFB0:
  27              		.file 1 "..\\u8g2\\csrc\\u8x8_d_st7511.c"
   1:..\u8g2\csrc/u8x8_d_st7511.c **** /*
   2:..\u8g2\csrc/u8x8_d_st7511.c **** 
   3:..\u8g2\csrc/u8x8_d_st7511.c ****   u8x8_d_st7511.c
   4:..\u8g2\csrc/u8x8_d_st7511.c ****   
   5:..\u8g2\csrc/u8x8_d_st7511.c ****   Universal 8bit Graphics Library (https://github.com/olikraus/u8g2/)
   6:..\u8g2\csrc/u8x8_d_st7511.c **** 
   7:..\u8g2\csrc/u8x8_d_st7511.c ****   Copyright (c) 2019, olikraus@gmail.com
   8:..\u8g2\csrc/u8x8_d_st7511.c ****   All rights reserved.
   9:..\u8g2\csrc/u8x8_d_st7511.c **** 
  10:..\u8g2\csrc/u8x8_d_st7511.c ****   Redistribution and use in source and binary forms, with or without modification, 
  11:..\u8g2\csrc/u8x8_d_st7511.c ****   are permitted provided that the following conditions are met:
  12:..\u8g2\csrc/u8x8_d_st7511.c **** 
  13:..\u8g2\csrc/u8x8_d_st7511.c ****   * Redistributions of source code must retain the above copyright notice, this list 
  14:..\u8g2\csrc/u8x8_d_st7511.c ****     of conditions and the following disclaimer.
  15:..\u8g2\csrc/u8x8_d_st7511.c ****     
  16:..\u8g2\csrc/u8x8_d_st7511.c ****   * Redistributions in binary form must reproduce the above copyright notice, this 
  17:..\u8g2\csrc/u8x8_d_st7511.c ****     list of conditions and the following disclaimer in the documentation and/or other 
  18:..\u8g2\csrc/u8x8_d_st7511.c ****     materials provided with the distribution.
  19:..\u8g2\csrc/u8x8_d_st7511.c **** 
  20:..\u8g2\csrc/u8x8_d_st7511.c ****   THIS SOFTWARE IS PROVIDED BY THE COPYRIGHT HOLDERS AND 
  21:..\u8g2\csrc/u8x8_d_st7511.c ****   CONTRIBUTORS "AS IS" AND ANY EXPRESS OR IMPLIED WARRANTIES, 
  22:..\u8g2\csrc/u8x8_d_st7511.c ****   INCLUDING, BUT NOT LIMITED TO, THE IMPLIED WARRANTIES OF 
  23:..\u8g2\csrc/u8x8_d_st7511.c ****   MERCHANTABILITY AND FITNESS FOR A PARTICULAR PURPOSE ARE 
  24:..\u8g2\csrc/u8x8_d_st7511.c ****   DISCLAIMED. IN NO EVENT SHALL THE COPYRIGHT HOLDER OR 
  25:..\u8g2\csrc/u8x8_d_st7511.c ****   CONTRIBUTORS BE LIABLE FOR ANY DIRECT, INDIRECT, INCIDENTAL, 
  26:..\u8g2\csrc/u8x8_d_st7511.c ****   SPECIAL, EXEMPLARY, OR CONSEQUENTIAL DAMAGES (INCLUDING, BUT 
  27:..\u8g2\csrc/u8x8_d_st7511.c ****   NOT LIMITED TO, PROCUREMENT OF SUBSTITUTE GOODS OR SERVICES; 
  28:..\u8g2\csrc/u8x8_d_st7511.c ****   LOSS OF USE, DATA, OR PROFITS; OR BUSINESS INTERRUPTION) HOWEVER 
  29:..\u8g2\csrc/u8x8_d_st7511.c ****   CAUSED AND ON ANY THEORY OF LIABILITY, WHETHER IN CONTRACT, 
  30:..\u8g2\csrc/u8x8_d_st7511.c ****   STRICT LIABILITY, OR TORT (INCLUDING NEGLIGENCE OR OTHERWISE) 
ARM GAS  C:\Users\brian\AppData\Local\Temp\cc9zPYWY.s 			page 2


  31:..\u8g2\csrc/u8x8_d_st7511.c ****   ARISING IN ANY WAY OUT OF THE USE OF THIS SOFTWARE, EVEN IF 
  32:..\u8g2\csrc/u8x8_d_st7511.c ****   ADVISED OF THE POSSIBILITY OF SUCH DAMAGE.  
  33:..\u8g2\csrc/u8x8_d_st7511.c **** 
  34:..\u8g2\csrc/u8x8_d_st7511.c **** 
  35:..\u8g2\csrc/u8x8_d_st7511.c ****   20 May 2019:
  36:..\u8g2\csrc/u8x8_d_st7511.c ****   https://github.com/olikraus/u8g2/issues/876
  37:..\u8g2\csrc/u8x8_d_st7511.c ****   Probably HW Flip does not work 
  38:..\u8g2\csrc/u8x8_d_st7511.c **** 
  39:..\u8g2\csrc/u8x8_d_st7511.c ****   
  40:..\u8g2\csrc/u8x8_d_st7511.c **** */
  41:..\u8g2\csrc/u8x8_d_st7511.c **** #include "u8x8.h"
  42:..\u8g2\csrc/u8x8_d_st7511.c **** 
  43:..\u8g2\csrc/u8x8_d_st7511.c **** 
  44:..\u8g2\csrc/u8x8_d_st7511.c **** 
  45:..\u8g2\csrc/u8x8_d_st7511.c **** 
  46:..\u8g2\csrc/u8x8_d_st7511.c **** static const uint8_t u8x8_d_st7511_320x240_powersave0_seq[] = {
  47:..\u8g2\csrc/u8x8_d_st7511.c ****   U8X8_START_TRANSFER(),             	/* enable chip, delay is part of the transfer start */
  48:..\u8g2\csrc/u8x8_d_st7511.c ****   U8X8_CA(0x015, 0x0a5),		/* display on */
  49:..\u8g2\csrc/u8x8_d_st7511.c ****   U8X8_END_TRANSFER(),             	/* disable chip */
  50:..\u8g2\csrc/u8x8_d_st7511.c ****   U8X8_END()             			/* end of sequence */
  51:..\u8g2\csrc/u8x8_d_st7511.c **** };
  52:..\u8g2\csrc/u8x8_d_st7511.c **** 
  53:..\u8g2\csrc/u8x8_d_st7511.c **** static const uint8_t u8x8_d_st7511_320x240_powersave1_seq[] = {
  54:..\u8g2\csrc/u8x8_d_st7511.c ****   U8X8_START_TRANSFER(),             	/* enable chip, delay is part of the transfer start */
  55:..\u8g2\csrc/u8x8_d_st7511.c ****   U8X8_CA(0x014, 0x0a5),		/* display off */
  56:..\u8g2\csrc/u8x8_d_st7511.c ****   // maybe use sleep mode here, but it not clear whether sleep mode will reset all the settings
  57:..\u8g2\csrc/u8x8_d_st7511.c ****   U8X8_END_TRANSFER(),             	/* disable chip */
  58:..\u8g2\csrc/u8x8_d_st7511.c ****   U8X8_END()             			/* end of sequence */
  59:..\u8g2\csrc/u8x8_d_st7511.c **** };
  60:..\u8g2\csrc/u8x8_d_st7511.c **** 
  61:..\u8g2\csrc/u8x8_d_st7511.c **** static const uint8_t u8x8_d_st7511_320x240_flip0_seq[] = {
  62:..\u8g2\csrc/u8x8_d_st7511.c ****   U8X8_START_TRANSFER(),             	/* enable chip, delay is part of the transfer start */
  63:..\u8g2\csrc/u8x8_d_st7511.c ****   U8X8_CAAAA(0x24, 0x01, 0xa5, 0xa5, 0xa5),		/* memory control directions */
  64:..\u8g2\csrc/u8x8_d_st7511.c ****   U8X8_END_TRANSFER(),             	/* disable chip */
  65:..\u8g2\csrc/u8x8_d_st7511.c ****   U8X8_END()             			/* end of sequence */
  66:..\u8g2\csrc/u8x8_d_st7511.c **** };
  67:..\u8g2\csrc/u8x8_d_st7511.c **** 
  68:..\u8g2\csrc/u8x8_d_st7511.c **** static const uint8_t u8x8_d_st7511_320x240_flip1_seq[] = {
  69:..\u8g2\csrc/u8x8_d_st7511.c ****   U8X8_START_TRANSFER(),             	/* enable chip, delay is part of the transfer start */
  70:..\u8g2\csrc/u8x8_d_st7511.c ****   U8X8_CAAAA(0x24, 0x02, 0xa5, 0xa5, 0xa5),		/* memory control directions */
  71:..\u8g2\csrc/u8x8_d_st7511.c ****   U8X8_END_TRANSFER(),             	/* disable chip */
  72:..\u8g2\csrc/u8x8_d_st7511.c ****   U8X8_END()             			/* end of sequence */
  73:..\u8g2\csrc/u8x8_d_st7511.c **** };
  74:..\u8g2\csrc/u8x8_d_st7511.c **** 
  75:..\u8g2\csrc/u8x8_d_st7511.c **** 
  76:..\u8g2\csrc/u8x8_d_st7511.c **** 
  77:..\u8g2\csrc/u8x8_d_st7511.c **** /*=====================================================*/
  78:..\u8g2\csrc/u8x8_d_st7511.c **** /* AV-Display: AVD-TM57QV-NW-001-B, issue 876 */
  79:..\u8g2\csrc/u8x8_d_st7511.c **** 
  80:..\u8g2\csrc/u8x8_d_st7511.c **** static const u8x8_display_info_t u8x8_st7511_320x240_display_info =
  81:..\u8g2\csrc/u8x8_d_st7511.c **** {
  82:..\u8g2\csrc/u8x8_d_st7511.c ****   /* chip_enable_level = */ 0,
  83:..\u8g2\csrc/u8x8_d_st7511.c ****   /* chip_disable_level = */ 1,
  84:..\u8g2\csrc/u8x8_d_st7511.c ****   
  85:..\u8g2\csrc/u8x8_d_st7511.c ****   /* post_chip_enable_wait_ns = */ 150,	/* ST7511 Datasheet */
  86:..\u8g2\csrc/u8x8_d_st7511.c ****   /* pre_chip_disable_wait_ns = */ 150,	/* ST7511 Datasheet */
  87:..\u8g2\csrc/u8x8_d_st7511.c ****   /* reset_pulse_width_ms = */ 1, 
ARM GAS  C:\Users\brian\AppData\Local\Temp\cc9zPYWY.s 			page 3


  88:..\u8g2\csrc/u8x8_d_st7511.c ****   /* post_reset_wait_ms = */ 1, 
  89:..\u8g2\csrc/u8x8_d_st7511.c ****   /* sda_setup_time_ns = */ 120,		/* ST7511 Datasheet */
  90:..\u8g2\csrc/u8x8_d_st7511.c ****   /* sck_pulse_width_ns = */ 150,	/* ST7511 Datasheet */
  91:..\u8g2\csrc/u8x8_d_st7511.c ****   /* sck_clock_hz = */ 3300000UL,	/* ST7511 Datasheet: 300ns cycle */
  92:..\u8g2\csrc/u8x8_d_st7511.c ****   /* spi_mode = */ 0,		/* active high, rising edge */
  93:..\u8g2\csrc/u8x8_d_st7511.c ****   /* i2c_bus_clock_100kHz = */ 4,
  94:..\u8g2\csrc/u8x8_d_st7511.c ****   /* data_setup_time_ns = */ 200,	/* */
  95:..\u8g2\csrc/u8x8_d_st7511.c ****   /* write_pulse_width_ns = */ 250,	/* ST7511 Datasheet: 500ns */
  96:..\u8g2\csrc/u8x8_d_st7511.c ****   /* tile_width = */ 40,		/* width of 17*8=136 pixel */
  97:..\u8g2\csrc/u8x8_d_st7511.c ****   /* tile_hight = */ 30,
  98:..\u8g2\csrc/u8x8_d_st7511.c ****   /* default_x_offset = */ 160,
  99:..\u8g2\csrc/u8x8_d_st7511.c ****   /* flipmode_x_offset = */ 0,
 100:..\u8g2\csrc/u8x8_d_st7511.c ****   /* pixel_width = */ 320,
 101:..\u8g2\csrc/u8x8_d_st7511.c ****   /* pixel_height = */ 240
 102:..\u8g2\csrc/u8x8_d_st7511.c **** };
 103:..\u8g2\csrc/u8x8_d_st7511.c **** 
 104:..\u8g2\csrc/u8x8_d_st7511.c **** static const uint8_t u8x8_d_st7511_320x240_init_seq[] = {
 105:..\u8g2\csrc/u8x8_d_st7511.c ****     
 106:..\u8g2\csrc/u8x8_d_st7511.c ****   U8X8_START_TRANSFER(),             	/* enable chip, delay is part of the transfer start */
 107:..\u8g2\csrc/u8x8_d_st7511.c ****   
 108:..\u8g2\csrc/u8x8_d_st7511.c ****   U8X8_CA(0xae, 0xa5),						/* SW Reset */
 109:..\u8g2\csrc/u8x8_d_st7511.c ****   U8X8_CAAAA(0x61, 0x0f, 0x04, 0x02, 0xa5),	/* all power on */
 110:..\u8g2\csrc/u8x8_d_st7511.c ****   U8X8_CAAAA(0x62, 0x0a, 0x06, 0x0f, 0xa5),	/* electronic volumne set 1 */
 111:..\u8g2\csrc/u8x8_d_st7511.c ****   U8X8_CAAAA(0x63, 0x0f, 0x0f, 0xa5, 0xa5),		/* electronic volumne set 2 */
 112:..\u8g2\csrc/u8x8_d_st7511.c ****   U8X8_CAAAA(0x66, 0x00, 0xa5, 0xa5, 0xa5),		/* electronic volumne set 2 */
 113:..\u8g2\csrc/u8x8_d_st7511.c ****   U8X8_CA(0x12, 0xa5),						/* SLeeP OUT */
 114:..\u8g2\csrc/u8x8_d_st7511.c ****   U8X8_DLY(50),
 115:..\u8g2\csrc/u8x8_d_st7511.c ****   // skiping display on here, deviation from https://github.com/olikraus/u8g2/issues/876
 116:..\u8g2\csrc/u8x8_d_st7511.c ****   // will be called later in u8x8_d_st7511_320x240_powersave0_seq
 117:..\u8g2\csrc/u8x8_d_st7511.c ****   U8X8_CAAAA(0x22, 0x00, 0xa5, 0xa5, 0xa5),		/* monochrome display */
 118:..\u8g2\csrc/u8x8_d_st7511.c ****   U8X8_CAAAA(0x24, 0x01, 0xa5, 0xa5, 0xa5),		/* memory control directions */
 119:..\u8g2\csrc/u8x8_d_st7511.c **** 
 120:..\u8g2\csrc/u8x8_d_st7511.c ****   U8X8_DLY(50),
 121:..\u8g2\csrc/u8x8_d_st7511.c ****   
 122:..\u8g2\csrc/u8x8_d_st7511.c ****   U8X8_END_TRANSFER(),             	/* disable chip */
 123:..\u8g2\csrc/u8x8_d_st7511.c ****   U8X8_END()             			/* end of sequence */
 124:..\u8g2\csrc/u8x8_d_st7511.c **** };
 125:..\u8g2\csrc/u8x8_d_st7511.c **** 
 126:..\u8g2\csrc/u8x8_d_st7511.c **** uint8_t u8x8_d_st7511_avd_320x240(u8x8_t *u8x8, uint8_t msg, uint8_t arg_int, void *arg_ptr)
 127:..\u8g2\csrc/u8x8_d_st7511.c **** {
  28              		.loc 1 127 0
  29              		.cfi_startproc
  30              		@ args = 0, pretend = 0, frame = 0
  31              		@ frame_needed = 0, uses_anonymous_args = 0
  32              	.LVL0:
  33 0000 2DE9F041 		push	{r4, r5, r6, r7, r8, lr}
  34              		.cfi_def_cfa_offset 24
  35              		.cfi_offset 4, -24
  36              		.cfi_offset 5, -20
  37              		.cfi_offset 6, -16
  38              		.cfi_offset 7, -12
  39              		.cfi_offset 8, -8
  40              		.cfi_offset 14, -4
  41 0004 0646     		mov	r6, r0
  42 0006 1746     		mov	r7, r2
  43 0008 9846     		mov	r8, r3
 128:..\u8g2\csrc/u8x8_d_st7511.c ****   uint16_t x, c;
ARM GAS  C:\Users\brian\AppData\Local\Temp\cc9zPYWY.s 			page 4


 129:..\u8g2\csrc/u8x8_d_st7511.c ****   uint8_t *ptr;
 130:..\u8g2\csrc/u8x8_d_st7511.c ****   switch(msg)
  44              		.loc 1 130 0
  45 000a 0939     		subs	r1, r1, #9
  46              	.LVL1:
  47 000c 0629     		cmp	r1, #6
  48 000e 05D8     		bhi	.L2
  49 0010 DFE801F0 		tbb	[pc, r1]
  50              	.LVL2:
  51              	.L4:
  52 0014 07       		.byte	(.L3-.L4)/2
  53 0015 0D       		.byte	(.L5-.L4)/2
  54 0016 16       		.byte	(.L6-.L4)/2
  55 0017 04       		.byte	(.L2-.L4)/2
  56 0018 23       		.byte	(.L7-.L4)/2
  57 0019 91       		.byte	(.L15-.L4)/2
  58 001a 38       		.byte	(.L9-.L4)/2
  59 001b 00       		.p2align 1
  60              	.L2:
 131:..\u8g2\csrc/u8x8_d_st7511.c ****   {
 132:..\u8g2\csrc/u8x8_d_st7511.c ****     case U8X8_MSG_DISPLAY_SETUP_MEMORY:
 133:..\u8g2\csrc/u8x8_d_st7511.c ****       u8x8_d_helper_display_setup_memory(u8x8, &u8x8_st7511_320x240_display_info);
 134:..\u8g2\csrc/u8x8_d_st7511.c ****       break;
 135:..\u8g2\csrc/u8x8_d_st7511.c ****     case U8X8_MSG_DISPLAY_INIT:
 136:..\u8g2\csrc/u8x8_d_st7511.c ****       u8x8_d_helper_display_init(u8x8);
 137:..\u8g2\csrc/u8x8_d_st7511.c ****       u8x8_cad_SendSequence(u8x8, u8x8_d_st7511_320x240_init_seq);
 138:..\u8g2\csrc/u8x8_d_st7511.c ****       break;
 139:..\u8g2\csrc/u8x8_d_st7511.c ****     case U8X8_MSG_DISPLAY_SET_POWER_SAVE:
 140:..\u8g2\csrc/u8x8_d_st7511.c ****       if ( arg_int == 0 )
 141:..\u8g2\csrc/u8x8_d_st7511.c **** 	u8x8_cad_SendSequence(u8x8, u8x8_d_st7511_320x240_powersave0_seq);
 142:..\u8g2\csrc/u8x8_d_st7511.c ****       else
 143:..\u8g2\csrc/u8x8_d_st7511.c **** 	u8x8_cad_SendSequence(u8x8, u8x8_d_st7511_320x240_powersave1_seq);
 144:..\u8g2\csrc/u8x8_d_st7511.c ****       break;
 145:..\u8g2\csrc/u8x8_d_st7511.c ****     case U8X8_MSG_DISPLAY_SET_FLIP_MODE:
 146:..\u8g2\csrc/u8x8_d_st7511.c ****       if ( arg_int == 0 )
 147:..\u8g2\csrc/u8x8_d_st7511.c ****       {
 148:..\u8g2\csrc/u8x8_d_st7511.c **** 	u8x8_cad_SendSequence(u8x8, u8x8_d_st7511_320x240_flip0_seq);
 149:..\u8g2\csrc/u8x8_d_st7511.c **** 	u8x8->x_offset = u8x8->display_info->default_x_offset;
 150:..\u8g2\csrc/u8x8_d_st7511.c ****       }
 151:..\u8g2\csrc/u8x8_d_st7511.c ****       else
 152:..\u8g2\csrc/u8x8_d_st7511.c ****       {
 153:..\u8g2\csrc/u8x8_d_st7511.c **** 	u8x8_cad_SendSequence(u8x8, u8x8_d_st7511_320x240_flip1_seq);
 154:..\u8g2\csrc/u8x8_d_st7511.c **** 	u8x8->x_offset = u8x8->display_info->flipmode_x_offset;
 155:..\u8g2\csrc/u8x8_d_st7511.c ****       }	
 156:..\u8g2\csrc/u8x8_d_st7511.c ****       break;
 157:..\u8g2\csrc/u8x8_d_st7511.c **** #ifdef U8X8_WITH_SET_CONTRAST
 158:..\u8g2\csrc/u8x8_d_st7511.c ****     case U8X8_MSG_DISPLAY_SET_CONTRAST:
 159:..\u8g2\csrc/u8x8_d_st7511.c ****       // not sure how to implement this....
 160:..\u8g2\csrc/u8x8_d_st7511.c ****       // u8x8_cad_StartTransfer(u8x8);
 161:..\u8g2\csrc/u8x8_d_st7511.c ****       // u8x8_cad_EndTransfer(u8x8);
 162:..\u8g2\csrc/u8x8_d_st7511.c ****       break;
 163:..\u8g2\csrc/u8x8_d_st7511.c **** #endif
 164:..\u8g2\csrc/u8x8_d_st7511.c ****     case U8X8_MSG_DISPLAY_DRAW_TILE:
 165:..\u8g2\csrc/u8x8_d_st7511.c ****       u8x8_cad_StartTransfer(u8x8);
 166:..\u8g2\csrc/u8x8_d_st7511.c **** 
 167:..\u8g2\csrc/u8x8_d_st7511.c ****       // set page
 168:..\u8g2\csrc/u8x8_d_st7511.c ****       u8x8_cad_SendCmd(u8x8, 0x025);
ARM GAS  C:\Users\brian\AppData\Local\Temp\cc9zPYWY.s 			page 5


 169:..\u8g2\csrc/u8x8_d_st7511.c ****       u8x8_cad_SendArg(u8x8, (((u8x8_tile_t *)arg_ptr)->y_pos));
 170:..\u8g2\csrc/u8x8_d_st7511.c ****       u8x8_cad_SendArg(u8x8, 0x09f);		// end page
 171:..\u8g2\csrc/u8x8_d_st7511.c ****       u8x8_cad_SendArg(u8x8, 0x000);		// frame 0
 172:..\u8g2\csrc/u8x8_d_st7511.c ****       u8x8_cad_SendArg(u8x8, 0x0a5);		
 173:..\u8g2\csrc/u8x8_d_st7511.c ****     
 174:..\u8g2\csrc/u8x8_d_st7511.c ****       x = ((u8x8_tile_t *)arg_ptr)->x_pos;
 175:..\u8g2\csrc/u8x8_d_st7511.c ****       x *= 8;
 176:..\u8g2\csrc/u8x8_d_st7511.c ****       x += u8x8->x_offset;
 177:..\u8g2\csrc/u8x8_d_st7511.c ****     
 178:..\u8g2\csrc/u8x8_d_st7511.c ****       // set column
 179:..\u8g2\csrc/u8x8_d_st7511.c ****       u8x8_cad_SendCmd(u8x8, 0x026);
 180:..\u8g2\csrc/u8x8_d_st7511.c ****       u8x8_cad_SendArg(u8x8, (x>>8) );
 181:..\u8g2\csrc/u8x8_d_st7511.c ****       u8x8_cad_SendArg(u8x8, (x&255) );
 182:..\u8g2\csrc/u8x8_d_st7511.c ****       u8x8_cad_SendArg(u8x8, 0x002);
 183:..\u8g2\csrc/u8x8_d_st7511.c ****       u8x8_cad_SendArg(u8x8, 0x07f);
 184:..\u8g2\csrc/u8x8_d_st7511.c **** 
 185:..\u8g2\csrc/u8x8_d_st7511.c ****       // start data transfer
 186:..\u8g2\csrc/u8x8_d_st7511.c ****       u8x8_cad_SendCmd(u8x8, 0x02c);
 187:..\u8g2\csrc/u8x8_d_st7511.c ****       u8x8_cad_SendArg(u8x8, 0x0a5 );
 188:..\u8g2\csrc/u8x8_d_st7511.c **** 
 189:..\u8g2\csrc/u8x8_d_st7511.c ****       do
 190:..\u8g2\csrc/u8x8_d_st7511.c ****       {
 191:..\u8g2\csrc/u8x8_d_st7511.c **** 	c = ((u8x8_tile_t *)arg_ptr)->cnt;
 192:..\u8g2\csrc/u8x8_d_st7511.c **** 	c *= 8;
 193:..\u8g2\csrc/u8x8_d_st7511.c **** 	ptr = ((u8x8_tile_t *)arg_ptr)->tile_ptr;
 194:..\u8g2\csrc/u8x8_d_st7511.c **** 	
 195:..\u8g2\csrc/u8x8_d_st7511.c **** 	while ( c > 128 )
 196:..\u8g2\csrc/u8x8_d_st7511.c **** 	{
 197:..\u8g2\csrc/u8x8_d_st7511.c **** 	  u8x8_cad_SendData(u8x8, 128, ptr);	/* note: SendData can not handle more than 255 bytes */
 198:..\u8g2\csrc/u8x8_d_st7511.c **** 	  c -= 128;
 199:..\u8g2\csrc/u8x8_d_st7511.c **** 	  ptr += 128;
 200:..\u8g2\csrc/u8x8_d_st7511.c **** 	}
 201:..\u8g2\csrc/u8x8_d_st7511.c **** 	u8x8_cad_SendData(u8x8, c, ptr);	/* note: SendData can not handle more than 255 bytes */
 202:..\u8g2\csrc/u8x8_d_st7511.c **** 	arg_int--;
 203:..\u8g2\csrc/u8x8_d_st7511.c ****       } while( arg_int > 0 );
 204:..\u8g2\csrc/u8x8_d_st7511.c ****       
 205:..\u8g2\csrc/u8x8_d_st7511.c ****       u8x8_cad_EndTransfer(u8x8);
 206:..\u8g2\csrc/u8x8_d_st7511.c ****       break;
 207:..\u8g2\csrc/u8x8_d_st7511.c ****     default:
 208:..\u8g2\csrc/u8x8_d_st7511.c ****       return 0;
  61              		.loc 1 208 0
  62 001c 0020     		movs	r0, #0
  63              	.LVL3:
  64 001e BDE8F081 		pop	{r4, r5, r6, r7, r8, pc}
  65              	.LVL4:
  66              	.L3:
 133:..\u8g2\csrc/u8x8_d_st7511.c ****       break;
  67              		.loc 1 133 0
  68 0022 4649     		ldr	r1, .L17
  69 0024 FFF7FEFF 		bl	u8x8_d_helper_display_setup_memory
  70              	.LVL5:
 209:..\u8g2\csrc/u8x8_d_st7511.c ****   }
 210:..\u8g2\csrc/u8x8_d_st7511.c ****   return 1;
  71              		.loc 1 210 0
  72 0028 0120     		movs	r0, #1
 134:..\u8g2\csrc/u8x8_d_st7511.c ****     case U8X8_MSG_DISPLAY_INIT:
  73              		.loc 1 134 0
ARM GAS  C:\Users\brian\AppData\Local\Temp\cc9zPYWY.s 			page 6


  74 002a BDE8F081 		pop	{r4, r5, r6, r7, r8, pc}
  75              	.LVL6:
  76              	.L5:
 136:..\u8g2\csrc/u8x8_d_st7511.c ****       u8x8_cad_SendSequence(u8x8, u8x8_d_st7511_320x240_init_seq);
  77              		.loc 1 136 0
  78 002e FFF7FEFF 		bl	u8x8_d_helper_display_init
  79              	.LVL7:
 137:..\u8g2\csrc/u8x8_d_st7511.c ****       break;
  80              		.loc 1 137 0
  81 0032 4349     		ldr	r1, .L17+4
  82 0034 3046     		mov	r0, r6
  83 0036 FFF7FEFF 		bl	u8x8_cad_SendSequence
  84              	.LVL8:
  85              		.loc 1 210 0
  86 003a 0120     		movs	r0, #1
 138:..\u8g2\csrc/u8x8_d_st7511.c ****     case U8X8_MSG_DISPLAY_SET_POWER_SAVE:
  87              		.loc 1 138 0
  88 003c BDE8F081 		pop	{r4, r5, r6, r7, r8, pc}
  89              	.LVL9:
  90              	.L6:
 140:..\u8g2\csrc/u8x8_d_st7511.c **** 	u8x8_cad_SendSequence(u8x8, u8x8_d_st7511_320x240_powersave0_seq);
  91              		.loc 1 140 0
  92 0040 2AB9     		cbnz	r2, .L10
 141:..\u8g2\csrc/u8x8_d_st7511.c ****       else
  93              		.loc 1 141 0
  94 0042 4049     		ldr	r1, .L17+8
  95 0044 FFF7FEFF 		bl	u8x8_cad_SendSequence
  96              	.LVL10:
  97              		.loc 1 210 0
  98 0048 0120     		movs	r0, #1
  99 004a BDE8F081 		pop	{r4, r5, r6, r7, r8, pc}
 100              	.LVL11:
 101              	.L10:
 143:..\u8g2\csrc/u8x8_d_st7511.c ****       break;
 102              		.loc 1 143 0
 103 004e 3E49     		ldr	r1, .L17+12
 104 0050 FFF7FEFF 		bl	u8x8_cad_SendSequence
 105              	.LVL12:
 106              		.loc 1 210 0
 107 0054 0120     		movs	r0, #1
 108 0056 BDE8F081 		pop	{r4, r5, r6, r7, r8, pc}
 109              	.LVL13:
 110              	.L7:
 146:..\u8g2\csrc/u8x8_d_st7511.c ****       {
 111              		.loc 1 146 0
 112 005a 4AB9     		cbnz	r2, .L11
 148:..\u8g2\csrc/u8x8_d_st7511.c **** 	u8x8->x_offset = u8x8->display_info->default_x_offset;
 113              		.loc 1 148 0
 114 005c 3B49     		ldr	r1, .L17+16
 115 005e FFF7FEFF 		bl	u8x8_cad_SendSequence
 116              	.LVL14:
 149:..\u8g2\csrc/u8x8_d_st7511.c ****       }
 117              		.loc 1 149 0
 118 0062 3368     		ldr	r3, [r6]
 119 0064 9B7C     		ldrb	r3, [r3, #18]	@ zero_extendqisi2
 120 0066 86F82230 		strb	r3, [r6, #34]
 121              		.loc 1 210 0
ARM GAS  C:\Users\brian\AppData\Local\Temp\cc9zPYWY.s 			page 7


 122 006a 0120     		movs	r0, #1
 123 006c BDE8F081 		pop	{r4, r5, r6, r7, r8, pc}
 124              	.LVL15:
 125              	.L11:
 153:..\u8g2\csrc/u8x8_d_st7511.c **** 	u8x8->x_offset = u8x8->display_info->flipmode_x_offset;
 126              		.loc 1 153 0
 127 0070 3749     		ldr	r1, .L17+20
 128 0072 FFF7FEFF 		bl	u8x8_cad_SendSequence
 129              	.LVL16:
 154:..\u8g2\csrc/u8x8_d_st7511.c ****       }	
 130              		.loc 1 154 0
 131 0076 3368     		ldr	r3, [r6]
 132 0078 DB7C     		ldrb	r3, [r3, #19]	@ zero_extendqisi2
 133 007a 86F82230 		strb	r3, [r6, #34]
 134              		.loc 1 210 0
 135 007e 0120     		movs	r0, #1
 136 0080 BDE8F081 		pop	{r4, r5, r6, r7, r8, pc}
 137              	.LVL17:
 138              	.L9:
 165:..\u8g2\csrc/u8x8_d_st7511.c **** 
 139              		.loc 1 165 0
 140 0084 FFF7FEFF 		bl	u8x8_cad_StartTransfer
 141              	.LVL18:
 168:..\u8g2\csrc/u8x8_d_st7511.c ****       u8x8_cad_SendArg(u8x8, (((u8x8_tile_t *)arg_ptr)->y_pos));
 142              		.loc 1 168 0
 143 0088 2521     		movs	r1, #37
 144 008a 3046     		mov	r0, r6
 145 008c FFF7FEFF 		bl	u8x8_cad_SendCmd
 146              	.LVL19:
 169:..\u8g2\csrc/u8x8_d_st7511.c ****       u8x8_cad_SendArg(u8x8, 0x09f);		// end page
 147              		.loc 1 169 0
 148 0090 98F80610 		ldrb	r1, [r8, #6]	@ zero_extendqisi2
 149 0094 3046     		mov	r0, r6
 150 0096 FFF7FEFF 		bl	u8x8_cad_SendArg
 151              	.LVL20:
 170:..\u8g2\csrc/u8x8_d_st7511.c ****       u8x8_cad_SendArg(u8x8, 0x000);		// frame 0
 152              		.loc 1 170 0
 153 009a 9F21     		movs	r1, #159
 154 009c 3046     		mov	r0, r6
 155 009e FFF7FEFF 		bl	u8x8_cad_SendArg
 156              	.LVL21:
 171:..\u8g2\csrc/u8x8_d_st7511.c ****       u8x8_cad_SendArg(u8x8, 0x0a5);		
 157              		.loc 1 171 0
 158 00a2 0021     		movs	r1, #0
 159 00a4 3046     		mov	r0, r6
 160 00a6 FFF7FEFF 		bl	u8x8_cad_SendArg
 161              	.LVL22:
 172:..\u8g2\csrc/u8x8_d_st7511.c ****     
 162              		.loc 1 172 0
 163 00aa A521     		movs	r1, #165
 164 00ac 3046     		mov	r0, r6
 165 00ae FFF7FEFF 		bl	u8x8_cad_SendArg
 166              	.LVL23:
 174:..\u8g2\csrc/u8x8_d_st7511.c ****       x *= 8;
 167              		.loc 1 174 0
 168 00b2 98F80540 		ldrb	r4, [r8, #5]	@ zero_extendqisi2
 169              	.LVL24:
ARM GAS  C:\Users\brian\AppData\Local\Temp\cc9zPYWY.s 			page 8


 176:..\u8g2\csrc/u8x8_d_st7511.c ****     
 170              		.loc 1 176 0
 171 00b6 96F82230 		ldrb	r3, [r6, #34]	@ zero_extendqisi2
 172 00ba 03EBC404 		add	r4, r3, r4, lsl #3
 173              	.LVL25:
 179:..\u8g2\csrc/u8x8_d_st7511.c ****       u8x8_cad_SendArg(u8x8, (x>>8) );
 174              		.loc 1 179 0
 175 00be 2621     		movs	r1, #38
 176 00c0 3046     		mov	r0, r6
 177 00c2 FFF7FEFF 		bl	u8x8_cad_SendCmd
 178              	.LVL26:
 180:..\u8g2\csrc/u8x8_d_st7511.c ****       u8x8_cad_SendArg(u8x8, (x&255) );
 179              		.loc 1 180 0
 180 00c6 C4F30721 		ubfx	r1, r4, #8, #8
 181 00ca 3046     		mov	r0, r6
 182 00cc FFF7FEFF 		bl	u8x8_cad_SendArg
 183              	.LVL27:
 181:..\u8g2\csrc/u8x8_d_st7511.c ****       u8x8_cad_SendArg(u8x8, 0x002);
 184              		.loc 1 181 0
 185 00d0 E1B2     		uxtb	r1, r4
 186 00d2 3046     		mov	r0, r6
 187 00d4 FFF7FEFF 		bl	u8x8_cad_SendArg
 188              	.LVL28:
 182:..\u8g2\csrc/u8x8_d_st7511.c ****       u8x8_cad_SendArg(u8x8, 0x07f);
 189              		.loc 1 182 0
 190 00d8 0221     		movs	r1, #2
 191 00da 3046     		mov	r0, r6
 192 00dc FFF7FEFF 		bl	u8x8_cad_SendArg
 193              	.LVL29:
 183:..\u8g2\csrc/u8x8_d_st7511.c **** 
 194              		.loc 1 183 0
 195 00e0 7F21     		movs	r1, #127
 196 00e2 3046     		mov	r0, r6
 197 00e4 FFF7FEFF 		bl	u8x8_cad_SendArg
 198              	.LVL30:
 186:..\u8g2\csrc/u8x8_d_st7511.c ****       u8x8_cad_SendArg(u8x8, 0x0a5 );
 199              		.loc 1 186 0
 200 00e8 2C21     		movs	r1, #44
 201 00ea 3046     		mov	r0, r6
 202 00ec FFF7FEFF 		bl	u8x8_cad_SendCmd
 203              	.LVL31:
 187:..\u8g2\csrc/u8x8_d_st7511.c **** 
 204              		.loc 1 187 0
 205 00f0 A521     		movs	r1, #165
 206 00f2 3046     		mov	r0, r6
 207 00f4 FFF7FEFF 		bl	u8x8_cad_SendArg
 208              	.LVL32:
 209              	.L14:
 191:..\u8g2\csrc/u8x8_d_st7511.c **** 	c *= 8;
 210              		.loc 1 191 0
 211 00f8 98F80440 		ldrb	r4, [r8, #4]	@ zero_extendqisi2
 212              	.LVL33:
 192:..\u8g2\csrc/u8x8_d_st7511.c **** 	ptr = ((u8x8_tile_t *)arg_ptr)->tile_ptr;
 213              		.loc 1 192 0
 214 00fc E400     		lsls	r4, r4, #3
 215              	.LVL34:
 193:..\u8g2\csrc/u8x8_d_st7511.c **** 	
ARM GAS  C:\Users\brian\AppData\Local\Temp\cc9zPYWY.s 			page 9


 216              		.loc 1 193 0
 217 00fe D8F80050 		ldr	r5, [r8]
 218              	.LVL35:
 195:..\u8g2\csrc/u8x8_d_st7511.c **** 	{
 219              		.loc 1 195 0
 220 0102 07E0     		b	.L12
 221              	.L13:
 197:..\u8g2\csrc/u8x8_d_st7511.c **** 	  c -= 128;
 222              		.loc 1 197 0
 223 0104 2A46     		mov	r2, r5
 224 0106 8021     		movs	r1, #128
 225 0108 3046     		mov	r0, r6
 226 010a FFF7FEFF 		bl	u8x8_cad_SendData
 227              	.LVL36:
 198:..\u8g2\csrc/u8x8_d_st7511.c **** 	  ptr += 128;
 228              		.loc 1 198 0
 229 010e 803C     		subs	r4, r4, #128
 230              	.LVL37:
 231 0110 A4B2     		uxth	r4, r4
 232              	.LVL38:
 199:..\u8g2\csrc/u8x8_d_st7511.c **** 	}
 233              		.loc 1 199 0
 234 0112 8035     		adds	r5, r5, #128
 235              	.LVL39:
 236              	.L12:
 195:..\u8g2\csrc/u8x8_d_st7511.c **** 	{
 237              		.loc 1 195 0
 238 0114 802C     		cmp	r4, #128
 239 0116 F5D8     		bhi	.L13
 201:..\u8g2\csrc/u8x8_d_st7511.c **** 	arg_int--;
 240              		.loc 1 201 0
 241 0118 2A46     		mov	r2, r5
 242 011a E1B2     		uxtb	r1, r4
 243 011c 3046     		mov	r0, r6
 244 011e FFF7FEFF 		bl	u8x8_cad_SendData
 245              	.LVL40:
 202:..\u8g2\csrc/u8x8_d_st7511.c ****       } while( arg_int > 0 );
 246              		.loc 1 202 0
 247 0122 7A1E     		subs	r2, r7, #1
 248              	.LVL41:
 203:..\u8g2\csrc/u8x8_d_st7511.c ****       
 249              		.loc 1 203 0
 250 0124 12F0FF07 		ands	r7, r2, #255
 251 0128 E6D1     		bne	.L14
 205:..\u8g2\csrc/u8x8_d_st7511.c ****       break;
 252              		.loc 1 205 0
 253 012a 3046     		mov	r0, r6
 254 012c FFF7FEFF 		bl	u8x8_cad_EndTransfer
 255              	.LVL42:
 256              		.loc 1 210 0
 257 0130 0120     		movs	r0, #1
 206:..\u8g2\csrc/u8x8_d_st7511.c ****     default:
 258              		.loc 1 206 0
 259 0132 BDE8F081 		pop	{r4, r5, r6, r7, r8, pc}
 260              	.LVL43:
 261              	.L15:
 262              		.loc 1 210 0
ARM GAS  C:\Users\brian\AppData\Local\Temp\cc9zPYWY.s 			page 10


 263 0136 0120     		movs	r0, #1
 264              	.LVL44:
 211:..\u8g2\csrc/u8x8_d_st7511.c **** }
 265              		.loc 1 211 0
 266 0138 BDE8F081 		pop	{r4, r5, r6, r7, r8, pc}
 267              	.LVL45:
 268              	.L18:
 269              		.align	2
 270              	.L17:
 271 013c 00000000 		.word	.LANCHOR0
 272 0140 18000000 		.word	.LANCHOR0+24
 273 0144 64000000 		.word	.LANCHOR0+100
 274 0148 6C000000 		.word	.LANCHOR0+108
 275 014c 74000000 		.word	.LANCHOR0+116
 276 0150 84000000 		.word	.LANCHOR0+132
 277              		.cfi_endproc
 278              	.LFE0:
 279              		.size	u8x8_d_st7511_avd_320x240, .-u8x8_d_st7511_avd_320x240
 280              		.section	.rodata
 281              		.align	2
 282              		.set	.LANCHOR0,. + 0
 283              		.type	u8x8_st7511_320x240_display_info, %object
 284              		.size	u8x8_st7511_320x240_display_info, 24
 285              	u8x8_st7511_320x240_display_info:
 286 0000 00       		.byte	0
 287 0001 01       		.byte	1
 288 0002 96       		.byte	-106
 289 0003 96       		.byte	-106
 290 0004 01       		.byte	1
 291 0005 01       		.byte	1
 292 0006 78       		.byte	120
 293 0007 96       		.byte	-106
 294 0008 A05A3200 		.word	3300000
 295 000c 00       		.byte	0
 296 000d 04       		.byte	4
 297 000e C8       		.byte	-56
 298 000f FA       		.byte	-6
 299 0010 28       		.byte	40
 300 0011 1E       		.byte	30
 301 0012 A0       		.byte	-96
 302 0013 00       		.byte	0
 303 0014 4001     		.short	320
 304 0016 F000     		.short	240
 305              		.type	u8x8_d_st7511_320x240_init_seq, %object
 306              		.size	u8x8_d_st7511_320x240_init_seq, 75
 307              	u8x8_d_st7511_320x240_init_seq:
 308 0018 18       		.byte	24
 309 0019 15       		.byte	21
 310 001a AE       		.byte	-82
 311 001b 16       		.byte	22
 312 001c A5       		.byte	-91
 313 001d 15       		.byte	21
 314 001e 61       		.byte	97
 315 001f 16       		.byte	22
 316 0020 0F       		.byte	15
 317 0021 16       		.byte	22
 318 0022 04       		.byte	4
ARM GAS  C:\Users\brian\AppData\Local\Temp\cc9zPYWY.s 			page 11


 319 0023 16       		.byte	22
 320 0024 02       		.byte	2
 321 0025 16       		.byte	22
 322 0026 A5       		.byte	-91
 323 0027 15       		.byte	21
 324 0028 62       		.byte	98
 325 0029 16       		.byte	22
 326 002a 0A       		.byte	10
 327 002b 16       		.byte	22
 328 002c 06       		.byte	6
 329 002d 16       		.byte	22
 330 002e 0F       		.byte	15
 331 002f 16       		.byte	22
 332 0030 A5       		.byte	-91
 333 0031 15       		.byte	21
 334 0032 63       		.byte	99
 335 0033 16       		.byte	22
 336 0034 0F       		.byte	15
 337 0035 16       		.byte	22
 338 0036 0F       		.byte	15
 339 0037 16       		.byte	22
 340 0038 A5       		.byte	-91
 341 0039 16       		.byte	22
 342 003a A5       		.byte	-91
 343 003b 15       		.byte	21
 344 003c 66       		.byte	102
 345 003d 16       		.byte	22
 346 003e 00       		.byte	0
 347 003f 16       		.byte	22
 348 0040 A5       		.byte	-91
 349 0041 16       		.byte	22
 350 0042 A5       		.byte	-91
 351 0043 16       		.byte	22
 352 0044 A5       		.byte	-91
 353 0045 15       		.byte	21
 354 0046 12       		.byte	18
 355 0047 16       		.byte	22
 356 0048 A5       		.byte	-91
 357 0049 FE       		.byte	-2
 358 004a 32       		.byte	50
 359 004b 15       		.byte	21
 360 004c 22       		.byte	34
 361 004d 16       		.byte	22
 362 004e 00       		.byte	0
 363 004f 16       		.byte	22
 364 0050 A5       		.byte	-91
 365 0051 16       		.byte	22
 366 0052 A5       		.byte	-91
 367 0053 16       		.byte	22
 368 0054 A5       		.byte	-91
 369 0055 15       		.byte	21
 370 0056 24       		.byte	36
 371 0057 16       		.byte	22
 372 0058 01       		.byte	1
 373 0059 16       		.byte	22
 374 005a A5       		.byte	-91
 375 005b 16       		.byte	22
ARM GAS  C:\Users\brian\AppData\Local\Temp\cc9zPYWY.s 			page 12


 376 005c A5       		.byte	-91
 377 005d 16       		.byte	22
 378 005e A5       		.byte	-91
 379 005f FE       		.byte	-2
 380 0060 32       		.byte	50
 381 0061 19       		.byte	25
 382 0062 FF       		.byte	-1
 383 0063 00       		.space	1
 384              		.type	u8x8_d_st7511_320x240_powersave0_seq, %object
 385              		.size	u8x8_d_st7511_320x240_powersave0_seq, 7
 386              	u8x8_d_st7511_320x240_powersave0_seq:
 387 0064 18       		.byte	24
 388 0065 15       		.byte	21
 389 0066 15       		.byte	21
 390 0067 16       		.byte	22
 391 0068 A5       		.byte	-91
 392 0069 19       		.byte	25
 393 006a FF       		.byte	-1
 394 006b 00       		.space	1
 395              		.type	u8x8_d_st7511_320x240_powersave1_seq, %object
 396              		.size	u8x8_d_st7511_320x240_powersave1_seq, 7
 397              	u8x8_d_st7511_320x240_powersave1_seq:
 398 006c 18       		.byte	24
 399 006d 15       		.byte	21
 400 006e 14       		.byte	20
 401 006f 16       		.byte	22
 402 0070 A5       		.byte	-91
 403 0071 19       		.byte	25
 404 0072 FF       		.byte	-1
 405 0073 00       		.space	1
 406              		.type	u8x8_d_st7511_320x240_flip0_seq, %object
 407              		.size	u8x8_d_st7511_320x240_flip0_seq, 13
 408              	u8x8_d_st7511_320x240_flip0_seq:
 409 0074 18       		.byte	24
 410 0075 15       		.byte	21
 411 0076 24       		.byte	36
 412 0077 16       		.byte	22
 413 0078 01       		.byte	1
 414 0079 16       		.byte	22
 415 007a A5       		.byte	-91
 416 007b 16       		.byte	22
 417 007c A5       		.byte	-91
 418 007d 16       		.byte	22
 419 007e A5       		.byte	-91
 420 007f 19       		.byte	25
 421 0080 FF       		.byte	-1
 422 0081 000000   		.space	3
 423              		.type	u8x8_d_st7511_320x240_flip1_seq, %object
 424              		.size	u8x8_d_st7511_320x240_flip1_seq, 13
 425              	u8x8_d_st7511_320x240_flip1_seq:
 426 0084 18       		.byte	24
 427 0085 15       		.byte	21
 428 0086 24       		.byte	36
 429 0087 16       		.byte	22
 430 0088 02       		.byte	2
 431 0089 16       		.byte	22
 432 008a A5       		.byte	-91
ARM GAS  C:\Users\brian\AppData\Local\Temp\cc9zPYWY.s 			page 13


 433 008b 16       		.byte	22
 434 008c A5       		.byte	-91
 435 008d 16       		.byte	22
 436 008e A5       		.byte	-91
 437 008f 19       		.byte	25
 438 0090 FF       		.byte	-1
 439              		.text
 440              	.Letext0:
 441              		.file 2 "c:\\program files (x86)\\cypress\\psoc creator\\4.4\\psoc creator\\import\\gnu\\arm\\5.4.
 442              		.file 3 "c:\\program files (x86)\\cypress\\psoc creator\\4.4\\psoc creator\\import\\gnu\\arm\\5.4.
 443              		.file 4 "..\\u8g2\\csrc\\u8x8.h"