ARM GAS  C:\Users\brian\AppData\Local\Temp\cckZehqG.s 			page 1


   1              		.syntax unified
   2              		.cpu cortex-m3
   3              		.fpu softvfp
   4              		.eabi_attribute 20, 1
   5              		.eabi_attribute 21, 1
   6              		.eabi_attribute 23, 3
   7              		.eabi_attribute 24, 1
   8              		.eabi_attribute 25, 1
   9              		.eabi_attribute 26, 1
  10              		.eabi_attribute 30, 1
  11              		.eabi_attribute 34, 1
  12              		.eabi_attribute 18, 4
  13              		.thumb
  14              		.syntax unified
  15              		.file	"u8x8_d_max7219.c"
  16              		.text
  17              	.Ltext0:
  18              		.cfi_sections	.debug_frame
  19              		.section	.text.u8x8_d_max7219_generic,"ax",%progbits
  20              		.align	2
  21              		.thumb
  22              		.thumb_func
  23              		.type	u8x8_d_max7219_generic, %function
  24              	u8x8_d_max7219_generic:
  25              	.LFB0:
  26              		.file 1 "..\\u8g2\\csrc\\u8x8_d_max7219.c"
   1:..\u8g2\csrc/u8x8_d_max7219.c **** /*
   2:..\u8g2\csrc/u8x8_d_max7219.c **** 
   3:..\u8g2\csrc/u8x8_d_max7219.c ****   u8x8_d_max7219.c
   4:..\u8g2\csrc/u8x8_d_max7219.c ****   
   5:..\u8g2\csrc/u8x8_d_max7219.c ****   Universal 8bit Graphics Library (https://github.com/olikraus/u8g2/)
   6:..\u8g2\csrc/u8x8_d_max7219.c **** 
   7:..\u8g2\csrc/u8x8_d_max7219.c ****   Copyright (c) 2017, olikraus@gmail.com
   8:..\u8g2\csrc/u8x8_d_max7219.c ****   All rights reserved.
   9:..\u8g2\csrc/u8x8_d_max7219.c **** 
  10:..\u8g2\csrc/u8x8_d_max7219.c ****   Redistribution and use in source and binary forms, with or without modification, 
  11:..\u8g2\csrc/u8x8_d_max7219.c ****   are permitted provided that the following conditions are met:
  12:..\u8g2\csrc/u8x8_d_max7219.c **** 
  13:..\u8g2\csrc/u8x8_d_max7219.c ****   * Redistributions of source code must retain the above copyright notice, this list 
  14:..\u8g2\csrc/u8x8_d_max7219.c ****     of conditions and the following disclaimer.
  15:..\u8g2\csrc/u8x8_d_max7219.c ****     
  16:..\u8g2\csrc/u8x8_d_max7219.c ****   * Redistributions in binary form must reproduce the above copyright notice, this 
  17:..\u8g2\csrc/u8x8_d_max7219.c ****     list of conditions and the following disclaimer in the documentation and/or other 
  18:..\u8g2\csrc/u8x8_d_max7219.c ****     materials provided with the distribution.
  19:..\u8g2\csrc/u8x8_d_max7219.c **** 
  20:..\u8g2\csrc/u8x8_d_max7219.c ****   THIS SOFTWARE IS PROVIDED BY THE COPYRIGHT HOLDERS AND 
  21:..\u8g2\csrc/u8x8_d_max7219.c ****   CONTRIBUTORS "AS IS" AND ANY EXPRESS OR IMPLIED WARRANTIES, 
  22:..\u8g2\csrc/u8x8_d_max7219.c ****   INCLUDING, BUT NOT LIMITED TO, THE IMPLIED WARRANTIES OF 
  23:..\u8g2\csrc/u8x8_d_max7219.c ****   MERCHANTABILITY AND FITNESS FOR A PARTICULAR PURPOSE ARE 
  24:..\u8g2\csrc/u8x8_d_max7219.c ****   DISCLAIMED. IN NO EVENT SHALL THE COPYRIGHT HOLDER OR 
  25:..\u8g2\csrc/u8x8_d_max7219.c ****   CONTRIBUTORS BE LIABLE FOR ANY DIRECT, INDIRECT, INCIDENTAL, 
  26:..\u8g2\csrc/u8x8_d_max7219.c ****   SPECIAL, EXEMPLARY, OR CONSEQUENTIAL DAMAGES (INCLUDING, BUT 
  27:..\u8g2\csrc/u8x8_d_max7219.c ****   NOT LIMITED TO, PROCUREMENT OF SUBSTITUTE GOODS OR SERVICES; 
  28:..\u8g2\csrc/u8x8_d_max7219.c ****   LOSS OF USE, DATA, OR PROFITS; OR BUSINESS INTERRUPTION) HOWEVER 
  29:..\u8g2\csrc/u8x8_d_max7219.c ****   CAUSED AND ON ANY THEORY OF LIABILITY, WHETHER IN CONTRACT, 
  30:..\u8g2\csrc/u8x8_d_max7219.c ****   STRICT LIABILITY, OR TORT (INCLUDING NEGLIGENCE OR OTHERWISE) 
  31:..\u8g2\csrc/u8x8_d_max7219.c ****   ARISING IN ANY WAY OUT OF THE USE OF THIS SOFTWARE, EVEN IF 
ARM GAS  C:\Users\brian\AppData\Local\Temp\cckZehqG.s 			page 2


  32:..\u8g2\csrc/u8x8_d_max7219.c ****   ADVISED OF THE POSSIBILITY OF SUCH DAMAGE.  
  33:..\u8g2\csrc/u8x8_d_max7219.c ****   
  34:..\u8g2\csrc/u8x8_d_max7219.c **** */
  35:..\u8g2\csrc/u8x8_d_max7219.c **** 
  36:..\u8g2\csrc/u8x8_d_max7219.c **** 
  37:..\u8g2\csrc/u8x8_d_max7219.c **** #include "u8x8.h"
  38:..\u8g2\csrc/u8x8_d_max7219.c **** 
  39:..\u8g2\csrc/u8x8_d_max7219.c **** 
  40:..\u8g2\csrc/u8x8_d_max7219.c **** 
  41:..\u8g2\csrc/u8x8_d_max7219.c **** static const uint8_t u8x8_d_max7219_init_seq[] = {
  42:..\u8g2\csrc/u8x8_d_max7219.c **** 
  43:..\u8g2\csrc/u8x8_d_max7219.c ****   U8X8_START_TRANSFER(),             	/* enable chip, delay is part of the transfer start */  
  44:..\u8g2\csrc/u8x8_d_max7219.c ****   U8X8_CA(15, 0),				/* test mode off */
  45:..\u8g2\csrc/u8x8_d_max7219.c ****   U8X8_CA(15, 0),				/* test mode off */
  46:..\u8g2\csrc/u8x8_d_max7219.c ****   U8X8_CA(15, 0),				/* test mode off */
  47:..\u8g2\csrc/u8x8_d_max7219.c ****   U8X8_CA(15, 0),				/* test mode off */
  48:..\u8g2\csrc/u8x8_d_max7219.c ****   U8X8_END_TRANSFER(),             	/* disable chip */
  49:..\u8g2\csrc/u8x8_d_max7219.c **** 
  50:..\u8g2\csrc/u8x8_d_max7219.c ****   U8X8_START_TRANSFER(),             	/* enable chip, delay is part of the transfer start */  
  51:..\u8g2\csrc/u8x8_d_max7219.c ****   U8X8_CA(12, 0),				/*  */
  52:..\u8g2\csrc/u8x8_d_max7219.c ****   U8X8_CA(12, 0),				/*  */
  53:..\u8g2\csrc/u8x8_d_max7219.c ****   U8X8_CA(12, 0),				/*  */
  54:..\u8g2\csrc/u8x8_d_max7219.c ****   U8X8_CA(12, 0),				/*  */
  55:..\u8g2\csrc/u8x8_d_max7219.c ****   U8X8_END_TRANSFER(),             	/* disable chip */
  56:..\u8g2\csrc/u8x8_d_max7219.c ****   
  57:..\u8g2\csrc/u8x8_d_max7219.c ****   U8X8_START_TRANSFER(),             	/* enable chip, delay is part of the transfer start */  
  58:..\u8g2\csrc/u8x8_d_max7219.c ****   U8X8_CA(9, 0),				/* decode mode: graphics */
  59:..\u8g2\csrc/u8x8_d_max7219.c ****   U8X8_CA(9, 0),				/* decode mode: graphics */
  60:..\u8g2\csrc/u8x8_d_max7219.c ****   U8X8_CA(9, 0),				/* decode mode: graphics */
  61:..\u8g2\csrc/u8x8_d_max7219.c ****   U8X8_CA(9, 0),				/* decode mode: graphics */
  62:..\u8g2\csrc/u8x8_d_max7219.c ****   U8X8_END_TRANSFER(),             	/* disable chip */
  63:..\u8g2\csrc/u8x8_d_max7219.c ****   
  64:..\u8g2\csrc/u8x8_d_max7219.c ****   U8X8_START_TRANSFER(),             	/* enable chip, delay is part of the transfer start */  
  65:..\u8g2\csrc/u8x8_d_max7219.c ****   U8X8_CA(10, 10),				/* medium high intensity */
  66:..\u8g2\csrc/u8x8_d_max7219.c ****   U8X8_CA(10, 10),				/* medium high intensity */
  67:..\u8g2\csrc/u8x8_d_max7219.c ****   U8X8_CA(10, 10),				/* medium high intensity */
  68:..\u8g2\csrc/u8x8_d_max7219.c ****   U8X8_CA(10, 10),				/* medium high intensity */
  69:..\u8g2\csrc/u8x8_d_max7219.c ****   U8X8_END_TRANSFER(),             	/* disable chip */
  70:..\u8g2\csrc/u8x8_d_max7219.c ****   
  71:..\u8g2\csrc/u8x8_d_max7219.c ****   U8X8_START_TRANSFER(),             	/* enable chip, delay is part of the transfer start */  
  72:..\u8g2\csrc/u8x8_d_max7219.c ****   U8X8_CA(11, 7),				/* scan limit: display all digits (assuming a 8x8 matrix) */
  73:..\u8g2\csrc/u8x8_d_max7219.c ****   U8X8_CA(11, 7),				/* scan limit: display all digits (assuming a 8x8 matrix) */
  74:..\u8g2\csrc/u8x8_d_max7219.c ****   U8X8_CA(11, 7),				/* scan limit: display all digits (assuming a 8x8 matrix) */
  75:..\u8g2\csrc/u8x8_d_max7219.c ****   U8X8_CA(11, 7),				/* scan limit: display all digits (assuming a 8x8 matrix) */
  76:..\u8g2\csrc/u8x8_d_max7219.c ****   U8X8_END_TRANSFER(),             	/* disable chip */
  77:..\u8g2\csrc/u8x8_d_max7219.c **** 
  78:..\u8g2\csrc/u8x8_d_max7219.c **** 
  79:..\u8g2\csrc/u8x8_d_max7219.c ****   //U8X8_CA(12, 0),				/* shutdown */
  80:..\u8g2\csrc/u8x8_d_max7219.c ****     
  81:..\u8g2\csrc/u8x8_d_max7219.c ****   //U8X8_END_TRANSFER(),             	/* disable chip */
  82:..\u8g2\csrc/u8x8_d_max7219.c ****   U8X8_END()             			/* end of sequence */
  83:..\u8g2\csrc/u8x8_d_max7219.c **** };
  84:..\u8g2\csrc/u8x8_d_max7219.c **** 
  85:..\u8g2\csrc/u8x8_d_max7219.c **** static const uint8_t u8x8_d_max7219_powersave0_seq[] = {
  86:..\u8g2\csrc/u8x8_d_max7219.c ****   U8X8_START_TRANSFER(),             	/* enable chip, delay is part of the transfer start */
  87:..\u8g2\csrc/u8x8_d_max7219.c ****   U8X8_CA(12, 1),				/* display on */
  88:..\u8g2\csrc/u8x8_d_max7219.c ****   U8X8_CA(12, 1),				/* display on */
ARM GAS  C:\Users\brian\AppData\Local\Temp\cckZehqG.s 			page 3


  89:..\u8g2\csrc/u8x8_d_max7219.c ****   U8X8_CA(12, 1),				/* display on */
  90:..\u8g2\csrc/u8x8_d_max7219.c ****   U8X8_CA(12, 1),				/* display on */
  91:..\u8g2\csrc/u8x8_d_max7219.c ****   U8X8_END_TRANSFER(),             	/* disable chip */
  92:..\u8g2\csrc/u8x8_d_max7219.c ****   U8X8_END()             			/* end of sequence */
  93:..\u8g2\csrc/u8x8_d_max7219.c **** };
  94:..\u8g2\csrc/u8x8_d_max7219.c **** 
  95:..\u8g2\csrc/u8x8_d_max7219.c **** static const uint8_t u8x8_d_max7219_powersave1_seq[] = {
  96:..\u8g2\csrc/u8x8_d_max7219.c ****   U8X8_START_TRANSFER(),             	/* enable chip, delay is part of the transfer start */
  97:..\u8g2\csrc/u8x8_d_max7219.c ****   U8X8_CA(12, 0),				/* shutdown */
  98:..\u8g2\csrc/u8x8_d_max7219.c ****   U8X8_CA(12, 0),				/* shutdown */
  99:..\u8g2\csrc/u8x8_d_max7219.c ****   U8X8_CA(12, 0),				/* shutdown */
 100:..\u8g2\csrc/u8x8_d_max7219.c ****   U8X8_CA(12, 0),				/* shutdown */
 101:..\u8g2\csrc/u8x8_d_max7219.c ****   U8X8_END_TRANSFER(),             	/* disable chip */
 102:..\u8g2\csrc/u8x8_d_max7219.c ****   U8X8_END()             			/* end of sequence */
 103:..\u8g2\csrc/u8x8_d_max7219.c **** };
 104:..\u8g2\csrc/u8x8_d_max7219.c **** 
 105:..\u8g2\csrc/u8x8_d_max7219.c **** 
 106:..\u8g2\csrc/u8x8_d_max7219.c **** static uint8_t u8x8_d_max7219_generic(u8x8_t *u8x8, uint8_t msg, uint8_t arg_int, void *arg_ptr)
 107:..\u8g2\csrc/u8x8_d_max7219.c **** {
  27              		.loc 1 107 0
  28              		.cfi_startproc
  29              		@ args = 0, pretend = 0, frame = 0
  30              		@ frame_needed = 0, uses_anonymous_args = 0
  31              	.LVL0:
  32 0000 2DE9F041 		push	{r4, r5, r6, r7, r8, lr}
  33              		.cfi_def_cfa_offset 24
  34              		.cfi_offset 4, -24
  35              		.cfi_offset 5, -20
  36              		.cfi_offset 6, -16
  37              		.cfi_offset 7, -12
  38              		.cfi_offset 8, -8
  39              		.cfi_offset 14, -4
  40 0004 0546     		mov	r5, r0
 108:..\u8g2\csrc/u8x8_d_max7219.c ****   uint8_t c, j, i;
 109:..\u8g2\csrc/u8x8_d_max7219.c ****   uint8_t *ptr;
 110:..\u8g2\csrc/u8x8_d_max7219.c ****   switch(msg)
  41              		.loc 1 110 0
  42 0006 0E29     		cmp	r1, #14
  43 0008 02D0     		beq	.L3
  44 000a 0F29     		cmp	r1, #15
  45 000c 19D0     		beq	.L4
  46 000e 3AE0     		b	.L12
  47              	.L3:
  48 0010 1646     		mov	r6, r2
 111:..\u8g2\csrc/u8x8_d_max7219.c ****   {
 112:..\u8g2\csrc/u8x8_d_max7219.c ****     /* handled by the calling function
 113:..\u8g2\csrc/u8x8_d_max7219.c ****     case U8X8_MSG_DISPLAY_SETUP_MEMORY:
 114:..\u8g2\csrc/u8x8_d_max7219.c ****       u8x8_d_helper_display_setup_memory(u8x8, &u8x8_pcf8812_96x65_display_info);
 115:..\u8g2\csrc/u8x8_d_max7219.c ****       break;
 116:..\u8g2\csrc/u8x8_d_max7219.c ****     case U8X8_MSG_DISPLAY_INIT:
 117:..\u8g2\csrc/u8x8_d_max7219.c ****       u8x8_d_helper_display_init(u8x8);
 118:..\u8g2\csrc/u8x8_d_max7219.c ****       u8x8_cad_SendSequence(u8x8, u8x8_d_max7219_init_seq);    
 119:..\u8g2\csrc/u8x8_d_max7219.c ****       break;
 120:..\u8g2\csrc/u8x8_d_max7219.c ****     case U8X8_MSG_DISPLAY_SET_POWER_SAVE:
 121:..\u8g2\csrc/u8x8_d_max7219.c ****       if ( arg_int == 0 )
 122:..\u8g2\csrc/u8x8_d_max7219.c **** 	u8x8_cad_SendSequence(u8x8, u8x8_d_max7219_powersave0_seq);
 123:..\u8g2\csrc/u8x8_d_max7219.c ****       else
ARM GAS  C:\Users\brian\AppData\Local\Temp\cckZehqG.s 			page 4


 124:..\u8g2\csrc/u8x8_d_max7219.c **** 	u8x8_cad_SendSequence(u8x8, u8x8_d_max7219_powersave1_seq);
 125:..\u8g2\csrc/u8x8_d_max7219.c ****       break;
 126:..\u8g2\csrc/u8x8_d_max7219.c ****     */
 127:..\u8g2\csrc/u8x8_d_max7219.c **** /*  not supported by MAX7219
 128:..\u8g2\csrc/u8x8_d_max7219.c ****     case U8X8_MSG_DISPLAY_SET_FLIP_MODE:
 129:..\u8g2\csrc/u8x8_d_max7219.c ****       break;
 130:..\u8g2\csrc/u8x8_d_max7219.c **** */
 131:..\u8g2\csrc/u8x8_d_max7219.c **** #ifdef U8X8_WITH_SET_CONTRAST
 132:..\u8g2\csrc/u8x8_d_max7219.c ****     case U8X8_MSG_DISPLAY_SET_CONTRAST:
 133:..\u8g2\csrc/u8x8_d_max7219.c ****       u8x8_cad_StartTransfer(u8x8);
  49              		.loc 1 133 0
  50 0012 FFF7FEFF 		bl	u8x8_cad_StartTransfer
  51              	.LVL1:
 134:..\u8g2\csrc/u8x8_d_max7219.c ****       for( i = 0; i < u8x8->display_info->tile_width; i++ )
  52              		.loc 1 134 0
  53 0016 0024     		movs	r4, #0
  54 0018 09E0     		b	.L5
  55              	.LVL2:
  56              	.L6:
 135:..\u8g2\csrc/u8x8_d_max7219.c ****       {
 136:..\u8g2\csrc/u8x8_d_max7219.c **** 	u8x8_cad_SendCmd(u8x8, 10 );    /* brightness */
  57              		.loc 1 136 0 discriminator 3
  58 001a 0A21     		movs	r1, #10
  59 001c 2846     		mov	r0, r5
  60 001e FFF7FEFF 		bl	u8x8_cad_SendCmd
  61              	.LVL3:
 137:..\u8g2\csrc/u8x8_d_max7219.c **** 	u8x8_cad_SendArg(u8x8, (arg_int>>4) );	/* 0..15 for contrast */
  62              		.loc 1 137 0 discriminator 3
  63 0022 3109     		lsrs	r1, r6, #4
  64 0024 2846     		mov	r0, r5
  65 0026 FFF7FEFF 		bl	u8x8_cad_SendArg
  66              	.LVL4:
 134:..\u8g2\csrc/u8x8_d_max7219.c ****       for( i = 0; i < u8x8->display_info->tile_width; i++ )
  67              		.loc 1 134 0 discriminator 3
  68 002a 0134     		adds	r4, r4, #1
  69              	.LVL5:
  70 002c E4B2     		uxtb	r4, r4
  71              	.LVL6:
  72              	.L5:
 134:..\u8g2\csrc/u8x8_d_max7219.c ****       for( i = 0; i < u8x8->display_info->tile_width; i++ )
  73              		.loc 1 134 0 is_stmt 0 discriminator 1
  74 002e 2B68     		ldr	r3, [r5]
  75 0030 1B7C     		ldrb	r3, [r3, #16]	@ zero_extendqisi2
  76 0032 9C42     		cmp	r4, r3
  77 0034 F1D3     		bcc	.L6
 138:..\u8g2\csrc/u8x8_d_max7219.c ****       }
 139:..\u8g2\csrc/u8x8_d_max7219.c ****       u8x8_cad_EndTransfer(u8x8);
  78              		.loc 1 139 0 is_stmt 1
  79 0036 2846     		mov	r0, r5
  80 0038 FFF7FEFF 		bl	u8x8_cad_EndTransfer
  81              	.LVL7:
 140:..\u8g2\csrc/u8x8_d_max7219.c ****       break;
 141:..\u8g2\csrc/u8x8_d_max7219.c **** #endif
 142:..\u8g2\csrc/u8x8_d_max7219.c ****     case U8X8_MSG_DISPLAY_DRAW_TILE:
 143:..\u8g2\csrc/u8x8_d_max7219.c ****       /* transfer always has to start at x pos 0 (u8x8 is not supported) */
 144:..\u8g2\csrc/u8x8_d_max7219.c ****       /* also y pos has to be 0 */
 145:..\u8g2\csrc/u8x8_d_max7219.c ****       /* arg_int is ignored */
ARM GAS  C:\Users\brian\AppData\Local\Temp\cckZehqG.s 			page 5


 146:..\u8g2\csrc/u8x8_d_max7219.c ****       //x = ((u8x8_tile_t *)arg_ptr)->x_pos;    
 147:..\u8g2\csrc/u8x8_d_max7219.c **** 
 148:..\u8g2\csrc/u8x8_d_max7219.c ****       c = ((u8x8_tile_t *)arg_ptr)->cnt;	/* number of tiles */
 149:..\u8g2\csrc/u8x8_d_max7219.c ****       ptr = ((u8x8_tile_t *)arg_ptr)->tile_ptr;	/* data ptr to the tiles */
 150:..\u8g2\csrc/u8x8_d_max7219.c ****       for( i = 0; i < 8; i++ )
 151:..\u8g2\csrc/u8x8_d_max7219.c ****       {
 152:..\u8g2\csrc/u8x8_d_max7219.c **** 	u8x8_cad_StartTransfer(u8x8);
 153:..\u8g2\csrc/u8x8_d_max7219.c **** 	for( j = 0; j < c; j++ )
 154:..\u8g2\csrc/u8x8_d_max7219.c **** 	{
 155:..\u8g2\csrc/u8x8_d_max7219.c **** 	  u8x8_cad_SendCmd(u8x8, i+1);	/* commands 1..8 select the byte */
 156:..\u8g2\csrc/u8x8_d_max7219.c **** 	  u8x8_cad_SendArg(u8x8, *ptr );
 157:..\u8g2\csrc/u8x8_d_max7219.c **** 	  ptr++;
 158:..\u8g2\csrc/u8x8_d_max7219.c **** 	}
 159:..\u8g2\csrc/u8x8_d_max7219.c **** 	u8x8_cad_EndTransfer(u8x8);
 160:..\u8g2\csrc/u8x8_d_max7219.c ****       }
 161:..\u8g2\csrc/u8x8_d_max7219.c ****       
 162:..\u8g2\csrc/u8x8_d_max7219.c ****       break;
 163:..\u8g2\csrc/u8x8_d_max7219.c ****     default:
 164:..\u8g2\csrc/u8x8_d_max7219.c ****       return 0;
 165:..\u8g2\csrc/u8x8_d_max7219.c ****   }
 166:..\u8g2\csrc/u8x8_d_max7219.c ****   return 1;
  82              		.loc 1 166 0
  83 003c 0120     		movs	r0, #1
 140:..\u8g2\csrc/u8x8_d_max7219.c ****       break;
  84              		.loc 1 140 0
  85 003e BDE8F081 		pop	{r4, r5, r6, r7, r8, pc}
  86              	.LVL8:
  87              	.L4:
 148:..\u8g2\csrc/u8x8_d_max7219.c ****       ptr = ((u8x8_tile_t *)arg_ptr)->tile_ptr;	/* data ptr to the tiles */
  88              		.loc 1 148 0
  89 0042 93F80480 		ldrb	r8, [r3, #4]	@ zero_extendqisi2
  90              	.LVL9:
 149:..\u8g2\csrc/u8x8_d_max7219.c ****       for( i = 0; i < 8; i++ )
  91              		.loc 1 149 0
  92 0046 1E68     		ldr	r6, [r3]
  93              	.LVL10:
 150:..\u8g2\csrc/u8x8_d_max7219.c ****       {
  94              		.loc 1 150 0
  95 0048 0027     		movs	r7, #0
  96 004a 17E0     		b	.L7
  97              	.LVL11:
  98              	.L10:
 152:..\u8g2\csrc/u8x8_d_max7219.c **** 	for( j = 0; j < c; j++ )
  99              		.loc 1 152 0
 100 004c 2846     		mov	r0, r5
 101 004e FFF7FEFF 		bl	u8x8_cad_StartTransfer
 102              	.LVL12:
 153:..\u8g2\csrc/u8x8_d_max7219.c **** 	{
 103              		.loc 1 153 0
 104 0052 0024     		movs	r4, #0
 105 0054 0BE0     		b	.L8
 106              	.LVL13:
 107              	.L9:
 155:..\u8g2\csrc/u8x8_d_max7219.c **** 	  u8x8_cad_SendArg(u8x8, *ptr );
 108              		.loc 1 155 0 discriminator 3
 109 0056 791C     		adds	r1, r7, #1
 110 0058 C9B2     		uxtb	r1, r1
ARM GAS  C:\Users\brian\AppData\Local\Temp\cckZehqG.s 			page 6


 111 005a 2846     		mov	r0, r5
 112 005c FFF7FEFF 		bl	u8x8_cad_SendCmd
 113              	.LVL14:
 156:..\u8g2\csrc/u8x8_d_max7219.c **** 	  ptr++;
 114              		.loc 1 156 0 discriminator 3
 115 0060 16F8011B 		ldrb	r1, [r6], #1	@ zero_extendqisi2
 116              	.LVL15:
 117 0064 2846     		mov	r0, r5
 118 0066 FFF7FEFF 		bl	u8x8_cad_SendArg
 119              	.LVL16:
 153:..\u8g2\csrc/u8x8_d_max7219.c **** 	{
 120              		.loc 1 153 0 discriminator 3
 121 006a 0134     		adds	r4, r4, #1
 122              	.LVL17:
 123 006c E4B2     		uxtb	r4, r4
 124              	.LVL18:
 125              	.L8:
 153:..\u8g2\csrc/u8x8_d_max7219.c **** 	{
 126              		.loc 1 153 0 is_stmt 0 discriminator 1
 127 006e 4445     		cmp	r4, r8
 128 0070 F1D3     		bcc	.L9
 159:..\u8g2\csrc/u8x8_d_max7219.c ****       }
 129              		.loc 1 159 0 is_stmt 1 discriminator 2
 130 0072 2846     		mov	r0, r5
 131 0074 FFF7FEFF 		bl	u8x8_cad_EndTransfer
 132              	.LVL19:
 150:..\u8g2\csrc/u8x8_d_max7219.c ****       {
 133              		.loc 1 150 0 discriminator 2
 134 0078 0137     		adds	r7, r7, #1
 135              	.LVL20:
 136 007a FFB2     		uxtb	r7, r7
 137              	.LVL21:
 138              	.L7:
 150:..\u8g2\csrc/u8x8_d_max7219.c ****       {
 139              		.loc 1 150 0 is_stmt 0 discriminator 1
 140 007c 072F     		cmp	r7, #7
 141 007e E5D9     		bls	.L10
 142              		.loc 1 166 0 is_stmt 1
 143 0080 0120     		movs	r0, #1
 144 0082 BDE8F081 		pop	{r4, r5, r6, r7, r8, pc}
 145              	.LVL22:
 146              	.L12:
 164:..\u8g2\csrc/u8x8_d_max7219.c ****   }
 147              		.loc 1 164 0
 148 0086 0020     		movs	r0, #0
 149              	.LVL23:
 167:..\u8g2\csrc/u8x8_d_max7219.c **** }
 150              		.loc 1 167 0
 151 0088 BDE8F081 		pop	{r4, r5, r6, r7, r8, pc}
 152              		.cfi_endproc
 153              	.LFE0:
 154              		.size	u8x8_d_max7219_generic, .-u8x8_d_max7219_generic
 155              		.section	.text.u8x8_d_max7219_32x8,"ax",%progbits
 156              		.align	2
 157              		.global	u8x8_d_max7219_32x8
 158              		.thumb
 159              		.thumb_func
ARM GAS  C:\Users\brian\AppData\Local\Temp\cckZehqG.s 			page 7


 160              		.type	u8x8_d_max7219_32x8, %function
 161              	u8x8_d_max7219_32x8:
 162              	.LFB1:
 168:..\u8g2\csrc/u8x8_d_max7219.c **** 
 169:..\u8g2\csrc/u8x8_d_max7219.c **** /*==============================*/
 170:..\u8g2\csrc/u8x8_d_max7219.c **** 
 171:..\u8g2\csrc/u8x8_d_max7219.c **** static const u8x8_display_info_t u8x8_max7219_32x8_display_info =
 172:..\u8g2\csrc/u8x8_d_max7219.c **** {
 173:..\u8g2\csrc/u8x8_d_max7219.c ****   /* chip_enable_level = */ 0,
 174:..\u8g2\csrc/u8x8_d_max7219.c ****   /* chip_disable_level = */ 1,
 175:..\u8g2\csrc/u8x8_d_max7219.c ****   
 176:..\u8g2\csrc/u8x8_d_max7219.c ****   /* post_chip_enable_wait_ns = */ 100,
 177:..\u8g2\csrc/u8x8_d_max7219.c ****   /* pre_chip_disable_wait_ns = */ 100,
 178:..\u8g2\csrc/u8x8_d_max7219.c ****   /* reset_pulse_width_ms = */ 100, 
 179:..\u8g2\csrc/u8x8_d_max7219.c ****   /* post_reset_wait_ms = */ 100, 
 180:..\u8g2\csrc/u8x8_d_max7219.c ****   /* sda_setup_time_ns = */ 100,	
 181:..\u8g2\csrc/u8x8_d_max7219.c ****   /* sck_pulse_width_ns = */ 100,	
 182:..\u8g2\csrc/u8x8_d_max7219.c ****   /* sck_clock_hz = */ 4000000UL,	/* since Arduino 1.6.0, the SPI bus speed in Hz. Should be  10000
 183:..\u8g2\csrc/u8x8_d_max7219.c ****   /* spi_mode = */ 0,		/* active high, rising edge */
 184:..\u8g2\csrc/u8x8_d_max7219.c ****   /* i2c_bus_clock_100kHz = */ 4,
 185:..\u8g2\csrc/u8x8_d_max7219.c ****   /* data_setup_time_ns = */ 40,
 186:..\u8g2\csrc/u8x8_d_max7219.c ****   /* write_pulse_width_ns = */ 150,	
 187:..\u8g2\csrc/u8x8_d_max7219.c ****   /* tile_width = */ 4,
 188:..\u8g2\csrc/u8x8_d_max7219.c ****   /* tile_hight = */ 1,
 189:..\u8g2\csrc/u8x8_d_max7219.c ****   /* default_x_offset = */ 0,
 190:..\u8g2\csrc/u8x8_d_max7219.c ****   /* flipmode_x_offset = */ 0,
 191:..\u8g2\csrc/u8x8_d_max7219.c ****   /* pixel_width = */ 32,
 192:..\u8g2\csrc/u8x8_d_max7219.c ****   /* pixel_height = */ 8
 193:..\u8g2\csrc/u8x8_d_max7219.c **** };
 194:..\u8g2\csrc/u8x8_d_max7219.c **** 
 195:..\u8g2\csrc/u8x8_d_max7219.c **** uint8_t u8x8_d_max7219_32x8(u8x8_t *u8x8, uint8_t msg, uint8_t arg_int, void *arg_ptr)
 196:..\u8g2\csrc/u8x8_d_max7219.c **** {
 163              		.loc 1 196 0
 164              		.cfi_startproc
 165              		@ args = 0, pretend = 0, frame = 0
 166              		@ frame_needed = 0, uses_anonymous_args = 0
 167              	.LVL24:
 168 0000 10B5     		push	{r4, lr}
 169              		.cfi_def_cfa_offset 8
 170              		.cfi_offset 4, -8
 171              		.cfi_offset 14, -4
 172 0002 0446     		mov	r4, r0
 197:..\u8g2\csrc/u8x8_d_max7219.c ****   switch(msg)
 173              		.loc 1 197 0
 174 0004 0A29     		cmp	r1, #10
 175 0006 08D0     		beq	.L16
 176 0008 0B29     		cmp	r1, #11
 177 000a 0ED0     		beq	.L17
 178 000c 0929     		cmp	r1, #9
 179 000e 17D1     		bne	.L21
 198:..\u8g2\csrc/u8x8_d_max7219.c ****   {
 199:..\u8g2\csrc/u8x8_d_max7219.c ****     case U8X8_MSG_DISPLAY_SETUP_MEMORY :
 200:..\u8g2\csrc/u8x8_d_max7219.c ****       u8x8_d_helper_display_setup_memory(u8x8, &u8x8_max7219_32x8_display_info);
 180              		.loc 1 200 0
 181 0010 0D49     		ldr	r1, .L23
 182              	.LVL25:
 183 0012 FFF7FEFF 		bl	u8x8_d_helper_display_setup_memory
ARM GAS  C:\Users\brian\AppData\Local\Temp\cckZehqG.s 			page 8


 184              	.LVL26:
 201:..\u8g2\csrc/u8x8_d_max7219.c ****       return 1;
 185              		.loc 1 201 0
 186 0016 0120     		movs	r0, #1
 187 0018 10BD     		pop	{r4, pc}
 188              	.LVL27:
 189              	.L16:
 202:..\u8g2\csrc/u8x8_d_max7219.c ****     case U8X8_MSG_DISPLAY_INIT:
 203:..\u8g2\csrc/u8x8_d_max7219.c ****       u8x8_d_helper_display_init(u8x8);
 190              		.loc 1 203 0
 191 001a FFF7FEFF 		bl	u8x8_d_helper_display_init
 192              	.LVL28:
 204:..\u8g2\csrc/u8x8_d_max7219.c ****       u8x8_cad_SendSequence(u8x8, u8x8_d_max7219_init_seq);    
 193              		.loc 1 204 0
 194 001e 0B49     		ldr	r1, .L23+4
 195 0020 2046     		mov	r0, r4
 196 0022 FFF7FEFF 		bl	u8x8_cad_SendSequence
 197              	.LVL29:
 205:..\u8g2\csrc/u8x8_d_max7219.c ****       return 1;
 198              		.loc 1 205 0
 199 0026 0120     		movs	r0, #1
 200 0028 10BD     		pop	{r4, pc}
 201              	.LVL30:
 202              	.L17:
 206:..\u8g2\csrc/u8x8_d_max7219.c ****     case U8X8_MSG_DISPLAY_SET_POWER_SAVE:
 207:..\u8g2\csrc/u8x8_d_max7219.c ****       if ( arg_int == 0 )
 203              		.loc 1 207 0
 204 002a 22B9     		cbnz	r2, .L20
 208:..\u8g2\csrc/u8x8_d_max7219.c **** 	u8x8_cad_SendSequence(u8x8, u8x8_d_max7219_powersave0_seq);
 205              		.loc 1 208 0
 206 002c 0849     		ldr	r1, .L23+8
 207              	.LVL31:
 208 002e FFF7FEFF 		bl	u8x8_cad_SendSequence
 209              	.LVL32:
 209:..\u8g2\csrc/u8x8_d_max7219.c ****       else
 210:..\u8g2\csrc/u8x8_d_max7219.c **** 	u8x8_cad_SendSequence(u8x8, u8x8_d_max7219_powersave1_seq);
 211:..\u8g2\csrc/u8x8_d_max7219.c ****       return 1;
 210              		.loc 1 211 0
 211 0032 0120     		movs	r0, #1
 212 0034 10BD     		pop	{r4, pc}
 213              	.LVL33:
 214              	.L20:
 210:..\u8g2\csrc/u8x8_d_max7219.c ****       return 1;
 215              		.loc 1 210 0
 216 0036 0749     		ldr	r1, .L23+12
 217              	.LVL34:
 218 0038 FFF7FEFF 		bl	u8x8_cad_SendSequence
 219              	.LVL35:
 220              		.loc 1 211 0
 221 003c 0120     		movs	r0, #1
 222 003e 10BD     		pop	{r4, pc}
 223              	.LVL36:
 224              	.L21:
 212:..\u8g2\csrc/u8x8_d_max7219.c ****   }
 213:..\u8g2\csrc/u8x8_d_max7219.c ****   return u8x8_d_max7219_generic(u8x8, msg, arg_int, arg_ptr);
 225              		.loc 1 213 0
 226 0040 FFF7FEFF 		bl	u8x8_d_max7219_generic
ARM GAS  C:\Users\brian\AppData\Local\Temp\cckZehqG.s 			page 9


 227              	.LVL37:
 214:..\u8g2\csrc/u8x8_d_max7219.c **** }
 228              		.loc 1 214 0
 229 0044 10BD     		pop	{r4, pc}
 230              	.LVL38:
 231              	.L24:
 232 0046 00BF     		.align	2
 233              	.L23:
 234 0048 00000000 		.word	.LANCHOR0
 235 004c 18000000 		.word	.LANCHOR0+24
 236 0050 74000000 		.word	.LANCHOR0+116
 237 0054 88000000 		.word	.LANCHOR0+136
 238              		.cfi_endproc
 239              	.LFE1:
 240              		.size	u8x8_d_max7219_32x8, .-u8x8_d_max7219_32x8
 241              		.section	.text.u8x8_d_max7219_16x16,"ax",%progbits
 242              		.align	2
 243              		.global	u8x8_d_max7219_16x16
 244              		.thumb
 245              		.thumb_func
 246              		.type	u8x8_d_max7219_16x16, %function
 247              	u8x8_d_max7219_16x16:
 248              	.LFB2:
 215:..\u8g2\csrc/u8x8_d_max7219.c **** 
 216:..\u8g2\csrc/u8x8_d_max7219.c **** /*==============================*/
 217:..\u8g2\csrc/u8x8_d_max7219.c **** 
 218:..\u8g2\csrc/u8x8_d_max7219.c **** static const u8x8_display_info_t u8x8_max7219_16x16_display_info =
 219:..\u8g2\csrc/u8x8_d_max7219.c **** {
 220:..\u8g2\csrc/u8x8_d_max7219.c ****   /* chip_enable_level = */ 0,
 221:..\u8g2\csrc/u8x8_d_max7219.c ****   /* chip_disable_level = */ 1,
 222:..\u8g2\csrc/u8x8_d_max7219.c ****   
 223:..\u8g2\csrc/u8x8_d_max7219.c ****   /* post_chip_enable_wait_ns = */ 100,
 224:..\u8g2\csrc/u8x8_d_max7219.c ****   /* pre_chip_disable_wait_ns = */ 100,
 225:..\u8g2\csrc/u8x8_d_max7219.c ****   /* reset_pulse_width_ms = */ 100, 
 226:..\u8g2\csrc/u8x8_d_max7219.c ****   /* post_reset_wait_ms = */ 100, 
 227:..\u8g2\csrc/u8x8_d_max7219.c ****   /* sda_setup_time_ns = */ 100,	
 228:..\u8g2\csrc/u8x8_d_max7219.c ****   /* sck_pulse_width_ns = */ 100,	
 229:..\u8g2\csrc/u8x8_d_max7219.c ****   /* sck_clock_hz = */ 4000000UL,	/* since Arduino 1.6.0, the SPI bus speed in Hz. Should be  10000
 230:..\u8g2\csrc/u8x8_d_max7219.c ****   /* spi_mode = */ 0,		/* active high, rising edge */
 231:..\u8g2\csrc/u8x8_d_max7219.c ****   /* i2c_bus_clock_100kHz = */ 4,
 232:..\u8g2\csrc/u8x8_d_max7219.c ****   /* data_setup_time_ns = */ 40,
 233:..\u8g2\csrc/u8x8_d_max7219.c ****   /* write_pulse_width_ns = */ 150,	
 234:..\u8g2\csrc/u8x8_d_max7219.c ****   /* tile_width = */ 2,
 235:..\u8g2\csrc/u8x8_d_max7219.c ****   /* tile_hight = */ 2,
 236:..\u8g2\csrc/u8x8_d_max7219.c ****   /* default_x_offset = */ 0,
 237:..\u8g2\csrc/u8x8_d_max7219.c ****   /* flipmode_x_offset = */ 0,
 238:..\u8g2\csrc/u8x8_d_max7219.c ****   /* pixel_width = */ 16,
 239:..\u8g2\csrc/u8x8_d_max7219.c ****   /* pixel_height = */ 16
 240:..\u8g2\csrc/u8x8_d_max7219.c **** };
 241:..\u8g2\csrc/u8x8_d_max7219.c **** 
 242:..\u8g2\csrc/u8x8_d_max7219.c **** /*
 243:..\u8g2\csrc/u8x8_d_max7219.c ****   Multiple page rows are not supported, so 16x16 will not work.
 244:..\u8g2\csrc/u8x8_d_max7219.c ****   Due to the hardware structure of such displays all tiles of the display
 245:..\u8g2\csrc/u8x8_d_max7219.c ****   must be written at once. 
 246:..\u8g2\csrc/u8x8_d_max7219.c ****   This is not possible with the current u8g2 structure.
 247:..\u8g2\csrc/u8x8_d_max7219.c ****   So u8x8_d_max7219_16x16 will not work.
 248:..\u8g2\csrc/u8x8_d_max7219.c **** */
ARM GAS  C:\Users\brian\AppData\Local\Temp\cckZehqG.s 			page 10


 249:..\u8g2\csrc/u8x8_d_max7219.c **** 
 250:..\u8g2\csrc/u8x8_d_max7219.c **** uint8_t u8x8_d_max7219_16x16(u8x8_t *u8x8, uint8_t msg, uint8_t arg_int, void *arg_ptr)
 251:..\u8g2\csrc/u8x8_d_max7219.c **** {
 249              		.loc 1 251 0
 250              		.cfi_startproc
 251              		@ args = 0, pretend = 0, frame = 0
 252              		@ frame_needed = 0, uses_anonymous_args = 0
 253              	.LVL39:
 254 0000 10B5     		push	{r4, lr}
 255              		.cfi_def_cfa_offset 8
 256              		.cfi_offset 4, -8
 257              		.cfi_offset 14, -4
 258 0002 0446     		mov	r4, r0
 252:..\u8g2\csrc/u8x8_d_max7219.c ****   switch(msg)
 259              		.loc 1 252 0
 260 0004 0A29     		cmp	r1, #10
 261 0006 08D0     		beq	.L27
 262 0008 0B29     		cmp	r1, #11
 263 000a 0ED0     		beq	.L28
 264 000c 0929     		cmp	r1, #9
 265 000e 17D1     		bne	.L32
 253:..\u8g2\csrc/u8x8_d_max7219.c ****   {
 254:..\u8g2\csrc/u8x8_d_max7219.c ****     case U8X8_MSG_DISPLAY_SETUP_MEMORY :
 255:..\u8g2\csrc/u8x8_d_max7219.c ****       u8x8_d_helper_display_setup_memory(u8x8, &u8x8_max7219_16x16_display_info);
 266              		.loc 1 255 0
 267 0010 0D49     		ldr	r1, .L34
 268              	.LVL40:
 269 0012 FFF7FEFF 		bl	u8x8_d_helper_display_setup_memory
 270              	.LVL41:
 256:..\u8g2\csrc/u8x8_d_max7219.c ****       return 1;
 271              		.loc 1 256 0
 272 0016 0120     		movs	r0, #1
 273 0018 10BD     		pop	{r4, pc}
 274              	.LVL42:
 275              	.L27:
 257:..\u8g2\csrc/u8x8_d_max7219.c ****     case U8X8_MSG_DISPLAY_INIT:
 258:..\u8g2\csrc/u8x8_d_max7219.c ****       u8x8_d_helper_display_init(u8x8);
 276              		.loc 1 258 0
 277 001a FFF7FEFF 		bl	u8x8_d_helper_display_init
 278              	.LVL43:
 259:..\u8g2\csrc/u8x8_d_max7219.c ****       u8x8_cad_SendSequence(u8x8, u8x8_d_max7219_init_seq);    
 279              		.loc 1 259 0
 280 001e 0B49     		ldr	r1, .L34+4
 281 0020 2046     		mov	r0, r4
 282 0022 FFF7FEFF 		bl	u8x8_cad_SendSequence
 283              	.LVL44:
 260:..\u8g2\csrc/u8x8_d_max7219.c ****       return 1;
 284              		.loc 1 260 0
 285 0026 0120     		movs	r0, #1
 286 0028 10BD     		pop	{r4, pc}
 287              	.LVL45:
 288              	.L28:
 261:..\u8g2\csrc/u8x8_d_max7219.c ****     case U8X8_MSG_DISPLAY_SET_POWER_SAVE:
 262:..\u8g2\csrc/u8x8_d_max7219.c ****       if ( arg_int == 0 )
 289              		.loc 1 262 0
 290 002a 22B9     		cbnz	r2, .L31
 263:..\u8g2\csrc/u8x8_d_max7219.c **** 	u8x8_cad_SendSequence(u8x8, u8x8_d_max7219_powersave0_seq);
ARM GAS  C:\Users\brian\AppData\Local\Temp\cckZehqG.s 			page 11


 291              		.loc 1 263 0
 292 002c 0849     		ldr	r1, .L34+8
 293              	.LVL46:
 294 002e FFF7FEFF 		bl	u8x8_cad_SendSequence
 295              	.LVL47:
 264:..\u8g2\csrc/u8x8_d_max7219.c ****       else
 265:..\u8g2\csrc/u8x8_d_max7219.c **** 	u8x8_cad_SendSequence(u8x8, u8x8_d_max7219_powersave1_seq);
 266:..\u8g2\csrc/u8x8_d_max7219.c ****       return 1;
 296              		.loc 1 266 0
 297 0032 0120     		movs	r0, #1
 298 0034 10BD     		pop	{r4, pc}
 299              	.LVL48:
 300              	.L31:
 265:..\u8g2\csrc/u8x8_d_max7219.c ****       return 1;
 301              		.loc 1 265 0
 302 0036 0749     		ldr	r1, .L34+12
 303              	.LVL49:
 304 0038 FFF7FEFF 		bl	u8x8_cad_SendSequence
 305              	.LVL50:
 306              		.loc 1 266 0
 307 003c 0120     		movs	r0, #1
 308 003e 10BD     		pop	{r4, pc}
 309              	.LVL51:
 310              	.L32:
 267:..\u8g2\csrc/u8x8_d_max7219.c ****   }
 268:..\u8g2\csrc/u8x8_d_max7219.c ****   return u8x8_d_max7219_generic(u8x8, msg, arg_int, arg_ptr);
 311              		.loc 1 268 0
 312 0040 FFF7FEFF 		bl	u8x8_d_max7219_generic
 313              	.LVL52:
 269:..\u8g2\csrc/u8x8_d_max7219.c **** }
 314              		.loc 1 269 0
 315 0044 10BD     		pop	{r4, pc}
 316              	.LVL53:
 317              	.L35:
 318 0046 00BF     		.align	2
 319              	.L34:
 320 0048 9C000000 		.word	.LANCHOR0+156
 321 004c 18000000 		.word	.LANCHOR0+24
 322 0050 74000000 		.word	.LANCHOR0+116
 323 0054 88000000 		.word	.LANCHOR0+136
 324              		.cfi_endproc
 325              	.LFE2:
 326              		.size	u8x8_d_max7219_16x16, .-u8x8_d_max7219_16x16
 327              		.section	.text.u8x8_d_max7219_8x8,"ax",%progbits
 328              		.align	2
 329              		.global	u8x8_d_max7219_8x8
 330              		.thumb
 331              		.thumb_func
 332              		.type	u8x8_d_max7219_8x8, %function
 333              	u8x8_d_max7219_8x8:
 334              	.LFB3:
 270:..\u8g2\csrc/u8x8_d_max7219.c **** 
 271:..\u8g2\csrc/u8x8_d_max7219.c **** /*==============================*/
 272:..\u8g2\csrc/u8x8_d_max7219.c **** 
 273:..\u8g2\csrc/u8x8_d_max7219.c **** static const u8x8_display_info_t u8x8_max7219_8x8_display_info =
 274:..\u8g2\csrc/u8x8_d_max7219.c **** {
 275:..\u8g2\csrc/u8x8_d_max7219.c ****   /* chip_enable_level = */ 0,
ARM GAS  C:\Users\brian\AppData\Local\Temp\cckZehqG.s 			page 12


 276:..\u8g2\csrc/u8x8_d_max7219.c ****   /* chip_disable_level = */ 1,
 277:..\u8g2\csrc/u8x8_d_max7219.c ****   
 278:..\u8g2\csrc/u8x8_d_max7219.c ****   /* post_chip_enable_wait_ns = */ 100,
 279:..\u8g2\csrc/u8x8_d_max7219.c ****   /* pre_chip_disable_wait_ns = */ 100,
 280:..\u8g2\csrc/u8x8_d_max7219.c ****   /* reset_pulse_width_ms = */ 100, 
 281:..\u8g2\csrc/u8x8_d_max7219.c ****   /* post_reset_wait_ms = */ 100, 
 282:..\u8g2\csrc/u8x8_d_max7219.c ****   /* sda_setup_time_ns = */ 100,	
 283:..\u8g2\csrc/u8x8_d_max7219.c ****   /* sck_pulse_width_ns = */ 100,	
 284:..\u8g2\csrc/u8x8_d_max7219.c ****   /* sck_clock_hz = */ 4000000UL,	/* since Arduino 1.6.0, the SPI bus speed in Hz. Should be  10000
 285:..\u8g2\csrc/u8x8_d_max7219.c ****   /* spi_mode = */ 0,		/* active high, rising edge */
 286:..\u8g2\csrc/u8x8_d_max7219.c ****   /* i2c_bus_clock_100kHz = */ 4,
 287:..\u8g2\csrc/u8x8_d_max7219.c ****   /* data_setup_time_ns = */ 40,
 288:..\u8g2\csrc/u8x8_d_max7219.c ****   /* write_pulse_width_ns = */ 150,	
 289:..\u8g2\csrc/u8x8_d_max7219.c ****   /* tile_width = */ 1,
 290:..\u8g2\csrc/u8x8_d_max7219.c ****   /* tile_hight = */ 1,
 291:..\u8g2\csrc/u8x8_d_max7219.c ****   /* default_x_offset = */ 0,
 292:..\u8g2\csrc/u8x8_d_max7219.c ****   /* flipmode_x_offset = */ 0,
 293:..\u8g2\csrc/u8x8_d_max7219.c ****   /* pixel_width = */ 8,
 294:..\u8g2\csrc/u8x8_d_max7219.c ****   /* pixel_height = */ 8
 295:..\u8g2\csrc/u8x8_d_max7219.c **** };
 296:..\u8g2\csrc/u8x8_d_max7219.c **** 
 297:..\u8g2\csrc/u8x8_d_max7219.c **** uint8_t u8x8_d_max7219_8x8(u8x8_t *u8x8, uint8_t msg, uint8_t arg_int, void *arg_ptr)
 298:..\u8g2\csrc/u8x8_d_max7219.c **** {
 335              		.loc 1 298 0
 336              		.cfi_startproc
 337              		@ args = 0, pretend = 0, frame = 0
 338              		@ frame_needed = 0, uses_anonymous_args = 0
 339              	.LVL54:
 340 0000 10B5     		push	{r4, lr}
 341              		.cfi_def_cfa_offset 8
 342              		.cfi_offset 4, -8
 343              		.cfi_offset 14, -4
 344 0002 0446     		mov	r4, r0
 299:..\u8g2\csrc/u8x8_d_max7219.c ****   switch(msg)
 345              		.loc 1 299 0
 346 0004 0A29     		cmp	r1, #10
 347 0006 08D0     		beq	.L38
 348 0008 0B29     		cmp	r1, #11
 349 000a 0ED0     		beq	.L39
 350 000c 0929     		cmp	r1, #9
 351 000e 17D1     		bne	.L43
 300:..\u8g2\csrc/u8x8_d_max7219.c ****   {
 301:..\u8g2\csrc/u8x8_d_max7219.c ****     case U8X8_MSG_DISPLAY_SETUP_MEMORY :
 302:..\u8g2\csrc/u8x8_d_max7219.c ****       u8x8_d_helper_display_setup_memory(u8x8, &u8x8_max7219_8x8_display_info);
 352              		.loc 1 302 0
 353 0010 0D49     		ldr	r1, .L45
 354              	.LVL55:
 355 0012 FFF7FEFF 		bl	u8x8_d_helper_display_setup_memory
 356              	.LVL56:
 303:..\u8g2\csrc/u8x8_d_max7219.c ****       return 1;
 357              		.loc 1 303 0
 358 0016 0120     		movs	r0, #1
 359 0018 10BD     		pop	{r4, pc}
 360              	.LVL57:
 361              	.L38:
 304:..\u8g2\csrc/u8x8_d_max7219.c ****     case U8X8_MSG_DISPLAY_INIT:
 305:..\u8g2\csrc/u8x8_d_max7219.c ****       u8x8_d_helper_display_init(u8x8);
ARM GAS  C:\Users\brian\AppData\Local\Temp\cckZehqG.s 			page 13


 362              		.loc 1 305 0
 363 001a FFF7FEFF 		bl	u8x8_d_helper_display_init
 364              	.LVL58:
 306:..\u8g2\csrc/u8x8_d_max7219.c ****       u8x8_cad_SendSequence(u8x8, u8x8_d_max7219_init_seq);    
 365              		.loc 1 306 0
 366 001e 0B49     		ldr	r1, .L45+4
 367 0020 2046     		mov	r0, r4
 368 0022 FFF7FEFF 		bl	u8x8_cad_SendSequence
 369              	.LVL59:
 307:..\u8g2\csrc/u8x8_d_max7219.c ****       return 1;
 370              		.loc 1 307 0
 371 0026 0120     		movs	r0, #1
 372 0028 10BD     		pop	{r4, pc}
 373              	.LVL60:
 374              	.L39:
 308:..\u8g2\csrc/u8x8_d_max7219.c ****     case U8X8_MSG_DISPLAY_SET_POWER_SAVE:
 309:..\u8g2\csrc/u8x8_d_max7219.c ****       if ( arg_int == 0 )
 375              		.loc 1 309 0
 376 002a 22B9     		cbnz	r2, .L42
 310:..\u8g2\csrc/u8x8_d_max7219.c **** 	u8x8_cad_SendSequence(u8x8, u8x8_d_max7219_powersave0_seq);
 377              		.loc 1 310 0
 378 002c 0849     		ldr	r1, .L45+8
 379              	.LVL61:
 380 002e FFF7FEFF 		bl	u8x8_cad_SendSequence
 381              	.LVL62:
 311:..\u8g2\csrc/u8x8_d_max7219.c ****       else
 312:..\u8g2\csrc/u8x8_d_max7219.c **** 	u8x8_cad_SendSequence(u8x8, u8x8_d_max7219_powersave1_seq);
 313:..\u8g2\csrc/u8x8_d_max7219.c ****       return 1;
 382              		.loc 1 313 0
 383 0032 0120     		movs	r0, #1
 384 0034 10BD     		pop	{r4, pc}
 385              	.LVL63:
 386              	.L42:
 312:..\u8g2\csrc/u8x8_d_max7219.c ****       return 1;
 387              		.loc 1 312 0
 388 0036 0749     		ldr	r1, .L45+12
 389              	.LVL64:
 390 0038 FFF7FEFF 		bl	u8x8_cad_SendSequence
 391              	.LVL65:
 392              		.loc 1 313 0
 393 003c 0120     		movs	r0, #1
 394 003e 10BD     		pop	{r4, pc}
 395              	.LVL66:
 396              	.L43:
 314:..\u8g2\csrc/u8x8_d_max7219.c ****   }
 315:..\u8g2\csrc/u8x8_d_max7219.c ****     return u8x8_d_max7219_generic(u8x8, msg, arg_int, arg_ptr);
 397              		.loc 1 315 0
 398 0040 FFF7FEFF 		bl	u8x8_d_max7219_generic
 399              	.LVL67:
 316:..\u8g2\csrc/u8x8_d_max7219.c **** }
 400              		.loc 1 316 0
 401 0044 10BD     		pop	{r4, pc}
 402              	.LVL68:
 403              	.L46:
 404 0046 00BF     		.align	2
 405              	.L45:
 406 0048 B4000000 		.word	.LANCHOR0+180
ARM GAS  C:\Users\brian\AppData\Local\Temp\cckZehqG.s 			page 14


 407 004c 18000000 		.word	.LANCHOR0+24
 408 0050 74000000 		.word	.LANCHOR0+116
 409 0054 88000000 		.word	.LANCHOR0+136
 410              		.cfi_endproc
 411              	.LFE3:
 412              		.size	u8x8_d_max7219_8x8, .-u8x8_d_max7219_8x8
 413              		.section	.text.u8x8_d_max7219_64x8,"ax",%progbits
 414              		.align	2
 415              		.global	u8x8_d_max7219_64x8
 416              		.thumb
 417              		.thumb_func
 418              		.type	u8x8_d_max7219_64x8, %function
 419              	u8x8_d_max7219_64x8:
 420              	.LFB4:
 317:..\u8g2\csrc/u8x8_d_max7219.c **** 
 318:..\u8g2\csrc/u8x8_d_max7219.c **** 
 319:..\u8g2\csrc/u8x8_d_max7219.c **** /*==============================*/
 320:..\u8g2\csrc/u8x8_d_max7219.c **** 
 321:..\u8g2\csrc/u8x8_d_max7219.c **** static const uint8_t u8x8_d_max7219_8_init_seq[] = {
 322:..\u8g2\csrc/u8x8_d_max7219.c **** 
 323:..\u8g2\csrc/u8x8_d_max7219.c ****   U8X8_START_TRANSFER(),             	/* enable chip, delay is part of the transfer start */  
 324:..\u8g2\csrc/u8x8_d_max7219.c ****   U8X8_CA(15, 0),				/* test mode off */
 325:..\u8g2\csrc/u8x8_d_max7219.c ****   U8X8_CA(15, 0),				/* test mode off */
 326:..\u8g2\csrc/u8x8_d_max7219.c ****   U8X8_CA(15, 0),				/* test mode off */
 327:..\u8g2\csrc/u8x8_d_max7219.c ****   U8X8_CA(15, 0),				/* test mode off */
 328:..\u8g2\csrc/u8x8_d_max7219.c ****   U8X8_CA(15, 0),				/* test mode off */
 329:..\u8g2\csrc/u8x8_d_max7219.c ****   U8X8_CA(15, 0),				/* test mode off */
 330:..\u8g2\csrc/u8x8_d_max7219.c ****   U8X8_CA(15, 0),				/* test mode off */
 331:..\u8g2\csrc/u8x8_d_max7219.c ****   U8X8_CA(15, 0),				/* test mode off */
 332:..\u8g2\csrc/u8x8_d_max7219.c ****   U8X8_END_TRANSFER(),             	/* disable chip */
 333:..\u8g2\csrc/u8x8_d_max7219.c **** 
 334:..\u8g2\csrc/u8x8_d_max7219.c ****   U8X8_START_TRANSFER(),             	/* enable chip, delay is part of the transfer start */  
 335:..\u8g2\csrc/u8x8_d_max7219.c ****   U8X8_CA(12, 0),				/*  */
 336:..\u8g2\csrc/u8x8_d_max7219.c ****   U8X8_CA(12, 0),				/*  */
 337:..\u8g2\csrc/u8x8_d_max7219.c ****   U8X8_CA(12, 0),				/*  */
 338:..\u8g2\csrc/u8x8_d_max7219.c ****   U8X8_CA(12, 0),				/*  */
 339:..\u8g2\csrc/u8x8_d_max7219.c ****   U8X8_CA(12, 0),				/*  */
 340:..\u8g2\csrc/u8x8_d_max7219.c ****   U8X8_CA(12, 0),				/*  */
 341:..\u8g2\csrc/u8x8_d_max7219.c ****   U8X8_CA(12, 0),				/*  */
 342:..\u8g2\csrc/u8x8_d_max7219.c ****   U8X8_CA(12, 0),				/*  */
 343:..\u8g2\csrc/u8x8_d_max7219.c ****   U8X8_END_TRANSFER(),             	/* disable chip */
 344:..\u8g2\csrc/u8x8_d_max7219.c ****   
 345:..\u8g2\csrc/u8x8_d_max7219.c ****   U8X8_START_TRANSFER(),             	/* enable chip, delay is part of the transfer start */  
 346:..\u8g2\csrc/u8x8_d_max7219.c ****   U8X8_CA(9, 0),				/* decode mode: graphics */
 347:..\u8g2\csrc/u8x8_d_max7219.c ****   U8X8_CA(9, 0),				/* decode mode: graphics */
 348:..\u8g2\csrc/u8x8_d_max7219.c ****   U8X8_CA(9, 0),				/* decode mode: graphics */
 349:..\u8g2\csrc/u8x8_d_max7219.c ****   U8X8_CA(9, 0),				/* decode mode: graphics */
 350:..\u8g2\csrc/u8x8_d_max7219.c ****   U8X8_CA(9, 0),				/* decode mode: graphics */
 351:..\u8g2\csrc/u8x8_d_max7219.c ****   U8X8_CA(9, 0),				/* decode mode: graphics */
 352:..\u8g2\csrc/u8x8_d_max7219.c ****   U8X8_CA(9, 0),				/* decode mode: graphics */
 353:..\u8g2\csrc/u8x8_d_max7219.c ****   U8X8_CA(9, 0),				/* decode mode: graphics */
 354:..\u8g2\csrc/u8x8_d_max7219.c ****   U8X8_END_TRANSFER(),             	/* disable chip */
 355:..\u8g2\csrc/u8x8_d_max7219.c ****   
 356:..\u8g2\csrc/u8x8_d_max7219.c ****   U8X8_START_TRANSFER(),             	/* enable chip, delay is part of the transfer start */  
 357:..\u8g2\csrc/u8x8_d_max7219.c ****   U8X8_CA(10, 10),				/* medium high intensity */
 358:..\u8g2\csrc/u8x8_d_max7219.c ****   U8X8_CA(10, 10),				/* medium high intensity */
 359:..\u8g2\csrc/u8x8_d_max7219.c ****   U8X8_CA(10, 10),				/* medium high intensity */
ARM GAS  C:\Users\brian\AppData\Local\Temp\cckZehqG.s 			page 15


 360:..\u8g2\csrc/u8x8_d_max7219.c ****   U8X8_CA(10, 10),				/* medium high intensity */
 361:..\u8g2\csrc/u8x8_d_max7219.c ****   U8X8_CA(10, 10),				/* medium high intensity */
 362:..\u8g2\csrc/u8x8_d_max7219.c ****   U8X8_CA(10, 10),				/* medium high intensity */
 363:..\u8g2\csrc/u8x8_d_max7219.c ****   U8X8_CA(10, 10),				/* medium high intensity */
 364:..\u8g2\csrc/u8x8_d_max7219.c ****   U8X8_CA(10, 10),				/* medium high intensity */
 365:..\u8g2\csrc/u8x8_d_max7219.c ****   U8X8_END_TRANSFER(),             	/* disable chip */
 366:..\u8g2\csrc/u8x8_d_max7219.c ****   
 367:..\u8g2\csrc/u8x8_d_max7219.c ****   U8X8_START_TRANSFER(),             	/* enable chip, delay is part of the transfer start */  
 368:..\u8g2\csrc/u8x8_d_max7219.c ****   U8X8_CA(11, 7),				/* scan limit: display all digits (assuming a 8x8 matrix) */
 369:..\u8g2\csrc/u8x8_d_max7219.c ****   U8X8_CA(11, 7),				/* scan limit: display all digits (assuming a 8x8 matrix) */
 370:..\u8g2\csrc/u8x8_d_max7219.c ****   U8X8_CA(11, 7),				/* scan limit: display all digits (assuming a 8x8 matrix) */
 371:..\u8g2\csrc/u8x8_d_max7219.c ****   U8X8_CA(11, 7),				/* scan limit: display all digits (assuming a 8x8 matrix) */
 372:..\u8g2\csrc/u8x8_d_max7219.c ****   U8X8_CA(11, 7),				/* scan limit: display all digits (assuming a 8x8 matrix) */
 373:..\u8g2\csrc/u8x8_d_max7219.c ****   U8X8_CA(11, 7),				/* scan limit: display all digits (assuming a 8x8 matrix) */
 374:..\u8g2\csrc/u8x8_d_max7219.c ****   U8X8_CA(11, 7),				/* scan limit: display all digits (assuming a 8x8 matrix) */
 375:..\u8g2\csrc/u8x8_d_max7219.c ****   U8X8_CA(11, 7),				/* scan limit: display all digits (assuming a 8x8 matrix) */
 376:..\u8g2\csrc/u8x8_d_max7219.c ****   U8X8_END_TRANSFER(),             	/* disable chip */
 377:..\u8g2\csrc/u8x8_d_max7219.c **** 
 378:..\u8g2\csrc/u8x8_d_max7219.c **** 
 379:..\u8g2\csrc/u8x8_d_max7219.c ****   //U8X8_CA(12, 0),				/* shutdown */
 380:..\u8g2\csrc/u8x8_d_max7219.c ****     
 381:..\u8g2\csrc/u8x8_d_max7219.c ****   //U8X8_END_TRANSFER(),             	/* disable chip */
 382:..\u8g2\csrc/u8x8_d_max7219.c ****   U8X8_END()             			/* end of sequence */
 383:..\u8g2\csrc/u8x8_d_max7219.c **** };
 384:..\u8g2\csrc/u8x8_d_max7219.c **** 
 385:..\u8g2\csrc/u8x8_d_max7219.c **** static const uint8_t u8x8_d_max7219_8_powersave0_seq[] = {
 386:..\u8g2\csrc/u8x8_d_max7219.c ****   U8X8_START_TRANSFER(),             	/* enable chip, delay is part of the transfer start */
 387:..\u8g2\csrc/u8x8_d_max7219.c ****   U8X8_CA(12, 1),				/* display on */
 388:..\u8g2\csrc/u8x8_d_max7219.c ****   U8X8_CA(12, 1),				/* display on */
 389:..\u8g2\csrc/u8x8_d_max7219.c ****   U8X8_CA(12, 1),				/* display on */
 390:..\u8g2\csrc/u8x8_d_max7219.c ****   U8X8_CA(12, 1),				/* display on */
 391:..\u8g2\csrc/u8x8_d_max7219.c ****   U8X8_CA(12, 1),				/* display on */
 392:..\u8g2\csrc/u8x8_d_max7219.c ****   U8X8_CA(12, 1),				/* display on */
 393:..\u8g2\csrc/u8x8_d_max7219.c ****   U8X8_CA(12, 1),				/* display on */
 394:..\u8g2\csrc/u8x8_d_max7219.c ****   U8X8_CA(12, 1),				/* display on */
 395:..\u8g2\csrc/u8x8_d_max7219.c ****   U8X8_END_TRANSFER(),             	/* disable chip */
 396:..\u8g2\csrc/u8x8_d_max7219.c ****   U8X8_END()             			/* end of sequence */
 397:..\u8g2\csrc/u8x8_d_max7219.c **** };
 398:..\u8g2\csrc/u8x8_d_max7219.c **** 
 399:..\u8g2\csrc/u8x8_d_max7219.c **** static const uint8_t u8x8_d_max7219_8_powersave1_seq[] = {
 400:..\u8g2\csrc/u8x8_d_max7219.c ****   U8X8_START_TRANSFER(),             	/* enable chip, delay is part of the transfer start */
 401:..\u8g2\csrc/u8x8_d_max7219.c ****   U8X8_CA(12, 0),				/* shutdown */
 402:..\u8g2\csrc/u8x8_d_max7219.c ****   U8X8_CA(12, 0),				/* shutdown */
 403:..\u8g2\csrc/u8x8_d_max7219.c ****   U8X8_CA(12, 0),				/* shutdown */
 404:..\u8g2\csrc/u8x8_d_max7219.c ****   U8X8_CA(12, 0),				/* shutdown */
 405:..\u8g2\csrc/u8x8_d_max7219.c ****   U8X8_CA(12, 0),				/* shutdown */
 406:..\u8g2\csrc/u8x8_d_max7219.c ****   U8X8_CA(12, 0),				/* shutdown */
 407:..\u8g2\csrc/u8x8_d_max7219.c ****   U8X8_CA(12, 0),				/* shutdown */
 408:..\u8g2\csrc/u8x8_d_max7219.c ****   U8X8_CA(12, 0),				/* shutdown */
 409:..\u8g2\csrc/u8x8_d_max7219.c ****   U8X8_END_TRANSFER(),             	/* disable chip */
 410:..\u8g2\csrc/u8x8_d_max7219.c ****   U8X8_END()             			/* end of sequence */
 411:..\u8g2\csrc/u8x8_d_max7219.c **** };
 412:..\u8g2\csrc/u8x8_d_max7219.c **** 
 413:..\u8g2\csrc/u8x8_d_max7219.c **** 
 414:..\u8g2\csrc/u8x8_d_max7219.c **** static const u8x8_display_info_t u8x8_max7219_64x8_display_info =
 415:..\u8g2\csrc/u8x8_d_max7219.c **** {
 416:..\u8g2\csrc/u8x8_d_max7219.c ****   /* chip_enable_level = */ 0,
ARM GAS  C:\Users\brian\AppData\Local\Temp\cckZehqG.s 			page 16


 417:..\u8g2\csrc/u8x8_d_max7219.c ****   /* chip_disable_level = */ 1,
 418:..\u8g2\csrc/u8x8_d_max7219.c ****   
 419:..\u8g2\csrc/u8x8_d_max7219.c ****   /* post_chip_enable_wait_ns = */ 100,
 420:..\u8g2\csrc/u8x8_d_max7219.c ****   /* pre_chip_disable_wait_ns = */ 100,
 421:..\u8g2\csrc/u8x8_d_max7219.c ****   /* reset_pulse_width_ms = */ 100, 
 422:..\u8g2\csrc/u8x8_d_max7219.c ****   /* post_reset_wait_ms = */ 100, 
 423:..\u8g2\csrc/u8x8_d_max7219.c ****   /* sda_setup_time_ns = */ 100,	
 424:..\u8g2\csrc/u8x8_d_max7219.c ****   /* sck_pulse_width_ns = */ 100,	
 425:..\u8g2\csrc/u8x8_d_max7219.c ****   /* sck_clock_hz = */ 4000000UL,	/* since Arduino 1.6.0, the SPI bus speed in Hz. Should be  10000
 426:..\u8g2\csrc/u8x8_d_max7219.c ****   /* spi_mode = */ 0,		/* active high, rising edge */
 427:..\u8g2\csrc/u8x8_d_max7219.c ****   /* i2c_bus_clock_100kHz = */ 4,
 428:..\u8g2\csrc/u8x8_d_max7219.c ****   /* data_setup_time_ns = */ 40,
 429:..\u8g2\csrc/u8x8_d_max7219.c ****   /* write_pulse_width_ns = */ 150,	
 430:..\u8g2\csrc/u8x8_d_max7219.c ****   /* tile_width = */ 8,
 431:..\u8g2\csrc/u8x8_d_max7219.c ****   /* tile_hight = */ 1,
 432:..\u8g2\csrc/u8x8_d_max7219.c ****   /* default_x_offset = */ 0,
 433:..\u8g2\csrc/u8x8_d_max7219.c ****   /* flipmode_x_offset = */ 0,
 434:..\u8g2\csrc/u8x8_d_max7219.c ****   /* pixel_width = */ 64,
 435:..\u8g2\csrc/u8x8_d_max7219.c ****   /* pixel_height = */ 8
 436:..\u8g2\csrc/u8x8_d_max7219.c **** };
 437:..\u8g2\csrc/u8x8_d_max7219.c **** 
 438:..\u8g2\csrc/u8x8_d_max7219.c **** uint8_t u8x8_d_max7219_64x8(u8x8_t *u8x8, uint8_t msg, uint8_t arg_int, void *arg_ptr)
 439:..\u8g2\csrc/u8x8_d_max7219.c **** {
 421              		.loc 1 439 0
 422              		.cfi_startproc
 423              		@ args = 0, pretend = 0, frame = 0
 424              		@ frame_needed = 0, uses_anonymous_args = 0
 425              	.LVL69:
 426 0000 10B5     		push	{r4, lr}
 427              		.cfi_def_cfa_offset 8
 428              		.cfi_offset 4, -8
 429              		.cfi_offset 14, -4
 430 0002 0446     		mov	r4, r0
 440:..\u8g2\csrc/u8x8_d_max7219.c ****   switch(msg)
 431              		.loc 1 440 0
 432 0004 0A29     		cmp	r1, #10
 433 0006 08D0     		beq	.L49
 434 0008 0B29     		cmp	r1, #11
 435 000a 0ED0     		beq	.L50
 436 000c 0929     		cmp	r1, #9
 437 000e 17D1     		bne	.L54
 441:..\u8g2\csrc/u8x8_d_max7219.c ****   {
 442:..\u8g2\csrc/u8x8_d_max7219.c ****     case U8X8_MSG_DISPLAY_SETUP_MEMORY :
 443:..\u8g2\csrc/u8x8_d_max7219.c ****       u8x8_d_helper_display_setup_memory(u8x8, &u8x8_max7219_64x8_display_info);
 438              		.loc 1 443 0
 439 0010 0D49     		ldr	r1, .L56
 440              	.LVL70:
 441 0012 FFF7FEFF 		bl	u8x8_d_helper_display_setup_memory
 442              	.LVL71:
 444:..\u8g2\csrc/u8x8_d_max7219.c ****       return 1;
 443              		.loc 1 444 0
 444 0016 0120     		movs	r0, #1
 445 0018 10BD     		pop	{r4, pc}
 446              	.LVL72:
 447              	.L49:
 445:..\u8g2\csrc/u8x8_d_max7219.c ****     case U8X8_MSG_DISPLAY_INIT:
 446:..\u8g2\csrc/u8x8_d_max7219.c ****       u8x8_d_helper_display_init(u8x8);
ARM GAS  C:\Users\brian\AppData\Local\Temp\cckZehqG.s 			page 17


 448              		.loc 1 446 0
 449 001a FFF7FEFF 		bl	u8x8_d_helper_display_init
 450              	.LVL73:
 447:..\u8g2\csrc/u8x8_d_max7219.c ****       u8x8_cad_SendSequence(u8x8, u8x8_d_max7219_8_init_seq);    
 451              		.loc 1 447 0
 452 001e 0B49     		ldr	r1, .L56+4
 453 0020 2046     		mov	r0, r4
 454 0022 FFF7FEFF 		bl	u8x8_cad_SendSequence
 455              	.LVL74:
 448:..\u8g2\csrc/u8x8_d_max7219.c ****       return 1;
 456              		.loc 1 448 0
 457 0026 0120     		movs	r0, #1
 458 0028 10BD     		pop	{r4, pc}
 459              	.LVL75:
 460              	.L50:
 449:..\u8g2\csrc/u8x8_d_max7219.c ****     case U8X8_MSG_DISPLAY_SET_POWER_SAVE:
 450:..\u8g2\csrc/u8x8_d_max7219.c ****       if ( arg_int == 0 )
 461              		.loc 1 450 0
 462 002a 22B9     		cbnz	r2, .L53
 451:..\u8g2\csrc/u8x8_d_max7219.c **** 	u8x8_cad_SendSequence(u8x8, u8x8_d_max7219_8_powersave0_seq);
 463              		.loc 1 451 0
 464 002c 0849     		ldr	r1, .L56+8
 465              	.LVL76:
 466 002e FFF7FEFF 		bl	u8x8_cad_SendSequence
 467              	.LVL77:
 452:..\u8g2\csrc/u8x8_d_max7219.c ****       else
 453:..\u8g2\csrc/u8x8_d_max7219.c **** 	u8x8_cad_SendSequence(u8x8, u8x8_d_max7219_8_powersave1_seq);
 454:..\u8g2\csrc/u8x8_d_max7219.c ****       return 1;
 468              		.loc 1 454 0
 469 0032 0120     		movs	r0, #1
 470 0034 10BD     		pop	{r4, pc}
 471              	.LVL78:
 472              	.L53:
 453:..\u8g2\csrc/u8x8_d_max7219.c ****       return 1;
 473              		.loc 1 453 0
 474 0036 0749     		ldr	r1, .L56+12
 475              	.LVL79:
 476 0038 FFF7FEFF 		bl	u8x8_cad_SendSequence
 477              	.LVL80:
 478              		.loc 1 454 0
 479 003c 0120     		movs	r0, #1
 480 003e 10BD     		pop	{r4, pc}
 481              	.LVL81:
 482              	.L54:
 455:..\u8g2\csrc/u8x8_d_max7219.c ****   }
 456:..\u8g2\csrc/u8x8_d_max7219.c ****   return u8x8_d_max7219_generic(u8x8, msg, arg_int, arg_ptr);
 483              		.loc 1 456 0
 484 0040 FFF7FEFF 		bl	u8x8_d_max7219_generic
 485              	.LVL82:
 457:..\u8g2\csrc/u8x8_d_max7219.c **** }
 486              		.loc 1 457 0
 487 0044 10BD     		pop	{r4, pc}
 488              	.LVL83:
 489              	.L57:
 490 0046 00BF     		.align	2
 491              	.L56:
 492 0048 CC000000 		.word	.LANCHOR0+204
ARM GAS  C:\Users\brian\AppData\Local\Temp\cckZehqG.s 			page 18


 493 004c E4000000 		.word	.LANCHOR0+228
 494 0050 90010000 		.word	.LANCHOR0+400
 495 0054 B4010000 		.word	.LANCHOR0+436
 496              		.cfi_endproc
 497              	.LFE4:
 498              		.size	u8x8_d_max7219_64x8, .-u8x8_d_max7219_64x8
 499              		.section	.rodata
 500              		.align	2
 501              		.set	.LANCHOR0,. + 0
 502              		.type	u8x8_max7219_32x8_display_info, %object
 503              		.size	u8x8_max7219_32x8_display_info, 24
 504              	u8x8_max7219_32x8_display_info:
 505 0000 00       		.byte	0
 506 0001 01       		.byte	1
 507 0002 64       		.byte	100
 508 0003 64       		.byte	100
 509 0004 64       		.byte	100
 510 0005 64       		.byte	100
 511 0006 64       		.byte	100
 512 0007 64       		.byte	100
 513 0008 00093D00 		.word	4000000
 514 000c 00       		.byte	0
 515 000d 04       		.byte	4
 516 000e 28       		.byte	40
 517 000f 96       		.byte	-106
 518 0010 04       		.byte	4
 519 0011 01       		.byte	1
 520 0012 00       		.byte	0
 521 0013 00       		.byte	0
 522 0014 2000     		.short	32
 523 0016 0800     		.short	8
 524              		.type	u8x8_d_max7219_init_seq, %object
 525              		.size	u8x8_d_max7219_init_seq, 91
 526              	u8x8_d_max7219_init_seq:
 527 0018 18       		.byte	24
 528 0019 15       		.byte	21
 529 001a 0F       		.byte	15
 530 001b 16       		.byte	22
 531 001c 00       		.byte	0
 532 001d 15       		.byte	21
 533 001e 0F       		.byte	15
 534 001f 16       		.byte	22
 535 0020 00       		.byte	0
 536 0021 15       		.byte	21
 537 0022 0F       		.byte	15
 538 0023 16       		.byte	22
 539 0024 00       		.byte	0
 540 0025 15       		.byte	21
 541 0026 0F       		.byte	15
 542 0027 16       		.byte	22
 543 0028 00       		.byte	0
 544 0029 19       		.byte	25
 545 002a 18       		.byte	24
 546 002b 15       		.byte	21
 547 002c 0C       		.byte	12
 548 002d 16       		.byte	22
 549 002e 00       		.byte	0
ARM GAS  C:\Users\brian\AppData\Local\Temp\cckZehqG.s 			page 19


 550 002f 15       		.byte	21
 551 0030 0C       		.byte	12
 552 0031 16       		.byte	22
 553 0032 00       		.byte	0
 554 0033 15       		.byte	21
 555 0034 0C       		.byte	12
 556 0035 16       		.byte	22
 557 0036 00       		.byte	0
 558 0037 15       		.byte	21
 559 0038 0C       		.byte	12
 560 0039 16       		.byte	22
 561 003a 00       		.byte	0
 562 003b 19       		.byte	25
 563 003c 18       		.byte	24
 564 003d 15       		.byte	21
 565 003e 09       		.byte	9
 566 003f 16       		.byte	22
 567 0040 00       		.byte	0
 568 0041 15       		.byte	21
 569 0042 09       		.byte	9
 570 0043 16       		.byte	22
 571 0044 00       		.byte	0
 572 0045 15       		.byte	21
 573 0046 09       		.byte	9
 574 0047 16       		.byte	22
 575 0048 00       		.byte	0
 576 0049 15       		.byte	21
 577 004a 09       		.byte	9
 578 004b 16       		.byte	22
 579 004c 00       		.byte	0
 580 004d 19       		.byte	25
 581 004e 18       		.byte	24
 582 004f 15       		.byte	21
 583 0050 0A       		.byte	10
 584 0051 16       		.byte	22
 585 0052 0A       		.byte	10
 586 0053 15       		.byte	21
 587 0054 0A       		.byte	10
 588 0055 16       		.byte	22
 589 0056 0A       		.byte	10
 590 0057 15       		.byte	21
 591 0058 0A       		.byte	10
 592 0059 16       		.byte	22
 593 005a 0A       		.byte	10
 594 005b 15       		.byte	21
 595 005c 0A       		.byte	10
 596 005d 16       		.byte	22
 597 005e 0A       		.byte	10
 598 005f 19       		.byte	25
 599 0060 18       		.byte	24
 600 0061 15       		.byte	21
 601 0062 0B       		.byte	11
 602 0063 16       		.byte	22
 603 0064 07       		.byte	7
 604 0065 15       		.byte	21
 605 0066 0B       		.byte	11
 606 0067 16       		.byte	22
ARM GAS  C:\Users\brian\AppData\Local\Temp\cckZehqG.s 			page 20


 607 0068 07       		.byte	7
 608 0069 15       		.byte	21
 609 006a 0B       		.byte	11
 610 006b 16       		.byte	22
 611 006c 07       		.byte	7
 612 006d 15       		.byte	21
 613 006e 0B       		.byte	11
 614 006f 16       		.byte	22
 615 0070 07       		.byte	7
 616 0071 19       		.byte	25
 617 0072 FF       		.byte	-1
 618 0073 00       		.space	1
 619              		.type	u8x8_d_max7219_powersave0_seq, %object
 620              		.size	u8x8_d_max7219_powersave0_seq, 19
 621              	u8x8_d_max7219_powersave0_seq:
 622 0074 18       		.byte	24
 623 0075 15       		.byte	21
 624 0076 0C       		.byte	12
 625 0077 16       		.byte	22
 626 0078 01       		.byte	1
 627 0079 15       		.byte	21
 628 007a 0C       		.byte	12
 629 007b 16       		.byte	22
 630 007c 01       		.byte	1
 631 007d 15       		.byte	21
 632 007e 0C       		.byte	12
 633 007f 16       		.byte	22
 634 0080 01       		.byte	1
 635 0081 15       		.byte	21
 636 0082 0C       		.byte	12
 637 0083 16       		.byte	22
 638 0084 01       		.byte	1
 639 0085 19       		.byte	25
 640 0086 FF       		.byte	-1
 641 0087 00       		.space	1
 642              		.type	u8x8_d_max7219_powersave1_seq, %object
 643              		.size	u8x8_d_max7219_powersave1_seq, 19
 644              	u8x8_d_max7219_powersave1_seq:
 645 0088 18       		.byte	24
 646 0089 15       		.byte	21
 647 008a 0C       		.byte	12
 648 008b 16       		.byte	22
 649 008c 00       		.byte	0
 650 008d 15       		.byte	21
 651 008e 0C       		.byte	12
 652 008f 16       		.byte	22
 653 0090 00       		.byte	0
 654 0091 15       		.byte	21
 655 0092 0C       		.byte	12
 656 0093 16       		.byte	22
 657 0094 00       		.byte	0
 658 0095 15       		.byte	21
 659 0096 0C       		.byte	12
 660 0097 16       		.byte	22
 661 0098 00       		.byte	0
 662 0099 19       		.byte	25
 663 009a FF       		.byte	-1
ARM GAS  C:\Users\brian\AppData\Local\Temp\cckZehqG.s 			page 21


 664 009b 00       		.space	1
 665              		.type	u8x8_max7219_16x16_display_info, %object
 666              		.size	u8x8_max7219_16x16_display_info, 24
 667              	u8x8_max7219_16x16_display_info:
 668 009c 00       		.byte	0
 669 009d 01       		.byte	1
 670 009e 64       		.byte	100
 671 009f 64       		.byte	100
 672 00a0 64       		.byte	100
 673 00a1 64       		.byte	100
 674 00a2 64       		.byte	100
 675 00a3 64       		.byte	100
 676 00a4 00093D00 		.word	4000000
 677 00a8 00       		.byte	0
 678 00a9 04       		.byte	4
 679 00aa 28       		.byte	40
 680 00ab 96       		.byte	-106
 681 00ac 02       		.byte	2
 682 00ad 02       		.byte	2
 683 00ae 00       		.byte	0
 684 00af 00       		.byte	0
 685 00b0 1000     		.short	16
 686 00b2 1000     		.short	16
 687              		.type	u8x8_max7219_8x8_display_info, %object
 688              		.size	u8x8_max7219_8x8_display_info, 24
 689              	u8x8_max7219_8x8_display_info:
 690 00b4 00       		.byte	0
 691 00b5 01       		.byte	1
 692 00b6 64       		.byte	100
 693 00b7 64       		.byte	100
 694 00b8 64       		.byte	100
 695 00b9 64       		.byte	100
 696 00ba 64       		.byte	100
 697 00bb 64       		.byte	100
 698 00bc 00093D00 		.word	4000000
 699 00c0 00       		.byte	0
 700 00c1 04       		.byte	4
 701 00c2 28       		.byte	40
 702 00c3 96       		.byte	-106
 703 00c4 01       		.byte	1
 704 00c5 01       		.byte	1
 705 00c6 00       		.byte	0
 706 00c7 00       		.byte	0
 707 00c8 0800     		.short	8
 708 00ca 0800     		.short	8
 709              		.type	u8x8_max7219_64x8_display_info, %object
 710              		.size	u8x8_max7219_64x8_display_info, 24
 711              	u8x8_max7219_64x8_display_info:
 712 00cc 00       		.byte	0
 713 00cd 01       		.byte	1
 714 00ce 64       		.byte	100
 715 00cf 64       		.byte	100
 716 00d0 64       		.byte	100
 717 00d1 64       		.byte	100
 718 00d2 64       		.byte	100
 719 00d3 64       		.byte	100
 720 00d4 00093D00 		.word	4000000
ARM GAS  C:\Users\brian\AppData\Local\Temp\cckZehqG.s 			page 22


 721 00d8 00       		.byte	0
 722 00d9 04       		.byte	4
 723 00da 28       		.byte	40
 724 00db 96       		.byte	-106
 725 00dc 08       		.byte	8
 726 00dd 01       		.byte	1
 727 00de 00       		.byte	0
 728 00df 00       		.byte	0
 729 00e0 4000     		.short	64
 730 00e2 0800     		.short	8
 731              		.type	u8x8_d_max7219_8_init_seq, %object
 732              		.size	u8x8_d_max7219_8_init_seq, 171
 733              	u8x8_d_max7219_8_init_seq:
 734 00e4 18       		.byte	24
 735 00e5 15       		.byte	21
 736 00e6 0F       		.byte	15
 737 00e7 16       		.byte	22
 738 00e8 00       		.byte	0
 739 00e9 15       		.byte	21
 740 00ea 0F       		.byte	15
 741 00eb 16       		.byte	22
 742 00ec 00       		.byte	0
 743 00ed 15       		.byte	21
 744 00ee 0F       		.byte	15
 745 00ef 16       		.byte	22
 746 00f0 00       		.byte	0
 747 00f1 15       		.byte	21
 748 00f2 0F       		.byte	15
 749 00f3 16       		.byte	22
 750 00f4 00       		.byte	0
 751 00f5 15       		.byte	21
 752 00f6 0F       		.byte	15
 753 00f7 16       		.byte	22
 754 00f8 00       		.byte	0
 755 00f9 15       		.byte	21
 756 00fa 0F       		.byte	15
 757 00fb 16       		.byte	22
 758 00fc 00       		.byte	0
 759 00fd 15       		.byte	21
 760 00fe 0F       		.byte	15
 761 00ff 16       		.byte	22
 762 0100 00       		.byte	0
 763 0101 15       		.byte	21
 764 0102 0F       		.byte	15
 765 0103 16       		.byte	22
 766 0104 00       		.byte	0
 767 0105 19       		.byte	25
 768 0106 18       		.byte	24
 769 0107 15       		.byte	21
 770 0108 0C       		.byte	12
 771 0109 16       		.byte	22
 772 010a 00       		.byte	0
 773 010b 15       		.byte	21
 774 010c 0C       		.byte	12
 775 010d 16       		.byte	22
 776 010e 00       		.byte	0
 777 010f 15       		.byte	21
ARM GAS  C:\Users\brian\AppData\Local\Temp\cckZehqG.s 			page 23


 778 0110 0C       		.byte	12
 779 0111 16       		.byte	22
 780 0112 00       		.byte	0
 781 0113 15       		.byte	21
 782 0114 0C       		.byte	12
 783 0115 16       		.byte	22
 784 0116 00       		.byte	0
 785 0117 15       		.byte	21
 786 0118 0C       		.byte	12
 787 0119 16       		.byte	22
 788 011a 00       		.byte	0
 789 011b 15       		.byte	21
 790 011c 0C       		.byte	12
 791 011d 16       		.byte	22
 792 011e 00       		.byte	0
 793 011f 15       		.byte	21
 794 0120 0C       		.byte	12
 795 0121 16       		.byte	22
 796 0122 00       		.byte	0
 797 0123 15       		.byte	21
 798 0124 0C       		.byte	12
 799 0125 16       		.byte	22
 800 0126 00       		.byte	0
 801 0127 19       		.byte	25
 802 0128 18       		.byte	24
 803 0129 15       		.byte	21
 804 012a 09       		.byte	9
 805 012b 16       		.byte	22
 806 012c 00       		.byte	0
 807 012d 15       		.byte	21
 808 012e 09       		.byte	9
 809 012f 16       		.byte	22
 810 0130 00       		.byte	0
 811 0131 15       		.byte	21
 812 0132 09       		.byte	9
 813 0133 16       		.byte	22
 814 0134 00       		.byte	0
 815 0135 15       		.byte	21
 816 0136 09       		.byte	9
 817 0137 16       		.byte	22
 818 0138 00       		.byte	0
 819 0139 15       		.byte	21
 820 013a 09       		.byte	9
 821 013b 16       		.byte	22
 822 013c 00       		.byte	0
 823 013d 15       		.byte	21
 824 013e 09       		.byte	9
 825 013f 16       		.byte	22
 826 0140 00       		.byte	0
 827 0141 15       		.byte	21
 828 0142 09       		.byte	9
 829 0143 16       		.byte	22
 830 0144 00       		.byte	0
 831 0145 15       		.byte	21
 832 0146 09       		.byte	9
 833 0147 16       		.byte	22
 834 0148 00       		.byte	0
ARM GAS  C:\Users\brian\AppData\Local\Temp\cckZehqG.s 			page 24


 835 0149 19       		.byte	25
 836 014a 18       		.byte	24
 837 014b 15       		.byte	21
 838 014c 0A       		.byte	10
 839 014d 16       		.byte	22
 840 014e 0A       		.byte	10
 841 014f 15       		.byte	21
 842 0150 0A       		.byte	10
 843 0151 16       		.byte	22
 844 0152 0A       		.byte	10
 845 0153 15       		.byte	21
 846 0154 0A       		.byte	10
 847 0155 16       		.byte	22
 848 0156 0A       		.byte	10
 849 0157 15       		.byte	21
 850 0158 0A       		.byte	10
 851 0159 16       		.byte	22
 852 015a 0A       		.byte	10
 853 015b 15       		.byte	21
 854 015c 0A       		.byte	10
 855 015d 16       		.byte	22
 856 015e 0A       		.byte	10
 857 015f 15       		.byte	21
 858 0160 0A       		.byte	10
 859 0161 16       		.byte	22
 860 0162 0A       		.byte	10
 861 0163 15       		.byte	21
 862 0164 0A       		.byte	10
 863 0165 16       		.byte	22
 864 0166 0A       		.byte	10
 865 0167 15       		.byte	21
 866 0168 0A       		.byte	10
 867 0169 16       		.byte	22
 868 016a 0A       		.byte	10
 869 016b 19       		.byte	25
 870 016c 18       		.byte	24
 871 016d 15       		.byte	21
 872 016e 0B       		.byte	11
 873 016f 16       		.byte	22
 874 0170 07       		.byte	7
 875 0171 15       		.byte	21
 876 0172 0B       		.byte	11
 877 0173 16       		.byte	22
 878 0174 07       		.byte	7
 879 0175 15       		.byte	21
 880 0176 0B       		.byte	11
 881 0177 16       		.byte	22
 882 0178 07       		.byte	7
 883 0179 15       		.byte	21
 884 017a 0B       		.byte	11
 885 017b 16       		.byte	22
 886 017c 07       		.byte	7
 887 017d 15       		.byte	21
 888 017e 0B       		.byte	11
 889 017f 16       		.byte	22
 890 0180 07       		.byte	7
 891 0181 15       		.byte	21
ARM GAS  C:\Users\brian\AppData\Local\Temp\cckZehqG.s 			page 25


 892 0182 0B       		.byte	11
 893 0183 16       		.byte	22
 894 0184 07       		.byte	7
 895 0185 15       		.byte	21
 896 0186 0B       		.byte	11
 897 0187 16       		.byte	22
 898 0188 07       		.byte	7
 899 0189 15       		.byte	21
 900 018a 0B       		.byte	11
 901 018b 16       		.byte	22
 902 018c 07       		.byte	7
 903 018d 19       		.byte	25
 904 018e FF       		.byte	-1
 905 018f 00       		.space	1
 906              		.type	u8x8_d_max7219_8_powersave0_seq, %object
 907              		.size	u8x8_d_max7219_8_powersave0_seq, 35
 908              	u8x8_d_max7219_8_powersave0_seq:
 909 0190 18       		.byte	24
 910 0191 15       		.byte	21
 911 0192 0C       		.byte	12
 912 0193 16       		.byte	22
 913 0194 01       		.byte	1
 914 0195 15       		.byte	21
 915 0196 0C       		.byte	12
 916 0197 16       		.byte	22
 917 0198 01       		.byte	1
 918 0199 15       		.byte	21
 919 019a 0C       		.byte	12
 920 019b 16       		.byte	22
 921 019c 01       		.byte	1
 922 019d 15       		.byte	21
 923 019e 0C       		.byte	12
 924 019f 16       		.byte	22
 925 01a0 01       		.byte	1
 926 01a1 15       		.byte	21
 927 01a2 0C       		.byte	12
 928 01a3 16       		.byte	22
 929 01a4 01       		.byte	1
 930 01a5 15       		.byte	21
 931 01a6 0C       		.byte	12
 932 01a7 16       		.byte	22
 933 01a8 01       		.byte	1
 934 01a9 15       		.byte	21
 935 01aa 0C       		.byte	12
 936 01ab 16       		.byte	22
 937 01ac 01       		.byte	1
 938 01ad 15       		.byte	21
 939 01ae 0C       		.byte	12
 940 01af 16       		.byte	22
 941 01b0 01       		.byte	1
 942 01b1 19       		.byte	25
 943 01b2 FF       		.byte	-1
 944 01b3 00       		.space	1
 945              		.type	u8x8_d_max7219_8_powersave1_seq, %object
 946              		.size	u8x8_d_max7219_8_powersave1_seq, 35
 947              	u8x8_d_max7219_8_powersave1_seq:
 948 01b4 18       		.byte	24
ARM GAS  C:\Users\brian\AppData\Local\Temp\cckZehqG.s 			page 26


 949 01b5 15       		.byte	21
 950 01b6 0C       		.byte	12
 951 01b7 16       		.byte	22
 952 01b8 00       		.byte	0
 953 01b9 15       		.byte	21
 954 01ba 0C       		.byte	12
 955 01bb 16       		.byte	22
 956 01bc 00       		.byte	0
 957 01bd 15       		.byte	21
 958 01be 0C       		.byte	12
 959 01bf 16       		.byte	22
 960 01c0 00       		.byte	0
 961 01c1 15       		.byte	21
 962 01c2 0C       		.byte	12
 963 01c3 16       		.byte	22
 964 01c4 00       		.byte	0
 965 01c5 15       		.byte	21
 966 01c6 0C       		.byte	12
 967 01c7 16       		.byte	22
 968 01c8 00       		.byte	0
 969 01c9 15       		.byte	21
 970 01ca 0C       		.byte	12
 971 01cb 16       		.byte	22
 972 01cc 00       		.byte	0
 973 01cd 15       		.byte	21
 974 01ce 0C       		.byte	12
 975 01cf 16       		.byte	22
 976 01d0 00       		.byte	0
 977 01d1 15       		.byte	21
 978 01d2 0C       		.byte	12
 979 01d3 16       		.byte	22
 980 01d4 00       		.byte	0
 981 01d5 19       		.byte	25
 982 01d6 FF       		.byte	-1
 983              		.text
 984              	.Letext0:
 985              		.file 2 "c:\\program files (x86)\\cypress\\psoc creator\\4.4\\psoc creator\\import\\gnu\\arm\\5.4.
 986              		.file 3 "c:\\program files (x86)\\cypress\\psoc creator\\4.4\\psoc creator\\import\\gnu\\arm\\5.4.
 987              		.file 4 "..\\u8g2\\csrc\\u8x8.h"