ARM GAS  C:\Users\brian\AppData\Local\Temp\ccah04ec.s 			page 1


   1              		.syntax unified
   2              		.cpu cortex-m3
   3              		.fpu softvfp
   4              		.eabi_attribute 20, 1
   5              		.eabi_attribute 21, 1
   6              		.eabi_attribute 23, 3
   7              		.eabi_attribute 24, 1
   8              		.eabi_attribute 25, 1
   9              		.eabi_attribute 26, 1
  10              		.eabi_attribute 30, 1
  11              		.eabi_attribute 34, 1
  12              		.eabi_attribute 18, 4
  13              		.thumb
  14              		.syntax unified
  15              		.file	"u8x8_d_uc1701_dogs102.c"
  16              		.text
  17              	.Ltext0:
  18              		.cfi_sections	.debug_frame
  19              		.section	.text.u8x8_d_uc1701_ea_dogs102,"ax",%progbits
  20              		.align	2
  21              		.global	u8x8_d_uc1701_ea_dogs102
  22              		.thumb
  23              		.thumb_func
  24              		.type	u8x8_d_uc1701_ea_dogs102, %function
  25              	u8x8_d_uc1701_ea_dogs102:
  26              	.LFB0:
  27              		.file 1 "..\\u8g2\\csrc\\u8x8_d_uc1701_dogs102.c"
   1:..\u8g2\csrc/u8x8_d_uc1701_dogs102.c **** /*
   2:..\u8g2\csrc/u8x8_d_uc1701_dogs102.c **** 
   3:..\u8g2\csrc/u8x8_d_uc1701_dogs102.c ****   u8x8_d_uc1701_dogs102.c
   4:..\u8g2\csrc/u8x8_d_uc1701_dogs102.c ****   
   5:..\u8g2\csrc/u8x8_d_uc1701_dogs102.c ****   Universal 8bit Graphics Library (https://github.com/olikraus/u8g2/)
   6:..\u8g2\csrc/u8x8_d_uc1701_dogs102.c **** 
   7:..\u8g2\csrc/u8x8_d_uc1701_dogs102.c ****   Copyright (c) 2016, olikraus@gmail.com
   8:..\u8g2\csrc/u8x8_d_uc1701_dogs102.c ****   All rights reserved.
   9:..\u8g2\csrc/u8x8_d_uc1701_dogs102.c **** 
  10:..\u8g2\csrc/u8x8_d_uc1701_dogs102.c ****   Redistribution and use in source and binary forms, with or without modification, 
  11:..\u8g2\csrc/u8x8_d_uc1701_dogs102.c ****   are permitted provided that the following conditions are met:
  12:..\u8g2\csrc/u8x8_d_uc1701_dogs102.c **** 
  13:..\u8g2\csrc/u8x8_d_uc1701_dogs102.c ****   * Redistributions of source code must retain the above copyright notice, this list 
  14:..\u8g2\csrc/u8x8_d_uc1701_dogs102.c ****     of conditions and the following disclaimer.
  15:..\u8g2\csrc/u8x8_d_uc1701_dogs102.c ****     
  16:..\u8g2\csrc/u8x8_d_uc1701_dogs102.c ****   * Redistributions in binary form must reproduce the above copyright notice, this 
  17:..\u8g2\csrc/u8x8_d_uc1701_dogs102.c ****     list of conditions and the following disclaimer in the documentation and/or other 
  18:..\u8g2\csrc/u8x8_d_uc1701_dogs102.c ****     materials provided with the distribution.
  19:..\u8g2\csrc/u8x8_d_uc1701_dogs102.c **** 
  20:..\u8g2\csrc/u8x8_d_uc1701_dogs102.c ****   THIS SOFTWARE IS PROVIDED BY THE COPYRIGHT HOLDERS AND 
  21:..\u8g2\csrc/u8x8_d_uc1701_dogs102.c ****   CONTRIBUTORS "AS IS" AND ANY EXPRESS OR IMPLIED WARRANTIES, 
  22:..\u8g2\csrc/u8x8_d_uc1701_dogs102.c ****   INCLUDING, BUT NOT LIMITED TO, THE IMPLIED WARRANTIES OF 
  23:..\u8g2\csrc/u8x8_d_uc1701_dogs102.c ****   MERCHANTABILITY AND FITNESS FOR A PARTICULAR PURPOSE ARE 
  24:..\u8g2\csrc/u8x8_d_uc1701_dogs102.c ****   DISCLAIMED. IN NO EVENT SHALL THE COPYRIGHT HOLDER OR 
  25:..\u8g2\csrc/u8x8_d_uc1701_dogs102.c ****   CONTRIBUTORS BE LIABLE FOR ANY DIRECT, INDIRECT, INCIDENTAL, 
  26:..\u8g2\csrc/u8x8_d_uc1701_dogs102.c ****   SPECIAL, EXEMPLARY, OR CONSEQUENTIAL DAMAGES (INCLUDING, BUT 
  27:..\u8g2\csrc/u8x8_d_uc1701_dogs102.c ****   NOT LIMITED TO, PROCUREMENT OF SUBSTITUTE GOODS OR SERVICES; 
  28:..\u8g2\csrc/u8x8_d_uc1701_dogs102.c ****   LOSS OF USE, DATA, OR PROFITS; OR BUSINESS INTERRUPTION) HOWEVER 
  29:..\u8g2\csrc/u8x8_d_uc1701_dogs102.c ****   CAUSED AND ON ANY THEORY OF LIABILITY, WHETHER IN CONTRACT, 
  30:..\u8g2\csrc/u8x8_d_uc1701_dogs102.c ****   STRICT LIABILITY, OR TORT (INCLUDING NEGLIGENCE OR OTHERWISE) 
ARM GAS  C:\Users\brian\AppData\Local\Temp\ccah04ec.s 			page 2


  31:..\u8g2\csrc/u8x8_d_uc1701_dogs102.c ****   ARISING IN ANY WAY OUT OF THE USE OF THIS SOFTWARE, EVEN IF 
  32:..\u8g2\csrc/u8x8_d_uc1701_dogs102.c ****   ADVISED OF THE POSSIBILITY OF SUCH DAMAGE.  
  33:..\u8g2\csrc/u8x8_d_uc1701_dogs102.c **** 
  34:..\u8g2\csrc/u8x8_d_uc1701_dogs102.c ****   
  35:..\u8g2\csrc/u8x8_d_uc1701_dogs102.c **** */
  36:..\u8g2\csrc/u8x8_d_uc1701_dogs102.c **** #include "u8x8.h"
  37:..\u8g2\csrc/u8x8_d_uc1701_dogs102.c **** 
  38:..\u8g2\csrc/u8x8_d_uc1701_dogs102.c **** 
  39:..\u8g2\csrc/u8x8_d_uc1701_dogs102.c **** 
  40:..\u8g2\csrc/u8x8_d_uc1701_dogs102.c **** 
  41:..\u8g2\csrc/u8x8_d_uc1701_dogs102.c **** static const uint8_t u8x8_d_uc1701_dogs102_init_seq[] = {
  42:..\u8g2\csrc/u8x8_d_uc1701_dogs102.c ****     
  43:..\u8g2\csrc/u8x8_d_uc1701_dogs102.c ****   U8X8_START_TRANSFER(),             	/* enable chip, delay is part of the transfer start */
  44:..\u8g2\csrc/u8x8_d_uc1701_dogs102.c ****   
  45:..\u8g2\csrc/u8x8_d_uc1701_dogs102.c ****   U8X8_C(0x0e2),            			/* soft reset */
  46:..\u8g2\csrc/u8x8_d_uc1701_dogs102.c ****   U8X8_C(0x0ae),		                /* display off */
  47:..\u8g2\csrc/u8x8_d_uc1701_dogs102.c ****   U8X8_C(0x040),		                /* set display start line to 0 */
  48:..\u8g2\csrc/u8x8_d_uc1701_dogs102.c ****   
  49:..\u8g2\csrc/u8x8_d_uc1701_dogs102.c ****   U8X8_C(0x0a1),		                /* ADC set to reverse */
  50:..\u8g2\csrc/u8x8_d_uc1701_dogs102.c ****   U8X8_C(0x0c0),		                /* common output mode */
  51:..\u8g2\csrc/u8x8_d_uc1701_dogs102.c ****   // Flipmode
  52:..\u8g2\csrc/u8x8_d_uc1701_dogs102.c ****   //U8X8_C(0x0a0),		                /* ADC set to reverse */
  53:..\u8g2\csrc/u8x8_d_uc1701_dogs102.c ****   //U8X8_C(0x0c8),		                /* common output mode */
  54:..\u8g2\csrc/u8x8_d_uc1701_dogs102.c ****   
  55:..\u8g2\csrc/u8x8_d_uc1701_dogs102.c ****   U8X8_C(0x0a6),		                /* display normal, bit val 0: LCD pixel off. */
  56:..\u8g2\csrc/u8x8_d_uc1701_dogs102.c ****   U8X8_C(0x0a2),		                /* LCD bias 1/9 */
  57:..\u8g2\csrc/u8x8_d_uc1701_dogs102.c ****   U8X8_C(0x02f),		                /* all power  control circuits on */
  58:..\u8g2\csrc/u8x8_d_uc1701_dogs102.c ****   U8X8_C(0x027),		                /* regulator, booster and follower */
  59:..\u8g2\csrc/u8x8_d_uc1701_dogs102.c ****   U8X8_CA(0x081, 0x00e),		/* set contrast, contrast value, EA default: 0x010, previous value for S1
  60:..\u8g2\csrc/u8x8_d_uc1701_dogs102.c ****   U8X8_C(0x0fa),		                /* Set Temp compensation */ 
  61:..\u8g2\csrc/u8x8_d_uc1701_dogs102.c ****   U8X8_C(0x090),		                /* 0.11 deg/c WP Off WC Off*/
  62:..\u8g2\csrc/u8x8_d_uc1701_dogs102.c ****   
  63:..\u8g2\csrc/u8x8_d_uc1701_dogs102.c ****   U8X8_C(0x0ae),		                /* display off */
  64:..\u8g2\csrc/u8x8_d_uc1701_dogs102.c ****   U8X8_C(0x0a5),		                /* enter powersafe: all pixel on, issue 142 */
  65:..\u8g2\csrc/u8x8_d_uc1701_dogs102.c ****   
  66:..\u8g2\csrc/u8x8_d_uc1701_dogs102.c ****   U8X8_END_TRANSFER(),             	/* disable chip */
  67:..\u8g2\csrc/u8x8_d_uc1701_dogs102.c ****   U8X8_END()             			/* end of sequence */
  68:..\u8g2\csrc/u8x8_d_uc1701_dogs102.c **** };
  69:..\u8g2\csrc/u8x8_d_uc1701_dogs102.c **** 
  70:..\u8g2\csrc/u8x8_d_uc1701_dogs102.c **** static const uint8_t u8x8_d_uc1701_dogs102_powersave0_seq[] = {
  71:..\u8g2\csrc/u8x8_d_uc1701_dogs102.c ****   U8X8_START_TRANSFER(),             	/* enable chip, delay is part of the transfer start */
  72:..\u8g2\csrc/u8x8_d_uc1701_dogs102.c ****   U8X8_C(0x0a4),		                /* all pixel off, issue 142 */
  73:..\u8g2\csrc/u8x8_d_uc1701_dogs102.c ****   U8X8_C(0x0af),		                /* display on */
  74:..\u8g2\csrc/u8x8_d_uc1701_dogs102.c ****   U8X8_END_TRANSFER(),             	/* disable chip */
  75:..\u8g2\csrc/u8x8_d_uc1701_dogs102.c ****   U8X8_END()             			/* end of sequence */
  76:..\u8g2\csrc/u8x8_d_uc1701_dogs102.c **** };
  77:..\u8g2\csrc/u8x8_d_uc1701_dogs102.c **** 
  78:..\u8g2\csrc/u8x8_d_uc1701_dogs102.c **** static const uint8_t u8x8_d_uc1701_dogs102_powersave1_seq[] = {
  79:..\u8g2\csrc/u8x8_d_uc1701_dogs102.c ****   U8X8_START_TRANSFER(),             	/* enable chip, delay is part of the transfer start */
  80:..\u8g2\csrc/u8x8_d_uc1701_dogs102.c ****   U8X8_C(0x0ae),		                /* display off */
  81:..\u8g2\csrc/u8x8_d_uc1701_dogs102.c ****   U8X8_C(0x0a5),		                /* enter powersafe: all pixel on, issue 142 */
  82:..\u8g2\csrc/u8x8_d_uc1701_dogs102.c ****   U8X8_END_TRANSFER(),             	/* disable chip */
  83:..\u8g2\csrc/u8x8_d_uc1701_dogs102.c ****   U8X8_END()             			/* end of sequence */
  84:..\u8g2\csrc/u8x8_d_uc1701_dogs102.c **** };
  85:..\u8g2\csrc/u8x8_d_uc1701_dogs102.c **** 
  86:..\u8g2\csrc/u8x8_d_uc1701_dogs102.c **** static const uint8_t u8x8_d_uc1701_dogs102_flip0_seq[] = {
  87:..\u8g2\csrc/u8x8_d_uc1701_dogs102.c ****   U8X8_START_TRANSFER(),             	/* enable chip, delay is part of the transfer start */
ARM GAS  C:\Users\brian\AppData\Local\Temp\ccah04ec.s 			page 3


  88:..\u8g2\csrc/u8x8_d_uc1701_dogs102.c ****   U8X8_C(0x0a1),				/* segment remap a0/a1*/
  89:..\u8g2\csrc/u8x8_d_uc1701_dogs102.c ****   U8X8_C(0x0c0),				/* c0: scan dir normal, c8: reverse */
  90:..\u8g2\csrc/u8x8_d_uc1701_dogs102.c ****   U8X8_END_TRANSFER(),             	/* disable chip */
  91:..\u8g2\csrc/u8x8_d_uc1701_dogs102.c ****   U8X8_END()             			/* end of sequence */
  92:..\u8g2\csrc/u8x8_d_uc1701_dogs102.c **** };
  93:..\u8g2\csrc/u8x8_d_uc1701_dogs102.c **** 
  94:..\u8g2\csrc/u8x8_d_uc1701_dogs102.c **** static const uint8_t u8x8_d_uc1701_dogs102_flip1_seq[] = {
  95:..\u8g2\csrc/u8x8_d_uc1701_dogs102.c ****   U8X8_START_TRANSFER(),             	/* enable chip, delay is part of the transfer start */
  96:..\u8g2\csrc/u8x8_d_uc1701_dogs102.c ****   U8X8_C(0x0a0),				/* segment remap a0/a1*/
  97:..\u8g2\csrc/u8x8_d_uc1701_dogs102.c ****   U8X8_C(0x0c8),				/* c0: scan dir normal, c8: reverse */
  98:..\u8g2\csrc/u8x8_d_uc1701_dogs102.c ****   U8X8_END_TRANSFER(),             	/* disable chip */
  99:..\u8g2\csrc/u8x8_d_uc1701_dogs102.c ****   U8X8_END()             			/* end of sequence */
 100:..\u8g2\csrc/u8x8_d_uc1701_dogs102.c **** };
 101:..\u8g2\csrc/u8x8_d_uc1701_dogs102.c **** 
 102:..\u8g2\csrc/u8x8_d_uc1701_dogs102.c **** 
 103:..\u8g2\csrc/u8x8_d_uc1701_dogs102.c **** static const u8x8_display_info_t u8x8_uc1701_display_info =
 104:..\u8g2\csrc/u8x8_d_uc1701_dogs102.c **** {
 105:..\u8g2\csrc/u8x8_d_uc1701_dogs102.c ****   /* chip_enable_level = */ 0,
 106:..\u8g2\csrc/u8x8_d_uc1701_dogs102.c ****   /* chip_disable_level = */ 1,
 107:..\u8g2\csrc/u8x8_d_uc1701_dogs102.c ****   
 108:..\u8g2\csrc/u8x8_d_uc1701_dogs102.c ****   /* post_chip_enable_wait_ns = */ 5,
 109:..\u8g2\csrc/u8x8_d_uc1701_dogs102.c ****   /* pre_chip_disable_wait_ns = */ 5,
 110:..\u8g2\csrc/u8x8_d_uc1701_dogs102.c ****   /* reset_pulse_width_ms = */ 1, 
 111:..\u8g2\csrc/u8x8_d_uc1701_dogs102.c ****   /* post_reset_wait_ms = */ 6, 
 112:..\u8g2\csrc/u8x8_d_uc1701_dogs102.c ****   /* sda_setup_time_ns = */ 12,		
 113:..\u8g2\csrc/u8x8_d_uc1701_dogs102.c ****   /* sck_pulse_width_ns = */ 75,	/* half of cycle time (100ns according to datasheet), AVR: below 7
 114:..\u8g2\csrc/u8x8_d_uc1701_dogs102.c ****   /* sck_clock_hz = */ 4000000UL,	/* since Arduino 1.6.0, the SPI bus speed in Hz. Should be  10000
 115:..\u8g2\csrc/u8x8_d_uc1701_dogs102.c ****   /* spi_mode = */ 0,		/* active high, rising edge */
 116:..\u8g2\csrc/u8x8_d_uc1701_dogs102.c ****   /* i2c_bus_clock_100kHz = */ 4,
 117:..\u8g2\csrc/u8x8_d_uc1701_dogs102.c ****   /* data_setup_time_ns = */ 30,
 118:..\u8g2\csrc/u8x8_d_uc1701_dogs102.c ****   /* write_pulse_width_ns = */ 40,
 119:..\u8g2\csrc/u8x8_d_uc1701_dogs102.c ****   /* tile_width = */ 13,		/* width of 13*8=104 pixel */
 120:..\u8g2\csrc/u8x8_d_uc1701_dogs102.c ****   /* tile_hight = */ 8,
 121:..\u8g2\csrc/u8x8_d_uc1701_dogs102.c ****   /* default_x_offset = */ 0,
 122:..\u8g2\csrc/u8x8_d_uc1701_dogs102.c ****   /* flipmode_x_offset = */ 30,
 123:..\u8g2\csrc/u8x8_d_uc1701_dogs102.c ****   /* pixel_width = */ 102,
 124:..\u8g2\csrc/u8x8_d_uc1701_dogs102.c ****   /* pixel_height = */ 64
 125:..\u8g2\csrc/u8x8_d_uc1701_dogs102.c **** };
 126:..\u8g2\csrc/u8x8_d_uc1701_dogs102.c **** 
 127:..\u8g2\csrc/u8x8_d_uc1701_dogs102.c **** uint8_t u8x8_d_uc1701_ea_dogs102(u8x8_t *u8x8, uint8_t msg, uint8_t arg_int, void *arg_ptr)
 128:..\u8g2\csrc/u8x8_d_uc1701_dogs102.c **** {
  28              		.loc 1 128 0
  29              		.cfi_startproc
  30              		@ args = 0, pretend = 0, frame = 0
  31              		@ frame_needed = 0, uses_anonymous_args = 0
  32              	.LVL0:
  33 0000 2DE9F041 		push	{r4, r5, r6, r7, r8, lr}
  34              		.cfi_def_cfa_offset 24
  35              		.cfi_offset 4, -24
  36              		.cfi_offset 5, -20
  37              		.cfi_offset 6, -16
  38              		.cfi_offset 7, -12
  39              		.cfi_offset 8, -8
  40              		.cfi_offset 14, -4
  41 0004 0546     		mov	r5, r0
  42 0006 1446     		mov	r4, r2
  43 0008 1F46     		mov	r7, r3
ARM GAS  C:\Users\brian\AppData\Local\Temp\ccah04ec.s 			page 4


 129:..\u8g2\csrc/u8x8_d_uc1701_dogs102.c ****   uint8_t x, c;
 130:..\u8g2\csrc/u8x8_d_uc1701_dogs102.c ****   uint8_t *ptr;
 131:..\u8g2\csrc/u8x8_d_uc1701_dogs102.c ****   switch(msg)
  44              		.loc 1 131 0
  45 000a 0939     		subs	r1, r1, #9
  46              	.LVL1:
  47 000c 0629     		cmp	r1, #6
  48 000e 7CD8     		bhi	.L14
  49 0010 DFE801F0 		tbb	[pc, r1]
  50              	.LVL2:
  51              	.L4:
  52 0014 04       		.byte	(.L3-.L4)/2
  53 0015 0A       		.byte	(.L5-.L4)/2
  54 0016 13       		.byte	(.L6-.L4)/2
  55 0017 7B       		.byte	(.L14-.L4)/2
  56 0018 20       		.byte	(.L7-.L4)/2
  57 0019 35       		.byte	(.L8-.L4)/2
  58 001a 45       		.byte	(.L9-.L4)/2
  59 001b 00       		.p2align 1
  60              	.L3:
 132:..\u8g2\csrc/u8x8_d_uc1701_dogs102.c ****   {
 133:..\u8g2\csrc/u8x8_d_uc1701_dogs102.c ****     case U8X8_MSG_DISPLAY_SETUP_MEMORY:
 134:..\u8g2\csrc/u8x8_d_uc1701_dogs102.c ****       u8x8_d_helper_display_setup_memory(u8x8, &u8x8_uc1701_display_info);
  61              		.loc 1 134 0
  62 001c 3C49     		ldr	r1, .L16
  63 001e FFF7FEFF 		bl	u8x8_d_helper_display_setup_memory
  64              	.LVL3:
 135:..\u8g2\csrc/u8x8_d_uc1701_dogs102.c ****       break;
 136:..\u8g2\csrc/u8x8_d_uc1701_dogs102.c ****     case U8X8_MSG_DISPLAY_INIT:
 137:..\u8g2\csrc/u8x8_d_uc1701_dogs102.c ****       u8x8_d_helper_display_init(u8x8);
 138:..\u8g2\csrc/u8x8_d_uc1701_dogs102.c ****       u8x8_cad_SendSequence(u8x8, u8x8_d_uc1701_dogs102_init_seq);
 139:..\u8g2\csrc/u8x8_d_uc1701_dogs102.c ****       break;
 140:..\u8g2\csrc/u8x8_d_uc1701_dogs102.c ****     case U8X8_MSG_DISPLAY_SET_POWER_SAVE:
 141:..\u8g2\csrc/u8x8_d_uc1701_dogs102.c ****       if ( arg_int == 0 )
 142:..\u8g2\csrc/u8x8_d_uc1701_dogs102.c **** 	u8x8_cad_SendSequence(u8x8, u8x8_d_uc1701_dogs102_powersave0_seq);
 143:..\u8g2\csrc/u8x8_d_uc1701_dogs102.c ****       else
 144:..\u8g2\csrc/u8x8_d_uc1701_dogs102.c **** 	u8x8_cad_SendSequence(u8x8, u8x8_d_uc1701_dogs102_powersave1_seq);
 145:..\u8g2\csrc/u8x8_d_uc1701_dogs102.c ****       break;
 146:..\u8g2\csrc/u8x8_d_uc1701_dogs102.c ****     case U8X8_MSG_DISPLAY_SET_FLIP_MODE:
 147:..\u8g2\csrc/u8x8_d_uc1701_dogs102.c ****       if ( arg_int == 0 )
 148:..\u8g2\csrc/u8x8_d_uc1701_dogs102.c ****       {
 149:..\u8g2\csrc/u8x8_d_uc1701_dogs102.c **** 	u8x8_cad_SendSequence(u8x8, u8x8_d_uc1701_dogs102_flip0_seq);
 150:..\u8g2\csrc/u8x8_d_uc1701_dogs102.c **** 	u8x8->x_offset = u8x8->display_info->default_x_offset;
 151:..\u8g2\csrc/u8x8_d_uc1701_dogs102.c ****       }
 152:..\u8g2\csrc/u8x8_d_uc1701_dogs102.c ****       else
 153:..\u8g2\csrc/u8x8_d_uc1701_dogs102.c ****       {
 154:..\u8g2\csrc/u8x8_d_uc1701_dogs102.c **** 	u8x8_cad_SendSequence(u8x8, u8x8_d_uc1701_dogs102_flip1_seq);
 155:..\u8g2\csrc/u8x8_d_uc1701_dogs102.c **** 	u8x8->x_offset = u8x8->display_info->flipmode_x_offset;
 156:..\u8g2\csrc/u8x8_d_uc1701_dogs102.c ****       }	
 157:..\u8g2\csrc/u8x8_d_uc1701_dogs102.c ****       break;
 158:..\u8g2\csrc/u8x8_d_uc1701_dogs102.c **** #ifdef U8X8_WITH_SET_CONTRAST
 159:..\u8g2\csrc/u8x8_d_uc1701_dogs102.c ****     case U8X8_MSG_DISPLAY_SET_CONTRAST:
 160:..\u8g2\csrc/u8x8_d_uc1701_dogs102.c ****       u8x8_cad_StartTransfer(u8x8);
 161:..\u8g2\csrc/u8x8_d_uc1701_dogs102.c ****       u8x8_cad_SendCmd(u8x8, 0x081 );
 162:..\u8g2\csrc/u8x8_d_uc1701_dogs102.c ****       u8x8_cad_SendArg(u8x8, arg_int >> 2 );	/* uc1701 has range from 0 to 63 */
 163:..\u8g2\csrc/u8x8_d_uc1701_dogs102.c ****       u8x8_cad_EndTransfer(u8x8);
 164:..\u8g2\csrc/u8x8_d_uc1701_dogs102.c ****       break;
ARM GAS  C:\Users\brian\AppData\Local\Temp\ccah04ec.s 			page 5


 165:..\u8g2\csrc/u8x8_d_uc1701_dogs102.c **** #endif
 166:..\u8g2\csrc/u8x8_d_uc1701_dogs102.c ****     case U8X8_MSG_DISPLAY_DRAW_TILE:
 167:..\u8g2\csrc/u8x8_d_uc1701_dogs102.c ****       u8x8_cad_StartTransfer(u8x8);
 168:..\u8g2\csrc/u8x8_d_uc1701_dogs102.c ****     
 169:..\u8g2\csrc/u8x8_d_uc1701_dogs102.c ****       x = ((u8x8_tile_t *)arg_ptr)->x_pos;
 170:..\u8g2\csrc/u8x8_d_uc1701_dogs102.c ****       x *= 8;
 171:..\u8g2\csrc/u8x8_d_uc1701_dogs102.c ****       x += u8x8->x_offset;
 172:..\u8g2\csrc/u8x8_d_uc1701_dogs102.c ****       u8x8_cad_SendCmd(u8x8, 0x010 | (x>>4) );
 173:..\u8g2\csrc/u8x8_d_uc1701_dogs102.c ****       u8x8_cad_SendCmd(u8x8, 0x000 | ((x&15)));
 174:..\u8g2\csrc/u8x8_d_uc1701_dogs102.c ****       u8x8_cad_SendCmd(u8x8, 0x0b0 | (((u8x8_tile_t *)arg_ptr)->y_pos));
 175:..\u8g2\csrc/u8x8_d_uc1701_dogs102.c ****     
 176:..\u8g2\csrc/u8x8_d_uc1701_dogs102.c ****       c = ((u8x8_tile_t *)arg_ptr)->cnt;
 177:..\u8g2\csrc/u8x8_d_uc1701_dogs102.c ****       c *= 8;
 178:..\u8g2\csrc/u8x8_d_uc1701_dogs102.c ****       ptr = ((u8x8_tile_t *)arg_ptr)->tile_ptr;
 179:..\u8g2\csrc/u8x8_d_uc1701_dogs102.c ****       /* 
 180:..\u8g2\csrc/u8x8_d_uc1701_dogs102.c **** 	The following if condition checks the hardware limits of the uc1701 
 181:..\u8g2\csrc/u8x8_d_uc1701_dogs102.c **** 	controller: It is not allowed to write beyond the display limits.
 182:..\u8g2\csrc/u8x8_d_uc1701_dogs102.c **** 	This is in fact an issue within flip mode.
 183:..\u8g2\csrc/u8x8_d_uc1701_dogs102.c ****       */
 184:..\u8g2\csrc/u8x8_d_uc1701_dogs102.c ****       if ( c + x > 132u )
 185:..\u8g2\csrc/u8x8_d_uc1701_dogs102.c ****       {
 186:..\u8g2\csrc/u8x8_d_uc1701_dogs102.c **** 	c = 132u;
 187:..\u8g2\csrc/u8x8_d_uc1701_dogs102.c **** 	c -= x;
 188:..\u8g2\csrc/u8x8_d_uc1701_dogs102.c ****       }
 189:..\u8g2\csrc/u8x8_d_uc1701_dogs102.c ****       do
 190:..\u8g2\csrc/u8x8_d_uc1701_dogs102.c ****       {
 191:..\u8g2\csrc/u8x8_d_uc1701_dogs102.c **** 	u8x8_cad_SendData(u8x8, c, ptr);	/* note: SendData can not handle more than 255 bytes */
 192:..\u8g2\csrc/u8x8_d_uc1701_dogs102.c **** 	arg_int--;
 193:..\u8g2\csrc/u8x8_d_uc1701_dogs102.c ****       } while( arg_int > 0 );
 194:..\u8g2\csrc/u8x8_d_uc1701_dogs102.c ****       
 195:..\u8g2\csrc/u8x8_d_uc1701_dogs102.c ****       u8x8_cad_EndTransfer(u8x8);
 196:..\u8g2\csrc/u8x8_d_uc1701_dogs102.c ****       break;
 197:..\u8g2\csrc/u8x8_d_uc1701_dogs102.c ****     default:
 198:..\u8g2\csrc/u8x8_d_uc1701_dogs102.c ****       return 0;
 199:..\u8g2\csrc/u8x8_d_uc1701_dogs102.c ****   }
 200:..\u8g2\csrc/u8x8_d_uc1701_dogs102.c ****   return 1;
  65              		.loc 1 200 0
  66 0022 0120     		movs	r0, #1
 135:..\u8g2\csrc/u8x8_d_uc1701_dogs102.c ****       break;
  67              		.loc 1 135 0
  68 0024 BDE8F081 		pop	{r4, r5, r6, r7, r8, pc}
  69              	.LVL4:
  70              	.L5:
 137:..\u8g2\csrc/u8x8_d_uc1701_dogs102.c ****       u8x8_cad_SendSequence(u8x8, u8x8_d_uc1701_dogs102_init_seq);
  71              		.loc 1 137 0
  72 0028 FFF7FEFF 		bl	u8x8_d_helper_display_init
  73              	.LVL5:
 138:..\u8g2\csrc/u8x8_d_uc1701_dogs102.c ****       break;
  74              		.loc 1 138 0
  75 002c 3949     		ldr	r1, .L16+4
  76 002e 2846     		mov	r0, r5
  77 0030 FFF7FEFF 		bl	u8x8_cad_SendSequence
  78              	.LVL6:
  79              		.loc 1 200 0
  80 0034 0120     		movs	r0, #1
 139:..\u8g2\csrc/u8x8_d_uc1701_dogs102.c ****     case U8X8_MSG_DISPLAY_SET_POWER_SAVE:
  81              		.loc 1 139 0
ARM GAS  C:\Users\brian\AppData\Local\Temp\ccah04ec.s 			page 6


  82 0036 BDE8F081 		pop	{r4, r5, r6, r7, r8, pc}
  83              	.LVL7:
  84              	.L6:
 141:..\u8g2\csrc/u8x8_d_uc1701_dogs102.c **** 	u8x8_cad_SendSequence(u8x8, u8x8_d_uc1701_dogs102_powersave0_seq);
  85              		.loc 1 141 0
  86 003a 2AB9     		cbnz	r2, .L10
 142:..\u8g2\csrc/u8x8_d_uc1701_dogs102.c ****       else
  87              		.loc 1 142 0
  88 003c 3649     		ldr	r1, .L16+8
  89 003e FFF7FEFF 		bl	u8x8_cad_SendSequence
  90              	.LVL8:
  91              		.loc 1 200 0
  92 0042 0120     		movs	r0, #1
  93 0044 BDE8F081 		pop	{r4, r5, r6, r7, r8, pc}
  94              	.LVL9:
  95              	.L10:
 144:..\u8g2\csrc/u8x8_d_uc1701_dogs102.c ****       break;
  96              		.loc 1 144 0
  97 0048 3449     		ldr	r1, .L16+12
  98 004a FFF7FEFF 		bl	u8x8_cad_SendSequence
  99              	.LVL10:
 100              		.loc 1 200 0
 101 004e 0120     		movs	r0, #1
 102 0050 BDE8F081 		pop	{r4, r5, r6, r7, r8, pc}
 103              	.LVL11:
 104              	.L7:
 147:..\u8g2\csrc/u8x8_d_uc1701_dogs102.c ****       {
 105              		.loc 1 147 0
 106 0054 4AB9     		cbnz	r2, .L11
 149:..\u8g2\csrc/u8x8_d_uc1701_dogs102.c **** 	u8x8->x_offset = u8x8->display_info->default_x_offset;
 107              		.loc 1 149 0
 108 0056 3249     		ldr	r1, .L16+16
 109 0058 FFF7FEFF 		bl	u8x8_cad_SendSequence
 110              	.LVL12:
 150:..\u8g2\csrc/u8x8_d_uc1701_dogs102.c ****       }
 111              		.loc 1 150 0
 112 005c 2B68     		ldr	r3, [r5]
 113 005e 9B7C     		ldrb	r3, [r3, #18]	@ zero_extendqisi2
 114 0060 85F82230 		strb	r3, [r5, #34]
 115              		.loc 1 200 0
 116 0064 0120     		movs	r0, #1
 117 0066 BDE8F081 		pop	{r4, r5, r6, r7, r8, pc}
 118              	.LVL13:
 119              	.L11:
 154:..\u8g2\csrc/u8x8_d_uc1701_dogs102.c **** 	u8x8->x_offset = u8x8->display_info->flipmode_x_offset;
 120              		.loc 1 154 0
 121 006a 2E49     		ldr	r1, .L16+20
 122 006c FFF7FEFF 		bl	u8x8_cad_SendSequence
 123              	.LVL14:
 155:..\u8g2\csrc/u8x8_d_uc1701_dogs102.c ****       }	
 124              		.loc 1 155 0
 125 0070 2B68     		ldr	r3, [r5]
 126 0072 DB7C     		ldrb	r3, [r3, #19]	@ zero_extendqisi2
 127 0074 85F82230 		strb	r3, [r5, #34]
 128              		.loc 1 200 0
 129 0078 0120     		movs	r0, #1
 130 007a BDE8F081 		pop	{r4, r5, r6, r7, r8, pc}
ARM GAS  C:\Users\brian\AppData\Local\Temp\ccah04ec.s 			page 7


 131              	.LVL15:
 132              	.L8:
 160:..\u8g2\csrc/u8x8_d_uc1701_dogs102.c ****       u8x8_cad_SendCmd(u8x8, 0x081 );
 133              		.loc 1 160 0
 134 007e FFF7FEFF 		bl	u8x8_cad_StartTransfer
 135              	.LVL16:
 161:..\u8g2\csrc/u8x8_d_uc1701_dogs102.c ****       u8x8_cad_SendArg(u8x8, arg_int >> 2 );	/* uc1701 has range from 0 to 63 */
 136              		.loc 1 161 0
 137 0082 8121     		movs	r1, #129
 138 0084 2846     		mov	r0, r5
 139 0086 FFF7FEFF 		bl	u8x8_cad_SendCmd
 140              	.LVL17:
 162:..\u8g2\csrc/u8x8_d_uc1701_dogs102.c ****       u8x8_cad_EndTransfer(u8x8);
 141              		.loc 1 162 0
 142 008a A108     		lsrs	r1, r4, #2
 143 008c 2846     		mov	r0, r5
 144 008e FFF7FEFF 		bl	u8x8_cad_SendArg
 145              	.LVL18:
 163:..\u8g2\csrc/u8x8_d_uc1701_dogs102.c ****       break;
 146              		.loc 1 163 0
 147 0092 2846     		mov	r0, r5
 148 0094 FFF7FEFF 		bl	u8x8_cad_EndTransfer
 149              	.LVL19:
 150              		.loc 1 200 0
 151 0098 0120     		movs	r0, #1
 164:..\u8g2\csrc/u8x8_d_uc1701_dogs102.c **** #endif
 152              		.loc 1 164 0
 153 009a BDE8F081 		pop	{r4, r5, r6, r7, r8, pc}
 154              	.LVL20:
 155              	.L9:
 167:..\u8g2\csrc/u8x8_d_uc1701_dogs102.c ****     
 156              		.loc 1 167 0
 157 009e FFF7FEFF 		bl	u8x8_cad_StartTransfer
 158              	.LVL21:
 169:..\u8g2\csrc/u8x8_d_uc1701_dogs102.c ****       x *= 8;
 159              		.loc 1 169 0
 160 00a2 7B79     		ldrb	r3, [r7, #5]	@ zero_extendqisi2
 161              	.LVL22:
 170:..\u8g2\csrc/u8x8_d_uc1701_dogs102.c ****       x += u8x8->x_offset;
 162              		.loc 1 170 0
 163 00a4 DB00     		lsls	r3, r3, #3
 164              	.LVL23:
 165 00a6 DBB2     		uxtb	r3, r3
 166              	.LVL24:
 171:..\u8g2\csrc/u8x8_d_uc1701_dogs102.c ****       u8x8_cad_SendCmd(u8x8, 0x010 | (x>>4) );
 167              		.loc 1 171 0
 168 00a8 95F82280 		ldrb	r8, [r5, #34]	@ zero_extendqisi2
 169 00ac 9844     		add	r8, r8, r3
 170 00ae 5FFA88F8 		uxtb	r8, r8
 171              	.LVL25:
 172:..\u8g2\csrc/u8x8_d_uc1701_dogs102.c ****       u8x8_cad_SendCmd(u8x8, 0x000 | ((x&15)));
 172              		.loc 1 172 0
 173 00b2 4FEA1811 		lsr	r1, r8, #4
 174 00b6 41F01001 		orr	r1, r1, #16
 175 00ba 2846     		mov	r0, r5
 176 00bc FFF7FEFF 		bl	u8x8_cad_SendCmd
 177              	.LVL26:
ARM GAS  C:\Users\brian\AppData\Local\Temp\ccah04ec.s 			page 8


 173:..\u8g2\csrc/u8x8_d_uc1701_dogs102.c ****       u8x8_cad_SendCmd(u8x8, 0x0b0 | (((u8x8_tile_t *)arg_ptr)->y_pos));
 178              		.loc 1 173 0
 179 00c0 08F00F01 		and	r1, r8, #15
 180 00c4 2846     		mov	r0, r5
 181 00c6 FFF7FEFF 		bl	u8x8_cad_SendCmd
 182              	.LVL27:
 174:..\u8g2\csrc/u8x8_d_uc1701_dogs102.c ****     
 183              		.loc 1 174 0
 184 00ca B979     		ldrb	r1, [r7, #6]	@ zero_extendqisi2
 185 00cc 41F0B001 		orr	r1, r1, #176
 186 00d0 2846     		mov	r0, r5
 187 00d2 FFF7FEFF 		bl	u8x8_cad_SendCmd
 188              	.LVL28:
 176:..\u8g2\csrc/u8x8_d_uc1701_dogs102.c ****       c *= 8;
 189              		.loc 1 176 0
 190 00d6 3E79     		ldrb	r6, [r7, #4]	@ zero_extendqisi2
 191              	.LVL29:
 177:..\u8g2\csrc/u8x8_d_uc1701_dogs102.c ****       ptr = ((u8x8_tile_t *)arg_ptr)->tile_ptr;
 192              		.loc 1 177 0
 193 00d8 F600     		lsls	r6, r6, #3
 194              	.LVL30:
 195 00da F6B2     		uxtb	r6, r6
 196              	.LVL31:
 178:..\u8g2\csrc/u8x8_d_uc1701_dogs102.c ****       /* 
 197              		.loc 1 178 0
 198 00dc 3F68     		ldr	r7, [r7]
 199              	.LVL32:
 184:..\u8g2\csrc/u8x8_d_uc1701_dogs102.c ****       {
 200              		.loc 1 184 0
 201 00de 06EB0803 		add	r3, r6, r8
 202 00e2 842B     		cmp	r3, #132
 203 00e4 02D9     		bls	.L13
 204              	.LVL33:
 187:..\u8g2\csrc/u8x8_d_uc1701_dogs102.c ****       }
 205              		.loc 1 187 0
 206 00e6 C8F18406 		rsb	r6, r8, #132
 207 00ea F6B2     		uxtb	r6, r6
 208              	.LVL34:
 209              	.L13:
 191:..\u8g2\csrc/u8x8_d_uc1701_dogs102.c **** 	arg_int--;
 210              		.loc 1 191 0 discriminator 1
 211 00ec 3A46     		mov	r2, r7
 212 00ee 3146     		mov	r1, r6
 213 00f0 2846     		mov	r0, r5
 214 00f2 FFF7FEFF 		bl	u8x8_cad_SendData
 215              	.LVL35:
 192:..\u8g2\csrc/u8x8_d_uc1701_dogs102.c ****       } while( arg_int > 0 );
 216              		.loc 1 192 0 discriminator 1
 217 00f6 621E     		subs	r2, r4, #1
 218              	.LVL36:
 193:..\u8g2\csrc/u8x8_d_uc1701_dogs102.c ****       
 219              		.loc 1 193 0 discriminator 1
 220 00f8 12F0FF04 		ands	r4, r2, #255
 221 00fc F6D1     		bne	.L13
 195:..\u8g2\csrc/u8x8_d_uc1701_dogs102.c ****       break;
 222              		.loc 1 195 0
 223 00fe 2846     		mov	r0, r5
ARM GAS  C:\Users\brian\AppData\Local\Temp\ccah04ec.s 			page 9


 224 0100 FFF7FEFF 		bl	u8x8_cad_EndTransfer
 225              	.LVL37:
 226              		.loc 1 200 0
 227 0104 0120     		movs	r0, #1
 196:..\u8g2\csrc/u8x8_d_uc1701_dogs102.c ****     default:
 228              		.loc 1 196 0
 229 0106 BDE8F081 		pop	{r4, r5, r6, r7, r8, pc}
 230              	.LVL38:
 231              	.L14:
 198:..\u8g2\csrc/u8x8_d_uc1701_dogs102.c ****   }
 232              		.loc 1 198 0
 233 010a 0020     		movs	r0, #0
 234              	.LVL39:
 201:..\u8g2\csrc/u8x8_d_uc1701_dogs102.c **** }
 235              		.loc 1 201 0
 236 010c BDE8F081 		pop	{r4, r5, r6, r7, r8, pc}
 237              	.LVL40:
 238              	.L17:
 239              		.align	2
 240              	.L16:
 241 0110 00000000 		.word	.LANCHOR0
 242 0114 18000000 		.word	.LANCHOR0+24
 243 0118 3C000000 		.word	.LANCHOR0+60
 244 011c 44000000 		.word	.LANCHOR0+68
 245 0120 4C000000 		.word	.LANCHOR0+76
 246 0124 54000000 		.word	.LANCHOR0+84
 247              		.cfi_endproc
 248              	.LFE0:
 249              		.size	u8x8_d_uc1701_ea_dogs102, .-u8x8_d_uc1701_ea_dogs102
 250              		.section	.rodata
 251              		.align	2
 252              		.set	.LANCHOR0,. + 0
 253              		.type	u8x8_uc1701_display_info, %object
 254              		.size	u8x8_uc1701_display_info, 24
 255              	u8x8_uc1701_display_info:
 256 0000 00       		.byte	0
 257 0001 01       		.byte	1
 258 0002 05       		.byte	5
 259 0003 05       		.byte	5
 260 0004 01       		.byte	1
 261 0005 06       		.byte	6
 262 0006 0C       		.byte	12
 263 0007 4B       		.byte	75
 264 0008 00093D00 		.word	4000000
 265 000c 00       		.byte	0
 266 000d 04       		.byte	4
 267 000e 1E       		.byte	30
 268 000f 28       		.byte	40
 269 0010 0D       		.byte	13
 270 0011 08       		.byte	8
 271 0012 00       		.byte	0
 272 0013 1E       		.byte	30
 273 0014 6600     		.short	102
 274 0016 4000     		.short	64
 275              		.type	u8x8_d_uc1701_dogs102_init_seq, %object
 276              		.size	u8x8_d_uc1701_dogs102_init_seq, 33
 277              	u8x8_d_uc1701_dogs102_init_seq:
ARM GAS  C:\Users\brian\AppData\Local\Temp\ccah04ec.s 			page 10


 278 0018 18       		.byte	24
 279 0019 15       		.byte	21
 280 001a E2       		.byte	-30
 281 001b 15       		.byte	21
 282 001c AE       		.byte	-82
 283 001d 15       		.byte	21
 284 001e 40       		.byte	64
 285 001f 15       		.byte	21
 286 0020 A1       		.byte	-95
 287 0021 15       		.byte	21
 288 0022 C0       		.byte	-64
 289 0023 15       		.byte	21
 290 0024 A6       		.byte	-90
 291 0025 15       		.byte	21
 292 0026 A2       		.byte	-94
 293 0027 15       		.byte	21
 294 0028 2F       		.byte	47
 295 0029 15       		.byte	21
 296 002a 27       		.byte	39
 297 002b 15       		.byte	21
 298 002c 81       		.byte	-127
 299 002d 16       		.byte	22
 300 002e 0E       		.byte	14
 301 002f 15       		.byte	21
 302 0030 FA       		.byte	-6
 303 0031 15       		.byte	21
 304 0032 90       		.byte	-112
 305 0033 15       		.byte	21
 306 0034 AE       		.byte	-82
 307 0035 15       		.byte	21
 308 0036 A5       		.byte	-91
 309 0037 19       		.byte	25
 310 0038 FF       		.byte	-1
 311 0039 000000   		.space	3
 312              		.type	u8x8_d_uc1701_dogs102_powersave0_seq, %object
 313              		.size	u8x8_d_uc1701_dogs102_powersave0_seq, 7
 314              	u8x8_d_uc1701_dogs102_powersave0_seq:
 315 003c 18       		.byte	24
 316 003d 15       		.byte	21
 317 003e A4       		.byte	-92
 318 003f 15       		.byte	21
 319 0040 AF       		.byte	-81
 320 0041 19       		.byte	25
 321 0042 FF       		.byte	-1
 322 0043 00       		.space	1
 323              		.type	u8x8_d_uc1701_dogs102_powersave1_seq, %object
 324              		.size	u8x8_d_uc1701_dogs102_powersave1_seq, 7
 325              	u8x8_d_uc1701_dogs102_powersave1_seq:
 326 0044 18       		.byte	24
 327 0045 15       		.byte	21
 328 0046 AE       		.byte	-82
 329 0047 15       		.byte	21
 330 0048 A5       		.byte	-91
 331 0049 19       		.byte	25
 332 004a FF       		.byte	-1
 333 004b 00       		.space	1
 334              		.type	u8x8_d_uc1701_dogs102_flip0_seq, %object
ARM GAS  C:\Users\brian\AppData\Local\Temp\ccah04ec.s 			page 11


 335              		.size	u8x8_d_uc1701_dogs102_flip0_seq, 7
 336              	u8x8_d_uc1701_dogs102_flip0_seq:
 337 004c 18       		.byte	24
 338 004d 15       		.byte	21
 339 004e A1       		.byte	-95
 340 004f 15       		.byte	21
 341 0050 C0       		.byte	-64
 342 0051 19       		.byte	25
 343 0052 FF       		.byte	-1
 344 0053 00       		.space	1
 345              		.type	u8x8_d_uc1701_dogs102_flip1_seq, %object
 346              		.size	u8x8_d_uc1701_dogs102_flip1_seq, 7
 347              	u8x8_d_uc1701_dogs102_flip1_seq:
 348 0054 18       		.byte	24
 349 0055 15       		.byte	21
 350 0056 A0       		.byte	-96
 351 0057 15       		.byte	21
 352 0058 C8       		.byte	-56
 353 0059 19       		.byte	25
 354 005a FF       		.byte	-1
 355              		.text
 356              	.Letext0:
 357              		.file 2 "c:\\program files (x86)\\cypress\\psoc creator\\4.4\\psoc creator\\import\\gnu\\arm\\5.4.
 358              		.file 3 "c:\\program files (x86)\\cypress\\psoc creator\\4.4\\psoc creator\\import\\gnu\\arm\\5.4.
 359              		.file 4 "..\\u8g2\\csrc\\u8x8.h"