ARM GAS  C:\Users\brian\AppData\Local\Temp\ccsXw4fs.s 			page 1


   1              		.syntax unified
   2              		.cpu cortex-m3
   3              		.fpu softvfp
   4              		.eabi_attribute 20, 1
   5              		.eabi_attribute 21, 1
   6              		.eabi_attribute 23, 3
   7              		.eabi_attribute 24, 1
   8              		.eabi_attribute 25, 1
   9              		.eabi_attribute 26, 1
  10              		.eabi_attribute 30, 1
  11              		.eabi_attribute 34, 1
  12              		.eabi_attribute 18, 4
  13              		.thumb
  14              		.syntax unified
  15              		.file	"u8x8_d_ld7032_60x32.c"
  16              		.text
  17              	.Ltext0:
  18              		.cfi_sections	.debug_frame
  19              		.section	.text.u8x8_d_ld7032_generic,"ax",%progbits
  20              		.align	2
  21              		.thumb
  22              		.thumb_func
  23              		.type	u8x8_d_ld7032_generic, %function
  24              	u8x8_d_ld7032_generic:
  25              	.LFB0:
  26              		.file 1 "..\\u8g2\\csrc\\u8x8_d_ld7032_60x32.c"
   1:..\u8g2\csrc/u8x8_d_ld7032_60x32.c **** /*
   2:..\u8g2\csrc/u8x8_d_ld7032_60x32.c **** 
   3:..\u8g2\csrc/u8x8_d_ld7032_60x32.c ****   u8x8_d_ld7032_60x32.c
   4:..\u8g2\csrc/u8x8_d_ld7032_60x32.c ****   Note: Flip Mode is NOT supported
   5:..\u8g2\csrc/u8x8_d_ld7032_60x32.c **** 
   6:..\u8g2\csrc/u8x8_d_ld7032_60x32.c ****   Universal 8bit Graphics Library (https://github.com/olikraus/u8g2/)
   7:..\u8g2\csrc/u8x8_d_ld7032_60x32.c **** 
   8:..\u8g2\csrc/u8x8_d_ld7032_60x32.c ****   Copyright (c) 2016, olikraus@gmail.com
   9:..\u8g2\csrc/u8x8_d_ld7032_60x32.c ****   All rights reserved.
  10:..\u8g2\csrc/u8x8_d_ld7032_60x32.c **** 
  11:..\u8g2\csrc/u8x8_d_ld7032_60x32.c ****   Redistribution and use in source and binary forms, with or without modification, 
  12:..\u8g2\csrc/u8x8_d_ld7032_60x32.c ****   are permitted provided that the following conditions are met:
  13:..\u8g2\csrc/u8x8_d_ld7032_60x32.c **** 
  14:..\u8g2\csrc/u8x8_d_ld7032_60x32.c ****   * Redistributions of source code must retain the above copyright notice, this list 
  15:..\u8g2\csrc/u8x8_d_ld7032_60x32.c ****     of conditions and the following disclaimer.
  16:..\u8g2\csrc/u8x8_d_ld7032_60x32.c ****     
  17:..\u8g2\csrc/u8x8_d_ld7032_60x32.c ****   * Redistributions in binary form must reproduce the above copyright notice, this 
  18:..\u8g2\csrc/u8x8_d_ld7032_60x32.c ****     list of conditions and the following disclaimer in the documentation and/or other 
  19:..\u8g2\csrc/u8x8_d_ld7032_60x32.c ****     materials provided with the distribution.
  20:..\u8g2\csrc/u8x8_d_ld7032_60x32.c **** 
  21:..\u8g2\csrc/u8x8_d_ld7032_60x32.c ****   THIS SOFTWARE IS PROVIDED BY THE COPYRIGHT HOLDERS AND 
  22:..\u8g2\csrc/u8x8_d_ld7032_60x32.c ****   CONTRIBUTORS "AS IS" AND ANY EXPRESS OR IMPLIED WARRANTIES, 
  23:..\u8g2\csrc/u8x8_d_ld7032_60x32.c ****   INCLUDING, BUT NOT LIMITED TO, THE IMPLIED WARRANTIES OF 
  24:..\u8g2\csrc/u8x8_d_ld7032_60x32.c ****   MERCHANTABILITY AND FITNESS FOR A PARTICULAR PURPOSE ARE 
  25:..\u8g2\csrc/u8x8_d_ld7032_60x32.c ****   DISCLAIMED. IN NO EVENT SHALL THE COPYRIGHT HOLDER OR 
  26:..\u8g2\csrc/u8x8_d_ld7032_60x32.c ****   CONTRIBUTORS BE LIABLE FOR ANY DIRECT, INDIRECT, INCIDENTAL, 
  27:..\u8g2\csrc/u8x8_d_ld7032_60x32.c ****   SPECIAL, EXEMPLARY, OR CONSEQUENTIAL DAMAGES (INCLUDING, BUT 
  28:..\u8g2\csrc/u8x8_d_ld7032_60x32.c ****   NOT LIMITED TO, PROCUREMENT OF SUBSTITUTE GOODS OR SERVICES; 
  29:..\u8g2\csrc/u8x8_d_ld7032_60x32.c ****   LOSS OF USE, DATA, OR PROFITS; OR BUSINESS INTERRUPTION) HOWEVER 
  30:..\u8g2\csrc/u8x8_d_ld7032_60x32.c ****   CAUSED AND ON ANY THEORY OF LIABILITY, WHETHER IN CONTRACT, 
  31:..\u8g2\csrc/u8x8_d_ld7032_60x32.c ****   STRICT LIABILITY, OR TORT (INCLUDING NEGLIGENCE OR OTHERWISE) 
ARM GAS  C:\Users\brian\AppData\Local\Temp\ccsXw4fs.s 			page 2


  32:..\u8g2\csrc/u8x8_d_ld7032_60x32.c ****   ARISING IN ANY WAY OUT OF THE USE OF THIS SOFTWARE, EVEN IF 
  33:..\u8g2\csrc/u8x8_d_ld7032_60x32.c ****   ADVISED OF THE POSSIBILITY OF SUCH DAMAGE.  
  34:..\u8g2\csrc/u8x8_d_ld7032_60x32.c ****   
  35:..\u8g2\csrc/u8x8_d_ld7032_60x32.c **** */
  36:..\u8g2\csrc/u8x8_d_ld7032_60x32.c **** 
  37:..\u8g2\csrc/u8x8_d_ld7032_60x32.c **** 
  38:..\u8g2\csrc/u8x8_d_ld7032_60x32.c **** #include "u8x8.h"
  39:..\u8g2\csrc/u8x8_d_ld7032_60x32.c **** 
  40:..\u8g2\csrc/u8x8_d_ld7032_60x32.c **** 
  41:..\u8g2\csrc/u8x8_d_ld7032_60x32.c **** /* testboard U8GLIB_LD7032_60x32 u8g(11, 12, 9, 10, 8);	// SPI Com: SCK = 11, MOSI = 12, CS = 9, A0
  42:..\u8g2\csrc/u8x8_d_ld7032_60x32.c **** /* http://www.seeedstudio.com/document/pdf/0.5OLED%20SPEC.pdf */
  43:..\u8g2\csrc/u8x8_d_ld7032_60x32.c **** #ifdef OBSOLETE
  44:..\u8g2\csrc/u8x8_d_ld7032_60x32.c **** static const uint8_t u8x8_d_ld7032_60x32_init_seq_old[] = {
  45:..\u8g2\csrc/u8x8_d_ld7032_60x32.c ****     
  46:..\u8g2\csrc/u8x8_d_ld7032_60x32.c ****   U8X8_START_TRANSFER(),             	/* enable chip, delay is part of the transfer start */
  47:..\u8g2\csrc/u8x8_d_ld7032_60x32.c **** 
  48:..\u8g2\csrc/u8x8_d_ld7032_60x32.c ****   //U8X8_CA(0x002, 0x001),		/* Dot Matrix Display ON */
  49:..\u8g2\csrc/u8x8_d_ld7032_60x32.c ****   U8X8_CA(0x014, 0x000),		/* Stand-by OFF */
  50:..\u8g2\csrc/u8x8_d_ld7032_60x32.c ****   U8X8_CA(0x01a, 0x004),		/* Dot Matrix Frame Rate,  special value for this OLED from manual*/
  51:..\u8g2\csrc/u8x8_d_ld7032_60x32.c ****   U8X8_CA(0x01d, 0x000),		/* Graphics Memory Writing Direction: reset default (right down, horizont
  52:..\u8g2\csrc/u8x8_d_ld7032_60x32.c ****   U8X8_CA(0x009, 0x000),		/* Display Direction:  reset default (x,y: min --> max) */
  53:..\u8g2\csrc/u8x8_d_ld7032_60x32.c ****   U8X8_CAA(0x030, 0x000, 0x03b),	/* Display Size X, Column Start - End*/
  54:..\u8g2\csrc/u8x8_d_ld7032_60x32.c ****   U8X8_CAA(0x032, 0x000, 0x01f),	/* Display Size Y, Row Start - End*/
  55:..\u8g2\csrc/u8x8_d_ld7032_60x32.c ****   U8X8_CA(0x010, 0x000),		/* Peak Pulse Width Set: 0 SCLK */
  56:..\u8g2\csrc/u8x8_d_ld7032_60x32.c ****   U8X8_CA(0x016, 0x000),		/* Peak Pulse Delay Set: 0 SCLK */
  57:..\u8g2\csrc/u8x8_d_ld7032_60x32.c ****   U8X8_CA(0x012, 0x040),		/* Dot Matrix Current Level Set: 0x050 * 1 uA = 80 uA */
  58:..\u8g2\csrc/u8x8_d_ld7032_60x32.c ****   U8X8_CA(0x018, 0x003),		/* Pre-Charge Pulse Width: 3 SCLK */
  59:..\u8g2\csrc/u8x8_d_ld7032_60x32.c ****   U8X8_CA(0x044, 0x002),		/* Pre-Charge Mode: Every Time */
  60:..\u8g2\csrc/u8x8_d_ld7032_60x32.c ****   U8X8_CA(0x048, 0x003),		/* Row overlap timing: Pre-Charge + Peak Delay + Peak boot Timing */
  61:..\u8g2\csrc/u8x8_d_ld7032_60x32.c ****   U8X8_CA(0x03f, 0x011),		/* VCC_R_SEL: ??? */
  62:..\u8g2\csrc/u8x8_d_ld7032_60x32.c ****   U8X8_CA(0x03d, 0x000),		/* VSS selection: 2.8V */
  63:..\u8g2\csrc/u8x8_d_ld7032_60x32.c ****   //U8X8_CA(0x002, 0x001),		/* Dot Matrix Display ON */
  64:..\u8g2\csrc/u8x8_d_ld7032_60x32.c ****   
  65:..\u8g2\csrc/u8x8_d_ld7032_60x32.c ****     
  66:..\u8g2\csrc/u8x8_d_ld7032_60x32.c ****   U8X8_END_TRANSFER(),             	/* disable chip */
  67:..\u8g2\csrc/u8x8_d_ld7032_60x32.c ****   U8X8_END()             			/* end of sequence */
  68:..\u8g2\csrc/u8x8_d_ld7032_60x32.c **** };
  69:..\u8g2\csrc/u8x8_d_ld7032_60x32.c **** #endif
  70:..\u8g2\csrc/u8x8_d_ld7032_60x32.c **** 
  71:..\u8g2\csrc/u8x8_d_ld7032_60x32.c **** /* new sequence https://github.com/olikraus/u8g2/issues/865 */
  72:..\u8g2\csrc/u8x8_d_ld7032_60x32.c **** static const uint8_t u8x8_d_ld7032_60x32_init_seq[] = {
  73:..\u8g2\csrc/u8x8_d_ld7032_60x32.c ****     
  74:..\u8g2\csrc/u8x8_d_ld7032_60x32.c ****   U8X8_START_TRANSFER(),             	/* enable chip, delay is part of the transfer start */
  75:..\u8g2\csrc/u8x8_d_ld7032_60x32.c **** 
  76:..\u8g2\csrc/u8x8_d_ld7032_60x32.c ****   U8X8_CA(0x02, 0x00),		  		/* Dot Matrix Display OFF */
  77:..\u8g2\csrc/u8x8_d_ld7032_60x32.c ****   U8X8_CA(0x14, 0x00),		  		/* Stand-by OFF, OSCA Start */
  78:..\u8g2\csrc/u8x8_d_ld7032_60x32.c ****   U8X8_CA(0x1a, 0x04),		  		/* Dot Matrix Frame Rate,  special value for this OLED from manual 4 =>
  79:..\u8g2\csrc/u8x8_d_ld7032_60x32.c ****   U8X8_CA(0x1d, 0x00),		  		/* Graphics Memory Writing Direction: reset default (right down, horizo
  80:..\u8g2\csrc/u8x8_d_ld7032_60x32.c ****   U8X8_CA(0x09, 0x00),	      		/* Display Direction:  reset default (x,y: min --> max) */
  81:..\u8g2\csrc/u8x8_d_ld7032_60x32.c ****   U8X8_CAA(0x30, 0x00, 0x3B),  		/* Display Size X, Column Start - End 0-0x3b(59)*/
  82:..\u8g2\csrc/u8x8_d_ld7032_60x32.c ****   U8X8_CAA(0x32, 0x00, 0x1F),  		/* Display Size Y, Row Start - End 0-0x1f(31)*/
  83:..\u8g2\csrc/u8x8_d_ld7032_60x32.c ****   U8X8_CA(0x34, 0x00),				/* Data Reading/Writing Box X start */
  84:..\u8g2\csrc/u8x8_d_ld7032_60x32.c ****   U8X8_CA(0x35, 0x07),				/* Data Reading/Writing Box X end */
  85:..\u8g2\csrc/u8x8_d_ld7032_60x32.c ****   U8X8_CA(0x36, 0x00),				/* Data Reading/Writing Box Y start */
  86:..\u8g2\csrc/u8x8_d_ld7032_60x32.c ****   U8X8_CA(0x37, 0x1F),				/* Data Reading/Writing Box Y end */
  87:..\u8g2\csrc/u8x8_d_ld7032_60x32.c ****   U8X8_CA(0x38, 0x00),        		/* Display Start Address X */
  88:..\u8g2\csrc/u8x8_d_ld7032_60x32.c ****   U8X8_CA(0x39, 0x00),        		/* Display Start Address Y */
ARM GAS  C:\Users\brian\AppData\Local\Temp\ccsXw4fs.s 			page 3


  89:..\u8g2\csrc/u8x8_d_ld7032_60x32.c ****   U8X8_CA(0x10, 0x00),		  		/* Peak Pulse Width Set: 0 SCLK */
  90:..\u8g2\csrc/u8x8_d_ld7032_60x32.c ****   U8X8_CA(0x16, 0x00),		  		/* Peak Pulse Delay Set: 0 SCLK */
  91:..\u8g2\csrc/u8x8_d_ld7032_60x32.c ****   U8X8_CA(0x12, 0x40),		  		/* 0x32, 0x50 or 0x40 Dot Matrix Current Level Set: 0x050 * 1 uA = 80 u
  92:..\u8g2\csrc/u8x8_d_ld7032_60x32.c ****   U8X8_CA(0x18, 0x03),		  		/* Pre-Charge Pulse Width: 3 SCLK */
  93:..\u8g2\csrc/u8x8_d_ld7032_60x32.c ****   U8X8_CA(0x44, 0x02),		  		/* Pre-Charge Mode: Every Time */
  94:..\u8g2\csrc/u8x8_d_ld7032_60x32.c ****   U8X8_CA(0x48, 0x03),		  		/* Row overlap timing: Pre-Charge + Peak Delay + Peak boot Timing */
  95:..\u8g2\csrc/u8x8_d_ld7032_60x32.c ****   U8X8_CA(0x17, 0x00),          	/* Row Scan */
  96:..\u8g2\csrc/u8x8_d_ld7032_60x32.c ****   U8X8_CA(0x13, 0x00),          	/* Row Scan Sequence Setting */
  97:..\u8g2\csrc/u8x8_d_ld7032_60x32.c ****   U8X8_CA(0x1C, 0x00),          	/* Data Reverse */
  98:..\u8g2\csrc/u8x8_d_ld7032_60x32.c ****   U8X8_CA(0x3f, 0x11),		  		/* VCC_R_SEL: Internal Regulator enabled(D4=1) and VCC_R=VCC_C*0.7(D0=1
  99:..\u8g2\csrc/u8x8_d_ld7032_60x32.c ****   U8X8_CA(0x3d, 0x00),		  		/* VSS selection: 2.8V */
 100:..\u8g2\csrc/u8x8_d_ld7032_60x32.c **** 
 101:..\u8g2\csrc/u8x8_d_ld7032_60x32.c ****   U8X8_END_TRANSFER(),             	/* disable chip */
 102:..\u8g2\csrc/u8x8_d_ld7032_60x32.c ****   U8X8_END()             			/* end of sequence */
 103:..\u8g2\csrc/u8x8_d_ld7032_60x32.c **** };
 104:..\u8g2\csrc/u8x8_d_ld7032_60x32.c **** 
 105:..\u8g2\csrc/u8x8_d_ld7032_60x32.c **** static const uint8_t u8x8_d_ld7032_60x32_powersave0_seq[] = {
 106:..\u8g2\csrc/u8x8_d_ld7032_60x32.c ****   U8X8_START_TRANSFER(),             	/* enable chip, delay is part of the transfer start */
 107:..\u8g2\csrc/u8x8_d_ld7032_60x32.c ****   U8X8_CA(0x002, 0x001),		/* Dot Matrix Display ON */
 108:..\u8g2\csrc/u8x8_d_ld7032_60x32.c ****   U8X8_END_TRANSFER(),             	/* disable chip */
 109:..\u8g2\csrc/u8x8_d_ld7032_60x32.c ****   U8X8_END()             			/* end of sequence */
 110:..\u8g2\csrc/u8x8_d_ld7032_60x32.c **** };
 111:..\u8g2\csrc/u8x8_d_ld7032_60x32.c **** 
 112:..\u8g2\csrc/u8x8_d_ld7032_60x32.c **** static const uint8_t u8x8_d_ld7032_60x32_powersave1_seq[] = {
 113:..\u8g2\csrc/u8x8_d_ld7032_60x32.c ****   U8X8_START_TRANSFER(),             	/* enable chip, delay is part of the transfer start */
 114:..\u8g2\csrc/u8x8_d_ld7032_60x32.c ****   U8X8_CA(0x002, 0x000),		/* Dot Matrix Display ON */
 115:..\u8g2\csrc/u8x8_d_ld7032_60x32.c ****   U8X8_END_TRANSFER(),             	/* disable chip */
 116:..\u8g2\csrc/u8x8_d_ld7032_60x32.c ****   U8X8_END()             			/* end of sequence */
 117:..\u8g2\csrc/u8x8_d_ld7032_60x32.c **** };
 118:..\u8g2\csrc/u8x8_d_ld7032_60x32.c **** 
 119:..\u8g2\csrc/u8x8_d_ld7032_60x32.c **** static const uint8_t u8x8_d_ld7032_60x32_flip0_seq[] = {
 120:..\u8g2\csrc/u8x8_d_ld7032_60x32.c ****   U8X8_START_TRANSFER(),             	/* enable chip, delay is part of the transfer start */
 121:..\u8g2\csrc/u8x8_d_ld7032_60x32.c ****   U8X8_CA(0x009, 0x000),		/* Display Direction:  reset default (x,y: min --> max) */  
 122:..\u8g2\csrc/u8x8_d_ld7032_60x32.c ****   U8X8_END_TRANSFER(),             	/* disable chip */
 123:..\u8g2\csrc/u8x8_d_ld7032_60x32.c ****   U8X8_END()             			/* end of sequence */
 124:..\u8g2\csrc/u8x8_d_ld7032_60x32.c **** };
 125:..\u8g2\csrc/u8x8_d_ld7032_60x32.c **** 
 126:..\u8g2\csrc/u8x8_d_ld7032_60x32.c **** static const uint8_t u8x8_d_ld7032_60x32_flip1_seq[] = {
 127:..\u8g2\csrc/u8x8_d_ld7032_60x32.c ****   U8X8_START_TRANSFER(),             	/* enable chip, delay is part of the transfer start */
 128:..\u8g2\csrc/u8x8_d_ld7032_60x32.c ****   //U8X8_CA(0x009, 0x002),		/* Display Direction:  reset default (x,y: min --> max) */  
 129:..\u8g2\csrc/u8x8_d_ld7032_60x32.c ****   U8X8_END_TRANSFER(),             	/* disable chip */
 130:..\u8g2\csrc/u8x8_d_ld7032_60x32.c ****   U8X8_END()             			/* end of sequence */
 131:..\u8g2\csrc/u8x8_d_ld7032_60x32.c **** };
 132:..\u8g2\csrc/u8x8_d_ld7032_60x32.c **** 
 133:..\u8g2\csrc/u8x8_d_ld7032_60x32.c **** 
 134:..\u8g2\csrc/u8x8_d_ld7032_60x32.c **** static uint8_t u8x8_d_ld7032_generic(u8x8_t *u8x8, uint8_t msg, uint8_t arg_int, void *arg_ptr)
 135:..\u8g2\csrc/u8x8_d_ld7032_60x32.c **** {
  27              		.loc 1 135 0
  28              		.cfi_startproc
  29              		@ args = 0, pretend = 0, frame = 0
  30              		@ frame_needed = 0, uses_anonymous_args = 0
  31              	.LVL0:
  32 0000 F8B5     		push	{r3, r4, r5, r6, r7, lr}
  33              		.cfi_def_cfa_offset 24
  34              		.cfi_offset 3, -24
  35              		.cfi_offset 4, -20
  36              		.cfi_offset 5, -16
ARM GAS  C:\Users\brian\AppData\Local\Temp\ccsXw4fs.s 			page 4


  37              		.cfi_offset 6, -12
  38              		.cfi_offset 7, -8
  39              		.cfi_offset 14, -4
  40 0002 0546     		mov	r5, r0
  41 0004 1446     		mov	r4, r2
  42 0006 1E46     		mov	r6, r3
 136:..\u8g2\csrc/u8x8_d_ld7032_60x32.c ****   uint8_t x, c;
 137:..\u8g2\csrc/u8x8_d_ld7032_60x32.c ****   uint8_t *ptr;
 138:..\u8g2\csrc/u8x8_d_ld7032_60x32.c ****   switch(msg)
  43              		.loc 1 138 0
  44 0008 0A39     		subs	r1, r1, #10
  45              	.LVL1:
  46 000a 0529     		cmp	r1, #5
  47 000c 7DD8     		bhi	.L13
  48 000e DFE801F0 		tbb	[pc, r1]
  49              	.LVL2:
  50              	.L4:
  51 0012 03       		.byte	(.L3-.L4)/2
  52 0013 0B       		.byte	(.L5-.L4)/2
  53 0014 7C       		.byte	(.L13-.L4)/2
  54 0015 16       		.byte	(.L6-.L4)/2
  55 0016 29       		.byte	(.L7-.L4)/2
  56 0017 3C       		.byte	(.L8-.L4)/2
  57              		.p2align 1
  58              	.L3:
 139:..\u8g2\csrc/u8x8_d_ld7032_60x32.c ****   {
 140:..\u8g2\csrc/u8x8_d_ld7032_60x32.c ****     /* handled by the calling function
 141:..\u8g2\csrc/u8x8_d_ld7032_60x32.c ****     case U8X8_MSG_DISPLAY_SETUP_MEMORY:
 142:..\u8g2\csrc/u8x8_d_ld7032_60x32.c ****       u8x8_d_helper_display_setup_memory(u8x8, &u8x8_ld7032_60x32_display_info);
 143:..\u8g2\csrc/u8x8_d_ld7032_60x32.c ****       break;
 144:..\u8g2\csrc/u8x8_d_ld7032_60x32.c ****     */
 145:..\u8g2\csrc/u8x8_d_ld7032_60x32.c ****     case U8X8_MSG_DISPLAY_INIT:
 146:..\u8g2\csrc/u8x8_d_ld7032_60x32.c ****       u8x8_d_helper_display_init(u8x8);
  59              		.loc 1 146 0
  60 0018 FFF7FEFF 		bl	u8x8_d_helper_display_init
  61              	.LVL3:
 147:..\u8g2\csrc/u8x8_d_ld7032_60x32.c ****       u8x8_cad_SendSequence(u8x8, u8x8_d_ld7032_60x32_init_seq);    
  62              		.loc 1 147 0
  63 001c 3C49     		ldr	r1, .L16
  64 001e 2846     		mov	r0, r5
  65 0020 FFF7FEFF 		bl	u8x8_cad_SendSequence
  66              	.LVL4:
 148:..\u8g2\csrc/u8x8_d_ld7032_60x32.c ****       break;
 149:..\u8g2\csrc/u8x8_d_ld7032_60x32.c ****     case U8X8_MSG_DISPLAY_SET_POWER_SAVE:
 150:..\u8g2\csrc/u8x8_d_ld7032_60x32.c ****       if ( arg_int == 0 )
 151:..\u8g2\csrc/u8x8_d_ld7032_60x32.c **** 	u8x8_cad_SendSequence(u8x8, u8x8_d_ld7032_60x32_powersave0_seq);
 152:..\u8g2\csrc/u8x8_d_ld7032_60x32.c ****       else
 153:..\u8g2\csrc/u8x8_d_ld7032_60x32.c **** 	u8x8_cad_SendSequence(u8x8, u8x8_d_ld7032_60x32_powersave1_seq);
 154:..\u8g2\csrc/u8x8_d_ld7032_60x32.c ****       break;
 155:..\u8g2\csrc/u8x8_d_ld7032_60x32.c ****     case U8X8_MSG_DISPLAY_SET_FLIP_MODE:
 156:..\u8g2\csrc/u8x8_d_ld7032_60x32.c ****       if ( arg_int == 0 )
 157:..\u8g2\csrc/u8x8_d_ld7032_60x32.c ****       {
 158:..\u8g2\csrc/u8x8_d_ld7032_60x32.c **** 	u8x8_cad_SendSequence(u8x8, u8x8_d_ld7032_60x32_flip0_seq);
 159:..\u8g2\csrc/u8x8_d_ld7032_60x32.c **** 	u8x8->x_offset = u8x8->display_info->default_x_offset;
 160:..\u8g2\csrc/u8x8_d_ld7032_60x32.c ****       }
 161:..\u8g2\csrc/u8x8_d_ld7032_60x32.c ****       else
 162:..\u8g2\csrc/u8x8_d_ld7032_60x32.c ****       {
ARM GAS  C:\Users\brian\AppData\Local\Temp\ccsXw4fs.s 			page 5


 163:..\u8g2\csrc/u8x8_d_ld7032_60x32.c **** 	u8x8_cad_SendSequence(u8x8, u8x8_d_ld7032_60x32_flip1_seq);
 164:..\u8g2\csrc/u8x8_d_ld7032_60x32.c **** 	u8x8->x_offset = u8x8->display_info->flipmode_x_offset;
 165:..\u8g2\csrc/u8x8_d_ld7032_60x32.c ****       }
 166:..\u8g2\csrc/u8x8_d_ld7032_60x32.c ****       break;
 167:..\u8g2\csrc/u8x8_d_ld7032_60x32.c **** #ifdef U8X8_WITH_SET_CONTRAST
 168:..\u8g2\csrc/u8x8_d_ld7032_60x32.c ****     case U8X8_MSG_DISPLAY_SET_CONTRAST:
 169:..\u8g2\csrc/u8x8_d_ld7032_60x32.c ****       u8x8_cad_StartTransfer(u8x8);
 170:..\u8g2\csrc/u8x8_d_ld7032_60x32.c ****       u8x8_cad_SendCmd(u8x8, 0x012 );
 171:..\u8g2\csrc/u8x8_d_ld7032_60x32.c ****       if ( arg_int > 0x07f )			/* default is 0x040, limit to 0x07f to be on the safe side (hopefull
 172:..\u8g2\csrc/u8x8_d_ld7032_60x32.c **** 	arg_int= 0x07f;
 173:..\u8g2\csrc/u8x8_d_ld7032_60x32.c ****       u8x8_cad_SendArg(u8x8, arg_int );	/* values from 0x00 to 0x0ff are allowed, bit will all valu
 174:..\u8g2\csrc/u8x8_d_ld7032_60x32.c ****       u8x8_cad_EndTransfer(u8x8);
 175:..\u8g2\csrc/u8x8_d_ld7032_60x32.c ****       break;
 176:..\u8g2\csrc/u8x8_d_ld7032_60x32.c **** #endif
 177:..\u8g2\csrc/u8x8_d_ld7032_60x32.c ****     case U8X8_MSG_DISPLAY_DRAW_TILE:
 178:..\u8g2\csrc/u8x8_d_ld7032_60x32.c ****       u8x8_cad_StartTransfer(u8x8);
 179:..\u8g2\csrc/u8x8_d_ld7032_60x32.c ****       x = ((u8x8_tile_t *)arg_ptr)->x_pos;    
 180:..\u8g2\csrc/u8x8_d_ld7032_60x32.c ****       x += u8x8->x_offset/8;
 181:..\u8g2\csrc/u8x8_d_ld7032_60x32.c ****       u8x8_cad_SendCmd(u8x8, 0x034 );
 182:..\u8g2\csrc/u8x8_d_ld7032_60x32.c ****       u8x8_cad_SendArg(u8x8, x );
 183:..\u8g2\csrc/u8x8_d_ld7032_60x32.c ****       u8x8_cad_SendCmd(u8x8, 0x035 );
 184:..\u8g2\csrc/u8x8_d_ld7032_60x32.c ****       u8x8_cad_SendArg(u8x8, 0x007 );
 185:..\u8g2\csrc/u8x8_d_ld7032_60x32.c ****       u8x8_cad_SendCmd(u8x8, 0x036 );
 186:..\u8g2\csrc/u8x8_d_ld7032_60x32.c ****       u8x8_cad_SendArg(u8x8, (((u8x8_tile_t *)arg_ptr)->y_pos)*8 );
 187:..\u8g2\csrc/u8x8_d_ld7032_60x32.c ****       u8x8_cad_SendCmd(u8x8, 0x037 );
 188:..\u8g2\csrc/u8x8_d_ld7032_60x32.c ****       u8x8_cad_SendArg(u8x8, 0x01f );
 189:..\u8g2\csrc/u8x8_d_ld7032_60x32.c ****       u8x8_cad_SendCmd(u8x8, 0x008 );
 190:..\u8g2\csrc/u8x8_d_ld7032_60x32.c ****     
 191:..\u8g2\csrc/u8x8_d_ld7032_60x32.c ****       
 192:..\u8g2\csrc/u8x8_d_ld7032_60x32.c ****       do
 193:..\u8g2\csrc/u8x8_d_ld7032_60x32.c ****       {
 194:..\u8g2\csrc/u8x8_d_ld7032_60x32.c **** 	c = ((u8x8_tile_t *)arg_ptr)->cnt;
 195:..\u8g2\csrc/u8x8_d_ld7032_60x32.c **** 	ptr = ((u8x8_tile_t *)arg_ptr)->tile_ptr;
 196:..\u8g2\csrc/u8x8_d_ld7032_60x32.c **** 	u8x8_cad_SendData(u8x8, c*8, ptr); 	/* note: SendData can not handle more than 255 bytes */
 197:..\u8g2\csrc/u8x8_d_ld7032_60x32.c **** 	arg_int--;
 198:..\u8g2\csrc/u8x8_d_ld7032_60x32.c ****       } while( arg_int > 0 );
 199:..\u8g2\csrc/u8x8_d_ld7032_60x32.c ****       
 200:..\u8g2\csrc/u8x8_d_ld7032_60x32.c ****       u8x8_cad_EndTransfer(u8x8);
 201:..\u8g2\csrc/u8x8_d_ld7032_60x32.c ****       break;
 202:..\u8g2\csrc/u8x8_d_ld7032_60x32.c ****     default:
 203:..\u8g2\csrc/u8x8_d_ld7032_60x32.c ****       return 0;
 204:..\u8g2\csrc/u8x8_d_ld7032_60x32.c ****   }
 205:..\u8g2\csrc/u8x8_d_ld7032_60x32.c ****   return 1;
  67              		.loc 1 205 0
  68 0024 0120     		movs	r0, #1
 148:..\u8g2\csrc/u8x8_d_ld7032_60x32.c ****       break;
  69              		.loc 1 148 0
  70 0026 F8BD     		pop	{r3, r4, r5, r6, r7, pc}
  71              	.LVL5:
  72              	.L5:
 150:..\u8g2\csrc/u8x8_d_ld7032_60x32.c **** 	u8x8_cad_SendSequence(u8x8, u8x8_d_ld7032_60x32_powersave0_seq);
  73              		.loc 1 150 0
  74 0028 22B9     		cbnz	r2, .L9
 151:..\u8g2\csrc/u8x8_d_ld7032_60x32.c ****       else
  75              		.loc 1 151 0
  76 002a 3A49     		ldr	r1, .L16+4
  77 002c FFF7FEFF 		bl	u8x8_cad_SendSequence
ARM GAS  C:\Users\brian\AppData\Local\Temp\ccsXw4fs.s 			page 6


  78              	.LVL6:
  79              		.loc 1 205 0
  80 0030 0120     		movs	r0, #1
  81 0032 F8BD     		pop	{r3, r4, r5, r6, r7, pc}
  82              	.LVL7:
  83              	.L9:
 153:..\u8g2\csrc/u8x8_d_ld7032_60x32.c ****       break;
  84              		.loc 1 153 0
  85 0034 3849     		ldr	r1, .L16+8
  86 0036 FFF7FEFF 		bl	u8x8_cad_SendSequence
  87              	.LVL8:
  88              		.loc 1 205 0
  89 003a 0120     		movs	r0, #1
  90 003c F8BD     		pop	{r3, r4, r5, r6, r7, pc}
  91              	.LVL9:
  92              	.L6:
 156:..\u8g2\csrc/u8x8_d_ld7032_60x32.c ****       {
  93              		.loc 1 156 0
  94 003e 42B9     		cbnz	r2, .L10
 158:..\u8g2\csrc/u8x8_d_ld7032_60x32.c **** 	u8x8->x_offset = u8x8->display_info->default_x_offset;
  95              		.loc 1 158 0
  96 0040 3649     		ldr	r1, .L16+12
  97 0042 FFF7FEFF 		bl	u8x8_cad_SendSequence
  98              	.LVL10:
 159:..\u8g2\csrc/u8x8_d_ld7032_60x32.c ****       }
  99              		.loc 1 159 0
 100 0046 2B68     		ldr	r3, [r5]
 101 0048 9B7C     		ldrb	r3, [r3, #18]	@ zero_extendqisi2
 102 004a 85F82230 		strb	r3, [r5, #34]
 103              		.loc 1 205 0
 104 004e 0120     		movs	r0, #1
 105 0050 F8BD     		pop	{r3, r4, r5, r6, r7, pc}
 106              	.LVL11:
 107              	.L10:
 163:..\u8g2\csrc/u8x8_d_ld7032_60x32.c **** 	u8x8->x_offset = u8x8->display_info->flipmode_x_offset;
 108              		.loc 1 163 0
 109 0052 3349     		ldr	r1, .L16+16
 110 0054 FFF7FEFF 		bl	u8x8_cad_SendSequence
 111              	.LVL12:
 164:..\u8g2\csrc/u8x8_d_ld7032_60x32.c ****       }
 112              		.loc 1 164 0
 113 0058 2B68     		ldr	r3, [r5]
 114 005a DB7C     		ldrb	r3, [r3, #19]	@ zero_extendqisi2
 115 005c 85F82230 		strb	r3, [r5, #34]
 116              		.loc 1 205 0
 117 0060 0120     		movs	r0, #1
 118 0062 F8BD     		pop	{r3, r4, r5, r6, r7, pc}
 119              	.LVL13:
 120              	.L7:
 169:..\u8g2\csrc/u8x8_d_ld7032_60x32.c ****       u8x8_cad_SendCmd(u8x8, 0x012 );
 121              		.loc 1 169 0
 122 0064 FFF7FEFF 		bl	u8x8_cad_StartTransfer
 123              	.LVL14:
 170:..\u8g2\csrc/u8x8_d_ld7032_60x32.c ****       if ( arg_int > 0x07f )			/* default is 0x040, limit to 0x07f to be on the safe side (hopefull
 124              		.loc 1 170 0
 125 0068 1221     		movs	r1, #18
 126 006a 2846     		mov	r0, r5
ARM GAS  C:\Users\brian\AppData\Local\Temp\ccsXw4fs.s 			page 7


 127 006c FFF7FEFF 		bl	u8x8_cad_SendCmd
 128              	.LVL15:
 171:..\u8g2\csrc/u8x8_d_ld7032_60x32.c **** 	arg_int= 0x07f;
 129              		.loc 1 171 0
 130 0070 14F0800F 		tst	r4, #128
 131 0074 00D0     		beq	.L11
 172:..\u8g2\csrc/u8x8_d_ld7032_60x32.c ****       u8x8_cad_SendArg(u8x8, arg_int );	/* values from 0x00 to 0x0ff are allowed, bit will all valu
 132              		.loc 1 172 0
 133 0076 7F24     		movs	r4, #127
 134              	.L11:
 135              	.LVL16:
 173:..\u8g2\csrc/u8x8_d_ld7032_60x32.c ****       u8x8_cad_EndTransfer(u8x8);
 136              		.loc 1 173 0
 137 0078 2146     		mov	r1, r4
 138 007a 2846     		mov	r0, r5
 139 007c FFF7FEFF 		bl	u8x8_cad_SendArg
 140              	.LVL17:
 174:..\u8g2\csrc/u8x8_d_ld7032_60x32.c ****       break;
 141              		.loc 1 174 0
 142 0080 2846     		mov	r0, r5
 143 0082 FFF7FEFF 		bl	u8x8_cad_EndTransfer
 144              	.LVL18:
 145              		.loc 1 205 0
 146 0086 0120     		movs	r0, #1
 175:..\u8g2\csrc/u8x8_d_ld7032_60x32.c **** #endif
 147              		.loc 1 175 0
 148 0088 F8BD     		pop	{r3, r4, r5, r6, r7, pc}
 149              	.LVL19:
 150              	.L8:
 178:..\u8g2\csrc/u8x8_d_ld7032_60x32.c ****       x = ((u8x8_tile_t *)arg_ptr)->x_pos;    
 151              		.loc 1 178 0
 152 008a FFF7FEFF 		bl	u8x8_cad_StartTransfer
 153              	.LVL20:
 179:..\u8g2\csrc/u8x8_d_ld7032_60x32.c ****       x += u8x8->x_offset/8;
 154              		.loc 1 179 0
 155 008e 7379     		ldrb	r3, [r6, #5]	@ zero_extendqisi2
 156              	.LVL21:
 180:..\u8g2\csrc/u8x8_d_ld7032_60x32.c ****       u8x8_cad_SendCmd(u8x8, 0x034 );
 157              		.loc 1 180 0
 158 0090 95F82270 		ldrb	r7, [r5, #34]	@ zero_extendqisi2
 159 0094 03EBD707 		add	r7, r3, r7, lsr #3
 160 0098 FFB2     		uxtb	r7, r7
 161              	.LVL22:
 181:..\u8g2\csrc/u8x8_d_ld7032_60x32.c ****       u8x8_cad_SendArg(u8x8, x );
 162              		.loc 1 181 0
 163 009a 3421     		movs	r1, #52
 164 009c 2846     		mov	r0, r5
 165 009e FFF7FEFF 		bl	u8x8_cad_SendCmd
 166              	.LVL23:
 182:..\u8g2\csrc/u8x8_d_ld7032_60x32.c ****       u8x8_cad_SendCmd(u8x8, 0x035 );
 167              		.loc 1 182 0
 168 00a2 3946     		mov	r1, r7
 169 00a4 2846     		mov	r0, r5
 170 00a6 FFF7FEFF 		bl	u8x8_cad_SendArg
 171              	.LVL24:
 183:..\u8g2\csrc/u8x8_d_ld7032_60x32.c ****       u8x8_cad_SendArg(u8x8, 0x007 );
 172              		.loc 1 183 0
ARM GAS  C:\Users\brian\AppData\Local\Temp\ccsXw4fs.s 			page 8


 173 00aa 3521     		movs	r1, #53
 174 00ac 2846     		mov	r0, r5
 175 00ae FFF7FEFF 		bl	u8x8_cad_SendCmd
 176              	.LVL25:
 184:..\u8g2\csrc/u8x8_d_ld7032_60x32.c ****       u8x8_cad_SendCmd(u8x8, 0x036 );
 177              		.loc 1 184 0
 178 00b2 0721     		movs	r1, #7
 179 00b4 2846     		mov	r0, r5
 180 00b6 FFF7FEFF 		bl	u8x8_cad_SendArg
 181              	.LVL26:
 185:..\u8g2\csrc/u8x8_d_ld7032_60x32.c ****       u8x8_cad_SendArg(u8x8, (((u8x8_tile_t *)arg_ptr)->y_pos)*8 );
 182              		.loc 1 185 0
 183 00ba 3621     		movs	r1, #54
 184 00bc 2846     		mov	r0, r5
 185 00be FFF7FEFF 		bl	u8x8_cad_SendCmd
 186              	.LVL27:
 186:..\u8g2\csrc/u8x8_d_ld7032_60x32.c ****       u8x8_cad_SendCmd(u8x8, 0x037 );
 187              		.loc 1 186 0
 188 00c2 B179     		ldrb	r1, [r6, #6]	@ zero_extendqisi2
 189 00c4 C900     		lsls	r1, r1, #3
 190 00c6 01F0F801 		and	r1, r1, #248
 191 00ca 2846     		mov	r0, r5
 192 00cc FFF7FEFF 		bl	u8x8_cad_SendArg
 193              	.LVL28:
 187:..\u8g2\csrc/u8x8_d_ld7032_60x32.c ****       u8x8_cad_SendArg(u8x8, 0x01f );
 194              		.loc 1 187 0
 195 00d0 3721     		movs	r1, #55
 196 00d2 2846     		mov	r0, r5
 197 00d4 FFF7FEFF 		bl	u8x8_cad_SendCmd
 198              	.LVL29:
 188:..\u8g2\csrc/u8x8_d_ld7032_60x32.c ****       u8x8_cad_SendCmd(u8x8, 0x008 );
 199              		.loc 1 188 0
 200 00d8 1F21     		movs	r1, #31
 201 00da 2846     		mov	r0, r5
 202 00dc FFF7FEFF 		bl	u8x8_cad_SendArg
 203              	.LVL30:
 189:..\u8g2\csrc/u8x8_d_ld7032_60x32.c ****     
 204              		.loc 1 189 0
 205 00e0 0821     		movs	r1, #8
 206 00e2 2846     		mov	r0, r5
 207 00e4 FFF7FEFF 		bl	u8x8_cad_SendCmd
 208              	.LVL31:
 209              	.L12:
 194:..\u8g2\csrc/u8x8_d_ld7032_60x32.c **** 	ptr = ((u8x8_tile_t *)arg_ptr)->tile_ptr;
 210              		.loc 1 194 0 discriminator 1
 211 00e8 3179     		ldrb	r1, [r6, #4]	@ zero_extendqisi2
 212              	.LVL32:
 196:..\u8g2\csrc/u8x8_d_ld7032_60x32.c **** 	arg_int--;
 213              		.loc 1 196 0 discriminator 1
 214 00ea C900     		lsls	r1, r1, #3
 215              	.LVL33:
 216 00ec 3268     		ldr	r2, [r6]
 217 00ee 01F0F801 		and	r1, r1, #248
 218 00f2 2846     		mov	r0, r5
 219 00f4 FFF7FEFF 		bl	u8x8_cad_SendData
 220              	.LVL34:
 197:..\u8g2\csrc/u8x8_d_ld7032_60x32.c ****       } while( arg_int > 0 );
ARM GAS  C:\Users\brian\AppData\Local\Temp\ccsXw4fs.s 			page 9


 221              		.loc 1 197 0 discriminator 1
 222 00f8 621E     		subs	r2, r4, #1
 223              	.LVL35:
 198:..\u8g2\csrc/u8x8_d_ld7032_60x32.c ****       
 224              		.loc 1 198 0 discriminator 1
 225 00fa 12F0FF04 		ands	r4, r2, #255
 226 00fe F3D1     		bne	.L12
 200:..\u8g2\csrc/u8x8_d_ld7032_60x32.c ****       break;
 227              		.loc 1 200 0
 228 0100 2846     		mov	r0, r5
 229 0102 FFF7FEFF 		bl	u8x8_cad_EndTransfer
 230              	.LVL36:
 231              		.loc 1 205 0
 232 0106 0120     		movs	r0, #1
 201:..\u8g2\csrc/u8x8_d_ld7032_60x32.c ****     default:
 233              		.loc 1 201 0
 234 0108 F8BD     		pop	{r3, r4, r5, r6, r7, pc}
 235              	.LVL37:
 236              	.L13:
 203:..\u8g2\csrc/u8x8_d_ld7032_60x32.c ****   }
 237              		.loc 1 203 0
 238 010a 0020     		movs	r0, #0
 239              	.LVL38:
 206:..\u8g2\csrc/u8x8_d_ld7032_60x32.c **** }
 240              		.loc 1 206 0
 241 010c F8BD     		pop	{r3, r4, r5, r6, r7, pc}
 242              	.LVL39:
 243              	.L17:
 244 010e 00BF     		.align	2
 245              	.L16:
 246 0110 00000000 		.word	.LANCHOR0
 247 0114 68000000 		.word	.LANCHOR0+104
 248 0118 70000000 		.word	.LANCHOR0+112
 249 011c 78000000 		.word	.LANCHOR0+120
 250 0120 80000000 		.word	.LANCHOR0+128
 251              		.cfi_endproc
 252              	.LFE0:
 253              		.size	u8x8_d_ld7032_generic, .-u8x8_d_ld7032_generic
 254              		.section	.text.u8x8_d_ld7032_60x32,"ax",%progbits
 255              		.align	2
 256              		.global	u8x8_d_ld7032_60x32
 257              		.thumb
 258              		.thumb_func
 259              		.type	u8x8_d_ld7032_60x32, %function
 260              	u8x8_d_ld7032_60x32:
 261              	.LFB1:
 207:..\u8g2\csrc/u8x8_d_ld7032_60x32.c **** 
 208:..\u8g2\csrc/u8x8_d_ld7032_60x32.c **** 
 209:..\u8g2\csrc/u8x8_d_ld7032_60x32.c **** static const u8x8_display_info_t u8x8_ld7032_60x32_display_info =
 210:..\u8g2\csrc/u8x8_d_ld7032_60x32.c **** {
 211:..\u8g2\csrc/u8x8_d_ld7032_60x32.c ****   /* chip_enable_level = */ 0,
 212:..\u8g2\csrc/u8x8_d_ld7032_60x32.c ****   /* chip_disable_level = */ 1,
 213:..\u8g2\csrc/u8x8_d_ld7032_60x32.c ****   
 214:..\u8g2\csrc/u8x8_d_ld7032_60x32.c ****   /* post_chip_enable_wait_ns = */ 15,
 215:..\u8g2\csrc/u8x8_d_ld7032_60x32.c ****   /* pre_chip_disable_wait_ns = */ 20,
 216:..\u8g2\csrc/u8x8_d_ld7032_60x32.c ****   /* reset_pulse_width_ms = */ 100, 	
 217:..\u8g2\csrc/u8x8_d_ld7032_60x32.c ****   /* post_reset_wait_ms = */ 100, 
ARM GAS  C:\Users\brian\AppData\Local\Temp\ccsXw4fs.s 			page 10


 218:..\u8g2\csrc/u8x8_d_ld7032_60x32.c ****   /* sda_setup_time_ns = */ 30,		/* 20ns, but cycle time is 60ns, so use 60/2 */
 219:..\u8g2\csrc/u8x8_d_ld7032_60x32.c ****   /* sck_pulse_width_ns = */ 30,	/* 20ns, but cycle time is 60ns, so use 60/2  */
 220:..\u8g2\csrc/u8x8_d_ld7032_60x32.c ****   /* sck_clock_hz = */ 4000000UL,	/* since Arduino 1.6.0, the SPI bus speed in Hz. Should be  10000
 221:..\u8g2\csrc/u8x8_d_ld7032_60x32.c ****   /* spi_mode = */ 0,		/* active high, rising edge */
 222:..\u8g2\csrc/u8x8_d_ld7032_60x32.c ****   /* i2c_bus_clock_100kHz = */ 4,
 223:..\u8g2\csrc/u8x8_d_ld7032_60x32.c ****   /* data_setup_time_ns = */ 20,
 224:..\u8g2\csrc/u8x8_d_ld7032_60x32.c ****   /* write_pulse_width_ns = */ 40,	
 225:..\u8g2\csrc/u8x8_d_ld7032_60x32.c ****   /* tile_width = */ 8,
 226:..\u8g2\csrc/u8x8_d_ld7032_60x32.c ****   /* tile_hight = */ 4,
 227:..\u8g2\csrc/u8x8_d_ld7032_60x32.c ****   /* default_x_offset = */ 0,
 228:..\u8g2\csrc/u8x8_d_ld7032_60x32.c ****   /* flipmode_x_offset = */ 0,
 229:..\u8g2\csrc/u8x8_d_ld7032_60x32.c ****   /* pixel_width = */ 60,
 230:..\u8g2\csrc/u8x8_d_ld7032_60x32.c ****   /* pixel_height = */ 32
 231:..\u8g2\csrc/u8x8_d_ld7032_60x32.c **** };
 232:..\u8g2\csrc/u8x8_d_ld7032_60x32.c **** 
 233:..\u8g2\csrc/u8x8_d_ld7032_60x32.c **** uint8_t u8x8_d_ld7032_60x32(u8x8_t *u8x8, uint8_t msg, uint8_t arg_int, void *arg_ptr)
 234:..\u8g2\csrc/u8x8_d_ld7032_60x32.c **** {
 262              		.loc 1 234 0
 263              		.cfi_startproc
 264              		@ args = 0, pretend = 0, frame = 0
 265              		@ frame_needed = 0, uses_anonymous_args = 0
 266              	.LVL40:
 267 0000 08B5     		push	{r3, lr}
 268              		.cfi_def_cfa_offset 8
 269              		.cfi_offset 3, -8
 270              		.cfi_offset 14, -4
 235:..\u8g2\csrc/u8x8_d_ld7032_60x32.c ****     if ( msg == U8X8_MSG_DISPLAY_SETUP_MEMORY )
 271              		.loc 1 235 0
 272 0002 0929     		cmp	r1, #9
 273 0004 04D1     		bne	.L19
 236:..\u8g2\csrc/u8x8_d_ld7032_60x32.c ****     {
 237:..\u8g2\csrc/u8x8_d_ld7032_60x32.c ****       u8x8_d_helper_display_setup_memory(u8x8, &u8x8_ld7032_60x32_display_info);
 274              		.loc 1 237 0
 275 0006 0449     		ldr	r1, .L22
 276              	.LVL41:
 277 0008 FFF7FEFF 		bl	u8x8_d_helper_display_setup_memory
 278              	.LVL42:
 238:..\u8g2\csrc/u8x8_d_ld7032_60x32.c ****       return 1;
 279              		.loc 1 238 0
 280 000c 0120     		movs	r0, #1
 281 000e 08BD     		pop	{r3, pc}
 282              	.LVL43:
 283              	.L19:
 239:..\u8g2\csrc/u8x8_d_ld7032_60x32.c ****     }
 240:..\u8g2\csrc/u8x8_d_ld7032_60x32.c ****     return u8x8_d_ld7032_generic(u8x8, msg, arg_int, arg_ptr);
 284              		.loc 1 240 0
 285 0010 FFF7FEFF 		bl	u8x8_d_ld7032_generic
 286              	.LVL44:
 241:..\u8g2\csrc/u8x8_d_ld7032_60x32.c **** }
 287              		.loc 1 241 0
 288 0014 08BD     		pop	{r3, pc}
 289              	.L23:
 290 0016 00BF     		.align	2
 291              	.L22:
 292 0018 84000000 		.word	.LANCHOR0+132
 293              		.cfi_endproc
 294              	.LFE1:
ARM GAS  C:\Users\brian\AppData\Local\Temp\ccsXw4fs.s 			page 11


 295              		.size	u8x8_d_ld7032_60x32, .-u8x8_d_ld7032_60x32
 296              		.section	.text.u8x8_d_ld7032_60x32_alt,"ax",%progbits
 297              		.align	2
 298              		.global	u8x8_d_ld7032_60x32_alt
 299              		.thumb
 300              		.thumb_func
 301              		.type	u8x8_d_ld7032_60x32_alt, %function
 302              	u8x8_d_ld7032_60x32_alt:
 303              	.LFB2:
 242:..\u8g2\csrc/u8x8_d_ld7032_60x32.c **** 
 243:..\u8g2\csrc/u8x8_d_ld7032_60x32.c **** 
 244:..\u8g2\csrc/u8x8_d_ld7032_60x32.c **** 
 245:..\u8g2\csrc/u8x8_d_ld7032_60x32.c **** /* alternative version, issue #1189 */
 246:..\u8g2\csrc/u8x8_d_ld7032_60x32.c **** 
 247:..\u8g2\csrc/u8x8_d_ld7032_60x32.c **** /* new sequence https://github.com/olikraus/u8g2/issues/1189 */
 248:..\u8g2\csrc/u8x8_d_ld7032_60x32.c **** static const uint8_t u8x8_d_ld7032_60x32_alt_init_seq[] = {
 249:..\u8g2\csrc/u8x8_d_ld7032_60x32.c ****     
 250:..\u8g2\csrc/u8x8_d_ld7032_60x32.c ****   U8X8_START_TRANSFER(),             	/* enable chip, delay is part of the transfer start */
 251:..\u8g2\csrc/u8x8_d_ld7032_60x32.c **** 
 252:..\u8g2\csrc/u8x8_d_ld7032_60x32.c ****   U8X8_CA(0x02, 0x00),		  		
 253:..\u8g2\csrc/u8x8_d_ld7032_60x32.c ****   U8X8_CA(0x14, 0x00),		  		
 254:..\u8g2\csrc/u8x8_d_ld7032_60x32.c ****   U8X8_CA(0x1A, 0x05),		  		
 255:..\u8g2\csrc/u8x8_d_ld7032_60x32.c ****   U8X8_CA(0x1D, 0x00),		  	
 256:..\u8g2\csrc/u8x8_d_ld7032_60x32.c ****   U8X8_CA(0x09, 0x00),	      		
 257:..\u8g2\csrc/u8x8_d_ld7032_60x32.c ****   U8X8_CAA(0x30, 0x00, 0x3F),
 258:..\u8g2\csrc/u8x8_d_ld7032_60x32.c ****   U8X8_CAA(0x32, 0x08, 0x27),
 259:..\u8g2\csrc/u8x8_d_ld7032_60x32.c ****   U8X8_CA(0x34, 0x00),				
 260:..\u8g2\csrc/u8x8_d_ld7032_60x32.c ****   U8X8_CA(0x35, 0x07),		
 261:..\u8g2\csrc/u8x8_d_ld7032_60x32.c ****   U8X8_CA(0x36, 0x08),	
 262:..\u8g2\csrc/u8x8_d_ld7032_60x32.c ****   U8X8_CA(0x37, 0x27),			
 263:..\u8g2\csrc/u8x8_d_ld7032_60x32.c ****   U8X8_CA(0x38, 0x00),        
 264:..\u8g2\csrc/u8x8_d_ld7032_60x32.c ****   U8X8_CA(0x39, 0x20),       
 265:..\u8g2\csrc/u8x8_d_ld7032_60x32.c ****   U8X8_CA(0x10, 0x05),		  	
 266:..\u8g2\csrc/u8x8_d_ld7032_60x32.c ****   U8X8_CA(0x16, 0x00),		  	
 267:..\u8g2\csrc/u8x8_d_ld7032_60x32.c ****   U8X8_CA(0x18, 0x08),		  		
 268:..\u8g2\csrc/u8x8_d_ld7032_60x32.c ****   U8X8_CA(0x12, 0x2F),		  	
 269:..\u8g2\csrc/u8x8_d_ld7032_60x32.c ****   U8X8_CA(0x3D, 0x01),		  	
 270:..\u8g2\csrc/u8x8_d_ld7032_60x32.c ****   U8X8_CA(0x3F, 0x10),		  		
 271:..\u8g2\csrc/u8x8_d_ld7032_60x32.c ****   U8X8_CA(0x44, 0x02),		  		
 272:..\u8g2\csrc/u8x8_d_ld7032_60x32.c ****   U8X8_CA(0x48, 0x03),		  	
 273:..\u8g2\csrc/u8x8_d_ld7032_60x32.c ****   U8X8_CA(0x17, 0x00),         
 274:..\u8g2\csrc/u8x8_d_ld7032_60x32.c ****   U8X8_CA(0x13, 0x01),        
 275:..\u8g2\csrc/u8x8_d_ld7032_60x32.c ****   U8X8_CA(0x3F, 0x11),
 276:..\u8g2\csrc/u8x8_d_ld7032_60x32.c ****   U8X8_CA(0x3D, 0x00),
 277:..\u8g2\csrc/u8x8_d_ld7032_60x32.c **** 
 278:..\u8g2\csrc/u8x8_d_ld7032_60x32.c ****   U8X8_END_TRANSFER(),             	/* disable chip */
 279:..\u8g2\csrc/u8x8_d_ld7032_60x32.c ****   U8X8_END()             			/* end of sequence */};
 280:..\u8g2\csrc/u8x8_d_ld7032_60x32.c **** 
 281:..\u8g2\csrc/u8x8_d_ld7032_60x32.c **** uint8_t u8x8_d_ld7032_60x32_alt(u8x8_t *u8x8, uint8_t msg, uint8_t arg_int, void *arg_ptr)
 282:..\u8g2\csrc/u8x8_d_ld7032_60x32.c **** {
 304              		.loc 1 282 0
 305              		.cfi_startproc
 306              		@ args = 0, pretend = 0, frame = 0
 307              		@ frame_needed = 0, uses_anonymous_args = 0
 308              	.LVL45:
 309 0000 10B5     		push	{r4, lr}
 310              		.cfi_def_cfa_offset 8
ARM GAS  C:\Users\brian\AppData\Local\Temp\ccsXw4fs.s 			page 12


 311              		.cfi_offset 4, -8
 312              		.cfi_offset 14, -4
 313 0002 0446     		mov	r4, r0
 283:..\u8g2\csrc/u8x8_d_ld7032_60x32.c ****     if ( msg == U8X8_MSG_DISPLAY_SETUP_MEMORY )
 314              		.loc 1 283 0
 315 0004 0929     		cmp	r1, #9
 316 0006 04D1     		bne	.L25
 284:..\u8g2\csrc/u8x8_d_ld7032_60x32.c ****     {
 285:..\u8g2\csrc/u8x8_d_ld7032_60x32.c ****       u8x8_d_helper_display_setup_memory(u8x8, &u8x8_ld7032_60x32_display_info);
 317              		.loc 1 285 0
 318 0008 0849     		ldr	r1, .L29
 319              	.LVL46:
 320 000a FFF7FEFF 		bl	u8x8_d_helper_display_setup_memory
 321              	.LVL47:
 286:..\u8g2\csrc/u8x8_d_ld7032_60x32.c ****       return 1;
 322              		.loc 1 286 0
 323 000e 0120     		movs	r0, #1
 324 0010 10BD     		pop	{r4, pc}
 325              	.LVL48:
 326              	.L25:
 287:..\u8g2\csrc/u8x8_d_ld7032_60x32.c ****     }
 288:..\u8g2\csrc/u8x8_d_ld7032_60x32.c **** 
 289:..\u8g2\csrc/u8x8_d_ld7032_60x32.c ****     if ( msg ==U8X8_MSG_DISPLAY_INIT )
 327              		.loc 1 289 0
 328 0012 0A29     		cmp	r1, #10
 329 0014 07D1     		bne	.L27
 290:..\u8g2\csrc/u8x8_d_ld7032_60x32.c ****     {
 291:..\u8g2\csrc/u8x8_d_ld7032_60x32.c ****       u8x8_d_helper_display_init(u8x8);
 330              		.loc 1 291 0
 331 0016 FFF7FEFF 		bl	u8x8_d_helper_display_init
 332              	.LVL49:
 292:..\u8g2\csrc/u8x8_d_ld7032_60x32.c ****       u8x8_cad_SendSequence(u8x8, u8x8_d_ld7032_60x32_alt_init_seq);    
 333              		.loc 1 292 0
 334 001a 0549     		ldr	r1, .L29+4
 335 001c 2046     		mov	r0, r4
 336 001e FFF7FEFF 		bl	u8x8_cad_SendSequence
 337              	.LVL50:
 293:..\u8g2\csrc/u8x8_d_ld7032_60x32.c ****       return 1;
 338              		.loc 1 293 0
 339 0022 0120     		movs	r0, #1
 340 0024 10BD     		pop	{r4, pc}
 341              	.LVL51:
 342              	.L27:
 294:..\u8g2\csrc/u8x8_d_ld7032_60x32.c ****     }
 295:..\u8g2\csrc/u8x8_d_ld7032_60x32.c ****     
 296:..\u8g2\csrc/u8x8_d_ld7032_60x32.c ****     return u8x8_d_ld7032_generic(u8x8, msg, arg_int, arg_ptr);
 343              		.loc 1 296 0
 344 0026 FFF7FEFF 		bl	u8x8_d_ld7032_generic
 345              	.LVL52:
 297:..\u8g2\csrc/u8x8_d_ld7032_60x32.c **** }
 346              		.loc 1 297 0
 347 002a 10BD     		pop	{r4, pc}
 348              	.LVL53:
 349              	.L30:
 350              		.align	2
 351              	.L29:
 352 002c 84000000 		.word	.LANCHOR0+132
ARM GAS  C:\Users\brian\AppData\Local\Temp\ccsXw4fs.s 			page 13


 353 0030 9C000000 		.word	.LANCHOR0+156
 354              		.cfi_endproc
 355              	.LFE2:
 356              		.size	u8x8_d_ld7032_60x32_alt, .-u8x8_d_ld7032_60x32_alt
 357              		.section	.rodata
 358              		.align	2
 359              		.set	.LANCHOR0,. + 0
 360              		.type	u8x8_d_ld7032_60x32_init_seq, %object
 361              		.size	u8x8_d_ld7032_60x32_init_seq, 103
 362              	u8x8_d_ld7032_60x32_init_seq:
 363 0000 18       		.byte	24
 364 0001 15       		.byte	21
 365 0002 02       		.byte	2
 366 0003 16       		.byte	22
 367 0004 00       		.byte	0
 368 0005 15       		.byte	21
 369 0006 14       		.byte	20
 370 0007 16       		.byte	22
 371 0008 00       		.byte	0
 372 0009 15       		.byte	21
 373 000a 1A       		.byte	26
 374 000b 16       		.byte	22
 375 000c 04       		.byte	4
 376 000d 15       		.byte	21
 377 000e 1D       		.byte	29
 378 000f 16       		.byte	22
 379 0010 00       		.byte	0
 380 0011 15       		.byte	21
 381 0012 09       		.byte	9
 382 0013 16       		.byte	22
 383 0014 00       		.byte	0
 384 0015 15       		.byte	21
 385 0016 30       		.byte	48
 386 0017 16       		.byte	22
 387 0018 00       		.byte	0
 388 0019 16       		.byte	22
 389 001a 3B       		.byte	59
 390 001b 15       		.byte	21
 391 001c 32       		.byte	50
 392 001d 16       		.byte	22
 393 001e 00       		.byte	0
 394 001f 16       		.byte	22
 395 0020 1F       		.byte	31
 396 0021 15       		.byte	21
 397 0022 34       		.byte	52
 398 0023 16       		.byte	22
 399 0024 00       		.byte	0
 400 0025 15       		.byte	21
 401 0026 35       		.byte	53
 402 0027 16       		.byte	22
 403 0028 07       		.byte	7
 404 0029 15       		.byte	21
 405 002a 36       		.byte	54
 406 002b 16       		.byte	22
 407 002c 00       		.byte	0
 408 002d 15       		.byte	21
 409 002e 37       		.byte	55
ARM GAS  C:\Users\brian\AppData\Local\Temp\ccsXw4fs.s 			page 14


 410 002f 16       		.byte	22
 411 0030 1F       		.byte	31
 412 0031 15       		.byte	21
 413 0032 38       		.byte	56
 414 0033 16       		.byte	22
 415 0034 00       		.byte	0
 416 0035 15       		.byte	21
 417 0036 39       		.byte	57
 418 0037 16       		.byte	22
 419 0038 00       		.byte	0
 420 0039 15       		.byte	21
 421 003a 10       		.byte	16
 422 003b 16       		.byte	22
 423 003c 00       		.byte	0
 424 003d 15       		.byte	21
 425 003e 16       		.byte	22
 426 003f 16       		.byte	22
 427 0040 00       		.byte	0
 428 0041 15       		.byte	21
 429 0042 12       		.byte	18
 430 0043 16       		.byte	22
 431 0044 40       		.byte	64
 432 0045 15       		.byte	21
 433 0046 18       		.byte	24
 434 0047 16       		.byte	22
 435 0048 03       		.byte	3
 436 0049 15       		.byte	21
 437 004a 44       		.byte	68
 438 004b 16       		.byte	22
 439 004c 02       		.byte	2
 440 004d 15       		.byte	21
 441 004e 48       		.byte	72
 442 004f 16       		.byte	22
 443 0050 03       		.byte	3
 444 0051 15       		.byte	21
 445 0052 17       		.byte	23
 446 0053 16       		.byte	22
 447 0054 00       		.byte	0
 448 0055 15       		.byte	21
 449 0056 13       		.byte	19
 450 0057 16       		.byte	22
 451 0058 00       		.byte	0
 452 0059 15       		.byte	21
 453 005a 1C       		.byte	28
 454 005b 16       		.byte	22
 455 005c 00       		.byte	0
 456 005d 15       		.byte	21
 457 005e 3F       		.byte	63
 458 005f 16       		.byte	22
 459 0060 11       		.byte	17
 460 0061 15       		.byte	21
 461 0062 3D       		.byte	61
 462 0063 16       		.byte	22
 463 0064 00       		.byte	0
 464 0065 19       		.byte	25
 465 0066 FF       		.byte	-1
 466 0067 00       		.space	1
ARM GAS  C:\Users\brian\AppData\Local\Temp\ccsXw4fs.s 			page 15


 467              		.type	u8x8_d_ld7032_60x32_powersave0_seq, %object
 468              		.size	u8x8_d_ld7032_60x32_powersave0_seq, 7
 469              	u8x8_d_ld7032_60x32_powersave0_seq:
 470 0068 18       		.byte	24
 471 0069 15       		.byte	21
 472 006a 02       		.byte	2
 473 006b 16       		.byte	22
 474 006c 01       		.byte	1
 475 006d 19       		.byte	25
 476 006e FF       		.byte	-1
 477 006f 00       		.space	1
 478              		.type	u8x8_d_ld7032_60x32_powersave1_seq, %object
 479              		.size	u8x8_d_ld7032_60x32_powersave1_seq, 7
 480              	u8x8_d_ld7032_60x32_powersave1_seq:
 481 0070 18       		.byte	24
 482 0071 15       		.byte	21
 483 0072 02       		.byte	2
 484 0073 16       		.byte	22
 485 0074 00       		.byte	0
 486 0075 19       		.byte	25
 487 0076 FF       		.byte	-1
 488 0077 00       		.space	1
 489              		.type	u8x8_d_ld7032_60x32_flip0_seq, %object
 490              		.size	u8x8_d_ld7032_60x32_flip0_seq, 7
 491              	u8x8_d_ld7032_60x32_flip0_seq:
 492 0078 18       		.byte	24
 493 0079 15       		.byte	21
 494 007a 09       		.byte	9
 495 007b 16       		.byte	22
 496 007c 00       		.byte	0
 497 007d 19       		.byte	25
 498 007e FF       		.byte	-1
 499 007f 00       		.space	1
 500              		.type	u8x8_d_ld7032_60x32_flip1_seq, %object
 501              		.size	u8x8_d_ld7032_60x32_flip1_seq, 3
 502              	u8x8_d_ld7032_60x32_flip1_seq:
 503 0080 18       		.byte	24
 504 0081 19       		.byte	25
 505 0082 FF       		.byte	-1
 506 0083 00       		.space	1
 507              		.type	u8x8_ld7032_60x32_display_info, %object
 508              		.size	u8x8_ld7032_60x32_display_info, 24
 509              	u8x8_ld7032_60x32_display_info:
 510 0084 00       		.byte	0
 511 0085 01       		.byte	1
 512 0086 0F       		.byte	15
 513 0087 14       		.byte	20
 514 0088 64       		.byte	100
 515 0089 64       		.byte	100
 516 008a 1E       		.byte	30
 517 008b 1E       		.byte	30
 518 008c 00093D00 		.word	4000000
 519 0090 00       		.byte	0
 520 0091 04       		.byte	4
 521 0092 14       		.byte	20
 522 0093 28       		.byte	40
 523 0094 08       		.byte	8
ARM GAS  C:\Users\brian\AppData\Local\Temp\ccsXw4fs.s 			page 16


 524 0095 04       		.byte	4
 525 0096 00       		.byte	0
 526 0097 00       		.byte	0
 527 0098 3C00     		.short	60
 528 009a 2000     		.short	32
 529              		.type	u8x8_d_ld7032_60x32_alt_init_seq, %object
 530              		.size	u8x8_d_ld7032_60x32_alt_init_seq, 107
 531              	u8x8_d_ld7032_60x32_alt_init_seq:
 532 009c 18       		.byte	24
 533 009d 15       		.byte	21
 534 009e 02       		.byte	2
 535 009f 16       		.byte	22
 536 00a0 00       		.byte	0
 537 00a1 15       		.byte	21
 538 00a2 14       		.byte	20
 539 00a3 16       		.byte	22
 540 00a4 00       		.byte	0
 541 00a5 15       		.byte	21
 542 00a6 1A       		.byte	26
 543 00a7 16       		.byte	22
 544 00a8 05       		.byte	5
 545 00a9 15       		.byte	21
 546 00aa 1D       		.byte	29
 547 00ab 16       		.byte	22
 548 00ac 00       		.byte	0
 549 00ad 15       		.byte	21
 550 00ae 09       		.byte	9
 551 00af 16       		.byte	22
 552 00b0 00       		.byte	0
 553 00b1 15       		.byte	21
 554 00b2 30       		.byte	48
 555 00b3 16       		.byte	22
 556 00b4 00       		.byte	0
 557 00b5 16       		.byte	22
 558 00b6 3F       		.byte	63
 559 00b7 15       		.byte	21
 560 00b8 32       		.byte	50
 561 00b9 16       		.byte	22
 562 00ba 08       		.byte	8
 563 00bb 16       		.byte	22
 564 00bc 27       		.byte	39
 565 00bd 15       		.byte	21
 566 00be 34       		.byte	52
 567 00bf 16       		.byte	22
 568 00c0 00       		.byte	0
 569 00c1 15       		.byte	21
 570 00c2 35       		.byte	53
 571 00c3 16       		.byte	22
 572 00c4 07       		.byte	7
 573 00c5 15       		.byte	21
 574 00c6 36       		.byte	54
 575 00c7 16       		.byte	22
 576 00c8 08       		.byte	8
 577 00c9 15       		.byte	21
 578 00ca 37       		.byte	55
 579 00cb 16       		.byte	22
 580 00cc 27       		.byte	39
ARM GAS  C:\Users\brian\AppData\Local\Temp\ccsXw4fs.s 			page 17


 581 00cd 15       		.byte	21
 582 00ce 38       		.byte	56
 583 00cf 16       		.byte	22
 584 00d0 00       		.byte	0
 585 00d1 15       		.byte	21
 586 00d2 39       		.byte	57
 587 00d3 16       		.byte	22
 588 00d4 20       		.byte	32
 589 00d5 15       		.byte	21
 590 00d6 10       		.byte	16
 591 00d7 16       		.byte	22
 592 00d8 05       		.byte	5
 593 00d9 15       		.byte	21
 594 00da 16       		.byte	22
 595 00db 16       		.byte	22
 596 00dc 00       		.byte	0
 597 00dd 15       		.byte	21
 598 00de 18       		.byte	24
 599 00df 16       		.byte	22
 600 00e0 08       		.byte	8
 601 00e1 15       		.byte	21
 602 00e2 12       		.byte	18
 603 00e3 16       		.byte	22
 604 00e4 2F       		.byte	47
 605 00e5 15       		.byte	21
 606 00e6 3D       		.byte	61
 607 00e7 16       		.byte	22
 608 00e8 01       		.byte	1
 609 00e9 15       		.byte	21
 610 00ea 3F       		.byte	63
 611 00eb 16       		.byte	22
 612 00ec 10       		.byte	16
 613 00ed 15       		.byte	21
 614 00ee 44       		.byte	68
 615 00ef 16       		.byte	22
 616 00f0 02       		.byte	2
 617 00f1 15       		.byte	21
 618 00f2 48       		.byte	72
 619 00f3 16       		.byte	22
 620 00f4 03       		.byte	3
 621 00f5 15       		.byte	21
 622 00f6 17       		.byte	23
 623 00f7 16       		.byte	22
 624 00f8 00       		.byte	0
 625 00f9 15       		.byte	21
 626 00fa 13       		.byte	19
 627 00fb 16       		.byte	22
 628 00fc 01       		.byte	1
 629 00fd 15       		.byte	21
 630 00fe 3F       		.byte	63
 631 00ff 16       		.byte	22
 632 0100 11       		.byte	17
 633 0101 15       		.byte	21
 634 0102 3D       		.byte	61
 635 0103 16       		.byte	22
 636 0104 00       		.byte	0
 637 0105 19       		.byte	25
ARM GAS  C:\Users\brian\AppData\Local\Temp\ccsXw4fs.s 			page 18


 638 0106 FF       		.byte	-1
 639              		.text
 640              	.Letext0:
 641              		.file 2 "c:\\program files (x86)\\cypress\\psoc creator\\4.4\\psoc creator\\import\\gnu\\arm\\5.4.
 642              		.file 3 "c:\\program files (x86)\\cypress\\psoc creator\\4.4\\psoc creator\\import\\gnu\\arm\\5.4.
 643              		.file 4 "..\\u8g2\\csrc\\u8x8.h"