ARM GAS  C:\Users\brian\AppData\Local\Temp\cc2Kbm4j.s 			page 1


   1              		.syntax unified
   2              		.cpu cortex-m3
   3              		.fpu softvfp
   4              		.eabi_attribute 20, 1
   5              		.eabi_attribute 21, 1
   6              		.eabi_attribute 23, 3
   7              		.eabi_attribute 24, 1
   8              		.eabi_attribute 25, 1
   9              		.eabi_attribute 26, 1
  10              		.eabi_attribute 30, 1
  11              		.eabi_attribute 34, 1
  12              		.eabi_attribute 18, 4
  13              		.thumb
  14              		.syntax unified
  15              		.file	"u8x8_byte.c"
  16              		.text
  17              	.Ltext0:
  18              		.cfi_sections	.debug_frame
  19              		.section	.text.i2c_delay,"ax",%progbits
  20              		.align	2
  21              		.thumb
  22              		.thumb_func
  23              		.type	i2c_delay, %function
  24              	i2c_delay:
  25              	.LFB13:
  26              		.file 1 "..\\u8g2\\csrc\\u8x8_byte.c"
   1:..\u8g2\csrc/u8x8_byte.c **** /*
   2:..\u8g2\csrc/u8x8_byte.c **** 
   3:..\u8g2\csrc/u8x8_byte.c ****   u8x8_byte.c 
   4:..\u8g2\csrc/u8x8_byte.c ****   
   5:..\u8g2\csrc/u8x8_byte.c ****   Universal 8bit Graphics Library (https://github.com/olikraus/u8g2/)
   6:..\u8g2\csrc/u8x8_byte.c **** 
   7:..\u8g2\csrc/u8x8_byte.c ****   Copyright (c) 2016, olikraus@gmail.com
   8:..\u8g2\csrc/u8x8_byte.c ****   All rights reserved.
   9:..\u8g2\csrc/u8x8_byte.c **** 
  10:..\u8g2\csrc/u8x8_byte.c ****   Redistribution and use in source and binary forms, with or without modification, 
  11:..\u8g2\csrc/u8x8_byte.c ****   are permitted provided that the following conditions are met:
  12:..\u8g2\csrc/u8x8_byte.c **** 
  13:..\u8g2\csrc/u8x8_byte.c ****   * Redistributions of source code must retain the above copyright notice, this list 
  14:..\u8g2\csrc/u8x8_byte.c ****     of conditions and the following disclaimer.
  15:..\u8g2\csrc/u8x8_byte.c ****     
  16:..\u8g2\csrc/u8x8_byte.c ****   * Redistributions in binary form must reproduce the above copyright notice, this 
  17:..\u8g2\csrc/u8x8_byte.c ****     list of conditions and the following disclaimer in the documentation and/or other 
  18:..\u8g2\csrc/u8x8_byte.c ****     materials provided with the distribution.
  19:..\u8g2\csrc/u8x8_byte.c **** 
  20:..\u8g2\csrc/u8x8_byte.c ****   THIS SOFTWARE IS PROVIDED BY THE COPYRIGHT HOLDERS AND 
  21:..\u8g2\csrc/u8x8_byte.c ****   CONTRIBUTORS "AS IS" AND ANY EXPRESS OR IMPLIED WARRANTIES, 
  22:..\u8g2\csrc/u8x8_byte.c ****   INCLUDING, BUT NOT LIMITED TO, THE IMPLIED WARRANTIES OF 
  23:..\u8g2\csrc/u8x8_byte.c ****   MERCHANTABILITY AND FITNESS FOR A PARTICULAR PURPOSE ARE 
  24:..\u8g2\csrc/u8x8_byte.c ****   DISCLAIMED. IN NO EVENT SHALL THE COPYRIGHT HOLDER OR 
  25:..\u8g2\csrc/u8x8_byte.c ****   CONTRIBUTORS BE LIABLE FOR ANY DIRECT, INDIRECT, INCIDENTAL, 
  26:..\u8g2\csrc/u8x8_byte.c ****   SPECIAL, EXEMPLARY, OR CONSEQUENTIAL DAMAGES (INCLUDING, BUT 
  27:..\u8g2\csrc/u8x8_byte.c ****   NOT LIMITED TO, PROCUREMENT OF SUBSTITUTE GOODS OR SERVICES; 
  28:..\u8g2\csrc/u8x8_byte.c ****   LOSS OF USE, DATA, OR PROFITS; OR BUSINESS INTERRUPTION) HOWEVER 
  29:..\u8g2\csrc/u8x8_byte.c ****   CAUSED AND ON ANY THEORY OF LIABILITY, WHETHER IN CONTRACT, 
  30:..\u8g2\csrc/u8x8_byte.c ****   STRICT LIABILITY, OR TORT (INCLUDING NEGLIGENCE OR OTHERWISE) 
  31:..\u8g2\csrc/u8x8_byte.c ****   ARISING IN ANY WAY OUT OF THE USE OF THIS SOFTWARE, EVEN IF 
ARM GAS  C:\Users\brian\AppData\Local\Temp\cc2Kbm4j.s 			page 2


  32:..\u8g2\csrc/u8x8_byte.c ****   ADVISED OF THE POSSIBILITY OF SUCH DAMAGE.  
  33:..\u8g2\csrc/u8x8_byte.c ****   
  34:..\u8g2\csrc/u8x8_byte.c ****   
  35:..\u8g2\csrc/u8x8_byte.c **** */
  36:..\u8g2\csrc/u8x8_byte.c **** 
  37:..\u8g2\csrc/u8x8_byte.c **** #include "u8x8.h"
  38:..\u8g2\csrc/u8x8_byte.c **** 
  39:..\u8g2\csrc/u8x8_byte.c **** uint8_t u8x8_byte_SetDC(u8x8_t *u8x8, uint8_t dc)
  40:..\u8g2\csrc/u8x8_byte.c **** {
  41:..\u8g2\csrc/u8x8_byte.c ****   return u8x8->byte_cb(u8x8, U8X8_MSG_BYTE_SET_DC, dc, NULL);
  42:..\u8g2\csrc/u8x8_byte.c **** }
  43:..\u8g2\csrc/u8x8_byte.c **** 
  44:..\u8g2\csrc/u8x8_byte.c **** uint8_t u8x8_byte_SendBytes(u8x8_t *u8x8, uint8_t cnt, uint8_t *data)
  45:..\u8g2\csrc/u8x8_byte.c **** {
  46:..\u8g2\csrc/u8x8_byte.c ****   return u8x8->byte_cb(u8x8, U8X8_MSG_BYTE_SEND, cnt, (void *)data);
  47:..\u8g2\csrc/u8x8_byte.c **** }
  48:..\u8g2\csrc/u8x8_byte.c **** 
  49:..\u8g2\csrc/u8x8_byte.c **** uint8_t u8x8_byte_SendByte(u8x8_t *u8x8, uint8_t byte)
  50:..\u8g2\csrc/u8x8_byte.c **** {
  51:..\u8g2\csrc/u8x8_byte.c ****   return u8x8_byte_SendBytes(u8x8, 1, &byte);
  52:..\u8g2\csrc/u8x8_byte.c **** }
  53:..\u8g2\csrc/u8x8_byte.c **** 
  54:..\u8g2\csrc/u8x8_byte.c **** uint8_t u8x8_byte_StartTransfer(u8x8_t *u8x8)
  55:..\u8g2\csrc/u8x8_byte.c **** {
  56:..\u8g2\csrc/u8x8_byte.c ****   return u8x8->byte_cb(u8x8, U8X8_MSG_BYTE_START_TRANSFER, 0, NULL);
  57:..\u8g2\csrc/u8x8_byte.c **** }
  58:..\u8g2\csrc/u8x8_byte.c **** 
  59:..\u8g2\csrc/u8x8_byte.c **** uint8_t u8x8_byte_EndTransfer(u8x8_t *u8x8)
  60:..\u8g2\csrc/u8x8_byte.c **** {
  61:..\u8g2\csrc/u8x8_byte.c ****   return u8x8->byte_cb(u8x8, U8X8_MSG_BYTE_END_TRANSFER, 0, NULL);
  62:..\u8g2\csrc/u8x8_byte.c **** }
  63:..\u8g2\csrc/u8x8_byte.c **** 
  64:..\u8g2\csrc/u8x8_byte.c **** /*=========================================*/
  65:..\u8g2\csrc/u8x8_byte.c **** 
  66:..\u8g2\csrc/u8x8_byte.c **** uint8_t u8x8_byte_empty(U8X8_UNUSED u8x8_t *u8x8, uint8_t msg, U8X8_UNUSED uint8_t arg_int, U8X8_UN
  67:..\u8g2\csrc/u8x8_byte.c **** {
  68:..\u8g2\csrc/u8x8_byte.c ****   switch(msg)
  69:..\u8g2\csrc/u8x8_byte.c ****   {
  70:..\u8g2\csrc/u8x8_byte.c ****     case U8X8_MSG_BYTE_SEND:
  71:..\u8g2\csrc/u8x8_byte.c ****     case U8X8_MSG_BYTE_INIT:
  72:..\u8g2\csrc/u8x8_byte.c ****     case U8X8_MSG_BYTE_SET_DC:
  73:..\u8g2\csrc/u8x8_byte.c ****     case U8X8_MSG_BYTE_START_TRANSFER:
  74:..\u8g2\csrc/u8x8_byte.c ****     case U8X8_MSG_BYTE_END_TRANSFER:
  75:..\u8g2\csrc/u8x8_byte.c ****       break;	/* do nothing */
  76:..\u8g2\csrc/u8x8_byte.c ****   }
  77:..\u8g2\csrc/u8x8_byte.c ****   return 1;	/* always succeed */
  78:..\u8g2\csrc/u8x8_byte.c **** }
  79:..\u8g2\csrc/u8x8_byte.c **** 
  80:..\u8g2\csrc/u8x8_byte.c **** 
  81:..\u8g2\csrc/u8x8_byte.c **** /*=========================================*/
  82:..\u8g2\csrc/u8x8_byte.c **** 
  83:..\u8g2\csrc/u8x8_byte.c **** 
  84:..\u8g2\csrc/u8x8_byte.c **** /*
  85:..\u8g2\csrc/u8x8_byte.c ****   Uses:
  86:..\u8g2\csrc/u8x8_byte.c ****     u8x8->display_info->sda_setup_time_ns
  87:..\u8g2\csrc/u8x8_byte.c ****     u8x8->display_info->sck_pulse_width_ns
  88:..\u8g2\csrc/u8x8_byte.c ****     u8x8->display_info->spi_mode
ARM GAS  C:\Users\brian\AppData\Local\Temp\cc2Kbm4j.s 			page 3


  89:..\u8g2\csrc/u8x8_byte.c ****     u8x8->display_info->chip_disable_level
  90:..\u8g2\csrc/u8x8_byte.c ****     u8x8->display_info->chip_enable_level
  91:..\u8g2\csrc/u8x8_byte.c ****     u8x8->display_info->post_chip_enable_wait_ns
  92:..\u8g2\csrc/u8x8_byte.c ****     u8x8->display_info->pre_chip_disable_wait_ns
  93:..\u8g2\csrc/u8x8_byte.c ****   Calls to GPIO and DELAY:
  94:..\u8g2\csrc/u8x8_byte.c ****     U8X8_MSG_DELAY_NANO
  95:..\u8g2\csrc/u8x8_byte.c ****     U8X8_MSG_GPIO_DC
  96:..\u8g2\csrc/u8x8_byte.c ****     U8X8_MSG_GPIO_CS
  97:..\u8g2\csrc/u8x8_byte.c ****     U8X8_MSG_GPIO_CLOCK
  98:..\u8g2\csrc/u8x8_byte.c ****     U8X8_MSG_GPIO_DATA
  99:..\u8g2\csrc/u8x8_byte.c ****   Handles:
 100:..\u8g2\csrc/u8x8_byte.c ****     U8X8_MSG_BYTE_INIT
 101:..\u8g2\csrc/u8x8_byte.c ****     U8X8_MSG_BYTE_SEND
 102:..\u8g2\csrc/u8x8_byte.c ****     U8X8_MSG_BYTE_SET_DC
 103:..\u8g2\csrc/u8x8_byte.c ****     U8X8_MSG_BYTE_START_TRANSFER
 104:..\u8g2\csrc/u8x8_byte.c ****     U8X8_MSG_BYTE_END_TRANSFER
 105:..\u8g2\csrc/u8x8_byte.c **** */
 106:..\u8g2\csrc/u8x8_byte.c **** 
 107:..\u8g2\csrc/u8x8_byte.c **** uint8_t u8x8_byte_4wire_sw_spi(u8x8_t *u8x8, uint8_t msg, uint8_t arg_int, void *arg_ptr)
 108:..\u8g2\csrc/u8x8_byte.c **** {
 109:..\u8g2\csrc/u8x8_byte.c ****   uint8_t i, b;
 110:..\u8g2\csrc/u8x8_byte.c ****   uint8_t *data;
 111:..\u8g2\csrc/u8x8_byte.c ****   uint8_t takeover_edge = u8x8_GetSPIClockPhase(u8x8);
 112:..\u8g2\csrc/u8x8_byte.c ****   uint8_t not_takeover_edge = 1 - takeover_edge;
 113:..\u8g2\csrc/u8x8_byte.c ****  
 114:..\u8g2\csrc/u8x8_byte.c ****   switch(msg)
 115:..\u8g2\csrc/u8x8_byte.c ****   {
 116:..\u8g2\csrc/u8x8_byte.c ****     case U8X8_MSG_BYTE_SEND:
 117:..\u8g2\csrc/u8x8_byte.c ****       data = (uint8_t *)arg_ptr;
 118:..\u8g2\csrc/u8x8_byte.c ****       while( arg_int > 0 )
 119:..\u8g2\csrc/u8x8_byte.c ****       {
 120:..\u8g2\csrc/u8x8_byte.c **** 	b = *data;
 121:..\u8g2\csrc/u8x8_byte.c **** 	data++;
 122:..\u8g2\csrc/u8x8_byte.c **** 	arg_int--;
 123:..\u8g2\csrc/u8x8_byte.c **** 	for( i = 0; i < 8; i++ )
 124:..\u8g2\csrc/u8x8_byte.c **** 	{
 125:..\u8g2\csrc/u8x8_byte.c **** 	  if ( b & 128 )
 126:..\u8g2\csrc/u8x8_byte.c **** 	    u8x8_gpio_SetSPIData(u8x8, 1);
 127:..\u8g2\csrc/u8x8_byte.c **** 	  else
 128:..\u8g2\csrc/u8x8_byte.c **** 	    u8x8_gpio_SetSPIData(u8x8, 0);
 129:..\u8g2\csrc/u8x8_byte.c **** 	  b <<= 1;
 130:..\u8g2\csrc/u8x8_byte.c **** 	  
 131:..\u8g2\csrc/u8x8_byte.c **** 	  u8x8_gpio_SetSPIClock(u8x8, not_takeover_edge);
 132:..\u8g2\csrc/u8x8_byte.c **** 	  u8x8_gpio_Delay(u8x8, U8X8_MSG_DELAY_NANO, u8x8->display_info->sda_setup_time_ns);
 133:..\u8g2\csrc/u8x8_byte.c **** 	  u8x8_gpio_SetSPIClock(u8x8, takeover_edge);
 134:..\u8g2\csrc/u8x8_byte.c **** 	  u8x8_gpio_Delay(u8x8, U8X8_MSG_DELAY_NANO, u8x8->display_info->sck_pulse_width_ns);
 135:..\u8g2\csrc/u8x8_byte.c **** 	}    
 136:..\u8g2\csrc/u8x8_byte.c ****       }
 137:..\u8g2\csrc/u8x8_byte.c ****       break;
 138:..\u8g2\csrc/u8x8_byte.c ****       
 139:..\u8g2\csrc/u8x8_byte.c ****     case U8X8_MSG_BYTE_INIT:
 140:..\u8g2\csrc/u8x8_byte.c ****       /* disable chipselect */
 141:..\u8g2\csrc/u8x8_byte.c ****       u8x8_gpio_SetCS(u8x8, u8x8->display_info->chip_disable_level);
 142:..\u8g2\csrc/u8x8_byte.c ****       /* no wait required here */
 143:..\u8g2\csrc/u8x8_byte.c ****       
 144:..\u8g2\csrc/u8x8_byte.c ****       /* for SPI: setup correct level of the clock signal */
 145:..\u8g2\csrc/u8x8_byte.c ****       u8x8_gpio_SetSPIClock(u8x8, u8x8_GetSPIClockPhase(u8x8));
ARM GAS  C:\Users\brian\AppData\Local\Temp\cc2Kbm4j.s 			page 4


 146:..\u8g2\csrc/u8x8_byte.c ****       break;
 147:..\u8g2\csrc/u8x8_byte.c ****     case U8X8_MSG_BYTE_SET_DC:
 148:..\u8g2\csrc/u8x8_byte.c ****       u8x8_gpio_SetDC(u8x8, arg_int);
 149:..\u8g2\csrc/u8x8_byte.c ****       break;
 150:..\u8g2\csrc/u8x8_byte.c ****     case U8X8_MSG_BYTE_START_TRANSFER:
 151:..\u8g2\csrc/u8x8_byte.c ****       u8x8_gpio_SetCS(u8x8, u8x8->display_info->chip_enable_level);  
 152:..\u8g2\csrc/u8x8_byte.c ****       u8x8->gpio_and_delay_cb(u8x8, U8X8_MSG_DELAY_NANO, u8x8->display_info->post_chip_enable_wait_
 153:..\u8g2\csrc/u8x8_byte.c ****       break;
 154:..\u8g2\csrc/u8x8_byte.c ****     case U8X8_MSG_BYTE_END_TRANSFER:
 155:..\u8g2\csrc/u8x8_byte.c ****       u8x8->gpio_and_delay_cb(u8x8, U8X8_MSG_DELAY_NANO, u8x8->display_info->pre_chip_disable_wait_
 156:..\u8g2\csrc/u8x8_byte.c ****       u8x8_gpio_SetCS(u8x8, u8x8->display_info->chip_disable_level);
 157:..\u8g2\csrc/u8x8_byte.c ****       break;
 158:..\u8g2\csrc/u8x8_byte.c ****     default:
 159:..\u8g2\csrc/u8x8_byte.c ****       return 0;
 160:..\u8g2\csrc/u8x8_byte.c ****   }
 161:..\u8g2\csrc/u8x8_byte.c ****   return 1;
 162:..\u8g2\csrc/u8x8_byte.c **** }
 163:..\u8g2\csrc/u8x8_byte.c **** 
 164:..\u8g2\csrc/u8x8_byte.c **** /*=========================================*/
 165:..\u8g2\csrc/u8x8_byte.c **** 
 166:..\u8g2\csrc/u8x8_byte.c **** uint8_t u8x8_byte_8bit_6800mode(u8x8_t *u8x8, uint8_t msg, uint8_t arg_int, void *arg_ptr)
 167:..\u8g2\csrc/u8x8_byte.c **** {
 168:..\u8g2\csrc/u8x8_byte.c ****   uint8_t i, b;
 169:..\u8g2\csrc/u8x8_byte.c ****   uint8_t *data;
 170:..\u8g2\csrc/u8x8_byte.c ****  
 171:..\u8g2\csrc/u8x8_byte.c ****   switch(msg)
 172:..\u8g2\csrc/u8x8_byte.c ****   {
 173:..\u8g2\csrc/u8x8_byte.c ****     case U8X8_MSG_BYTE_SEND:
 174:..\u8g2\csrc/u8x8_byte.c ****       data = (uint8_t *)arg_ptr;
 175:..\u8g2\csrc/u8x8_byte.c ****       while( arg_int > 0 )
 176:..\u8g2\csrc/u8x8_byte.c ****       {
 177:..\u8g2\csrc/u8x8_byte.c **** 	b = *data;
 178:..\u8g2\csrc/u8x8_byte.c **** 	data++;
 179:..\u8g2\csrc/u8x8_byte.c **** 	arg_int--;
 180:..\u8g2\csrc/u8x8_byte.c **** 	for( i = U8X8_MSG_GPIO_D0; i <= U8X8_MSG_GPIO_D7; i++ )
 181:..\u8g2\csrc/u8x8_byte.c **** 	{
 182:..\u8g2\csrc/u8x8_byte.c **** 	  u8x8_gpio_call(u8x8, i, b&1);
 183:..\u8g2\csrc/u8x8_byte.c **** 	  b >>= 1;
 184:..\u8g2\csrc/u8x8_byte.c **** 	}    
 185:..\u8g2\csrc/u8x8_byte.c **** 	
 186:..\u8g2\csrc/u8x8_byte.c **** 	u8x8_gpio_Delay(u8x8, U8X8_MSG_DELAY_NANO, u8x8->display_info->data_setup_time_ns);
 187:..\u8g2\csrc/u8x8_byte.c **** 	u8x8_gpio_call(u8x8, U8X8_MSG_GPIO_E, 1);
 188:..\u8g2\csrc/u8x8_byte.c **** 	u8x8_gpio_Delay(u8x8, U8X8_MSG_DELAY_NANO, u8x8->display_info->write_pulse_width_ns);
 189:..\u8g2\csrc/u8x8_byte.c **** 	u8x8_gpio_call(u8x8, U8X8_MSG_GPIO_E, 0);
 190:..\u8g2\csrc/u8x8_byte.c ****       }
 191:..\u8g2\csrc/u8x8_byte.c ****       break;
 192:..\u8g2\csrc/u8x8_byte.c ****       
 193:..\u8g2\csrc/u8x8_byte.c ****     case U8X8_MSG_BYTE_INIT:
 194:..\u8g2\csrc/u8x8_byte.c ****       /* disable chipselect */
 195:..\u8g2\csrc/u8x8_byte.c ****       u8x8_gpio_SetCS(u8x8, u8x8->display_info->chip_disable_level);    
 196:..\u8g2\csrc/u8x8_byte.c ****       /* ensure that the enable signal is high */
 197:..\u8g2\csrc/u8x8_byte.c ****       u8x8_gpio_call(u8x8, U8X8_MSG_GPIO_E, 0);
 198:..\u8g2\csrc/u8x8_byte.c ****       break;
 199:..\u8g2\csrc/u8x8_byte.c ****     case U8X8_MSG_BYTE_SET_DC:
 200:..\u8g2\csrc/u8x8_byte.c ****       u8x8_gpio_SetDC(u8x8, arg_int);
 201:..\u8g2\csrc/u8x8_byte.c ****       break;
 202:..\u8g2\csrc/u8x8_byte.c ****     case U8X8_MSG_BYTE_START_TRANSFER:
ARM GAS  C:\Users\brian\AppData\Local\Temp\cc2Kbm4j.s 			page 5


 203:..\u8g2\csrc/u8x8_byte.c ****       u8x8_gpio_SetCS(u8x8, u8x8->display_info->chip_enable_level);  
 204:..\u8g2\csrc/u8x8_byte.c ****       u8x8->gpio_and_delay_cb(u8x8, U8X8_MSG_DELAY_NANO, u8x8->display_info->post_chip_enable_wait_
 205:..\u8g2\csrc/u8x8_byte.c ****       break;
 206:..\u8g2\csrc/u8x8_byte.c ****     case U8X8_MSG_BYTE_END_TRANSFER:
 207:..\u8g2\csrc/u8x8_byte.c ****       u8x8->gpio_and_delay_cb(u8x8, U8X8_MSG_DELAY_NANO, u8x8->display_info->pre_chip_disable_wait_
 208:..\u8g2\csrc/u8x8_byte.c ****       u8x8_gpio_SetCS(u8x8, u8x8->display_info->chip_disable_level);
 209:..\u8g2\csrc/u8x8_byte.c ****       break;
 210:..\u8g2\csrc/u8x8_byte.c ****     default:
 211:..\u8g2\csrc/u8x8_byte.c ****       return 0;
 212:..\u8g2\csrc/u8x8_byte.c ****   }
 213:..\u8g2\csrc/u8x8_byte.c ****   return 1;
 214:..\u8g2\csrc/u8x8_byte.c **** }
 215:..\u8g2\csrc/u8x8_byte.c **** 
 216:..\u8g2\csrc/u8x8_byte.c **** uint8_t u8x8_byte_8bit_8080mode(u8x8_t *u8x8, uint8_t msg, uint8_t arg_int, void *arg_ptr)
 217:..\u8g2\csrc/u8x8_byte.c **** {
 218:..\u8g2\csrc/u8x8_byte.c ****   uint8_t i, b;
 219:..\u8g2\csrc/u8x8_byte.c ****   uint8_t *data;
 220:..\u8g2\csrc/u8x8_byte.c ****  
 221:..\u8g2\csrc/u8x8_byte.c ****   switch(msg)
 222:..\u8g2\csrc/u8x8_byte.c ****   {
 223:..\u8g2\csrc/u8x8_byte.c ****     case U8X8_MSG_BYTE_SEND:
 224:..\u8g2\csrc/u8x8_byte.c ****       data = (uint8_t *)arg_ptr;
 225:..\u8g2\csrc/u8x8_byte.c ****       while( arg_int > 0 )
 226:..\u8g2\csrc/u8x8_byte.c ****       {
 227:..\u8g2\csrc/u8x8_byte.c **** 	b = *data;
 228:..\u8g2\csrc/u8x8_byte.c **** 	data++;
 229:..\u8g2\csrc/u8x8_byte.c **** 	arg_int--;
 230:..\u8g2\csrc/u8x8_byte.c **** 	for( i = U8X8_MSG_GPIO_D0; i <= U8X8_MSG_GPIO_D7; i++ )
 231:..\u8g2\csrc/u8x8_byte.c **** 	{
 232:..\u8g2\csrc/u8x8_byte.c **** 	  u8x8_gpio_call(u8x8, i, b&1);
 233:..\u8g2\csrc/u8x8_byte.c **** 	  b >>= 1;
 234:..\u8g2\csrc/u8x8_byte.c **** 	}    
 235:..\u8g2\csrc/u8x8_byte.c **** 	
 236:..\u8g2\csrc/u8x8_byte.c **** 	u8x8_gpio_Delay(u8x8, U8X8_MSG_DELAY_NANO, u8x8->display_info->data_setup_time_ns);
 237:..\u8g2\csrc/u8x8_byte.c **** 	u8x8_gpio_call(u8x8, U8X8_MSG_GPIO_E, 0);
 238:..\u8g2\csrc/u8x8_byte.c **** 	u8x8_gpio_Delay(u8x8, U8X8_MSG_DELAY_NANO, u8x8->display_info->write_pulse_width_ns);
 239:..\u8g2\csrc/u8x8_byte.c **** 	u8x8_gpio_call(u8x8, U8X8_MSG_GPIO_E, 1);
 240:..\u8g2\csrc/u8x8_byte.c ****       }
 241:..\u8g2\csrc/u8x8_byte.c ****       break;
 242:..\u8g2\csrc/u8x8_byte.c ****       
 243:..\u8g2\csrc/u8x8_byte.c ****     case U8X8_MSG_BYTE_INIT:
 244:..\u8g2\csrc/u8x8_byte.c ****       /* disable chipselect */
 245:..\u8g2\csrc/u8x8_byte.c ****       u8x8_gpio_SetCS(u8x8, u8x8->display_info->chip_disable_level);    
 246:..\u8g2\csrc/u8x8_byte.c ****       /* ensure that the enable signal is high */
 247:..\u8g2\csrc/u8x8_byte.c ****       u8x8_gpio_call(u8x8, U8X8_MSG_GPIO_E, 1);
 248:..\u8g2\csrc/u8x8_byte.c ****       break;
 249:..\u8g2\csrc/u8x8_byte.c ****     case U8X8_MSG_BYTE_SET_DC:
 250:..\u8g2\csrc/u8x8_byte.c ****       u8x8_gpio_SetDC(u8x8, arg_int);
 251:..\u8g2\csrc/u8x8_byte.c ****       break;
 252:..\u8g2\csrc/u8x8_byte.c ****     case U8X8_MSG_BYTE_START_TRANSFER:
 253:..\u8g2\csrc/u8x8_byte.c ****       u8x8_gpio_SetCS(u8x8, u8x8->display_info->chip_enable_level);  
 254:..\u8g2\csrc/u8x8_byte.c ****       u8x8->gpio_and_delay_cb(u8x8, U8X8_MSG_DELAY_NANO, u8x8->display_info->post_chip_enable_wait_
 255:..\u8g2\csrc/u8x8_byte.c ****       break;
 256:..\u8g2\csrc/u8x8_byte.c ****     case U8X8_MSG_BYTE_END_TRANSFER:
 257:..\u8g2\csrc/u8x8_byte.c ****       u8x8->gpio_and_delay_cb(u8x8, U8X8_MSG_DELAY_NANO, u8x8->display_info->pre_chip_disable_wait_
 258:..\u8g2\csrc/u8x8_byte.c ****       u8x8_gpio_SetCS(u8x8, u8x8->display_info->chip_disable_level);
 259:..\u8g2\csrc/u8x8_byte.c ****       break;
ARM GAS  C:\Users\brian\AppData\Local\Temp\cc2Kbm4j.s 			page 6


 260:..\u8g2\csrc/u8x8_byte.c ****     default:
 261:..\u8g2\csrc/u8x8_byte.c ****       return 0;
 262:..\u8g2\csrc/u8x8_byte.c ****   }
 263:..\u8g2\csrc/u8x8_byte.c ****   return 1;
 264:..\u8g2\csrc/u8x8_byte.c **** }
 265:..\u8g2\csrc/u8x8_byte.c **** 
 266:..\u8g2\csrc/u8x8_byte.c **** /*=========================================*/
 267:..\u8g2\csrc/u8x8_byte.c **** 
 268:..\u8g2\csrc/u8x8_byte.c **** uint8_t u8x8_byte_3wire_sw_spi(u8x8_t *u8x8, uint8_t msg, uint8_t arg_int, void *arg_ptr)
 269:..\u8g2\csrc/u8x8_byte.c **** {
 270:..\u8g2\csrc/u8x8_byte.c ****   uint8_t i;
 271:..\u8g2\csrc/u8x8_byte.c ****   uint8_t *data;
 272:..\u8g2\csrc/u8x8_byte.c ****   uint8_t takeover_edge = u8x8_GetSPIClockPhase(u8x8);
 273:..\u8g2\csrc/u8x8_byte.c ****   uint8_t not_takeover_edge = 1 - takeover_edge;
 274:..\u8g2\csrc/u8x8_byte.c ****   uint16_t b;
 275:..\u8g2\csrc/u8x8_byte.c ****   static uint8_t last_dc;
 276:..\u8g2\csrc/u8x8_byte.c ****  
 277:..\u8g2\csrc/u8x8_byte.c ****   switch(msg)
 278:..\u8g2\csrc/u8x8_byte.c ****   {
 279:..\u8g2\csrc/u8x8_byte.c ****     case U8X8_MSG_BYTE_SEND:
 280:..\u8g2\csrc/u8x8_byte.c ****       data = (uint8_t *)arg_ptr;
 281:..\u8g2\csrc/u8x8_byte.c ****       while( arg_int > 0 )
 282:..\u8g2\csrc/u8x8_byte.c ****       {
 283:..\u8g2\csrc/u8x8_byte.c **** 	b = *data;
 284:..\u8g2\csrc/u8x8_byte.c **** 	if ( last_dc != 0 )
 285:..\u8g2\csrc/u8x8_byte.c **** 	  b |= 256;
 286:..\u8g2\csrc/u8x8_byte.c **** 	data++;
 287:..\u8g2\csrc/u8x8_byte.c **** 	arg_int--;
 288:..\u8g2\csrc/u8x8_byte.c **** 	for( i = 0; i < 9; i++ )
 289:..\u8g2\csrc/u8x8_byte.c **** 	{
 290:..\u8g2\csrc/u8x8_byte.c **** 	  if ( b & 256 )
 291:..\u8g2\csrc/u8x8_byte.c **** 	    u8x8_gpio_SetSPIData(u8x8, 1);
 292:..\u8g2\csrc/u8x8_byte.c **** 	  else
 293:..\u8g2\csrc/u8x8_byte.c **** 	    u8x8_gpio_SetSPIData(u8x8, 0);
 294:..\u8g2\csrc/u8x8_byte.c **** 	  b <<= 1;
 295:..\u8g2\csrc/u8x8_byte.c **** 	  
 296:..\u8g2\csrc/u8x8_byte.c **** 	  u8x8_gpio_SetSPIClock(u8x8, not_takeover_edge);
 297:..\u8g2\csrc/u8x8_byte.c **** 	  u8x8_gpio_Delay(u8x8, U8X8_MSG_DELAY_NANO, u8x8->display_info->sda_setup_time_ns);
 298:..\u8g2\csrc/u8x8_byte.c **** 	  u8x8_gpio_SetSPIClock(u8x8, takeover_edge);
 299:..\u8g2\csrc/u8x8_byte.c **** 	  u8x8_gpio_Delay(u8x8, U8X8_MSG_DELAY_NANO, u8x8->display_info->sck_pulse_width_ns);
 300:..\u8g2\csrc/u8x8_byte.c **** 	}    
 301:..\u8g2\csrc/u8x8_byte.c ****       }
 302:..\u8g2\csrc/u8x8_byte.c ****       break;
 303:..\u8g2\csrc/u8x8_byte.c ****       
 304:..\u8g2\csrc/u8x8_byte.c ****     case U8X8_MSG_BYTE_INIT:
 305:..\u8g2\csrc/u8x8_byte.c ****       /* disable chipselect */
 306:..\u8g2\csrc/u8x8_byte.c ****       u8x8_gpio_SetCS(u8x8, u8x8->display_info->chip_disable_level);
 307:..\u8g2\csrc/u8x8_byte.c ****       /* no wait required here */
 308:..\u8g2\csrc/u8x8_byte.c ****       
 309:..\u8g2\csrc/u8x8_byte.c ****       /* for SPI: setup correct level of the clock signal */
 310:..\u8g2\csrc/u8x8_byte.c ****       u8x8_gpio_SetSPIClock(u8x8, u8x8_GetSPIClockPhase(u8x8));
 311:..\u8g2\csrc/u8x8_byte.c ****       break;
 312:..\u8g2\csrc/u8x8_byte.c ****     case U8X8_MSG_BYTE_SET_DC:
 313:..\u8g2\csrc/u8x8_byte.c ****       last_dc = arg_int;
 314:..\u8g2\csrc/u8x8_byte.c ****       break;
 315:..\u8g2\csrc/u8x8_byte.c ****     case U8X8_MSG_BYTE_START_TRANSFER:
 316:..\u8g2\csrc/u8x8_byte.c ****       u8x8_gpio_SetCS(u8x8, u8x8->display_info->chip_enable_level);  
ARM GAS  C:\Users\brian\AppData\Local\Temp\cc2Kbm4j.s 			page 7


 317:..\u8g2\csrc/u8x8_byte.c ****       u8x8->gpio_and_delay_cb(u8x8, U8X8_MSG_DELAY_NANO, u8x8->display_info->post_chip_enable_wait_
 318:..\u8g2\csrc/u8x8_byte.c ****       break;
 319:..\u8g2\csrc/u8x8_byte.c ****     case U8X8_MSG_BYTE_END_TRANSFER:
 320:..\u8g2\csrc/u8x8_byte.c ****       u8x8->gpio_and_delay_cb(u8x8, U8X8_MSG_DELAY_NANO, u8x8->display_info->pre_chip_disable_wait_
 321:..\u8g2\csrc/u8x8_byte.c ****       u8x8_gpio_SetCS(u8x8, u8x8->display_info->chip_disable_level);
 322:..\u8g2\csrc/u8x8_byte.c ****       break;
 323:..\u8g2\csrc/u8x8_byte.c ****     default:
 324:..\u8g2\csrc/u8x8_byte.c ****       return 0;
 325:..\u8g2\csrc/u8x8_byte.c ****   }
 326:..\u8g2\csrc/u8x8_byte.c ****   return 1;
 327:..\u8g2\csrc/u8x8_byte.c **** }
 328:..\u8g2\csrc/u8x8_byte.c **** 
 329:..\u8g2\csrc/u8x8_byte.c **** /*=========================================*/
 330:..\u8g2\csrc/u8x8_byte.c **** 
 331:..\u8g2\csrc/u8x8_byte.c **** void u8x8_byte_set_ks0108_cs(u8x8_t *u8x8, uint8_t arg)
 332:..\u8g2\csrc/u8x8_byte.c **** {
 333:..\u8g2\csrc/u8x8_byte.c ****   u8x8_gpio_SetCS(u8x8, arg&1);
 334:..\u8g2\csrc/u8x8_byte.c ****   arg = arg >> 1;
 335:..\u8g2\csrc/u8x8_byte.c ****   u8x8_gpio_call(u8x8, U8X8_MSG_GPIO_CS1, arg&1);
 336:..\u8g2\csrc/u8x8_byte.c ****   arg = arg >> 1;
 337:..\u8g2\csrc/u8x8_byte.c ****   u8x8_gpio_call(u8x8, U8X8_MSG_GPIO_CS2, arg&1);
 338:..\u8g2\csrc/u8x8_byte.c **** }
 339:..\u8g2\csrc/u8x8_byte.c **** 
 340:..\u8g2\csrc/u8x8_byte.c **** /* 6800 mode */
 341:..\u8g2\csrc/u8x8_byte.c **** uint8_t u8x8_byte_ks0108(u8x8_t *u8x8, uint8_t msg, uint8_t arg_int, void *arg_ptr)
 342:..\u8g2\csrc/u8x8_byte.c **** {
 343:..\u8g2\csrc/u8x8_byte.c ****   uint8_t i, b;
 344:..\u8g2\csrc/u8x8_byte.c ****   uint8_t *data;
 345:..\u8g2\csrc/u8x8_byte.c ****  
 346:..\u8g2\csrc/u8x8_byte.c ****   switch(msg)
 347:..\u8g2\csrc/u8x8_byte.c ****   {
 348:..\u8g2\csrc/u8x8_byte.c ****     case U8X8_MSG_BYTE_SEND:
 349:..\u8g2\csrc/u8x8_byte.c ****       data = (uint8_t *)arg_ptr;
 350:..\u8g2\csrc/u8x8_byte.c ****       while( arg_int > 0 )
 351:..\u8g2\csrc/u8x8_byte.c ****       {
 352:..\u8g2\csrc/u8x8_byte.c **** 	b = *data;
 353:..\u8g2\csrc/u8x8_byte.c **** 	data++;
 354:..\u8g2\csrc/u8x8_byte.c **** 	arg_int--;
 355:..\u8g2\csrc/u8x8_byte.c **** 	for( i = U8X8_MSG_GPIO_D0; i <= U8X8_MSG_GPIO_D7; i++ )
 356:..\u8g2\csrc/u8x8_byte.c **** 	{
 357:..\u8g2\csrc/u8x8_byte.c **** 	  u8x8_gpio_call(u8x8, i, b&1);
 358:..\u8g2\csrc/u8x8_byte.c **** 	  b >>= 1;
 359:..\u8g2\csrc/u8x8_byte.c **** 	}    
 360:..\u8g2\csrc/u8x8_byte.c **** 	
 361:..\u8g2\csrc/u8x8_byte.c **** 	u8x8_gpio_Delay(u8x8, U8X8_MSG_DELAY_NANO, u8x8->display_info->data_setup_time_ns);
 362:..\u8g2\csrc/u8x8_byte.c **** 	u8x8_gpio_call(u8x8, U8X8_MSG_GPIO_E, 1);
 363:..\u8g2\csrc/u8x8_byte.c **** 	u8x8_gpio_Delay(u8x8, U8X8_MSG_DELAY_NANO, u8x8->display_info->write_pulse_width_ns);
 364:..\u8g2\csrc/u8x8_byte.c **** 	u8x8_gpio_call(u8x8, U8X8_MSG_GPIO_E, 0);
 365:..\u8g2\csrc/u8x8_byte.c ****       }
 366:..\u8g2\csrc/u8x8_byte.c ****       break;
 367:..\u8g2\csrc/u8x8_byte.c ****       
 368:..\u8g2\csrc/u8x8_byte.c ****     case U8X8_MSG_BYTE_INIT:
 369:..\u8g2\csrc/u8x8_byte.c ****       /* disable chipselect */
 370:..\u8g2\csrc/u8x8_byte.c ****       u8x8_gpio_SetCS(u8x8, u8x8->display_info->chip_disable_level);    
 371:..\u8g2\csrc/u8x8_byte.c ****       /* ensure that the enable signal is low */
 372:..\u8g2\csrc/u8x8_byte.c ****       u8x8_gpio_call(u8x8, U8X8_MSG_GPIO_E, 0);
 373:..\u8g2\csrc/u8x8_byte.c ****       break;
ARM GAS  C:\Users\brian\AppData\Local\Temp\cc2Kbm4j.s 			page 8


 374:..\u8g2\csrc/u8x8_byte.c ****     case U8X8_MSG_BYTE_SET_DC:
 375:..\u8g2\csrc/u8x8_byte.c ****       u8x8_gpio_SetDC(u8x8, arg_int);
 376:..\u8g2\csrc/u8x8_byte.c ****       break;
 377:..\u8g2\csrc/u8x8_byte.c ****     case U8X8_MSG_BYTE_START_TRANSFER:
 378:..\u8g2\csrc/u8x8_byte.c ****       /* expects 3 bits in arg_int for the chip select lines */ 
 379:..\u8g2\csrc/u8x8_byte.c ****       u8x8_byte_set_ks0108_cs(u8x8, arg_int);
 380:..\u8g2\csrc/u8x8_byte.c ****       u8x8->gpio_and_delay_cb(u8x8, U8X8_MSG_DELAY_NANO, u8x8->display_info->post_chip_enable_wait_
 381:..\u8g2\csrc/u8x8_byte.c ****       break;
 382:..\u8g2\csrc/u8x8_byte.c ****     case U8X8_MSG_BYTE_END_TRANSFER:
 383:..\u8g2\csrc/u8x8_byte.c ****       u8x8->gpio_and_delay_cb(u8x8, U8X8_MSG_DELAY_NANO, u8x8->display_info->pre_chip_disable_wait_
 384:..\u8g2\csrc/u8x8_byte.c ****       u8x8_byte_set_ks0108_cs(u8x8, arg_int);
 385:..\u8g2\csrc/u8x8_byte.c ****       break;
 386:..\u8g2\csrc/u8x8_byte.c ****     default:
 387:..\u8g2\csrc/u8x8_byte.c ****       return 0;
 388:..\u8g2\csrc/u8x8_byte.c ****   }
 389:..\u8g2\csrc/u8x8_byte.c ****   return 1;
 390:..\u8g2\csrc/u8x8_byte.c **** }
 391:..\u8g2\csrc/u8x8_byte.c **** 
 392:..\u8g2\csrc/u8x8_byte.c **** 
 393:..\u8g2\csrc/u8x8_byte.c **** /* sed1520 or sbn1661 
 394:..\u8g2\csrc/u8x8_byte.c ****   U8X8_MSG_GPIO_E --> E1
 395:..\u8g2\csrc/u8x8_byte.c ****   U8X8_MSG_GPIO_CS --> E2
 396:..\u8g2\csrc/u8x8_byte.c **** */
 397:..\u8g2\csrc/u8x8_byte.c **** uint8_t u8x8_byte_sed1520(u8x8_t *u8x8, uint8_t msg, uint8_t arg_int, void *arg_ptr)
 398:..\u8g2\csrc/u8x8_byte.c **** {
 399:..\u8g2\csrc/u8x8_byte.c ****   uint8_t i, b;
 400:..\u8g2\csrc/u8x8_byte.c ****   uint8_t *data;
 401:..\u8g2\csrc/u8x8_byte.c ****   static uint8_t enable_pin;
 402:..\u8g2\csrc/u8x8_byte.c ****  
 403:..\u8g2\csrc/u8x8_byte.c ****   switch(msg)
 404:..\u8g2\csrc/u8x8_byte.c ****   {
 405:..\u8g2\csrc/u8x8_byte.c ****     case U8X8_MSG_BYTE_SEND:
 406:..\u8g2\csrc/u8x8_byte.c ****       data = (uint8_t *)arg_ptr;
 407:..\u8g2\csrc/u8x8_byte.c ****       while( arg_int > 0 )
 408:..\u8g2\csrc/u8x8_byte.c ****       {
 409:..\u8g2\csrc/u8x8_byte.c **** 	b = *data;
 410:..\u8g2\csrc/u8x8_byte.c **** 	data++;
 411:..\u8g2\csrc/u8x8_byte.c **** 	arg_int--;
 412:..\u8g2\csrc/u8x8_byte.c **** 	for( i = U8X8_MSG_GPIO_D0; i <= U8X8_MSG_GPIO_D7; i++ )
 413:..\u8g2\csrc/u8x8_byte.c **** 	{
 414:..\u8g2\csrc/u8x8_byte.c **** 	  u8x8_gpio_call(u8x8, i, b&1);
 415:..\u8g2\csrc/u8x8_byte.c **** 	  b >>= 1;
 416:..\u8g2\csrc/u8x8_byte.c **** 	}    
 417:..\u8g2\csrc/u8x8_byte.c **** 	
 418:..\u8g2\csrc/u8x8_byte.c **** 	u8x8_gpio_Delay(u8x8, U8X8_MSG_DELAY_NANO, u8x8->display_info->data_setup_time_ns);
 419:..\u8g2\csrc/u8x8_byte.c **** 	u8x8_gpio_call(u8x8, enable_pin, 1);
 420:..\u8g2\csrc/u8x8_byte.c **** 	u8x8_gpio_Delay(u8x8, U8X8_MSG_DELAY_NANO, 200);		/* KS0108 requires 450 ns, use 200 here */
 421:..\u8g2\csrc/u8x8_byte.c **** 	u8x8_gpio_Delay(u8x8, U8X8_MSG_DELAY_NANO, u8x8->display_info->write_pulse_width_ns);  /* expect 2
 422:..\u8g2\csrc/u8x8_byte.c **** 	u8x8_gpio_call(u8x8, enable_pin, 0);
 423:..\u8g2\csrc/u8x8_byte.c ****       }
 424:..\u8g2\csrc/u8x8_byte.c ****       break;
 425:..\u8g2\csrc/u8x8_byte.c ****       
 426:..\u8g2\csrc/u8x8_byte.c ****     case U8X8_MSG_BYTE_INIT:
 427:..\u8g2\csrc/u8x8_byte.c ****       /* disable chipselect */
 428:..\u8g2\csrc/u8x8_byte.c ****       u8x8_gpio_SetCS(u8x8, u8x8->display_info->chip_disable_level);    
 429:..\u8g2\csrc/u8x8_byte.c ****       /* ensure that the enable signals are low */
 430:..\u8g2\csrc/u8x8_byte.c ****       u8x8_gpio_call(u8x8, U8X8_MSG_GPIO_E, 0);
ARM GAS  C:\Users\brian\AppData\Local\Temp\cc2Kbm4j.s 			page 9


 431:..\u8g2\csrc/u8x8_byte.c ****       u8x8_gpio_call(u8x8, U8X8_MSG_GPIO_CS, 0);
 432:..\u8g2\csrc/u8x8_byte.c ****       enable_pin = U8X8_MSG_GPIO_E;
 433:..\u8g2\csrc/u8x8_byte.c ****       break;
 434:..\u8g2\csrc/u8x8_byte.c ****     case U8X8_MSG_BYTE_SET_DC:
 435:..\u8g2\csrc/u8x8_byte.c ****       u8x8_gpio_SetDC(u8x8, arg_int);
 436:..\u8g2\csrc/u8x8_byte.c ****       break;
 437:..\u8g2\csrc/u8x8_byte.c ****     case U8X8_MSG_BYTE_START_TRANSFER:
 438:..\u8g2\csrc/u8x8_byte.c ****       /* cs lines are not supported for the SED1520/SBN1661 */
 439:..\u8g2\csrc/u8x8_byte.c ****       /* instead, this will select the E1 or E2 line */ 
 440:..\u8g2\csrc/u8x8_byte.c ****       enable_pin = U8X8_MSG_GPIO_E;
 441:..\u8g2\csrc/u8x8_byte.c ****       if ( arg_int != 0 )
 442:..\u8g2\csrc/u8x8_byte.c **** 	enable_pin = U8X8_MSG_GPIO_CS;
 443:..\u8g2\csrc/u8x8_byte.c ****       break;
 444:..\u8g2\csrc/u8x8_byte.c ****     case U8X8_MSG_BYTE_END_TRANSFER:
 445:..\u8g2\csrc/u8x8_byte.c ****       break;
 446:..\u8g2\csrc/u8x8_byte.c ****     default:
 447:..\u8g2\csrc/u8x8_byte.c ****       return 0;
 448:..\u8g2\csrc/u8x8_byte.c ****   }
 449:..\u8g2\csrc/u8x8_byte.c ****   return 1;
 450:..\u8g2\csrc/u8x8_byte.c **** }
 451:..\u8g2\csrc/u8x8_byte.c **** 
 452:..\u8g2\csrc/u8x8_byte.c **** /*=========================================*/
 453:..\u8g2\csrc/u8x8_byte.c **** 
 454:..\u8g2\csrc/u8x8_byte.c **** 
 455:..\u8g2\csrc/u8x8_byte.c **** /*
 456:..\u8g2\csrc/u8x8_byte.c ****   software i2c,
 457:..\u8g2\csrc/u8x8_byte.c ****   ignores ACK response (which is anyway not provided by some displays)
 458:..\u8g2\csrc/u8x8_byte.c ****   also does not allow reading from the device
 459:..\u8g2\csrc/u8x8_byte.c **** */
 460:..\u8g2\csrc/u8x8_byte.c **** static void i2c_delay(u8x8_t *u8x8) U8X8_NOINLINE;
 461:..\u8g2\csrc/u8x8_byte.c **** static void i2c_delay(u8x8_t *u8x8)
 462:..\u8g2\csrc/u8x8_byte.c **** {
  27              		.loc 1 462 0
  28              		.cfi_startproc
  29              		@ args = 0, pretend = 0, frame = 0
  30              		@ frame_needed = 0, uses_anonymous_args = 0
  31              	.LVL0:
  32 0000 08B5     		push	{r3, lr}
  33              		.cfi_def_cfa_offset 8
  34              		.cfi_offset 3, -8
  35              		.cfi_offset 14, -4
 463:..\u8g2\csrc/u8x8_byte.c ****   //u8x8_gpio_Delay(u8x8, U8X8_MSG_DELAY_10MICRO, u8x8->display_info->i2c_bus_clock_100kHz);
 464:..\u8g2\csrc/u8x8_byte.c ****   u8x8_gpio_Delay(u8x8, U8X8_MSG_DELAY_I2C, u8x8->display_info->i2c_bus_clock_100kHz);
  36              		.loc 1 464 0
  37 0002 0368     		ldr	r3, [r0]
  38 0004 5A7B     		ldrb	r2, [r3, #13]	@ zero_extendqisi2
  39 0006 2D21     		movs	r1, #45
  40 0008 FFF7FEFF 		bl	u8x8_gpio_call
  41              	.LVL1:
  42 000c 08BD     		pop	{r3, pc}
  43              		.cfi_endproc
  44              	.LFE13:
  45              		.size	i2c_delay, .-i2c_delay
  46 000e 00BF     		.section	.text.i2c_init,"ax",%progbits
  47              		.align	2
  48              		.thumb
  49              		.thumb_func
ARM GAS  C:\Users\brian\AppData\Local\Temp\cc2Kbm4j.s 			page 10


  50              		.type	i2c_init, %function
  51              	i2c_init:
  52              	.LFB14:
 465:..\u8g2\csrc/u8x8_byte.c **** }
 466:..\u8g2\csrc/u8x8_byte.c **** 
 467:..\u8g2\csrc/u8x8_byte.c **** static void i2c_init(u8x8_t *u8x8)
 468:..\u8g2\csrc/u8x8_byte.c **** {
  53              		.loc 1 468 0
  54              		.cfi_startproc
  55              		@ args = 0, pretend = 0, frame = 0
  56              		@ frame_needed = 0, uses_anonymous_args = 0
  57              	.LVL2:
  58 0000 10B5     		push	{r4, lr}
  59              		.cfi_def_cfa_offset 8
  60              		.cfi_offset 4, -8
  61              		.cfi_offset 14, -4
  62 0002 0446     		mov	r4, r0
 469:..\u8g2\csrc/u8x8_byte.c ****   u8x8_gpio_SetI2CClock(u8x8, 1);
  63              		.loc 1 469 0
  64 0004 0122     		movs	r2, #1
  65 0006 4C21     		movs	r1, #76
  66 0008 FFF7FEFF 		bl	u8x8_gpio_call
  67              	.LVL3:
 470:..\u8g2\csrc/u8x8_byte.c ****   u8x8_gpio_SetI2CData(u8x8, 1);
  68              		.loc 1 470 0
  69 000c 0122     		movs	r2, #1
  70 000e 4D21     		movs	r1, #77
  71 0010 2046     		mov	r0, r4
  72 0012 FFF7FEFF 		bl	u8x8_gpio_call
  73              	.LVL4:
 471:..\u8g2\csrc/u8x8_byte.c ****   
 472:..\u8g2\csrc/u8x8_byte.c ****   i2c_delay(u8x8);
  74              		.loc 1 472 0
  75 0016 2046     		mov	r0, r4
  76 0018 FFF7FEFF 		bl	i2c_delay
  77              	.LVL5:
  78 001c 10BD     		pop	{r4, pc}
  79              		.cfi_endproc
  80              	.LFE14:
  81              		.size	i2c_init, .-i2c_init
  82 001e 00BF     		.section	.text.i2c_read_scl_and_delay,"ax",%progbits
  83              		.align	2
  84              		.thumb
  85              		.thumb_func
  86              		.type	i2c_read_scl_and_delay, %function
  87              	i2c_read_scl_and_delay:
  88              	.LFB15:
 473:..\u8g2\csrc/u8x8_byte.c **** }
 474:..\u8g2\csrc/u8x8_byte.c **** 
 475:..\u8g2\csrc/u8x8_byte.c **** /* actually, the scl line is not observed, so this procedure does not return a value */
 476:..\u8g2\csrc/u8x8_byte.c **** 
 477:..\u8g2\csrc/u8x8_byte.c **** static void i2c_read_scl_and_delay(u8x8_t *u8x8)
 478:..\u8g2\csrc/u8x8_byte.c **** {
  89              		.loc 1 478 0
  90              		.cfi_startproc
  91              		@ args = 0, pretend = 0, frame = 0
  92              		@ frame_needed = 0, uses_anonymous_args = 0
ARM GAS  C:\Users\brian\AppData\Local\Temp\cc2Kbm4j.s 			page 11


  93              	.LVL6:
  94 0000 10B5     		push	{r4, lr}
  95              		.cfi_def_cfa_offset 8
  96              		.cfi_offset 4, -8
  97              		.cfi_offset 14, -4
  98 0002 0446     		mov	r4, r0
 479:..\u8g2\csrc/u8x8_byte.c ****   /* set as input (line will be high) */
 480:..\u8g2\csrc/u8x8_byte.c ****   u8x8_gpio_SetI2CClock(u8x8, 1);
  99              		.loc 1 480 0
 100 0004 0122     		movs	r2, #1
 101 0006 4C21     		movs	r1, #76
 102 0008 FFF7FEFF 		bl	u8x8_gpio_call
 103              	.LVL7:
 481:..\u8g2\csrc/u8x8_byte.c **** 
 482:..\u8g2\csrc/u8x8_byte.c ****   i2c_delay(u8x8);
 104              		.loc 1 482 0
 105 000c 2046     		mov	r0, r4
 106 000e FFF7FEFF 		bl	i2c_delay
 107              	.LVL8:
 108 0012 10BD     		pop	{r4, pc}
 109              		.cfi_endproc
 110              	.LFE15:
 111              		.size	i2c_read_scl_and_delay, .-i2c_read_scl_and_delay
 112              		.section	.text.i2c_read_sda,"ax",%progbits
 113              		.align	2
 114              		.thumb
 115              		.thumb_func
 116              		.type	i2c_read_sda, %function
 117              	i2c_read_sda:
 118              	.LFB17:
 483:..\u8g2\csrc/u8x8_byte.c **** }
 484:..\u8g2\csrc/u8x8_byte.c **** 
 485:..\u8g2\csrc/u8x8_byte.c **** static void i2c_clear_scl(u8x8_t *u8x8)
 486:..\u8g2\csrc/u8x8_byte.c **** {
 487:..\u8g2\csrc/u8x8_byte.c ****   u8x8_gpio_SetI2CClock(u8x8, 0);
 488:..\u8g2\csrc/u8x8_byte.c **** }
 489:..\u8g2\csrc/u8x8_byte.c **** 
 490:..\u8g2\csrc/u8x8_byte.c **** static void i2c_read_sda(u8x8_t *u8x8)
 491:..\u8g2\csrc/u8x8_byte.c **** {
 119              		.loc 1 491 0
 120              		.cfi_startproc
 121              		@ args = 0, pretend = 0, frame = 0
 122              		@ frame_needed = 0, uses_anonymous_args = 0
 123              	.LVL9:
 124 0000 08B5     		push	{r3, lr}
 125              		.cfi_def_cfa_offset 8
 126              		.cfi_offset 3, -8
 127              		.cfi_offset 14, -4
 492:..\u8g2\csrc/u8x8_byte.c ****   /* set as input (line will be high) */
 493:..\u8g2\csrc/u8x8_byte.c ****   u8x8_gpio_SetI2CData(u8x8, 1);
 128              		.loc 1 493 0
 129 0002 0122     		movs	r2, #1
 130 0004 4D21     		movs	r1, #77
 131 0006 FFF7FEFF 		bl	u8x8_gpio_call
 132              	.LVL10:
 133 000a 08BD     		pop	{r3, pc}
 134              		.cfi_endproc
ARM GAS  C:\Users\brian\AppData\Local\Temp\cc2Kbm4j.s 			page 12


 135              	.LFE17:
 136              		.size	i2c_read_sda, .-i2c_read_sda
 137              		.section	.text.i2c_clear_sda,"ax",%progbits
 138              		.align	2
 139              		.thumb
 140              		.thumb_func
 141              		.type	i2c_clear_sda, %function
 142              	i2c_clear_sda:
 143              	.LFB18:
 494:..\u8g2\csrc/u8x8_byte.c **** }
 495:..\u8g2\csrc/u8x8_byte.c **** 
 496:..\u8g2\csrc/u8x8_byte.c **** static void i2c_clear_sda(u8x8_t *u8x8)
 497:..\u8g2\csrc/u8x8_byte.c **** {
 144              		.loc 1 497 0
 145              		.cfi_startproc
 146              		@ args = 0, pretend = 0, frame = 0
 147              		@ frame_needed = 0, uses_anonymous_args = 0
 148              	.LVL11:
 149 0000 08B5     		push	{r3, lr}
 150              		.cfi_def_cfa_offset 8
 151              		.cfi_offset 3, -8
 152              		.cfi_offset 14, -4
 498:..\u8g2\csrc/u8x8_byte.c ****   /* set open collector and drive low */
 499:..\u8g2\csrc/u8x8_byte.c ****   u8x8_gpio_SetI2CData(u8x8, 0);
 153              		.loc 1 499 0
 154 0002 0022     		movs	r2, #0
 155 0004 4D21     		movs	r1, #77
 156 0006 FFF7FEFF 		bl	u8x8_gpio_call
 157              	.LVL12:
 158 000a 08BD     		pop	{r3, pc}
 159              		.cfi_endproc
 160              	.LFE18:
 161              		.size	i2c_clear_sda, .-i2c_clear_sda
 162              		.section	.text.i2c_stop,"ax",%progbits
 163              		.align	2
 164              		.thumb
 165              		.thumb_func
 166              		.type	i2c_stop, %function
 167              	i2c_stop:
 168              	.LFB20:
 500:..\u8g2\csrc/u8x8_byte.c **** }
 501:..\u8g2\csrc/u8x8_byte.c **** 
 502:..\u8g2\csrc/u8x8_byte.c **** static void i2c_start(u8x8_t *u8x8)
 503:..\u8g2\csrc/u8x8_byte.c **** {
 504:..\u8g2\csrc/u8x8_byte.c ****   if ( u8x8->i2c_started != 0 )
 505:..\u8g2\csrc/u8x8_byte.c ****   {
 506:..\u8g2\csrc/u8x8_byte.c ****     /* if already started: do restart */
 507:..\u8g2\csrc/u8x8_byte.c ****     i2c_read_sda(u8x8);     /* SDA = 1 */
 508:..\u8g2\csrc/u8x8_byte.c ****     i2c_delay(u8x8);
 509:..\u8g2\csrc/u8x8_byte.c ****     i2c_read_scl_and_delay(u8x8);
 510:..\u8g2\csrc/u8x8_byte.c ****   }
 511:..\u8g2\csrc/u8x8_byte.c ****   i2c_read_sda(u8x8);
 512:..\u8g2\csrc/u8x8_byte.c ****   /* send the start condition, both lines go from 1 to 0 */
 513:..\u8g2\csrc/u8x8_byte.c ****   i2c_clear_sda(u8x8);
 514:..\u8g2\csrc/u8x8_byte.c ****   i2c_delay(u8x8);
 515:..\u8g2\csrc/u8x8_byte.c ****   i2c_clear_scl(u8x8);
 516:..\u8g2\csrc/u8x8_byte.c ****   u8x8->i2c_started = 1;
ARM GAS  C:\Users\brian\AppData\Local\Temp\cc2Kbm4j.s 			page 13


 517:..\u8g2\csrc/u8x8_byte.c **** }
 518:..\u8g2\csrc/u8x8_byte.c **** 
 519:..\u8g2\csrc/u8x8_byte.c **** 
 520:..\u8g2\csrc/u8x8_byte.c **** static void i2c_stop(u8x8_t *u8x8)
 521:..\u8g2\csrc/u8x8_byte.c **** {
 169              		.loc 1 521 0
 170              		.cfi_startproc
 171              		@ args = 0, pretend = 0, frame = 0
 172              		@ frame_needed = 0, uses_anonymous_args = 0
 173              	.LVL13:
 174 0000 10B5     		push	{r4, lr}
 175              		.cfi_def_cfa_offset 8
 176              		.cfi_offset 4, -8
 177              		.cfi_offset 14, -4
 178 0002 0446     		mov	r4, r0
 522:..\u8g2\csrc/u8x8_byte.c ****   /* set SDA to 0 */
 523:..\u8g2\csrc/u8x8_byte.c ****   i2c_clear_sda(u8x8);  
 179              		.loc 1 523 0
 180 0004 FFF7FEFF 		bl	i2c_clear_sda
 181              	.LVL14:
 524:..\u8g2\csrc/u8x8_byte.c ****   i2c_delay(u8x8);
 182              		.loc 1 524 0
 183 0008 2046     		mov	r0, r4
 184 000a FFF7FEFF 		bl	i2c_delay
 185              	.LVL15:
 525:..\u8g2\csrc/u8x8_byte.c ****  
 526:..\u8g2\csrc/u8x8_byte.c ****   /* now release all lines */
 527:..\u8g2\csrc/u8x8_byte.c ****   i2c_read_scl_and_delay(u8x8);
 186              		.loc 1 527 0
 187 000e 2046     		mov	r0, r4
 188 0010 FFF7FEFF 		bl	i2c_read_scl_and_delay
 189              	.LVL16:
 528:..\u8g2\csrc/u8x8_byte.c ****  
 529:..\u8g2\csrc/u8x8_byte.c ****   /* set SDA to 1 */
 530:..\u8g2\csrc/u8x8_byte.c ****   i2c_read_sda(u8x8);
 190              		.loc 1 530 0
 191 0014 2046     		mov	r0, r4
 192 0016 FFF7FEFF 		bl	i2c_read_sda
 193              	.LVL17:
 531:..\u8g2\csrc/u8x8_byte.c ****   i2c_delay(u8x8);
 194              		.loc 1 531 0
 195 001a 2046     		mov	r0, r4
 196 001c FFF7FEFF 		bl	i2c_delay
 197              	.LVL18:
 532:..\u8g2\csrc/u8x8_byte.c ****   u8x8->i2c_started = 0;
 198              		.loc 1 532 0
 199 0020 0023     		movs	r3, #0
 200 0022 84F82530 		strb	r3, [r4, #37]
 201 0026 10BD     		pop	{r4, pc}
 202              		.cfi_endproc
 203              	.LFE20:
 204              		.size	i2c_stop, .-i2c_stop
 205              		.section	.text.i2c_clear_scl,"ax",%progbits
 206              		.align	2
 207              		.thumb
 208              		.thumb_func
 209              		.type	i2c_clear_scl, %function
ARM GAS  C:\Users\brian\AppData\Local\Temp\cc2Kbm4j.s 			page 14


 210              	i2c_clear_scl:
 211              	.LFB16:
 486:..\u8g2\csrc/u8x8_byte.c ****   u8x8_gpio_SetI2CClock(u8x8, 0);
 212              		.loc 1 486 0
 213              		.cfi_startproc
 214              		@ args = 0, pretend = 0, frame = 0
 215              		@ frame_needed = 0, uses_anonymous_args = 0
 216              	.LVL19:
 217 0000 08B5     		push	{r3, lr}
 218              		.cfi_def_cfa_offset 8
 219              		.cfi_offset 3, -8
 220              		.cfi_offset 14, -4
 487:..\u8g2\csrc/u8x8_byte.c **** }
 221              		.loc 1 487 0
 222 0002 0022     		movs	r2, #0
 223 0004 4C21     		movs	r1, #76
 224 0006 FFF7FEFF 		bl	u8x8_gpio_call
 225              	.LVL20:
 226 000a 08BD     		pop	{r3, pc}
 227              		.cfi_endproc
 228              	.LFE16:
 229              		.size	i2c_clear_scl, .-i2c_clear_scl
 230              		.section	.text.i2c_start,"ax",%progbits
 231              		.align	2
 232              		.thumb
 233              		.thumb_func
 234              		.type	i2c_start, %function
 235              	i2c_start:
 236              	.LFB19:
 503:..\u8g2\csrc/u8x8_byte.c ****   if ( u8x8->i2c_started != 0 )
 237              		.loc 1 503 0
 238              		.cfi_startproc
 239              		@ args = 0, pretend = 0, frame = 0
 240              		@ frame_needed = 0, uses_anonymous_args = 0
 241              	.LVL21:
 242 0000 10B5     		push	{r4, lr}
 243              		.cfi_def_cfa_offset 8
 244              		.cfi_offset 4, -8
 245              		.cfi_offset 14, -4
 246 0002 0446     		mov	r4, r0
 504:..\u8g2\csrc/u8x8_byte.c ****   {
 247              		.loc 1 504 0
 248 0004 90F82530 		ldrb	r3, [r0, #37]	@ zero_extendqisi2
 249 0008 3BB1     		cbz	r3, .L16
 507:..\u8g2\csrc/u8x8_byte.c ****     i2c_delay(u8x8);
 250              		.loc 1 507 0
 251 000a FFF7FEFF 		bl	i2c_read_sda
 252              	.LVL22:
 508:..\u8g2\csrc/u8x8_byte.c ****     i2c_read_scl_and_delay(u8x8);
 253              		.loc 1 508 0
 254 000e 2046     		mov	r0, r4
 255 0010 FFF7FEFF 		bl	i2c_delay
 256              	.LVL23:
 509:..\u8g2\csrc/u8x8_byte.c ****   }
 257              		.loc 1 509 0
 258 0014 2046     		mov	r0, r4
 259 0016 FFF7FEFF 		bl	i2c_read_scl_and_delay
ARM GAS  C:\Users\brian\AppData\Local\Temp\cc2Kbm4j.s 			page 15


 260              	.LVL24:
 261              	.L16:
 511:..\u8g2\csrc/u8x8_byte.c ****   /* send the start condition, both lines go from 1 to 0 */
 262              		.loc 1 511 0
 263 001a 2046     		mov	r0, r4
 264 001c FFF7FEFF 		bl	i2c_read_sda
 265              	.LVL25:
 513:..\u8g2\csrc/u8x8_byte.c ****   i2c_delay(u8x8);
 266              		.loc 1 513 0
 267 0020 2046     		mov	r0, r4
 268 0022 FFF7FEFF 		bl	i2c_clear_sda
 269              	.LVL26:
 514:..\u8g2\csrc/u8x8_byte.c ****   i2c_clear_scl(u8x8);
 270              		.loc 1 514 0
 271 0026 2046     		mov	r0, r4
 272 0028 FFF7FEFF 		bl	i2c_delay
 273              	.LVL27:
 515:..\u8g2\csrc/u8x8_byte.c ****   u8x8->i2c_started = 1;
 274              		.loc 1 515 0
 275 002c 2046     		mov	r0, r4
 276 002e FFF7FEFF 		bl	i2c_clear_scl
 277              	.LVL28:
 516:..\u8g2\csrc/u8x8_byte.c **** }
 278              		.loc 1 516 0
 279 0032 0123     		movs	r3, #1
 280 0034 84F82530 		strb	r3, [r4, #37]
 281 0038 10BD     		pop	{r4, pc}
 282              		.cfi_endproc
 283              	.LFE19:
 284              		.size	i2c_start, .-i2c_start
 285 003a 00BF     		.section	.text.i2c_write_bit,"ax",%progbits
 286              		.align	2
 287              		.thumb
 288              		.thumb_func
 289              		.type	i2c_write_bit, %function
 290              	i2c_write_bit:
 291              	.LFB21:
 533:..\u8g2\csrc/u8x8_byte.c **** }
 534:..\u8g2\csrc/u8x8_byte.c **** 
 535:..\u8g2\csrc/u8x8_byte.c **** static void i2c_write_bit(u8x8_t *u8x8, uint8_t val)
 536:..\u8g2\csrc/u8x8_byte.c **** {
 292              		.loc 1 536 0
 293              		.cfi_startproc
 294              		@ args = 0, pretend = 0, frame = 0
 295              		@ frame_needed = 0, uses_anonymous_args = 0
 296              	.LVL29:
 297 0000 10B5     		push	{r4, lr}
 298              		.cfi_def_cfa_offset 8
 299              		.cfi_offset 4, -8
 300              		.cfi_offset 14, -4
 301 0002 0446     		mov	r4, r0
 537:..\u8g2\csrc/u8x8_byte.c ****   if (val)
 302              		.loc 1 537 0
 303 0004 11B1     		cbz	r1, .L19
 538:..\u8g2\csrc/u8x8_byte.c ****     i2c_read_sda(u8x8);
 304              		.loc 1 538 0
 305 0006 FFF7FEFF 		bl	i2c_read_sda
ARM GAS  C:\Users\brian\AppData\Local\Temp\cc2Kbm4j.s 			page 16


 306              	.LVL30:
 307 000a 01E0     		b	.L20
 308              	.LVL31:
 309              	.L19:
 539:..\u8g2\csrc/u8x8_byte.c ****   else
 540:..\u8g2\csrc/u8x8_byte.c ****     i2c_clear_sda(u8x8);
 310              		.loc 1 540 0
 311 000c FFF7FEFF 		bl	i2c_clear_sda
 312              	.LVL32:
 313              	.L20:
 541:..\u8g2\csrc/u8x8_byte.c ****  
 542:..\u8g2\csrc/u8x8_byte.c ****   i2c_delay(u8x8);
 314              		.loc 1 542 0
 315 0010 2046     		mov	r0, r4
 316 0012 FFF7FEFF 		bl	i2c_delay
 317              	.LVL33:
 543:..\u8g2\csrc/u8x8_byte.c ****   i2c_read_scl_and_delay(u8x8);
 318              		.loc 1 543 0
 319 0016 2046     		mov	r0, r4
 320 0018 FFF7FEFF 		bl	i2c_read_scl_and_delay
 321              	.LVL34:
 544:..\u8g2\csrc/u8x8_byte.c ****   i2c_clear_scl(u8x8);
 322              		.loc 1 544 0
 323 001c 2046     		mov	r0, r4
 324 001e FFF7FEFF 		bl	i2c_clear_scl
 325              	.LVL35:
 326 0022 10BD     		pop	{r4, pc}
 327              		.cfi_endproc
 328              	.LFE21:
 329              		.size	i2c_write_bit, .-i2c_write_bit
 330              		.section	.text.i2c_read_bit,"ax",%progbits
 331              		.align	2
 332              		.thumb
 333              		.thumb_func
 334              		.type	i2c_read_bit, %function
 335              	i2c_read_bit:
 336              	.LFB22:
 545:..\u8g2\csrc/u8x8_byte.c **** }
 546:..\u8g2\csrc/u8x8_byte.c **** 
 547:..\u8g2\csrc/u8x8_byte.c **** static void i2c_read_bit(u8x8_t *u8x8)
 548:..\u8g2\csrc/u8x8_byte.c **** {
 337              		.loc 1 548 0
 338              		.cfi_startproc
 339              		@ args = 0, pretend = 0, frame = 0
 340              		@ frame_needed = 0, uses_anonymous_args = 0
 341              	.LVL36:
 342 0000 10B5     		push	{r4, lr}
 343              		.cfi_def_cfa_offset 8
 344              		.cfi_offset 4, -8
 345              		.cfi_offset 14, -4
 346 0002 0446     		mov	r4, r0
 549:..\u8g2\csrc/u8x8_byte.c ****   //uint8_t val;
 550:..\u8g2\csrc/u8x8_byte.c ****   /* do not drive SDA */
 551:..\u8g2\csrc/u8x8_byte.c ****   i2c_read_sda(u8x8);
 347              		.loc 1 551 0
 348 0004 FFF7FEFF 		bl	i2c_read_sda
 349              	.LVL37:
ARM GAS  C:\Users\brian\AppData\Local\Temp\cc2Kbm4j.s 			page 17


 552:..\u8g2\csrc/u8x8_byte.c ****   i2c_delay(u8x8);
 350              		.loc 1 552 0
 351 0008 2046     		mov	r0, r4
 352 000a FFF7FEFF 		bl	i2c_delay
 353              	.LVL38:
 553:..\u8g2\csrc/u8x8_byte.c ****   i2c_read_scl_and_delay(u8x8);
 354              		.loc 1 553 0
 355 000e 2046     		mov	r0, r4
 356 0010 FFF7FEFF 		bl	i2c_read_scl_and_delay
 357              	.LVL39:
 554:..\u8g2\csrc/u8x8_byte.c ****   i2c_read_sda(u8x8);
 358              		.loc 1 554 0
 359 0014 2046     		mov	r0, r4
 360 0016 FFF7FEFF 		bl	i2c_read_sda
 361              	.LVL40:
 555:..\u8g2\csrc/u8x8_byte.c ****   i2c_delay(u8x8);
 362              		.loc 1 555 0
 363 001a 2046     		mov	r0, r4
 364 001c FFF7FEFF 		bl	i2c_delay
 365              	.LVL41:
 556:..\u8g2\csrc/u8x8_byte.c ****   i2c_clear_scl(u8x8);
 366              		.loc 1 556 0
 367 0020 2046     		mov	r0, r4
 368 0022 FFF7FEFF 		bl	i2c_clear_scl
 369              	.LVL42:
 370 0026 10BD     		pop	{r4, pc}
 371              		.cfi_endproc
 372              	.LFE22:
 373              		.size	i2c_read_bit, .-i2c_read_bit
 374              		.section	.text.i2c_write_byte,"ax",%progbits
 375              		.align	2
 376              		.thumb
 377              		.thumb_func
 378              		.type	i2c_write_byte, %function
 379              	i2c_write_byte:
 380              	.LFB23:
 557:..\u8g2\csrc/u8x8_byte.c ****   //return val;
 558:..\u8g2\csrc/u8x8_byte.c **** }
 559:..\u8g2\csrc/u8x8_byte.c **** 
 560:..\u8g2\csrc/u8x8_byte.c **** static void i2c_write_byte(u8x8_t *u8x8, uint8_t b)
 561:..\u8g2\csrc/u8x8_byte.c **** {
 381              		.loc 1 561 0
 382              		.cfi_startproc
 383              		@ args = 0, pretend = 0, frame = 0
 384              		@ frame_needed = 0, uses_anonymous_args = 0
 385              	.LVL43:
 386 0000 38B5     		push	{r3, r4, r5, lr}
 387              		.cfi_def_cfa_offset 16
 388              		.cfi_offset 3, -16
 389              		.cfi_offset 4, -12
 390              		.cfi_offset 5, -8
 391              		.cfi_offset 14, -4
 392 0002 0446     		mov	r4, r0
 393 0004 0D46     		mov	r5, r1
 562:..\u8g2\csrc/u8x8_byte.c ****   i2c_write_bit(u8x8, b & 128);
 394              		.loc 1 562 0
 395 0006 01F08001 		and	r1, r1, #128
ARM GAS  C:\Users\brian\AppData\Local\Temp\cc2Kbm4j.s 			page 18


 396              	.LVL44:
 397 000a FFF7FEFF 		bl	i2c_write_bit
 398              	.LVL45:
 563:..\u8g2\csrc/u8x8_byte.c ****   i2c_write_bit(u8x8, b & 64);
 399              		.loc 1 563 0
 400 000e 05F04001 		and	r1, r5, #64
 401 0012 2046     		mov	r0, r4
 402 0014 FFF7FEFF 		bl	i2c_write_bit
 403              	.LVL46:
 564:..\u8g2\csrc/u8x8_byte.c ****   i2c_write_bit(u8x8, b & 32);
 404              		.loc 1 564 0
 405 0018 05F02001 		and	r1, r5, #32
 406 001c 2046     		mov	r0, r4
 407 001e FFF7FEFF 		bl	i2c_write_bit
 408              	.LVL47:
 565:..\u8g2\csrc/u8x8_byte.c ****   i2c_write_bit(u8x8, b & 16);
 409              		.loc 1 565 0
 410 0022 05F01001 		and	r1, r5, #16
 411 0026 2046     		mov	r0, r4
 412 0028 FFF7FEFF 		bl	i2c_write_bit
 413              	.LVL48:
 566:..\u8g2\csrc/u8x8_byte.c ****   i2c_write_bit(u8x8, b & 8);
 414              		.loc 1 566 0
 415 002c 05F00801 		and	r1, r5, #8
 416 0030 2046     		mov	r0, r4
 417 0032 FFF7FEFF 		bl	i2c_write_bit
 418              	.LVL49:
 567:..\u8g2\csrc/u8x8_byte.c ****   i2c_write_bit(u8x8, b & 4);
 419              		.loc 1 567 0
 420 0036 05F00401 		and	r1, r5, #4
 421 003a 2046     		mov	r0, r4
 422 003c FFF7FEFF 		bl	i2c_write_bit
 423              	.LVL50:
 568:..\u8g2\csrc/u8x8_byte.c ****   i2c_write_bit(u8x8, b & 2);
 424              		.loc 1 568 0
 425 0040 05F00201 		and	r1, r5, #2
 426 0044 2046     		mov	r0, r4
 427 0046 FFF7FEFF 		bl	i2c_write_bit
 428              	.LVL51:
 569:..\u8g2\csrc/u8x8_byte.c ****   i2c_write_bit(u8x8, b & 1);
 429              		.loc 1 569 0
 430 004a 05F00101 		and	r1, r5, #1
 431 004e 2046     		mov	r0, r4
 432 0050 FFF7FEFF 		bl	i2c_write_bit
 433              	.LVL52:
 570:..\u8g2\csrc/u8x8_byte.c ****     
 571:..\u8g2\csrc/u8x8_byte.c ****   /* read ack from client */
 572:..\u8g2\csrc/u8x8_byte.c ****   /* 0: ack was given by client */
 573:..\u8g2\csrc/u8x8_byte.c ****   /* 1: nothing happend during ack cycle */  
 574:..\u8g2\csrc/u8x8_byte.c ****   i2c_read_bit(u8x8);
 434              		.loc 1 574 0
 435 0054 2046     		mov	r0, r4
 436 0056 FFF7FEFF 		bl	i2c_read_bit
 437              	.LVL53:
 438 005a 38BD     		pop	{r3, r4, r5, pc}
 439              		.cfi_endproc
 440              	.LFE23:
ARM GAS  C:\Users\brian\AppData\Local\Temp\cc2Kbm4j.s 			page 19


 441              		.size	i2c_write_byte, .-i2c_write_byte
 442              		.section	.text.u8x8_byte_SetDC,"ax",%progbits
 443              		.align	2
 444              		.global	u8x8_byte_SetDC
 445              		.thumb
 446              		.thumb_func
 447              		.type	u8x8_byte_SetDC, %function
 448              	u8x8_byte_SetDC:
 449              	.LFB0:
  40:..\u8g2\csrc/u8x8_byte.c ****   return u8x8->byte_cb(u8x8, U8X8_MSG_BYTE_SET_DC, dc, NULL);
 450              		.loc 1 40 0
 451              		.cfi_startproc
 452              		@ args = 0, pretend = 0, frame = 0
 453              		@ frame_needed = 0, uses_anonymous_args = 0
 454              	.LVL54:
 455 0000 10B5     		push	{r4, lr}
 456              		.cfi_def_cfa_offset 8
 457              		.cfi_offset 4, -8
 458              		.cfi_offset 14, -4
  41:..\u8g2\csrc/u8x8_byte.c **** }
 459              		.loc 1 41 0
 460 0002 0469     		ldr	r4, [r0, #16]
 461 0004 0023     		movs	r3, #0
 462 0006 0A46     		mov	r2, r1
 463 0008 2021     		movs	r1, #32
 464              	.LVL55:
 465 000a A047     		blx	r4
 466              	.LVL56:
  42:..\u8g2\csrc/u8x8_byte.c **** 
 467              		.loc 1 42 0
 468 000c 10BD     		pop	{r4, pc}
 469              		.cfi_endproc
 470              	.LFE0:
 471              		.size	u8x8_byte_SetDC, .-u8x8_byte_SetDC
 472 000e 00BF     		.section	.text.u8x8_byte_SendBytes,"ax",%progbits
 473              		.align	2
 474              		.global	u8x8_byte_SendBytes
 475              		.thumb
 476              		.thumb_func
 477              		.type	u8x8_byte_SendBytes, %function
 478              	u8x8_byte_SendBytes:
 479              	.LFB1:
  45:..\u8g2\csrc/u8x8_byte.c ****   return u8x8->byte_cb(u8x8, U8X8_MSG_BYTE_SEND, cnt, (void *)data);
 480              		.loc 1 45 0
 481              		.cfi_startproc
 482              		@ args = 0, pretend = 0, frame = 0
 483              		@ frame_needed = 0, uses_anonymous_args = 0
 484              	.LVL57:
 485 0000 10B5     		push	{r4, lr}
 486              		.cfi_def_cfa_offset 8
 487              		.cfi_offset 4, -8
 488              		.cfi_offset 14, -4
  46:..\u8g2\csrc/u8x8_byte.c **** }
 489              		.loc 1 46 0
 490 0002 0469     		ldr	r4, [r0, #16]
 491 0004 1346     		mov	r3, r2
 492 0006 0A46     		mov	r2, r1
ARM GAS  C:\Users\brian\AppData\Local\Temp\cc2Kbm4j.s 			page 20


 493              	.LVL58:
 494 0008 1721     		movs	r1, #23
 495              	.LVL59:
 496 000a A047     		blx	r4
 497              	.LVL60:
  47:..\u8g2\csrc/u8x8_byte.c **** 
 498              		.loc 1 47 0
 499 000c 10BD     		pop	{r4, pc}
 500              		.cfi_endproc
 501              	.LFE1:
 502              		.size	u8x8_byte_SendBytes, .-u8x8_byte_SendBytes
 503 000e 00BF     		.section	.text.u8x8_byte_SendByte,"ax",%progbits
 504              		.align	2
 505              		.global	u8x8_byte_SendByte
 506              		.thumb
 507              		.thumb_func
 508              		.type	u8x8_byte_SendByte, %function
 509              	u8x8_byte_SendByte:
 510              	.LFB2:
  50:..\u8g2\csrc/u8x8_byte.c ****   return u8x8_byte_SendBytes(u8x8, 1, &byte);
 511              		.loc 1 50 0
 512              		.cfi_startproc
 513              		@ args = 0, pretend = 0, frame = 8
 514              		@ frame_needed = 0, uses_anonymous_args = 0
 515              	.LVL61:
 516 0000 00B5     		push	{lr}
 517              		.cfi_def_cfa_offset 4
 518              		.cfi_offset 14, -4
 519 0002 83B0     		sub	sp, sp, #12
 520              		.cfi_def_cfa_offset 16
 521 0004 02AA     		add	r2, sp, #8
 522 0006 02F8011D 		strb	r1, [r2, #-1]!
  51:..\u8g2\csrc/u8x8_byte.c **** }
 523              		.loc 1 51 0
 524 000a 0121     		movs	r1, #1
 525              	.LVL62:
 526 000c FFF7FEFF 		bl	u8x8_byte_SendBytes
 527              	.LVL63:
  52:..\u8g2\csrc/u8x8_byte.c **** 
 528              		.loc 1 52 0
 529 0010 03B0     		add	sp, sp, #12
 530              		.cfi_def_cfa_offset 4
 531              		@ sp needed
 532 0012 5DF804FB 		ldr	pc, [sp], #4
 533              		.cfi_endproc
 534              	.LFE2:
 535              		.size	u8x8_byte_SendByte, .-u8x8_byte_SendByte
 536 0016 00BF     		.section	.text.u8x8_byte_StartTransfer,"ax",%progbits
 537              		.align	2
 538              		.global	u8x8_byte_StartTransfer
 539              		.thumb
 540              		.thumb_func
 541              		.type	u8x8_byte_StartTransfer, %function
 542              	u8x8_byte_StartTransfer:
 543              	.LFB3:
  55:..\u8g2\csrc/u8x8_byte.c ****   return u8x8->byte_cb(u8x8, U8X8_MSG_BYTE_START_TRANSFER, 0, NULL);
 544              		.loc 1 55 0
ARM GAS  C:\Users\brian\AppData\Local\Temp\cc2Kbm4j.s 			page 21


 545              		.cfi_startproc
 546              		@ args = 0, pretend = 0, frame = 0
 547              		@ frame_needed = 0, uses_anonymous_args = 0
 548              	.LVL64:
 549 0000 10B5     		push	{r4, lr}
 550              		.cfi_def_cfa_offset 8
 551              		.cfi_offset 4, -8
 552              		.cfi_offset 14, -4
  56:..\u8g2\csrc/u8x8_byte.c **** }
 553              		.loc 1 56 0
 554 0002 0469     		ldr	r4, [r0, #16]
 555 0004 0023     		movs	r3, #0
 556 0006 1A46     		mov	r2, r3
 557 0008 1821     		movs	r1, #24
 558 000a A047     		blx	r4
 559              	.LVL65:
  57:..\u8g2\csrc/u8x8_byte.c **** 
 560              		.loc 1 57 0
 561 000c 10BD     		pop	{r4, pc}
 562              		.cfi_endproc
 563              	.LFE3:
 564              		.size	u8x8_byte_StartTransfer, .-u8x8_byte_StartTransfer
 565 000e 00BF     		.section	.text.u8x8_byte_EndTransfer,"ax",%progbits
 566              		.align	2
 567              		.global	u8x8_byte_EndTransfer
 568              		.thumb
 569              		.thumb_func
 570              		.type	u8x8_byte_EndTransfer, %function
 571              	u8x8_byte_EndTransfer:
 572              	.LFB4:
  60:..\u8g2\csrc/u8x8_byte.c ****   return u8x8->byte_cb(u8x8, U8X8_MSG_BYTE_END_TRANSFER, 0, NULL);
 573              		.loc 1 60 0
 574              		.cfi_startproc
 575              		@ args = 0, pretend = 0, frame = 0
 576              		@ frame_needed = 0, uses_anonymous_args = 0
 577              	.LVL66:
 578 0000 10B5     		push	{r4, lr}
 579              		.cfi_def_cfa_offset 8
 580              		.cfi_offset 4, -8
 581              		.cfi_offset 14, -4
  61:..\u8g2\csrc/u8x8_byte.c **** }
 582              		.loc 1 61 0
 583 0002 0469     		ldr	r4, [r0, #16]
 584 0004 0023     		movs	r3, #0
 585 0006 1A46     		mov	r2, r3
 586 0008 1921     		movs	r1, #25
 587 000a A047     		blx	r4
 588              	.LVL67:
  62:..\u8g2\csrc/u8x8_byte.c **** 
 589              		.loc 1 62 0
 590 000c 10BD     		pop	{r4, pc}
 591              		.cfi_endproc
 592              	.LFE4:
 593              		.size	u8x8_byte_EndTransfer, .-u8x8_byte_EndTransfer
 594 000e 00BF     		.section	.text.u8x8_byte_empty,"ax",%progbits
 595              		.align	2
 596              		.global	u8x8_byte_empty
ARM GAS  C:\Users\brian\AppData\Local\Temp\cc2Kbm4j.s 			page 22


 597              		.thumb
 598              		.thumb_func
 599              		.type	u8x8_byte_empty, %function
 600              	u8x8_byte_empty:
 601              	.LFB5:
  67:..\u8g2\csrc/u8x8_byte.c ****   switch(msg)
 602              		.loc 1 67 0
 603              		.cfi_startproc
 604              		@ args = 0, pretend = 0, frame = 0
 605              		@ frame_needed = 0, uses_anonymous_args = 0
 606              		@ link register save eliminated.
 607              	.LVL68:
  78:..\u8g2\csrc/u8x8_byte.c **** 
 608              		.loc 1 78 0
 609 0000 0120     		movs	r0, #1
 610              	.LVL69:
 611 0002 7047     		bx	lr
 612              		.cfi_endproc
 613              	.LFE5:
 614              		.size	u8x8_byte_empty, .-u8x8_byte_empty
 615              		.section	.text.u8x8_byte_4wire_sw_spi,"ax",%progbits
 616              		.align	2
 617              		.global	u8x8_byte_4wire_sw_spi
 618              		.thumb
 619              		.thumb_func
 620              		.type	u8x8_byte_4wire_sw_spi, %function
 621              	u8x8_byte_4wire_sw_spi:
 622              	.LFB6:
 108:..\u8g2\csrc/u8x8_byte.c ****   uint8_t i, b;
 623              		.loc 1 108 0
 624              		.cfi_startproc
 625              		@ args = 0, pretend = 0, frame = 0
 626              		@ frame_needed = 0, uses_anonymous_args = 0
 627              	.LVL70:
 628 0000 2DE9F047 		push	{r4, r5, r6, r7, r8, r9, r10, lr}
 629              		.cfi_def_cfa_offset 32
 630              		.cfi_offset 4, -32
 631              		.cfi_offset 5, -28
 632              		.cfi_offset 6, -24
 633              		.cfi_offset 7, -20
 634              		.cfi_offset 8, -16
 635              		.cfi_offset 9, -12
 636              		.cfi_offset 10, -8
 637              		.cfi_offset 14, -4
 638 0004 0446     		mov	r4, r0
 639 0006 9146     		mov	r9, r2
 640 0008 9A46     		mov	r10, r3
 111:..\u8g2\csrc/u8x8_byte.c ****   uint8_t not_takeover_edge = 1 - takeover_edge;
 641              		.loc 1 111 0
 642 000a 0268     		ldr	r2, [r0]
 643              	.LVL71:
 644 000c 177B     		ldrb	r7, [r2, #12]	@ zero_extendqisi2
 645 000e 07F00107 		and	r7, r7, #1
 646              	.LVL72:
 112:..\u8g2\csrc/u8x8_byte.c ****  
 647              		.loc 1 112 0
 648 0012 87F00108 		eor	r8, r7, #1
ARM GAS  C:\Users\brian\AppData\Local\Temp\cc2Kbm4j.s 			page 23


 649              	.LVL73:
 114:..\u8g2\csrc/u8x8_byte.c ****   {
 650              		.loc 1 114 0
 651 0016 1439     		subs	r1, r1, #20
 652              	.LVL74:
 653 0018 0C29     		cmp	r1, #12
 654 001a 72D8     		bhi	.L50
 655 001c DFE801F0 		tbb	[pc, r1]
 656              	.LVL75:
 657              	.L40:
 658 0020 3F       		.byte	(.L39-.L40)/2
 659 0021 71       		.byte	(.L50-.L40)/2
 660 0022 71       		.byte	(.L50-.L40)/2
 661 0023 39       		.byte	(.L41-.L40)/2
 662 0024 55       		.byte	(.L42-.L40)/2
 663 0025 63       		.byte	(.L43-.L40)/2
 664 0026 71       		.byte	(.L50-.L40)/2
 665 0027 71       		.byte	(.L50-.L40)/2
 666 0028 71       		.byte	(.L50-.L40)/2
 667 0029 71       		.byte	(.L50-.L40)/2
 668 002a 71       		.byte	(.L50-.L40)/2
 669 002b 71       		.byte	(.L50-.L40)/2
 670 002c 4E       		.byte	(.L44-.L40)/2
 671 002d 00       		.p2align 1
 672              	.L49:
 120:..\u8g2\csrc/u8x8_byte.c **** 	data++;
 673              		.loc 1 120 0
 674 002e 1AF8016B 		ldrb	r6, [r10], #1	@ zero_extendqisi2
 675              	.LVL76:
 122:..\u8g2\csrc/u8x8_byte.c **** 	for( i = 0; i < 8; i++ )
 676              		.loc 1 122 0
 677 0032 09F1FF39 		add	r9, r9, #-1
 678              	.LVL77:
 679 0036 5FFA89F9 		uxtb	r9, r9
 680              	.LVL78:
 123:..\u8g2\csrc/u8x8_byte.c **** 	{
 681              		.loc 1 123 0
 682 003a 0025     		movs	r5, #0
 683 003c 27E0     		b	.L45
 684              	.LVL79:
 685              	.L48:
 125:..\u8g2\csrc/u8x8_byte.c **** 	    u8x8_gpio_SetSPIData(u8x8, 1);
 686              		.loc 1 125 0
 687 003e 16F0800F 		tst	r6, #128
 688 0042 05D0     		beq	.L46
 126:..\u8g2\csrc/u8x8_byte.c **** 	  else
 689              		.loc 1 126 0
 690 0044 0122     		movs	r2, #1
 691 0046 4121     		movs	r1, #65
 692 0048 2046     		mov	r0, r4
 693 004a FFF7FEFF 		bl	u8x8_gpio_call
 694              	.LVL80:
 695 004e 04E0     		b	.L47
 696              	.L46:
 128:..\u8g2\csrc/u8x8_byte.c **** 	  b <<= 1;
 697              		.loc 1 128 0
 698 0050 0022     		movs	r2, #0
ARM GAS  C:\Users\brian\AppData\Local\Temp\cc2Kbm4j.s 			page 24


 699 0052 4121     		movs	r1, #65
 700 0054 2046     		mov	r0, r4
 701 0056 FFF7FEFF 		bl	u8x8_gpio_call
 702              	.LVL81:
 703              	.L47:
 129:..\u8g2\csrc/u8x8_byte.c **** 	  
 704              		.loc 1 129 0 discriminator 2
 705 005a 7600     		lsls	r6, r6, #1
 706              	.LVL82:
 707 005c F6B2     		uxtb	r6, r6
 708              	.LVL83:
 131:..\u8g2\csrc/u8x8_byte.c **** 	  u8x8_gpio_Delay(u8x8, U8X8_MSG_DELAY_NANO, u8x8->display_info->sda_setup_time_ns);
 709              		.loc 1 131 0 discriminator 2
 710 005e 4246     		mov	r2, r8
 711 0060 4021     		movs	r1, #64
 712 0062 2046     		mov	r0, r4
 713 0064 FFF7FEFF 		bl	u8x8_gpio_call
 714              	.LVL84:
 132:..\u8g2\csrc/u8x8_byte.c **** 	  u8x8_gpio_SetSPIClock(u8x8, takeover_edge);
 715              		.loc 1 132 0 discriminator 2
 716 0068 2368     		ldr	r3, [r4]
 717 006a 9A79     		ldrb	r2, [r3, #6]	@ zero_extendqisi2
 718 006c 2C21     		movs	r1, #44
 719 006e 2046     		mov	r0, r4
 720 0070 FFF7FEFF 		bl	u8x8_gpio_call
 721              	.LVL85:
 133:..\u8g2\csrc/u8x8_byte.c **** 	  u8x8_gpio_Delay(u8x8, U8X8_MSG_DELAY_NANO, u8x8->display_info->sck_pulse_width_ns);
 722              		.loc 1 133 0 discriminator 2
 723 0074 3A46     		mov	r2, r7
 724 0076 4021     		movs	r1, #64
 725 0078 2046     		mov	r0, r4
 726 007a FFF7FEFF 		bl	u8x8_gpio_call
 727              	.LVL86:
 134:..\u8g2\csrc/u8x8_byte.c **** 	}    
 728              		.loc 1 134 0 discriminator 2
 729 007e 2368     		ldr	r3, [r4]
 730 0080 DA79     		ldrb	r2, [r3, #7]	@ zero_extendqisi2
 731 0082 2C21     		movs	r1, #44
 732 0084 2046     		mov	r0, r4
 733 0086 FFF7FEFF 		bl	u8x8_gpio_call
 734              	.LVL87:
 123:..\u8g2\csrc/u8x8_byte.c **** 	{
 735              		.loc 1 123 0 discriminator 2
 736 008a 0135     		adds	r5, r5, #1
 737              	.LVL88:
 738 008c EDB2     		uxtb	r5, r5
 739              	.LVL89:
 740              	.L45:
 123:..\u8g2\csrc/u8x8_byte.c **** 	{
 741              		.loc 1 123 0 is_stmt 0 discriminator 1
 742 008e 072D     		cmp	r5, #7
 743 0090 D5D9     		bls	.L48
 744              	.LVL90:
 745              	.L41:
 118:..\u8g2\csrc/u8x8_byte.c ****       {
 746              		.loc 1 118 0 is_stmt 1
 747 0092 B9F1000F 		cmp	r9, #0
ARM GAS  C:\Users\brian\AppData\Local\Temp\cc2Kbm4j.s 			page 25


 748 0096 CAD1     		bne	.L49
 161:..\u8g2\csrc/u8x8_byte.c **** }
 749              		.loc 1 161 0
 750 0098 0120     		movs	r0, #1
 751 009a BDE8F087 		pop	{r4, r5, r6, r7, r8, r9, r10, pc}
 752              	.LVL91:
 753              	.L39:
 141:..\u8g2\csrc/u8x8_byte.c ****       /* no wait required here */
 754              		.loc 1 141 0
 755 009e 5278     		ldrb	r2, [r2, #1]	@ zero_extendqisi2
 756 00a0 4921     		movs	r1, #73
 757 00a2 FFF7FEFF 		bl	u8x8_gpio_call
 758              	.LVL92:
 145:..\u8g2\csrc/u8x8_byte.c ****       break;
 759              		.loc 1 145 0
 760 00a6 2368     		ldr	r3, [r4]
 761 00a8 1A7B     		ldrb	r2, [r3, #12]	@ zero_extendqisi2
 762 00aa 02F00102 		and	r2, r2, #1
 763 00ae 4021     		movs	r1, #64
 764 00b0 2046     		mov	r0, r4
 765 00b2 FFF7FEFF 		bl	u8x8_gpio_call
 766              	.LVL93:
 161:..\u8g2\csrc/u8x8_byte.c **** }
 767              		.loc 1 161 0
 768 00b6 0120     		movs	r0, #1
 146:..\u8g2\csrc/u8x8_byte.c ****     case U8X8_MSG_BYTE_SET_DC:
 769              		.loc 1 146 0
 770 00b8 BDE8F087 		pop	{r4, r5, r6, r7, r8, r9, r10, pc}
 771              	.LVL94:
 772              	.L44:
 148:..\u8g2\csrc/u8x8_byte.c ****       break;
 773              		.loc 1 148 0
 774 00bc 4A46     		mov	r2, r9
 775 00be 4A21     		movs	r1, #74
 776 00c0 FFF7FEFF 		bl	u8x8_gpio_call
 777              	.LVL95:
 161:..\u8g2\csrc/u8x8_byte.c **** }
 778              		.loc 1 161 0
 779 00c4 0120     		movs	r0, #1
 149:..\u8g2\csrc/u8x8_byte.c ****     case U8X8_MSG_BYTE_START_TRANSFER:
 780              		.loc 1 149 0
 781 00c6 BDE8F087 		pop	{r4, r5, r6, r7, r8, r9, r10, pc}
 782              	.LVL96:
 783              	.L42:
 151:..\u8g2\csrc/u8x8_byte.c ****       u8x8->gpio_and_delay_cb(u8x8, U8X8_MSG_DELAY_NANO, u8x8->display_info->post_chip_enable_wait_
 784              		.loc 1 151 0
 785 00ca 1278     		ldrb	r2, [r2]	@ zero_extendqisi2
 786 00cc 4921     		movs	r1, #73
 787 00ce FFF7FEFF 		bl	u8x8_gpio_call
 788              	.LVL97:
 152:..\u8g2\csrc/u8x8_byte.c ****       break;
 789              		.loc 1 152 0
 790 00d2 6569     		ldr	r5, [r4, #20]
 791 00d4 2268     		ldr	r2, [r4]
 792 00d6 0023     		movs	r3, #0
 793 00d8 9278     		ldrb	r2, [r2, #2]	@ zero_extendqisi2
 794 00da 2C21     		movs	r1, #44
ARM GAS  C:\Users\brian\AppData\Local\Temp\cc2Kbm4j.s 			page 26


 795 00dc 2046     		mov	r0, r4
 796 00de A847     		blx	r5
 797              	.LVL98:
 161:..\u8g2\csrc/u8x8_byte.c **** }
 798              		.loc 1 161 0
 799 00e0 0120     		movs	r0, #1
 153:..\u8g2\csrc/u8x8_byte.c ****     case U8X8_MSG_BYTE_END_TRANSFER:
 800              		.loc 1 153 0
 801 00e2 BDE8F087 		pop	{r4, r5, r6, r7, r8, r9, r10, pc}
 802              	.LVL99:
 803              	.L43:
 155:..\u8g2\csrc/u8x8_byte.c ****       u8x8_gpio_SetCS(u8x8, u8x8->display_info->chip_disable_level);
 804              		.loc 1 155 0
 805 00e6 4569     		ldr	r5, [r0, #20]
 806 00e8 0023     		movs	r3, #0
 807 00ea D278     		ldrb	r2, [r2, #3]	@ zero_extendqisi2
 808 00ec 2C21     		movs	r1, #44
 809 00ee A847     		blx	r5
 810              	.LVL100:
 156:..\u8g2\csrc/u8x8_byte.c ****       break;
 811              		.loc 1 156 0
 812 00f0 2368     		ldr	r3, [r4]
 813 00f2 5A78     		ldrb	r2, [r3, #1]	@ zero_extendqisi2
 814 00f4 4921     		movs	r1, #73
 815 00f6 2046     		mov	r0, r4
 816 00f8 FFF7FEFF 		bl	u8x8_gpio_call
 817              	.LVL101:
 161:..\u8g2\csrc/u8x8_byte.c **** }
 818              		.loc 1 161 0
 819 00fc 0120     		movs	r0, #1
 157:..\u8g2\csrc/u8x8_byte.c ****     default:
 820              		.loc 1 157 0
 821 00fe BDE8F087 		pop	{r4, r5, r6, r7, r8, r9, r10, pc}
 822              	.LVL102:
 823              	.L50:
 159:..\u8g2\csrc/u8x8_byte.c ****   }
 824              		.loc 1 159 0
 825 0102 0020     		movs	r0, #0
 826              	.LVL103:
 162:..\u8g2\csrc/u8x8_byte.c **** 
 827              		.loc 1 162 0
 828 0104 BDE8F087 		pop	{r4, r5, r6, r7, r8, r9, r10, pc}
 829              		.cfi_endproc
 830              	.LFE6:
 831              		.size	u8x8_byte_4wire_sw_spi, .-u8x8_byte_4wire_sw_spi
 832              		.section	.text.u8x8_byte_8bit_6800mode,"ax",%progbits
 833              		.align	2
 834              		.global	u8x8_byte_8bit_6800mode
 835              		.thumb
 836              		.thumb_func
 837              		.type	u8x8_byte_8bit_6800mode, %function
 838              	u8x8_byte_8bit_6800mode:
 839              	.LFB7:
 167:..\u8g2\csrc/u8x8_byte.c ****   uint8_t i, b;
 840              		.loc 1 167 0
 841              		.cfi_startproc
 842              		@ args = 0, pretend = 0, frame = 0
ARM GAS  C:\Users\brian\AppData\Local\Temp\cc2Kbm4j.s 			page 27


 843              		@ frame_needed = 0, uses_anonymous_args = 0
 844              	.LVL104:
 845 0000 2DE9F041 		push	{r4, r5, r6, r7, r8, lr}
 846              		.cfi_def_cfa_offset 24
 847              		.cfi_offset 4, -24
 848              		.cfi_offset 5, -20
 849              		.cfi_offset 6, -16
 850              		.cfi_offset 7, -12
 851              		.cfi_offset 8, -8
 852              		.cfi_offset 14, -4
 853 0004 0646     		mov	r6, r0
 854 0006 1746     		mov	r7, r2
 855 0008 9846     		mov	r8, r3
 171:..\u8g2\csrc/u8x8_byte.c ****   {
 856              		.loc 1 171 0
 857 000a 1439     		subs	r1, r1, #20
 858              	.LVL105:
 859 000c 0C29     		cmp	r1, #12
 860 000e 65D8     		bhi	.L63
 861 0010 DFE801F0 		tbb	[pc, r1]
 862              	.LVL106:
 863              	.L55:
 864 0014 33       		.byte	(.L54-.L55)/2
 865 0015 64       		.byte	(.L63-.L55)/2
 866 0016 64       		.byte	(.L63-.L55)/2
 867 0017 2E       		.byte	(.L56-.L55)/2
 868 0018 46       		.byte	(.L57-.L55)/2
 869 0019 55       		.byte	(.L58-.L55)/2
 870 001a 64       		.byte	(.L63-.L55)/2
 871 001b 64       		.byte	(.L63-.L55)/2
 872 001c 64       		.byte	(.L63-.L55)/2
 873 001d 64       		.byte	(.L63-.L55)/2
 874 001e 64       		.byte	(.L63-.L55)/2
 875 001f 64       		.byte	(.L63-.L55)/2
 876 0020 40       		.byte	(.L59-.L55)/2
 877 0021 00       		.p2align 1
 878              	.L62:
 177:..\u8g2\csrc/u8x8_byte.c **** 	data++;
 879              		.loc 1 177 0
 880 0022 18F8015B 		ldrb	r5, [r8], #1	@ zero_extendqisi2
 881              	.LVL107:
 179:..\u8g2\csrc/u8x8_byte.c **** 	for( i = U8X8_MSG_GPIO_D0; i <= U8X8_MSG_GPIO_D7; i++ )
 882              		.loc 1 179 0
 883 0026 013F     		subs	r7, r7, #1
 884              	.LVL108:
 885 0028 FFB2     		uxtb	r7, r7
 886              	.LVL109:
 180:..\u8g2\csrc/u8x8_byte.c **** 	{
 887              		.loc 1 180 0
 888 002a 4024     		movs	r4, #64
 889 002c 08E0     		b	.L60
 890              	.LVL110:
 891              	.L61:
 182:..\u8g2\csrc/u8x8_byte.c **** 	  b >>= 1;
 892              		.loc 1 182 0 discriminator 3
 893 002e 05F00102 		and	r2, r5, #1
 894 0032 2146     		mov	r1, r4
ARM GAS  C:\Users\brian\AppData\Local\Temp\cc2Kbm4j.s 			page 28


 895 0034 3046     		mov	r0, r6
 896 0036 FFF7FEFF 		bl	u8x8_gpio_call
 897              	.LVL111:
 183:..\u8g2\csrc/u8x8_byte.c **** 	}    
 898              		.loc 1 183 0 discriminator 3
 899 003a 6D08     		lsrs	r5, r5, #1
 900              	.LVL112:
 180:..\u8g2\csrc/u8x8_byte.c **** 	{
 901              		.loc 1 180 0 discriminator 3
 902 003c 0134     		adds	r4, r4, #1
 903              	.LVL113:
 904 003e E4B2     		uxtb	r4, r4
 905              	.LVL114:
 906              	.L60:
 180:..\u8g2\csrc/u8x8_byte.c **** 	{
 907              		.loc 1 180 0 is_stmt 0 discriminator 1
 908 0040 472C     		cmp	r4, #71
 909 0042 F4D9     		bls	.L61
 186:..\u8g2\csrc/u8x8_byte.c **** 	u8x8_gpio_call(u8x8, U8X8_MSG_GPIO_E, 1);
 910              		.loc 1 186 0 is_stmt 1
 911 0044 3368     		ldr	r3, [r6]
 912 0046 9A7B     		ldrb	r2, [r3, #14]	@ zero_extendqisi2
 913 0048 2C21     		movs	r1, #44
 914 004a 3046     		mov	r0, r6
 915 004c FFF7FEFF 		bl	u8x8_gpio_call
 916              	.LVL115:
 187:..\u8g2\csrc/u8x8_byte.c **** 	u8x8_gpio_Delay(u8x8, U8X8_MSG_DELAY_NANO, u8x8->display_info->write_pulse_width_ns);
 917              		.loc 1 187 0
 918 0050 0122     		movs	r2, #1
 919 0052 4821     		movs	r1, #72
 920 0054 3046     		mov	r0, r6
 921 0056 FFF7FEFF 		bl	u8x8_gpio_call
 922              	.LVL116:
 188:..\u8g2\csrc/u8x8_byte.c **** 	u8x8_gpio_call(u8x8, U8X8_MSG_GPIO_E, 0);
 923              		.loc 1 188 0
 924 005a 3368     		ldr	r3, [r6]
 925 005c DA7B     		ldrb	r2, [r3, #15]	@ zero_extendqisi2
 926 005e 2C21     		movs	r1, #44
 927 0060 3046     		mov	r0, r6
 928 0062 FFF7FEFF 		bl	u8x8_gpio_call
 929              	.LVL117:
 189:..\u8g2\csrc/u8x8_byte.c ****       }
 930              		.loc 1 189 0
 931 0066 0022     		movs	r2, #0
 932 0068 4821     		movs	r1, #72
 933 006a 3046     		mov	r0, r6
 934 006c FFF7FEFF 		bl	u8x8_gpio_call
 935              	.LVL118:
 936              	.L56:
 175:..\u8g2\csrc/u8x8_byte.c ****       {
 937              		.loc 1 175 0
 938 0070 002F     		cmp	r7, #0
 939 0072 D6D1     		bne	.L62
 213:..\u8g2\csrc/u8x8_byte.c **** }
 940              		.loc 1 213 0
 941 0074 0120     		movs	r0, #1
 942 0076 BDE8F081 		pop	{r4, r5, r6, r7, r8, pc}
ARM GAS  C:\Users\brian\AppData\Local\Temp\cc2Kbm4j.s 			page 29


 943              	.LVL119:
 944              	.L54:
 195:..\u8g2\csrc/u8x8_byte.c ****       /* ensure that the enable signal is high */
 945              		.loc 1 195 0
 946 007a 0368     		ldr	r3, [r0]
 947 007c 5A78     		ldrb	r2, [r3, #1]	@ zero_extendqisi2
 948              	.LVL120:
 949 007e 4921     		movs	r1, #73
 950 0080 FFF7FEFF 		bl	u8x8_gpio_call
 951              	.LVL121:
 197:..\u8g2\csrc/u8x8_byte.c ****       break;
 952              		.loc 1 197 0
 953 0084 0022     		movs	r2, #0
 954 0086 4821     		movs	r1, #72
 955 0088 3046     		mov	r0, r6
 956 008a FFF7FEFF 		bl	u8x8_gpio_call
 957              	.LVL122:
 213:..\u8g2\csrc/u8x8_byte.c **** }
 958              		.loc 1 213 0
 959 008e 0120     		movs	r0, #1
 198:..\u8g2\csrc/u8x8_byte.c ****     case U8X8_MSG_BYTE_SET_DC:
 960              		.loc 1 198 0
 961 0090 BDE8F081 		pop	{r4, r5, r6, r7, r8, pc}
 962              	.LVL123:
 963              	.L59:
 200:..\u8g2\csrc/u8x8_byte.c ****       break;
 964              		.loc 1 200 0
 965 0094 4A21     		movs	r1, #74
 966 0096 FFF7FEFF 		bl	u8x8_gpio_call
 967              	.LVL124:
 213:..\u8g2\csrc/u8x8_byte.c **** }
 968              		.loc 1 213 0
 969 009a 0120     		movs	r0, #1
 201:..\u8g2\csrc/u8x8_byte.c ****     case U8X8_MSG_BYTE_START_TRANSFER:
 970              		.loc 1 201 0
 971 009c BDE8F081 		pop	{r4, r5, r6, r7, r8, pc}
 972              	.LVL125:
 973              	.L57:
 203:..\u8g2\csrc/u8x8_byte.c ****       u8x8->gpio_and_delay_cb(u8x8, U8X8_MSG_DELAY_NANO, u8x8->display_info->post_chip_enable_wait_
 974              		.loc 1 203 0
 975 00a0 0368     		ldr	r3, [r0]
 976 00a2 1A78     		ldrb	r2, [r3]	@ zero_extendqisi2
 977              	.LVL126:
 978 00a4 4921     		movs	r1, #73
 979 00a6 FFF7FEFF 		bl	u8x8_gpio_call
 980              	.LVL127:
 204:..\u8g2\csrc/u8x8_byte.c ****       break;
 981              		.loc 1 204 0
 982 00aa 7469     		ldr	r4, [r6, #20]
 983 00ac 3268     		ldr	r2, [r6]
 984 00ae 0023     		movs	r3, #0
 985 00b0 9278     		ldrb	r2, [r2, #2]	@ zero_extendqisi2
 986 00b2 2C21     		movs	r1, #44
 987 00b4 3046     		mov	r0, r6
 988 00b6 A047     		blx	r4
 989              	.LVL128:
 213:..\u8g2\csrc/u8x8_byte.c **** }
ARM GAS  C:\Users\brian\AppData\Local\Temp\cc2Kbm4j.s 			page 30


 990              		.loc 1 213 0
 991 00b8 0120     		movs	r0, #1
 205:..\u8g2\csrc/u8x8_byte.c ****     case U8X8_MSG_BYTE_END_TRANSFER:
 992              		.loc 1 205 0
 993 00ba BDE8F081 		pop	{r4, r5, r6, r7, r8, pc}
 994              	.LVL129:
 995              	.L58:
 207:..\u8g2\csrc/u8x8_byte.c ****       u8x8_gpio_SetCS(u8x8, u8x8->display_info->chip_disable_level);
 996              		.loc 1 207 0
 997 00be 4469     		ldr	r4, [r0, #20]
 998 00c0 0268     		ldr	r2, [r0]
 999              	.LVL130:
 1000 00c2 0023     		movs	r3, #0
 1001 00c4 D278     		ldrb	r2, [r2, #3]	@ zero_extendqisi2
 1002 00c6 2C21     		movs	r1, #44
 1003 00c8 A047     		blx	r4
 1004              	.LVL131:
 208:..\u8g2\csrc/u8x8_byte.c ****       break;
 1005              		.loc 1 208 0
 1006 00ca 3368     		ldr	r3, [r6]
 1007 00cc 5A78     		ldrb	r2, [r3, #1]	@ zero_extendqisi2
 1008 00ce 4921     		movs	r1, #73
 1009 00d0 3046     		mov	r0, r6
 1010 00d2 FFF7FEFF 		bl	u8x8_gpio_call
 1011              	.LVL132:
 213:..\u8g2\csrc/u8x8_byte.c **** }
 1012              		.loc 1 213 0
 1013 00d6 0120     		movs	r0, #1
 209:..\u8g2\csrc/u8x8_byte.c ****     default:
 1014              		.loc 1 209 0
 1015 00d8 BDE8F081 		pop	{r4, r5, r6, r7, r8, pc}
 1016              	.LVL133:
 1017              	.L63:
 211:..\u8g2\csrc/u8x8_byte.c ****   }
 1018              		.loc 1 211 0
 1019 00dc 0020     		movs	r0, #0
 1020              	.LVL134:
 214:..\u8g2\csrc/u8x8_byte.c **** 
 1021              		.loc 1 214 0
 1022 00de BDE8F081 		pop	{r4, r5, r6, r7, r8, pc}
 1023              		.cfi_endproc
 1024              	.LFE7:
 1025              		.size	u8x8_byte_8bit_6800mode, .-u8x8_byte_8bit_6800mode
 1026 00e2 00BF     		.section	.text.u8x8_byte_8bit_8080mode,"ax",%progbits
 1027              		.align	2
 1028              		.global	u8x8_byte_8bit_8080mode
 1029              		.thumb
 1030              		.thumb_func
 1031              		.type	u8x8_byte_8bit_8080mode, %function
 1032              	u8x8_byte_8bit_8080mode:
 1033              	.LFB8:
 217:..\u8g2\csrc/u8x8_byte.c ****   uint8_t i, b;
 1034              		.loc 1 217 0
 1035              		.cfi_startproc
 1036              		@ args = 0, pretend = 0, frame = 0
 1037              		@ frame_needed = 0, uses_anonymous_args = 0
 1038              	.LVL135:
ARM GAS  C:\Users\brian\AppData\Local\Temp\cc2Kbm4j.s 			page 31


 1039 0000 2DE9F041 		push	{r4, r5, r6, r7, r8, lr}
 1040              		.cfi_def_cfa_offset 24
 1041              		.cfi_offset 4, -24
 1042              		.cfi_offset 5, -20
 1043              		.cfi_offset 6, -16
 1044              		.cfi_offset 7, -12
 1045              		.cfi_offset 8, -8
 1046              		.cfi_offset 14, -4
 1047 0004 0646     		mov	r6, r0
 1048 0006 1746     		mov	r7, r2
 1049 0008 9846     		mov	r8, r3
 221:..\u8g2\csrc/u8x8_byte.c ****   {
 1050              		.loc 1 221 0
 1051 000a 1439     		subs	r1, r1, #20
 1052              	.LVL136:
 1053 000c 0C29     		cmp	r1, #12
 1054 000e 65D8     		bhi	.L76
 1055 0010 DFE801F0 		tbb	[pc, r1]
 1056              	.LVL137:
 1057              	.L68:
 1058 0014 33       		.byte	(.L67-.L68)/2
 1059 0015 64       		.byte	(.L76-.L68)/2
 1060 0016 64       		.byte	(.L76-.L68)/2
 1061 0017 2E       		.byte	(.L69-.L68)/2
 1062 0018 46       		.byte	(.L70-.L68)/2
 1063 0019 55       		.byte	(.L71-.L68)/2
 1064 001a 64       		.byte	(.L76-.L68)/2
 1065 001b 64       		.byte	(.L76-.L68)/2
 1066 001c 64       		.byte	(.L76-.L68)/2
 1067 001d 64       		.byte	(.L76-.L68)/2
 1068 001e 64       		.byte	(.L76-.L68)/2
 1069 001f 64       		.byte	(.L76-.L68)/2
 1070 0020 40       		.byte	(.L72-.L68)/2
 1071 0021 00       		.p2align 1
 1072              	.L75:
 227:..\u8g2\csrc/u8x8_byte.c **** 	data++;
 1073              		.loc 1 227 0
 1074 0022 18F8015B 		ldrb	r5, [r8], #1	@ zero_extendqisi2
 1075              	.LVL138:
 229:..\u8g2\csrc/u8x8_byte.c **** 	for( i = U8X8_MSG_GPIO_D0; i <= U8X8_MSG_GPIO_D7; i++ )
 1076              		.loc 1 229 0
 1077 0026 013F     		subs	r7, r7, #1
 1078              	.LVL139:
 1079 0028 FFB2     		uxtb	r7, r7
 1080              	.LVL140:
 230:..\u8g2\csrc/u8x8_byte.c **** 	{
 1081              		.loc 1 230 0
 1082 002a 4024     		movs	r4, #64
 1083 002c 08E0     		b	.L73
 1084              	.LVL141:
 1085              	.L74:
 232:..\u8g2\csrc/u8x8_byte.c **** 	  b >>= 1;
 1086              		.loc 1 232 0 discriminator 3
 1087 002e 05F00102 		and	r2, r5, #1
 1088 0032 2146     		mov	r1, r4
 1089 0034 3046     		mov	r0, r6
 1090 0036 FFF7FEFF 		bl	u8x8_gpio_call
ARM GAS  C:\Users\brian\AppData\Local\Temp\cc2Kbm4j.s 			page 32


 1091              	.LVL142:
 233:..\u8g2\csrc/u8x8_byte.c **** 	}    
 1092              		.loc 1 233 0 discriminator 3
 1093 003a 6D08     		lsrs	r5, r5, #1
 1094              	.LVL143:
 230:..\u8g2\csrc/u8x8_byte.c **** 	{
 1095              		.loc 1 230 0 discriminator 3
 1096 003c 0134     		adds	r4, r4, #1
 1097              	.LVL144:
 1098 003e E4B2     		uxtb	r4, r4
 1099              	.LVL145:
 1100              	.L73:
 230:..\u8g2\csrc/u8x8_byte.c **** 	{
 1101              		.loc 1 230 0 is_stmt 0 discriminator 1
 1102 0040 472C     		cmp	r4, #71
 1103 0042 F4D9     		bls	.L74
 236:..\u8g2\csrc/u8x8_byte.c **** 	u8x8_gpio_call(u8x8, U8X8_MSG_GPIO_E, 0);
 1104              		.loc 1 236 0 is_stmt 1
 1105 0044 3368     		ldr	r3, [r6]
 1106 0046 9A7B     		ldrb	r2, [r3, #14]	@ zero_extendqisi2
 1107 0048 2C21     		movs	r1, #44
 1108 004a 3046     		mov	r0, r6
 1109 004c FFF7FEFF 		bl	u8x8_gpio_call
 1110              	.LVL146:
 237:..\u8g2\csrc/u8x8_byte.c **** 	u8x8_gpio_Delay(u8x8, U8X8_MSG_DELAY_NANO, u8x8->display_info->write_pulse_width_ns);
 1111              		.loc 1 237 0
 1112 0050 0022     		movs	r2, #0
 1113 0052 4821     		movs	r1, #72
 1114 0054 3046     		mov	r0, r6
 1115 0056 FFF7FEFF 		bl	u8x8_gpio_call
 1116              	.LVL147:
 238:..\u8g2\csrc/u8x8_byte.c **** 	u8x8_gpio_call(u8x8, U8X8_MSG_GPIO_E, 1);
 1117              		.loc 1 238 0
 1118 005a 3368     		ldr	r3, [r6]
 1119 005c DA7B     		ldrb	r2, [r3, #15]	@ zero_extendqisi2
 1120 005e 2C21     		movs	r1, #44
 1121 0060 3046     		mov	r0, r6
 1122 0062 FFF7FEFF 		bl	u8x8_gpio_call
 1123              	.LVL148:
 239:..\u8g2\csrc/u8x8_byte.c ****       }
 1124              		.loc 1 239 0
 1125 0066 0122     		movs	r2, #1
 1126 0068 4821     		movs	r1, #72
 1127 006a 3046     		mov	r0, r6
 1128 006c FFF7FEFF 		bl	u8x8_gpio_call
 1129              	.LVL149:
 1130              	.L69:
 225:..\u8g2\csrc/u8x8_byte.c ****       {
 1131              		.loc 1 225 0
 1132 0070 002F     		cmp	r7, #0
 1133 0072 D6D1     		bne	.L75
 263:..\u8g2\csrc/u8x8_byte.c **** }
 1134              		.loc 1 263 0
 1135 0074 0120     		movs	r0, #1
 1136 0076 BDE8F081 		pop	{r4, r5, r6, r7, r8, pc}
 1137              	.LVL150:
 1138              	.L67:
ARM GAS  C:\Users\brian\AppData\Local\Temp\cc2Kbm4j.s 			page 33


 245:..\u8g2\csrc/u8x8_byte.c ****       /* ensure that the enable signal is high */
 1139              		.loc 1 245 0
 1140 007a 0368     		ldr	r3, [r0]
 1141 007c 5A78     		ldrb	r2, [r3, #1]	@ zero_extendqisi2
 1142              	.LVL151:
 1143 007e 4921     		movs	r1, #73
 1144 0080 FFF7FEFF 		bl	u8x8_gpio_call
 1145              	.LVL152:
 247:..\u8g2\csrc/u8x8_byte.c ****       break;
 1146              		.loc 1 247 0
 1147 0084 0122     		movs	r2, #1
 1148 0086 4821     		movs	r1, #72
 1149 0088 3046     		mov	r0, r6
 1150 008a FFF7FEFF 		bl	u8x8_gpio_call
 1151              	.LVL153:
 263:..\u8g2\csrc/u8x8_byte.c **** }
 1152              		.loc 1 263 0
 1153 008e 0120     		movs	r0, #1
 248:..\u8g2\csrc/u8x8_byte.c ****     case U8X8_MSG_BYTE_SET_DC:
 1154              		.loc 1 248 0
 1155 0090 BDE8F081 		pop	{r4, r5, r6, r7, r8, pc}
 1156              	.LVL154:
 1157              	.L72:
 250:..\u8g2\csrc/u8x8_byte.c ****       break;
 1158              		.loc 1 250 0
 1159 0094 4A21     		movs	r1, #74
 1160 0096 FFF7FEFF 		bl	u8x8_gpio_call
 1161              	.LVL155:
 263:..\u8g2\csrc/u8x8_byte.c **** }
 1162              		.loc 1 263 0
 1163 009a 0120     		movs	r0, #1
 251:..\u8g2\csrc/u8x8_byte.c ****     case U8X8_MSG_BYTE_START_TRANSFER:
 1164              		.loc 1 251 0
 1165 009c BDE8F081 		pop	{r4, r5, r6, r7, r8, pc}
 1166              	.LVL156:
 1167              	.L70:
 253:..\u8g2\csrc/u8x8_byte.c ****       u8x8->gpio_and_delay_cb(u8x8, U8X8_MSG_DELAY_NANO, u8x8->display_info->post_chip_enable_wait_
 1168              		.loc 1 253 0
 1169 00a0 0368     		ldr	r3, [r0]
 1170 00a2 1A78     		ldrb	r2, [r3]	@ zero_extendqisi2
 1171              	.LVL157:
 1172 00a4 4921     		movs	r1, #73
 1173 00a6 FFF7FEFF 		bl	u8x8_gpio_call
 1174              	.LVL158:
 254:..\u8g2\csrc/u8x8_byte.c ****       break;
 1175              		.loc 1 254 0
 1176 00aa 7469     		ldr	r4, [r6, #20]
 1177 00ac 3268     		ldr	r2, [r6]
 1178 00ae 0023     		movs	r3, #0
 1179 00b0 9278     		ldrb	r2, [r2, #2]	@ zero_extendqisi2
 1180 00b2 2C21     		movs	r1, #44
 1181 00b4 3046     		mov	r0, r6
 1182 00b6 A047     		blx	r4
 1183              	.LVL159:
 263:..\u8g2\csrc/u8x8_byte.c **** }
 1184              		.loc 1 263 0
 1185 00b8 0120     		movs	r0, #1
ARM GAS  C:\Users\brian\AppData\Local\Temp\cc2Kbm4j.s 			page 34


 255:..\u8g2\csrc/u8x8_byte.c ****     case U8X8_MSG_BYTE_END_TRANSFER:
 1186              		.loc 1 255 0
 1187 00ba BDE8F081 		pop	{r4, r5, r6, r7, r8, pc}
 1188              	.LVL160:
 1189              	.L71:
 257:..\u8g2\csrc/u8x8_byte.c ****       u8x8_gpio_SetCS(u8x8, u8x8->display_info->chip_disable_level);
 1190              		.loc 1 257 0
 1191 00be 4469     		ldr	r4, [r0, #20]
 1192 00c0 0268     		ldr	r2, [r0]
 1193              	.LVL161:
 1194 00c2 0023     		movs	r3, #0
 1195 00c4 D278     		ldrb	r2, [r2, #3]	@ zero_extendqisi2
 1196 00c6 2C21     		movs	r1, #44
 1197 00c8 A047     		blx	r4
 1198              	.LVL162:
 258:..\u8g2\csrc/u8x8_byte.c ****       break;
 1199              		.loc 1 258 0
 1200 00ca 3368     		ldr	r3, [r6]
 1201 00cc 5A78     		ldrb	r2, [r3, #1]	@ zero_extendqisi2
 1202 00ce 4921     		movs	r1, #73
 1203 00d0 3046     		mov	r0, r6
 1204 00d2 FFF7FEFF 		bl	u8x8_gpio_call
 1205              	.LVL163:
 263:..\u8g2\csrc/u8x8_byte.c **** }
 1206              		.loc 1 263 0
 1207 00d6 0120     		movs	r0, #1
 259:..\u8g2\csrc/u8x8_byte.c ****     default:
 1208              		.loc 1 259 0
 1209 00d8 BDE8F081 		pop	{r4, r5, r6, r7, r8, pc}
 1210              	.LVL164:
 1211              	.L76:
 261:..\u8g2\csrc/u8x8_byte.c ****   }
 1212              		.loc 1 261 0
 1213 00dc 0020     		movs	r0, #0
 1214              	.LVL165:
 264:..\u8g2\csrc/u8x8_byte.c **** 
 1215              		.loc 1 264 0
 1216 00de BDE8F081 		pop	{r4, r5, r6, r7, r8, pc}
 1217              		.cfi_endproc
 1218              	.LFE8:
 1219              		.size	u8x8_byte_8bit_8080mode, .-u8x8_byte_8bit_8080mode
 1220 00e2 00BF     		.section	.text.u8x8_byte_3wire_sw_spi,"ax",%progbits
 1221              		.align	2
 1222              		.global	u8x8_byte_3wire_sw_spi
 1223              		.thumb
 1224              		.thumb_func
 1225              		.type	u8x8_byte_3wire_sw_spi, %function
 1226              	u8x8_byte_3wire_sw_spi:
 1227              	.LFB9:
 269:..\u8g2\csrc/u8x8_byte.c ****   uint8_t i;
 1228              		.loc 1 269 0
 1229              		.cfi_startproc
 1230              		@ args = 0, pretend = 0, frame = 0
 1231              		@ frame_needed = 0, uses_anonymous_args = 0
 1232              	.LVL166:
 1233 0000 2DE9F047 		push	{r4, r5, r6, r7, r8, r9, r10, lr}
 1234              		.cfi_def_cfa_offset 32
ARM GAS  C:\Users\brian\AppData\Local\Temp\cc2Kbm4j.s 			page 35


 1235              		.cfi_offset 4, -32
 1236              		.cfi_offset 5, -28
 1237              		.cfi_offset 6, -24
 1238              		.cfi_offset 7, -20
 1239              		.cfi_offset 8, -16
 1240              		.cfi_offset 9, -12
 1241              		.cfi_offset 10, -8
 1242              		.cfi_offset 14, -4
 1243 0004 0446     		mov	r4, r0
 1244 0006 9146     		mov	r9, r2
 1245 0008 9A46     		mov	r10, r3
 272:..\u8g2\csrc/u8x8_byte.c ****   uint8_t not_takeover_edge = 1 - takeover_edge;
 1246              		.loc 1 272 0
 1247 000a 0268     		ldr	r2, [r0]
 1248              	.LVL167:
 1249 000c 177B     		ldrb	r7, [r2, #12]	@ zero_extendqisi2
 1250 000e 07F00107 		and	r7, r7, #1
 1251              	.LVL168:
 273:..\u8g2\csrc/u8x8_byte.c ****   uint16_t b;
 1252              		.loc 1 273 0
 1253 0012 87F00108 		eor	r8, r7, #1
 1254              	.LVL169:
 277:..\u8g2\csrc/u8x8_byte.c ****   {
 1255              		.loc 1 277 0
 1256 0016 1439     		subs	r1, r1, #20
 1257              	.LVL170:
 1258 0018 0C29     		cmp	r1, #12
 1259 001a 79D8     		bhi	.L92
 1260 001c DFE801F0 		tbb	[pc, r1]
 1261              	.LVL171:
 1262              	.L81:
 1263 0020 47       		.byte	(.L80-.L81)/2
 1264 0021 78       		.byte	(.L92-.L81)/2
 1265 0022 78       		.byte	(.L92-.L81)/2
 1266 0023 41       		.byte	(.L82-.L81)/2
 1267 0024 5C       		.byte	(.L83-.L81)/2
 1268 0025 6A       		.byte	(.L84-.L81)/2
 1269 0026 78       		.byte	(.L92-.L81)/2
 1270 0027 78       		.byte	(.L92-.L81)/2
 1271 0028 78       		.byte	(.L92-.L81)/2
 1272 0029 78       		.byte	(.L92-.L81)/2
 1273 002a 78       		.byte	(.L92-.L81)/2
 1274 002b 78       		.byte	(.L92-.L81)/2
 1275 002c 56       		.byte	(.L85-.L81)/2
 1276 002d 00       		.p2align 1
 1277              	.L91:
 283:..\u8g2\csrc/u8x8_byte.c **** 	if ( last_dc != 0 )
 1278              		.loc 1 283 0
 1279 002e 9AF80060 		ldrb	r6, [r10]	@ zero_extendqisi2
 1280              	.LVL172:
 284:..\u8g2\csrc/u8x8_byte.c **** 	  b |= 256;
 1281              		.loc 1 284 0
 1282 0032 394B     		ldr	r3, .L94
 1283 0034 1B78     		ldrb	r3, [r3]	@ zero_extendqisi2
 1284 0036 0BB1     		cbz	r3, .L86
 285:..\u8g2\csrc/u8x8_byte.c **** 	data++;
 1285              		.loc 1 285 0
ARM GAS  C:\Users\brian\AppData\Local\Temp\cc2Kbm4j.s 			page 36


 1286 0038 46F48076 		orr	r6, r6, #256
 1287              	.LVL173:
 1288              	.L86:
 286:..\u8g2\csrc/u8x8_byte.c **** 	arg_int--;
 1289              		.loc 1 286 0
 1290 003c 0AF1010A 		add	r10, r10, #1
 1291              	.LVL174:
 287:..\u8g2\csrc/u8x8_byte.c **** 	for( i = 0; i < 9; i++ )
 1292              		.loc 1 287 0
 1293 0040 09F1FF39 		add	r9, r9, #-1
 1294              	.LVL175:
 1295 0044 5FFA89F9 		uxtb	r9, r9
 1296              	.LVL176:
 288:..\u8g2\csrc/u8x8_byte.c **** 	{
 1297              		.loc 1 288 0
 1298 0048 0025     		movs	r5, #0
 1299 004a 28E0     		b	.L87
 1300              	.LVL177:
 1301              	.L90:
 290:..\u8g2\csrc/u8x8_byte.c **** 	    u8x8_gpio_SetSPIData(u8x8, 1);
 1302              		.loc 1 290 0
 1303 004c 06F48073 		and	r3, r6, #256
 1304 0050 9BB2     		uxth	r3, r3
 1305 0052 2BB1     		cbz	r3, .L88
 291:..\u8g2\csrc/u8x8_byte.c **** 	  else
 1306              		.loc 1 291 0
 1307 0054 0122     		movs	r2, #1
 1308 0056 4121     		movs	r1, #65
 1309 0058 2046     		mov	r0, r4
 1310 005a FFF7FEFF 		bl	u8x8_gpio_call
 1311              	.LVL178:
 1312 005e 04E0     		b	.L89
 1313              	.L88:
 293:..\u8g2\csrc/u8x8_byte.c **** 	  b <<= 1;
 1314              		.loc 1 293 0
 1315 0060 0022     		movs	r2, #0
 1316 0062 4121     		movs	r1, #65
 1317 0064 2046     		mov	r0, r4
 1318 0066 FFF7FEFF 		bl	u8x8_gpio_call
 1319              	.LVL179:
 1320              	.L89:
 294:..\u8g2\csrc/u8x8_byte.c **** 	  
 1321              		.loc 1 294 0 discriminator 2
 1322 006a 7600     		lsls	r6, r6, #1
 1323              	.LVL180:
 1324 006c B6B2     		uxth	r6, r6
 1325              	.LVL181:
 296:..\u8g2\csrc/u8x8_byte.c **** 	  u8x8_gpio_Delay(u8x8, U8X8_MSG_DELAY_NANO, u8x8->display_info->sda_setup_time_ns);
 1326              		.loc 1 296 0 discriminator 2
 1327 006e 4246     		mov	r2, r8
 1328 0070 4021     		movs	r1, #64
 1329 0072 2046     		mov	r0, r4
 1330 0074 FFF7FEFF 		bl	u8x8_gpio_call
 1331              	.LVL182:
 297:..\u8g2\csrc/u8x8_byte.c **** 	  u8x8_gpio_SetSPIClock(u8x8, takeover_edge);
 1332              		.loc 1 297 0 discriminator 2
 1333 0078 2368     		ldr	r3, [r4]
ARM GAS  C:\Users\brian\AppData\Local\Temp\cc2Kbm4j.s 			page 37


 1334 007a 9A79     		ldrb	r2, [r3, #6]	@ zero_extendqisi2
 1335 007c 2C21     		movs	r1, #44
 1336 007e 2046     		mov	r0, r4
 1337 0080 FFF7FEFF 		bl	u8x8_gpio_call
 1338              	.LVL183:
 298:..\u8g2\csrc/u8x8_byte.c **** 	  u8x8_gpio_Delay(u8x8, U8X8_MSG_DELAY_NANO, u8x8->display_info->sck_pulse_width_ns);
 1339              		.loc 1 298 0 discriminator 2
 1340 0084 3A46     		mov	r2, r7
 1341 0086 4021     		movs	r1, #64
 1342 0088 2046     		mov	r0, r4
 1343 008a FFF7FEFF 		bl	u8x8_gpio_call
 1344              	.LVL184:
 299:..\u8g2\csrc/u8x8_byte.c **** 	}    
 1345              		.loc 1 299 0 discriminator 2
 1346 008e 2368     		ldr	r3, [r4]
 1347 0090 DA79     		ldrb	r2, [r3, #7]	@ zero_extendqisi2
 1348 0092 2C21     		movs	r1, #44
 1349 0094 2046     		mov	r0, r4
 1350 0096 FFF7FEFF 		bl	u8x8_gpio_call
 1351              	.LVL185:
 288:..\u8g2\csrc/u8x8_byte.c **** 	{
 1352              		.loc 1 288 0 discriminator 2
 1353 009a 0135     		adds	r5, r5, #1
 1354              	.LVL186:
 1355 009c EDB2     		uxtb	r5, r5
 1356              	.LVL187:
 1357              	.L87:
 288:..\u8g2\csrc/u8x8_byte.c **** 	{
 1358              		.loc 1 288 0 is_stmt 0 discriminator 1
 1359 009e 082D     		cmp	r5, #8
 1360 00a0 D4D9     		bls	.L90
 1361              	.LVL188:
 1362              	.L82:
 281:..\u8g2\csrc/u8x8_byte.c ****       {
 1363              		.loc 1 281 0 is_stmt 1
 1364 00a2 B9F1000F 		cmp	r9, #0
 1365 00a6 C2D1     		bne	.L91
 326:..\u8g2\csrc/u8x8_byte.c **** }
 1366              		.loc 1 326 0
 1367 00a8 0120     		movs	r0, #1
 1368 00aa BDE8F087 		pop	{r4, r5, r6, r7, r8, r9, r10, pc}
 1369              	.LVL189:
 1370              	.L80:
 306:..\u8g2\csrc/u8x8_byte.c ****       /* no wait required here */
 1371              		.loc 1 306 0
 1372 00ae 5278     		ldrb	r2, [r2, #1]	@ zero_extendqisi2
 1373 00b0 4921     		movs	r1, #73
 1374 00b2 FFF7FEFF 		bl	u8x8_gpio_call
 1375              	.LVL190:
 310:..\u8g2\csrc/u8x8_byte.c ****       break;
 1376              		.loc 1 310 0
 1377 00b6 2368     		ldr	r3, [r4]
 1378 00b8 1A7B     		ldrb	r2, [r3, #12]	@ zero_extendqisi2
 1379 00ba 02F00102 		and	r2, r2, #1
 1380 00be 4021     		movs	r1, #64
 1381 00c0 2046     		mov	r0, r4
 1382 00c2 FFF7FEFF 		bl	u8x8_gpio_call
ARM GAS  C:\Users\brian\AppData\Local\Temp\cc2Kbm4j.s 			page 38


 1383              	.LVL191:
 326:..\u8g2\csrc/u8x8_byte.c **** }
 1384              		.loc 1 326 0
 1385 00c6 0120     		movs	r0, #1
 311:..\u8g2\csrc/u8x8_byte.c ****     case U8X8_MSG_BYTE_SET_DC:
 1386              		.loc 1 311 0
 1387 00c8 BDE8F087 		pop	{r4, r5, r6, r7, r8, r9, r10, pc}
 1388              	.LVL192:
 1389              	.L85:
 313:..\u8g2\csrc/u8x8_byte.c ****       break;
 1390              		.loc 1 313 0
 1391 00cc 124B     		ldr	r3, .L94
 1392 00ce 83F80090 		strb	r9, [r3]
 326:..\u8g2\csrc/u8x8_byte.c **** }
 1393              		.loc 1 326 0
 1394 00d2 0120     		movs	r0, #1
 1395              	.LVL193:
 314:..\u8g2\csrc/u8x8_byte.c ****     case U8X8_MSG_BYTE_START_TRANSFER:
 1396              		.loc 1 314 0
 1397 00d4 BDE8F087 		pop	{r4, r5, r6, r7, r8, r9, r10, pc}
 1398              	.LVL194:
 1399              	.L83:
 316:..\u8g2\csrc/u8x8_byte.c ****       u8x8->gpio_and_delay_cb(u8x8, U8X8_MSG_DELAY_NANO, u8x8->display_info->post_chip_enable_wait_
 1400              		.loc 1 316 0
 1401 00d8 1278     		ldrb	r2, [r2]	@ zero_extendqisi2
 1402 00da 4921     		movs	r1, #73
 1403 00dc FFF7FEFF 		bl	u8x8_gpio_call
 1404              	.LVL195:
 317:..\u8g2\csrc/u8x8_byte.c ****       break;
 1405              		.loc 1 317 0
 1406 00e0 6569     		ldr	r5, [r4, #20]
 1407 00e2 2268     		ldr	r2, [r4]
 1408 00e4 0023     		movs	r3, #0
 1409 00e6 9278     		ldrb	r2, [r2, #2]	@ zero_extendqisi2
 1410 00e8 2C21     		movs	r1, #44
 1411 00ea 2046     		mov	r0, r4
 1412 00ec A847     		blx	r5
 1413              	.LVL196:
 326:..\u8g2\csrc/u8x8_byte.c **** }
 1414              		.loc 1 326 0
 1415 00ee 0120     		movs	r0, #1
 318:..\u8g2\csrc/u8x8_byte.c ****     case U8X8_MSG_BYTE_END_TRANSFER:
 1416              		.loc 1 318 0
 1417 00f0 BDE8F087 		pop	{r4, r5, r6, r7, r8, r9, r10, pc}
 1418              	.LVL197:
 1419              	.L84:
 320:..\u8g2\csrc/u8x8_byte.c ****       u8x8_gpio_SetCS(u8x8, u8x8->display_info->chip_disable_level);
 1420              		.loc 1 320 0
 1421 00f4 4569     		ldr	r5, [r0, #20]
 1422 00f6 0023     		movs	r3, #0
 1423 00f8 D278     		ldrb	r2, [r2, #3]	@ zero_extendqisi2
 1424 00fa 2C21     		movs	r1, #44
 1425 00fc A847     		blx	r5
 1426              	.LVL198:
 321:..\u8g2\csrc/u8x8_byte.c ****       break;
 1427              		.loc 1 321 0
 1428 00fe 2368     		ldr	r3, [r4]
ARM GAS  C:\Users\brian\AppData\Local\Temp\cc2Kbm4j.s 			page 39


 1429 0100 5A78     		ldrb	r2, [r3, #1]	@ zero_extendqisi2
 1430 0102 4921     		movs	r1, #73
 1431 0104 2046     		mov	r0, r4
 1432 0106 FFF7FEFF 		bl	u8x8_gpio_call
 1433              	.LVL199:
 326:..\u8g2\csrc/u8x8_byte.c **** }
 1434              		.loc 1 326 0
 1435 010a 0120     		movs	r0, #1
 322:..\u8g2\csrc/u8x8_byte.c ****     default:
 1436              		.loc 1 322 0
 1437 010c BDE8F087 		pop	{r4, r5, r6, r7, r8, r9, r10, pc}
 1438              	.LVL200:
 1439              	.L92:
 324:..\u8g2\csrc/u8x8_byte.c ****   }
 1440              		.loc 1 324 0
 1441 0110 0020     		movs	r0, #0
 1442              	.LVL201:
 327:..\u8g2\csrc/u8x8_byte.c **** 
 1443              		.loc 1 327 0
 1444 0112 BDE8F087 		pop	{r4, r5, r6, r7, r8, r9, r10, pc}
 1445              	.LVL202:
 1446              	.L95:
 1447 0116 00BF     		.align	2
 1448              	.L94:
 1449 0118 00000000 		.word	.LANCHOR0
 1450              		.cfi_endproc
 1451              	.LFE9:
 1452              		.size	u8x8_byte_3wire_sw_spi, .-u8x8_byte_3wire_sw_spi
 1453              		.section	.text.u8x8_byte_set_ks0108_cs,"ax",%progbits
 1454              		.align	2
 1455              		.global	u8x8_byte_set_ks0108_cs
 1456              		.thumb
 1457              		.thumb_func
 1458              		.type	u8x8_byte_set_ks0108_cs, %function
 1459              	u8x8_byte_set_ks0108_cs:
 1460              	.LFB10:
 332:..\u8g2\csrc/u8x8_byte.c ****   u8x8_gpio_SetCS(u8x8, arg&1);
 1461              		.loc 1 332 0
 1462              		.cfi_startproc
 1463              		@ args = 0, pretend = 0, frame = 0
 1464              		@ frame_needed = 0, uses_anonymous_args = 0
 1465              	.LVL203:
 1466 0000 38B5     		push	{r3, r4, r5, lr}
 1467              		.cfi_def_cfa_offset 16
 1468              		.cfi_offset 3, -16
 1469              		.cfi_offset 4, -12
 1470              		.cfi_offset 5, -8
 1471              		.cfi_offset 14, -4
 1472 0002 0546     		mov	r5, r0
 1473 0004 0C46     		mov	r4, r1
 333:..\u8g2\csrc/u8x8_byte.c ****   arg = arg >> 1;
 1474              		.loc 1 333 0
 1475 0006 01F00102 		and	r2, r1, #1
 1476 000a 4921     		movs	r1, #73
 1477              	.LVL204:
 1478 000c FFF7FEFF 		bl	u8x8_gpio_call
 1479              	.LVL205:
ARM GAS  C:\Users\brian\AppData\Local\Temp\cc2Kbm4j.s 			page 40


 334:..\u8g2\csrc/u8x8_byte.c ****   u8x8_gpio_call(u8x8, U8X8_MSG_GPIO_CS1, arg&1);
 1480              		.loc 1 334 0
 1481 0010 6408     		lsrs	r4, r4, #1
 1482              	.LVL206:
 335:..\u8g2\csrc/u8x8_byte.c ****   arg = arg >> 1;
 1483              		.loc 1 335 0
 1484 0012 04F00102 		and	r2, r4, #1
 1485 0016 4E21     		movs	r1, #78
 1486 0018 2846     		mov	r0, r5
 1487 001a FFF7FEFF 		bl	u8x8_gpio_call
 1488              	.LVL207:
 337:..\u8g2\csrc/u8x8_byte.c **** }
 1489              		.loc 1 337 0
 1490 001e C4F34002 		ubfx	r2, r4, #1, #1
 1491 0022 4F21     		movs	r1, #79
 1492 0024 2846     		mov	r0, r5
 1493 0026 FFF7FEFF 		bl	u8x8_gpio_call
 1494              	.LVL208:
 1495 002a 38BD     		pop	{r3, r4, r5, pc}
 1496              		.cfi_endproc
 1497              	.LFE10:
 1498              		.size	u8x8_byte_set_ks0108_cs, .-u8x8_byte_set_ks0108_cs
 1499              		.section	.text.u8x8_byte_ks0108,"ax",%progbits
 1500              		.align	2
 1501              		.global	u8x8_byte_ks0108
 1502              		.thumb
 1503              		.thumb_func
 1504              		.type	u8x8_byte_ks0108, %function
 1505              	u8x8_byte_ks0108:
 1506              	.LFB11:
 342:..\u8g2\csrc/u8x8_byte.c ****   uint8_t i, b;
 1507              		.loc 1 342 0
 1508              		.cfi_startproc
 1509              		@ args = 0, pretend = 0, frame = 0
 1510              		@ frame_needed = 0, uses_anonymous_args = 0
 1511              	.LVL209:
 1512 0000 2DE9F041 		push	{r4, r5, r6, r7, r8, lr}
 1513              		.cfi_def_cfa_offset 24
 1514              		.cfi_offset 4, -24
 1515              		.cfi_offset 5, -20
 1516              		.cfi_offset 6, -16
 1517              		.cfi_offset 7, -12
 1518              		.cfi_offset 8, -8
 1519              		.cfi_offset 14, -4
 1520 0004 0646     		mov	r6, r0
 1521 0006 1746     		mov	r7, r2
 1522 0008 9846     		mov	r8, r3
 346:..\u8g2\csrc/u8x8_byte.c ****   {
 1523              		.loc 1 346 0
 1524 000a 1439     		subs	r1, r1, #20
 1525              	.LVL210:
 1526 000c 0C29     		cmp	r1, #12
 1527 000e 61D8     		bhi	.L109
 1528 0010 DFE801F0 		tbb	[pc, r1]
 1529              	.LVL211:
 1530              	.L101:
 1531 0014 33       		.byte	(.L100-.L101)/2
ARM GAS  C:\Users\brian\AppData\Local\Temp\cc2Kbm4j.s 			page 41


 1532 0015 60       		.byte	(.L109-.L101)/2
 1533 0016 60       		.byte	(.L109-.L101)/2
 1534 0017 2E       		.byte	(.L102-.L101)/2
 1535 0018 46       		.byte	(.L103-.L101)/2
 1536 0019 53       		.byte	(.L104-.L101)/2
 1537 001a 60       		.byte	(.L109-.L101)/2
 1538 001b 60       		.byte	(.L109-.L101)/2
 1539 001c 60       		.byte	(.L109-.L101)/2
 1540 001d 60       		.byte	(.L109-.L101)/2
 1541 001e 60       		.byte	(.L109-.L101)/2
 1542 001f 60       		.byte	(.L109-.L101)/2
 1543 0020 40       		.byte	(.L105-.L101)/2
 1544 0021 00       		.p2align 1
 1545              	.L108:
 352:..\u8g2\csrc/u8x8_byte.c **** 	data++;
 1546              		.loc 1 352 0
 1547 0022 18F8015B 		ldrb	r5, [r8], #1	@ zero_extendqisi2
 1548              	.LVL212:
 354:..\u8g2\csrc/u8x8_byte.c **** 	for( i = U8X8_MSG_GPIO_D0; i <= U8X8_MSG_GPIO_D7; i++ )
 1549              		.loc 1 354 0
 1550 0026 013F     		subs	r7, r7, #1
 1551              	.LVL213:
 1552 0028 FFB2     		uxtb	r7, r7
 1553              	.LVL214:
 355:..\u8g2\csrc/u8x8_byte.c **** 	{
 1554              		.loc 1 355 0
 1555 002a 4024     		movs	r4, #64
 1556 002c 08E0     		b	.L106
 1557              	.LVL215:
 1558              	.L107:
 357:..\u8g2\csrc/u8x8_byte.c **** 	  b >>= 1;
 1559              		.loc 1 357 0 discriminator 3
 1560 002e 05F00102 		and	r2, r5, #1
 1561 0032 2146     		mov	r1, r4
 1562 0034 3046     		mov	r0, r6
 1563 0036 FFF7FEFF 		bl	u8x8_gpio_call
 1564              	.LVL216:
 358:..\u8g2\csrc/u8x8_byte.c **** 	}    
 1565              		.loc 1 358 0 discriminator 3
 1566 003a 6D08     		lsrs	r5, r5, #1
 1567              	.LVL217:
 355:..\u8g2\csrc/u8x8_byte.c **** 	{
 1568              		.loc 1 355 0 discriminator 3
 1569 003c 0134     		adds	r4, r4, #1
 1570              	.LVL218:
 1571 003e E4B2     		uxtb	r4, r4
 1572              	.LVL219:
 1573              	.L106:
 355:..\u8g2\csrc/u8x8_byte.c **** 	{
 1574              		.loc 1 355 0 is_stmt 0 discriminator 1
 1575 0040 472C     		cmp	r4, #71
 1576 0042 F4D9     		bls	.L107
 361:..\u8g2\csrc/u8x8_byte.c **** 	u8x8_gpio_call(u8x8, U8X8_MSG_GPIO_E, 1);
 1577              		.loc 1 361 0 is_stmt 1
 1578 0044 3368     		ldr	r3, [r6]
 1579 0046 9A7B     		ldrb	r2, [r3, #14]	@ zero_extendqisi2
 1580 0048 2C21     		movs	r1, #44
ARM GAS  C:\Users\brian\AppData\Local\Temp\cc2Kbm4j.s 			page 42


 1581 004a 3046     		mov	r0, r6
 1582 004c FFF7FEFF 		bl	u8x8_gpio_call
 1583              	.LVL220:
 362:..\u8g2\csrc/u8x8_byte.c **** 	u8x8_gpio_Delay(u8x8, U8X8_MSG_DELAY_NANO, u8x8->display_info->write_pulse_width_ns);
 1584              		.loc 1 362 0
 1585 0050 0122     		movs	r2, #1
 1586 0052 4821     		movs	r1, #72
 1587 0054 3046     		mov	r0, r6
 1588 0056 FFF7FEFF 		bl	u8x8_gpio_call
 1589              	.LVL221:
 363:..\u8g2\csrc/u8x8_byte.c **** 	u8x8_gpio_call(u8x8, U8X8_MSG_GPIO_E, 0);
 1590              		.loc 1 363 0
 1591 005a 3368     		ldr	r3, [r6]
 1592 005c DA7B     		ldrb	r2, [r3, #15]	@ zero_extendqisi2
 1593 005e 2C21     		movs	r1, #44
 1594 0060 3046     		mov	r0, r6
 1595 0062 FFF7FEFF 		bl	u8x8_gpio_call
 1596              	.LVL222:
 364:..\u8g2\csrc/u8x8_byte.c ****       }
 1597              		.loc 1 364 0
 1598 0066 0022     		movs	r2, #0
 1599 0068 4821     		movs	r1, #72
 1600 006a 3046     		mov	r0, r6
 1601 006c FFF7FEFF 		bl	u8x8_gpio_call
 1602              	.LVL223:
 1603              	.L102:
 350:..\u8g2\csrc/u8x8_byte.c ****       {
 1604              		.loc 1 350 0
 1605 0070 002F     		cmp	r7, #0
 1606 0072 D6D1     		bne	.L108
 389:..\u8g2\csrc/u8x8_byte.c **** }
 1607              		.loc 1 389 0
 1608 0074 0120     		movs	r0, #1
 1609 0076 BDE8F081 		pop	{r4, r5, r6, r7, r8, pc}
 1610              	.LVL224:
 1611              	.L100:
 370:..\u8g2\csrc/u8x8_byte.c ****       /* ensure that the enable signal is low */
 1612              		.loc 1 370 0
 1613 007a 0368     		ldr	r3, [r0]
 1614 007c 5A78     		ldrb	r2, [r3, #1]	@ zero_extendqisi2
 1615              	.LVL225:
 1616 007e 4921     		movs	r1, #73
 1617 0080 FFF7FEFF 		bl	u8x8_gpio_call
 1618              	.LVL226:
 372:..\u8g2\csrc/u8x8_byte.c ****       break;
 1619              		.loc 1 372 0
 1620 0084 0022     		movs	r2, #0
 1621 0086 4821     		movs	r1, #72
 1622 0088 3046     		mov	r0, r6
 1623 008a FFF7FEFF 		bl	u8x8_gpio_call
 1624              	.LVL227:
 389:..\u8g2\csrc/u8x8_byte.c **** }
 1625              		.loc 1 389 0
 1626 008e 0120     		movs	r0, #1
 373:..\u8g2\csrc/u8x8_byte.c ****     case U8X8_MSG_BYTE_SET_DC:
 1627              		.loc 1 373 0
 1628 0090 BDE8F081 		pop	{r4, r5, r6, r7, r8, pc}
ARM GAS  C:\Users\brian\AppData\Local\Temp\cc2Kbm4j.s 			page 43


 1629              	.LVL228:
 1630              	.L105:
 375:..\u8g2\csrc/u8x8_byte.c ****       break;
 1631              		.loc 1 375 0
 1632 0094 4A21     		movs	r1, #74
 1633 0096 FFF7FEFF 		bl	u8x8_gpio_call
 1634              	.LVL229:
 389:..\u8g2\csrc/u8x8_byte.c **** }
 1635              		.loc 1 389 0
 1636 009a 0120     		movs	r0, #1
 376:..\u8g2\csrc/u8x8_byte.c ****     case U8X8_MSG_BYTE_START_TRANSFER:
 1637              		.loc 1 376 0
 1638 009c BDE8F081 		pop	{r4, r5, r6, r7, r8, pc}
 1639              	.LVL230:
 1640              	.L103:
 379:..\u8g2\csrc/u8x8_byte.c ****       u8x8->gpio_and_delay_cb(u8x8, U8X8_MSG_DELAY_NANO, u8x8->display_info->post_chip_enable_wait_
 1641              		.loc 1 379 0
 1642 00a0 1146     		mov	r1, r2
 1643 00a2 FFF7FEFF 		bl	u8x8_byte_set_ks0108_cs
 1644              	.LVL231:
 380:..\u8g2\csrc/u8x8_byte.c ****       break;
 1645              		.loc 1 380 0
 1646 00a6 7469     		ldr	r4, [r6, #20]
 1647 00a8 3268     		ldr	r2, [r6]
 1648 00aa 0023     		movs	r3, #0
 1649 00ac 9278     		ldrb	r2, [r2, #2]	@ zero_extendqisi2
 1650 00ae 2C21     		movs	r1, #44
 1651 00b0 3046     		mov	r0, r6
 1652 00b2 A047     		blx	r4
 1653              	.LVL232:
 389:..\u8g2\csrc/u8x8_byte.c **** }
 1654              		.loc 1 389 0
 1655 00b4 0120     		movs	r0, #1
 381:..\u8g2\csrc/u8x8_byte.c ****     case U8X8_MSG_BYTE_END_TRANSFER:
 1656              		.loc 1 381 0
 1657 00b6 BDE8F081 		pop	{r4, r5, r6, r7, r8, pc}
 1658              	.LVL233:
 1659              	.L104:
 383:..\u8g2\csrc/u8x8_byte.c ****       u8x8_byte_set_ks0108_cs(u8x8, arg_int);
 1660              		.loc 1 383 0
 1661 00ba 4469     		ldr	r4, [r0, #20]
 1662 00bc 0268     		ldr	r2, [r0]
 1663              	.LVL234:
 1664 00be 0023     		movs	r3, #0
 1665 00c0 D278     		ldrb	r2, [r2, #3]	@ zero_extendqisi2
 1666 00c2 2C21     		movs	r1, #44
 1667 00c4 A047     		blx	r4
 1668              	.LVL235:
 384:..\u8g2\csrc/u8x8_byte.c ****       break;
 1669              		.loc 1 384 0
 1670 00c6 3946     		mov	r1, r7
 1671 00c8 3046     		mov	r0, r6
 1672 00ca FFF7FEFF 		bl	u8x8_byte_set_ks0108_cs
 1673              	.LVL236:
 389:..\u8g2\csrc/u8x8_byte.c **** }
 1674              		.loc 1 389 0
 1675 00ce 0120     		movs	r0, #1
ARM GAS  C:\Users\brian\AppData\Local\Temp\cc2Kbm4j.s 			page 44


 385:..\u8g2\csrc/u8x8_byte.c ****     default:
 1676              		.loc 1 385 0
 1677 00d0 BDE8F081 		pop	{r4, r5, r6, r7, r8, pc}
 1678              	.LVL237:
 1679              	.L109:
 387:..\u8g2\csrc/u8x8_byte.c ****   }
 1680              		.loc 1 387 0
 1681 00d4 0020     		movs	r0, #0
 1682              	.LVL238:
 390:..\u8g2\csrc/u8x8_byte.c **** 
 1683              		.loc 1 390 0
 1684 00d6 BDE8F081 		pop	{r4, r5, r6, r7, r8, pc}
 1685              		.cfi_endproc
 1686              	.LFE11:
 1687              		.size	u8x8_byte_ks0108, .-u8x8_byte_ks0108
 1688 00da 00BF     		.section	.text.u8x8_byte_sed1520,"ax",%progbits
 1689              		.align	2
 1690              		.global	u8x8_byte_sed1520
 1691              		.thumb
 1692              		.thumb_func
 1693              		.type	u8x8_byte_sed1520, %function
 1694              	u8x8_byte_sed1520:
 1695              	.LFB12:
 398:..\u8g2\csrc/u8x8_byte.c ****   uint8_t i, b;
 1696              		.loc 1 398 0
 1697              		.cfi_startproc
 1698              		@ args = 0, pretend = 0, frame = 0
 1699              		@ frame_needed = 0, uses_anonymous_args = 0
 1700              	.LVL239:
 1701 0000 2DE9F041 		push	{r4, r5, r6, r7, r8, lr}
 1702              		.cfi_def_cfa_offset 24
 1703              		.cfi_offset 4, -24
 1704              		.cfi_offset 5, -20
 1705              		.cfi_offset 6, -16
 1706              		.cfi_offset 7, -12
 1707              		.cfi_offset 8, -8
 1708              		.cfi_offset 14, -4
 1709 0004 0646     		mov	r6, r0
 1710 0006 1746     		mov	r7, r2
 1711 0008 9846     		mov	r8, r3
 403:..\u8g2\csrc/u8x8_byte.c ****   {
 1712              		.loc 1 403 0
 1713 000a 1439     		subs	r1, r1, #20
 1714              	.LVL240:
 1715 000c 0C29     		cmp	r1, #12
 1716 000e 08D8     		bhi	.L112
 1717 0010 DFE801F0 		tbb	[pc, r1]
 1718              	.LVL241:
 1719              	.L114:
 1720 0014 3C       		.byte	(.L113-.L114)/2
 1721 0015 07       		.byte	(.L112-.L114)/2
 1722 0016 07       		.byte	(.L112-.L114)/2
 1723 0017 37       		.byte	(.L115-.L114)/2
 1724 0018 57       		.byte	(.L116-.L114)/2
 1725 0019 60       		.byte	(.L122-.L114)/2
 1726 001a 07       		.byte	(.L112-.L114)/2
 1727 001b 07       		.byte	(.L112-.L114)/2
ARM GAS  C:\Users\brian\AppData\Local\Temp\cc2Kbm4j.s 			page 45


 1728 001c 07       		.byte	(.L112-.L114)/2
 1729 001d 07       		.byte	(.L112-.L114)/2
 1730 001e 07       		.byte	(.L112-.L114)/2
 1731 001f 07       		.byte	(.L112-.L114)/2
 1732 0020 51       		.byte	(.L118-.L114)/2
 1733 0021 00       		.p2align 1
 1734              	.L112:
 447:..\u8g2\csrc/u8x8_byte.c ****   }
 1735              		.loc 1 447 0
 1736 0022 0020     		movs	r0, #0
 1737              	.LVL242:
 1738 0024 BDE8F081 		pop	{r4, r5, r6, r7, r8, pc}
 1739              	.LVL243:
 1740              	.L121:
 409:..\u8g2\csrc/u8x8_byte.c **** 	data++;
 1741              		.loc 1 409 0
 1742 0028 18F8015B 		ldrb	r5, [r8], #1	@ zero_extendqisi2
 1743              	.LVL244:
 411:..\u8g2\csrc/u8x8_byte.c **** 	for( i = U8X8_MSG_GPIO_D0; i <= U8X8_MSG_GPIO_D7; i++ )
 1744              		.loc 1 411 0
 1745 002c 013F     		subs	r7, r7, #1
 1746              	.LVL245:
 1747 002e FFB2     		uxtb	r7, r7
 1748              	.LVL246:
 412:..\u8g2\csrc/u8x8_byte.c **** 	{
 1749              		.loc 1 412 0
 1750 0030 4024     		movs	r4, #64
 1751 0032 08E0     		b	.L119
 1752              	.LVL247:
 1753              	.L120:
 414:..\u8g2\csrc/u8x8_byte.c **** 	  b >>= 1;
 1754              		.loc 1 414 0 discriminator 3
 1755 0034 05F00102 		and	r2, r5, #1
 1756 0038 2146     		mov	r1, r4
 1757 003a 3046     		mov	r0, r6
 1758 003c FFF7FEFF 		bl	u8x8_gpio_call
 1759              	.LVL248:
 415:..\u8g2\csrc/u8x8_byte.c **** 	}    
 1760              		.loc 1 415 0 discriminator 3
 1761 0040 6D08     		lsrs	r5, r5, #1
 1762              	.LVL249:
 412:..\u8g2\csrc/u8x8_byte.c **** 	{
 1763              		.loc 1 412 0 discriminator 3
 1764 0042 0134     		adds	r4, r4, #1
 1765              	.LVL250:
 1766 0044 E4B2     		uxtb	r4, r4
 1767              	.LVL251:
 1768              	.L119:
 412:..\u8g2\csrc/u8x8_byte.c **** 	{
 1769              		.loc 1 412 0 is_stmt 0 discriminator 1
 1770 0046 472C     		cmp	r4, #71
 1771 0048 F4D9     		bls	.L120
 418:..\u8g2\csrc/u8x8_byte.c **** 	u8x8_gpio_call(u8x8, enable_pin, 1);
 1772              		.loc 1 418 0 is_stmt 1
 1773 004a 3368     		ldr	r3, [r6]
 1774 004c 9A7B     		ldrb	r2, [r3, #14]	@ zero_extendqisi2
 1775 004e 2C21     		movs	r1, #44
ARM GAS  C:\Users\brian\AppData\Local\Temp\cc2Kbm4j.s 			page 46


 1776 0050 3046     		mov	r0, r6
 1777 0052 FFF7FEFF 		bl	u8x8_gpio_call
 1778              	.LVL252:
 419:..\u8g2\csrc/u8x8_byte.c **** 	u8x8_gpio_Delay(u8x8, U8X8_MSG_DELAY_NANO, 200);		/* KS0108 requires 450 ns, use 200 here */
 1779              		.loc 1 419 0
 1780 0056 224C     		ldr	r4, .L125
 1781              	.LVL253:
 1782 0058 0122     		movs	r2, #1
 1783 005a 6178     		ldrb	r1, [r4, #1]	@ zero_extendqisi2
 1784 005c 3046     		mov	r0, r6
 1785 005e FFF7FEFF 		bl	u8x8_gpio_call
 1786              	.LVL254:
 420:..\u8g2\csrc/u8x8_byte.c **** 	u8x8_gpio_Delay(u8x8, U8X8_MSG_DELAY_NANO, u8x8->display_info->write_pulse_width_ns);  /* expect 2
 1787              		.loc 1 420 0
 1788 0062 C822     		movs	r2, #200
 1789 0064 2C21     		movs	r1, #44
 1790 0066 3046     		mov	r0, r6
 1791 0068 FFF7FEFF 		bl	u8x8_gpio_call
 1792              	.LVL255:
 421:..\u8g2\csrc/u8x8_byte.c **** 	u8x8_gpio_call(u8x8, enable_pin, 0);
 1793              		.loc 1 421 0
 1794 006c 3368     		ldr	r3, [r6]
 1795 006e DA7B     		ldrb	r2, [r3, #15]	@ zero_extendqisi2
 1796 0070 2C21     		movs	r1, #44
 1797 0072 3046     		mov	r0, r6
 1798 0074 FFF7FEFF 		bl	u8x8_gpio_call
 1799              	.LVL256:
 422:..\u8g2\csrc/u8x8_byte.c ****       }
 1800              		.loc 1 422 0
 1801 0078 0022     		movs	r2, #0
 1802 007a 6178     		ldrb	r1, [r4, #1]	@ zero_extendqisi2
 1803 007c 3046     		mov	r0, r6
 1804 007e FFF7FEFF 		bl	u8x8_gpio_call
 1805              	.LVL257:
 1806              	.L115:
 407:..\u8g2\csrc/u8x8_byte.c ****       {
 1807              		.loc 1 407 0
 1808 0082 002F     		cmp	r7, #0
 1809 0084 D0D1     		bne	.L121
 449:..\u8g2\csrc/u8x8_byte.c **** }
 1810              		.loc 1 449 0
 1811 0086 0120     		movs	r0, #1
 1812 0088 BDE8F081 		pop	{r4, r5, r6, r7, r8, pc}
 1813              	.LVL258:
 1814              	.L113:
 428:..\u8g2\csrc/u8x8_byte.c ****       /* ensure that the enable signals are low */
 1815              		.loc 1 428 0
 1816 008c 0368     		ldr	r3, [r0]
 1817 008e 5A78     		ldrb	r2, [r3, #1]	@ zero_extendqisi2
 1818              	.LVL259:
 1819 0090 4921     		movs	r1, #73
 1820 0092 FFF7FEFF 		bl	u8x8_gpio_call
 1821              	.LVL260:
 430:..\u8g2\csrc/u8x8_byte.c ****       u8x8_gpio_call(u8x8, U8X8_MSG_GPIO_CS, 0);
 1822              		.loc 1 430 0
 1823 0096 0022     		movs	r2, #0
 1824 0098 4821     		movs	r1, #72
ARM GAS  C:\Users\brian\AppData\Local\Temp\cc2Kbm4j.s 			page 47


 1825 009a 3046     		mov	r0, r6
 1826 009c FFF7FEFF 		bl	u8x8_gpio_call
 1827              	.LVL261:
 431:..\u8g2\csrc/u8x8_byte.c ****       enable_pin = U8X8_MSG_GPIO_E;
 1828              		.loc 1 431 0
 1829 00a0 0022     		movs	r2, #0
 1830 00a2 4921     		movs	r1, #73
 1831 00a4 3046     		mov	r0, r6
 1832 00a6 FFF7FEFF 		bl	u8x8_gpio_call
 1833              	.LVL262:
 432:..\u8g2\csrc/u8x8_byte.c ****       break;
 1834              		.loc 1 432 0
 1835 00aa 4822     		movs	r2, #72
 1836 00ac 0C4B     		ldr	r3, .L125
 1837 00ae 5A70     		strb	r2, [r3, #1]
 449:..\u8g2\csrc/u8x8_byte.c **** }
 1838              		.loc 1 449 0
 1839 00b0 0120     		movs	r0, #1
 433:..\u8g2\csrc/u8x8_byte.c ****     case U8X8_MSG_BYTE_SET_DC:
 1840              		.loc 1 433 0
 1841 00b2 BDE8F081 		pop	{r4, r5, r6, r7, r8, pc}
 1842              	.LVL263:
 1843              	.L118:
 435:..\u8g2\csrc/u8x8_byte.c ****       break;
 1844              		.loc 1 435 0
 1845 00b6 4A21     		movs	r1, #74
 1846 00b8 FFF7FEFF 		bl	u8x8_gpio_call
 1847              	.LVL264:
 449:..\u8g2\csrc/u8x8_byte.c **** }
 1848              		.loc 1 449 0
 1849 00bc 0120     		movs	r0, #1
 436:..\u8g2\csrc/u8x8_byte.c ****     case U8X8_MSG_BYTE_START_TRANSFER:
 1850              		.loc 1 436 0
 1851 00be BDE8F081 		pop	{r4, r5, r6, r7, r8, pc}
 1852              	.LVL265:
 1853              	.L116:
 440:..\u8g2\csrc/u8x8_byte.c ****       if ( arg_int != 0 )
 1854              		.loc 1 440 0
 1855 00c2 4822     		movs	r2, #72
 1856              	.LVL266:
 1857 00c4 064B     		ldr	r3, .L125
 1858 00c6 5A70     		strb	r2, [r3, #1]
 441:..\u8g2\csrc/u8x8_byte.c **** 	enable_pin = U8X8_MSG_GPIO_CS;
 1859              		.loc 1 441 0
 1860 00c8 3FB1     		cbz	r7, .L123
 442:..\u8g2\csrc/u8x8_byte.c ****       break;
 1861              		.loc 1 442 0
 1862 00ca 4922     		movs	r2, #73
 1863 00cc 5A70     		strb	r2, [r3, #1]
 449:..\u8g2\csrc/u8x8_byte.c **** }
 1864              		.loc 1 449 0
 1865 00ce 0120     		movs	r0, #1
 1866              	.LVL267:
 1867 00d0 BDE8F081 		pop	{r4, r5, r6, r7, r8, pc}
 1868              	.LVL268:
 1869              	.L122:
 1870 00d4 0120     		movs	r0, #1
ARM GAS  C:\Users\brian\AppData\Local\Temp\cc2Kbm4j.s 			page 48


 1871              	.LVL269:
 1872 00d6 BDE8F081 		pop	{r4, r5, r6, r7, r8, pc}
 1873              	.LVL270:
 1874              	.L123:
 1875 00da 0120     		movs	r0, #1
 1876              	.LVL271:
 450:..\u8g2\csrc/u8x8_byte.c **** 
 1877              		.loc 1 450 0
 1878 00dc BDE8F081 		pop	{r4, r5, r6, r7, r8, pc}
 1879              	.LVL272:
 1880              	.L126:
 1881              		.align	2
 1882              	.L125:
 1883 00e0 00000000 		.word	.LANCHOR0
 1884              		.cfi_endproc
 1885              	.LFE12:
 1886              		.size	u8x8_byte_sed1520, .-u8x8_byte_sed1520
 1887              		.section	.text.u8x8_byte_sw_i2c,"ax",%progbits
 1888              		.align	2
 1889              		.global	u8x8_byte_sw_i2c
 1890              		.thumb
 1891              		.thumb_func
 1892              		.type	u8x8_byte_sw_i2c, %function
 1893              	u8x8_byte_sw_i2c:
 1894              	.LFB24:
 575:..\u8g2\csrc/u8x8_byte.c **** }
 576:..\u8g2\csrc/u8x8_byte.c **** 
 577:..\u8g2\csrc/u8x8_byte.c **** uint8_t u8x8_byte_sw_i2c(u8x8_t *u8x8, uint8_t msg, uint8_t arg_int, void *arg_ptr)
 578:..\u8g2\csrc/u8x8_byte.c **** {
 1895              		.loc 1 578 0
 1896              		.cfi_startproc
 1897              		@ args = 0, pretend = 0, frame = 0
 1898              		@ frame_needed = 0, uses_anonymous_args = 0
 1899              	.LVL273:
 1900 0000 70B5     		push	{r4, r5, r6, lr}
 1901              		.cfi_def_cfa_offset 16
 1902              		.cfi_offset 4, -16
 1903              		.cfi_offset 5, -12
 1904              		.cfi_offset 6, -8
 1905              		.cfi_offset 14, -4
 1906 0002 0646     		mov	r6, r0
 1907 0004 1446     		mov	r4, r2
 1908 0006 1D46     		mov	r5, r3
 579:..\u8g2\csrc/u8x8_byte.c ****   uint8_t *data;
 580:..\u8g2\csrc/u8x8_byte.c **** 
 581:..\u8g2\csrc/u8x8_byte.c ****   switch(msg)
 1909              		.loc 1 581 0
 1910 0008 1439     		subs	r1, r1, #20
 1911              	.LVL274:
 1912 000a 0C29     		cmp	r1, #12
 1913 000c 08D8     		bhi	.L128
 1914 000e DFE801F0 		tbb	[pc, r1]
 1915              	.LVL275:
 1916              	.L130:
 1917 0012 14       		.byte	(.L129-.L130)/2
 1918 0013 07       		.byte	(.L128-.L130)/2
 1919 0014 07       		.byte	(.L128-.L130)/2
ARM GAS  C:\Users\brian\AppData\Local\Temp\cc2Kbm4j.s 			page 49


 1920 0015 10       		.byte	(.L131-.L130)/2
 1921 0016 18       		.byte	(.L132-.L130)/2
 1922 0017 21       		.byte	(.L133-.L130)/2
 1923 0018 07       		.byte	(.L128-.L130)/2
 1924 0019 07       		.byte	(.L128-.L130)/2
 1925 001a 07       		.byte	(.L128-.L130)/2
 1926 001b 07       		.byte	(.L128-.L130)/2
 1927 001c 07       		.byte	(.L128-.L130)/2
 1928 001d 07       		.byte	(.L128-.L130)/2
 1929 001e 25       		.byte	(.L136-.L130)/2
 1930 001f 00       		.p2align 1
 1931              	.L128:
 582:..\u8g2\csrc/u8x8_byte.c ****   {
 583:..\u8g2\csrc/u8x8_byte.c ****     case U8X8_MSG_BYTE_SEND:
 584:..\u8g2\csrc/u8x8_byte.c ****       data = (uint8_t *)arg_ptr;
 585:..\u8g2\csrc/u8x8_byte.c ****     
 586:..\u8g2\csrc/u8x8_byte.c ****       while( arg_int > 0 )
 587:..\u8g2\csrc/u8x8_byte.c ****       {
 588:..\u8g2\csrc/u8x8_byte.c **** 	i2c_write_byte(u8x8, *data);
 589:..\u8g2\csrc/u8x8_byte.c **** 	data++;
 590:..\u8g2\csrc/u8x8_byte.c **** 	arg_int--;
 591:..\u8g2\csrc/u8x8_byte.c ****       }
 592:..\u8g2\csrc/u8x8_byte.c ****       
 593:..\u8g2\csrc/u8x8_byte.c ****       break;
 594:..\u8g2\csrc/u8x8_byte.c ****       
 595:..\u8g2\csrc/u8x8_byte.c ****     case U8X8_MSG_BYTE_INIT:
 596:..\u8g2\csrc/u8x8_byte.c ****       i2c_init(u8x8);
 597:..\u8g2\csrc/u8x8_byte.c ****       break;
 598:..\u8g2\csrc/u8x8_byte.c ****     case U8X8_MSG_BYTE_SET_DC:
 599:..\u8g2\csrc/u8x8_byte.c ****       break;
 600:..\u8g2\csrc/u8x8_byte.c ****     case U8X8_MSG_BYTE_START_TRANSFER:
 601:..\u8g2\csrc/u8x8_byte.c ****       i2c_start(u8x8);
 602:..\u8g2\csrc/u8x8_byte.c ****       i2c_write_byte(u8x8, u8x8_GetI2CAddress(u8x8));
 603:..\u8g2\csrc/u8x8_byte.c ****       //i2c_write_byte(u8x8, 0x078);
 604:..\u8g2\csrc/u8x8_byte.c ****       break;
 605:..\u8g2\csrc/u8x8_byte.c ****     case U8X8_MSG_BYTE_END_TRANSFER:
 606:..\u8g2\csrc/u8x8_byte.c ****       i2c_stop(u8x8);
 607:..\u8g2\csrc/u8x8_byte.c ****       break;
 608:..\u8g2\csrc/u8x8_byte.c ****     default:
 609:..\u8g2\csrc/u8x8_byte.c ****       return 0;
 1932              		.loc 1 609 0
 1933 0020 0020     		movs	r0, #0
 1934              	.LVL276:
 1935 0022 70BD     		pop	{r4, r5, r6, pc}
 1936              	.LVL277:
 1937              	.L135:
 588:..\u8g2\csrc/u8x8_byte.c **** 	data++;
 1938              		.loc 1 588 0
 1939 0024 15F8011B 		ldrb	r1, [r5], #1	@ zero_extendqisi2
 1940              	.LVL278:
 1941 0028 3046     		mov	r0, r6
 1942 002a FFF7FEFF 		bl	i2c_write_byte
 1943              	.LVL279:
 590:..\u8g2\csrc/u8x8_byte.c ****       }
 1944              		.loc 1 590 0
 1945 002e 013C     		subs	r4, r4, #1
 1946              	.LVL280:
ARM GAS  C:\Users\brian\AppData\Local\Temp\cc2Kbm4j.s 			page 50


 1947 0030 E4B2     		uxtb	r4, r4
 1948              	.LVL281:
 1949              	.L131:
 586:..\u8g2\csrc/u8x8_byte.c ****       {
 1950              		.loc 1 586 0
 1951 0032 002C     		cmp	r4, #0
 1952 0034 F6D1     		bne	.L135
 610:..\u8g2\csrc/u8x8_byte.c ****   }
 611:..\u8g2\csrc/u8x8_byte.c ****   return 1;
 1953              		.loc 1 611 0
 1954 0036 0120     		movs	r0, #1
 1955 0038 70BD     		pop	{r4, r5, r6, pc}
 1956              	.LVL282:
 1957              	.L129:
 596:..\u8g2\csrc/u8x8_byte.c ****       break;
 1958              		.loc 1 596 0
 1959 003a FFF7FEFF 		bl	i2c_init
 1960              	.LVL283:
 1961              		.loc 1 611 0
 1962 003e 0120     		movs	r0, #1
 597:..\u8g2\csrc/u8x8_byte.c ****     case U8X8_MSG_BYTE_SET_DC:
 1963              		.loc 1 597 0
 1964 0040 70BD     		pop	{r4, r5, r6, pc}
 1965              	.LVL284:
 1966              	.L132:
 601:..\u8g2\csrc/u8x8_byte.c ****       i2c_write_byte(u8x8, u8x8_GetI2CAddress(u8x8));
 1967              		.loc 1 601 0
 1968 0042 FFF7FEFF 		bl	i2c_start
 1969              	.LVL285:
 602:..\u8g2\csrc/u8x8_byte.c ****       //i2c_write_byte(u8x8, 0x078);
 1970              		.loc 1 602 0
 1971 0046 96F82410 		ldrb	r1, [r6, #36]	@ zero_extendqisi2
 1972 004a 3046     		mov	r0, r6
 1973 004c FFF7FEFF 		bl	i2c_write_byte
 1974              	.LVL286:
 1975              		.loc 1 611 0
 1976 0050 0120     		movs	r0, #1
 604:..\u8g2\csrc/u8x8_byte.c ****     case U8X8_MSG_BYTE_END_TRANSFER:
 1977              		.loc 1 604 0
 1978 0052 70BD     		pop	{r4, r5, r6, pc}
 1979              	.LVL287:
 1980              	.L133:
 606:..\u8g2\csrc/u8x8_byte.c ****       break;
 1981              		.loc 1 606 0
 1982 0054 FFF7FEFF 		bl	i2c_stop
 1983              	.LVL288:
 1984              		.loc 1 611 0
 1985 0058 0120     		movs	r0, #1
 607:..\u8g2\csrc/u8x8_byte.c ****     default:
 1986              		.loc 1 607 0
 1987 005a 70BD     		pop	{r4, r5, r6, pc}
 1988              	.LVL289:
 1989              	.L136:
 1990              		.loc 1 611 0
 1991 005c 0120     		movs	r0, #1
 1992              	.LVL290:
 612:..\u8g2\csrc/u8x8_byte.c **** }
ARM GAS  C:\Users\brian\AppData\Local\Temp\cc2Kbm4j.s 			page 51


 1993              		.loc 1 612 0
 1994 005e 70BD     		pop	{r4, r5, r6, pc}
 1995              		.cfi_endproc
 1996              	.LFE24:
 1997              		.size	u8x8_byte_sw_i2c, .-u8x8_byte_sw_i2c
 1998              		.bss
 1999              		.set	.LANCHOR0,. + 0
 2000              		.type	last_dc.5789, %object
 2001              		.size	last_dc.5789, 1
 2002              	last_dc.5789:
 2003 0000 00       		.space	1
 2004              		.type	enable_pin.5838, %object
 2005              		.size	enable_pin.5838, 1
 2006              	enable_pin.5838:
 2007 0001 00       		.space	1
 2008              		.text
 2009              	.Letext0:
 2010              		.file 2 "c:\\program files (x86)\\cypress\\psoc creator\\4.4\\psoc creator\\import\\gnu\\arm\\5.4.
 2011              		.file 3 "c:\\program files (x86)\\cypress\\psoc creator\\4.4\\psoc creator\\import\\gnu\\arm\\5.4.
 2012              		.file 4 "..\\u8g2\\csrc\\u8x8.h"
 2013              		.section	.debug_info,"",%progbits
 2014              	.Ldebug_info0:
 2015 0000 DB160000 		.4byte	0x16db
 2016 0004 0400     		.2byte	0x4
 2017 0006 00000000 		.4byte	.Ldebug_abbrev0
 2018 000a 04       		.byte	0x4
 2019 000b 01       		.uleb128 0x1
 2020 000c 80050000 		.4byte	.LASF93
 2021 0010 0C       		.byte	0xc
 2022 0011 B7030000 		.4byte	.LASF94
 2023 0015 06010000 		.4byte	.LASF95
 2024 0019 00000000 		.4byte	.Ldebug_ranges0+0
 2025 001d 00000000 		.4byte	0
 2026 0021 00000000 		.4byte	.Ldebug_line0
 2027 0025 02       		.uleb128 0x2
 2028 0026 01       		.byte	0x1
 2029 0027 06       		.byte	0x6
 2030 0028 E6020000 		.4byte	.LASF0
 2031 002c 03       		.uleb128 0x3
 2032 002d 46020000 		.4byte	.LASF3
 2033 0031 02       		.byte	0x2
 2034 0032 1D       		.byte	0x1d
 2035 0033 37000000 		.4byte	0x37
 2036 0037 02       		.uleb128 0x2
 2037 0038 01       		.byte	0x1
 2038 0039 08       		.byte	0x8
 2039 003a B3020000 		.4byte	.LASF1
 2040 003e 02       		.uleb128 0x2
 2041 003f 02       		.byte	0x2
 2042 0040 05       		.byte	0x5
 2043 0041 87000000 		.4byte	.LASF2
 2044 0045 03       		.uleb128 0x3
 2045 0046 FB000000 		.4byte	.LASF4
 2046 004a 02       		.byte	0x2
 2047 004b 2B       		.byte	0x2b
 2048 004c 50000000 		.4byte	0x50
 2049 0050 02       		.uleb128 0x2
ARM GAS  C:\Users\brian\AppData\Local\Temp\cc2Kbm4j.s 			page 52


 2050 0051 02       		.byte	0x2
 2051 0052 07       		.byte	0x7
 2052 0053 97030000 		.4byte	.LASF5
 2053 0057 02       		.uleb128 0x2
 2054 0058 04       		.byte	0x4
 2055 0059 05       		.byte	0x5
 2056 005a 19020000 		.4byte	.LASF6
 2057 005e 03       		.uleb128 0x3
 2058 005f E1000000 		.4byte	.LASF7
 2059 0063 02       		.byte	0x2
 2060 0064 41       		.byte	0x41
 2061 0065 69000000 		.4byte	0x69
 2062 0069 02       		.uleb128 0x2
 2063 006a 04       		.byte	0x4
 2064 006b 07       		.byte	0x7
 2065 006c 66040000 		.4byte	.LASF8
 2066 0070 02       		.uleb128 0x2
 2067 0071 08       		.byte	0x8
 2068 0072 05       		.byte	0x5
 2069 0073 E2010000 		.4byte	.LASF9
 2070 0077 02       		.uleb128 0x2
 2071 0078 08       		.byte	0x8
 2072 0079 07       		.byte	0x7
 2073 007a F2020000 		.4byte	.LASF10
 2074 007e 04       		.uleb128 0x4
 2075 007f 04       		.byte	0x4
 2076 0080 05       		.byte	0x5
 2077 0081 696E7400 		.ascii	"int\000"
 2078 0085 02       		.uleb128 0x2
 2079 0086 04       		.byte	0x4
 2080 0087 07       		.byte	0x7
 2081 0088 12030000 		.4byte	.LASF11
 2082 008c 03       		.uleb128 0x3
 2083 008d 51010000 		.4byte	.LASF12
 2084 0091 03       		.byte	0x3
 2085 0092 18       		.byte	0x18
 2086 0093 2C000000 		.4byte	0x2c
 2087 0097 03       		.uleb128 0x3
 2088 0098 1F030000 		.4byte	.LASF13
 2089 009c 03       		.byte	0x3
 2090 009d 24       		.byte	0x24
 2091 009e 45000000 		.4byte	0x45
 2092 00a2 03       		.uleb128 0x3
 2093 00a3 09030000 		.4byte	.LASF14
 2094 00a7 03       		.byte	0x3
 2095 00a8 30       		.byte	0x30
 2096 00a9 5E000000 		.4byte	0x5e
 2097 00ad 05       		.uleb128 0x5
 2098 00ae 04       		.byte	0x4
 2099 00af 02       		.uleb128 0x2
 2100 00b0 08       		.byte	0x8
 2101 00b1 04       		.byte	0x4
 2102 00b2 9B020000 		.4byte	.LASF15
 2103 00b6 03       		.uleb128 0x3
 2104 00b7 6E030000 		.4byte	.LASF16
 2105 00bb 04       		.byte	0x4
 2106 00bc CD       		.byte	0xcd
ARM GAS  C:\Users\brian\AppData\Local\Temp\cc2Kbm4j.s 			page 53


 2107 00bd C1000000 		.4byte	0xc1
 2108 00c1 06       		.uleb128 0x6
 2109 00c2 50040000 		.4byte	.LASF37
 2110 00c6 2C       		.byte	0x2c
 2111 00c7 04       		.byte	0x4
 2112 00c8 5001     		.2byte	0x150
 2113 00ca C6010000 		.4byte	0x1c6
 2114 00ce 07       		.uleb128 0x7
 2115 00cf DF030000 		.4byte	.LASF17
 2116 00d3 04       		.byte	0x4
 2117 00d4 5201     		.2byte	0x152
 2118 00d6 2C030000 		.4byte	0x32c
 2119 00da 00       		.byte	0
 2120 00db 07       		.uleb128 0x7
 2121 00dc 35060000 		.4byte	.LASF18
 2122 00e0 04       		.byte	0x4
 2123 00e1 5301     		.2byte	0x153
 2124 00e3 01030000 		.4byte	0x301
 2125 00e7 04       		.byte	0x4
 2126 00e8 07       		.uleb128 0x7
 2127 00e9 50020000 		.4byte	.LASF19
 2128 00ed 04       		.byte	0x4
 2129 00ee 5401     		.2byte	0x154
 2130 00f0 CC020000 		.4byte	0x2cc
 2131 00f4 08       		.byte	0x8
 2132 00f5 07       		.uleb128 0x7
 2133 00f6 79050000 		.4byte	.LASF20
 2134 00fa 04       		.byte	0x4
 2135 00fb 5501     		.2byte	0x155
 2136 00fd CC020000 		.4byte	0x2cc
 2137 0101 0C       		.byte	0xc
 2138 0102 07       		.uleb128 0x7
 2139 0103 88040000 		.4byte	.LASF21
 2140 0107 04       		.byte	0x4
 2141 0108 5601     		.2byte	0x156
 2142 010a CC020000 		.4byte	0x2cc
 2143 010e 10       		.byte	0x10
 2144 010f 07       		.uleb128 0x7
 2145 0110 91000000 		.4byte	.LASF22
 2146 0114 04       		.byte	0x4
 2147 0115 5701     		.2byte	0x157
 2148 0117 CC020000 		.4byte	0x2cc
 2149 011b 14       		.byte	0x14
 2150 011c 07       		.uleb128 0x7
 2151 011d 9B010000 		.4byte	.LASF23
 2152 0121 04       		.byte	0x4
 2153 0122 5801     		.2byte	0x158
 2154 0124 A2000000 		.4byte	0xa2
 2155 0128 18       		.byte	0x18
 2156 0129 07       		.uleb128 0x7
 2157 012a 6E000000 		.4byte	.LASF24
 2158 012e 04       		.byte	0x4
 2159 012f 5901     		.2byte	0x159
 2160 0131 37030000 		.4byte	0x337
 2161 0135 1C       		.byte	0x1c
 2162 0136 07       		.uleb128 0x7
 2163 0137 13050000 		.4byte	.LASF25
ARM GAS  C:\Users\brian\AppData\Local\Temp\cc2Kbm4j.s 			page 54


 2164 013b 04       		.byte	0x4
 2165 013c 5A01     		.2byte	0x15a
 2166 013e 97000000 		.4byte	0x97
 2167 0142 20       		.byte	0x20
 2168 0143 07       		.uleb128 0x7
 2169 0144 09000000 		.4byte	.LASF26
 2170 0148 04       		.byte	0x4
 2171 0149 5B01     		.2byte	0x15b
 2172 014b 8C000000 		.4byte	0x8c
 2173 014f 22       		.byte	0x22
 2174 0150 07       		.uleb128 0x7
 2175 0151 12000000 		.4byte	.LASF27
 2176 0155 04       		.byte	0x4
 2177 0156 5C01     		.2byte	0x15c
 2178 0158 8C000000 		.4byte	0x8c
 2179 015c 23       		.byte	0x23
 2180 015d 07       		.uleb128 0x7
 2181 015e E7040000 		.4byte	.LASF28
 2182 0162 04       		.byte	0x4
 2183 0163 5D01     		.2byte	0x15d
 2184 0165 8C000000 		.4byte	0x8c
 2185 0169 24       		.byte	0x24
 2186 016a 07       		.uleb128 0x7
 2187 016b 57050000 		.4byte	.LASF29
 2188 016f 04       		.byte	0x4
 2189 0170 6001     		.2byte	0x160
 2190 0172 8C000000 		.4byte	0x8c
 2191 0176 25       		.byte	0x25
 2192 0177 07       		.uleb128 0x7
 2193 0178 45040000 		.4byte	.LASF30
 2194 017c 04       		.byte	0x4
 2195 017d 6201     		.2byte	0x162
 2196 017f 8C000000 		.4byte	0x8c
 2197 0183 26       		.byte	0x26
 2198 0184 07       		.uleb128 0x7
 2199 0185 F0010000 		.4byte	.LASF31
 2200 0189 04       		.byte	0x4
 2201 018a 6301     		.2byte	0x163
 2202 018c 8C000000 		.4byte	0x8c
 2203 0190 27       		.byte	0x27
 2204 0191 07       		.uleb128 0x7
 2205 0192 0E060000 		.4byte	.LASF32
 2206 0196 04       		.byte	0x4
 2207 0197 6401     		.2byte	0x164
 2208 0199 8C000000 		.4byte	0x8c
 2209 019d 28       		.byte	0x28
 2210 019e 07       		.uleb128 0x7
 2211 019f CA010000 		.4byte	.LASF33
 2212 01a3 04       		.byte	0x4
 2213 01a4 6501     		.2byte	0x165
 2214 01a6 8C000000 		.4byte	0x8c
 2215 01aa 29       		.byte	0x29
 2216 01ab 07       		.uleb128 0x7
 2217 01ac D0030000 		.4byte	.LASF34
 2218 01b0 04       		.byte	0x4
 2219 01b1 6601     		.2byte	0x166
 2220 01b3 8C000000 		.4byte	0x8c
ARM GAS  C:\Users\brian\AppData\Local\Temp\cc2Kbm4j.s 			page 55


 2221 01b7 2A       		.byte	0x2a
 2222 01b8 07       		.uleb128 0x7
 2223 01b9 73000000 		.4byte	.LASF35
 2224 01bd 04       		.byte	0x4
 2225 01be 6701     		.2byte	0x167
 2226 01c0 8C000000 		.4byte	0x8c
 2227 01c4 2B       		.byte	0x2b
 2228 01c5 00       		.byte	0
 2229 01c6 03       		.uleb128 0x3
 2230 01c7 B6010000 		.4byte	.LASF36
 2231 01cb 04       		.byte	0x4
 2232 01cc CE       		.byte	0xce
 2233 01cd D1010000 		.4byte	0x1d1
 2234 01d1 08       		.uleb128 0x8
 2235 01d2 28030000 		.4byte	.LASF38
 2236 01d6 18       		.byte	0x18
 2237 01d7 04       		.byte	0x4
 2238 01d8 E7       		.byte	0xe7
 2239 01d9 CC020000 		.4byte	0x2cc
 2240 01dd 09       		.uleb128 0x9
 2241 01de 4C000000 		.4byte	.LASF39
 2242 01e2 04       		.byte	0x4
 2243 01e3 EB       		.byte	0xeb
 2244 01e4 8C000000 		.4byte	0x8c
 2245 01e8 00       		.byte	0
 2246 01e9 09       		.uleb128 0x9
 2247 01ea 90040000 		.4byte	.LASF40
 2248 01ee 04       		.byte	0x4
 2249 01ef EC       		.byte	0xec
 2250 01f0 8C000000 		.4byte	0x8c
 2251 01f4 01       		.byte	0x1
 2252 01f5 09       		.uleb128 0x9
 2253 01f6 59010000 		.4byte	.LASF41
 2254 01fa 04       		.byte	0x4
 2255 01fb EE       		.byte	0xee
 2256 01fc 8C000000 		.4byte	0x8c
 2257 0200 02       		.byte	0x2
 2258 0201 09       		.uleb128 0x9
 2259 0202 3D060000 		.4byte	.LASF42
 2260 0206 04       		.byte	0x4
 2261 0207 EF       		.byte	0xef
 2262 0208 8C000000 		.4byte	0x8c
 2263 020c 03       		.byte	0x3
 2264 020d 09       		.uleb128 0x9
 2265 020e 59030000 		.4byte	.LASF43
 2266 0212 04       		.byte	0x4
 2267 0213 F0       		.byte	0xf0
 2268 0214 8C000000 		.4byte	0x8c
 2269 0218 04       		.byte	0x4
 2270 0219 09       		.uleb128 0x9
 2271 021a C0000000 		.4byte	.LASF44
 2272 021e 04       		.byte	0x4
 2273 021f F1       		.byte	0xf1
 2274 0220 8C000000 		.4byte	0x8c
 2275 0224 05       		.byte	0x5
 2276 0225 09       		.uleb128 0x9
 2277 0226 AE000000 		.4byte	.LASF45
ARM GAS  C:\Users\brian\AppData\Local\Temp\cc2Kbm4j.s 			page 56


 2278 022a 04       		.byte	0x4
 2279 022b F8       		.byte	0xf8
 2280 022c 8C000000 		.4byte	0x8c
 2281 0230 06       		.byte	0x6
 2282 0231 09       		.uleb128 0x9
 2283 0232 06020000 		.4byte	.LASF46
 2284 0236 04       		.byte	0x4
 2285 0237 FC       		.byte	0xfc
 2286 0238 8C000000 		.4byte	0x8c
 2287 023c 07       		.byte	0x7
 2288 023d 09       		.uleb128 0x9
 2289 023e 8A030000 		.4byte	.LASF47
 2290 0242 04       		.byte	0x4
 2291 0243 FF       		.byte	0xff
 2292 0244 A2000000 		.4byte	0xa2
 2293 0248 08       		.byte	0x8
 2294 0249 07       		.uleb128 0x7
 2295 024a 3B000000 		.4byte	.LASF48
 2296 024e 04       		.byte	0x4
 2297 024f 0901     		.2byte	0x109
 2298 0251 8C000000 		.4byte	0x8c
 2299 0255 0C       		.byte	0xc
 2300 0256 07       		.uleb128 0x7
 2301 0257 75030000 		.4byte	.LASF49
 2302 025b 04       		.byte	0x4
 2303 025c 0C01     		.2byte	0x10c
 2304 025e 8C000000 		.4byte	0x8c
 2305 0262 0D       		.byte	0xd
 2306 0263 07       		.uleb128 0x7
 2307 0264 88020000 		.4byte	.LASF50
 2308 0268 04       		.byte	0x4
 2309 0269 1201     		.2byte	0x112
 2310 026b 8C000000 		.4byte	0x8c
 2311 026f 0E       		.byte	0xe
 2312 0270 07       		.uleb128 0x7
 2313 0271 3C010000 		.4byte	.LASF51
 2314 0275 04       		.byte	0x4
 2315 0276 1401     		.2byte	0x114
 2316 0278 8C000000 		.4byte	0x8c
 2317 027c 0F       		.byte	0xf
 2318 027d 07       		.uleb128 0x7
 2319 027e A3000000 		.4byte	.LASF52
 2320 0282 04       		.byte	0x4
 2321 0283 1701     		.2byte	0x117
 2322 0285 8C000000 		.4byte	0x8c
 2323 0289 10       		.byte	0x10
 2324 028a 07       		.uleb128 0x7
 2325 028b A7020000 		.4byte	.LASF53
 2326 028f 04       		.byte	0x4
 2327 0290 1801     		.2byte	0x118
 2328 0292 8C000000 		.4byte	0x8c
 2329 0296 11       		.byte	0x11
 2330 0297 07       		.uleb128 0x7
 2331 0298 A5010000 		.4byte	.LASF54
 2332 029c 04       		.byte	0x4
 2333 029d 1A01     		.2byte	0x11a
 2334 029f 8C000000 		.4byte	0x8c
ARM GAS  C:\Users\brian\AppData\Local\Temp\cc2Kbm4j.s 			page 57


 2335 02a3 12       		.byte	0x12
 2336 02a4 07       		.uleb128 0x7
 2337 02a5 F3040000 		.4byte	.LASF55
 2338 02a9 04       		.byte	0x4
 2339 02aa 1B01     		.2byte	0x11b
 2340 02ac 8C000000 		.4byte	0x8c
 2341 02b0 13       		.byte	0x13
 2342 02b1 07       		.uleb128 0x7
 2343 02b2 39040000 		.4byte	.LASF56
 2344 02b6 04       		.byte	0x4
 2345 02b7 2301     		.2byte	0x123
 2346 02b9 97000000 		.4byte	0x97
 2347 02bd 14       		.byte	0x14
 2348 02be 07       		.uleb128 0x7
 2349 02bf 03040000 		.4byte	.LASF57
 2350 02c3 04       		.byte	0x4
 2351 02c4 2401     		.2byte	0x124
 2352 02c6 97000000 		.4byte	0x97
 2353 02ca 16       		.byte	0x16
 2354 02cb 00       		.byte	0
 2355 02cc 03       		.uleb128 0x3
 2356 02cd 29060000 		.4byte	.LASF58
 2357 02d1 04       		.byte	0x4
 2358 02d2 D1       		.byte	0xd1
 2359 02d3 D7020000 		.4byte	0x2d7
 2360 02d7 0A       		.uleb128 0xa
 2361 02d8 04       		.byte	0x4
 2362 02d9 DD020000 		.4byte	0x2dd
 2363 02dd 0B       		.uleb128 0xb
 2364 02de 8C000000 		.4byte	0x8c
 2365 02e2 FB020000 		.4byte	0x2fb
 2366 02e6 0C       		.uleb128 0xc
 2367 02e7 FB020000 		.4byte	0x2fb
 2368 02eb 0C       		.uleb128 0xc
 2369 02ec 8C000000 		.4byte	0x8c
 2370 02f0 0C       		.uleb128 0xc
 2371 02f1 8C000000 		.4byte	0x8c
 2372 02f5 0C       		.uleb128 0xc
 2373 02f6 AD000000 		.4byte	0xad
 2374 02fa 00       		.byte	0
 2375 02fb 0A       		.uleb128 0xa
 2376 02fc 04       		.byte	0x4
 2377 02fd B6000000 		.4byte	0xb6
 2378 0301 03       		.uleb128 0x3
 2379 0302 AA030000 		.4byte	.LASF59
 2380 0306 04       		.byte	0x4
 2381 0307 D2       		.byte	0xd2
 2382 0308 0C030000 		.4byte	0x30c
 2383 030c 0A       		.uleb128 0xa
 2384 030d 04       		.byte	0x4
 2385 030e 12030000 		.4byte	0x312
 2386 0312 0B       		.uleb128 0xb
 2387 0313 97000000 		.4byte	0x97
 2388 0317 26030000 		.4byte	0x326
 2389 031b 0C       		.uleb128 0xc
 2390 031c FB020000 		.4byte	0x2fb
 2391 0320 0C       		.uleb128 0xc
ARM GAS  C:\Users\brian\AppData\Local\Temp\cc2Kbm4j.s 			page 58


 2392 0321 8C000000 		.4byte	0x8c
 2393 0325 00       		.byte	0
 2394 0326 0A       		.uleb128 0xa
 2395 0327 04       		.byte	0x4
 2396 0328 8C000000 		.4byte	0x8c
 2397 032c 0A       		.uleb128 0xa
 2398 032d 04       		.byte	0x4
 2399 032e 32030000 		.4byte	0x332
 2400 0332 0D       		.uleb128 0xd
 2401 0333 C6010000 		.4byte	0x1c6
 2402 0337 0A       		.uleb128 0xa
 2403 0338 04       		.byte	0x4
 2404 0339 3D030000 		.4byte	0x33d
 2405 033d 0D       		.uleb128 0xd
 2406 033e 8C000000 		.4byte	0x8c
 2407 0342 0E       		.uleb128 0xe
 2408 0343 5C040000 		.4byte	.LASF60
 2409 0347 01       		.byte	0x1
 2410 0348 CD01     		.2byte	0x1cd
 2411 034a 00000000 		.4byte	.LFB13
 2412 034e 0E000000 		.4byte	.LFE13-.LFB13
 2413 0352 01       		.uleb128 0x1
 2414 0353 9C       		.byte	0x9c
 2415 0354 80030000 		.4byte	0x380
 2416 0358 0F       		.uleb128 0xf
 2417 0359 7F010000 		.4byte	.LASF62
 2418 035d 01       		.byte	0x1
 2419 035e CD01     		.2byte	0x1cd
 2420 0360 FB020000 		.4byte	0x2fb
 2421 0364 00000000 		.4byte	.LLST0
 2422 0368 10       		.uleb128 0x10
 2423 0369 0C000000 		.4byte	.LVL1
 2424 036d D2160000 		.4byte	0x16d2
 2425 0371 11       		.uleb128 0x11
 2426 0372 01       		.uleb128 0x1
 2427 0373 50       		.byte	0x50
 2428 0374 03       		.uleb128 0x3
 2429 0375 F3       		.byte	0xf3
 2430 0376 01       		.uleb128 0x1
 2431 0377 50       		.byte	0x50
 2432 0378 11       		.uleb128 0x11
 2433 0379 01       		.uleb128 0x1
 2434 037a 51       		.byte	0x51
 2435 037b 02       		.uleb128 0x2
 2436 037c 08       		.byte	0x8
 2437 037d 2D       		.byte	0x2d
 2438 037e 00       		.byte	0
 2439 037f 00       		.byte	0
 2440 0380 0E       		.uleb128 0xe
 2441 0381 00000000 		.4byte	.LASF61
 2442 0385 01       		.byte	0x1
 2443 0386 D301     		.2byte	0x1d3
 2444 0388 00000000 		.4byte	.LFB14
 2445 038c 1E000000 		.4byte	.LFE14-.LFB14
 2446 0390 01       		.uleb128 0x1
 2447 0391 9C       		.byte	0x9c
 2448 0392 F5030000 		.4byte	0x3f5
ARM GAS  C:\Users\brian\AppData\Local\Temp\cc2Kbm4j.s 			page 59


 2449 0396 0F       		.uleb128 0xf
 2450 0397 7F010000 		.4byte	.LASF62
 2451 039b 01       		.byte	0x1
 2452 039c D301     		.2byte	0x1d3
 2453 039e FB020000 		.4byte	0x2fb
 2454 03a2 21000000 		.4byte	.LLST1
 2455 03a6 12       		.uleb128 0x12
 2456 03a7 0C000000 		.4byte	.LVL3
 2457 03ab D2160000 		.4byte	0x16d2
 2458 03af C5030000 		.4byte	0x3c5
 2459 03b3 11       		.uleb128 0x11
 2460 03b4 01       		.uleb128 0x1
 2461 03b5 50       		.byte	0x50
 2462 03b6 02       		.uleb128 0x2
 2463 03b7 74       		.byte	0x74
 2464 03b8 00       		.sleb128 0
 2465 03b9 11       		.uleb128 0x11
 2466 03ba 01       		.uleb128 0x1
 2467 03bb 51       		.byte	0x51
 2468 03bc 02       		.uleb128 0x2
 2469 03bd 08       		.byte	0x8
 2470 03be 4C       		.byte	0x4c
 2471 03bf 11       		.uleb128 0x11
 2472 03c0 01       		.uleb128 0x1
 2473 03c1 52       		.byte	0x52
 2474 03c2 01       		.uleb128 0x1
 2475 03c3 31       		.byte	0x31
 2476 03c4 00       		.byte	0
 2477 03c5 12       		.uleb128 0x12
 2478 03c6 16000000 		.4byte	.LVL4
 2479 03ca D2160000 		.4byte	0x16d2
 2480 03ce E4030000 		.4byte	0x3e4
 2481 03d2 11       		.uleb128 0x11
 2482 03d3 01       		.uleb128 0x1
 2483 03d4 50       		.byte	0x50
 2484 03d5 02       		.uleb128 0x2
 2485 03d6 74       		.byte	0x74
 2486 03d7 00       		.sleb128 0
 2487 03d8 11       		.uleb128 0x11
 2488 03d9 01       		.uleb128 0x1
 2489 03da 51       		.byte	0x51
 2490 03db 02       		.uleb128 0x2
 2491 03dc 08       		.byte	0x8
 2492 03dd 4D       		.byte	0x4d
 2493 03de 11       		.uleb128 0x11
 2494 03df 01       		.uleb128 0x1
 2495 03e0 52       		.byte	0x52
 2496 03e1 01       		.uleb128 0x1
 2497 03e2 31       		.byte	0x31
 2498 03e3 00       		.byte	0
 2499 03e4 10       		.uleb128 0x10
 2500 03e5 1C000000 		.4byte	.LVL5
 2501 03e9 42030000 		.4byte	0x342
 2502 03ed 11       		.uleb128 0x11
 2503 03ee 01       		.uleb128 0x1
 2504 03ef 50       		.byte	0x50
 2505 03f0 02       		.uleb128 0x2
ARM GAS  C:\Users\brian\AppData\Local\Temp\cc2Kbm4j.s 			page 60


 2506 03f1 74       		.byte	0x74
 2507 03f2 00       		.sleb128 0
 2508 03f3 00       		.byte	0
 2509 03f4 00       		.byte	0
 2510 03f5 0E       		.uleb128 0xe
 2511 03f6 EC030000 		.4byte	.LASF63
 2512 03fa 01       		.byte	0x1
 2513 03fb DD01     		.2byte	0x1dd
 2514 03fd 00000000 		.4byte	.LFB15
 2515 0401 14000000 		.4byte	.LFE15-.LFB15
 2516 0405 01       		.uleb128 0x1
 2517 0406 9C       		.byte	0x9c
 2518 0407 4B040000 		.4byte	0x44b
 2519 040b 0F       		.uleb128 0xf
 2520 040c 7F010000 		.4byte	.LASF62
 2521 0410 01       		.byte	0x1
 2522 0411 DD01     		.2byte	0x1dd
 2523 0413 FB020000 		.4byte	0x2fb
 2524 0417 3F000000 		.4byte	.LLST2
 2525 041b 12       		.uleb128 0x12
 2526 041c 0C000000 		.4byte	.LVL7
 2527 0420 D2160000 		.4byte	0x16d2
 2528 0424 3A040000 		.4byte	0x43a
 2529 0428 11       		.uleb128 0x11
 2530 0429 01       		.uleb128 0x1
 2531 042a 50       		.byte	0x50
 2532 042b 02       		.uleb128 0x2
 2533 042c 74       		.byte	0x74
 2534 042d 00       		.sleb128 0
 2535 042e 11       		.uleb128 0x11
 2536 042f 01       		.uleb128 0x1
 2537 0430 51       		.byte	0x51
 2538 0431 02       		.uleb128 0x2
 2539 0432 08       		.byte	0x8
 2540 0433 4C       		.byte	0x4c
 2541 0434 11       		.uleb128 0x11
 2542 0435 01       		.uleb128 0x1
 2543 0436 52       		.byte	0x52
 2544 0437 01       		.uleb128 0x1
 2545 0438 31       		.byte	0x31
 2546 0439 00       		.byte	0
 2547 043a 10       		.uleb128 0x10
 2548 043b 12000000 		.4byte	.LVL8
 2549 043f 42030000 		.4byte	0x342
 2550 0443 11       		.uleb128 0x11
 2551 0444 01       		.uleb128 0x1
 2552 0445 50       		.byte	0x50
 2553 0446 02       		.uleb128 0x2
 2554 0447 74       		.byte	0x74
 2555 0448 00       		.sleb128 0
 2556 0449 00       		.byte	0
 2557 044a 00       		.byte	0
 2558 044b 0E       		.uleb128 0xe
 2559 044c 72010000 		.4byte	.LASF64
 2560 0450 01       		.byte	0x1
 2561 0451 EA01     		.2byte	0x1ea
 2562 0453 00000000 		.4byte	.LFB17
ARM GAS  C:\Users\brian\AppData\Local\Temp\cc2Kbm4j.s 			page 61


 2563 0457 0C000000 		.4byte	.LFE17-.LFB17
 2564 045b 01       		.uleb128 0x1
 2565 045c 9C       		.byte	0x9c
 2566 045d 8E040000 		.4byte	0x48e
 2567 0461 0F       		.uleb128 0xf
 2568 0462 7F010000 		.4byte	.LASF62
 2569 0466 01       		.byte	0x1
 2570 0467 EA01     		.2byte	0x1ea
 2571 0469 FB020000 		.4byte	0x2fb
 2572 046d 5D000000 		.4byte	.LLST3
 2573 0471 10       		.uleb128 0x10
 2574 0472 0A000000 		.4byte	.LVL10
 2575 0476 D2160000 		.4byte	0x16d2
 2576 047a 11       		.uleb128 0x11
 2577 047b 01       		.uleb128 0x1
 2578 047c 50       		.byte	0x50
 2579 047d 03       		.uleb128 0x3
 2580 047e F3       		.byte	0xf3
 2581 047f 01       		.uleb128 0x1
 2582 0480 50       		.byte	0x50
 2583 0481 11       		.uleb128 0x11
 2584 0482 01       		.uleb128 0x1
 2585 0483 51       		.byte	0x51
 2586 0484 02       		.uleb128 0x2
 2587 0485 08       		.byte	0x8
 2588 0486 4D       		.byte	0x4d
 2589 0487 11       		.uleb128 0x11
 2590 0488 01       		.uleb128 0x1
 2591 0489 52       		.byte	0x52
 2592 048a 01       		.uleb128 0x1
 2593 048b 31       		.byte	0x31
 2594 048c 00       		.byte	0
 2595 048d 00       		.byte	0
 2596 048e 0E       		.uleb128 0xe
 2597 048f D3000000 		.4byte	.LASF65
 2598 0493 01       		.byte	0x1
 2599 0494 F001     		.2byte	0x1f0
 2600 0496 00000000 		.4byte	.LFB18
 2601 049a 0C000000 		.4byte	.LFE18-.LFB18
 2602 049e 01       		.uleb128 0x1
 2603 049f 9C       		.byte	0x9c
 2604 04a0 D1040000 		.4byte	0x4d1
 2605 04a4 0F       		.uleb128 0xf
 2606 04a5 7F010000 		.4byte	.LASF62
 2607 04a9 01       		.byte	0x1
 2608 04aa F001     		.2byte	0x1f0
 2609 04ac FB020000 		.4byte	0x2fb
 2610 04b0 7E000000 		.4byte	.LLST4
 2611 04b4 10       		.uleb128 0x10
 2612 04b5 0A000000 		.4byte	.LVL12
 2613 04b9 D2160000 		.4byte	0x16d2
 2614 04bd 11       		.uleb128 0x11
 2615 04be 01       		.uleb128 0x1
 2616 04bf 50       		.byte	0x50
 2617 04c0 03       		.uleb128 0x3
 2618 04c1 F3       		.byte	0xf3
 2619 04c2 01       		.uleb128 0x1
ARM GAS  C:\Users\brian\AppData\Local\Temp\cc2Kbm4j.s 			page 62


 2620 04c3 50       		.byte	0x50
 2621 04c4 11       		.uleb128 0x11
 2622 04c5 01       		.uleb128 0x1
 2623 04c6 51       		.byte	0x51
 2624 04c7 02       		.uleb128 0x2
 2625 04c8 08       		.byte	0x8
 2626 04c9 4D       		.byte	0x4d
 2627 04ca 11       		.uleb128 0x11
 2628 04cb 01       		.uleb128 0x1
 2629 04cc 52       		.byte	0x52
 2630 04cd 01       		.uleb128 0x1
 2631 04ce 30       		.byte	0x30
 2632 04cf 00       		.byte	0
 2633 04d0 00       		.byte	0
 2634 04d1 0E       		.uleb128 0xe
 2635 04d2 5B020000 		.4byte	.LASF66
 2636 04d6 01       		.byte	0x1
 2637 04d7 0802     		.2byte	0x208
 2638 04d9 00000000 		.4byte	.LFB20
 2639 04dd 28000000 		.4byte	.LFE20-.LFB20
 2640 04e1 01       		.uleb128 0x1
 2641 04e2 9C       		.byte	0x9c
 2642 04e3 58050000 		.4byte	0x558
 2643 04e7 0F       		.uleb128 0xf
 2644 04e8 7F010000 		.4byte	.LASF62
 2645 04ec 01       		.byte	0x1
 2646 04ed 0802     		.2byte	0x208
 2647 04ef FB020000 		.4byte	0x2fb
 2648 04f3 9F000000 		.4byte	.LLST5
 2649 04f7 12       		.uleb128 0x12
 2650 04f8 08000000 		.4byte	.LVL14
 2651 04fc 8E040000 		.4byte	0x48e
 2652 0500 0B050000 		.4byte	0x50b
 2653 0504 11       		.uleb128 0x11
 2654 0505 01       		.uleb128 0x1
 2655 0506 50       		.byte	0x50
 2656 0507 02       		.uleb128 0x2
 2657 0508 74       		.byte	0x74
 2658 0509 00       		.sleb128 0
 2659 050a 00       		.byte	0
 2660 050b 12       		.uleb128 0x12
 2661 050c 0E000000 		.4byte	.LVL15
 2662 0510 42030000 		.4byte	0x342
 2663 0514 1F050000 		.4byte	0x51f
 2664 0518 11       		.uleb128 0x11
 2665 0519 01       		.uleb128 0x1
 2666 051a 50       		.byte	0x50
 2667 051b 02       		.uleb128 0x2
 2668 051c 74       		.byte	0x74
 2669 051d 00       		.sleb128 0
 2670 051e 00       		.byte	0
 2671 051f 12       		.uleb128 0x12
 2672 0520 14000000 		.4byte	.LVL16
 2673 0524 F5030000 		.4byte	0x3f5
 2674 0528 33050000 		.4byte	0x533
 2675 052c 11       		.uleb128 0x11
 2676 052d 01       		.uleb128 0x1
ARM GAS  C:\Users\brian\AppData\Local\Temp\cc2Kbm4j.s 			page 63


 2677 052e 50       		.byte	0x50
 2678 052f 02       		.uleb128 0x2
 2679 0530 74       		.byte	0x74
 2680 0531 00       		.sleb128 0
 2681 0532 00       		.byte	0
 2682 0533 12       		.uleb128 0x12
 2683 0534 1A000000 		.4byte	.LVL17
 2684 0538 4B040000 		.4byte	0x44b
 2685 053c 47050000 		.4byte	0x547
 2686 0540 11       		.uleb128 0x11
 2687 0541 01       		.uleb128 0x1
 2688 0542 50       		.byte	0x50
 2689 0543 02       		.uleb128 0x2
 2690 0544 74       		.byte	0x74
 2691 0545 00       		.sleb128 0
 2692 0546 00       		.byte	0
 2693 0547 10       		.uleb128 0x10
 2694 0548 20000000 		.4byte	.LVL18
 2695 054c 42030000 		.4byte	0x342
 2696 0550 11       		.uleb128 0x11
 2697 0551 01       		.uleb128 0x1
 2698 0552 50       		.byte	0x50
 2699 0553 02       		.uleb128 0x2
 2700 0554 74       		.byte	0x74
 2701 0555 00       		.sleb128 0
 2702 0556 00       		.byte	0
 2703 0557 00       		.byte	0
 2704 0558 0E       		.uleb128 0xe
 2705 0559 05050000 		.4byte	.LASF67
 2706 055d 01       		.byte	0x1
 2707 055e E501     		.2byte	0x1e5
 2708 0560 00000000 		.4byte	.LFB16
 2709 0564 0C000000 		.4byte	.LFE16-.LFB16
 2710 0568 01       		.uleb128 0x1
 2711 0569 9C       		.byte	0x9c
 2712 056a 9B050000 		.4byte	0x59b
 2713 056e 0F       		.uleb128 0xf
 2714 056f 7F010000 		.4byte	.LASF62
 2715 0573 01       		.byte	0x1
 2716 0574 E501     		.2byte	0x1e5
 2717 0576 FB020000 		.4byte	0x2fb
 2718 057a BD000000 		.4byte	.LLST6
 2719 057e 10       		.uleb128 0x10
 2720 057f 0A000000 		.4byte	.LVL20
 2721 0583 D2160000 		.4byte	0x16d2
 2722 0587 11       		.uleb128 0x11
 2723 0588 01       		.uleb128 0x1
 2724 0589 50       		.byte	0x50
 2725 058a 03       		.uleb128 0x3
 2726 058b F3       		.byte	0xf3
 2727 058c 01       		.uleb128 0x1
 2728 058d 50       		.byte	0x50
 2729 058e 11       		.uleb128 0x11
 2730 058f 01       		.uleb128 0x1
 2731 0590 51       		.byte	0x51
 2732 0591 02       		.uleb128 0x2
 2733 0592 08       		.byte	0x8
ARM GAS  C:\Users\brian\AppData\Local\Temp\cc2Kbm4j.s 			page 64


 2734 0593 4C       		.byte	0x4c
 2735 0594 11       		.uleb128 0x11
 2736 0595 01       		.uleb128 0x1
 2737 0596 52       		.byte	0x52
 2738 0597 01       		.uleb128 0x1
 2739 0598 30       		.byte	0x30
 2740 0599 00       		.byte	0
 2741 059a 00       		.byte	0
 2742 059b 0E       		.uleb128 0xe
 2743 059c FC010000 		.4byte	.LASF68
 2744 05a0 01       		.byte	0x1
 2745 05a1 F601     		.2byte	0x1f6
 2746 05a3 00000000 		.4byte	.LFB19
 2747 05a7 3A000000 		.4byte	.LFE19-.LFB19
 2748 05ab 01       		.uleb128 0x1
 2749 05ac 9C       		.byte	0x9c
 2750 05ad 4A060000 		.4byte	0x64a
 2751 05b1 0F       		.uleb128 0xf
 2752 05b2 7F010000 		.4byte	.LASF62
 2753 05b6 01       		.byte	0x1
 2754 05b7 F601     		.2byte	0x1f6
 2755 05b9 FB020000 		.4byte	0x2fb
 2756 05bd DE000000 		.4byte	.LLST7
 2757 05c1 12       		.uleb128 0x12
 2758 05c2 0E000000 		.4byte	.LVL22
 2759 05c6 4B040000 		.4byte	0x44b
 2760 05ca D5050000 		.4byte	0x5d5
 2761 05ce 11       		.uleb128 0x11
 2762 05cf 01       		.uleb128 0x1
 2763 05d0 50       		.byte	0x50
 2764 05d1 02       		.uleb128 0x2
 2765 05d2 74       		.byte	0x74
 2766 05d3 00       		.sleb128 0
 2767 05d4 00       		.byte	0
 2768 05d5 12       		.uleb128 0x12
 2769 05d6 14000000 		.4byte	.LVL23
 2770 05da 42030000 		.4byte	0x342
 2771 05de E9050000 		.4byte	0x5e9
 2772 05e2 11       		.uleb128 0x11
 2773 05e3 01       		.uleb128 0x1
 2774 05e4 50       		.byte	0x50
 2775 05e5 02       		.uleb128 0x2
 2776 05e6 74       		.byte	0x74
 2777 05e7 00       		.sleb128 0
 2778 05e8 00       		.byte	0
 2779 05e9 12       		.uleb128 0x12
 2780 05ea 1A000000 		.4byte	.LVL24
 2781 05ee F5030000 		.4byte	0x3f5
 2782 05f2 FD050000 		.4byte	0x5fd
 2783 05f6 11       		.uleb128 0x11
 2784 05f7 01       		.uleb128 0x1
 2785 05f8 50       		.byte	0x50
 2786 05f9 02       		.uleb128 0x2
 2787 05fa 74       		.byte	0x74
 2788 05fb 00       		.sleb128 0
 2789 05fc 00       		.byte	0
 2790 05fd 12       		.uleb128 0x12
ARM GAS  C:\Users\brian\AppData\Local\Temp\cc2Kbm4j.s 			page 65


 2791 05fe 20000000 		.4byte	.LVL25
 2792 0602 4B040000 		.4byte	0x44b
 2793 0606 11060000 		.4byte	0x611
 2794 060a 11       		.uleb128 0x11
 2795 060b 01       		.uleb128 0x1
 2796 060c 50       		.byte	0x50
 2797 060d 02       		.uleb128 0x2
 2798 060e 74       		.byte	0x74
 2799 060f 00       		.sleb128 0
 2800 0610 00       		.byte	0
 2801 0611 12       		.uleb128 0x12
 2802 0612 26000000 		.4byte	.LVL26
 2803 0616 8E040000 		.4byte	0x48e
 2804 061a 25060000 		.4byte	0x625
 2805 061e 11       		.uleb128 0x11
 2806 061f 01       		.uleb128 0x1
 2807 0620 50       		.byte	0x50
 2808 0621 02       		.uleb128 0x2
 2809 0622 74       		.byte	0x74
 2810 0623 00       		.sleb128 0
 2811 0624 00       		.byte	0
 2812 0625 12       		.uleb128 0x12
 2813 0626 2C000000 		.4byte	.LVL27
 2814 062a 42030000 		.4byte	0x342
 2815 062e 39060000 		.4byte	0x639
 2816 0632 11       		.uleb128 0x11
 2817 0633 01       		.uleb128 0x1
 2818 0634 50       		.byte	0x50
 2819 0635 02       		.uleb128 0x2
 2820 0636 74       		.byte	0x74
 2821 0637 00       		.sleb128 0
 2822 0638 00       		.byte	0
 2823 0639 10       		.uleb128 0x10
 2824 063a 32000000 		.4byte	.LVL28
 2825 063e 58050000 		.4byte	0x558
 2826 0642 11       		.uleb128 0x11
 2827 0643 01       		.uleb128 0x1
 2828 0644 50       		.byte	0x50
 2829 0645 02       		.uleb128 0x2
 2830 0646 74       		.byte	0x74
 2831 0647 00       		.sleb128 0
 2832 0648 00       		.byte	0
 2833 0649 00       		.byte	0
 2834 064a 0E       		.uleb128 0xe
 2835 064b A3040000 		.4byte	.LASF69
 2836 064f 01       		.byte	0x1
 2837 0650 1702     		.2byte	0x217
 2838 0652 00000000 		.4byte	.LFB21
 2839 0656 24000000 		.4byte	.LFE21-.LFB21
 2840 065a 01       		.uleb128 0x1
 2841 065b 9C       		.byte	0x9c
 2842 065c D6060000 		.4byte	0x6d6
 2843 0660 0F       		.uleb128 0xf
 2844 0661 7F010000 		.4byte	.LASF62
 2845 0665 01       		.byte	0x1
 2846 0666 1702     		.2byte	0x217
 2847 0668 FB020000 		.4byte	0x2fb
ARM GAS  C:\Users\brian\AppData\Local\Temp\cc2Kbm4j.s 			page 66


 2848 066c FC000000 		.4byte	.LLST8
 2849 0670 13       		.uleb128 0x13
 2850 0671 76616C00 		.ascii	"val\000"
 2851 0675 01       		.byte	0x1
 2852 0676 1702     		.2byte	0x217
 2853 0678 8C000000 		.4byte	0x8c
 2854 067c 30010000 		.4byte	.LLST9
 2855 0680 12       		.uleb128 0x12
 2856 0681 0A000000 		.4byte	.LVL30
 2857 0685 4B040000 		.4byte	0x44b
 2858 0689 94060000 		.4byte	0x694
 2859 068d 11       		.uleb128 0x11
 2860 068e 01       		.uleb128 0x1
 2861 068f 50       		.byte	0x50
 2862 0690 02       		.uleb128 0x2
 2863 0691 74       		.byte	0x74
 2864 0692 00       		.sleb128 0
 2865 0693 00       		.byte	0
 2866 0694 14       		.uleb128 0x14
 2867 0695 10000000 		.4byte	.LVL32
 2868 0699 8E040000 		.4byte	0x48e
 2869 069d 12       		.uleb128 0x12
 2870 069e 16000000 		.4byte	.LVL33
 2871 06a2 42030000 		.4byte	0x342
 2872 06a6 B1060000 		.4byte	0x6b1
 2873 06aa 11       		.uleb128 0x11
 2874 06ab 01       		.uleb128 0x1
 2875 06ac 50       		.byte	0x50
 2876 06ad 02       		.uleb128 0x2
 2877 06ae 74       		.byte	0x74
 2878 06af 00       		.sleb128 0
 2879 06b0 00       		.byte	0
 2880 06b1 12       		.uleb128 0x12
 2881 06b2 1C000000 		.4byte	.LVL34
 2882 06b6 F5030000 		.4byte	0x3f5
 2883 06ba C5060000 		.4byte	0x6c5
 2884 06be 11       		.uleb128 0x11
 2885 06bf 01       		.uleb128 0x1
 2886 06c0 50       		.byte	0x50
 2887 06c1 02       		.uleb128 0x2
 2888 06c2 74       		.byte	0x74
 2889 06c3 00       		.sleb128 0
 2890 06c4 00       		.byte	0
 2891 06c5 10       		.uleb128 0x10
 2892 06c6 22000000 		.4byte	.LVL35
 2893 06ca 58050000 		.4byte	0x558
 2894 06ce 11       		.uleb128 0x11
 2895 06cf 01       		.uleb128 0x1
 2896 06d0 50       		.byte	0x50
 2897 06d1 02       		.uleb128 0x2
 2898 06d2 74       		.byte	0x74
 2899 06d3 00       		.sleb128 0
 2900 06d4 00       		.byte	0
 2901 06d5 00       		.byte	0
 2902 06d6 0E       		.uleb128 0xe
 2903 06d7 22020000 		.4byte	.LASF70
 2904 06db 01       		.byte	0x1
ARM GAS  C:\Users\brian\AppData\Local\Temp\cc2Kbm4j.s 			page 67


 2905 06dc 2302     		.2byte	0x223
 2906 06de 00000000 		.4byte	.LFB22
 2907 06e2 28000000 		.4byte	.LFE22-.LFB22
 2908 06e6 01       		.uleb128 0x1
 2909 06e7 9C       		.byte	0x9c
 2910 06e8 71070000 		.4byte	0x771
 2911 06ec 0F       		.uleb128 0xf
 2912 06ed 7F010000 		.4byte	.LASF62
 2913 06f1 01       		.byte	0x1
 2914 06f2 2302     		.2byte	0x223
 2915 06f4 FB020000 		.4byte	0x2fb
 2916 06f8 6A010000 		.4byte	.LLST10
 2917 06fc 12       		.uleb128 0x12
 2918 06fd 08000000 		.4byte	.LVL37
 2919 0701 4B040000 		.4byte	0x44b
 2920 0705 10070000 		.4byte	0x710
 2921 0709 11       		.uleb128 0x11
 2922 070a 01       		.uleb128 0x1
 2923 070b 50       		.byte	0x50
 2924 070c 02       		.uleb128 0x2
 2925 070d 74       		.byte	0x74
 2926 070e 00       		.sleb128 0
 2927 070f 00       		.byte	0
 2928 0710 12       		.uleb128 0x12
 2929 0711 0E000000 		.4byte	.LVL38
 2930 0715 42030000 		.4byte	0x342
 2931 0719 24070000 		.4byte	0x724
 2932 071d 11       		.uleb128 0x11
 2933 071e 01       		.uleb128 0x1
 2934 071f 50       		.byte	0x50
 2935 0720 02       		.uleb128 0x2
 2936 0721 74       		.byte	0x74
 2937 0722 00       		.sleb128 0
 2938 0723 00       		.byte	0
 2939 0724 12       		.uleb128 0x12
 2940 0725 14000000 		.4byte	.LVL39
 2941 0729 F5030000 		.4byte	0x3f5
 2942 072d 38070000 		.4byte	0x738
 2943 0731 11       		.uleb128 0x11
 2944 0732 01       		.uleb128 0x1
 2945 0733 50       		.byte	0x50
 2946 0734 02       		.uleb128 0x2
 2947 0735 74       		.byte	0x74
 2948 0736 00       		.sleb128 0
 2949 0737 00       		.byte	0
 2950 0738 12       		.uleb128 0x12
 2951 0739 1A000000 		.4byte	.LVL40
 2952 073d 4B040000 		.4byte	0x44b
 2953 0741 4C070000 		.4byte	0x74c
 2954 0745 11       		.uleb128 0x11
 2955 0746 01       		.uleb128 0x1
 2956 0747 50       		.byte	0x50
 2957 0748 02       		.uleb128 0x2
 2958 0749 74       		.byte	0x74
 2959 074a 00       		.sleb128 0
 2960 074b 00       		.byte	0
 2961 074c 12       		.uleb128 0x12
ARM GAS  C:\Users\brian\AppData\Local\Temp\cc2Kbm4j.s 			page 68


 2962 074d 20000000 		.4byte	.LVL41
 2963 0751 42030000 		.4byte	0x342
 2964 0755 60070000 		.4byte	0x760
 2965 0759 11       		.uleb128 0x11
 2966 075a 01       		.uleb128 0x1
 2967 075b 50       		.byte	0x50
 2968 075c 02       		.uleb128 0x2
 2969 075d 74       		.byte	0x74
 2970 075e 00       		.sleb128 0
 2971 075f 00       		.byte	0
 2972 0760 10       		.uleb128 0x10
 2973 0761 26000000 		.4byte	.LVL42
 2974 0765 58050000 		.4byte	0x558
 2975 0769 11       		.uleb128 0x11
 2976 076a 01       		.uleb128 0x1
 2977 076b 50       		.byte	0x50
 2978 076c 02       		.uleb128 0x2
 2979 076d 74       		.byte	0x74
 2980 076e 00       		.sleb128 0
 2981 076f 00       		.byte	0
 2982 0770 00       		.byte	0
 2983 0771 0E       		.uleb128 0xe
 2984 0772 EC000000 		.4byte	.LASF71
 2985 0776 01       		.byte	0x1
 2986 0777 3002     		.2byte	0x230
 2987 0779 00000000 		.4byte	.LFB23
 2988 077d 5C000000 		.4byte	.LFE23-.LFB23
 2989 0781 01       		.uleb128 0x1
 2990 0782 9C       		.byte	0x9c
 2991 0783 99080000 		.4byte	0x899
 2992 0787 0F       		.uleb128 0xf
 2993 0788 7F010000 		.4byte	.LASF62
 2994 078c 01       		.byte	0x1
 2995 078d 3002     		.2byte	0x230
 2996 078f FB020000 		.4byte	0x2fb
 2997 0793 88010000 		.4byte	.LLST11
 2998 0797 13       		.uleb128 0x13
 2999 0798 6200     		.ascii	"b\000"
 3000 079a 01       		.byte	0x1
 3001 079b 3002     		.2byte	0x230
 3002 079d 8C000000 		.4byte	0x8c
 3003 07a1 A6010000 		.4byte	.LLST12
 3004 07a5 12       		.uleb128 0x12
 3005 07a6 0E000000 		.4byte	.LVL45
 3006 07aa 4A060000 		.4byte	0x64a
 3007 07ae C2070000 		.4byte	0x7c2
 3008 07b2 11       		.uleb128 0x11
 3009 07b3 01       		.uleb128 0x1
 3010 07b4 50       		.byte	0x50
 3011 07b5 02       		.uleb128 0x2
 3012 07b6 74       		.byte	0x74
 3013 07b7 00       		.sleb128 0
 3014 07b8 11       		.uleb128 0x11
 3015 07b9 01       		.uleb128 0x1
 3016 07ba 51       		.byte	0x51
 3017 07bb 05       		.uleb128 0x5
 3018 07bc 75       		.byte	0x75
ARM GAS  C:\Users\brian\AppData\Local\Temp\cc2Kbm4j.s 			page 69


 3019 07bd 00       		.sleb128 0
 3020 07be 08       		.byte	0x8
 3021 07bf 80       		.byte	0x80
 3022 07c0 1A       		.byte	0x1a
 3023 07c1 00       		.byte	0
 3024 07c2 12       		.uleb128 0x12
 3025 07c3 18000000 		.4byte	.LVL46
 3026 07c7 4A060000 		.4byte	0x64a
 3027 07cb DF070000 		.4byte	0x7df
 3028 07cf 11       		.uleb128 0x11
 3029 07d0 01       		.uleb128 0x1
 3030 07d1 50       		.byte	0x50
 3031 07d2 02       		.uleb128 0x2
 3032 07d3 74       		.byte	0x74
 3033 07d4 00       		.sleb128 0
 3034 07d5 11       		.uleb128 0x11
 3035 07d6 01       		.uleb128 0x1
 3036 07d7 51       		.byte	0x51
 3037 07d8 05       		.uleb128 0x5
 3038 07d9 75       		.byte	0x75
 3039 07da 00       		.sleb128 0
 3040 07db 08       		.byte	0x8
 3041 07dc 40       		.byte	0x40
 3042 07dd 1A       		.byte	0x1a
 3043 07de 00       		.byte	0
 3044 07df 12       		.uleb128 0x12
 3045 07e0 22000000 		.4byte	.LVL47
 3046 07e4 4A060000 		.4byte	0x64a
 3047 07e8 FC070000 		.4byte	0x7fc
 3048 07ec 11       		.uleb128 0x11
 3049 07ed 01       		.uleb128 0x1
 3050 07ee 50       		.byte	0x50
 3051 07ef 02       		.uleb128 0x2
 3052 07f0 74       		.byte	0x74
 3053 07f1 00       		.sleb128 0
 3054 07f2 11       		.uleb128 0x11
 3055 07f3 01       		.uleb128 0x1
 3056 07f4 51       		.byte	0x51
 3057 07f5 05       		.uleb128 0x5
 3058 07f6 75       		.byte	0x75
 3059 07f7 00       		.sleb128 0
 3060 07f8 08       		.byte	0x8
 3061 07f9 20       		.byte	0x20
 3062 07fa 1A       		.byte	0x1a
 3063 07fb 00       		.byte	0
 3064 07fc 12       		.uleb128 0x12
 3065 07fd 2C000000 		.4byte	.LVL48
 3066 0801 4A060000 		.4byte	0x64a
 3067 0805 18080000 		.4byte	0x818
 3068 0809 11       		.uleb128 0x11
 3069 080a 01       		.uleb128 0x1
 3070 080b 50       		.byte	0x50
 3071 080c 02       		.uleb128 0x2
 3072 080d 74       		.byte	0x74
 3073 080e 00       		.sleb128 0
 3074 080f 11       		.uleb128 0x11
 3075 0810 01       		.uleb128 0x1
ARM GAS  C:\Users\brian\AppData\Local\Temp\cc2Kbm4j.s 			page 70


 3076 0811 51       		.byte	0x51
 3077 0812 04       		.uleb128 0x4
 3078 0813 75       		.byte	0x75
 3079 0814 00       		.sleb128 0
 3080 0815 40       		.byte	0x40
 3081 0816 1A       		.byte	0x1a
 3082 0817 00       		.byte	0
 3083 0818 12       		.uleb128 0x12
 3084 0819 36000000 		.4byte	.LVL49
 3085 081d 4A060000 		.4byte	0x64a
 3086 0821 34080000 		.4byte	0x834
 3087 0825 11       		.uleb128 0x11
 3088 0826 01       		.uleb128 0x1
 3089 0827 50       		.byte	0x50
 3090 0828 02       		.uleb128 0x2
 3091 0829 74       		.byte	0x74
 3092 082a 00       		.sleb128 0
 3093 082b 11       		.uleb128 0x11
 3094 082c 01       		.uleb128 0x1
 3095 082d 51       		.byte	0x51
 3096 082e 04       		.uleb128 0x4
 3097 082f 75       		.byte	0x75
 3098 0830 00       		.sleb128 0
 3099 0831 38       		.byte	0x38
 3100 0832 1A       		.byte	0x1a
 3101 0833 00       		.byte	0
 3102 0834 12       		.uleb128 0x12
 3103 0835 40000000 		.4byte	.LVL50
 3104 0839 4A060000 		.4byte	0x64a
 3105 083d 50080000 		.4byte	0x850
 3106 0841 11       		.uleb128 0x11
 3107 0842 01       		.uleb128 0x1
 3108 0843 50       		.byte	0x50
 3109 0844 02       		.uleb128 0x2
 3110 0845 74       		.byte	0x74
 3111 0846 00       		.sleb128 0
 3112 0847 11       		.uleb128 0x11
 3113 0848 01       		.uleb128 0x1
 3114 0849 51       		.byte	0x51
 3115 084a 04       		.uleb128 0x4
 3116 084b 75       		.byte	0x75
 3117 084c 00       		.sleb128 0
 3118 084d 34       		.byte	0x34
 3119 084e 1A       		.byte	0x1a
 3120 084f 00       		.byte	0
 3121 0850 12       		.uleb128 0x12
 3122 0851 4A000000 		.4byte	.LVL51
 3123 0855 4A060000 		.4byte	0x64a
 3124 0859 6C080000 		.4byte	0x86c
 3125 085d 11       		.uleb128 0x11
 3126 085e 01       		.uleb128 0x1
 3127 085f 50       		.byte	0x50
 3128 0860 02       		.uleb128 0x2
 3129 0861 74       		.byte	0x74
 3130 0862 00       		.sleb128 0
 3131 0863 11       		.uleb128 0x11
 3132 0864 01       		.uleb128 0x1
ARM GAS  C:\Users\brian\AppData\Local\Temp\cc2Kbm4j.s 			page 71


 3133 0865 51       		.byte	0x51
 3134 0866 04       		.uleb128 0x4
 3135 0867 75       		.byte	0x75
 3136 0868 00       		.sleb128 0
 3137 0869 32       		.byte	0x32
 3138 086a 1A       		.byte	0x1a
 3139 086b 00       		.byte	0
 3140 086c 12       		.uleb128 0x12
 3141 086d 54000000 		.4byte	.LVL52
 3142 0871 4A060000 		.4byte	0x64a
 3143 0875 88080000 		.4byte	0x888
 3144 0879 11       		.uleb128 0x11
 3145 087a 01       		.uleb128 0x1
 3146 087b 50       		.byte	0x50
 3147 087c 02       		.uleb128 0x2
 3148 087d 74       		.byte	0x74
 3149 087e 00       		.sleb128 0
 3150 087f 11       		.uleb128 0x11
 3151 0880 01       		.uleb128 0x1
 3152 0881 51       		.byte	0x51
 3153 0882 04       		.uleb128 0x4
 3154 0883 75       		.byte	0x75
 3155 0884 00       		.sleb128 0
 3156 0885 31       		.byte	0x31
 3157 0886 1A       		.byte	0x1a
 3158 0887 00       		.byte	0
 3159 0888 10       		.uleb128 0x10
 3160 0889 5A000000 		.4byte	.LVL53
 3161 088d D6060000 		.4byte	0x6d6
 3162 0891 11       		.uleb128 0x11
 3163 0892 01       		.uleb128 0x1
 3164 0893 50       		.byte	0x50
 3165 0894 02       		.uleb128 0x2
 3166 0895 74       		.byte	0x74
 3167 0896 00       		.sleb128 0
 3168 0897 00       		.byte	0
 3169 0898 00       		.byte	0
 3170 0899 15       		.uleb128 0x15
 3171 089a 5E000000 		.4byte	.LASF72
 3172 089e 01       		.byte	0x1
 3173 089f 27       		.byte	0x27
 3174 08a0 8C000000 		.4byte	0x8c
 3175 08a4 00000000 		.4byte	.LFB0
 3176 08a8 0E000000 		.4byte	.LFE0-.LFB0
 3177 08ac 01       		.uleb128 0x1
 3178 08ad 9C       		.byte	0x9c
 3179 08ae EB080000 		.4byte	0x8eb
 3180 08b2 16       		.uleb128 0x16
 3181 08b3 7F010000 		.4byte	.LASF62
 3182 08b7 01       		.byte	0x1
 3183 08b8 27       		.byte	0x27
 3184 08b9 FB020000 		.4byte	0x2fb
 3185 08bd C7010000 		.4byte	.LLST13
 3186 08c1 17       		.uleb128 0x17
 3187 08c2 646300   		.ascii	"dc\000"
 3188 08c5 01       		.byte	0x1
 3189 08c6 27       		.byte	0x27
ARM GAS  C:\Users\brian\AppData\Local\Temp\cc2Kbm4j.s 			page 72


 3190 08c7 8C000000 		.4byte	0x8c
 3191 08cb E8010000 		.4byte	.LLST14
 3192 08cf 18       		.uleb128 0x18
 3193 08d0 0C000000 		.4byte	.LVL56
 3194 08d4 02       		.uleb128 0x2
 3195 08d5 74       		.byte	0x74
 3196 08d6 00       		.sleb128 0
 3197 08d7 11       		.uleb128 0x11
 3198 08d8 01       		.uleb128 0x1
 3199 08d9 50       		.byte	0x50
 3200 08da 03       		.uleb128 0x3
 3201 08db F3       		.byte	0xf3
 3202 08dc 01       		.uleb128 0x1
 3203 08dd 50       		.byte	0x50
 3204 08de 11       		.uleb128 0x11
 3205 08df 01       		.uleb128 0x1
 3206 08e0 51       		.byte	0x51
 3207 08e1 02       		.uleb128 0x2
 3208 08e2 08       		.byte	0x8
 3209 08e3 20       		.byte	0x20
 3210 08e4 11       		.uleb128 0x11
 3211 08e5 01       		.uleb128 0x1
 3212 08e6 53       		.byte	0x53
 3213 08e7 01       		.uleb128 0x1
 3214 08e8 30       		.byte	0x30
 3215 08e9 00       		.byte	0
 3216 08ea 00       		.byte	0
 3217 08eb 15       		.uleb128 0x15
 3218 08ec 27000000 		.4byte	.LASF73
 3219 08f0 01       		.byte	0x1
 3220 08f1 2C       		.byte	0x2c
 3221 08f2 8C000000 		.4byte	0x8c
 3222 08f6 00000000 		.4byte	.LFB1
 3223 08fa 0E000000 		.4byte	.LFE1-.LFB1
 3224 08fe 01       		.uleb128 0x1
 3225 08ff 9C       		.byte	0x9c
 3226 0900 4E090000 		.4byte	0x94e
 3227 0904 16       		.uleb128 0x16
 3228 0905 7F010000 		.4byte	.LASF62
 3229 0909 01       		.byte	0x1
 3230 090a 2C       		.byte	0x2c
 3231 090b FB020000 		.4byte	0x2fb
 3232 090f 09020000 		.4byte	.LLST15
 3233 0913 17       		.uleb128 0x17
 3234 0914 636E7400 		.ascii	"cnt\000"
 3235 0918 01       		.byte	0x1
 3236 0919 2C       		.byte	0x2c
 3237 091a 8C000000 		.4byte	0x8c
 3238 091e 2A020000 		.4byte	.LLST16
 3239 0922 16       		.uleb128 0x16
 3240 0923 E1020000 		.4byte	.LASF74
 3241 0927 01       		.byte	0x1
 3242 0928 2C       		.byte	0x2c
 3243 0929 26030000 		.4byte	0x326
 3244 092d 4B020000 		.4byte	.LLST17
 3245 0931 18       		.uleb128 0x18
 3246 0932 0C000000 		.4byte	.LVL60
ARM GAS  C:\Users\brian\AppData\Local\Temp\cc2Kbm4j.s 			page 73


 3247 0936 02       		.uleb128 0x2
 3248 0937 74       		.byte	0x74
 3249 0938 00       		.sleb128 0
 3250 0939 11       		.uleb128 0x11
 3251 093a 01       		.uleb128 0x1
 3252 093b 50       		.byte	0x50
 3253 093c 03       		.uleb128 0x3
 3254 093d F3       		.byte	0xf3
 3255 093e 01       		.uleb128 0x1
 3256 093f 50       		.byte	0x50
 3257 0940 11       		.uleb128 0x11
 3258 0941 01       		.uleb128 0x1
 3259 0942 51       		.byte	0x51
 3260 0943 01       		.uleb128 0x1
 3261 0944 47       		.byte	0x47
 3262 0945 11       		.uleb128 0x11
 3263 0946 01       		.uleb128 0x1
 3264 0947 53       		.byte	0x53
 3265 0948 03       		.uleb128 0x3
 3266 0949 F3       		.byte	0xf3
 3267 094a 01       		.uleb128 0x1
 3268 094b 52       		.byte	0x52
 3269 094c 00       		.byte	0
 3270 094d 00       		.byte	0
 3271 094e 15       		.uleb128 0x15
 3272 094f D4040000 		.4byte	.LASF75
 3273 0953 01       		.byte	0x1
 3274 0954 31       		.byte	0x31
 3275 0955 8C000000 		.4byte	0x8c
 3276 0959 00000000 		.4byte	.LFB2
 3277 095d 16000000 		.4byte	.LFE2-.LFB2
 3278 0961 01       		.uleb128 0x1
 3279 0962 9C       		.byte	0x9c
 3280 0963 A2090000 		.4byte	0x9a2
 3281 0967 16       		.uleb128 0x16
 3282 0968 7F010000 		.4byte	.LASF62
 3283 096c 01       		.byte	0x1
 3284 096d 31       		.byte	0x31
 3285 096e FB020000 		.4byte	0x2fb
 3286 0972 77020000 		.4byte	.LLST18
 3287 0976 16       		.uleb128 0x16
 3288 0977 83020000 		.4byte	.LASF76
 3289 097b 01       		.byte	0x1
 3290 097c 31       		.byte	0x31
 3291 097d 8C000000 		.4byte	0x8c
 3292 0981 98020000 		.4byte	.LLST19
 3293 0985 10       		.uleb128 0x10
 3294 0986 10000000 		.4byte	.LVL63
 3295 098a EB080000 		.4byte	0x8eb
 3296 098e 11       		.uleb128 0x11
 3297 098f 01       		.uleb128 0x1
 3298 0990 50       		.byte	0x50
 3299 0991 03       		.uleb128 0x3
 3300 0992 F3       		.byte	0xf3
 3301 0993 01       		.uleb128 0x1
 3302 0994 50       		.byte	0x50
 3303 0995 11       		.uleb128 0x11
ARM GAS  C:\Users\brian\AppData\Local\Temp\cc2Kbm4j.s 			page 74


 3304 0996 01       		.uleb128 0x1
 3305 0997 51       		.byte	0x51
 3306 0998 01       		.uleb128 0x1
 3307 0999 31       		.byte	0x31
 3308 099a 11       		.uleb128 0x11
 3309 099b 01       		.uleb128 0x1
 3310 099c 52       		.byte	0x52
 3311 099d 02       		.uleb128 0x2
 3312 099e 91       		.byte	0x91
 3313 099f 77       		.sleb128 -9
 3314 09a0 00       		.byte	0
 3315 09a1 00       		.byte	0
 3316 09a2 15       		.uleb128 0x15
 3317 09a3 10040000 		.4byte	.LASF77
 3318 09a7 01       		.byte	0x1
 3319 09a8 36       		.byte	0x36
 3320 09a9 8C000000 		.4byte	0x8c
 3321 09ad 00000000 		.4byte	.LFB3
 3322 09b1 0E000000 		.4byte	.LFE3-.LFB3
 3323 09b5 01       		.uleb128 0x1
 3324 09b6 9C       		.byte	0x9c
 3325 09b7 EA090000 		.4byte	0x9ea
 3326 09bb 16       		.uleb128 0x16
 3327 09bc 7F010000 		.4byte	.LASF62
 3328 09c0 01       		.byte	0x1
 3329 09c1 36       		.byte	0x36
 3330 09c2 FB020000 		.4byte	0x2fb
 3331 09c6 C3020000 		.4byte	.LLST20
 3332 09ca 18       		.uleb128 0x18
 3333 09cb 0C000000 		.4byte	.LVL65
 3334 09cf 02       		.uleb128 0x2
 3335 09d0 74       		.byte	0x74
 3336 09d1 00       		.sleb128 0
 3337 09d2 11       		.uleb128 0x11
 3338 09d3 01       		.uleb128 0x1
 3339 09d4 50       		.byte	0x50
 3340 09d5 03       		.uleb128 0x3
 3341 09d6 F3       		.byte	0xf3
 3342 09d7 01       		.uleb128 0x1
 3343 09d8 50       		.byte	0x50
 3344 09d9 11       		.uleb128 0x11
 3345 09da 01       		.uleb128 0x1
 3346 09db 51       		.byte	0x51
 3347 09dc 01       		.uleb128 0x1
 3348 09dd 48       		.byte	0x48
 3349 09de 11       		.uleb128 0x11
 3350 09df 01       		.uleb128 0x1
 3351 09e0 52       		.byte	0x52
 3352 09e1 01       		.uleb128 0x1
 3353 09e2 30       		.byte	0x30
 3354 09e3 11       		.uleb128 0x11
 3355 09e4 01       		.uleb128 0x1
 3356 09e5 53       		.byte	0x53
 3357 09e6 01       		.uleb128 0x1
 3358 09e7 30       		.byte	0x30
 3359 09e8 00       		.byte	0
 3360 09e9 00       		.byte	0
ARM GAS  C:\Users\brian\AppData\Local\Temp\cc2Kbm4j.s 			page 75


 3361 09ea 15       		.uleb128 0x15
 3362 09eb 63050000 		.4byte	.LASF78
 3363 09ef 01       		.byte	0x1
 3364 09f0 3B       		.byte	0x3b
 3365 09f1 8C000000 		.4byte	0x8c
 3366 09f5 00000000 		.4byte	.LFB4
 3367 09f9 0E000000 		.4byte	.LFE4-.LFB4
 3368 09fd 01       		.uleb128 0x1
 3369 09fe 9C       		.byte	0x9c
 3370 09ff 320A0000 		.4byte	0xa32
 3371 0a03 16       		.uleb128 0x16
 3372 0a04 7F010000 		.4byte	.LASF62
 3373 0a08 01       		.byte	0x1
 3374 0a09 3B       		.byte	0x3b
 3375 0a0a FB020000 		.4byte	0x2fb
 3376 0a0e E4020000 		.4byte	.LLST21
 3377 0a12 18       		.uleb128 0x18
 3378 0a13 0C000000 		.4byte	.LVL67
 3379 0a17 02       		.uleb128 0x2
 3380 0a18 74       		.byte	0x74
 3381 0a19 00       		.sleb128 0
 3382 0a1a 11       		.uleb128 0x11
 3383 0a1b 01       		.uleb128 0x1
 3384 0a1c 50       		.byte	0x50
 3385 0a1d 03       		.uleb128 0x3
 3386 0a1e F3       		.byte	0xf3
 3387 0a1f 01       		.uleb128 0x1
 3388 0a20 50       		.byte	0x50
 3389 0a21 11       		.uleb128 0x11
 3390 0a22 01       		.uleb128 0x1
 3391 0a23 51       		.byte	0x51
 3392 0a24 01       		.uleb128 0x1
 3393 0a25 49       		.byte	0x49
 3394 0a26 11       		.uleb128 0x11
 3395 0a27 01       		.uleb128 0x1
 3396 0a28 52       		.byte	0x52
 3397 0a29 01       		.uleb128 0x1
 3398 0a2a 30       		.byte	0x30
 3399 0a2b 11       		.uleb128 0x11
 3400 0a2c 01       		.uleb128 0x1
 3401 0a2d 53       		.byte	0x53
 3402 0a2e 01       		.uleb128 0x1
 3403 0a2f 30       		.byte	0x30
 3404 0a30 00       		.byte	0
 3405 0a31 00       		.byte	0
 3406 0a32 15       		.uleb128 0x15
 3407 0a33 78040000 		.4byte	.LASF79
 3408 0a37 01       		.byte	0x1
 3409 0a38 42       		.byte	0x42
 3410 0a39 8C000000 		.4byte	0x8c
 3411 0a3d 00000000 		.4byte	.LFB5
 3412 0a41 04000000 		.4byte	.LFE5-.LFB5
 3413 0a45 01       		.uleb128 0x1
 3414 0a46 9C       		.byte	0x9c
 3415 0a47 820A0000 		.4byte	0xa82
 3416 0a4b 16       		.uleb128 0x16
 3417 0a4c 7F010000 		.4byte	.LASF62
ARM GAS  C:\Users\brian\AppData\Local\Temp\cc2Kbm4j.s 			page 76


 3418 0a50 01       		.byte	0x1
 3419 0a51 42       		.byte	0x42
 3420 0a52 FB020000 		.4byte	0x2fb
 3421 0a56 05030000 		.4byte	.LLST22
 3422 0a5a 19       		.uleb128 0x19
 3423 0a5b 6D736700 		.ascii	"msg\000"
 3424 0a5f 01       		.byte	0x1
 3425 0a60 42       		.byte	0x42
 3426 0a61 8C000000 		.4byte	0x8c
 3427 0a65 01       		.uleb128 0x1
 3428 0a66 51       		.byte	0x51
 3429 0a67 1A       		.uleb128 0x1a
 3430 0a68 93010000 		.4byte	.LASF80
 3431 0a6c 01       		.byte	0x1
 3432 0a6d 42       		.byte	0x42
 3433 0a6e 8C000000 		.4byte	0x8c
 3434 0a72 01       		.uleb128 0x1
 3435 0a73 52       		.byte	0x52
 3436 0a74 1A       		.uleb128 0x1a
 3437 0a75 44000000 		.4byte	.LASF81
 3438 0a79 01       		.byte	0x1
 3439 0a7a 42       		.byte	0x42
 3440 0a7b AD000000 		.4byte	0xad
 3441 0a7f 01       		.uleb128 0x1
 3442 0a80 53       		.byte	0x53
 3443 0a81 00       		.byte	0
 3444 0a82 15       		.uleb128 0x15
 3445 0a83 64020000 		.4byte	.LASF82
 3446 0a87 01       		.byte	0x1
 3447 0a88 6B       		.byte	0x6b
 3448 0a89 8C000000 		.4byte	0x8c
 3449 0a8d 00000000 		.4byte	.LFB6
 3450 0a91 08010000 		.4byte	.LFE6-.LFB6
 3451 0a95 01       		.uleb128 0x1
 3452 0a96 9C       		.byte	0x9c
 3453 0a97 7B0C0000 		.4byte	0xc7b
 3454 0a9b 16       		.uleb128 0x16
 3455 0a9c 7F010000 		.4byte	.LASF62
 3456 0aa0 01       		.byte	0x1
 3457 0aa1 6B       		.byte	0x6b
 3458 0aa2 FB020000 		.4byte	0x2fb
 3459 0aa6 26030000 		.4byte	.LLST23
 3460 0aaa 17       		.uleb128 0x17
 3461 0aab 6D736700 		.ascii	"msg\000"
 3462 0aaf 01       		.byte	0x1
 3463 0ab0 6B       		.byte	0x6b
 3464 0ab1 8C000000 		.4byte	0x8c
 3465 0ab5 B2030000 		.4byte	.LLST24
 3466 0ab9 16       		.uleb128 0x16
 3467 0aba 93010000 		.4byte	.LASF80
 3468 0abe 01       		.byte	0x1
 3469 0abf 6B       		.byte	0x6b
 3470 0ac0 8C000000 		.4byte	0x8c
 3471 0ac4 D3030000 		.4byte	.LLST25
 3472 0ac8 16       		.uleb128 0x16
 3473 0ac9 44000000 		.4byte	.LASF81
 3474 0acd 01       		.byte	0x1
ARM GAS  C:\Users\brian\AppData\Local\Temp\cc2Kbm4j.s 			page 77


 3475 0ace 6B       		.byte	0x6b
 3476 0acf AD000000 		.4byte	0xad
 3477 0ad3 18040000 		.4byte	.LLST26
 3478 0ad7 1B       		.uleb128 0x1b
 3479 0ad8 6900     		.ascii	"i\000"
 3480 0ada 01       		.byte	0x1
 3481 0adb 6D       		.byte	0x6d
 3482 0adc 8C000000 		.4byte	0x8c
 3483 0ae0 44040000 		.4byte	.LLST27
 3484 0ae4 1B       		.uleb128 0x1b
 3485 0ae5 6200     		.ascii	"b\000"
 3486 0ae7 01       		.byte	0x1
 3487 0ae8 6D       		.byte	0x6d
 3488 0ae9 8C000000 		.4byte	0x8c
 3489 0aed 6E040000 		.4byte	.LLST28
 3490 0af1 1C       		.uleb128 0x1c
 3491 0af2 E1020000 		.4byte	.LASF74
 3492 0af6 01       		.byte	0x1
 3493 0af7 6E       		.byte	0x6e
 3494 0af8 26030000 		.4byte	0x326
 3495 0afc 8C040000 		.4byte	.LLST29
 3496 0b00 1D       		.uleb128 0x1d
 3497 0b01 C1020000 		.4byte	.LASF83
 3498 0b05 01       		.byte	0x1
 3499 0b06 6F       		.byte	0x6f
 3500 0b07 8C000000 		.4byte	0x8c
 3501 0b0b 01       		.uleb128 0x1
 3502 0b0c 57       		.byte	0x57
 3503 0b0d 1D       		.uleb128 0x1d
 3504 0b0e B1040000 		.4byte	.LASF84
 3505 0b12 01       		.byte	0x1
 3506 0b13 70       		.byte	0x70
 3507 0b14 8C000000 		.4byte	0x8c
 3508 0b18 01       		.uleb128 0x1
 3509 0b19 58       		.byte	0x58
 3510 0b1a 12       		.uleb128 0x12
 3511 0b1b 4E000000 		.4byte	.LVL80
 3512 0b1f D2160000 		.4byte	0x16d2
 3513 0b23 390B0000 		.4byte	0xb39
 3514 0b27 11       		.uleb128 0x11
 3515 0b28 01       		.uleb128 0x1
 3516 0b29 50       		.byte	0x50
 3517 0b2a 02       		.uleb128 0x2
 3518 0b2b 74       		.byte	0x74
 3519 0b2c 00       		.sleb128 0
 3520 0b2d 11       		.uleb128 0x11
 3521 0b2e 01       		.uleb128 0x1
 3522 0b2f 51       		.byte	0x51
 3523 0b30 02       		.uleb128 0x2
 3524 0b31 08       		.byte	0x8
 3525 0b32 41       		.byte	0x41
 3526 0b33 11       		.uleb128 0x11
 3527 0b34 01       		.uleb128 0x1
 3528 0b35 52       		.byte	0x52
 3529 0b36 01       		.uleb128 0x1
 3530 0b37 31       		.byte	0x31
 3531 0b38 00       		.byte	0
ARM GAS  C:\Users\brian\AppData\Local\Temp\cc2Kbm4j.s 			page 78


 3532 0b39 12       		.uleb128 0x12
 3533 0b3a 5A000000 		.4byte	.LVL81
 3534 0b3e D2160000 		.4byte	0x16d2
 3535 0b42 580B0000 		.4byte	0xb58
 3536 0b46 11       		.uleb128 0x11
 3537 0b47 01       		.uleb128 0x1
 3538 0b48 50       		.byte	0x50
 3539 0b49 02       		.uleb128 0x2
 3540 0b4a 74       		.byte	0x74
 3541 0b4b 00       		.sleb128 0
 3542 0b4c 11       		.uleb128 0x11
 3543 0b4d 01       		.uleb128 0x1
 3544 0b4e 51       		.byte	0x51
 3545 0b4f 02       		.uleb128 0x2
 3546 0b50 08       		.byte	0x8
 3547 0b51 41       		.byte	0x41
 3548 0b52 11       		.uleb128 0x11
 3549 0b53 01       		.uleb128 0x1
 3550 0b54 52       		.byte	0x52
 3551 0b55 01       		.uleb128 0x1
 3552 0b56 30       		.byte	0x30
 3553 0b57 00       		.byte	0
 3554 0b58 12       		.uleb128 0x12
 3555 0b59 68000000 		.4byte	.LVL84
 3556 0b5d D2160000 		.4byte	0x16d2
 3557 0b61 780B0000 		.4byte	0xb78
 3558 0b65 11       		.uleb128 0x11
 3559 0b66 01       		.uleb128 0x1
 3560 0b67 50       		.byte	0x50
 3561 0b68 02       		.uleb128 0x2
 3562 0b69 74       		.byte	0x74
 3563 0b6a 00       		.sleb128 0
 3564 0b6b 11       		.uleb128 0x11
 3565 0b6c 01       		.uleb128 0x1
 3566 0b6d 51       		.byte	0x51
 3567 0b6e 02       		.uleb128 0x2
 3568 0b6f 08       		.byte	0x8
 3569 0b70 40       		.byte	0x40
 3570 0b71 11       		.uleb128 0x11
 3571 0b72 01       		.uleb128 0x1
 3572 0b73 52       		.byte	0x52
 3573 0b74 02       		.uleb128 0x2
 3574 0b75 78       		.byte	0x78
 3575 0b76 00       		.sleb128 0
 3576 0b77 00       		.byte	0
 3577 0b78 12       		.uleb128 0x12
 3578 0b79 74000000 		.4byte	.LVL85
 3579 0b7d D2160000 		.4byte	0x16d2
 3580 0b81 920B0000 		.4byte	0xb92
 3581 0b85 11       		.uleb128 0x11
 3582 0b86 01       		.uleb128 0x1
 3583 0b87 50       		.byte	0x50
 3584 0b88 02       		.uleb128 0x2
 3585 0b89 74       		.byte	0x74
 3586 0b8a 00       		.sleb128 0
 3587 0b8b 11       		.uleb128 0x11
 3588 0b8c 01       		.uleb128 0x1
ARM GAS  C:\Users\brian\AppData\Local\Temp\cc2Kbm4j.s 			page 79


 3589 0b8d 51       		.byte	0x51
 3590 0b8e 02       		.uleb128 0x2
 3591 0b8f 08       		.byte	0x8
 3592 0b90 2C       		.byte	0x2c
 3593 0b91 00       		.byte	0
 3594 0b92 12       		.uleb128 0x12
 3595 0b93 7E000000 		.4byte	.LVL86
 3596 0b97 D2160000 		.4byte	0x16d2
 3597 0b9b B20B0000 		.4byte	0xbb2
 3598 0b9f 11       		.uleb128 0x11
 3599 0ba0 01       		.uleb128 0x1
 3600 0ba1 50       		.byte	0x50
 3601 0ba2 02       		.uleb128 0x2
 3602 0ba3 74       		.byte	0x74
 3603 0ba4 00       		.sleb128 0
 3604 0ba5 11       		.uleb128 0x11
 3605 0ba6 01       		.uleb128 0x1
 3606 0ba7 51       		.byte	0x51
 3607 0ba8 02       		.uleb128 0x2
 3608 0ba9 08       		.byte	0x8
 3609 0baa 40       		.byte	0x40
 3610 0bab 11       		.uleb128 0x11
 3611 0bac 01       		.uleb128 0x1
 3612 0bad 52       		.byte	0x52
 3613 0bae 02       		.uleb128 0x2
 3614 0baf 77       		.byte	0x77
 3615 0bb0 00       		.sleb128 0
 3616 0bb1 00       		.byte	0
 3617 0bb2 12       		.uleb128 0x12
 3618 0bb3 8A000000 		.4byte	.LVL87
 3619 0bb7 D2160000 		.4byte	0x16d2
 3620 0bbb CC0B0000 		.4byte	0xbcc
 3621 0bbf 11       		.uleb128 0x11
 3622 0bc0 01       		.uleb128 0x1
 3623 0bc1 50       		.byte	0x50
 3624 0bc2 02       		.uleb128 0x2
 3625 0bc3 74       		.byte	0x74
 3626 0bc4 00       		.sleb128 0
 3627 0bc5 11       		.uleb128 0x11
 3628 0bc6 01       		.uleb128 0x1
 3629 0bc7 51       		.byte	0x51
 3630 0bc8 02       		.uleb128 0x2
 3631 0bc9 08       		.byte	0x8
 3632 0bca 2C       		.byte	0x2c
 3633 0bcb 00       		.byte	0
 3634 0bcc 12       		.uleb128 0x12
 3635 0bcd A6000000 		.4byte	.LVL92
 3636 0bd1 D2160000 		.4byte	0x16d2
 3637 0bd5 E00B0000 		.4byte	0xbe0
 3638 0bd9 11       		.uleb128 0x11
 3639 0bda 01       		.uleb128 0x1
 3640 0bdb 51       		.byte	0x51
 3641 0bdc 02       		.uleb128 0x2
 3642 0bdd 08       		.byte	0x8
 3643 0bde 49       		.byte	0x49
 3644 0bdf 00       		.byte	0
 3645 0be0 12       		.uleb128 0x12
ARM GAS  C:\Users\brian\AppData\Local\Temp\cc2Kbm4j.s 			page 80


 3646 0be1 B6000000 		.4byte	.LVL93
 3647 0be5 D2160000 		.4byte	0x16d2
 3648 0be9 FA0B0000 		.4byte	0xbfa
 3649 0bed 11       		.uleb128 0x11
 3650 0bee 01       		.uleb128 0x1
 3651 0bef 50       		.byte	0x50
 3652 0bf0 02       		.uleb128 0x2
 3653 0bf1 74       		.byte	0x74
 3654 0bf2 00       		.sleb128 0
 3655 0bf3 11       		.uleb128 0x11
 3656 0bf4 01       		.uleb128 0x1
 3657 0bf5 51       		.byte	0x51
 3658 0bf6 02       		.uleb128 0x2
 3659 0bf7 08       		.byte	0x8
 3660 0bf8 40       		.byte	0x40
 3661 0bf9 00       		.byte	0
 3662 0bfa 12       		.uleb128 0x12
 3663 0bfb C4000000 		.4byte	.LVL95
 3664 0bff D2160000 		.4byte	0x16d2
 3665 0c03 140C0000 		.4byte	0xc14
 3666 0c07 11       		.uleb128 0x11
 3667 0c08 01       		.uleb128 0x1
 3668 0c09 51       		.byte	0x51
 3669 0c0a 02       		.uleb128 0x2
 3670 0c0b 08       		.byte	0x8
 3671 0c0c 4A       		.byte	0x4a
 3672 0c0d 11       		.uleb128 0x11
 3673 0c0e 01       		.uleb128 0x1
 3674 0c0f 52       		.byte	0x52
 3675 0c10 02       		.uleb128 0x2
 3676 0c11 79       		.byte	0x79
 3677 0c12 00       		.sleb128 0
 3678 0c13 00       		.byte	0
 3679 0c14 12       		.uleb128 0x12
 3680 0c15 D2000000 		.4byte	.LVL97
 3681 0c19 D2160000 		.4byte	0x16d2
 3682 0c1d 280C0000 		.4byte	0xc28
 3683 0c21 11       		.uleb128 0x11
 3684 0c22 01       		.uleb128 0x1
 3685 0c23 51       		.byte	0x51
 3686 0c24 02       		.uleb128 0x2
 3687 0c25 08       		.byte	0x8
 3688 0c26 49       		.byte	0x49
 3689 0c27 00       		.byte	0
 3690 0c28 1E       		.uleb128 0x1e
 3691 0c29 E0000000 		.4byte	.LVL98
 3692 0c2d 02       		.uleb128 0x2
 3693 0c2e 75       		.byte	0x75
 3694 0c2f 00       		.sleb128 0
 3695 0c30 460C0000 		.4byte	0xc46
 3696 0c34 11       		.uleb128 0x11
 3697 0c35 01       		.uleb128 0x1
 3698 0c36 50       		.byte	0x50
 3699 0c37 02       		.uleb128 0x2
 3700 0c38 74       		.byte	0x74
 3701 0c39 00       		.sleb128 0
 3702 0c3a 11       		.uleb128 0x11
ARM GAS  C:\Users\brian\AppData\Local\Temp\cc2Kbm4j.s 			page 81


 3703 0c3b 01       		.uleb128 0x1
 3704 0c3c 51       		.byte	0x51
 3705 0c3d 02       		.uleb128 0x2
 3706 0c3e 08       		.byte	0x8
 3707 0c3f 2C       		.byte	0x2c
 3708 0c40 11       		.uleb128 0x11
 3709 0c41 01       		.uleb128 0x1
 3710 0c42 53       		.byte	0x53
 3711 0c43 01       		.uleb128 0x1
 3712 0c44 30       		.byte	0x30
 3713 0c45 00       		.byte	0
 3714 0c46 1E       		.uleb128 0x1e
 3715 0c47 F0000000 		.4byte	.LVL100
 3716 0c4b 02       		.uleb128 0x2
 3717 0c4c 75       		.byte	0x75
 3718 0c4d 00       		.sleb128 0
 3719 0c4e 640C0000 		.4byte	0xc64
 3720 0c52 11       		.uleb128 0x11
 3721 0c53 01       		.uleb128 0x1
 3722 0c54 50       		.byte	0x50
 3723 0c55 02       		.uleb128 0x2
 3724 0c56 74       		.byte	0x74
 3725 0c57 00       		.sleb128 0
 3726 0c58 11       		.uleb128 0x11
 3727 0c59 01       		.uleb128 0x1
 3728 0c5a 51       		.byte	0x51
 3729 0c5b 02       		.uleb128 0x2
 3730 0c5c 08       		.byte	0x8
 3731 0c5d 2C       		.byte	0x2c
 3732 0c5e 11       		.uleb128 0x11
 3733 0c5f 01       		.uleb128 0x1
 3734 0c60 53       		.byte	0x53
 3735 0c61 01       		.uleb128 0x1
 3736 0c62 30       		.byte	0x30
 3737 0c63 00       		.byte	0
 3738 0c64 10       		.uleb128 0x10
 3739 0c65 FC000000 		.4byte	.LVL101
 3740 0c69 D2160000 		.4byte	0x16d2
 3741 0c6d 11       		.uleb128 0x11
 3742 0c6e 01       		.uleb128 0x1
 3743 0c6f 50       		.byte	0x50
 3744 0c70 02       		.uleb128 0x2
 3745 0c71 74       		.byte	0x74
 3746 0c72 00       		.sleb128 0
 3747 0c73 11       		.uleb128 0x11
 3748 0c74 01       		.uleb128 0x1
 3749 0c75 51       		.byte	0x51
 3750 0c76 02       		.uleb128 0x2
 3751 0c77 08       		.byte	0x8
 3752 0c78 49       		.byte	0x49
 3753 0c79 00       		.byte	0
 3754 0c7a 00       		.byte	0
 3755 0c7b 15       		.uleb128 0x15
 3756 0c7c 41030000 		.4byte	.LASF85
 3757 0c80 01       		.byte	0x1
 3758 0c81 A6       		.byte	0xa6
 3759 0c82 8C000000 		.4byte	0x8c
ARM GAS  C:\Users\brian\AppData\Local\Temp\cc2Kbm4j.s 			page 82


 3760 0c86 00000000 		.4byte	.LFB7
 3761 0c8a E2000000 		.4byte	.LFE7-.LFB7
 3762 0c8e 01       		.uleb128 0x1
 3763 0c8f 9C       		.byte	0x9c
 3764 0c90 470E0000 		.4byte	0xe47
 3765 0c94 16       		.uleb128 0x16
 3766 0c95 7F010000 		.4byte	.LASF62
 3767 0c99 01       		.byte	0x1
 3768 0c9a A6       		.byte	0xa6
 3769 0c9b FB020000 		.4byte	0x2fb
 3770 0c9f 9F040000 		.4byte	.LLST30
 3771 0ca3 17       		.uleb128 0x17
 3772 0ca4 6D736700 		.ascii	"msg\000"
 3773 0ca8 01       		.byte	0x1
 3774 0ca9 A6       		.byte	0xa6
 3775 0caa 8C000000 		.4byte	0x8c
 3776 0cae 2B050000 		.4byte	.LLST31
 3777 0cb2 16       		.uleb128 0x16
 3778 0cb3 93010000 		.4byte	.LASF80
 3779 0cb7 01       		.byte	0x1
 3780 0cb8 A6       		.byte	0xa6
 3781 0cb9 8C000000 		.4byte	0x8c
 3782 0cbd 4C050000 		.4byte	.LLST32
 3783 0cc1 16       		.uleb128 0x16
 3784 0cc2 44000000 		.4byte	.LASF81
 3785 0cc6 01       		.byte	0x1
 3786 0cc7 A6       		.byte	0xa6
 3787 0cc8 AD000000 		.4byte	0xad
 3788 0ccc E4050000 		.4byte	.LLST33
 3789 0cd0 1B       		.uleb128 0x1b
 3790 0cd1 6900     		.ascii	"i\000"
 3791 0cd3 01       		.byte	0x1
 3792 0cd4 A8       		.byte	0xa8
 3793 0cd5 8C000000 		.4byte	0x8c
 3794 0cd9 10060000 		.4byte	.LLST34
 3795 0cdd 1B       		.uleb128 0x1b
 3796 0cde 6200     		.ascii	"b\000"
 3797 0ce0 01       		.byte	0x1
 3798 0ce1 A8       		.byte	0xa8
 3799 0ce2 8C000000 		.4byte	0x8c
 3800 0ce6 3B060000 		.4byte	.LLST35
 3801 0cea 1C       		.uleb128 0x1c
 3802 0ceb E1020000 		.4byte	.LASF74
 3803 0cef 01       		.byte	0x1
 3804 0cf0 A9       		.byte	0xa9
 3805 0cf1 26030000 		.4byte	0x326
 3806 0cf5 4E060000 		.4byte	.LLST36
 3807 0cf9 12       		.uleb128 0x12
 3808 0cfa 3A000000 		.4byte	.LVL111
 3809 0cfe D2160000 		.4byte	0x16d2
 3810 0d02 1B0D0000 		.4byte	0xd1b
 3811 0d06 11       		.uleb128 0x11
 3812 0d07 01       		.uleb128 0x1
 3813 0d08 50       		.byte	0x50
 3814 0d09 02       		.uleb128 0x2
 3815 0d0a 76       		.byte	0x76
 3816 0d0b 00       		.sleb128 0
ARM GAS  C:\Users\brian\AppData\Local\Temp\cc2Kbm4j.s 			page 83


 3817 0d0c 11       		.uleb128 0x11
 3818 0d0d 01       		.uleb128 0x1
 3819 0d0e 51       		.byte	0x51
 3820 0d0f 02       		.uleb128 0x2
 3821 0d10 74       		.byte	0x74
 3822 0d11 00       		.sleb128 0
 3823 0d12 11       		.uleb128 0x11
 3824 0d13 01       		.uleb128 0x1
 3825 0d14 52       		.byte	0x52
 3826 0d15 04       		.uleb128 0x4
 3827 0d16 75       		.byte	0x75
 3828 0d17 00       		.sleb128 0
 3829 0d18 31       		.byte	0x31
 3830 0d19 1A       		.byte	0x1a
 3831 0d1a 00       		.byte	0
 3832 0d1b 12       		.uleb128 0x12
 3833 0d1c 50000000 		.4byte	.LVL115
 3834 0d20 D2160000 		.4byte	0x16d2
 3835 0d24 350D0000 		.4byte	0xd35
 3836 0d28 11       		.uleb128 0x11
 3837 0d29 01       		.uleb128 0x1
 3838 0d2a 50       		.byte	0x50
 3839 0d2b 02       		.uleb128 0x2
 3840 0d2c 76       		.byte	0x76
 3841 0d2d 00       		.sleb128 0
 3842 0d2e 11       		.uleb128 0x11
 3843 0d2f 01       		.uleb128 0x1
 3844 0d30 51       		.byte	0x51
 3845 0d31 02       		.uleb128 0x2
 3846 0d32 08       		.byte	0x8
 3847 0d33 2C       		.byte	0x2c
 3848 0d34 00       		.byte	0
 3849 0d35 12       		.uleb128 0x12
 3850 0d36 5A000000 		.4byte	.LVL116
 3851 0d3a D2160000 		.4byte	0x16d2
 3852 0d3e 540D0000 		.4byte	0xd54
 3853 0d42 11       		.uleb128 0x11
 3854 0d43 01       		.uleb128 0x1
 3855 0d44 50       		.byte	0x50
 3856 0d45 02       		.uleb128 0x2
 3857 0d46 76       		.byte	0x76
 3858 0d47 00       		.sleb128 0
 3859 0d48 11       		.uleb128 0x11
 3860 0d49 01       		.uleb128 0x1
 3861 0d4a 51       		.byte	0x51
 3862 0d4b 02       		.uleb128 0x2
 3863 0d4c 08       		.byte	0x8
 3864 0d4d 48       		.byte	0x48
 3865 0d4e 11       		.uleb128 0x11
 3866 0d4f 01       		.uleb128 0x1
 3867 0d50 52       		.byte	0x52
 3868 0d51 01       		.uleb128 0x1
 3869 0d52 31       		.byte	0x31
 3870 0d53 00       		.byte	0
 3871 0d54 12       		.uleb128 0x12
 3872 0d55 66000000 		.4byte	.LVL117
 3873 0d59 D2160000 		.4byte	0x16d2
ARM GAS  C:\Users\brian\AppData\Local\Temp\cc2Kbm4j.s 			page 84


 3874 0d5d 6E0D0000 		.4byte	0xd6e
 3875 0d61 11       		.uleb128 0x11
 3876 0d62 01       		.uleb128 0x1
 3877 0d63 50       		.byte	0x50
 3878 0d64 02       		.uleb128 0x2
 3879 0d65 76       		.byte	0x76
 3880 0d66 00       		.sleb128 0
 3881 0d67 11       		.uleb128 0x11
 3882 0d68 01       		.uleb128 0x1
 3883 0d69 51       		.byte	0x51
 3884 0d6a 02       		.uleb128 0x2
 3885 0d6b 08       		.byte	0x8
 3886 0d6c 2C       		.byte	0x2c
 3887 0d6d 00       		.byte	0
 3888 0d6e 12       		.uleb128 0x12
 3889 0d6f 70000000 		.4byte	.LVL118
 3890 0d73 D2160000 		.4byte	0x16d2
 3891 0d77 8D0D0000 		.4byte	0xd8d
 3892 0d7b 11       		.uleb128 0x11
 3893 0d7c 01       		.uleb128 0x1
 3894 0d7d 50       		.byte	0x50
 3895 0d7e 02       		.uleb128 0x2
 3896 0d7f 76       		.byte	0x76
 3897 0d80 00       		.sleb128 0
 3898 0d81 11       		.uleb128 0x11
 3899 0d82 01       		.uleb128 0x1
 3900 0d83 51       		.byte	0x51
 3901 0d84 02       		.uleb128 0x2
 3902 0d85 08       		.byte	0x8
 3903 0d86 48       		.byte	0x48
 3904 0d87 11       		.uleb128 0x11
 3905 0d88 01       		.uleb128 0x1
 3906 0d89 52       		.byte	0x52
 3907 0d8a 01       		.uleb128 0x1
 3908 0d8b 30       		.byte	0x30
 3909 0d8c 00       		.byte	0
 3910 0d8d 12       		.uleb128 0x12
 3911 0d8e 84000000 		.4byte	.LVL121
 3912 0d92 D2160000 		.4byte	0x16d2
 3913 0d96 A70D0000 		.4byte	0xda7
 3914 0d9a 11       		.uleb128 0x11
 3915 0d9b 01       		.uleb128 0x1
 3916 0d9c 50       		.byte	0x50
 3917 0d9d 02       		.uleb128 0x2
 3918 0d9e 76       		.byte	0x76
 3919 0d9f 00       		.sleb128 0
 3920 0da0 11       		.uleb128 0x11
 3921 0da1 01       		.uleb128 0x1
 3922 0da2 51       		.byte	0x51
 3923 0da3 02       		.uleb128 0x2
 3924 0da4 08       		.byte	0x8
 3925 0da5 49       		.byte	0x49
 3926 0da6 00       		.byte	0
 3927 0da7 12       		.uleb128 0x12
 3928 0da8 8E000000 		.4byte	.LVL122
 3929 0dac D2160000 		.4byte	0x16d2
 3930 0db0 C60D0000 		.4byte	0xdc6
ARM GAS  C:\Users\brian\AppData\Local\Temp\cc2Kbm4j.s 			page 85


 3931 0db4 11       		.uleb128 0x11
 3932 0db5 01       		.uleb128 0x1
 3933 0db6 50       		.byte	0x50
 3934 0db7 02       		.uleb128 0x2
 3935 0db8 76       		.byte	0x76
 3936 0db9 00       		.sleb128 0
 3937 0dba 11       		.uleb128 0x11
 3938 0dbb 01       		.uleb128 0x1
 3939 0dbc 51       		.byte	0x51
 3940 0dbd 02       		.uleb128 0x2
 3941 0dbe 08       		.byte	0x8
 3942 0dbf 48       		.byte	0x48
 3943 0dc0 11       		.uleb128 0x11
 3944 0dc1 01       		.uleb128 0x1
 3945 0dc2 52       		.byte	0x52
 3946 0dc3 01       		.uleb128 0x1
 3947 0dc4 30       		.byte	0x30
 3948 0dc5 00       		.byte	0
 3949 0dc6 12       		.uleb128 0x12
 3950 0dc7 9A000000 		.4byte	.LVL124
 3951 0dcb D2160000 		.4byte	0x16d2
 3952 0dcf DA0D0000 		.4byte	0xdda
 3953 0dd3 11       		.uleb128 0x11
 3954 0dd4 01       		.uleb128 0x1
 3955 0dd5 51       		.byte	0x51
 3956 0dd6 02       		.uleb128 0x2
 3957 0dd7 08       		.byte	0x8
 3958 0dd8 4A       		.byte	0x4a
 3959 0dd9 00       		.byte	0
 3960 0dda 12       		.uleb128 0x12
 3961 0ddb AA000000 		.4byte	.LVL127
 3962 0ddf D2160000 		.4byte	0x16d2
 3963 0de3 F40D0000 		.4byte	0xdf4
 3964 0de7 11       		.uleb128 0x11
 3965 0de8 01       		.uleb128 0x1
 3966 0de9 50       		.byte	0x50
 3967 0dea 02       		.uleb128 0x2
 3968 0deb 76       		.byte	0x76
 3969 0dec 00       		.sleb128 0
 3970 0ded 11       		.uleb128 0x11
 3971 0dee 01       		.uleb128 0x1
 3972 0def 51       		.byte	0x51
 3973 0df0 02       		.uleb128 0x2
 3974 0df1 08       		.byte	0x8
 3975 0df2 49       		.byte	0x49
 3976 0df3 00       		.byte	0
 3977 0df4 1E       		.uleb128 0x1e
 3978 0df5 B8000000 		.4byte	.LVL128
 3979 0df9 02       		.uleb128 0x2
 3980 0dfa 74       		.byte	0x74
 3981 0dfb 00       		.sleb128 0
 3982 0dfc 120E0000 		.4byte	0xe12
 3983 0e00 11       		.uleb128 0x11
 3984 0e01 01       		.uleb128 0x1
 3985 0e02 50       		.byte	0x50
 3986 0e03 02       		.uleb128 0x2
 3987 0e04 76       		.byte	0x76
ARM GAS  C:\Users\brian\AppData\Local\Temp\cc2Kbm4j.s 			page 86


 3988 0e05 00       		.sleb128 0
 3989 0e06 11       		.uleb128 0x11
 3990 0e07 01       		.uleb128 0x1
 3991 0e08 51       		.byte	0x51
 3992 0e09 02       		.uleb128 0x2
 3993 0e0a 08       		.byte	0x8
 3994 0e0b 2C       		.byte	0x2c
 3995 0e0c 11       		.uleb128 0x11
 3996 0e0d 01       		.uleb128 0x1
 3997 0e0e 53       		.byte	0x53
 3998 0e0f 01       		.uleb128 0x1
 3999 0e10 30       		.byte	0x30
 4000 0e11 00       		.byte	0
 4001 0e12 1E       		.uleb128 0x1e
 4002 0e13 CA000000 		.4byte	.LVL131
 4003 0e17 02       		.uleb128 0x2
 4004 0e18 74       		.byte	0x74
 4005 0e19 00       		.sleb128 0
 4006 0e1a 300E0000 		.4byte	0xe30
 4007 0e1e 11       		.uleb128 0x11
 4008 0e1f 01       		.uleb128 0x1
 4009 0e20 50       		.byte	0x50
 4010 0e21 02       		.uleb128 0x2
 4011 0e22 76       		.byte	0x76
 4012 0e23 00       		.sleb128 0
 4013 0e24 11       		.uleb128 0x11
 4014 0e25 01       		.uleb128 0x1
 4015 0e26 51       		.byte	0x51
 4016 0e27 02       		.uleb128 0x2
 4017 0e28 08       		.byte	0x8
 4018 0e29 2C       		.byte	0x2c
 4019 0e2a 11       		.uleb128 0x11
 4020 0e2b 01       		.uleb128 0x1
 4021 0e2c 53       		.byte	0x53
 4022 0e2d 01       		.uleb128 0x1
 4023 0e2e 30       		.byte	0x30
 4024 0e2f 00       		.byte	0
 4025 0e30 10       		.uleb128 0x10
 4026 0e31 D6000000 		.4byte	.LVL132
 4027 0e35 D2160000 		.4byte	0x16d2
 4028 0e39 11       		.uleb128 0x11
 4029 0e3a 01       		.uleb128 0x1
 4030 0e3b 50       		.byte	0x50
 4031 0e3c 02       		.uleb128 0x2
 4032 0e3d 76       		.byte	0x76
 4033 0e3e 00       		.sleb128 0
 4034 0e3f 11       		.uleb128 0x11
 4035 0e40 01       		.uleb128 0x1
 4036 0e41 51       		.byte	0x51
 4037 0e42 02       		.uleb128 0x2
 4038 0e43 08       		.byte	0x8
 4039 0e44 49       		.byte	0x49
 4040 0e45 00       		.byte	0
 4041 0e46 00       		.byte	0
 4042 0e47 15       		.uleb128 0x15
 4043 0e48 27050000 		.4byte	.LASF86
 4044 0e4c 01       		.byte	0x1
ARM GAS  C:\Users\brian\AppData\Local\Temp\cc2Kbm4j.s 			page 87


 4045 0e4d D8       		.byte	0xd8
 4046 0e4e 8C000000 		.4byte	0x8c
 4047 0e52 00000000 		.4byte	.LFB8
 4048 0e56 E2000000 		.4byte	.LFE8-.LFB8
 4049 0e5a 01       		.uleb128 0x1
 4050 0e5b 9C       		.byte	0x9c
 4051 0e5c 13100000 		.4byte	0x1013
 4052 0e60 16       		.uleb128 0x16
 4053 0e61 7F010000 		.4byte	.LASF62
 4054 0e65 01       		.byte	0x1
 4055 0e66 D8       		.byte	0xd8
 4056 0e67 FB020000 		.4byte	0x2fb
 4057 0e6b 61060000 		.4byte	.LLST37
 4058 0e6f 17       		.uleb128 0x17
 4059 0e70 6D736700 		.ascii	"msg\000"
 4060 0e74 01       		.byte	0x1
 4061 0e75 D8       		.byte	0xd8
 4062 0e76 8C000000 		.4byte	0x8c
 4063 0e7a ED060000 		.4byte	.LLST38
 4064 0e7e 16       		.uleb128 0x16
 4065 0e7f 93010000 		.4byte	.LASF80
 4066 0e83 01       		.byte	0x1
 4067 0e84 D8       		.byte	0xd8
 4068 0e85 8C000000 		.4byte	0x8c
 4069 0e89 0E070000 		.4byte	.LLST39
 4070 0e8d 16       		.uleb128 0x16
 4071 0e8e 44000000 		.4byte	.LASF81
 4072 0e92 01       		.byte	0x1
 4073 0e93 D8       		.byte	0xd8
 4074 0e94 AD000000 		.4byte	0xad
 4075 0e98 A6070000 		.4byte	.LLST40
 4076 0e9c 1B       		.uleb128 0x1b
 4077 0e9d 6900     		.ascii	"i\000"
 4078 0e9f 01       		.byte	0x1
 4079 0ea0 DA       		.byte	0xda
 4080 0ea1 8C000000 		.4byte	0x8c
 4081 0ea5 D2070000 		.4byte	.LLST41
 4082 0ea9 1B       		.uleb128 0x1b
 4083 0eaa 6200     		.ascii	"b\000"
 4084 0eac 01       		.byte	0x1
 4085 0ead DA       		.byte	0xda
 4086 0eae 8C000000 		.4byte	0x8c
 4087 0eb2 FD070000 		.4byte	.LLST42
 4088 0eb6 1C       		.uleb128 0x1c
 4089 0eb7 E1020000 		.4byte	.LASF74
 4090 0ebb 01       		.byte	0x1
 4091 0ebc DB       		.byte	0xdb
 4092 0ebd 26030000 		.4byte	0x326
 4093 0ec1 10080000 		.4byte	.LLST43
 4094 0ec5 12       		.uleb128 0x12
 4095 0ec6 3A000000 		.4byte	.LVL142
 4096 0eca D2160000 		.4byte	0x16d2
 4097 0ece E70E0000 		.4byte	0xee7
 4098 0ed2 11       		.uleb128 0x11
 4099 0ed3 01       		.uleb128 0x1
 4100 0ed4 50       		.byte	0x50
 4101 0ed5 02       		.uleb128 0x2
ARM GAS  C:\Users\brian\AppData\Local\Temp\cc2Kbm4j.s 			page 88


 4102 0ed6 76       		.byte	0x76
 4103 0ed7 00       		.sleb128 0
 4104 0ed8 11       		.uleb128 0x11
 4105 0ed9 01       		.uleb128 0x1
 4106 0eda 51       		.byte	0x51
 4107 0edb 02       		.uleb128 0x2
 4108 0edc 74       		.byte	0x74
 4109 0edd 00       		.sleb128 0
 4110 0ede 11       		.uleb128 0x11
 4111 0edf 01       		.uleb128 0x1
 4112 0ee0 52       		.byte	0x52
 4113 0ee1 04       		.uleb128 0x4
 4114 0ee2 75       		.byte	0x75
 4115 0ee3 00       		.sleb128 0
 4116 0ee4 31       		.byte	0x31
 4117 0ee5 1A       		.byte	0x1a
 4118 0ee6 00       		.byte	0
 4119 0ee7 12       		.uleb128 0x12
 4120 0ee8 50000000 		.4byte	.LVL146
 4121 0eec D2160000 		.4byte	0x16d2
 4122 0ef0 010F0000 		.4byte	0xf01
 4123 0ef4 11       		.uleb128 0x11
 4124 0ef5 01       		.uleb128 0x1
 4125 0ef6 50       		.byte	0x50
 4126 0ef7 02       		.uleb128 0x2
 4127 0ef8 76       		.byte	0x76
 4128 0ef9 00       		.sleb128 0
 4129 0efa 11       		.uleb128 0x11
 4130 0efb 01       		.uleb128 0x1
 4131 0efc 51       		.byte	0x51
 4132 0efd 02       		.uleb128 0x2
 4133 0efe 08       		.byte	0x8
 4134 0eff 2C       		.byte	0x2c
 4135 0f00 00       		.byte	0
 4136 0f01 12       		.uleb128 0x12
 4137 0f02 5A000000 		.4byte	.LVL147
 4138 0f06 D2160000 		.4byte	0x16d2
 4139 0f0a 200F0000 		.4byte	0xf20
 4140 0f0e 11       		.uleb128 0x11
 4141 0f0f 01       		.uleb128 0x1
 4142 0f10 50       		.byte	0x50
 4143 0f11 02       		.uleb128 0x2
 4144 0f12 76       		.byte	0x76
 4145 0f13 00       		.sleb128 0
 4146 0f14 11       		.uleb128 0x11
 4147 0f15 01       		.uleb128 0x1
 4148 0f16 51       		.byte	0x51
 4149 0f17 02       		.uleb128 0x2
 4150 0f18 08       		.byte	0x8
 4151 0f19 48       		.byte	0x48
 4152 0f1a 11       		.uleb128 0x11
 4153 0f1b 01       		.uleb128 0x1
 4154 0f1c 52       		.byte	0x52
 4155 0f1d 01       		.uleb128 0x1
 4156 0f1e 30       		.byte	0x30
 4157 0f1f 00       		.byte	0
 4158 0f20 12       		.uleb128 0x12
ARM GAS  C:\Users\brian\AppData\Local\Temp\cc2Kbm4j.s 			page 89


 4159 0f21 66000000 		.4byte	.LVL148
 4160 0f25 D2160000 		.4byte	0x16d2
 4161 0f29 3A0F0000 		.4byte	0xf3a
 4162 0f2d 11       		.uleb128 0x11
 4163 0f2e 01       		.uleb128 0x1
 4164 0f2f 50       		.byte	0x50
 4165 0f30 02       		.uleb128 0x2
 4166 0f31 76       		.byte	0x76
 4167 0f32 00       		.sleb128 0
 4168 0f33 11       		.uleb128 0x11
 4169 0f34 01       		.uleb128 0x1
 4170 0f35 51       		.byte	0x51
 4171 0f36 02       		.uleb128 0x2
 4172 0f37 08       		.byte	0x8
 4173 0f38 2C       		.byte	0x2c
 4174 0f39 00       		.byte	0
 4175 0f3a 12       		.uleb128 0x12
 4176 0f3b 70000000 		.4byte	.LVL149
 4177 0f3f D2160000 		.4byte	0x16d2
 4178 0f43 590F0000 		.4byte	0xf59
 4179 0f47 11       		.uleb128 0x11
 4180 0f48 01       		.uleb128 0x1
 4181 0f49 50       		.byte	0x50
 4182 0f4a 02       		.uleb128 0x2
 4183 0f4b 76       		.byte	0x76
 4184 0f4c 00       		.sleb128 0
 4185 0f4d 11       		.uleb128 0x11
 4186 0f4e 01       		.uleb128 0x1
 4187 0f4f 51       		.byte	0x51
 4188 0f50 02       		.uleb128 0x2
 4189 0f51 08       		.byte	0x8
 4190 0f52 48       		.byte	0x48
 4191 0f53 11       		.uleb128 0x11
 4192 0f54 01       		.uleb128 0x1
 4193 0f55 52       		.byte	0x52
 4194 0f56 01       		.uleb128 0x1
 4195 0f57 31       		.byte	0x31
 4196 0f58 00       		.byte	0
 4197 0f59 12       		.uleb128 0x12
 4198 0f5a 84000000 		.4byte	.LVL152
 4199 0f5e D2160000 		.4byte	0x16d2
 4200 0f62 730F0000 		.4byte	0xf73
 4201 0f66 11       		.uleb128 0x11
 4202 0f67 01       		.uleb128 0x1
 4203 0f68 50       		.byte	0x50
 4204 0f69 02       		.uleb128 0x2
 4205 0f6a 76       		.byte	0x76
 4206 0f6b 00       		.sleb128 0
 4207 0f6c 11       		.uleb128 0x11
 4208 0f6d 01       		.uleb128 0x1
 4209 0f6e 51       		.byte	0x51
 4210 0f6f 02       		.uleb128 0x2
 4211 0f70 08       		.byte	0x8
 4212 0f71 49       		.byte	0x49
 4213 0f72 00       		.byte	0
 4214 0f73 12       		.uleb128 0x12
 4215 0f74 8E000000 		.4byte	.LVL153
ARM GAS  C:\Users\brian\AppData\Local\Temp\cc2Kbm4j.s 			page 90


 4216 0f78 D2160000 		.4byte	0x16d2
 4217 0f7c 920F0000 		.4byte	0xf92
 4218 0f80 11       		.uleb128 0x11
 4219 0f81 01       		.uleb128 0x1
 4220 0f82 50       		.byte	0x50
 4221 0f83 02       		.uleb128 0x2
 4222 0f84 76       		.byte	0x76
 4223 0f85 00       		.sleb128 0
 4224 0f86 11       		.uleb128 0x11
 4225 0f87 01       		.uleb128 0x1
 4226 0f88 51       		.byte	0x51
 4227 0f89 02       		.uleb128 0x2
 4228 0f8a 08       		.byte	0x8
 4229 0f8b 48       		.byte	0x48
 4230 0f8c 11       		.uleb128 0x11
 4231 0f8d 01       		.uleb128 0x1
 4232 0f8e 52       		.byte	0x52
 4233 0f8f 01       		.uleb128 0x1
 4234 0f90 31       		.byte	0x31
 4235 0f91 00       		.byte	0
 4236 0f92 12       		.uleb128 0x12
 4237 0f93 9A000000 		.4byte	.LVL155
 4238 0f97 D2160000 		.4byte	0x16d2
 4239 0f9b A60F0000 		.4byte	0xfa6
 4240 0f9f 11       		.uleb128 0x11
 4241 0fa0 01       		.uleb128 0x1
 4242 0fa1 51       		.byte	0x51
 4243 0fa2 02       		.uleb128 0x2
 4244 0fa3 08       		.byte	0x8
 4245 0fa4 4A       		.byte	0x4a
 4246 0fa5 00       		.byte	0
 4247 0fa6 12       		.uleb128 0x12
 4248 0fa7 AA000000 		.4byte	.LVL158
 4249 0fab D2160000 		.4byte	0x16d2
 4250 0faf C00F0000 		.4byte	0xfc0
 4251 0fb3 11       		.uleb128 0x11
 4252 0fb4 01       		.uleb128 0x1
 4253 0fb5 50       		.byte	0x50
 4254 0fb6 02       		.uleb128 0x2
 4255 0fb7 76       		.byte	0x76
 4256 0fb8 00       		.sleb128 0
 4257 0fb9 11       		.uleb128 0x11
 4258 0fba 01       		.uleb128 0x1
 4259 0fbb 51       		.byte	0x51
 4260 0fbc 02       		.uleb128 0x2
 4261 0fbd 08       		.byte	0x8
 4262 0fbe 49       		.byte	0x49
 4263 0fbf 00       		.byte	0
 4264 0fc0 1E       		.uleb128 0x1e
 4265 0fc1 B8000000 		.4byte	.LVL159
 4266 0fc5 02       		.uleb128 0x2
 4267 0fc6 74       		.byte	0x74
 4268 0fc7 00       		.sleb128 0
 4269 0fc8 DE0F0000 		.4byte	0xfde
 4270 0fcc 11       		.uleb128 0x11
 4271 0fcd 01       		.uleb128 0x1
 4272 0fce 50       		.byte	0x50
ARM GAS  C:\Users\brian\AppData\Local\Temp\cc2Kbm4j.s 			page 91


 4273 0fcf 02       		.uleb128 0x2
 4274 0fd0 76       		.byte	0x76
 4275 0fd1 00       		.sleb128 0
 4276 0fd2 11       		.uleb128 0x11
 4277 0fd3 01       		.uleb128 0x1
 4278 0fd4 51       		.byte	0x51
 4279 0fd5 02       		.uleb128 0x2
 4280 0fd6 08       		.byte	0x8
 4281 0fd7 2C       		.byte	0x2c
 4282 0fd8 11       		.uleb128 0x11
 4283 0fd9 01       		.uleb128 0x1
 4284 0fda 53       		.byte	0x53
 4285 0fdb 01       		.uleb128 0x1
 4286 0fdc 30       		.byte	0x30
 4287 0fdd 00       		.byte	0
 4288 0fde 1E       		.uleb128 0x1e
 4289 0fdf CA000000 		.4byte	.LVL162
 4290 0fe3 02       		.uleb128 0x2
 4291 0fe4 74       		.byte	0x74
 4292 0fe5 00       		.sleb128 0
 4293 0fe6 FC0F0000 		.4byte	0xffc
 4294 0fea 11       		.uleb128 0x11
 4295 0feb 01       		.uleb128 0x1
 4296 0fec 50       		.byte	0x50
 4297 0fed 02       		.uleb128 0x2
 4298 0fee 76       		.byte	0x76
 4299 0fef 00       		.sleb128 0
 4300 0ff0 11       		.uleb128 0x11
 4301 0ff1 01       		.uleb128 0x1
 4302 0ff2 51       		.byte	0x51
 4303 0ff3 02       		.uleb128 0x2
 4304 0ff4 08       		.byte	0x8
 4305 0ff5 2C       		.byte	0x2c
 4306 0ff6 11       		.uleb128 0x11
 4307 0ff7 01       		.uleb128 0x1
 4308 0ff8 53       		.byte	0x53
 4309 0ff9 01       		.uleb128 0x1
 4310 0ffa 30       		.byte	0x30
 4311 0ffb 00       		.byte	0
 4312 0ffc 10       		.uleb128 0x10
 4313 0ffd D6000000 		.4byte	.LVL163
 4314 1001 D2160000 		.4byte	0x16d2
 4315 1005 11       		.uleb128 0x11
 4316 1006 01       		.uleb128 0x1
 4317 1007 50       		.byte	0x50
 4318 1008 02       		.uleb128 0x2
 4319 1009 76       		.byte	0x76
 4320 100a 00       		.sleb128 0
 4321 100b 11       		.uleb128 0x11
 4322 100c 01       		.uleb128 0x1
 4323 100d 51       		.byte	0x51
 4324 100e 02       		.uleb128 0x2
 4325 100f 08       		.byte	0x8
 4326 1010 49       		.byte	0x49
 4327 1011 00       		.byte	0
 4328 1012 00       		.byte	0
 4329 1013 1F       		.uleb128 0x1f
ARM GAS  C:\Users\brian\AppData\Local\Temp\cc2Kbm4j.s 			page 92


 4330 1014 2F020000 		.4byte	.LASF87
 4331 1018 01       		.byte	0x1
 4332 1019 0C01     		.2byte	0x10c
 4333 101b 8C000000 		.4byte	0x8c
 4334 101f 00000000 		.4byte	.LFB9
 4335 1023 1C010000 		.4byte	.LFE9-.LFB9
 4336 1027 01       		.uleb128 0x1
 4337 1028 9C       		.byte	0x9c
 4338 1029 12120000 		.4byte	0x1212
 4339 102d 0F       		.uleb128 0xf
 4340 102e 7F010000 		.4byte	.LASF62
 4341 1032 01       		.byte	0x1
 4342 1033 0C01     		.2byte	0x10c
 4343 1035 FB020000 		.4byte	0x2fb
 4344 1039 23080000 		.4byte	.LLST44
 4345 103d 13       		.uleb128 0x13
 4346 103e 6D736700 		.ascii	"msg\000"
 4347 1042 01       		.byte	0x1
 4348 1043 0C01     		.2byte	0x10c
 4349 1045 8C000000 		.4byte	0x8c
 4350 1049 BD080000 		.4byte	.LLST45
 4351 104d 0F       		.uleb128 0xf
 4352 104e 93010000 		.4byte	.LASF80
 4353 1052 01       		.byte	0x1
 4354 1053 0C01     		.2byte	0x10c
 4355 1055 8C000000 		.4byte	0x8c
 4356 1059 DE080000 		.4byte	.LLST46
 4357 105d 0F       		.uleb128 0xf
 4358 105e 44000000 		.4byte	.LASF81
 4359 1062 01       		.byte	0x1
 4360 1063 0C01     		.2byte	0x10c
 4361 1065 AD000000 		.4byte	0xad
 4362 1069 23090000 		.4byte	.LLST47
 4363 106d 20       		.uleb128 0x20
 4364 106e 6900     		.ascii	"i\000"
 4365 1070 01       		.byte	0x1
 4366 1071 0E01     		.2byte	0x10e
 4367 1073 8C000000 		.4byte	0x8c
 4368 1077 5D090000 		.4byte	.LLST48
 4369 107b 21       		.uleb128 0x21
 4370 107c E1020000 		.4byte	.LASF74
 4371 1080 01       		.byte	0x1
 4372 1081 0F01     		.2byte	0x10f
 4373 1083 26030000 		.4byte	0x326
 4374 1087 87090000 		.4byte	.LLST49
 4375 108b 21       		.uleb128 0x21
 4376 108c C1020000 		.4byte	.LASF83
 4377 1090 01       		.byte	0x1
 4378 1091 1001     		.2byte	0x110
 4379 1093 8C000000 		.4byte	0x8c
 4380 1097 9A090000 		.4byte	.LLST50
 4381 109b 21       		.uleb128 0x21
 4382 109c B1040000 		.4byte	.LASF84
 4383 10a0 01       		.byte	0x1
 4384 10a1 1101     		.2byte	0x111
 4385 10a3 8C000000 		.4byte	0x8c
 4386 10a7 BE090000 		.4byte	.LLST51
ARM GAS  C:\Users\brian\AppData\Local\Temp\cc2Kbm4j.s 			page 93


 4387 10ab 20       		.uleb128 0x20
 4388 10ac 6200     		.ascii	"b\000"
 4389 10ae 01       		.byte	0x1
 4390 10af 1201     		.2byte	0x112
 4391 10b1 97000000 		.4byte	0x97
 4392 10b5 E7090000 		.4byte	.LLST52
 4393 10b9 22       		.uleb128 0x22
 4394 10ba 7B020000 		.4byte	.LASF88
 4395 10be 01       		.byte	0x1
 4396 10bf 1301     		.2byte	0x113
 4397 10c1 8C000000 		.4byte	0x8c
 4398 10c5 05       		.uleb128 0x5
 4399 10c6 03       		.byte	0x3
 4400 10c7 00000000 		.4byte	last_dc.5789
 4401 10cb 12       		.uleb128 0x12
 4402 10cc 5E000000 		.4byte	.LVL178
 4403 10d0 D2160000 		.4byte	0x16d2
 4404 10d4 EA100000 		.4byte	0x10ea
 4405 10d8 11       		.uleb128 0x11
 4406 10d9 01       		.uleb128 0x1
 4407 10da 50       		.byte	0x50
 4408 10db 02       		.uleb128 0x2
 4409 10dc 74       		.byte	0x74
 4410 10dd 00       		.sleb128 0
 4411 10de 11       		.uleb128 0x11
 4412 10df 01       		.uleb128 0x1
 4413 10e0 51       		.byte	0x51
 4414 10e1 02       		.uleb128 0x2
 4415 10e2 08       		.byte	0x8
 4416 10e3 41       		.byte	0x41
 4417 10e4 11       		.uleb128 0x11
 4418 10e5 01       		.uleb128 0x1
 4419 10e6 52       		.byte	0x52
 4420 10e7 01       		.uleb128 0x1
 4421 10e8 31       		.byte	0x31
 4422 10e9 00       		.byte	0
 4423 10ea 12       		.uleb128 0x12
 4424 10eb 6A000000 		.4byte	.LVL179
 4425 10ef D2160000 		.4byte	0x16d2
 4426 10f3 09110000 		.4byte	0x1109
 4427 10f7 11       		.uleb128 0x11
 4428 10f8 01       		.uleb128 0x1
 4429 10f9 50       		.byte	0x50
 4430 10fa 02       		.uleb128 0x2
 4431 10fb 74       		.byte	0x74
 4432 10fc 00       		.sleb128 0
 4433 10fd 11       		.uleb128 0x11
 4434 10fe 01       		.uleb128 0x1
 4435 10ff 51       		.byte	0x51
 4436 1100 02       		.uleb128 0x2
 4437 1101 08       		.byte	0x8
 4438 1102 41       		.byte	0x41
 4439 1103 11       		.uleb128 0x11
 4440 1104 01       		.uleb128 0x1
 4441 1105 52       		.byte	0x52
 4442 1106 01       		.uleb128 0x1
 4443 1107 30       		.byte	0x30
ARM GAS  C:\Users\brian\AppData\Local\Temp\cc2Kbm4j.s 			page 94


 4444 1108 00       		.byte	0
 4445 1109 12       		.uleb128 0x12
 4446 110a 78000000 		.4byte	.LVL182
 4447 110e D2160000 		.4byte	0x16d2
 4448 1112 29110000 		.4byte	0x1129
 4449 1116 11       		.uleb128 0x11
 4450 1117 01       		.uleb128 0x1
 4451 1118 50       		.byte	0x50
 4452 1119 02       		.uleb128 0x2
 4453 111a 74       		.byte	0x74
 4454 111b 00       		.sleb128 0
 4455 111c 11       		.uleb128 0x11
 4456 111d 01       		.uleb128 0x1
 4457 111e 51       		.byte	0x51
 4458 111f 02       		.uleb128 0x2
 4459 1120 08       		.byte	0x8
 4460 1121 40       		.byte	0x40
 4461 1122 11       		.uleb128 0x11
 4462 1123 01       		.uleb128 0x1
 4463 1124 52       		.byte	0x52
 4464 1125 02       		.uleb128 0x2
 4465 1126 78       		.byte	0x78
 4466 1127 00       		.sleb128 0
 4467 1128 00       		.byte	0
 4468 1129 12       		.uleb128 0x12
 4469 112a 84000000 		.4byte	.LVL183
 4470 112e D2160000 		.4byte	0x16d2
 4471 1132 43110000 		.4byte	0x1143
 4472 1136 11       		.uleb128 0x11
 4473 1137 01       		.uleb128 0x1
 4474 1138 50       		.byte	0x50
 4475 1139 02       		.uleb128 0x2
 4476 113a 74       		.byte	0x74
 4477 113b 00       		.sleb128 0
 4478 113c 11       		.uleb128 0x11
 4479 113d 01       		.uleb128 0x1
 4480 113e 51       		.byte	0x51
 4481 113f 02       		.uleb128 0x2
 4482 1140 08       		.byte	0x8
 4483 1141 2C       		.byte	0x2c
 4484 1142 00       		.byte	0
 4485 1143 12       		.uleb128 0x12
 4486 1144 8E000000 		.4byte	.LVL184
 4487 1148 D2160000 		.4byte	0x16d2
 4488 114c 63110000 		.4byte	0x1163
 4489 1150 11       		.uleb128 0x11
 4490 1151 01       		.uleb128 0x1
 4491 1152 50       		.byte	0x50
 4492 1153 02       		.uleb128 0x2
 4493 1154 74       		.byte	0x74
 4494 1155 00       		.sleb128 0
 4495 1156 11       		.uleb128 0x11
 4496 1157 01       		.uleb128 0x1
 4497 1158 51       		.byte	0x51
 4498 1159 02       		.uleb128 0x2
 4499 115a 08       		.byte	0x8
 4500 115b 40       		.byte	0x40
ARM GAS  C:\Users\brian\AppData\Local\Temp\cc2Kbm4j.s 			page 95


 4501 115c 11       		.uleb128 0x11
 4502 115d 01       		.uleb128 0x1
 4503 115e 52       		.byte	0x52
 4504 115f 02       		.uleb128 0x2
 4505 1160 77       		.byte	0x77
 4506 1161 00       		.sleb128 0
 4507 1162 00       		.byte	0
 4508 1163 12       		.uleb128 0x12
 4509 1164 9A000000 		.4byte	.LVL185
 4510 1168 D2160000 		.4byte	0x16d2
 4511 116c 7D110000 		.4byte	0x117d
 4512 1170 11       		.uleb128 0x11
 4513 1171 01       		.uleb128 0x1
 4514 1172 50       		.byte	0x50
 4515 1173 02       		.uleb128 0x2
 4516 1174 74       		.byte	0x74
 4517 1175 00       		.sleb128 0
 4518 1176 11       		.uleb128 0x11
 4519 1177 01       		.uleb128 0x1
 4520 1178 51       		.byte	0x51
 4521 1179 02       		.uleb128 0x2
 4522 117a 08       		.byte	0x8
 4523 117b 2C       		.byte	0x2c
 4524 117c 00       		.byte	0
 4525 117d 12       		.uleb128 0x12
 4526 117e B6000000 		.4byte	.LVL190
 4527 1182 D2160000 		.4byte	0x16d2
 4528 1186 91110000 		.4byte	0x1191
 4529 118a 11       		.uleb128 0x11
 4530 118b 01       		.uleb128 0x1
 4531 118c 51       		.byte	0x51
 4532 118d 02       		.uleb128 0x2
 4533 118e 08       		.byte	0x8
 4534 118f 49       		.byte	0x49
 4535 1190 00       		.byte	0
 4536 1191 12       		.uleb128 0x12
 4537 1192 C6000000 		.4byte	.LVL191
 4538 1196 D2160000 		.4byte	0x16d2
 4539 119a AB110000 		.4byte	0x11ab
 4540 119e 11       		.uleb128 0x11
 4541 119f 01       		.uleb128 0x1
 4542 11a0 50       		.byte	0x50
 4543 11a1 02       		.uleb128 0x2
 4544 11a2 74       		.byte	0x74
 4545 11a3 00       		.sleb128 0
 4546 11a4 11       		.uleb128 0x11
 4547 11a5 01       		.uleb128 0x1
 4548 11a6 51       		.byte	0x51
 4549 11a7 02       		.uleb128 0x2
 4550 11a8 08       		.byte	0x8
 4551 11a9 40       		.byte	0x40
 4552 11aa 00       		.byte	0
 4553 11ab 12       		.uleb128 0x12
 4554 11ac E0000000 		.4byte	.LVL195
 4555 11b0 D2160000 		.4byte	0x16d2
 4556 11b4 BF110000 		.4byte	0x11bf
 4557 11b8 11       		.uleb128 0x11
ARM GAS  C:\Users\brian\AppData\Local\Temp\cc2Kbm4j.s 			page 96


 4558 11b9 01       		.uleb128 0x1
 4559 11ba 51       		.byte	0x51
 4560 11bb 02       		.uleb128 0x2
 4561 11bc 08       		.byte	0x8
 4562 11bd 49       		.byte	0x49
 4563 11be 00       		.byte	0
 4564 11bf 1E       		.uleb128 0x1e
 4565 11c0 EE000000 		.4byte	.LVL196
 4566 11c4 02       		.uleb128 0x2
 4567 11c5 75       		.byte	0x75
 4568 11c6 00       		.sleb128 0
 4569 11c7 DD110000 		.4byte	0x11dd
 4570 11cb 11       		.uleb128 0x11
 4571 11cc 01       		.uleb128 0x1
 4572 11cd 50       		.byte	0x50
 4573 11ce 02       		.uleb128 0x2
 4574 11cf 74       		.byte	0x74
 4575 11d0 00       		.sleb128 0
 4576 11d1 11       		.uleb128 0x11
 4577 11d2 01       		.uleb128 0x1
 4578 11d3 51       		.byte	0x51
 4579 11d4 02       		.uleb128 0x2
 4580 11d5 08       		.byte	0x8
 4581 11d6 2C       		.byte	0x2c
 4582 11d7 11       		.uleb128 0x11
 4583 11d8 01       		.uleb128 0x1
 4584 11d9 53       		.byte	0x53
 4585 11da 01       		.uleb128 0x1
 4586 11db 30       		.byte	0x30
 4587 11dc 00       		.byte	0
 4588 11dd 1E       		.uleb128 0x1e
 4589 11de FE000000 		.4byte	.LVL198
 4590 11e2 02       		.uleb128 0x2
 4591 11e3 75       		.byte	0x75
 4592 11e4 00       		.sleb128 0
 4593 11e5 FB110000 		.4byte	0x11fb
 4594 11e9 11       		.uleb128 0x11
 4595 11ea 01       		.uleb128 0x1
 4596 11eb 50       		.byte	0x50
 4597 11ec 02       		.uleb128 0x2
 4598 11ed 74       		.byte	0x74
 4599 11ee 00       		.sleb128 0
 4600 11ef 11       		.uleb128 0x11
 4601 11f0 01       		.uleb128 0x1
 4602 11f1 51       		.byte	0x51
 4603 11f2 02       		.uleb128 0x2
 4604 11f3 08       		.byte	0x8
 4605 11f4 2C       		.byte	0x2c
 4606 11f5 11       		.uleb128 0x11
 4607 11f6 01       		.uleb128 0x1
 4608 11f7 53       		.byte	0x53
 4609 11f8 01       		.uleb128 0x1
 4610 11f9 30       		.byte	0x30
 4611 11fa 00       		.byte	0
 4612 11fb 10       		.uleb128 0x10
 4613 11fc 0A010000 		.4byte	.LVL199
 4614 1200 D2160000 		.4byte	0x16d2
ARM GAS  C:\Users\brian\AppData\Local\Temp\cc2Kbm4j.s 			page 97


 4615 1204 11       		.uleb128 0x11
 4616 1205 01       		.uleb128 0x1
 4617 1206 50       		.byte	0x50
 4618 1207 02       		.uleb128 0x2
 4619 1208 74       		.byte	0x74
 4620 1209 00       		.sleb128 0
 4621 120a 11       		.uleb128 0x11
 4622 120b 01       		.uleb128 0x1
 4623 120c 51       		.byte	0x51
 4624 120d 02       		.uleb128 0x2
 4625 120e 08       		.byte	0x8
 4626 120f 49       		.byte	0x49
 4627 1210 00       		.byte	0
 4628 1211 00       		.byte	0
 4629 1212 23       		.uleb128 0x23
 4630 1213 3F050000 		.4byte	.LASF96
 4631 1217 01       		.byte	0x1
 4632 1218 4B01     		.2byte	0x14b
 4633 121a 00000000 		.4byte	.LFB10
 4634 121e 2C000000 		.4byte	.LFE10-.LFB10
 4635 1222 01       		.uleb128 0x1
 4636 1223 9C       		.byte	0x9c
 4637 1224 AD120000 		.4byte	0x12ad
 4638 1228 0F       		.uleb128 0xf
 4639 1229 7F010000 		.4byte	.LASF62
 4640 122d 01       		.byte	0x1
 4641 122e 4B01     		.2byte	0x14b
 4642 1230 FB020000 		.4byte	0x2fb
 4643 1234 050A0000 		.4byte	.LLST53
 4644 1238 13       		.uleb128 0x13
 4645 1239 61726700 		.ascii	"arg\000"
 4646 123d 01       		.byte	0x1
 4647 123e 4B01     		.2byte	0x14b
 4648 1240 8C000000 		.4byte	0x8c
 4649 1244 230A0000 		.4byte	.LLST54
 4650 1248 12       		.uleb128 0x12
 4651 1249 10000000 		.4byte	.LVL205
 4652 124d D2160000 		.4byte	0x16d2
 4653 1251 6A120000 		.4byte	0x126a
 4654 1255 11       		.uleb128 0x11
 4655 1256 01       		.uleb128 0x1
 4656 1257 50       		.byte	0x50
 4657 1258 02       		.uleb128 0x2
 4658 1259 75       		.byte	0x75
 4659 125a 00       		.sleb128 0
 4660 125b 11       		.uleb128 0x11
 4661 125c 01       		.uleb128 0x1
 4662 125d 51       		.byte	0x51
 4663 125e 02       		.uleb128 0x2
 4664 125f 08       		.byte	0x8
 4665 1260 49       		.byte	0x49
 4666 1261 11       		.uleb128 0x11
 4667 1262 01       		.uleb128 0x1
 4668 1263 52       		.byte	0x52
 4669 1264 04       		.uleb128 0x4
 4670 1265 74       		.byte	0x74
 4671 1266 00       		.sleb128 0
ARM GAS  C:\Users\brian\AppData\Local\Temp\cc2Kbm4j.s 			page 98


 4672 1267 31       		.byte	0x31
 4673 1268 1A       		.byte	0x1a
 4674 1269 00       		.byte	0
 4675 126a 12       		.uleb128 0x12
 4676 126b 1E000000 		.4byte	.LVL207
 4677 126f D2160000 		.4byte	0x16d2
 4678 1273 8C120000 		.4byte	0x128c
 4679 1277 11       		.uleb128 0x11
 4680 1278 01       		.uleb128 0x1
 4681 1279 50       		.byte	0x50
 4682 127a 02       		.uleb128 0x2
 4683 127b 75       		.byte	0x75
 4684 127c 00       		.sleb128 0
 4685 127d 11       		.uleb128 0x11
 4686 127e 01       		.uleb128 0x1
 4687 127f 51       		.byte	0x51
 4688 1280 02       		.uleb128 0x2
 4689 1281 08       		.byte	0x8
 4690 1282 4E       		.byte	0x4e
 4691 1283 11       		.uleb128 0x11
 4692 1284 01       		.uleb128 0x1
 4693 1285 52       		.byte	0x52
 4694 1286 04       		.uleb128 0x4
 4695 1287 74       		.byte	0x74
 4696 1288 00       		.sleb128 0
 4697 1289 31       		.byte	0x31
 4698 128a 1A       		.byte	0x1a
 4699 128b 00       		.byte	0
 4700 128c 10       		.uleb128 0x10
 4701 128d 2A000000 		.4byte	.LVL208
 4702 1291 D2160000 		.4byte	0x16d2
 4703 1295 11       		.uleb128 0x11
 4704 1296 01       		.uleb128 0x1
 4705 1297 50       		.byte	0x50
 4706 1298 02       		.uleb128 0x2
 4707 1299 75       		.byte	0x75
 4708 129a 00       		.sleb128 0
 4709 129b 11       		.uleb128 0x11
 4710 129c 01       		.uleb128 0x1
 4711 129d 51       		.byte	0x51
 4712 129e 02       		.uleb128 0x2
 4713 129f 08       		.byte	0x8
 4714 12a0 4F       		.byte	0x4f
 4715 12a1 11       		.uleb128 0x11
 4716 12a2 01       		.uleb128 0x1
 4717 12a3 52       		.byte	0x52
 4718 12a4 06       		.uleb128 0x6
 4719 12a5 74       		.byte	0x74
 4720 12a6 00       		.sleb128 0
 4721 12a7 32       		.byte	0x32
 4722 12a8 24       		.byte	0x24
 4723 12a9 33       		.byte	0x33
 4724 12aa 25       		.byte	0x25
 4725 12ab 00       		.byte	0
 4726 12ac 00       		.byte	0
 4727 12ad 1F       		.uleb128 0x1f
 4728 12ae 28040000 		.4byte	.LASF89
ARM GAS  C:\Users\brian\AppData\Local\Temp\cc2Kbm4j.s 			page 99


 4729 12b2 01       		.byte	0x1
 4730 12b3 5501     		.2byte	0x155
 4731 12b5 8C000000 		.4byte	0x8c
 4732 12b9 00000000 		.4byte	.LFB11
 4733 12bd DA000000 		.4byte	.LFE11-.LFB11
 4734 12c1 01       		.uleb128 0x1
 4735 12c2 9C       		.byte	0x9c
 4736 12c3 7B140000 		.4byte	0x147b
 4737 12c7 0F       		.uleb128 0xf
 4738 12c8 7F010000 		.4byte	.LASF62
 4739 12cc 01       		.byte	0x1
 4740 12cd 5501     		.2byte	0x155
 4741 12cf FB020000 		.4byte	0x2fb
 4742 12d3 5E0A0000 		.4byte	.LLST55
 4743 12d7 13       		.uleb128 0x13
 4744 12d8 6D736700 		.ascii	"msg\000"
 4745 12dc 01       		.byte	0x1
 4746 12dd 5501     		.2byte	0x155
 4747 12df 8C000000 		.4byte	0x8c
 4748 12e3 EA0A0000 		.4byte	.LLST56
 4749 12e7 0F       		.uleb128 0xf
 4750 12e8 93010000 		.4byte	.LASF80
 4751 12ec 01       		.byte	0x1
 4752 12ed 5501     		.2byte	0x155
 4753 12ef 8C000000 		.4byte	0x8c
 4754 12f3 0B0B0000 		.4byte	.LLST57
 4755 12f7 0F       		.uleb128 0xf
 4756 12f8 44000000 		.4byte	.LASF81
 4757 12fc 01       		.byte	0x1
 4758 12fd 5501     		.2byte	0x155
 4759 12ff AD000000 		.4byte	0xad
 4760 1303 A30B0000 		.4byte	.LLST58
 4761 1307 20       		.uleb128 0x20
 4762 1308 6900     		.ascii	"i\000"
 4763 130a 01       		.byte	0x1
 4764 130b 5701     		.2byte	0x157
 4765 130d 8C000000 		.4byte	0x8c
 4766 1311 CF0B0000 		.4byte	.LLST59
 4767 1315 20       		.uleb128 0x20
 4768 1316 6200     		.ascii	"b\000"
 4769 1318 01       		.byte	0x1
 4770 1319 5701     		.2byte	0x157
 4771 131b 8C000000 		.4byte	0x8c
 4772 131f FA0B0000 		.4byte	.LLST60
 4773 1323 21       		.uleb128 0x21
 4774 1324 E1020000 		.4byte	.LASF74
 4775 1328 01       		.byte	0x1
 4776 1329 5801     		.2byte	0x158
 4777 132b 26030000 		.4byte	0x326
 4778 132f 0D0C0000 		.4byte	.LLST61
 4779 1333 12       		.uleb128 0x12
 4780 1334 3A000000 		.4byte	.LVL216
 4781 1338 D2160000 		.4byte	0x16d2
 4782 133c 55130000 		.4byte	0x1355
 4783 1340 11       		.uleb128 0x11
 4784 1341 01       		.uleb128 0x1
 4785 1342 50       		.byte	0x50
ARM GAS  C:\Users\brian\AppData\Local\Temp\cc2Kbm4j.s 			page 100


 4786 1343 02       		.uleb128 0x2
 4787 1344 76       		.byte	0x76
 4788 1345 00       		.sleb128 0
 4789 1346 11       		.uleb128 0x11
 4790 1347 01       		.uleb128 0x1
 4791 1348 51       		.byte	0x51
 4792 1349 02       		.uleb128 0x2
 4793 134a 74       		.byte	0x74
 4794 134b 00       		.sleb128 0
 4795 134c 11       		.uleb128 0x11
 4796 134d 01       		.uleb128 0x1
 4797 134e 52       		.byte	0x52
 4798 134f 04       		.uleb128 0x4
 4799 1350 75       		.byte	0x75
 4800 1351 00       		.sleb128 0
 4801 1352 31       		.byte	0x31
 4802 1353 1A       		.byte	0x1a
 4803 1354 00       		.byte	0
 4804 1355 12       		.uleb128 0x12
 4805 1356 50000000 		.4byte	.LVL220
 4806 135a D2160000 		.4byte	0x16d2
 4807 135e 6F130000 		.4byte	0x136f
 4808 1362 11       		.uleb128 0x11
 4809 1363 01       		.uleb128 0x1
 4810 1364 50       		.byte	0x50
 4811 1365 02       		.uleb128 0x2
 4812 1366 76       		.byte	0x76
 4813 1367 00       		.sleb128 0
 4814 1368 11       		.uleb128 0x11
 4815 1369 01       		.uleb128 0x1
 4816 136a 51       		.byte	0x51
 4817 136b 02       		.uleb128 0x2
 4818 136c 08       		.byte	0x8
 4819 136d 2C       		.byte	0x2c
 4820 136e 00       		.byte	0
 4821 136f 12       		.uleb128 0x12
 4822 1370 5A000000 		.4byte	.LVL221
 4823 1374 D2160000 		.4byte	0x16d2
 4824 1378 8E130000 		.4byte	0x138e
 4825 137c 11       		.uleb128 0x11
 4826 137d 01       		.uleb128 0x1
 4827 137e 50       		.byte	0x50
 4828 137f 02       		.uleb128 0x2
 4829 1380 76       		.byte	0x76
 4830 1381 00       		.sleb128 0
 4831 1382 11       		.uleb128 0x11
 4832 1383 01       		.uleb128 0x1
 4833 1384 51       		.byte	0x51
 4834 1385 02       		.uleb128 0x2
 4835 1386 08       		.byte	0x8
 4836 1387 48       		.byte	0x48
 4837 1388 11       		.uleb128 0x11
 4838 1389 01       		.uleb128 0x1
 4839 138a 52       		.byte	0x52
 4840 138b 01       		.uleb128 0x1
 4841 138c 31       		.byte	0x31
 4842 138d 00       		.byte	0
ARM GAS  C:\Users\brian\AppData\Local\Temp\cc2Kbm4j.s 			page 101


 4843 138e 12       		.uleb128 0x12
 4844 138f 66000000 		.4byte	.LVL222
 4845 1393 D2160000 		.4byte	0x16d2
 4846 1397 A8130000 		.4byte	0x13a8
 4847 139b 11       		.uleb128 0x11
 4848 139c 01       		.uleb128 0x1
 4849 139d 50       		.byte	0x50
 4850 139e 02       		.uleb128 0x2
 4851 139f 76       		.byte	0x76
 4852 13a0 00       		.sleb128 0
 4853 13a1 11       		.uleb128 0x11
 4854 13a2 01       		.uleb128 0x1
 4855 13a3 51       		.byte	0x51
 4856 13a4 02       		.uleb128 0x2
 4857 13a5 08       		.byte	0x8
 4858 13a6 2C       		.byte	0x2c
 4859 13a7 00       		.byte	0
 4860 13a8 12       		.uleb128 0x12
 4861 13a9 70000000 		.4byte	.LVL223
 4862 13ad D2160000 		.4byte	0x16d2
 4863 13b1 C7130000 		.4byte	0x13c7
 4864 13b5 11       		.uleb128 0x11
 4865 13b6 01       		.uleb128 0x1
 4866 13b7 50       		.byte	0x50
 4867 13b8 02       		.uleb128 0x2
 4868 13b9 76       		.byte	0x76
 4869 13ba 00       		.sleb128 0
 4870 13bb 11       		.uleb128 0x11
 4871 13bc 01       		.uleb128 0x1
 4872 13bd 51       		.byte	0x51
 4873 13be 02       		.uleb128 0x2
 4874 13bf 08       		.byte	0x8
 4875 13c0 48       		.byte	0x48
 4876 13c1 11       		.uleb128 0x11
 4877 13c2 01       		.uleb128 0x1
 4878 13c3 52       		.byte	0x52
 4879 13c4 01       		.uleb128 0x1
 4880 13c5 30       		.byte	0x30
 4881 13c6 00       		.byte	0
 4882 13c7 12       		.uleb128 0x12
 4883 13c8 84000000 		.4byte	.LVL226
 4884 13cc D2160000 		.4byte	0x16d2
 4885 13d0 E1130000 		.4byte	0x13e1
 4886 13d4 11       		.uleb128 0x11
 4887 13d5 01       		.uleb128 0x1
 4888 13d6 50       		.byte	0x50
 4889 13d7 02       		.uleb128 0x2
 4890 13d8 76       		.byte	0x76
 4891 13d9 00       		.sleb128 0
 4892 13da 11       		.uleb128 0x11
 4893 13db 01       		.uleb128 0x1
 4894 13dc 51       		.byte	0x51
 4895 13dd 02       		.uleb128 0x2
 4896 13de 08       		.byte	0x8
 4897 13df 49       		.byte	0x49
 4898 13e0 00       		.byte	0
 4899 13e1 12       		.uleb128 0x12
ARM GAS  C:\Users\brian\AppData\Local\Temp\cc2Kbm4j.s 			page 102


 4900 13e2 8E000000 		.4byte	.LVL227
 4901 13e6 D2160000 		.4byte	0x16d2
 4902 13ea 00140000 		.4byte	0x1400
 4903 13ee 11       		.uleb128 0x11
 4904 13ef 01       		.uleb128 0x1
 4905 13f0 50       		.byte	0x50
 4906 13f1 02       		.uleb128 0x2
 4907 13f2 76       		.byte	0x76
 4908 13f3 00       		.sleb128 0
 4909 13f4 11       		.uleb128 0x11
 4910 13f5 01       		.uleb128 0x1
 4911 13f6 51       		.byte	0x51
 4912 13f7 02       		.uleb128 0x2
 4913 13f8 08       		.byte	0x8
 4914 13f9 48       		.byte	0x48
 4915 13fa 11       		.uleb128 0x11
 4916 13fb 01       		.uleb128 0x1
 4917 13fc 52       		.byte	0x52
 4918 13fd 01       		.uleb128 0x1
 4919 13fe 30       		.byte	0x30
 4920 13ff 00       		.byte	0
 4921 1400 12       		.uleb128 0x12
 4922 1401 9A000000 		.4byte	.LVL229
 4923 1405 D2160000 		.4byte	0x16d2
 4924 1409 14140000 		.4byte	0x1414
 4925 140d 11       		.uleb128 0x11
 4926 140e 01       		.uleb128 0x1
 4927 140f 51       		.byte	0x51
 4928 1410 02       		.uleb128 0x2
 4929 1411 08       		.byte	0x8
 4930 1412 4A       		.byte	0x4a
 4931 1413 00       		.byte	0
 4932 1414 12       		.uleb128 0x12
 4933 1415 A6000000 		.4byte	.LVL231
 4934 1419 12120000 		.4byte	0x1212
 4935 141d 28140000 		.4byte	0x1428
 4936 1421 11       		.uleb128 0x11
 4937 1422 01       		.uleb128 0x1
 4938 1423 51       		.byte	0x51
 4939 1424 02       		.uleb128 0x2
 4940 1425 77       		.byte	0x77
 4941 1426 00       		.sleb128 0
 4942 1427 00       		.byte	0
 4943 1428 1E       		.uleb128 0x1e
 4944 1429 B4000000 		.4byte	.LVL232
 4945 142d 02       		.uleb128 0x2
 4946 142e 74       		.byte	0x74
 4947 142f 00       		.sleb128 0
 4948 1430 46140000 		.4byte	0x1446
 4949 1434 11       		.uleb128 0x11
 4950 1435 01       		.uleb128 0x1
 4951 1436 50       		.byte	0x50
 4952 1437 02       		.uleb128 0x2
 4953 1438 76       		.byte	0x76
 4954 1439 00       		.sleb128 0
 4955 143a 11       		.uleb128 0x11
 4956 143b 01       		.uleb128 0x1
ARM GAS  C:\Users\brian\AppData\Local\Temp\cc2Kbm4j.s 			page 103


 4957 143c 51       		.byte	0x51
 4958 143d 02       		.uleb128 0x2
 4959 143e 08       		.byte	0x8
 4960 143f 2C       		.byte	0x2c
 4961 1440 11       		.uleb128 0x11
 4962 1441 01       		.uleb128 0x1
 4963 1442 53       		.byte	0x53
 4964 1443 01       		.uleb128 0x1
 4965 1444 30       		.byte	0x30
 4966 1445 00       		.byte	0
 4967 1446 1E       		.uleb128 0x1e
 4968 1447 C6000000 		.4byte	.LVL235
 4969 144b 02       		.uleb128 0x2
 4970 144c 74       		.byte	0x74
 4971 144d 00       		.sleb128 0
 4972 144e 64140000 		.4byte	0x1464
 4973 1452 11       		.uleb128 0x11
 4974 1453 01       		.uleb128 0x1
 4975 1454 50       		.byte	0x50
 4976 1455 02       		.uleb128 0x2
 4977 1456 76       		.byte	0x76
 4978 1457 00       		.sleb128 0
 4979 1458 11       		.uleb128 0x11
 4980 1459 01       		.uleb128 0x1
 4981 145a 51       		.byte	0x51
 4982 145b 02       		.uleb128 0x2
 4983 145c 08       		.byte	0x8
 4984 145d 2C       		.byte	0x2c
 4985 145e 11       		.uleb128 0x11
 4986 145f 01       		.uleb128 0x1
 4987 1460 53       		.byte	0x53
 4988 1461 01       		.uleb128 0x1
 4989 1462 30       		.byte	0x30
 4990 1463 00       		.byte	0
 4991 1464 10       		.uleb128 0x10
 4992 1465 CE000000 		.4byte	.LVL236
 4993 1469 12120000 		.4byte	0x1212
 4994 146d 11       		.uleb128 0x11
 4995 146e 01       		.uleb128 0x1
 4996 146f 50       		.byte	0x50
 4997 1470 02       		.uleb128 0x2
 4998 1471 76       		.byte	0x76
 4999 1472 00       		.sleb128 0
 5000 1473 11       		.uleb128 0x11
 5001 1474 01       		.uleb128 0x1
 5002 1475 51       		.byte	0x51
 5003 1476 02       		.uleb128 0x2
 5004 1477 77       		.byte	0x77
 5005 1478 00       		.sleb128 0
 5006 1479 00       		.byte	0
 5007 147a 00       		.byte	0
 5008 147b 1F       		.uleb128 0x1f
 5009 147c CF020000 		.4byte	.LASF90
 5010 1480 01       		.byte	0x1
 5011 1481 8D01     		.2byte	0x18d
 5012 1483 8C000000 		.4byte	0x8c
 5013 1487 00000000 		.4byte	.LFB12
ARM GAS  C:\Users\brian\AppData\Local\Temp\cc2Kbm4j.s 			page 104


 5014 148b E4000000 		.4byte	.LFE12-.LFB12
 5015 148f 01       		.uleb128 0x1
 5016 1490 9C       		.byte	0x9c
 5017 1491 24160000 		.4byte	0x1624
 5018 1495 0F       		.uleb128 0xf
 5019 1496 7F010000 		.4byte	.LASF62
 5020 149a 01       		.byte	0x1
 5021 149b 8D01     		.2byte	0x18d
 5022 149d FB020000 		.4byte	0x2fb
 5023 14a1 200C0000 		.4byte	.LLST62
 5024 14a5 13       		.uleb128 0x13
 5025 14a6 6D736700 		.ascii	"msg\000"
 5026 14aa 01       		.byte	0x1
 5027 14ab 8D01     		.2byte	0x18d
 5028 14ad 8C000000 		.4byte	0x8c
 5029 14b1 BA0C0000 		.4byte	.LLST63
 5030 14b5 0F       		.uleb128 0xf
 5031 14b6 93010000 		.4byte	.LASF80
 5032 14ba 01       		.byte	0x1
 5033 14bb 8D01     		.2byte	0x18d
 5034 14bd 8C000000 		.4byte	0x8c
 5035 14c1 DB0C0000 		.4byte	.LLST64
 5036 14c5 0F       		.uleb128 0xf
 5037 14c6 44000000 		.4byte	.LASF81
 5038 14ca 01       		.byte	0x1
 5039 14cb 8D01     		.2byte	0x18d
 5040 14cd AD000000 		.4byte	0xad
 5041 14d1 680D0000 		.4byte	.LLST65
 5042 14d5 20       		.uleb128 0x20
 5043 14d6 6900     		.ascii	"i\000"
 5044 14d8 01       		.byte	0x1
 5045 14d9 8F01     		.2byte	0x18f
 5046 14db 8C000000 		.4byte	0x8c
 5047 14df AD0D0000 		.4byte	.LLST66
 5048 14e3 20       		.uleb128 0x20
 5049 14e4 6200     		.ascii	"b\000"
 5050 14e6 01       		.byte	0x1
 5051 14e7 8F01     		.2byte	0x18f
 5052 14e9 8C000000 		.4byte	0x8c
 5053 14ed D80D0000 		.4byte	.LLST67
 5054 14f1 21       		.uleb128 0x21
 5055 14f2 E1020000 		.4byte	.LASF74
 5056 14f6 01       		.byte	0x1
 5057 14f7 9001     		.2byte	0x190
 5058 14f9 26030000 		.4byte	0x326
 5059 14fd EB0D0000 		.4byte	.LLST68
 5060 1501 22       		.uleb128 0x22
 5061 1502 1C050000 		.4byte	.LASF91
 5062 1506 01       		.byte	0x1
 5063 1507 9101     		.2byte	0x191
 5064 1509 8C000000 		.4byte	0x8c
 5065 150d 05       		.uleb128 0x5
 5066 150e 03       		.byte	0x3
 5067 150f 01000000 		.4byte	enable_pin.5838
 5068 1513 12       		.uleb128 0x12
 5069 1514 40000000 		.4byte	.LVL248
 5070 1518 D2160000 		.4byte	0x16d2
ARM GAS  C:\Users\brian\AppData\Local\Temp\cc2Kbm4j.s 			page 105


 5071 151c 35150000 		.4byte	0x1535
 5072 1520 11       		.uleb128 0x11
 5073 1521 01       		.uleb128 0x1
 5074 1522 50       		.byte	0x50
 5075 1523 02       		.uleb128 0x2
 5076 1524 76       		.byte	0x76
 5077 1525 00       		.sleb128 0
 5078 1526 11       		.uleb128 0x11
 5079 1527 01       		.uleb128 0x1
 5080 1528 51       		.byte	0x51
 5081 1529 02       		.uleb128 0x2
 5082 152a 74       		.byte	0x74
 5083 152b 00       		.sleb128 0
 5084 152c 11       		.uleb128 0x11
 5085 152d 01       		.uleb128 0x1
 5086 152e 52       		.byte	0x52
 5087 152f 04       		.uleb128 0x4
 5088 1530 75       		.byte	0x75
 5089 1531 00       		.sleb128 0
 5090 1532 31       		.byte	0x31
 5091 1533 1A       		.byte	0x1a
 5092 1534 00       		.byte	0
 5093 1535 12       		.uleb128 0x12
 5094 1536 56000000 		.4byte	.LVL252
 5095 153a D2160000 		.4byte	0x16d2
 5096 153e 4F150000 		.4byte	0x154f
 5097 1542 11       		.uleb128 0x11
 5098 1543 01       		.uleb128 0x1
 5099 1544 50       		.byte	0x50
 5100 1545 02       		.uleb128 0x2
 5101 1546 76       		.byte	0x76
 5102 1547 00       		.sleb128 0
 5103 1548 11       		.uleb128 0x11
 5104 1549 01       		.uleb128 0x1
 5105 154a 51       		.byte	0x51
 5106 154b 02       		.uleb128 0x2
 5107 154c 08       		.byte	0x8
 5108 154d 2C       		.byte	0x2c
 5109 154e 00       		.byte	0
 5110 154f 12       		.uleb128 0x12
 5111 1550 62000000 		.4byte	.LVL254
 5112 1554 D2160000 		.4byte	0x16d2
 5113 1558 68150000 		.4byte	0x1568
 5114 155c 11       		.uleb128 0x11
 5115 155d 01       		.uleb128 0x1
 5116 155e 50       		.byte	0x50
 5117 155f 02       		.uleb128 0x2
 5118 1560 76       		.byte	0x76
 5119 1561 00       		.sleb128 0
 5120 1562 11       		.uleb128 0x11
 5121 1563 01       		.uleb128 0x1
 5122 1564 52       		.byte	0x52
 5123 1565 01       		.uleb128 0x1
 5124 1566 31       		.byte	0x31
 5125 1567 00       		.byte	0
 5126 1568 12       		.uleb128 0x12
 5127 1569 6C000000 		.4byte	.LVL255
ARM GAS  C:\Users\brian\AppData\Local\Temp\cc2Kbm4j.s 			page 106


 5128 156d D2160000 		.4byte	0x16d2
 5129 1571 88150000 		.4byte	0x1588
 5130 1575 11       		.uleb128 0x11
 5131 1576 01       		.uleb128 0x1
 5132 1577 50       		.byte	0x50
 5133 1578 02       		.uleb128 0x2
 5134 1579 76       		.byte	0x76
 5135 157a 00       		.sleb128 0
 5136 157b 11       		.uleb128 0x11
 5137 157c 01       		.uleb128 0x1
 5138 157d 51       		.byte	0x51
 5139 157e 02       		.uleb128 0x2
 5140 157f 08       		.byte	0x8
 5141 1580 2C       		.byte	0x2c
 5142 1581 11       		.uleb128 0x11
 5143 1582 01       		.uleb128 0x1
 5144 1583 52       		.byte	0x52
 5145 1584 02       		.uleb128 0x2
 5146 1585 09       		.byte	0x9
 5147 1586 C8       		.byte	0xc8
 5148 1587 00       		.byte	0
 5149 1588 12       		.uleb128 0x12
 5150 1589 78000000 		.4byte	.LVL256
 5151 158d D2160000 		.4byte	0x16d2
 5152 1591 A2150000 		.4byte	0x15a2
 5153 1595 11       		.uleb128 0x11
 5154 1596 01       		.uleb128 0x1
 5155 1597 50       		.byte	0x50
 5156 1598 02       		.uleb128 0x2
 5157 1599 76       		.byte	0x76
 5158 159a 00       		.sleb128 0
 5159 159b 11       		.uleb128 0x11
 5160 159c 01       		.uleb128 0x1
 5161 159d 51       		.byte	0x51
 5162 159e 02       		.uleb128 0x2
 5163 159f 08       		.byte	0x8
 5164 15a0 2C       		.byte	0x2c
 5165 15a1 00       		.byte	0
 5166 15a2 12       		.uleb128 0x12
 5167 15a3 82000000 		.4byte	.LVL257
 5168 15a7 D2160000 		.4byte	0x16d2
 5169 15ab BB150000 		.4byte	0x15bb
 5170 15af 11       		.uleb128 0x11
 5171 15b0 01       		.uleb128 0x1
 5172 15b1 50       		.byte	0x50
 5173 15b2 02       		.uleb128 0x2
 5174 15b3 76       		.byte	0x76
 5175 15b4 00       		.sleb128 0
 5176 15b5 11       		.uleb128 0x11
 5177 15b6 01       		.uleb128 0x1
 5178 15b7 52       		.byte	0x52
 5179 15b8 01       		.uleb128 0x1
 5180 15b9 30       		.byte	0x30
 5181 15ba 00       		.byte	0
 5182 15bb 12       		.uleb128 0x12
 5183 15bc 96000000 		.4byte	.LVL260
 5184 15c0 D2160000 		.4byte	0x16d2
ARM GAS  C:\Users\brian\AppData\Local\Temp\cc2Kbm4j.s 			page 107


 5185 15c4 D5150000 		.4byte	0x15d5
 5186 15c8 11       		.uleb128 0x11
 5187 15c9 01       		.uleb128 0x1
 5188 15ca 50       		.byte	0x50
 5189 15cb 02       		.uleb128 0x2
 5190 15cc 76       		.byte	0x76
 5191 15cd 00       		.sleb128 0
 5192 15ce 11       		.uleb128 0x11
 5193 15cf 01       		.uleb128 0x1
 5194 15d0 51       		.byte	0x51
 5195 15d1 02       		.uleb128 0x2
 5196 15d2 08       		.byte	0x8
 5197 15d3 49       		.byte	0x49
 5198 15d4 00       		.byte	0
 5199 15d5 12       		.uleb128 0x12
 5200 15d6 A0000000 		.4byte	.LVL261
 5201 15da D2160000 		.4byte	0x16d2
 5202 15de F4150000 		.4byte	0x15f4
 5203 15e2 11       		.uleb128 0x11
 5204 15e3 01       		.uleb128 0x1
 5205 15e4 50       		.byte	0x50
 5206 15e5 02       		.uleb128 0x2
 5207 15e6 76       		.byte	0x76
 5208 15e7 00       		.sleb128 0
 5209 15e8 11       		.uleb128 0x11
 5210 15e9 01       		.uleb128 0x1
 5211 15ea 51       		.byte	0x51
 5212 15eb 02       		.uleb128 0x2
 5213 15ec 08       		.byte	0x8
 5214 15ed 48       		.byte	0x48
 5215 15ee 11       		.uleb128 0x11
 5216 15ef 01       		.uleb128 0x1
 5217 15f0 52       		.byte	0x52
 5218 15f1 01       		.uleb128 0x1
 5219 15f2 30       		.byte	0x30
 5220 15f3 00       		.byte	0
 5221 15f4 12       		.uleb128 0x12
 5222 15f5 AA000000 		.4byte	.LVL262
 5223 15f9 D2160000 		.4byte	0x16d2
 5224 15fd 13160000 		.4byte	0x1613
 5225 1601 11       		.uleb128 0x11
 5226 1602 01       		.uleb128 0x1
 5227 1603 50       		.byte	0x50
 5228 1604 02       		.uleb128 0x2
 5229 1605 76       		.byte	0x76
 5230 1606 00       		.sleb128 0
 5231 1607 11       		.uleb128 0x11
 5232 1608 01       		.uleb128 0x1
 5233 1609 51       		.byte	0x51
 5234 160a 02       		.uleb128 0x2
 5235 160b 08       		.byte	0x8
 5236 160c 49       		.byte	0x49
 5237 160d 11       		.uleb128 0x11
 5238 160e 01       		.uleb128 0x1
 5239 160f 52       		.byte	0x52
 5240 1610 01       		.uleb128 0x1
 5241 1611 30       		.byte	0x30
ARM GAS  C:\Users\brian\AppData\Local\Temp\cc2Kbm4j.s 			page 108


 5242 1612 00       		.byte	0
 5243 1613 10       		.uleb128 0x10
 5244 1614 BC000000 		.4byte	.LVL264
 5245 1618 D2160000 		.4byte	0x16d2
 5246 161c 11       		.uleb128 0x11
 5247 161d 01       		.uleb128 0x1
 5248 161e 51       		.byte	0x51
 5249 161f 02       		.uleb128 0x2
 5250 1620 08       		.byte	0x8
 5251 1621 4A       		.byte	0x4a
 5252 1622 00       		.byte	0
 5253 1623 00       		.byte	0
 5254 1624 1F       		.uleb128 0x1f
 5255 1625 C3040000 		.4byte	.LASF92
 5256 1629 01       		.byte	0x1
 5257 162a 4102     		.2byte	0x241
 5258 162c 8C000000 		.4byte	0x8c
 5259 1630 00000000 		.4byte	.LFB24
 5260 1634 60000000 		.4byte	.LFE24-.LFB24
 5261 1638 01       		.uleb128 0x1
 5262 1639 9C       		.byte	0x9c
 5263 163a D2160000 		.4byte	0x16d2
 5264 163e 0F       		.uleb128 0xf
 5265 163f 7F010000 		.4byte	.LASF62
 5266 1643 01       		.byte	0x1
 5267 1644 4102     		.2byte	0x241
 5268 1646 FB020000 		.4byte	0x2fb
 5269 164a FE0D0000 		.4byte	.LLST69
 5270 164e 13       		.uleb128 0x13
 5271 164f 6D736700 		.ascii	"msg\000"
 5272 1653 01       		.byte	0x1
 5273 1654 4102     		.2byte	0x241
 5274 1656 8C000000 		.4byte	0x8c
 5275 165a 740E0000 		.4byte	.LLST70
 5276 165e 0F       		.uleb128 0xf
 5277 165f 93010000 		.4byte	.LASF80
 5278 1663 01       		.byte	0x1
 5279 1664 4102     		.2byte	0x241
 5280 1666 8C000000 		.4byte	0x8c
 5281 166a 950E0000 		.4byte	.LLST71
 5282 166e 0F       		.uleb128 0xf
 5283 166f 44000000 		.4byte	.LASF81
 5284 1673 01       		.byte	0x1
 5285 1674 4102     		.2byte	0x241
 5286 1676 AD000000 		.4byte	0xad
 5287 167a 140F0000 		.4byte	.LLST72
 5288 167e 21       		.uleb128 0x21
 5289 167f E1020000 		.4byte	.LASF74
 5290 1683 01       		.byte	0x1
 5291 1684 4302     		.2byte	0x243
 5292 1686 26030000 		.4byte	0x326
 5293 168a 4B0F0000 		.4byte	.LLST73
 5294 168e 12       		.uleb128 0x12
 5295 168f 2E000000 		.4byte	.LVL279
 5296 1693 71070000 		.4byte	0x771
 5297 1697 A2160000 		.4byte	0x16a2
 5298 169b 11       		.uleb128 0x11
ARM GAS  C:\Users\brian\AppData\Local\Temp\cc2Kbm4j.s 			page 109


 5299 169c 01       		.uleb128 0x1
 5300 169d 50       		.byte	0x50
 5301 169e 02       		.uleb128 0x2
 5302 169f 76       		.byte	0x76
 5303 16a0 00       		.sleb128 0
 5304 16a1 00       		.byte	0
 5305 16a2 14       		.uleb128 0x14
 5306 16a3 3E000000 		.4byte	.LVL283
 5307 16a7 80030000 		.4byte	0x380
 5308 16ab 14       		.uleb128 0x14
 5309 16ac 46000000 		.4byte	.LVL285
 5310 16b0 9B050000 		.4byte	0x59b
 5311 16b4 12       		.uleb128 0x12
 5312 16b5 50000000 		.4byte	.LVL286
 5313 16b9 71070000 		.4byte	0x771
 5314 16bd C8160000 		.4byte	0x16c8
 5315 16c1 11       		.uleb128 0x11
 5316 16c2 01       		.uleb128 0x1
 5317 16c3 50       		.byte	0x50
 5318 16c4 02       		.uleb128 0x2
 5319 16c5 76       		.byte	0x76
 5320 16c6 00       		.sleb128 0
 5321 16c7 00       		.byte	0
 5322 16c8 14       		.uleb128 0x14
 5323 16c9 58000000 		.4byte	.LVL288
 5324 16cd D1040000 		.4byte	0x4d1
 5325 16d1 00       		.byte	0
 5326 16d2 24       		.uleb128 0x24
 5327 16d3 84010000 		.4byte	.LASF97
 5328 16d7 84010000 		.4byte	.LASF97
 5329 16db 04       		.byte	0x4
 5330 16dc 0903     		.2byte	0x309
 5331 16de 00       		.byte	0
 5332              		.section	.debug_abbrev,"",%progbits
 5333              	.Ldebug_abbrev0:
 5334 0000 01       		.uleb128 0x1
 5335 0001 11       		.uleb128 0x11
 5336 0002 01       		.byte	0x1
 5337 0003 25       		.uleb128 0x25
 5338 0004 0E       		.uleb128 0xe
 5339 0005 13       		.uleb128 0x13
 5340 0006 0B       		.uleb128 0xb
 5341 0007 03       		.uleb128 0x3
 5342 0008 0E       		.uleb128 0xe
 5343 0009 1B       		.uleb128 0x1b
 5344 000a 0E       		.uleb128 0xe
 5345 000b 55       		.uleb128 0x55
 5346 000c 17       		.uleb128 0x17
 5347 000d 11       		.uleb128 0x11
 5348 000e 01       		.uleb128 0x1
 5349 000f 10       		.uleb128 0x10
 5350 0010 17       		.uleb128 0x17
 5351 0011 00       		.byte	0
 5352 0012 00       		.byte	0
 5353 0013 02       		.uleb128 0x2
 5354 0014 24       		.uleb128 0x24
 5355 0015 00       		.byte	0
ARM GAS  C:\Users\brian\AppData\Local\Temp\cc2Kbm4j.s 			page 110


 5356 0016 0B       		.uleb128 0xb
 5357 0017 0B       		.uleb128 0xb
 5358 0018 3E       		.uleb128 0x3e
 5359 0019 0B       		.uleb128 0xb
 5360 001a 03       		.uleb128 0x3
 5361 001b 0E       		.uleb128 0xe
 5362 001c 00       		.byte	0
 5363 001d 00       		.byte	0
 5364 001e 03       		.uleb128 0x3
 5365 001f 16       		.uleb128 0x16
 5366 0020 00       		.byte	0
 5367 0021 03       		.uleb128 0x3
 5368 0022 0E       		.uleb128 0xe
 5369 0023 3A       		.uleb128 0x3a
 5370 0024 0B       		.uleb128 0xb
 5371 0025 3B       		.uleb128 0x3b
 5372 0026 0B       		.uleb128 0xb
 5373 0027 49       		.uleb128 0x49
 5374 0028 13       		.uleb128 0x13
 5375 0029 00       		.byte	0
 5376 002a 00       		.byte	0
 5377 002b 04       		.uleb128 0x4
 5378 002c 24       		.uleb128 0x24
 5379 002d 00       		.byte	0
 5380 002e 0B       		.uleb128 0xb
 5381 002f 0B       		.uleb128 0xb
 5382 0030 3E       		.uleb128 0x3e
 5383 0031 0B       		.uleb128 0xb
 5384 0032 03       		.uleb128 0x3
 5385 0033 08       		.uleb128 0x8
 5386 0034 00       		.byte	0
 5387 0035 00       		.byte	0
 5388 0036 05       		.uleb128 0x5
 5389 0037 0F       		.uleb128 0xf
 5390 0038 00       		.byte	0
 5391 0039 0B       		.uleb128 0xb
 5392 003a 0B       		.uleb128 0xb
 5393 003b 00       		.byte	0
 5394 003c 00       		.byte	0
 5395 003d 06       		.uleb128 0x6
 5396 003e 13       		.uleb128 0x13
 5397 003f 01       		.byte	0x1
 5398 0040 03       		.uleb128 0x3
 5399 0041 0E       		.uleb128 0xe
 5400 0042 0B       		.uleb128 0xb
 5401 0043 0B       		.uleb128 0xb
 5402 0044 3A       		.uleb128 0x3a
 5403 0045 0B       		.uleb128 0xb
 5404 0046 3B       		.uleb128 0x3b
 5405 0047 05       		.uleb128 0x5
 5406 0048 01       		.uleb128 0x1
 5407 0049 13       		.uleb128 0x13
 5408 004a 00       		.byte	0
 5409 004b 00       		.byte	0
 5410 004c 07       		.uleb128 0x7
 5411 004d 0D       		.uleb128 0xd
 5412 004e 00       		.byte	0
ARM GAS  C:\Users\brian\AppData\Local\Temp\cc2Kbm4j.s 			page 111


 5413 004f 03       		.uleb128 0x3
 5414 0050 0E       		.uleb128 0xe
 5415 0051 3A       		.uleb128 0x3a
 5416 0052 0B       		.uleb128 0xb
 5417 0053 3B       		.uleb128 0x3b
 5418 0054 05       		.uleb128 0x5
 5419 0055 49       		.uleb128 0x49
 5420 0056 13       		.uleb128 0x13
 5421 0057 38       		.uleb128 0x38
 5422 0058 0B       		.uleb128 0xb
 5423 0059 00       		.byte	0
 5424 005a 00       		.byte	0
 5425 005b 08       		.uleb128 0x8
 5426 005c 13       		.uleb128 0x13
 5427 005d 01       		.byte	0x1
 5428 005e 03       		.uleb128 0x3
 5429 005f 0E       		.uleb128 0xe
 5430 0060 0B       		.uleb128 0xb
 5431 0061 0B       		.uleb128 0xb
 5432 0062 3A       		.uleb128 0x3a
 5433 0063 0B       		.uleb128 0xb
 5434 0064 3B       		.uleb128 0x3b
 5435 0065 0B       		.uleb128 0xb
 5436 0066 01       		.uleb128 0x1
 5437 0067 13       		.uleb128 0x13
 5438 0068 00       		.byte	0
 5439 0069 00       		.byte	0
 5440 006a 09       		.uleb128 0x9
 5441 006b 0D       		.uleb128 0xd
 5442 006c 00       		.byte	0
 5443 006d 03       		.uleb128 0x3
 5444 006e 0E       		.uleb128 0xe
 5445 006f 3A       		.uleb128 0x3a
 5446 0070 0B       		.uleb128 0xb
 5447 0071 3B       		.uleb128 0x3b
 5448 0072 0B       		.uleb128 0xb
 5449 0073 49       		.uleb128 0x49
 5450 0074 13       		.uleb128 0x13
 5451 0075 38       		.uleb128 0x38
 5452 0076 0B       		.uleb128 0xb
 5453 0077 00       		.byte	0
 5454 0078 00       		.byte	0
 5455 0079 0A       		.uleb128 0xa
 5456 007a 0F       		.uleb128 0xf
 5457 007b 00       		.byte	0
 5458 007c 0B       		.uleb128 0xb
 5459 007d 0B       		.uleb128 0xb
 5460 007e 49       		.uleb128 0x49
 5461 007f 13       		.uleb128 0x13
 5462 0080 00       		.byte	0
 5463 0081 00       		.byte	0
 5464 0082 0B       		.uleb128 0xb
 5465 0083 15       		.uleb128 0x15
 5466 0084 01       		.byte	0x1
 5467 0085 27       		.uleb128 0x27
 5468 0086 19       		.uleb128 0x19
 5469 0087 49       		.uleb128 0x49
ARM GAS  C:\Users\brian\AppData\Local\Temp\cc2Kbm4j.s 			page 112


 5470 0088 13       		.uleb128 0x13
 5471 0089 01       		.uleb128 0x1
 5472 008a 13       		.uleb128 0x13
 5473 008b 00       		.byte	0
 5474 008c 00       		.byte	0
 5475 008d 0C       		.uleb128 0xc
 5476 008e 05       		.uleb128 0x5
 5477 008f 00       		.byte	0
 5478 0090 49       		.uleb128 0x49
 5479 0091 13       		.uleb128 0x13
 5480 0092 00       		.byte	0
 5481 0093 00       		.byte	0
 5482 0094 0D       		.uleb128 0xd
 5483 0095 26       		.uleb128 0x26
 5484 0096 00       		.byte	0
 5485 0097 49       		.uleb128 0x49
 5486 0098 13       		.uleb128 0x13
 5487 0099 00       		.byte	0
 5488 009a 00       		.byte	0
 5489 009b 0E       		.uleb128 0xe
 5490 009c 2E       		.uleb128 0x2e
 5491 009d 01       		.byte	0x1
 5492 009e 03       		.uleb128 0x3
 5493 009f 0E       		.uleb128 0xe
 5494 00a0 3A       		.uleb128 0x3a
 5495 00a1 0B       		.uleb128 0xb
 5496 00a2 3B       		.uleb128 0x3b
 5497 00a3 05       		.uleb128 0x5
 5498 00a4 27       		.uleb128 0x27
 5499 00a5 19       		.uleb128 0x19
 5500 00a6 11       		.uleb128 0x11
 5501 00a7 01       		.uleb128 0x1
 5502 00a8 12       		.uleb128 0x12
 5503 00a9 06       		.uleb128 0x6
 5504 00aa 40       		.uleb128 0x40
 5505 00ab 18       		.uleb128 0x18
 5506 00ac 9742     		.uleb128 0x2117
 5507 00ae 19       		.uleb128 0x19
 5508 00af 01       		.uleb128 0x1
 5509 00b0 13       		.uleb128 0x13
 5510 00b1 00       		.byte	0
 5511 00b2 00       		.byte	0
 5512 00b3 0F       		.uleb128 0xf
 5513 00b4 05       		.uleb128 0x5
 5514 00b5 00       		.byte	0
 5515 00b6 03       		.uleb128 0x3
 5516 00b7 0E       		.uleb128 0xe
 5517 00b8 3A       		.uleb128 0x3a
 5518 00b9 0B       		.uleb128 0xb
 5519 00ba 3B       		.uleb128 0x3b
 5520 00bb 05       		.uleb128 0x5
 5521 00bc 49       		.uleb128 0x49
 5522 00bd 13       		.uleb128 0x13
 5523 00be 02       		.uleb128 0x2
 5524 00bf 17       		.uleb128 0x17
 5525 00c0 00       		.byte	0
 5526 00c1 00       		.byte	0
ARM GAS  C:\Users\brian\AppData\Local\Temp\cc2Kbm4j.s 			page 113


 5527 00c2 10       		.uleb128 0x10
 5528 00c3 898201   		.uleb128 0x4109
 5529 00c6 01       		.byte	0x1
 5530 00c7 11       		.uleb128 0x11
 5531 00c8 01       		.uleb128 0x1
 5532 00c9 31       		.uleb128 0x31
 5533 00ca 13       		.uleb128 0x13
 5534 00cb 00       		.byte	0
 5535 00cc 00       		.byte	0
 5536 00cd 11       		.uleb128 0x11
 5537 00ce 8A8201   		.uleb128 0x410a
 5538 00d1 00       		.byte	0
 5539 00d2 02       		.uleb128 0x2
 5540 00d3 18       		.uleb128 0x18
 5541 00d4 9142     		.uleb128 0x2111
 5542 00d6 18       		.uleb128 0x18
 5543 00d7 00       		.byte	0
 5544 00d8 00       		.byte	0
 5545 00d9 12       		.uleb128 0x12
 5546 00da 898201   		.uleb128 0x4109
 5547 00dd 01       		.byte	0x1
 5548 00de 11       		.uleb128 0x11
 5549 00df 01       		.uleb128 0x1
 5550 00e0 31       		.uleb128 0x31
 5551 00e1 13       		.uleb128 0x13
 5552 00e2 01       		.uleb128 0x1
 5553 00e3 13       		.uleb128 0x13
 5554 00e4 00       		.byte	0
 5555 00e5 00       		.byte	0
 5556 00e6 13       		.uleb128 0x13
 5557 00e7 05       		.uleb128 0x5
 5558 00e8 00       		.byte	0
 5559 00e9 03       		.uleb128 0x3
 5560 00ea 08       		.uleb128 0x8
 5561 00eb 3A       		.uleb128 0x3a
 5562 00ec 0B       		.uleb128 0xb
 5563 00ed 3B       		.uleb128 0x3b
 5564 00ee 05       		.uleb128 0x5
 5565 00ef 49       		.uleb128 0x49
 5566 00f0 13       		.uleb128 0x13
 5567 00f1 02       		.uleb128 0x2
 5568 00f2 17       		.uleb128 0x17
 5569 00f3 00       		.byte	0
 5570 00f4 00       		.byte	0
 5571 00f5 14       		.uleb128 0x14
 5572 00f6 898201   		.uleb128 0x4109
 5573 00f9 00       		.byte	0
 5574 00fa 11       		.uleb128 0x11
 5575 00fb 01       		.uleb128 0x1
 5576 00fc 31       		.uleb128 0x31
 5577 00fd 13       		.uleb128 0x13
 5578 00fe 00       		.byte	0
 5579 00ff 00       		.byte	0
 5580 0100 15       		.uleb128 0x15
 5581 0101 2E       		.uleb128 0x2e
 5582 0102 01       		.byte	0x1
 5583 0103 3F       		.uleb128 0x3f
ARM GAS  C:\Users\brian\AppData\Local\Temp\cc2Kbm4j.s 			page 114


 5584 0104 19       		.uleb128 0x19
 5585 0105 03       		.uleb128 0x3
 5586 0106 0E       		.uleb128 0xe
 5587 0107 3A       		.uleb128 0x3a
 5588 0108 0B       		.uleb128 0xb
 5589 0109 3B       		.uleb128 0x3b
 5590 010a 0B       		.uleb128 0xb
 5591 010b 27       		.uleb128 0x27
 5592 010c 19       		.uleb128 0x19
 5593 010d 49       		.uleb128 0x49
 5594 010e 13       		.uleb128 0x13
 5595 010f 11       		.uleb128 0x11
 5596 0110 01       		.uleb128 0x1
 5597 0111 12       		.uleb128 0x12
 5598 0112 06       		.uleb128 0x6
 5599 0113 40       		.uleb128 0x40
 5600 0114 18       		.uleb128 0x18
 5601 0115 9742     		.uleb128 0x2117
 5602 0117 19       		.uleb128 0x19
 5603 0118 01       		.uleb128 0x1
 5604 0119 13       		.uleb128 0x13
 5605 011a 00       		.byte	0
 5606 011b 00       		.byte	0
 5607 011c 16       		.uleb128 0x16
 5608 011d 05       		.uleb128 0x5
 5609 011e 00       		.byte	0
 5610 011f 03       		.uleb128 0x3
 5611 0120 0E       		.uleb128 0xe
 5612 0121 3A       		.uleb128 0x3a
 5613 0122 0B       		.uleb128 0xb
 5614 0123 3B       		.uleb128 0x3b
 5615 0124 0B       		.uleb128 0xb
 5616 0125 49       		.uleb128 0x49
 5617 0126 13       		.uleb128 0x13
 5618 0127 02       		.uleb128 0x2
 5619 0128 17       		.uleb128 0x17
 5620 0129 00       		.byte	0
 5621 012a 00       		.byte	0
 5622 012b 17       		.uleb128 0x17
 5623 012c 05       		.uleb128 0x5
 5624 012d 00       		.byte	0
 5625 012e 03       		.uleb128 0x3
 5626 012f 08       		.uleb128 0x8
 5627 0130 3A       		.uleb128 0x3a
 5628 0131 0B       		.uleb128 0xb
 5629 0132 3B       		.uleb128 0x3b
 5630 0133 0B       		.uleb128 0xb
 5631 0134 49       		.uleb128 0x49
 5632 0135 13       		.uleb128 0x13
 5633 0136 02       		.uleb128 0x2
 5634 0137 17       		.uleb128 0x17
 5635 0138 00       		.byte	0
 5636 0139 00       		.byte	0
 5637 013a 18       		.uleb128 0x18
 5638 013b 898201   		.uleb128 0x4109
 5639 013e 01       		.byte	0x1
 5640 013f 11       		.uleb128 0x11
ARM GAS  C:\Users\brian\AppData\Local\Temp\cc2Kbm4j.s 			page 115


 5641 0140 01       		.uleb128 0x1
 5642 0141 9342     		.uleb128 0x2113
 5643 0143 18       		.uleb128 0x18
 5644 0144 00       		.byte	0
 5645 0145 00       		.byte	0
 5646 0146 19       		.uleb128 0x19
 5647 0147 05       		.uleb128 0x5
 5648 0148 00       		.byte	0
 5649 0149 03       		.uleb128 0x3
 5650 014a 08       		.uleb128 0x8
 5651 014b 3A       		.uleb128 0x3a
 5652 014c 0B       		.uleb128 0xb
 5653 014d 3B       		.uleb128 0x3b
 5654 014e 0B       		.uleb128 0xb
 5655 014f 49       		.uleb128 0x49
 5656 0150 13       		.uleb128 0x13
 5657 0151 02       		.uleb128 0x2
 5658 0152 18       		.uleb128 0x18
 5659 0153 00       		.byte	0
 5660 0154 00       		.byte	0
 5661 0155 1A       		.uleb128 0x1a
 5662 0156 05       		.uleb128 0x5
 5663 0157 00       		.byte	0
 5664 0158 03       		.uleb128 0x3
 5665 0159 0E       		.uleb128 0xe
 5666 015a 3A       		.uleb128 0x3a
 5667 015b 0B       		.uleb128 0xb
 5668 015c 3B       		.uleb128 0x3b
 5669 015d 0B       		.uleb128 0xb
 5670 015e 49       		.uleb128 0x49
 5671 015f 13       		.uleb128 0x13
 5672 0160 02       		.uleb128 0x2
 5673 0161 18       		.uleb128 0x18
 5674 0162 00       		.byte	0
 5675 0163 00       		.byte	0
 5676 0164 1B       		.uleb128 0x1b
 5677 0165 34       		.uleb128 0x34
 5678 0166 00       		.byte	0
 5679 0167 03       		.uleb128 0x3
 5680 0168 08       		.uleb128 0x8
 5681 0169 3A       		.uleb128 0x3a
 5682 016a 0B       		.uleb128 0xb
 5683 016b 3B       		.uleb128 0x3b
 5684 016c 0B       		.uleb128 0xb
 5685 016d 49       		.uleb128 0x49
 5686 016e 13       		.uleb128 0x13
 5687 016f 02       		.uleb128 0x2
 5688 0170 17       		.uleb128 0x17
 5689 0171 00       		.byte	0
 5690 0172 00       		.byte	0
 5691 0173 1C       		.uleb128 0x1c
 5692 0174 34       		.uleb128 0x34
 5693 0175 00       		.byte	0
 5694 0176 03       		.uleb128 0x3
 5695 0177 0E       		.uleb128 0xe
 5696 0178 3A       		.uleb128 0x3a
 5697 0179 0B       		.uleb128 0xb
ARM GAS  C:\Users\brian\AppData\Local\Temp\cc2Kbm4j.s 			page 116


 5698 017a 3B       		.uleb128 0x3b
 5699 017b 0B       		.uleb128 0xb
 5700 017c 49       		.uleb128 0x49
 5701 017d 13       		.uleb128 0x13
 5702 017e 02       		.uleb128 0x2
 5703 017f 17       		.uleb128 0x17
 5704 0180 00       		.byte	0
 5705 0181 00       		.byte	0
 5706 0182 1D       		.uleb128 0x1d
 5707 0183 34       		.uleb128 0x34
 5708 0184 00       		.byte	0
 5709 0185 03       		.uleb128 0x3
 5710 0186 0E       		.uleb128 0xe
 5711 0187 3A       		.uleb128 0x3a
 5712 0188 0B       		.uleb128 0xb
 5713 0189 3B       		.uleb128 0x3b
 5714 018a 0B       		.uleb128 0xb
 5715 018b 49       		.uleb128 0x49
 5716 018c 13       		.uleb128 0x13
 5717 018d 02       		.uleb128 0x2
 5718 018e 18       		.uleb128 0x18
 5719 018f 00       		.byte	0
 5720 0190 00       		.byte	0
 5721 0191 1E       		.uleb128 0x1e
 5722 0192 898201   		.uleb128 0x4109
 5723 0195 01       		.byte	0x1
 5724 0196 11       		.uleb128 0x11
 5725 0197 01       		.uleb128 0x1
 5726 0198 9342     		.uleb128 0x2113
 5727 019a 18       		.uleb128 0x18
 5728 019b 01       		.uleb128 0x1
 5729 019c 13       		.uleb128 0x13
 5730 019d 00       		.byte	0
 5731 019e 00       		.byte	0
 5732 019f 1F       		.uleb128 0x1f
 5733 01a0 2E       		.uleb128 0x2e
 5734 01a1 01       		.byte	0x1
 5735 01a2 3F       		.uleb128 0x3f
 5736 01a3 19       		.uleb128 0x19
 5737 01a4 03       		.uleb128 0x3
 5738 01a5 0E       		.uleb128 0xe
 5739 01a6 3A       		.uleb128 0x3a
 5740 01a7 0B       		.uleb128 0xb
 5741 01a8 3B       		.uleb128 0x3b
 5742 01a9 05       		.uleb128 0x5
 5743 01aa 27       		.uleb128 0x27
 5744 01ab 19       		.uleb128 0x19
 5745 01ac 49       		.uleb128 0x49
 5746 01ad 13       		.uleb128 0x13
 5747 01ae 11       		.uleb128 0x11
 5748 01af 01       		.uleb128 0x1
 5749 01b0 12       		.uleb128 0x12
 5750 01b1 06       		.uleb128 0x6
 5751 01b2 40       		.uleb128 0x40
 5752 01b3 18       		.uleb128 0x18
 5753 01b4 9742     		.uleb128 0x2117
 5754 01b6 19       		.uleb128 0x19
ARM GAS  C:\Users\brian\AppData\Local\Temp\cc2Kbm4j.s 			page 117


 5755 01b7 01       		.uleb128 0x1
 5756 01b8 13       		.uleb128 0x13
 5757 01b9 00       		.byte	0
 5758 01ba 00       		.byte	0
 5759 01bb 20       		.uleb128 0x20
 5760 01bc 34       		.uleb128 0x34
 5761 01bd 00       		.byte	0
 5762 01be 03       		.uleb128 0x3
 5763 01bf 08       		.uleb128 0x8
 5764 01c0 3A       		.uleb128 0x3a
 5765 01c1 0B       		.uleb128 0xb
 5766 01c2 3B       		.uleb128 0x3b
 5767 01c3 05       		.uleb128 0x5
 5768 01c4 49       		.uleb128 0x49
 5769 01c5 13       		.uleb128 0x13
 5770 01c6 02       		.uleb128 0x2
 5771 01c7 17       		.uleb128 0x17
 5772 01c8 00       		.byte	0
 5773 01c9 00       		.byte	0
 5774 01ca 21       		.uleb128 0x21
 5775 01cb 34       		.uleb128 0x34
 5776 01cc 00       		.byte	0
 5777 01cd 03       		.uleb128 0x3
 5778 01ce 0E       		.uleb128 0xe
 5779 01cf 3A       		.uleb128 0x3a
 5780 01d0 0B       		.uleb128 0xb
 5781 01d1 3B       		.uleb128 0x3b
 5782 01d2 05       		.uleb128 0x5
 5783 01d3 49       		.uleb128 0x49
 5784 01d4 13       		.uleb128 0x13
 5785 01d5 02       		.uleb128 0x2
 5786 01d6 17       		.uleb128 0x17
 5787 01d7 00       		.byte	0
 5788 01d8 00       		.byte	0
 5789 01d9 22       		.uleb128 0x22
 5790 01da 34       		.uleb128 0x34
 5791 01db 00       		.byte	0
 5792 01dc 03       		.uleb128 0x3
 5793 01dd 0E       		.uleb128 0xe
 5794 01de 3A       		.uleb128 0x3a
 5795 01df 0B       		.uleb128 0xb
 5796 01e0 3B       		.uleb128 0x3b
 5797 01e1 05       		.uleb128 0x5
 5798 01e2 49       		.uleb128 0x49
 5799 01e3 13       		.uleb128 0x13
 5800 01e4 02       		.uleb128 0x2
 5801 01e5 18       		.uleb128 0x18
 5802 01e6 00       		.byte	0
 5803 01e7 00       		.byte	0
 5804 01e8 23       		.uleb128 0x23
 5805 01e9 2E       		.uleb128 0x2e
 5806 01ea 01       		.byte	0x1
 5807 01eb 3F       		.uleb128 0x3f
 5808 01ec 19       		.uleb128 0x19
 5809 01ed 03       		.uleb128 0x3
 5810 01ee 0E       		.uleb128 0xe
 5811 01ef 3A       		.uleb128 0x3a
ARM GAS  C:\Users\brian\AppData\Local\Temp\cc2Kbm4j.s 			page 118


 5812 01f0 0B       		.uleb128 0xb
 5813 01f1 3B       		.uleb128 0x3b
 5814 01f2 05       		.uleb128 0x5
 5815 01f3 27       		.uleb128 0x27
 5816 01f4 19       		.uleb128 0x19
 5817 01f5 11       		.uleb128 0x11
 5818 01f6 01       		.uleb128 0x1
 5819 01f7 12       		.uleb128 0x12
 5820 01f8 06       		.uleb128 0x6
 5821 01f9 40       		.uleb128 0x40
 5822 01fa 18       		.uleb128 0x18
 5823 01fb 9742     		.uleb128 0x2117
 5824 01fd 19       		.uleb128 0x19
 5825 01fe 01       		.uleb128 0x1
 5826 01ff 13       		.uleb128 0x13
 5827 0200 00       		.byte	0
 5828 0201 00       		.byte	0
 5829 0202 24       		.uleb128 0x24
 5830 0203 2E       		.uleb128 0x2e
 5831 0204 00       		.byte	0
 5832 0205 3F       		.uleb128 0x3f
 5833 0206 19       		.uleb128 0x19
 5834 0207 3C       		.uleb128 0x3c
 5835 0208 19       		.uleb128 0x19
 5836 0209 6E       		.uleb128 0x6e
 5837 020a 0E       		.uleb128 0xe
 5838 020b 03       		.uleb128 0x3
 5839 020c 0E       		.uleb128 0xe
 5840 020d 3A       		.uleb128 0x3a
 5841 020e 0B       		.uleb128 0xb
 5842 020f 3B       		.uleb128 0x3b
 5843 0210 05       		.uleb128 0x5
 5844 0211 00       		.byte	0
 5845 0212 00       		.byte	0
 5846 0213 00       		.byte	0
 5847              		.section	.debug_loc,"",%progbits
 5848              	.Ldebug_loc0:
 5849              	.LLST0:
 5850 0000 00000000 		.4byte	.LVL0
 5851 0004 0B000000 		.4byte	.LVL1-1
 5852 0008 0100     		.2byte	0x1
 5853 000a 50       		.byte	0x50
 5854 000b 0B000000 		.4byte	.LVL1-1
 5855 000f 0E000000 		.4byte	.LFE13
 5856 0013 0400     		.2byte	0x4
 5857 0015 F3       		.byte	0xf3
 5858 0016 01       		.uleb128 0x1
 5859 0017 50       		.byte	0x50
 5860 0018 9F       		.byte	0x9f
 5861 0019 00000000 		.4byte	0
 5862 001d 00000000 		.4byte	0
 5863              	.LLST1:
 5864 0021 00000000 		.4byte	.LVL2
 5865 0025 0B000000 		.4byte	.LVL3-1
 5866 0029 0100     		.2byte	0x1
 5867 002b 50       		.byte	0x50
 5868 002c 0B000000 		.4byte	.LVL3-1
ARM GAS  C:\Users\brian\AppData\Local\Temp\cc2Kbm4j.s 			page 119


 5869 0030 1E000000 		.4byte	.LFE14
 5870 0034 0100     		.2byte	0x1
 5871 0036 54       		.byte	0x54
 5872 0037 00000000 		.4byte	0
 5873 003b 00000000 		.4byte	0
 5874              	.LLST2:
 5875 003f 00000000 		.4byte	.LVL6
 5876 0043 0B000000 		.4byte	.LVL7-1
 5877 0047 0100     		.2byte	0x1
 5878 0049 50       		.byte	0x50
 5879 004a 0B000000 		.4byte	.LVL7-1
 5880 004e 14000000 		.4byte	.LFE15
 5881 0052 0100     		.2byte	0x1
 5882 0054 54       		.byte	0x54
 5883 0055 00000000 		.4byte	0
 5884 0059 00000000 		.4byte	0
 5885              	.LLST3:
 5886 005d 00000000 		.4byte	.LVL9
 5887 0061 09000000 		.4byte	.LVL10-1
 5888 0065 0100     		.2byte	0x1
 5889 0067 50       		.byte	0x50
 5890 0068 09000000 		.4byte	.LVL10-1
 5891 006c 0C000000 		.4byte	.LFE17
 5892 0070 0400     		.2byte	0x4
 5893 0072 F3       		.byte	0xf3
 5894 0073 01       		.uleb128 0x1
 5895 0074 50       		.byte	0x50
 5896 0075 9F       		.byte	0x9f
 5897 0076 00000000 		.4byte	0
 5898 007a 00000000 		.4byte	0
 5899              	.LLST4:
 5900 007e 00000000 		.4byte	.LVL11
 5901 0082 09000000 		.4byte	.LVL12-1
 5902 0086 0100     		.2byte	0x1
 5903 0088 50       		.byte	0x50
 5904 0089 09000000 		.4byte	.LVL12-1
 5905 008d 0C000000 		.4byte	.LFE18
 5906 0091 0400     		.2byte	0x4
 5907 0093 F3       		.byte	0xf3
 5908 0094 01       		.uleb128 0x1
 5909 0095 50       		.byte	0x50
 5910 0096 9F       		.byte	0x9f
 5911 0097 00000000 		.4byte	0
 5912 009b 00000000 		.4byte	0
 5913              	.LLST5:
 5914 009f 00000000 		.4byte	.LVL13
 5915 00a3 07000000 		.4byte	.LVL14-1
 5916 00a7 0100     		.2byte	0x1
 5917 00a9 50       		.byte	0x50
 5918 00aa 07000000 		.4byte	.LVL14-1
 5919 00ae 28000000 		.4byte	.LFE20
 5920 00b2 0100     		.2byte	0x1
 5921 00b4 54       		.byte	0x54
 5922 00b5 00000000 		.4byte	0
 5923 00b9 00000000 		.4byte	0
 5924              	.LLST6:
 5925 00bd 00000000 		.4byte	.LVL19
ARM GAS  C:\Users\brian\AppData\Local\Temp\cc2Kbm4j.s 			page 120


 5926 00c1 09000000 		.4byte	.LVL20-1
 5927 00c5 0100     		.2byte	0x1
 5928 00c7 50       		.byte	0x50
 5929 00c8 09000000 		.4byte	.LVL20-1
 5930 00cc 0C000000 		.4byte	.LFE16
 5931 00d0 0400     		.2byte	0x4
 5932 00d2 F3       		.byte	0xf3
 5933 00d3 01       		.uleb128 0x1
 5934 00d4 50       		.byte	0x50
 5935 00d5 9F       		.byte	0x9f
 5936 00d6 00000000 		.4byte	0
 5937 00da 00000000 		.4byte	0
 5938              	.LLST7:
 5939 00de 00000000 		.4byte	.LVL21
 5940 00e2 0D000000 		.4byte	.LVL22-1
 5941 00e6 0100     		.2byte	0x1
 5942 00e8 50       		.byte	0x50
 5943 00e9 0D000000 		.4byte	.LVL22-1
 5944 00ed 3A000000 		.4byte	.LFE19
 5945 00f1 0100     		.2byte	0x1
 5946 00f3 54       		.byte	0x54
 5947 00f4 00000000 		.4byte	0
 5948 00f8 00000000 		.4byte	0
 5949              	.LLST8:
 5950 00fc 00000000 		.4byte	.LVL29
 5951 0100 09000000 		.4byte	.LVL30-1
 5952 0104 0100     		.2byte	0x1
 5953 0106 50       		.byte	0x50
 5954 0107 09000000 		.4byte	.LVL30-1
 5955 010b 0C000000 		.4byte	.LVL31
 5956 010f 0100     		.2byte	0x1
 5957 0111 54       		.byte	0x54
 5958 0112 0C000000 		.4byte	.LVL31
 5959 0116 0F000000 		.4byte	.LVL32-1
 5960 011a 0100     		.2byte	0x1
 5961 011c 50       		.byte	0x50
 5962 011d 0F000000 		.4byte	.LVL32-1
 5963 0121 24000000 		.4byte	.LFE21
 5964 0125 0100     		.2byte	0x1
 5965 0127 54       		.byte	0x54
 5966 0128 00000000 		.4byte	0
 5967 012c 00000000 		.4byte	0
 5968              	.LLST9:
 5969 0130 00000000 		.4byte	.LVL29
 5970 0134 09000000 		.4byte	.LVL30-1
 5971 0138 0100     		.2byte	0x1
 5972 013a 51       		.byte	0x51
 5973 013b 09000000 		.4byte	.LVL30-1
 5974 013f 0C000000 		.4byte	.LVL31
 5975 0143 0400     		.2byte	0x4
 5976 0145 F3       		.byte	0xf3
 5977 0146 01       		.uleb128 0x1
 5978 0147 51       		.byte	0x51
 5979 0148 9F       		.byte	0x9f
 5980 0149 0C000000 		.4byte	.LVL31
 5981 014d 0F000000 		.4byte	.LVL32-1
 5982 0151 0100     		.2byte	0x1
ARM GAS  C:\Users\brian\AppData\Local\Temp\cc2Kbm4j.s 			page 121


 5983 0153 51       		.byte	0x51
 5984 0154 0F000000 		.4byte	.LVL32-1
 5985 0158 24000000 		.4byte	.LFE21
 5986 015c 0400     		.2byte	0x4
 5987 015e F3       		.byte	0xf3
 5988 015f 01       		.uleb128 0x1
 5989 0160 51       		.byte	0x51
 5990 0161 9F       		.byte	0x9f
 5991 0162 00000000 		.4byte	0
 5992 0166 00000000 		.4byte	0
 5993              	.LLST10:
 5994 016a 00000000 		.4byte	.LVL36
 5995 016e 07000000 		.4byte	.LVL37-1
 5996 0172 0100     		.2byte	0x1
 5997 0174 50       		.byte	0x50
 5998 0175 07000000 		.4byte	.LVL37-1
 5999 0179 28000000 		.4byte	.LFE22
 6000 017d 0100     		.2byte	0x1
 6001 017f 54       		.byte	0x54
 6002 0180 00000000 		.4byte	0
 6003 0184 00000000 		.4byte	0
 6004              	.LLST11:
 6005 0188 00000000 		.4byte	.LVL43
 6006 018c 0D000000 		.4byte	.LVL45-1
 6007 0190 0100     		.2byte	0x1
 6008 0192 50       		.byte	0x50
 6009 0193 0D000000 		.4byte	.LVL45-1
 6010 0197 5C000000 		.4byte	.LFE23
 6011 019b 0100     		.2byte	0x1
 6012 019d 54       		.byte	0x54
 6013 019e 00000000 		.4byte	0
 6014 01a2 00000000 		.4byte	0
 6015              	.LLST12:
 6016 01a6 00000000 		.4byte	.LVL43
 6017 01aa 0A000000 		.4byte	.LVL44
 6018 01ae 0100     		.2byte	0x1
 6019 01b0 51       		.byte	0x51
 6020 01b1 0A000000 		.4byte	.LVL44
 6021 01b5 5C000000 		.4byte	.LFE23
 6022 01b9 0400     		.2byte	0x4
 6023 01bb F3       		.byte	0xf3
 6024 01bc 01       		.uleb128 0x1
 6025 01bd 51       		.byte	0x51
 6026 01be 9F       		.byte	0x9f
 6027 01bf 00000000 		.4byte	0
 6028 01c3 00000000 		.4byte	0
 6029              	.LLST13:
 6030 01c7 00000000 		.4byte	.LVL54
 6031 01cb 0B000000 		.4byte	.LVL56-1
 6032 01cf 0100     		.2byte	0x1
 6033 01d1 50       		.byte	0x50
 6034 01d2 0B000000 		.4byte	.LVL56-1
 6035 01d6 0E000000 		.4byte	.LFE0
 6036 01da 0400     		.2byte	0x4
 6037 01dc F3       		.byte	0xf3
 6038 01dd 01       		.uleb128 0x1
 6039 01de 50       		.byte	0x50
ARM GAS  C:\Users\brian\AppData\Local\Temp\cc2Kbm4j.s 			page 122


 6040 01df 9F       		.byte	0x9f
 6041 01e0 00000000 		.4byte	0
 6042 01e4 00000000 		.4byte	0
 6043              	.LLST14:
 6044 01e8 00000000 		.4byte	.LVL54
 6045 01ec 0A000000 		.4byte	.LVL55
 6046 01f0 0100     		.2byte	0x1
 6047 01f2 51       		.byte	0x51
 6048 01f3 0A000000 		.4byte	.LVL55
 6049 01f7 0E000000 		.4byte	.LFE0
 6050 01fb 0400     		.2byte	0x4
 6051 01fd F3       		.byte	0xf3
 6052 01fe 01       		.uleb128 0x1
 6053 01ff 51       		.byte	0x51
 6054 0200 9F       		.byte	0x9f
 6055 0201 00000000 		.4byte	0
 6056 0205 00000000 		.4byte	0
 6057              	.LLST15:
 6058 0209 00000000 		.4byte	.LVL57
 6059 020d 0B000000 		.4byte	.LVL60-1
 6060 0211 0100     		.2byte	0x1
 6061 0213 50       		.byte	0x50
 6062 0214 0B000000 		.4byte	.LVL60-1
 6063 0218 0E000000 		.4byte	.LFE1
 6064 021c 0400     		.2byte	0x4
 6065 021e F3       		.byte	0xf3
 6066 021f 01       		.uleb128 0x1
 6067 0220 50       		.byte	0x50
 6068 0221 9F       		.byte	0x9f
 6069 0222 00000000 		.4byte	0
 6070 0226 00000000 		.4byte	0
 6071              	.LLST16:
 6072 022a 00000000 		.4byte	.LVL57
 6073 022e 0A000000 		.4byte	.LVL59
 6074 0232 0100     		.2byte	0x1
 6075 0234 51       		.byte	0x51
 6076 0235 0A000000 		.4byte	.LVL59
 6077 0239 0E000000 		.4byte	.LFE1
 6078 023d 0400     		.2byte	0x4
 6079 023f F3       		.byte	0xf3
 6080 0240 01       		.uleb128 0x1
 6081 0241 51       		.byte	0x51
 6082 0242 9F       		.byte	0x9f
 6083 0243 00000000 		.4byte	0
 6084 0247 00000000 		.4byte	0
 6085              	.LLST17:
 6086 024b 00000000 		.4byte	.LVL57
 6087 024f 08000000 		.4byte	.LVL58
 6088 0253 0100     		.2byte	0x1
 6089 0255 52       		.byte	0x52
 6090 0256 08000000 		.4byte	.LVL58
 6091 025a 0B000000 		.4byte	.LVL60-1
 6092 025e 0100     		.2byte	0x1
 6093 0260 53       		.byte	0x53
 6094 0261 0B000000 		.4byte	.LVL60-1
 6095 0265 0E000000 		.4byte	.LFE1
 6096 0269 0400     		.2byte	0x4
ARM GAS  C:\Users\brian\AppData\Local\Temp\cc2Kbm4j.s 			page 123


 6097 026b F3       		.byte	0xf3
 6098 026c 01       		.uleb128 0x1
 6099 026d 52       		.byte	0x52
 6100 026e 9F       		.byte	0x9f
 6101 026f 00000000 		.4byte	0
 6102 0273 00000000 		.4byte	0
 6103              	.LLST18:
 6104 0277 00000000 		.4byte	.LVL61
 6105 027b 0F000000 		.4byte	.LVL63-1
 6106 027f 0100     		.2byte	0x1
 6107 0281 50       		.byte	0x50
 6108 0282 0F000000 		.4byte	.LVL63-1
 6109 0286 16000000 		.4byte	.LFE2
 6110 028a 0400     		.2byte	0x4
 6111 028c F3       		.byte	0xf3
 6112 028d 01       		.uleb128 0x1
 6113 028e 50       		.byte	0x50
 6114 028f 9F       		.byte	0x9f
 6115 0290 00000000 		.4byte	0
 6116 0294 00000000 		.4byte	0
 6117              	.LLST19:
 6118 0298 00000000 		.4byte	.LVL61
 6119 029c 0C000000 		.4byte	.LVL62
 6120 02a0 0100     		.2byte	0x1
 6121 02a2 51       		.byte	0x51
 6122 02a3 0C000000 		.4byte	.LVL62
 6123 02a7 0F000000 		.4byte	.LVL63-1
 6124 02ab 0200     		.2byte	0x2
 6125 02ad 72       		.byte	0x72
 6126 02ae 00       		.sleb128 0
 6127 02af 0F000000 		.4byte	.LVL63-1
 6128 02b3 16000000 		.4byte	.LFE2
 6129 02b7 0200     		.2byte	0x2
 6130 02b9 91       		.byte	0x91
 6131 02ba 77       		.sleb128 -9
 6132 02bb 00000000 		.4byte	0
 6133 02bf 00000000 		.4byte	0
 6134              	.LLST20:
 6135 02c3 00000000 		.4byte	.LVL64
 6136 02c7 0B000000 		.4byte	.LVL65-1
 6137 02cb 0100     		.2byte	0x1
 6138 02cd 50       		.byte	0x50
 6139 02ce 0B000000 		.4byte	.LVL65-1
 6140 02d2 0E000000 		.4byte	.LFE3
 6141 02d6 0400     		.2byte	0x4
 6142 02d8 F3       		.byte	0xf3
 6143 02d9 01       		.uleb128 0x1
 6144 02da 50       		.byte	0x50
 6145 02db 9F       		.byte	0x9f
 6146 02dc 00000000 		.4byte	0
 6147 02e0 00000000 		.4byte	0
 6148              	.LLST21:
 6149 02e4 00000000 		.4byte	.LVL66
 6150 02e8 0B000000 		.4byte	.LVL67-1
 6151 02ec 0100     		.2byte	0x1
 6152 02ee 50       		.byte	0x50
 6153 02ef 0B000000 		.4byte	.LVL67-1
ARM GAS  C:\Users\brian\AppData\Local\Temp\cc2Kbm4j.s 			page 124


 6154 02f3 0E000000 		.4byte	.LFE4
 6155 02f7 0400     		.2byte	0x4
 6156 02f9 F3       		.byte	0xf3
 6157 02fa 01       		.uleb128 0x1
 6158 02fb 50       		.byte	0x50
 6159 02fc 9F       		.byte	0x9f
 6160 02fd 00000000 		.4byte	0
 6161 0301 00000000 		.4byte	0
 6162              	.LLST22:
 6163 0305 00000000 		.4byte	.LVL68
 6164 0309 02000000 		.4byte	.LVL69
 6165 030d 0100     		.2byte	0x1
 6166 030f 50       		.byte	0x50
 6167 0310 02000000 		.4byte	.LVL69
 6168 0314 04000000 		.4byte	.LFE5
 6169 0318 0400     		.2byte	0x4
 6170 031a F3       		.byte	0xf3
 6171 031b 01       		.uleb128 0x1
 6172 031c 50       		.byte	0x50
 6173 031d 9F       		.byte	0x9f
 6174 031e 00000000 		.4byte	0
 6175 0322 00000000 		.4byte	0
 6176              	.LLST23:
 6177 0326 00000000 		.4byte	.LVL70
 6178 032a 20000000 		.4byte	.LVL75
 6179 032e 0100     		.2byte	0x1
 6180 0330 50       		.byte	0x50
 6181 0331 20000000 		.4byte	.LVL75
 6182 0335 9E000000 		.4byte	.LVL91
 6183 0339 0100     		.2byte	0x1
 6184 033b 54       		.byte	0x54
 6185 033c 9E000000 		.4byte	.LVL91
 6186 0340 A5000000 		.4byte	.LVL92-1
 6187 0344 0100     		.2byte	0x1
 6188 0346 50       		.byte	0x50
 6189 0347 A5000000 		.4byte	.LVL92-1
 6190 034b BC000000 		.4byte	.LVL94
 6191 034f 0100     		.2byte	0x1
 6192 0351 54       		.byte	0x54
 6193 0352 BC000000 		.4byte	.LVL94
 6194 0356 C3000000 		.4byte	.LVL95-1
 6195 035a 0100     		.2byte	0x1
 6196 035c 50       		.byte	0x50
 6197 035d C3000000 		.4byte	.LVL95-1
 6198 0361 CA000000 		.4byte	.LVL96
 6199 0365 0100     		.2byte	0x1
 6200 0367 54       		.byte	0x54
 6201 0368 CA000000 		.4byte	.LVL96
 6202 036c D1000000 		.4byte	.LVL97-1
 6203 0370 0100     		.2byte	0x1
 6204 0372 50       		.byte	0x50
 6205 0373 D1000000 		.4byte	.LVL97-1
 6206 0377 E6000000 		.4byte	.LVL99
 6207 037b 0100     		.2byte	0x1
 6208 037d 54       		.byte	0x54
 6209 037e E6000000 		.4byte	.LVL99
 6210 0382 EF000000 		.4byte	.LVL100-1
ARM GAS  C:\Users\brian\AppData\Local\Temp\cc2Kbm4j.s 			page 125


 6211 0386 0100     		.2byte	0x1
 6212 0388 50       		.byte	0x50
 6213 0389 EF000000 		.4byte	.LVL100-1
 6214 038d 02010000 		.4byte	.LVL102
 6215 0391 0100     		.2byte	0x1
 6216 0393 54       		.byte	0x54
 6217 0394 02010000 		.4byte	.LVL102
 6218 0398 04010000 		.4byte	.LVL103
 6219 039c 0100     		.2byte	0x1
 6220 039e 50       		.byte	0x50
 6221 039f 04010000 		.4byte	.LVL103
 6222 03a3 08010000 		.4byte	.LFE6
 6223 03a7 0100     		.2byte	0x1
 6224 03a9 54       		.byte	0x54
 6225 03aa 00000000 		.4byte	0
 6226 03ae 00000000 		.4byte	0
 6227              	.LLST24:
 6228 03b2 00000000 		.4byte	.LVL70
 6229 03b6 18000000 		.4byte	.LVL74
 6230 03ba 0100     		.2byte	0x1
 6231 03bc 51       		.byte	0x51
 6232 03bd 18000000 		.4byte	.LVL74
 6233 03c1 08010000 		.4byte	.LFE6
 6234 03c5 0400     		.2byte	0x4
 6235 03c7 F3       		.byte	0xf3
 6236 03c8 01       		.uleb128 0x1
 6237 03c9 51       		.byte	0x51
 6238 03ca 9F       		.byte	0x9f
 6239 03cb 00000000 		.4byte	0
 6240 03cf 00000000 		.4byte	0
 6241              	.LLST25:
 6242 03d3 00000000 		.4byte	.LVL70
 6243 03d7 0C000000 		.4byte	.LVL71
 6244 03db 0100     		.2byte	0x1
 6245 03dd 52       		.byte	0x52
 6246 03de 0C000000 		.4byte	.LVL71
 6247 03e2 20000000 		.4byte	.LVL75
 6248 03e6 0400     		.2byte	0x4
 6249 03e8 F3       		.byte	0xf3
 6250 03e9 01       		.uleb128 0x1
 6251 03ea 52       		.byte	0x52
 6252 03eb 9F       		.byte	0x9f
 6253 03ec 20000000 		.4byte	.LVL75
 6254 03f0 36000000 		.4byte	.LVL77
 6255 03f4 0100     		.2byte	0x1
 6256 03f6 59       		.byte	0x59
 6257 03f7 3A000000 		.4byte	.LVL78
 6258 03fb 9E000000 		.4byte	.LVL91
 6259 03ff 0100     		.2byte	0x1
 6260 0401 59       		.byte	0x59
 6261 0402 9E000000 		.4byte	.LVL91
 6262 0406 08010000 		.4byte	.LFE6
 6263 040a 0400     		.2byte	0x4
 6264 040c F3       		.byte	0xf3
 6265 040d 01       		.uleb128 0x1
 6266 040e 52       		.byte	0x52
 6267 040f 9F       		.byte	0x9f
ARM GAS  C:\Users\brian\AppData\Local\Temp\cc2Kbm4j.s 			page 126


 6268 0410 00000000 		.4byte	0
 6269 0414 00000000 		.4byte	0
 6270              	.LLST26:
 6271 0418 00000000 		.4byte	.LVL70
 6272 041c 20000000 		.4byte	.LVL75
 6273 0420 0100     		.2byte	0x1
 6274 0422 53       		.byte	0x53
 6275 0423 20000000 		.4byte	.LVL75
 6276 0427 9E000000 		.4byte	.LVL91
 6277 042b 0400     		.2byte	0x4
 6278 042d F3       		.byte	0xf3
 6279 042e 01       		.uleb128 0x1
 6280 042f 53       		.byte	0x53
 6281 0430 9F       		.byte	0x9f
 6282 0431 9E000000 		.4byte	.LVL91
 6283 0435 08010000 		.4byte	.LFE6
 6284 0439 0100     		.2byte	0x1
 6285 043b 5A       		.byte	0x5a
 6286 043c 00000000 		.4byte	0
 6287 0440 00000000 		.4byte	0
 6288              	.LLST27:
 6289 0444 3A000000 		.4byte	.LVL78
 6290 0448 3E000000 		.4byte	.LVL79
 6291 044c 0200     		.2byte	0x2
 6292 044e 30       		.byte	0x30
 6293 044f 9F       		.byte	0x9f
 6294 0450 3E000000 		.4byte	.LVL79
 6295 0454 8C000000 		.4byte	.LVL88
 6296 0458 0100     		.2byte	0x1
 6297 045a 55       		.byte	0x55
 6298 045b 8E000000 		.4byte	.LVL89
 6299 045f 92000000 		.4byte	.LVL90
 6300 0463 0100     		.2byte	0x1
 6301 0465 55       		.byte	0x55
 6302 0466 00000000 		.4byte	0
 6303 046a 00000000 		.4byte	0
 6304              	.LLST28:
 6305 046e 32000000 		.4byte	.LVL76
 6306 0472 5C000000 		.4byte	.LVL82
 6307 0476 0100     		.2byte	0x1
 6308 0478 56       		.byte	0x56
 6309 0479 5E000000 		.4byte	.LVL83
 6310 047d 92000000 		.4byte	.LVL90
 6311 0481 0100     		.2byte	0x1
 6312 0483 56       		.byte	0x56
 6313 0484 00000000 		.4byte	0
 6314 0488 00000000 		.4byte	0
 6315              	.LLST29:
 6316 048c 20000000 		.4byte	.LVL75
 6317 0490 9E000000 		.4byte	.LVL91
 6318 0494 0100     		.2byte	0x1
 6319 0496 5A       		.byte	0x5a
 6320 0497 00000000 		.4byte	0
 6321 049b 00000000 		.4byte	0
 6322              	.LLST30:
 6323 049f 00000000 		.4byte	.LVL104
 6324 04a3 14000000 		.4byte	.LVL106
ARM GAS  C:\Users\brian\AppData\Local\Temp\cc2Kbm4j.s 			page 127


 6325 04a7 0100     		.2byte	0x1
 6326 04a9 50       		.byte	0x50
 6327 04aa 14000000 		.4byte	.LVL106
 6328 04ae 7A000000 		.4byte	.LVL119
 6329 04b2 0100     		.2byte	0x1
 6330 04b4 56       		.byte	0x56
 6331 04b5 7A000000 		.4byte	.LVL119
 6332 04b9 83000000 		.4byte	.LVL121-1
 6333 04bd 0100     		.2byte	0x1
 6334 04bf 50       		.byte	0x50
 6335 04c0 83000000 		.4byte	.LVL121-1
 6336 04c4 94000000 		.4byte	.LVL123
 6337 04c8 0100     		.2byte	0x1
 6338 04ca 56       		.byte	0x56
 6339 04cb 94000000 		.4byte	.LVL123
 6340 04cf 99000000 		.4byte	.LVL124-1
 6341 04d3 0100     		.2byte	0x1
 6342 04d5 50       		.byte	0x50
 6343 04d6 99000000 		.4byte	.LVL124-1
 6344 04da A0000000 		.4byte	.LVL125
 6345 04de 0100     		.2byte	0x1
 6346 04e0 56       		.byte	0x56
 6347 04e1 A0000000 		.4byte	.LVL125
 6348 04e5 A9000000 		.4byte	.LVL127-1
 6349 04e9 0100     		.2byte	0x1
 6350 04eb 50       		.byte	0x50
 6351 04ec A9000000 		.4byte	.LVL127-1
 6352 04f0 BE000000 		.4byte	.LVL129
 6353 04f4 0100     		.2byte	0x1
 6354 04f6 56       		.byte	0x56
 6355 04f7 BE000000 		.4byte	.LVL129
 6356 04fb C9000000 		.4byte	.LVL131-1
 6357 04ff 0100     		.2byte	0x1
 6358 0501 50       		.byte	0x50
 6359 0502 C9000000 		.4byte	.LVL131-1
 6360 0506 DC000000 		.4byte	.LVL133
 6361 050a 0100     		.2byte	0x1
 6362 050c 56       		.byte	0x56
 6363 050d DC000000 		.4byte	.LVL133
 6364 0511 DE000000 		.4byte	.LVL134
 6365 0515 0100     		.2byte	0x1
 6366 0517 50       		.byte	0x50
 6367 0518 DE000000 		.4byte	.LVL134
 6368 051c E2000000 		.4byte	.LFE7
 6369 0520 0100     		.2byte	0x1
 6370 0522 56       		.byte	0x56
 6371 0523 00000000 		.4byte	0
 6372 0527 00000000 		.4byte	0
 6373              	.LLST31:
 6374 052b 00000000 		.4byte	.LVL104
 6375 052f 0C000000 		.4byte	.LVL105
 6376 0533 0100     		.2byte	0x1
 6377 0535 51       		.byte	0x51
 6378 0536 0C000000 		.4byte	.LVL105
 6379 053a E2000000 		.4byte	.LFE7
 6380 053e 0400     		.2byte	0x4
 6381 0540 F3       		.byte	0xf3
ARM GAS  C:\Users\brian\AppData\Local\Temp\cc2Kbm4j.s 			page 128


 6382 0541 01       		.uleb128 0x1
 6383 0542 51       		.byte	0x51
 6384 0543 9F       		.byte	0x9f
 6385 0544 00000000 		.4byte	0
 6386 0548 00000000 		.4byte	0
 6387              	.LLST32:
 6388 054c 00000000 		.4byte	.LVL104
 6389 0550 14000000 		.4byte	.LVL106
 6390 0554 0100     		.2byte	0x1
 6391 0556 52       		.byte	0x52
 6392 0557 14000000 		.4byte	.LVL106
 6393 055b 28000000 		.4byte	.LVL108
 6394 055f 0100     		.2byte	0x1
 6395 0561 57       		.byte	0x57
 6396 0562 2A000000 		.4byte	.LVL109
 6397 0566 7A000000 		.4byte	.LVL119
 6398 056a 0100     		.2byte	0x1
 6399 056c 57       		.byte	0x57
 6400 056d 7A000000 		.4byte	.LVL119
 6401 0571 7E000000 		.4byte	.LVL120
 6402 0575 0100     		.2byte	0x1
 6403 0577 52       		.byte	0x52
 6404 0578 7E000000 		.4byte	.LVL120
 6405 057c 94000000 		.4byte	.LVL123
 6406 0580 0400     		.2byte	0x4
 6407 0582 F3       		.byte	0xf3
 6408 0583 01       		.uleb128 0x1
 6409 0584 52       		.byte	0x52
 6410 0585 9F       		.byte	0x9f
 6411 0586 94000000 		.4byte	.LVL123
 6412 058a 99000000 		.4byte	.LVL124-1
 6413 058e 0100     		.2byte	0x1
 6414 0590 52       		.byte	0x52
 6415 0591 99000000 		.4byte	.LVL124-1
 6416 0595 A0000000 		.4byte	.LVL125
 6417 0599 0400     		.2byte	0x4
 6418 059b F3       		.byte	0xf3
 6419 059c 01       		.uleb128 0x1
 6420 059d 52       		.byte	0x52
 6421 059e 9F       		.byte	0x9f
 6422 059f A0000000 		.4byte	.LVL125
 6423 05a3 A4000000 		.4byte	.LVL126
 6424 05a7 0100     		.2byte	0x1
 6425 05a9 52       		.byte	0x52
 6426 05aa A4000000 		.4byte	.LVL126
 6427 05ae BE000000 		.4byte	.LVL129
 6428 05b2 0400     		.2byte	0x4
 6429 05b4 F3       		.byte	0xf3
 6430 05b5 01       		.uleb128 0x1
 6431 05b6 52       		.byte	0x52
 6432 05b7 9F       		.byte	0x9f
 6433 05b8 BE000000 		.4byte	.LVL129
 6434 05bc C2000000 		.4byte	.LVL130
 6435 05c0 0100     		.2byte	0x1
 6436 05c2 52       		.byte	0x52
 6437 05c3 C2000000 		.4byte	.LVL130
 6438 05c7 DC000000 		.4byte	.LVL133
ARM GAS  C:\Users\brian\AppData\Local\Temp\cc2Kbm4j.s 			page 129


 6439 05cb 0400     		.2byte	0x4
 6440 05cd F3       		.byte	0xf3
 6441 05ce 01       		.uleb128 0x1
 6442 05cf 52       		.byte	0x52
 6443 05d0 9F       		.byte	0x9f
 6444 05d1 DC000000 		.4byte	.LVL133
 6445 05d5 E2000000 		.4byte	.LFE7
 6446 05d9 0100     		.2byte	0x1
 6447 05db 52       		.byte	0x52
 6448 05dc 00000000 		.4byte	0
 6449 05e0 00000000 		.4byte	0
 6450              	.LLST33:
 6451 05e4 00000000 		.4byte	.LVL104
 6452 05e8 14000000 		.4byte	.LVL106
 6453 05ec 0100     		.2byte	0x1
 6454 05ee 53       		.byte	0x53
 6455 05ef 14000000 		.4byte	.LVL106
 6456 05f3 7A000000 		.4byte	.LVL119
 6457 05f7 0400     		.2byte	0x4
 6458 05f9 F3       		.byte	0xf3
 6459 05fa 01       		.uleb128 0x1
 6460 05fb 53       		.byte	0x53
 6461 05fc 9F       		.byte	0x9f
 6462 05fd 7A000000 		.4byte	.LVL119
 6463 0601 E2000000 		.4byte	.LFE7
 6464 0605 0100     		.2byte	0x1
 6465 0607 58       		.byte	0x58
 6466 0608 00000000 		.4byte	0
 6467 060c 00000000 		.4byte	0
 6468              	.LLST34:
 6469 0610 2A000000 		.4byte	.LVL109
 6470 0614 2E000000 		.4byte	.LVL110
 6471 0618 0300     		.2byte	0x3
 6472 061a 08       		.byte	0x8
 6473 061b 40       		.byte	0x40
 6474 061c 9F       		.byte	0x9f
 6475 061d 2E000000 		.4byte	.LVL110
 6476 0621 3E000000 		.4byte	.LVL113
 6477 0625 0100     		.2byte	0x1
 6478 0627 54       		.byte	0x54
 6479 0628 40000000 		.4byte	.LVL114
 6480 062c 70000000 		.4byte	.LVL118
 6481 0630 0100     		.2byte	0x1
 6482 0632 54       		.byte	0x54
 6483 0633 00000000 		.4byte	0
 6484 0637 00000000 		.4byte	0
 6485              	.LLST35:
 6486 063b 26000000 		.4byte	.LVL107
 6487 063f 70000000 		.4byte	.LVL118
 6488 0643 0100     		.2byte	0x1
 6489 0645 55       		.byte	0x55
 6490 0646 00000000 		.4byte	0
 6491 064a 00000000 		.4byte	0
 6492              	.LLST36:
 6493 064e 14000000 		.4byte	.LVL106
 6494 0652 7A000000 		.4byte	.LVL119
 6495 0656 0100     		.2byte	0x1
ARM GAS  C:\Users\brian\AppData\Local\Temp\cc2Kbm4j.s 			page 130


 6496 0658 58       		.byte	0x58
 6497 0659 00000000 		.4byte	0
 6498 065d 00000000 		.4byte	0
 6499              	.LLST37:
 6500 0661 00000000 		.4byte	.LVL135
 6501 0665 14000000 		.4byte	.LVL137
 6502 0669 0100     		.2byte	0x1
 6503 066b 50       		.byte	0x50
 6504 066c 14000000 		.4byte	.LVL137
 6505 0670 7A000000 		.4byte	.LVL150
 6506 0674 0100     		.2byte	0x1
 6507 0676 56       		.byte	0x56
 6508 0677 7A000000 		.4byte	.LVL150
 6509 067b 83000000 		.4byte	.LVL152-1
 6510 067f 0100     		.2byte	0x1
 6511 0681 50       		.byte	0x50
 6512 0682 83000000 		.4byte	.LVL152-1
 6513 0686 94000000 		.4byte	.LVL154
 6514 068a 0100     		.2byte	0x1
 6515 068c 56       		.byte	0x56
 6516 068d 94000000 		.4byte	.LVL154
 6517 0691 99000000 		.4byte	.LVL155-1
 6518 0695 0100     		.2byte	0x1
 6519 0697 50       		.byte	0x50
 6520 0698 99000000 		.4byte	.LVL155-1
 6521 069c A0000000 		.4byte	.LVL156
 6522 06a0 0100     		.2byte	0x1
 6523 06a2 56       		.byte	0x56
 6524 06a3 A0000000 		.4byte	.LVL156
 6525 06a7 A9000000 		.4byte	.LVL158-1
 6526 06ab 0100     		.2byte	0x1
 6527 06ad 50       		.byte	0x50
 6528 06ae A9000000 		.4byte	.LVL158-1
 6529 06b2 BE000000 		.4byte	.LVL160
 6530 06b6 0100     		.2byte	0x1
 6531 06b8 56       		.byte	0x56
 6532 06b9 BE000000 		.4byte	.LVL160
 6533 06bd C9000000 		.4byte	.LVL162-1
 6534 06c1 0100     		.2byte	0x1
 6535 06c3 50       		.byte	0x50
 6536 06c4 C9000000 		.4byte	.LVL162-1
 6537 06c8 DC000000 		.4byte	.LVL164
 6538 06cc 0100     		.2byte	0x1
 6539 06ce 56       		.byte	0x56
 6540 06cf DC000000 		.4byte	.LVL164
 6541 06d3 DE000000 		.4byte	.LVL165
 6542 06d7 0100     		.2byte	0x1
 6543 06d9 50       		.byte	0x50
 6544 06da DE000000 		.4byte	.LVL165
 6545 06de E2000000 		.4byte	.LFE8
 6546 06e2 0100     		.2byte	0x1
 6547 06e4 56       		.byte	0x56
 6548 06e5 00000000 		.4byte	0
 6549 06e9 00000000 		.4byte	0
 6550              	.LLST38:
 6551 06ed 00000000 		.4byte	.LVL135
 6552 06f1 0C000000 		.4byte	.LVL136
ARM GAS  C:\Users\brian\AppData\Local\Temp\cc2Kbm4j.s 			page 131


 6553 06f5 0100     		.2byte	0x1
 6554 06f7 51       		.byte	0x51
 6555 06f8 0C000000 		.4byte	.LVL136
 6556 06fc E2000000 		.4byte	.LFE8
 6557 0700 0400     		.2byte	0x4
 6558 0702 F3       		.byte	0xf3
 6559 0703 01       		.uleb128 0x1
 6560 0704 51       		.byte	0x51
 6561 0705 9F       		.byte	0x9f
 6562 0706 00000000 		.4byte	0
 6563 070a 00000000 		.4byte	0
 6564              	.LLST39:
 6565 070e 00000000 		.4byte	.LVL135
 6566 0712 14000000 		.4byte	.LVL137
 6567 0716 0100     		.2byte	0x1
 6568 0718 52       		.byte	0x52
 6569 0719 14000000 		.4byte	.LVL137
 6570 071d 28000000 		.4byte	.LVL139
 6571 0721 0100     		.2byte	0x1
 6572 0723 57       		.byte	0x57
 6573 0724 2A000000 		.4byte	.LVL140
 6574 0728 7A000000 		.4byte	.LVL150
 6575 072c 0100     		.2byte	0x1
 6576 072e 57       		.byte	0x57
 6577 072f 7A000000 		.4byte	.LVL150
 6578 0733 7E000000 		.4byte	.LVL151
 6579 0737 0100     		.2byte	0x1
 6580 0739 52       		.byte	0x52
 6581 073a 7E000000 		.4byte	.LVL151
 6582 073e 94000000 		.4byte	.LVL154
 6583 0742 0400     		.2byte	0x4
 6584 0744 F3       		.byte	0xf3
 6585 0745 01       		.uleb128 0x1
 6586 0746 52       		.byte	0x52
 6587 0747 9F       		.byte	0x9f
 6588 0748 94000000 		.4byte	.LVL154
 6589 074c 99000000 		.4byte	.LVL155-1
 6590 0750 0100     		.2byte	0x1
 6591 0752 52       		.byte	0x52
 6592 0753 99000000 		.4byte	.LVL155-1
 6593 0757 A0000000 		.4byte	.LVL156
 6594 075b 0400     		.2byte	0x4
 6595 075d F3       		.byte	0xf3
 6596 075e 01       		.uleb128 0x1
 6597 075f 52       		.byte	0x52
 6598 0760 9F       		.byte	0x9f
 6599 0761 A0000000 		.4byte	.LVL156
 6600 0765 A4000000 		.4byte	.LVL157
 6601 0769 0100     		.2byte	0x1
 6602 076b 52       		.byte	0x52
 6603 076c A4000000 		.4byte	.LVL157
 6604 0770 BE000000 		.4byte	.LVL160
 6605 0774 0400     		.2byte	0x4
 6606 0776 F3       		.byte	0xf3
 6607 0777 01       		.uleb128 0x1
 6608 0778 52       		.byte	0x52
 6609 0779 9F       		.byte	0x9f
ARM GAS  C:\Users\brian\AppData\Local\Temp\cc2Kbm4j.s 			page 132


 6610 077a BE000000 		.4byte	.LVL160
 6611 077e C2000000 		.4byte	.LVL161
 6612 0782 0100     		.2byte	0x1
 6613 0784 52       		.byte	0x52
 6614 0785 C2000000 		.4byte	.LVL161
 6615 0789 DC000000 		.4byte	.LVL164
 6616 078d 0400     		.2byte	0x4
 6617 078f F3       		.byte	0xf3
 6618 0790 01       		.uleb128 0x1
 6619 0791 52       		.byte	0x52
 6620 0792 9F       		.byte	0x9f
 6621 0793 DC000000 		.4byte	.LVL164
 6622 0797 E2000000 		.4byte	.LFE8
 6623 079b 0100     		.2byte	0x1
 6624 079d 52       		.byte	0x52
 6625 079e 00000000 		.4byte	0
 6626 07a2 00000000 		.4byte	0
 6627              	.LLST40:
 6628 07a6 00000000 		.4byte	.LVL135
 6629 07aa 14000000 		.4byte	.LVL137
 6630 07ae 0100     		.2byte	0x1
 6631 07b0 53       		.byte	0x53
 6632 07b1 14000000 		.4byte	.LVL137
 6633 07b5 7A000000 		.4byte	.LVL150
 6634 07b9 0400     		.2byte	0x4
 6635 07bb F3       		.byte	0xf3
 6636 07bc 01       		.uleb128 0x1
 6637 07bd 53       		.byte	0x53
 6638 07be 9F       		.byte	0x9f
 6639 07bf 7A000000 		.4byte	.LVL150
 6640 07c3 E2000000 		.4byte	.LFE8
 6641 07c7 0100     		.2byte	0x1
 6642 07c9 58       		.byte	0x58
 6643 07ca 00000000 		.4byte	0
 6644 07ce 00000000 		.4byte	0
 6645              	.LLST41:
 6646 07d2 2A000000 		.4byte	.LVL140
 6647 07d6 2E000000 		.4byte	.LVL141
 6648 07da 0300     		.2byte	0x3
 6649 07dc 08       		.byte	0x8
 6650 07dd 40       		.byte	0x40
 6651 07de 9F       		.byte	0x9f
 6652 07df 2E000000 		.4byte	.LVL141
 6653 07e3 3E000000 		.4byte	.LVL144
 6654 07e7 0100     		.2byte	0x1
 6655 07e9 54       		.byte	0x54
 6656 07ea 40000000 		.4byte	.LVL145
 6657 07ee 70000000 		.4byte	.LVL149
 6658 07f2 0100     		.2byte	0x1
 6659 07f4 54       		.byte	0x54
 6660 07f5 00000000 		.4byte	0
 6661 07f9 00000000 		.4byte	0
 6662              	.LLST42:
 6663 07fd 26000000 		.4byte	.LVL138
 6664 0801 70000000 		.4byte	.LVL149
 6665 0805 0100     		.2byte	0x1
 6666 0807 55       		.byte	0x55
ARM GAS  C:\Users\brian\AppData\Local\Temp\cc2Kbm4j.s 			page 133


 6667 0808 00000000 		.4byte	0
 6668 080c 00000000 		.4byte	0
 6669              	.LLST43:
 6670 0810 14000000 		.4byte	.LVL137
 6671 0814 7A000000 		.4byte	.LVL150
 6672 0818 0100     		.2byte	0x1
 6673 081a 58       		.byte	0x58
 6674 081b 00000000 		.4byte	0
 6675 081f 00000000 		.4byte	0
 6676              	.LLST44:
 6677 0823 00000000 		.4byte	.LVL166
 6678 0827 20000000 		.4byte	.LVL171
 6679 082b 0100     		.2byte	0x1
 6680 082d 50       		.byte	0x50
 6681 082e 20000000 		.4byte	.LVL171
 6682 0832 AE000000 		.4byte	.LVL189
 6683 0836 0100     		.2byte	0x1
 6684 0838 54       		.byte	0x54
 6685 0839 AE000000 		.4byte	.LVL189
 6686 083d B5000000 		.4byte	.LVL190-1
 6687 0841 0100     		.2byte	0x1
 6688 0843 50       		.byte	0x50
 6689 0844 B5000000 		.4byte	.LVL190-1
 6690 0848 CC000000 		.4byte	.LVL192
 6691 084c 0100     		.2byte	0x1
 6692 084e 54       		.byte	0x54
 6693 084f CC000000 		.4byte	.LVL192
 6694 0853 D4000000 		.4byte	.LVL193
 6695 0857 0100     		.2byte	0x1
 6696 0859 50       		.byte	0x50
 6697 085a D4000000 		.4byte	.LVL193
 6698 085e D8000000 		.4byte	.LVL194
 6699 0862 0100     		.2byte	0x1
 6700 0864 54       		.byte	0x54
 6701 0865 D8000000 		.4byte	.LVL194
 6702 0869 DF000000 		.4byte	.LVL195-1
 6703 086d 0100     		.2byte	0x1
 6704 086f 50       		.byte	0x50
 6705 0870 DF000000 		.4byte	.LVL195-1
 6706 0874 F4000000 		.4byte	.LVL197
 6707 0878 0100     		.2byte	0x1
 6708 087a 54       		.byte	0x54
 6709 087b F4000000 		.4byte	.LVL197
 6710 087f FD000000 		.4byte	.LVL198-1
 6711 0883 0100     		.2byte	0x1
 6712 0885 50       		.byte	0x50
 6713 0886 FD000000 		.4byte	.LVL198-1
 6714 088a 10010000 		.4byte	.LVL200
 6715 088e 0100     		.2byte	0x1
 6716 0890 54       		.byte	0x54
 6717 0891 10010000 		.4byte	.LVL200
 6718 0895 12010000 		.4byte	.LVL201
 6719 0899 0100     		.2byte	0x1
 6720 089b 50       		.byte	0x50
 6721 089c 12010000 		.4byte	.LVL201
 6722 08a0 16010000 		.4byte	.LVL202
 6723 08a4 0100     		.2byte	0x1
ARM GAS  C:\Users\brian\AppData\Local\Temp\cc2Kbm4j.s 			page 134


 6724 08a6 54       		.byte	0x54
 6725 08a7 16010000 		.4byte	.LVL202
 6726 08ab 1C010000 		.4byte	.LFE9
 6727 08af 0400     		.2byte	0x4
 6728 08b1 F3       		.byte	0xf3
 6729 08b2 01       		.uleb128 0x1
 6730 08b3 50       		.byte	0x50
 6731 08b4 9F       		.byte	0x9f
 6732 08b5 00000000 		.4byte	0
 6733 08b9 00000000 		.4byte	0
 6734              	.LLST45:
 6735 08bd 00000000 		.4byte	.LVL166
 6736 08c1 18000000 		.4byte	.LVL170
 6737 08c5 0100     		.2byte	0x1
 6738 08c7 51       		.byte	0x51
 6739 08c8 18000000 		.4byte	.LVL170
 6740 08cc 1C010000 		.4byte	.LFE9
 6741 08d0 0400     		.2byte	0x4
 6742 08d2 F3       		.byte	0xf3
 6743 08d3 01       		.uleb128 0x1
 6744 08d4 51       		.byte	0x51
 6745 08d5 9F       		.byte	0x9f
 6746 08d6 00000000 		.4byte	0
 6747 08da 00000000 		.4byte	0
 6748              	.LLST46:
 6749 08de 00000000 		.4byte	.LVL166
 6750 08e2 0C000000 		.4byte	.LVL167
 6751 08e6 0100     		.2byte	0x1
 6752 08e8 52       		.byte	0x52
 6753 08e9 0C000000 		.4byte	.LVL167
 6754 08ed 20000000 		.4byte	.LVL171
 6755 08f1 0400     		.2byte	0x4
 6756 08f3 F3       		.byte	0xf3
 6757 08f4 01       		.uleb128 0x1
 6758 08f5 52       		.byte	0x52
 6759 08f6 9F       		.byte	0x9f
 6760 08f7 20000000 		.4byte	.LVL171
 6761 08fb 44000000 		.4byte	.LVL175
 6762 08ff 0100     		.2byte	0x1
 6763 0901 59       		.byte	0x59
 6764 0902 48000000 		.4byte	.LVL176
 6765 0906 AE000000 		.4byte	.LVL189
 6766 090a 0100     		.2byte	0x1
 6767 090c 59       		.byte	0x59
 6768 090d AE000000 		.4byte	.LVL189
 6769 0911 1C010000 		.4byte	.LFE9
 6770 0915 0400     		.2byte	0x4
 6771 0917 F3       		.byte	0xf3
 6772 0918 01       		.uleb128 0x1
 6773 0919 52       		.byte	0x52
 6774 091a 9F       		.byte	0x9f
 6775 091b 00000000 		.4byte	0
 6776 091f 00000000 		.4byte	0
 6777              	.LLST47:
 6778 0923 00000000 		.4byte	.LVL166
 6779 0927 20000000 		.4byte	.LVL171
 6780 092b 0100     		.2byte	0x1
ARM GAS  C:\Users\brian\AppData\Local\Temp\cc2Kbm4j.s 			page 135


 6781 092d 53       		.byte	0x53
 6782 092e 20000000 		.4byte	.LVL171
 6783 0932 AE000000 		.4byte	.LVL189
 6784 0936 0400     		.2byte	0x4
 6785 0938 F3       		.byte	0xf3
 6786 0939 01       		.uleb128 0x1
 6787 093a 53       		.byte	0x53
 6788 093b 9F       		.byte	0x9f
 6789 093c AE000000 		.4byte	.LVL189
 6790 0940 16010000 		.4byte	.LVL202
 6791 0944 0100     		.2byte	0x1
 6792 0946 5A       		.byte	0x5a
 6793 0947 16010000 		.4byte	.LVL202
 6794 094b 1C010000 		.4byte	.LFE9
 6795 094f 0400     		.2byte	0x4
 6796 0951 F3       		.byte	0xf3
 6797 0952 01       		.uleb128 0x1
 6798 0953 53       		.byte	0x53
 6799 0954 9F       		.byte	0x9f
 6800 0955 00000000 		.4byte	0
 6801 0959 00000000 		.4byte	0
 6802              	.LLST48:
 6803 095d 48000000 		.4byte	.LVL176
 6804 0961 4C000000 		.4byte	.LVL177
 6805 0965 0200     		.2byte	0x2
 6806 0967 30       		.byte	0x30
 6807 0968 9F       		.byte	0x9f
 6808 0969 4C000000 		.4byte	.LVL177
 6809 096d 9C000000 		.4byte	.LVL186
 6810 0971 0100     		.2byte	0x1
 6811 0973 55       		.byte	0x55
 6812 0974 9E000000 		.4byte	.LVL187
 6813 0978 A2000000 		.4byte	.LVL188
 6814 097c 0100     		.2byte	0x1
 6815 097e 55       		.byte	0x55
 6816 097f 00000000 		.4byte	0
 6817 0983 00000000 		.4byte	0
 6818              	.LLST49:
 6819 0987 20000000 		.4byte	.LVL171
 6820 098b AE000000 		.4byte	.LVL189
 6821 098f 0100     		.2byte	0x1
 6822 0991 5A       		.byte	0x5a
 6823 0992 00000000 		.4byte	0
 6824 0996 00000000 		.4byte	0
 6825              	.LLST50:
 6826 099a 12000000 		.4byte	.LVL168
 6827 099e 16010000 		.4byte	.LVL202
 6828 09a2 0100     		.2byte	0x1
 6829 09a4 57       		.byte	0x57
 6830 09a5 16010000 		.4byte	.LVL202
 6831 09a9 1C010000 		.4byte	.LFE9
 6832 09ad 0700     		.2byte	0x7
 6833 09af 72       		.byte	0x72
 6834 09b0 0C       		.sleb128 12
 6835 09b1 94       		.byte	0x94
 6836 09b2 01       		.byte	0x1
 6837 09b3 31       		.byte	0x31
ARM GAS  C:\Users\brian\AppData\Local\Temp\cc2Kbm4j.s 			page 136


 6838 09b4 1A       		.byte	0x1a
 6839 09b5 9F       		.byte	0x9f
 6840 09b6 00000000 		.4byte	0
 6841 09ba 00000000 		.4byte	0
 6842              	.LLST51:
 6843 09be 16000000 		.4byte	.LVL169
 6844 09c2 16010000 		.4byte	.LVL202
 6845 09c6 0100     		.2byte	0x1
 6846 09c8 58       		.byte	0x58
 6847 09c9 16010000 		.4byte	.LVL202
 6848 09cd 1C010000 		.4byte	.LFE9
 6849 09d1 0C00     		.2byte	0xc
 6850 09d3 72       		.byte	0x72
 6851 09d4 0C       		.sleb128 12
 6852 09d5 94       		.byte	0x94
 6853 09d6 01       		.byte	0x1
 6854 09d7 31       		.byte	0x31
 6855 09d8 1A       		.byte	0x1a
 6856 09d9 08       		.byte	0x8
 6857 09da FF       		.byte	0xff
 6858 09db 1A       		.byte	0x1a
 6859 09dc 31       		.byte	0x31
 6860 09dd 27       		.byte	0x27
 6861 09de 9F       		.byte	0x9f
 6862 09df 00000000 		.4byte	0
 6863 09e3 00000000 		.4byte	0
 6864              	.LLST52:
 6865 09e7 32000000 		.4byte	.LVL172
 6866 09eb 6C000000 		.4byte	.LVL180
 6867 09ef 0100     		.2byte	0x1
 6868 09f1 56       		.byte	0x56
 6869 09f2 6E000000 		.4byte	.LVL181
 6870 09f6 A2000000 		.4byte	.LVL188
 6871 09fa 0100     		.2byte	0x1
 6872 09fc 56       		.byte	0x56
 6873 09fd 00000000 		.4byte	0
 6874 0a01 00000000 		.4byte	0
 6875              	.LLST53:
 6876 0a05 00000000 		.4byte	.LVL203
 6877 0a09 0F000000 		.4byte	.LVL205-1
 6878 0a0d 0100     		.2byte	0x1
 6879 0a0f 50       		.byte	0x50
 6880 0a10 0F000000 		.4byte	.LVL205-1
 6881 0a14 2C000000 		.4byte	.LFE10
 6882 0a18 0100     		.2byte	0x1
 6883 0a1a 55       		.byte	0x55
 6884 0a1b 00000000 		.4byte	0
 6885 0a1f 00000000 		.4byte	0
 6886              	.LLST54:
 6887 0a23 00000000 		.4byte	.LVL203
 6888 0a27 0C000000 		.4byte	.LVL204
 6889 0a2b 0100     		.2byte	0x1
 6890 0a2d 51       		.byte	0x51
 6891 0a2e 0C000000 		.4byte	.LVL204
 6892 0a32 12000000 		.4byte	.LVL206
 6893 0a36 0400     		.2byte	0x4
 6894 0a38 F3       		.byte	0xf3
ARM GAS  C:\Users\brian\AppData\Local\Temp\cc2Kbm4j.s 			page 137


 6895 0a39 01       		.uleb128 0x1
 6896 0a3a 51       		.byte	0x51
 6897 0a3b 9F       		.byte	0x9f
 6898 0a3c 12000000 		.4byte	.LVL206
 6899 0a40 1E000000 		.4byte	.LVL207
 6900 0a44 0100     		.2byte	0x1
 6901 0a46 54       		.byte	0x54
 6902 0a47 1E000000 		.4byte	.LVL207
 6903 0a4b 2C000000 		.4byte	.LFE10
 6904 0a4f 0500     		.2byte	0x5
 6905 0a51 74       		.byte	0x74
 6906 0a52 00       		.sleb128 0
 6907 0a53 31       		.byte	0x31
 6908 0a54 25       		.byte	0x25
 6909 0a55 9F       		.byte	0x9f
 6910 0a56 00000000 		.4byte	0
 6911 0a5a 00000000 		.4byte	0
 6912              	.LLST55:
 6913 0a5e 00000000 		.4byte	.LVL209
 6914 0a62 14000000 		.4byte	.LVL211
 6915 0a66 0100     		.2byte	0x1
 6916 0a68 50       		.byte	0x50
 6917 0a69 14000000 		.4byte	.LVL211
 6918 0a6d 7A000000 		.4byte	.LVL224
 6919 0a71 0100     		.2byte	0x1
 6920 0a73 56       		.byte	0x56
 6921 0a74 7A000000 		.4byte	.LVL224
 6922 0a78 83000000 		.4byte	.LVL226-1
 6923 0a7c 0100     		.2byte	0x1
 6924 0a7e 50       		.byte	0x50
 6925 0a7f 83000000 		.4byte	.LVL226-1
 6926 0a83 94000000 		.4byte	.LVL228
 6927 0a87 0100     		.2byte	0x1
 6928 0a89 56       		.byte	0x56
 6929 0a8a 94000000 		.4byte	.LVL228
 6930 0a8e 99000000 		.4byte	.LVL229-1
 6931 0a92 0100     		.2byte	0x1
 6932 0a94 50       		.byte	0x50
 6933 0a95 99000000 		.4byte	.LVL229-1
 6934 0a99 A0000000 		.4byte	.LVL230
 6935 0a9d 0100     		.2byte	0x1
 6936 0a9f 56       		.byte	0x56
 6937 0aa0 A0000000 		.4byte	.LVL230
 6938 0aa4 A5000000 		.4byte	.LVL231-1
 6939 0aa8 0100     		.2byte	0x1
 6940 0aaa 50       		.byte	0x50
 6941 0aab A5000000 		.4byte	.LVL231-1
 6942 0aaf BA000000 		.4byte	.LVL233
 6943 0ab3 0100     		.2byte	0x1
 6944 0ab5 56       		.byte	0x56
 6945 0ab6 BA000000 		.4byte	.LVL233
 6946 0aba C5000000 		.4byte	.LVL235-1
 6947 0abe 0100     		.2byte	0x1
 6948 0ac0 50       		.byte	0x50
 6949 0ac1 C5000000 		.4byte	.LVL235-1
 6950 0ac5 D4000000 		.4byte	.LVL237
 6951 0ac9 0100     		.2byte	0x1
ARM GAS  C:\Users\brian\AppData\Local\Temp\cc2Kbm4j.s 			page 138


 6952 0acb 56       		.byte	0x56
 6953 0acc D4000000 		.4byte	.LVL237
 6954 0ad0 D6000000 		.4byte	.LVL238
 6955 0ad4 0100     		.2byte	0x1
 6956 0ad6 50       		.byte	0x50
 6957 0ad7 D6000000 		.4byte	.LVL238
 6958 0adb DA000000 		.4byte	.LFE11
 6959 0adf 0100     		.2byte	0x1
 6960 0ae1 56       		.byte	0x56
 6961 0ae2 00000000 		.4byte	0
 6962 0ae6 00000000 		.4byte	0
 6963              	.LLST56:
 6964 0aea 00000000 		.4byte	.LVL209
 6965 0aee 0C000000 		.4byte	.LVL210
 6966 0af2 0100     		.2byte	0x1
 6967 0af4 51       		.byte	0x51
 6968 0af5 0C000000 		.4byte	.LVL210
 6969 0af9 DA000000 		.4byte	.LFE11
 6970 0afd 0400     		.2byte	0x4
 6971 0aff F3       		.byte	0xf3
 6972 0b00 01       		.uleb128 0x1
 6973 0b01 51       		.byte	0x51
 6974 0b02 9F       		.byte	0x9f
 6975 0b03 00000000 		.4byte	0
 6976 0b07 00000000 		.4byte	0
 6977              	.LLST57:
 6978 0b0b 00000000 		.4byte	.LVL209
 6979 0b0f 14000000 		.4byte	.LVL211
 6980 0b13 0100     		.2byte	0x1
 6981 0b15 52       		.byte	0x52
 6982 0b16 14000000 		.4byte	.LVL211
 6983 0b1a 28000000 		.4byte	.LVL213
 6984 0b1e 0100     		.2byte	0x1
 6985 0b20 57       		.byte	0x57
 6986 0b21 2A000000 		.4byte	.LVL214
 6987 0b25 7A000000 		.4byte	.LVL224
 6988 0b29 0100     		.2byte	0x1
 6989 0b2b 57       		.byte	0x57
 6990 0b2c 7A000000 		.4byte	.LVL224
 6991 0b30 7E000000 		.4byte	.LVL225
 6992 0b34 0100     		.2byte	0x1
 6993 0b36 52       		.byte	0x52
 6994 0b37 7E000000 		.4byte	.LVL225
 6995 0b3b 94000000 		.4byte	.LVL228
 6996 0b3f 0400     		.2byte	0x4
 6997 0b41 F3       		.byte	0xf3
 6998 0b42 01       		.uleb128 0x1
 6999 0b43 52       		.byte	0x52
 7000 0b44 9F       		.byte	0x9f
 7001 0b45 94000000 		.4byte	.LVL228
 7002 0b49 99000000 		.4byte	.LVL229-1
 7003 0b4d 0100     		.2byte	0x1
 7004 0b4f 52       		.byte	0x52
 7005 0b50 99000000 		.4byte	.LVL229-1
 7006 0b54 A0000000 		.4byte	.LVL230
 7007 0b58 0400     		.2byte	0x4
 7008 0b5a F3       		.byte	0xf3
ARM GAS  C:\Users\brian\AppData\Local\Temp\cc2Kbm4j.s 			page 139


 7009 0b5b 01       		.uleb128 0x1
 7010 0b5c 52       		.byte	0x52
 7011 0b5d 9F       		.byte	0x9f
 7012 0b5e A0000000 		.4byte	.LVL230
 7013 0b62 A5000000 		.4byte	.LVL231-1
 7014 0b66 0100     		.2byte	0x1
 7015 0b68 52       		.byte	0x52
 7016 0b69 A5000000 		.4byte	.LVL231-1
 7017 0b6d BA000000 		.4byte	.LVL233
 7018 0b71 0400     		.2byte	0x4
 7019 0b73 F3       		.byte	0xf3
 7020 0b74 01       		.uleb128 0x1
 7021 0b75 52       		.byte	0x52
 7022 0b76 9F       		.byte	0x9f
 7023 0b77 BA000000 		.4byte	.LVL233
 7024 0b7b BE000000 		.4byte	.LVL234
 7025 0b7f 0100     		.2byte	0x1
 7026 0b81 52       		.byte	0x52
 7027 0b82 BE000000 		.4byte	.LVL234
 7028 0b86 D4000000 		.4byte	.LVL237
 7029 0b8a 0400     		.2byte	0x4
 7030 0b8c F3       		.byte	0xf3
 7031 0b8d 01       		.uleb128 0x1
 7032 0b8e 52       		.byte	0x52
 7033 0b8f 9F       		.byte	0x9f
 7034 0b90 D4000000 		.4byte	.LVL237
 7035 0b94 DA000000 		.4byte	.LFE11
 7036 0b98 0100     		.2byte	0x1
 7037 0b9a 52       		.byte	0x52
 7038 0b9b 00000000 		.4byte	0
 7039 0b9f 00000000 		.4byte	0
 7040              	.LLST58:
 7041 0ba3 00000000 		.4byte	.LVL209
 7042 0ba7 14000000 		.4byte	.LVL211
 7043 0bab 0100     		.2byte	0x1
 7044 0bad 53       		.byte	0x53
 7045 0bae 14000000 		.4byte	.LVL211
 7046 0bb2 7A000000 		.4byte	.LVL224
 7047 0bb6 0400     		.2byte	0x4
 7048 0bb8 F3       		.byte	0xf3
 7049 0bb9 01       		.uleb128 0x1
 7050 0bba 53       		.byte	0x53
 7051 0bbb 9F       		.byte	0x9f
 7052 0bbc 7A000000 		.4byte	.LVL224
 7053 0bc0 DA000000 		.4byte	.LFE11
 7054 0bc4 0100     		.2byte	0x1
 7055 0bc6 58       		.byte	0x58
 7056 0bc7 00000000 		.4byte	0
 7057 0bcb 00000000 		.4byte	0
 7058              	.LLST59:
 7059 0bcf 2A000000 		.4byte	.LVL214
 7060 0bd3 2E000000 		.4byte	.LVL215
 7061 0bd7 0300     		.2byte	0x3
 7062 0bd9 08       		.byte	0x8
 7063 0bda 40       		.byte	0x40
 7064 0bdb 9F       		.byte	0x9f
 7065 0bdc 2E000000 		.4byte	.LVL215
ARM GAS  C:\Users\brian\AppData\Local\Temp\cc2Kbm4j.s 			page 140


 7066 0be0 3E000000 		.4byte	.LVL218
 7067 0be4 0100     		.2byte	0x1
 7068 0be6 54       		.byte	0x54
 7069 0be7 40000000 		.4byte	.LVL219
 7070 0beb 70000000 		.4byte	.LVL223
 7071 0bef 0100     		.2byte	0x1
 7072 0bf1 54       		.byte	0x54
 7073 0bf2 00000000 		.4byte	0
 7074 0bf6 00000000 		.4byte	0
 7075              	.LLST60:
 7076 0bfa 26000000 		.4byte	.LVL212
 7077 0bfe 70000000 		.4byte	.LVL223
 7078 0c02 0100     		.2byte	0x1
 7079 0c04 55       		.byte	0x55
 7080 0c05 00000000 		.4byte	0
 7081 0c09 00000000 		.4byte	0
 7082              	.LLST61:
 7083 0c0d 14000000 		.4byte	.LVL211
 7084 0c11 7A000000 		.4byte	.LVL224
 7085 0c15 0100     		.2byte	0x1
 7086 0c17 58       		.byte	0x58
 7087 0c18 00000000 		.4byte	0
 7088 0c1c 00000000 		.4byte	0
 7089              	.LLST62:
 7090 0c20 00000000 		.4byte	.LVL239
 7091 0c24 24000000 		.4byte	.LVL242
 7092 0c28 0100     		.2byte	0x1
 7093 0c2a 50       		.byte	0x50
 7094 0c2b 24000000 		.4byte	.LVL242
 7095 0c2f 8C000000 		.4byte	.LVL258
 7096 0c33 0100     		.2byte	0x1
 7097 0c35 56       		.byte	0x56
 7098 0c36 8C000000 		.4byte	.LVL258
 7099 0c3a 95000000 		.4byte	.LVL260-1
 7100 0c3e 0100     		.2byte	0x1
 7101 0c40 50       		.byte	0x50
 7102 0c41 95000000 		.4byte	.LVL260-1
 7103 0c45 B6000000 		.4byte	.LVL263
 7104 0c49 0100     		.2byte	0x1
 7105 0c4b 56       		.byte	0x56
 7106 0c4c B6000000 		.4byte	.LVL263
 7107 0c50 BB000000 		.4byte	.LVL264-1
 7108 0c54 0100     		.2byte	0x1
 7109 0c56 50       		.byte	0x50
 7110 0c57 BB000000 		.4byte	.LVL264-1
 7111 0c5b C2000000 		.4byte	.LVL265
 7112 0c5f 0100     		.2byte	0x1
 7113 0c61 56       		.byte	0x56
 7114 0c62 C2000000 		.4byte	.LVL265
 7115 0c66 D0000000 		.4byte	.LVL267
 7116 0c6a 0100     		.2byte	0x1
 7117 0c6c 50       		.byte	0x50
 7118 0c6d D0000000 		.4byte	.LVL267
 7119 0c71 D4000000 		.4byte	.LVL268
 7120 0c75 0100     		.2byte	0x1
 7121 0c77 56       		.byte	0x56
 7122 0c78 D4000000 		.4byte	.LVL268
ARM GAS  C:\Users\brian\AppData\Local\Temp\cc2Kbm4j.s 			page 141


 7123 0c7c D6000000 		.4byte	.LVL269
 7124 0c80 0100     		.2byte	0x1
 7125 0c82 50       		.byte	0x50
 7126 0c83 D6000000 		.4byte	.LVL269
 7127 0c87 DA000000 		.4byte	.LVL270
 7128 0c8b 0100     		.2byte	0x1
 7129 0c8d 56       		.byte	0x56
 7130 0c8e DA000000 		.4byte	.LVL270
 7131 0c92 DC000000 		.4byte	.LVL271
 7132 0c96 0100     		.2byte	0x1
 7133 0c98 50       		.byte	0x50
 7134 0c99 DC000000 		.4byte	.LVL271
 7135 0c9d E0000000 		.4byte	.LVL272
 7136 0ca1 0100     		.2byte	0x1
 7137 0ca3 56       		.byte	0x56
 7138 0ca4 E0000000 		.4byte	.LVL272
 7139 0ca8 E4000000 		.4byte	.LFE12
 7140 0cac 0400     		.2byte	0x4
 7141 0cae F3       		.byte	0xf3
 7142 0caf 01       		.uleb128 0x1
 7143 0cb0 50       		.byte	0x50
 7144 0cb1 9F       		.byte	0x9f
 7145 0cb2 00000000 		.4byte	0
 7146 0cb6 00000000 		.4byte	0
 7147              	.LLST63:
 7148 0cba 00000000 		.4byte	.LVL239
 7149 0cbe 0C000000 		.4byte	.LVL240
 7150 0cc2 0100     		.2byte	0x1
 7151 0cc4 51       		.byte	0x51
 7152 0cc5 0C000000 		.4byte	.LVL240
 7153 0cc9 E4000000 		.4byte	.LFE12
 7154 0ccd 0400     		.2byte	0x4
 7155 0ccf F3       		.byte	0xf3
 7156 0cd0 01       		.uleb128 0x1
 7157 0cd1 51       		.byte	0x51
 7158 0cd2 9F       		.byte	0x9f
 7159 0cd3 00000000 		.4byte	0
 7160 0cd7 00000000 		.4byte	0
 7161              	.LLST64:
 7162 0cdb 00000000 		.4byte	.LVL239
 7163 0cdf 28000000 		.4byte	.LVL243
 7164 0ce3 0100     		.2byte	0x1
 7165 0ce5 52       		.byte	0x52
 7166 0ce6 28000000 		.4byte	.LVL243
 7167 0cea 2E000000 		.4byte	.LVL245
 7168 0cee 0100     		.2byte	0x1
 7169 0cf0 57       		.byte	0x57
 7170 0cf1 30000000 		.4byte	.LVL246
 7171 0cf5 8C000000 		.4byte	.LVL258
 7172 0cf9 0100     		.2byte	0x1
 7173 0cfb 57       		.byte	0x57
 7174 0cfc 8C000000 		.4byte	.LVL258
 7175 0d00 90000000 		.4byte	.LVL259
 7176 0d04 0100     		.2byte	0x1
 7177 0d06 52       		.byte	0x52
 7178 0d07 90000000 		.4byte	.LVL259
 7179 0d0b B6000000 		.4byte	.LVL263
ARM GAS  C:\Users\brian\AppData\Local\Temp\cc2Kbm4j.s 			page 142


 7180 0d0f 0400     		.2byte	0x4
 7181 0d11 F3       		.byte	0xf3
 7182 0d12 01       		.uleb128 0x1
 7183 0d13 52       		.byte	0x52
 7184 0d14 9F       		.byte	0x9f
 7185 0d15 B6000000 		.4byte	.LVL263
 7186 0d19 BB000000 		.4byte	.LVL264-1
 7187 0d1d 0100     		.2byte	0x1
 7188 0d1f 52       		.byte	0x52
 7189 0d20 BB000000 		.4byte	.LVL264-1
 7190 0d24 C2000000 		.4byte	.LVL265
 7191 0d28 0400     		.2byte	0x4
 7192 0d2a F3       		.byte	0xf3
 7193 0d2b 01       		.uleb128 0x1
 7194 0d2c 52       		.byte	0x52
 7195 0d2d 9F       		.byte	0x9f
 7196 0d2e C2000000 		.4byte	.LVL265
 7197 0d32 C4000000 		.4byte	.LVL266
 7198 0d36 0100     		.2byte	0x1
 7199 0d38 52       		.byte	0x52
 7200 0d39 C4000000 		.4byte	.LVL266
 7201 0d3d D4000000 		.4byte	.LVL268
 7202 0d41 0400     		.2byte	0x4
 7203 0d43 F3       		.byte	0xf3
 7204 0d44 01       		.uleb128 0x1
 7205 0d45 52       		.byte	0x52
 7206 0d46 9F       		.byte	0x9f
 7207 0d47 D4000000 		.4byte	.LVL268
 7208 0d4b DA000000 		.4byte	.LVL270
 7209 0d4f 0100     		.2byte	0x1
 7210 0d51 52       		.byte	0x52
 7211 0d52 DA000000 		.4byte	.LVL270
 7212 0d56 E4000000 		.4byte	.LFE12
 7213 0d5a 0400     		.2byte	0x4
 7214 0d5c F3       		.byte	0xf3
 7215 0d5d 01       		.uleb128 0x1
 7216 0d5e 52       		.byte	0x52
 7217 0d5f 9F       		.byte	0x9f
 7218 0d60 00000000 		.4byte	0
 7219 0d64 00000000 		.4byte	0
 7220              	.LLST65:
 7221 0d68 00000000 		.4byte	.LVL239
 7222 0d6c 14000000 		.4byte	.LVL241
 7223 0d70 0100     		.2byte	0x1
 7224 0d72 53       		.byte	0x53
 7225 0d73 14000000 		.4byte	.LVL241
 7226 0d77 28000000 		.4byte	.LVL243
 7227 0d7b 0100     		.2byte	0x1
 7228 0d7d 58       		.byte	0x58
 7229 0d7e 28000000 		.4byte	.LVL243
 7230 0d82 8C000000 		.4byte	.LVL258
 7231 0d86 0400     		.2byte	0x4
 7232 0d88 F3       		.byte	0xf3
 7233 0d89 01       		.uleb128 0x1
 7234 0d8a 53       		.byte	0x53
 7235 0d8b 9F       		.byte	0x9f
 7236 0d8c 8C000000 		.4byte	.LVL258
ARM GAS  C:\Users\brian\AppData\Local\Temp\cc2Kbm4j.s 			page 143


 7237 0d90 E0000000 		.4byte	.LVL272
 7238 0d94 0100     		.2byte	0x1
 7239 0d96 58       		.byte	0x58
 7240 0d97 E0000000 		.4byte	.LVL272
 7241 0d9b E4000000 		.4byte	.LFE12
 7242 0d9f 0400     		.2byte	0x4
 7243 0da1 F3       		.byte	0xf3
 7244 0da2 01       		.uleb128 0x1
 7245 0da3 53       		.byte	0x53
 7246 0da4 9F       		.byte	0x9f
 7247 0da5 00000000 		.4byte	0
 7248 0da9 00000000 		.4byte	0
 7249              	.LLST66:
 7250 0dad 30000000 		.4byte	.LVL246
 7251 0db1 34000000 		.4byte	.LVL247
 7252 0db5 0300     		.2byte	0x3
 7253 0db7 08       		.byte	0x8
 7254 0db8 40       		.byte	0x40
 7255 0db9 9F       		.byte	0x9f
 7256 0dba 34000000 		.4byte	.LVL247
 7257 0dbe 44000000 		.4byte	.LVL250
 7258 0dc2 0100     		.2byte	0x1
 7259 0dc4 54       		.byte	0x54
 7260 0dc5 46000000 		.4byte	.LVL251
 7261 0dc9 58000000 		.4byte	.LVL253
 7262 0dcd 0100     		.2byte	0x1
 7263 0dcf 54       		.byte	0x54
 7264 0dd0 00000000 		.4byte	0
 7265 0dd4 00000000 		.4byte	0
 7266              	.LLST67:
 7267 0dd8 2C000000 		.4byte	.LVL244
 7268 0ddc 82000000 		.4byte	.LVL257
 7269 0de0 0100     		.2byte	0x1
 7270 0de2 55       		.byte	0x55
 7271 0de3 00000000 		.4byte	0
 7272 0de7 00000000 		.4byte	0
 7273              	.LLST68:
 7274 0deb 28000000 		.4byte	.LVL243
 7275 0def 8C000000 		.4byte	.LVL258
 7276 0df3 0100     		.2byte	0x1
 7277 0df5 58       		.byte	0x58
 7278 0df6 00000000 		.4byte	0
 7279 0dfa 00000000 		.4byte	0
 7280              	.LLST69:
 7281 0dfe 00000000 		.4byte	.LVL273
 7282 0e02 22000000 		.4byte	.LVL276
 7283 0e06 0100     		.2byte	0x1
 7284 0e08 50       		.byte	0x50
 7285 0e09 22000000 		.4byte	.LVL276
 7286 0e0d 3A000000 		.4byte	.LVL282
 7287 0e11 0100     		.2byte	0x1
 7288 0e13 56       		.byte	0x56
 7289 0e14 3A000000 		.4byte	.LVL282
 7290 0e18 3D000000 		.4byte	.LVL283-1
 7291 0e1c 0100     		.2byte	0x1
 7292 0e1e 50       		.byte	0x50
 7293 0e1f 3D000000 		.4byte	.LVL283-1
ARM GAS  C:\Users\brian\AppData\Local\Temp\cc2Kbm4j.s 			page 144


 7294 0e23 42000000 		.4byte	.LVL284
 7295 0e27 0100     		.2byte	0x1
 7296 0e29 56       		.byte	0x56
 7297 0e2a 42000000 		.4byte	.LVL284
 7298 0e2e 45000000 		.4byte	.LVL285-1
 7299 0e32 0100     		.2byte	0x1
 7300 0e34 50       		.byte	0x50
 7301 0e35 45000000 		.4byte	.LVL285-1
 7302 0e39 54000000 		.4byte	.LVL287
 7303 0e3d 0100     		.2byte	0x1
 7304 0e3f 56       		.byte	0x56
 7305 0e40 54000000 		.4byte	.LVL287
 7306 0e44 57000000 		.4byte	.LVL288-1
 7307 0e48 0100     		.2byte	0x1
 7308 0e4a 50       		.byte	0x50
 7309 0e4b 57000000 		.4byte	.LVL288-1
 7310 0e4f 5C000000 		.4byte	.LVL289
 7311 0e53 0100     		.2byte	0x1
 7312 0e55 56       		.byte	0x56
 7313 0e56 5C000000 		.4byte	.LVL289
 7314 0e5a 5E000000 		.4byte	.LVL290
 7315 0e5e 0100     		.2byte	0x1
 7316 0e60 50       		.byte	0x50
 7317 0e61 5E000000 		.4byte	.LVL290
 7318 0e65 60000000 		.4byte	.LFE24
 7319 0e69 0100     		.2byte	0x1
 7320 0e6b 56       		.byte	0x56
 7321 0e6c 00000000 		.4byte	0
 7322 0e70 00000000 		.4byte	0
 7323              	.LLST70:
 7324 0e74 00000000 		.4byte	.LVL273
 7325 0e78 0A000000 		.4byte	.LVL274
 7326 0e7c 0100     		.2byte	0x1
 7327 0e7e 51       		.byte	0x51
 7328 0e7f 0A000000 		.4byte	.LVL274
 7329 0e83 60000000 		.4byte	.LFE24
 7330 0e87 0400     		.2byte	0x4
 7331 0e89 F3       		.byte	0xf3
 7332 0e8a 01       		.uleb128 0x1
 7333 0e8b 51       		.byte	0x51
 7334 0e8c 9F       		.byte	0x9f
 7335 0e8d 00000000 		.4byte	0
 7336 0e91 00000000 		.4byte	0
 7337              	.LLST71:
 7338 0e95 00000000 		.4byte	.LVL273
 7339 0e99 24000000 		.4byte	.LVL277
 7340 0e9d 0100     		.2byte	0x1
 7341 0e9f 52       		.byte	0x52
 7342 0ea0 24000000 		.4byte	.LVL277
 7343 0ea4 30000000 		.4byte	.LVL280
 7344 0ea8 0100     		.2byte	0x1
 7345 0eaa 54       		.byte	0x54
 7346 0eab 32000000 		.4byte	.LVL281
 7347 0eaf 3A000000 		.4byte	.LVL282
 7348 0eb3 0100     		.2byte	0x1
 7349 0eb5 54       		.byte	0x54
 7350 0eb6 3A000000 		.4byte	.LVL282
ARM GAS  C:\Users\brian\AppData\Local\Temp\cc2Kbm4j.s 			page 145


 7351 0eba 3D000000 		.4byte	.LVL283-1
 7352 0ebe 0100     		.2byte	0x1
 7353 0ec0 52       		.byte	0x52
 7354 0ec1 3D000000 		.4byte	.LVL283-1
 7355 0ec5 42000000 		.4byte	.LVL284
 7356 0ec9 0400     		.2byte	0x4
 7357 0ecb F3       		.byte	0xf3
 7358 0ecc 01       		.uleb128 0x1
 7359 0ecd 52       		.byte	0x52
 7360 0ece 9F       		.byte	0x9f
 7361 0ecf 42000000 		.4byte	.LVL284
 7362 0ed3 45000000 		.4byte	.LVL285-1
 7363 0ed7 0100     		.2byte	0x1
 7364 0ed9 52       		.byte	0x52
 7365 0eda 45000000 		.4byte	.LVL285-1
 7366 0ede 54000000 		.4byte	.LVL287
 7367 0ee2 0400     		.2byte	0x4
 7368 0ee4 F3       		.byte	0xf3
 7369 0ee5 01       		.uleb128 0x1
 7370 0ee6 52       		.byte	0x52
 7371 0ee7 9F       		.byte	0x9f
 7372 0ee8 54000000 		.4byte	.LVL287
 7373 0eec 57000000 		.4byte	.LVL288-1
 7374 0ef0 0100     		.2byte	0x1
 7375 0ef2 52       		.byte	0x52
 7376 0ef3 57000000 		.4byte	.LVL288-1
 7377 0ef7 5C000000 		.4byte	.LVL289
 7378 0efb 0400     		.2byte	0x4
 7379 0efd F3       		.byte	0xf3
 7380 0efe 01       		.uleb128 0x1
 7381 0eff 52       		.byte	0x52
 7382 0f00 9F       		.byte	0x9f
 7383 0f01 5C000000 		.4byte	.LVL289
 7384 0f05 60000000 		.4byte	.LFE24
 7385 0f09 0100     		.2byte	0x1
 7386 0f0b 52       		.byte	0x52
 7387 0f0c 00000000 		.4byte	0
 7388 0f10 00000000 		.4byte	0
 7389              	.LLST72:
 7390 0f14 00000000 		.4byte	.LVL273
 7391 0f18 12000000 		.4byte	.LVL275
 7392 0f1c 0100     		.2byte	0x1
 7393 0f1e 53       		.byte	0x53
 7394 0f1f 12000000 		.4byte	.LVL275
 7395 0f23 24000000 		.4byte	.LVL277
 7396 0f27 0100     		.2byte	0x1
 7397 0f29 55       		.byte	0x55
 7398 0f2a 24000000 		.4byte	.LVL277
 7399 0f2e 3A000000 		.4byte	.LVL282
 7400 0f32 0400     		.2byte	0x4
 7401 0f34 F3       		.byte	0xf3
 7402 0f35 01       		.uleb128 0x1
 7403 0f36 53       		.byte	0x53
 7404 0f37 9F       		.byte	0x9f
 7405 0f38 3A000000 		.4byte	.LVL282
 7406 0f3c 60000000 		.4byte	.LFE24
 7407 0f40 0100     		.2byte	0x1
ARM GAS  C:\Users\brian\AppData\Local\Temp\cc2Kbm4j.s 			page 146


 7408 0f42 55       		.byte	0x55
 7409 0f43 00000000 		.4byte	0
 7410 0f47 00000000 		.4byte	0
 7411              	.LLST73:
 7412 0f4b 24000000 		.4byte	.LVL277
 7413 0f4f 28000000 		.4byte	.LVL278
 7414 0f53 0100     		.2byte	0x1
 7415 0f55 55       		.byte	0x55
 7416 0f56 28000000 		.4byte	.LVL278
 7417 0f5a 2E000000 		.4byte	.LVL279
 7418 0f5e 0300     		.2byte	0x3
 7419 0f60 75       		.byte	0x75
 7420 0f61 7F       		.sleb128 -1
 7421 0f62 9F       		.byte	0x9f
 7422 0f63 2E000000 		.4byte	.LVL279
 7423 0f67 3A000000 		.4byte	.LVL282
 7424 0f6b 0100     		.2byte	0x1
 7425 0f6d 55       		.byte	0x55
 7426 0f6e 00000000 		.4byte	0
 7427 0f72 00000000 		.4byte	0
 7428              		.section	.debug_aranges,"",%progbits
 7429 0000 DC000000 		.4byte	0xdc
 7430 0004 0200     		.2byte	0x2
 7431 0006 00000000 		.4byte	.Ldebug_info0
 7432 000a 04       		.byte	0x4
 7433 000b 00       		.byte	0
 7434 000c 0000     		.2byte	0
 7435 000e 0000     		.2byte	0
 7436 0010 00000000 		.4byte	.LFB13
 7437 0014 0E000000 		.4byte	.LFE13-.LFB13
 7438 0018 00000000 		.4byte	.LFB14
 7439 001c 1E000000 		.4byte	.LFE14-.LFB14
 7440 0020 00000000 		.4byte	.LFB15
 7441 0024 14000000 		.4byte	.LFE15-.LFB15
 7442 0028 00000000 		.4byte	.LFB17
 7443 002c 0C000000 		.4byte	.LFE17-.LFB17
 7444 0030 00000000 		.4byte	.LFB18
 7445 0034 0C000000 		.4byte	.LFE18-.LFB18
 7446 0038 00000000 		.4byte	.LFB20
 7447 003c 28000000 		.4byte	.LFE20-.LFB20
 7448 0040 00000000 		.4byte	.LFB16
 7449 0044 0C000000 		.4byte	.LFE16-.LFB16
 7450 0048 00000000 		.4byte	.LFB19
 7451 004c 3A000000 		.4byte	.LFE19-.LFB19
 7452 0050 00000000 		.4byte	.LFB21
 7453 0054 24000000 		.4byte	.LFE21-.LFB21
 7454 0058 00000000 		.4byte	.LFB22
 7455 005c 28000000 		.4byte	.LFE22-.LFB22
 7456 0060 00000000 		.4byte	.LFB23
 7457 0064 5C000000 		.4byte	.LFE23-.LFB23
 7458 0068 00000000 		.4byte	.LFB0
 7459 006c 0E000000 		.4byte	.LFE0-.LFB0
 7460 0070 00000000 		.4byte	.LFB1
 7461 0074 0E000000 		.4byte	.LFE1-.LFB1
 7462 0078 00000000 		.4byte	.LFB2
 7463 007c 16000000 		.4byte	.LFE2-.LFB2
 7464 0080 00000000 		.4byte	.LFB3
ARM GAS  C:\Users\brian\AppData\Local\Temp\cc2Kbm4j.s 			page 147


 7465 0084 0E000000 		.4byte	.LFE3-.LFB3
 7466 0088 00000000 		.4byte	.LFB4
 7467 008c 0E000000 		.4byte	.LFE4-.LFB4
 7468 0090 00000000 		.4byte	.LFB5
 7469 0094 04000000 		.4byte	.LFE5-.LFB5
 7470 0098 00000000 		.4byte	.LFB6
 7471 009c 08010000 		.4byte	.LFE6-.LFB6
 7472 00a0 00000000 		.4byte	.LFB7
 7473 00a4 E2000000 		.4byte	.LFE7-.LFB7
 7474 00a8 00000000 		.4byte	.LFB8
 7475 00ac E2000000 		.4byte	.LFE8-.LFB8
 7476 00b0 00000000 		.4byte	.LFB9
 7477 00b4 1C010000 		.4byte	.LFE9-.LFB9
 7478 00b8 00000000 		.4byte	.LFB10
 7479 00bc 2C000000 		.4byte	.LFE10-.LFB10
 7480 00c0 00000000 		.4byte	.LFB11
 7481 00c4 DA000000 		.4byte	.LFE11-.LFB11
 7482 00c8 00000000 		.4byte	.LFB12
 7483 00cc E4000000 		.4byte	.LFE12-.LFB12
 7484 00d0 00000000 		.4byte	.LFB24
 7485 00d4 60000000 		.4byte	.LFE24-.LFB24
 7486 00d8 00000000 		.4byte	0
 7487 00dc 00000000 		.4byte	0
 7488              		.section	.debug_ranges,"",%progbits
 7489              	.Ldebug_ranges0:
 7490 0000 00000000 		.4byte	.LFB13
 7491 0004 0E000000 		.4byte	.LFE13
 7492 0008 00000000 		.4byte	.LFB14
 7493 000c 1E000000 		.4byte	.LFE14
 7494 0010 00000000 		.4byte	.LFB15
 7495 0014 14000000 		.4byte	.LFE15
 7496 0018 00000000 		.4byte	.LFB17
 7497 001c 0C000000 		.4byte	.LFE17
 7498 0020 00000000 		.4byte	.LFB18
 7499 0024 0C000000 		.4byte	.LFE18
 7500 0028 00000000 		.4byte	.LFB20
 7501 002c 28000000 		.4byte	.LFE20
 7502 0030 00000000 		.4byte	.LFB16
 7503 0034 0C000000 		.4byte	.LFE16
 7504 0038 00000000 		.4byte	.LFB19
 7505 003c 3A000000 		.4byte	.LFE19
 7506 0040 00000000 		.4byte	.LFB21
 7507 0044 24000000 		.4byte	.LFE21
 7508 0048 00000000 		.4byte	.LFB22
 7509 004c 28000000 		.4byte	.LFE22
 7510 0050 00000000 		.4byte	.LFB23
 7511 0054 5C000000 		.4byte	.LFE23
 7512 0058 00000000 		.4byte	.LFB0
 7513 005c 0E000000 		.4byte	.LFE0
 7514 0060 00000000 		.4byte	.LFB1
 7515 0064 0E000000 		.4byte	.LFE1
 7516 0068 00000000 		.4byte	.LFB2
 7517 006c 16000000 		.4byte	.LFE2
 7518 0070 00000000 		.4byte	.LFB3
 7519 0074 0E000000 		.4byte	.LFE3
 7520 0078 00000000 		.4byte	.LFB4
 7521 007c 0E000000 		.4byte	.LFE4
ARM GAS  C:\Users\brian\AppData\Local\Temp\cc2Kbm4j.s 			page 148


 7522 0080 00000000 		.4byte	.LFB5
 7523 0084 04000000 		.4byte	.LFE5
 7524 0088 00000000 		.4byte	.LFB6
 7525 008c 08010000 		.4byte	.LFE6
 7526 0090 00000000 		.4byte	.LFB7
 7527 0094 E2000000 		.4byte	.LFE7
 7528 0098 00000000 		.4byte	.LFB8
 7529 009c E2000000 		.4byte	.LFE8
 7530 00a0 00000000 		.4byte	.LFB9
 7531 00a4 1C010000 		.4byte	.LFE9
 7532 00a8 00000000 		.4byte	.LFB10
 7533 00ac 2C000000 		.4byte	.LFE10
 7534 00b0 00000000 		.4byte	.LFB11
 7535 00b4 DA000000 		.4byte	.LFE11
 7536 00b8 00000000 		.4byte	.LFB12
 7537 00bc E4000000 		.4byte	.LFE12
 7538 00c0 00000000 		.4byte	.LFB24
 7539 00c4 60000000 		.4byte	.LFE24
 7540 00c8 00000000 		.4byte	0
 7541 00cc 00000000 		.4byte	0
 7542              		.section	.debug_line,"",%progbits
 7543              	.Ldebug_line0:
 7544 0000 DD040000 		.section	.debug_str,"MS",%progbits,1
 7544      02003601 
 7544      00000201 
 7544      FB0E0D00 
 7544      01010101 
 7545              	.LASF61:
 7546 0000 6932635F 		.ascii	"i2c_init\000"
 7546      696E6974 
 7546      00
 7547              	.LASF26:
 7548 0009 785F6F66 		.ascii	"x_offset\000"
 7548      66736574 
 7548      00
 7549              	.LASF27:
 7550 0012 69735F66 		.ascii	"is_font_inverse_mode\000"
 7550      6F6E745F 
 7550      696E7665 
 7550      7273655F 
 7550      6D6F6465 
 7551              	.LASF73:
 7552 0027 75387838 		.ascii	"u8x8_byte_SendBytes\000"
 7552      5F627974 
 7552      655F5365 
 7552      6E644279 
 7552      74657300 
 7553              	.LASF48:
 7554 003b 7370695F 		.ascii	"spi_mode\000"
 7554      6D6F6465 
 7554      00
 7555              	.LASF81:
 7556 0044 6172675F 		.ascii	"arg_ptr\000"
 7556      70747200 
 7557              	.LASF39:
 7558 004c 63686970 		.ascii	"chip_enable_level\000"
 7558      5F656E61 
ARM GAS  C:\Users\brian\AppData\Local\Temp\cc2Kbm4j.s 			page 149


 7558      626C655F 
 7558      6C657665 
 7558      6C00
 7559              	.LASF72:
 7560 005e 75387838 		.ascii	"u8x8_byte_SetDC\000"
 7560      5F627974 
 7560      655F5365 
 7560      74444300 
 7561              	.LASF24:
 7562 006e 666F6E74 		.ascii	"font\000"
 7562      00
 7563              	.LASF35:
 7564 0073 6465626F 		.ascii	"debounce_result_msg\000"
 7564      756E6365 
 7564      5F726573 
 7564      756C745F 
 7564      6D736700 
 7565              	.LASF2:
 7566 0087 73686F72 		.ascii	"short int\000"
 7566      7420696E 
 7566      7400
 7567              	.LASF22:
 7568 0091 6770696F 		.ascii	"gpio_and_delay_cb\000"
 7568      5F616E64 
 7568      5F64656C 
 7568      61795F63 
 7568      6200
 7569              	.LASF52:
 7570 00a3 74696C65 		.ascii	"tile_width\000"
 7570      5F776964 
 7570      746800
 7571              	.LASF45:
 7572 00ae 7364615F 		.ascii	"sda_setup_time_ns\000"
 7572      73657475 
 7572      705F7469 
 7572      6D655F6E 
 7572      7300
 7573              	.LASF44:
 7574 00c0 706F7374 		.ascii	"post_reset_wait_ms\000"
 7574      5F726573 
 7574      65745F77 
 7574      6169745F 
 7574      6D7300
 7575              	.LASF65:
 7576 00d3 6932635F 		.ascii	"i2c_clear_sda\000"
 7576      636C6561 
 7576      725F7364 
 7576      6100
 7577              	.LASF7:
 7578 00e1 5F5F7569 		.ascii	"__uint32_t\000"
 7578      6E743332 
 7578      5F7400
 7579              	.LASF71:
 7580 00ec 6932635F 		.ascii	"i2c_write_byte\000"
 7580      77726974 
 7580      655F6279 
 7580      746500
ARM GAS  C:\Users\brian\AppData\Local\Temp\cc2Kbm4j.s 			page 150


 7581              	.LASF4:
 7582 00fb 5F5F7569 		.ascii	"__uint16_t\000"
 7582      6E743136 
 7582      5F7400
 7583              	.LASF95:
 7584 0106 433A5C55 		.ascii	"C:\\Users\\brian\\Documents\\PSoC Creator\\Lab7\\La"
 7584      73657273 
 7584      5C627269 
 7584      616E5C44 
 7584      6F63756D 
 7585 0133 62372E63 		.ascii	"b7.cydsn\000"
 7585      7964736E 
 7585      00
 7586              	.LASF51:
 7587 013c 77726974 		.ascii	"write_pulse_width_ns\000"
 7587      655F7075 
 7587      6C73655F 
 7587      77696474 
 7587      685F6E73 
 7588              	.LASF12:
 7589 0151 75696E74 		.ascii	"uint8_t\000"
 7589      385F7400 
 7590              	.LASF41:
 7591 0159 706F7374 		.ascii	"post_chip_enable_wait_ns\000"
 7591      5F636869 
 7591      705F656E 
 7591      61626C65 
 7591      5F776169 
 7592              	.LASF64:
 7593 0172 6932635F 		.ascii	"i2c_read_sda\000"
 7593      72656164 
 7593      5F736461 
 7593      00
 7594              	.LASF62:
 7595 017f 75387838 		.ascii	"u8x8\000"
 7595      00
 7596              	.LASF97:
 7597 0184 75387838 		.ascii	"u8x8_gpio_call\000"
 7597      5F677069 
 7597      6F5F6361 
 7597      6C6C00
 7598              	.LASF80:
 7599 0193 6172675F 		.ascii	"arg_int\000"
 7599      696E7400 
 7600              	.LASF23:
 7601 019b 6275735F 		.ascii	"bus_clock\000"
 7601      636C6F63 
 7601      6B00
 7602              	.LASF54:
 7603 01a5 64656661 		.ascii	"default_x_offset\000"
 7603      756C745F 
 7603      785F6F66 
 7603      66736574 
 7603      00
 7604              	.LASF36:
 7605 01b6 75387838 		.ascii	"u8x8_display_info_t\000"
 7605      5F646973 
ARM GAS  C:\Users\brian\AppData\Local\Temp\cc2Kbm4j.s 			page 151


 7605      706C6179 
 7605      5F696E66 
 7605      6F5F7400 
 7606              	.LASF33:
 7607 01ca 6465626F 		.ascii	"debounce_last_pin_state\000"
 7607      756E6365 
 7607      5F6C6173 
 7607      745F7069 
 7607      6E5F7374 
 7608              	.LASF9:
 7609 01e2 6C6F6E67 		.ascii	"long long int\000"
 7609      206C6F6E 
 7609      6720696E 
 7609      7400
 7610              	.LASF31:
 7611 01f0 6770696F 		.ascii	"gpio_result\000"
 7611      5F726573 
 7611      756C7400 
 7612              	.LASF68:
 7613 01fc 6932635F 		.ascii	"i2c_start\000"
 7613      73746172 
 7613      7400
 7614              	.LASF46:
 7615 0206 73636B5F 		.ascii	"sck_pulse_width_ns\000"
 7615      70756C73 
 7615      655F7769 
 7615      6474685F 
 7615      6E7300
 7616              	.LASF6:
 7617 0219 6C6F6E67 		.ascii	"long int\000"
 7617      20696E74 
 7617      00
 7618              	.LASF70:
 7619 0222 6932635F 		.ascii	"i2c_read_bit\000"
 7619      72656164 
 7619      5F626974 
 7619      00
 7620              	.LASF87:
 7621 022f 75387838 		.ascii	"u8x8_byte_3wire_sw_spi\000"
 7621      5F627974 
 7621      655F3377 
 7621      6972655F 
 7621      73775F73 
 7622              	.LASF3:
 7623 0246 5F5F7569 		.ascii	"__uint8_t\000"
 7623      6E74385F 
 7623      7400
 7624              	.LASF19:
 7625 0250 64697370 		.ascii	"display_cb\000"
 7625      6C61795F 
 7625      636200
 7626              	.LASF66:
 7627 025b 6932635F 		.ascii	"i2c_stop\000"
 7627      73746F70 
 7627      00
 7628              	.LASF82:
 7629 0264 75387838 		.ascii	"u8x8_byte_4wire_sw_spi\000"
ARM GAS  C:\Users\brian\AppData\Local\Temp\cc2Kbm4j.s 			page 152


 7629      5F627974 
 7629      655F3477 
 7629      6972655F 
 7629      73775F73 
 7630              	.LASF88:
 7631 027b 6C617374 		.ascii	"last_dc\000"
 7631      5F646300 
 7632              	.LASF76:
 7633 0283 62797465 		.ascii	"byte\000"
 7633      00
 7634              	.LASF50:
 7635 0288 64617461 		.ascii	"data_setup_time_ns\000"
 7635      5F736574 
 7635      75705F74 
 7635      696D655F 
 7635      6E7300
 7636              	.LASF15:
 7637 029b 6C6F6E67 		.ascii	"long double\000"
 7637      20646F75 
 7637      626C6500 
 7638              	.LASF53:
 7639 02a7 74696C65 		.ascii	"tile_height\000"
 7639      5F686569 
 7639      67687400 
 7640              	.LASF1:
 7641 02b3 756E7369 		.ascii	"unsigned char\000"
 7641      676E6564 
 7641      20636861 
 7641      7200
 7642              	.LASF83:
 7643 02c1 74616B65 		.ascii	"takeover_edge\000"
 7643      6F766572 
 7643      5F656467 
 7643      6500
 7644              	.LASF90:
 7645 02cf 75387838 		.ascii	"u8x8_byte_sed1520\000"
 7645      5F627974 
 7645      655F7365 
 7645      64313532 
 7645      3000
 7646              	.LASF74:
 7647 02e1 64617461 		.ascii	"data\000"
 7647      00
 7648              	.LASF0:
 7649 02e6 7369676E 		.ascii	"signed char\000"
 7649      65642063 
 7649      68617200 
 7650              	.LASF10:
 7651 02f2 6C6F6E67 		.ascii	"long long unsigned int\000"
 7651      206C6F6E 
 7651      6720756E 
 7651      7369676E 
 7651      65642069 
 7652              	.LASF14:
 7653 0309 75696E74 		.ascii	"uint32_t\000"
 7653      33325F74 
 7653      00
ARM GAS  C:\Users\brian\AppData\Local\Temp\cc2Kbm4j.s 			page 153


 7654              	.LASF11:
 7655 0312 756E7369 		.ascii	"unsigned int\000"
 7655      676E6564 
 7655      20696E74 
 7655      00
 7656              	.LASF13:
 7657 031f 75696E74 		.ascii	"uint16_t\000"
 7657      31365F74 
 7657      00
 7658              	.LASF38:
 7659 0328 75387838 		.ascii	"u8x8_display_info_struct\000"
 7659      5F646973 
 7659      706C6179 
 7659      5F696E66 
 7659      6F5F7374 
 7660              	.LASF85:
 7661 0341 75387838 		.ascii	"u8x8_byte_8bit_6800mode\000"
 7661      5F627974 
 7661      655F3862 
 7661      69745F36 
 7661      3830306D 
 7662              	.LASF43:
 7663 0359 72657365 		.ascii	"reset_pulse_width_ms\000"
 7663      745F7075 
 7663      6C73655F 
 7663      77696474 
 7663      685F6D73 
 7664              	.LASF16:
 7665 036e 75387838 		.ascii	"u8x8_t\000"
 7665      5F7400
 7666              	.LASF49:
 7667 0375 6932635F 		.ascii	"i2c_bus_clock_100kHz\000"
 7667      6275735F 
 7667      636C6F63 
 7667      6B5F3130 
 7667      306B487A 
 7668              	.LASF47:
 7669 038a 73636B5F 		.ascii	"sck_clock_hz\000"
 7669      636C6F63 
 7669      6B5F687A 
 7669      00
 7670              	.LASF5:
 7671 0397 73686F72 		.ascii	"short unsigned int\000"
 7671      7420756E 
 7671      7369676E 
 7671      65642069 
 7671      6E7400
 7672              	.LASF59:
 7673 03aa 75387838 		.ascii	"u8x8_char_cb\000"
 7673      5F636861 
 7673      725F6362 
 7673      00
 7674              	.LASF94:
 7675 03b7 2E2E5C75 		.ascii	"..\\u8g2\\csrc\\u8x8_byte.c\000"
 7675      3867325C 
 7675      63737263 
 7675      5C753878 
ARM GAS  C:\Users\brian\AppData\Local\Temp\cc2Kbm4j.s 			page 154


 7675      385F6279 
 7676              	.LASF34:
 7677 03d0 6465626F 		.ascii	"debounce_state\000"
 7677      756E6365 
 7677      5F737461 
 7677      746500
 7678              	.LASF17:
 7679 03df 64697370 		.ascii	"display_info\000"
 7679      6C61795F 
 7679      696E666F 
 7679      00
 7680              	.LASF63:
 7681 03ec 6932635F 		.ascii	"i2c_read_scl_and_delay\000"
 7681      72656164 
 7681      5F73636C 
 7681      5F616E64 
 7681      5F64656C 
 7682              	.LASF57:
 7683 0403 70697865 		.ascii	"pixel_height\000"
 7683      6C5F6865 
 7683      69676874 
 7683      00
 7684              	.LASF77:
 7685 0410 75387838 		.ascii	"u8x8_byte_StartTransfer\000"
 7685      5F627974 
 7685      655F5374 
 7685      61727454 
 7685      72616E73 
 7686              	.LASF89:
 7687 0428 75387838 		.ascii	"u8x8_byte_ks0108\000"
 7687      5F627974 
 7687      655F6B73 
 7687      30313038 
 7687      00
 7688              	.LASF56:
 7689 0439 70697865 		.ascii	"pixel_width\000"
 7689      6C5F7769 
 7689      64746800 
 7690              	.LASF30:
 7691 0445 75746638 		.ascii	"utf8_state\000"
 7691      5F737461 
 7691      746500
 7692              	.LASF37:
 7693 0450 75387838 		.ascii	"u8x8_struct\000"
 7693      5F737472 
 7693      75637400 
 7694              	.LASF60:
 7695 045c 6932635F 		.ascii	"i2c_delay\000"
 7695      64656C61 
 7695      7900
 7696              	.LASF8:
 7697 0466 6C6F6E67 		.ascii	"long unsigned int\000"
 7697      20756E73 
 7697      69676E65 
 7697      6420696E 
 7697      7400
 7698              	.LASF79:
ARM GAS  C:\Users\brian\AppData\Local\Temp\cc2Kbm4j.s 			page 155


 7699 0478 75387838 		.ascii	"u8x8_byte_empty\000"
 7699      5F627974 
 7699      655F656D 
 7699      70747900 
 7700              	.LASF21:
 7701 0488 62797465 		.ascii	"byte_cb\000"
 7701      5F636200 
 7702              	.LASF40:
 7703 0490 63686970 		.ascii	"chip_disable_level\000"
 7703      5F646973 
 7703      61626C65 
 7703      5F6C6576 
 7703      656C00
 7704              	.LASF69:
 7705 04a3 6932635F 		.ascii	"i2c_write_bit\000"
 7705      77726974 
 7705      655F6269 
 7705      7400
 7706              	.LASF84:
 7707 04b1 6E6F745F 		.ascii	"not_takeover_edge\000"
 7707      74616B65 
 7707      6F766572 
 7707      5F656467 
 7707      6500
 7708              	.LASF92:
 7709 04c3 75387838 		.ascii	"u8x8_byte_sw_i2c\000"
 7709      5F627974 
 7709      655F7377 
 7709      5F693263 
 7709      00
 7710              	.LASF75:
 7711 04d4 75387838 		.ascii	"u8x8_byte_SendByte\000"
 7711      5F627974 
 7711      655F5365 
 7711      6E644279 
 7711      746500
 7712              	.LASF28:
 7713 04e7 6932635F 		.ascii	"i2c_address\000"
 7713      61646472 
 7713      65737300 
 7714              	.LASF55:
 7715 04f3 666C6970 		.ascii	"flipmode_x_offset\000"
 7715      6D6F6465 
 7715      5F785F6F 
 7715      66667365 
 7715      7400
 7716              	.LASF67:
 7717 0505 6932635F 		.ascii	"i2c_clear_scl\000"
 7717      636C6561 
 7717      725F7363 
 7717      6C00
 7718              	.LASF25:
 7719 0513 656E636F 		.ascii	"encoding\000"
 7719      64696E67 
 7719      00
 7720              	.LASF91:
 7721 051c 656E6162 		.ascii	"enable_pin\000"
ARM GAS  C:\Users\brian\AppData\Local\Temp\cc2Kbm4j.s 			page 156


 7721      6C655F70 
 7721      696E00
 7722              	.LASF86:
 7723 0527 75387838 		.ascii	"u8x8_byte_8bit_8080mode\000"
 7723      5F627974 
 7723      655F3862 
 7723      69745F38 
 7723      3038306D 
 7724              	.LASF96:
 7725 053f 75387838 		.ascii	"u8x8_byte_set_ks0108_cs\000"
 7725      5F627974 
 7725      655F7365 
 7725      745F6B73 
 7725      30313038 
 7726              	.LASF29:
 7727 0557 6932635F 		.ascii	"i2c_started\000"
 7727      73746172 
 7727      74656400 
 7728              	.LASF78:
 7729 0563 75387838 		.ascii	"u8x8_byte_EndTransfer\000"
 7729      5F627974 
 7729      655F456E 
 7729      64547261 
 7729      6E736665 
 7730              	.LASF20:
 7731 0579 6361645F 		.ascii	"cad_cb\000"
 7731      636200
 7732              	.LASF93:
 7733 0580 474E5520 		.ascii	"GNU C11 5.4.1 20160609 (release) [ARM/embedded-5-br"
 7733      43313120 
 7733      352E342E 
 7733      31203230 
 7733      31363036 
 7734 05b3 616E6368 		.ascii	"anch revision 237715] -mcpu=cortex-m3 -mthumb -g -O"
 7734      20726576 
 7734      6973696F 
 7734      6E203233 
 7734      37373135 
 7735 05e6 67202D66 		.ascii	"g -ffunction-sections -ffat-lto-objects\000"
 7735      66756E63 
 7735      74696F6E 
 7735      2D736563 
 7735      74696F6E 
 7736              	.LASF32:
 7737 060e 6465626F 		.ascii	"debounce_default_pin_state\000"
 7737      756E6365 
 7737      5F646566 
 7737      61756C74 
 7737      5F70696E 
 7738              	.LASF58:
 7739 0629 75387838 		.ascii	"u8x8_msg_cb\000"
 7739      5F6D7367 
 7739      5F636200 
 7740              	.LASF18:
 7741 0635 6E657874 		.ascii	"next_cb\000"
 7741      5F636200 
 7742              	.LASF42:
ARM GAS  C:\Users\brian\AppData\Local\Temp\cc2Kbm4j.s 			page 157


 7743 063d 7072655F 		.ascii	"pre_chip_disable_wait_ns\000"
 7743      63686970 
 7743      5F646973 
 7743      61626C65 
 7743      5F776169 
 7744              		.ident	"GCC: (GNU Tools for ARM Embedded Processors) 5.4.1 20160609 (release) [ARM/embedded-5-bran
