ARM GAS  C:\Users\brian\AppData\Local\Temp\ccxbXCyk.s 			page 1


   1              		.syntax unified
   2              		.cpu cortex-m3
   3              		.fpu softvfp
   4              		.eabi_attribute 20, 1
   5              		.eabi_attribute 21, 1
   6              		.eabi_attribute 23, 3
   7              		.eabi_attribute 24, 1
   8              		.eabi_attribute 25, 1
   9              		.eabi_attribute 26, 1
  10              		.eabi_attribute 30, 1
  11              		.eabi_attribute 34, 1
  12              		.eabi_attribute 18, 4
  13              		.thumb
  14              		.syntax unified
  15              		.file	"u8x8_d_sh1106_64x32.c"
  16              		.text
  17              	.Ltext0:
  18              		.cfi_sections	.debug_frame
  19              		.section	.text.u8x8_d_sh1106_64x32_generic,"ax",%progbits
  20              		.align	2
  21              		.thumb
  22              		.thumb_func
  23              		.type	u8x8_d_sh1106_64x32_generic, %function
  24              	u8x8_d_sh1106_64x32_generic:
  25              	.LFB0:
  26              		.file 1 "..\\u8g2\\csrc\\u8x8_d_sh1106_64x32.c"
   1:..\u8g2\csrc/u8x8_d_sh1106_64x32.c **** /*
   2:..\u8g2\csrc/u8x8_d_sh1106_64x32.c **** 
   3:..\u8g2\csrc/u8x8_d_sh1106_64x32.c ****   u8x8_d_sh1106_64x32.c
   4:..\u8g2\csrc/u8x8_d_sh1106_64x32.c **** 
   5:..\u8g2\csrc/u8x8_d_sh1106_64x32.c ****   Universal 8bit Graphics Library (https://github.com/olikraus/u8g2/)
   6:..\u8g2\csrc/u8x8_d_sh1106_64x32.c **** 
   7:..\u8g2\csrc/u8x8_d_sh1106_64x32.c ****   Copyright (c) 2018, olikraus@gmail.com
   8:..\u8g2\csrc/u8x8_d_sh1106_64x32.c ****   All rights reserved.
   9:..\u8g2\csrc/u8x8_d_sh1106_64x32.c **** 
  10:..\u8g2\csrc/u8x8_d_sh1106_64x32.c ****   Redistribution and use in source and binary forms, with or without modification, 
  11:..\u8g2\csrc/u8x8_d_sh1106_64x32.c ****   are permitted provided that the following conditions are met:
  12:..\u8g2\csrc/u8x8_d_sh1106_64x32.c **** 
  13:..\u8g2\csrc/u8x8_d_sh1106_64x32.c ****   * Redistributions of source code must retain the above copyright notice, this list 
  14:..\u8g2\csrc/u8x8_d_sh1106_64x32.c ****     of conditions and the following disclaimer.
  15:..\u8g2\csrc/u8x8_d_sh1106_64x32.c ****     
  16:..\u8g2\csrc/u8x8_d_sh1106_64x32.c ****   * Redistributions in binary form must reproduce the above copyright notice, this 
  17:..\u8g2\csrc/u8x8_d_sh1106_64x32.c ****     list of conditions and the following disclaimer in the documentation and/or other 
  18:..\u8g2\csrc/u8x8_d_sh1106_64x32.c ****     materials provided with the distribution.
  19:..\u8g2\csrc/u8x8_d_sh1106_64x32.c **** 
  20:..\u8g2\csrc/u8x8_d_sh1106_64x32.c ****   THIS SOFTWARE IS PROVIDED BY THE COPYRIGHT HOLDERS AND 
  21:..\u8g2\csrc/u8x8_d_sh1106_64x32.c ****   CONTRIBUTORS "AS IS" AND ANY EXPRESS OR IMPLIED WARRANTIES, 
  22:..\u8g2\csrc/u8x8_d_sh1106_64x32.c ****   INCLUDING, BUT NOT LIMITED TO, THE IMPLIED WARRANTIES OF 
  23:..\u8g2\csrc/u8x8_d_sh1106_64x32.c ****   MERCHANTABILITY AND FITNESS FOR A PARTICULAR PURPOSE ARE 
  24:..\u8g2\csrc/u8x8_d_sh1106_64x32.c ****   DISCLAIMED. IN NO EVENT SHALL THE COPYRIGHT HOLDER OR 
  25:..\u8g2\csrc/u8x8_d_sh1106_64x32.c ****   CONTRIBUTORS BE LIABLE FOR ANY DIRECT, INDIRECT, INCIDENTAL, 
  26:..\u8g2\csrc/u8x8_d_sh1106_64x32.c ****   SPECIAL, EXEMPLARY, OR CONSEQUENTIAL DAMAGES (INCLUDING, BUT 
  27:..\u8g2\csrc/u8x8_d_sh1106_64x32.c ****   NOT LIMITED TO, PROCUREMENT OF SUBSTITUTE GOODS OR SERVICES; 
  28:..\u8g2\csrc/u8x8_d_sh1106_64x32.c ****   LOSS OF USE, DATA, OR PROFITS; OR BUSINESS INTERRUPTION) HOWEVER 
  29:..\u8g2\csrc/u8x8_d_sh1106_64x32.c ****   CAUSED AND ON ANY THEORY OF LIABILITY, WHETHER IN CONTRACT, 
  30:..\u8g2\csrc/u8x8_d_sh1106_64x32.c ****   STRICT LIABILITY, OR TORT (INCLUDING NEGLIGENCE OR OTHERWISE) 
  31:..\u8g2\csrc/u8x8_d_sh1106_64x32.c ****   ARISING IN ANY WAY OUT OF THE USE OF THIS SOFTWARE, EVEN IF 
ARM GAS  C:\Users\brian\AppData\Local\Temp\ccxbXCyk.s 			page 2


  32:..\u8g2\csrc/u8x8_d_sh1106_64x32.c ****   ADVISED OF THE POSSIBILITY OF SUCH DAMAGE.  
  33:..\u8g2\csrc/u8x8_d_sh1106_64x32.c ****   
  34:..\u8g2\csrc/u8x8_d_sh1106_64x32.c **** */
  35:..\u8g2\csrc/u8x8_d_sh1106_64x32.c **** 
  36:..\u8g2\csrc/u8x8_d_sh1106_64x32.c **** 
  37:..\u8g2\csrc/u8x8_d_sh1106_64x32.c **** #include "u8x8.h"
  38:..\u8g2\csrc/u8x8_d_sh1106_64x32.c **** 
  39:..\u8g2\csrc/u8x8_d_sh1106_64x32.c **** 
  40:..\u8g2\csrc/u8x8_d_sh1106_64x32.c **** 
  41:..\u8g2\csrc/u8x8_d_sh1106_64x32.c **** /* issue 568 */
  42:..\u8g2\csrc/u8x8_d_sh1106_64x32.c **** static const uint8_t u8x8_d_sh1106_64x32_init_seq[] = {
  43:..\u8g2\csrc/u8x8_d_sh1106_64x32.c ****     
  44:..\u8g2\csrc/u8x8_d_sh1106_64x32.c ****   U8X8_START_TRANSFER(),             	/* enable chip, delay is part of the transfer start */
  45:..\u8g2\csrc/u8x8_d_sh1106_64x32.c ****   
  46:..\u8g2\csrc/u8x8_d_sh1106_64x32.c ****   
  47:..\u8g2\csrc/u8x8_d_sh1106_64x32.c ****   U8X8_C(0x0ae),		                /* display off */
  48:..\u8g2\csrc/u8x8_d_sh1106_64x32.c ****   U8X8_CA(0x0d5, 0x080),		/* clock divide ratio (0x00=1) and oscillator frequency (0x8) */
  49:..\u8g2\csrc/u8x8_d_sh1106_64x32.c ****   U8X8_CA(0x0a8, 0x01f),		/* multiplex ratio, 0.42 OLED */
  50:..\u8g2\csrc/u8x8_d_sh1106_64x32.c ****   U8X8_CA(0x0d3, 0x000),		/* display offset, 0.42 OLED  */
  51:..\u8g2\csrc/u8x8_d_sh1106_64x32.c ****   U8X8_C(0x040),		                /* set display start line to 0, 0.42 OLED */
  52:..\u8g2\csrc/u8x8_d_sh1106_64x32.c ****   U8X8_CA(0xad, 0x8b),      	 	/* DC-DC ON/OFF Mode Set: Built-in DC-DC is used, Normal Display (PO
  53:..\u8g2\csrc/u8x8_d_sh1106_64x32.c ****   U8X8_C(0x33),				/* set charge pump voltage 0x30 (POR) .. 0x33 */
  54:..\u8g2\csrc/u8x8_d_sh1106_64x32.c ****   U8X8_CA(0x020, 0x000),		/* horizontal addressing mode */
  55:..\u8g2\csrc/u8x8_d_sh1106_64x32.c ****   
  56:..\u8g2\csrc/u8x8_d_sh1106_64x32.c ****   U8X8_C(0x0a1),				/* segment remap a0/a1, 0.66 OLED  */
  57:..\u8g2\csrc/u8x8_d_sh1106_64x32.c ****   U8X8_C(0x0c8),				/* c0: scan dir normal, c8: reverse, 0.66 OLED  */
  58:..\u8g2\csrc/u8x8_d_sh1106_64x32.c ****   // Flipmode
  59:..\u8g2\csrc/u8x8_d_sh1106_64x32.c ****   // U8X8_C(0x0a0),				/* segment remap a0/a1*/
  60:..\u8g2\csrc/u8x8_d_sh1106_64x32.c ****   // U8X8_C(0x0c0),				/* c0: scan dir normal, c8: reverse */
  61:..\u8g2\csrc/u8x8_d_sh1106_64x32.c ****   
  62:..\u8g2\csrc/u8x8_d_sh1106_64x32.c ****   U8X8_CA(0x0da, 0x012),		/* com pin HW config, sequential com pin config (bit 4), disable left/rig
  63:..\u8g2\csrc/u8x8_d_sh1106_64x32.c ****   U8X8_CA(0x081, 0x080),		/* [2] set contrast control, 0.42 OLED datasheet: 0xcf */
  64:..\u8g2\csrc/u8x8_d_sh1106_64x32.c ****   U8X8_CA(0x0d9, 0x022),		/* [2] pre-charge period 0x022/f1, 0.42 OLED datasheet: 0x22 */
  65:..\u8g2\csrc/u8x8_d_sh1106_64x32.c ****   U8X8_CA(0x0db, 0x028),		/* vcomh deselect level, 0.42 OLED datasheet: 0x00 */
  66:..\u8g2\csrc/u8x8_d_sh1106_64x32.c ****   
  67:..\u8g2\csrc/u8x8_d_sh1106_64x32.c ****   U8X8_C(0x02e),				/* Deactivate scroll */ 
  68:..\u8g2\csrc/u8x8_d_sh1106_64x32.c ****   U8X8_C(0x0a4),				/* output ram to display */
  69:..\u8g2\csrc/u8x8_d_sh1106_64x32.c ****   U8X8_C(0x0a6),				/* none inverted normal display mode */
  70:..\u8g2\csrc/u8x8_d_sh1106_64x32.c ****     
  71:..\u8g2\csrc/u8x8_d_sh1106_64x32.c ****   U8X8_END_TRANSFER(),             	/* disable chip */
  72:..\u8g2\csrc/u8x8_d_sh1106_64x32.c ****   U8X8_END()             			/* end of sequence */
  73:..\u8g2\csrc/u8x8_d_sh1106_64x32.c **** };
  74:..\u8g2\csrc/u8x8_d_sh1106_64x32.c **** 
  75:..\u8g2\csrc/u8x8_d_sh1106_64x32.c **** static const uint8_t u8x8_d_sh1106_64x32_powersave0_seq[] = {
  76:..\u8g2\csrc/u8x8_d_sh1106_64x32.c ****   U8X8_START_TRANSFER(),             	/* enable chip, delay is part of the transfer start */
  77:..\u8g2\csrc/u8x8_d_sh1106_64x32.c ****   U8X8_C(0x0af),		                /* display on */
  78:..\u8g2\csrc/u8x8_d_sh1106_64x32.c ****   U8X8_END_TRANSFER(),             	/* disable chip */
  79:..\u8g2\csrc/u8x8_d_sh1106_64x32.c ****   U8X8_END()             			/* end of sequence */
  80:..\u8g2\csrc/u8x8_d_sh1106_64x32.c **** };
  81:..\u8g2\csrc/u8x8_d_sh1106_64x32.c **** 
  82:..\u8g2\csrc/u8x8_d_sh1106_64x32.c **** static const uint8_t u8x8_d_sh1106_64x32_powersave1_seq[] = {
  83:..\u8g2\csrc/u8x8_d_sh1106_64x32.c ****   U8X8_START_TRANSFER(),             	/* enable chip, delay is part of the transfer start */
  84:..\u8g2\csrc/u8x8_d_sh1106_64x32.c ****   U8X8_C(0x0ae),		                /* display off */
  85:..\u8g2\csrc/u8x8_d_sh1106_64x32.c ****   U8X8_END_TRANSFER(),             	/* disable chip */
  86:..\u8g2\csrc/u8x8_d_sh1106_64x32.c ****   U8X8_END()             			/* end of sequence */
  87:..\u8g2\csrc/u8x8_d_sh1106_64x32.c **** };
  88:..\u8g2\csrc/u8x8_d_sh1106_64x32.c **** 
ARM GAS  C:\Users\brian\AppData\Local\Temp\ccxbXCyk.s 			page 3


  89:..\u8g2\csrc/u8x8_d_sh1106_64x32.c **** static const uint8_t u8x8_d_sh1106_64x32_flip0_seq[] = {
  90:..\u8g2\csrc/u8x8_d_sh1106_64x32.c ****   U8X8_START_TRANSFER(),             	/* enable chip, delay is part of the transfer start */
  91:..\u8g2\csrc/u8x8_d_sh1106_64x32.c ****   U8X8_C(0x0a1),				/* segment remap a0/a1*/
  92:..\u8g2\csrc/u8x8_d_sh1106_64x32.c ****   U8X8_C(0x0c8),				/* c0: scan dir normal, c8: reverse */
  93:..\u8g2\csrc/u8x8_d_sh1106_64x32.c ****   U8X8_CA(0x0d3, 0),			/* display offset, 0.42 OLED  */
  94:..\u8g2\csrc/u8x8_d_sh1106_64x32.c ****   U8X8_END_TRANSFER(),             	/* disable chip */
  95:..\u8g2\csrc/u8x8_d_sh1106_64x32.c ****   U8X8_END()             			/* end of sequence */
  96:..\u8g2\csrc/u8x8_d_sh1106_64x32.c **** };
  97:..\u8g2\csrc/u8x8_d_sh1106_64x32.c **** 
  98:..\u8g2\csrc/u8x8_d_sh1106_64x32.c **** static const uint8_t u8x8_d_sh1106_64x32_flip1_seq[] = {
  99:..\u8g2\csrc/u8x8_d_sh1106_64x32.c ****   U8X8_START_TRANSFER(),             	/* enable chip, delay is part of the transfer start */
 100:..\u8g2\csrc/u8x8_d_sh1106_64x32.c ****   U8X8_C(0x0a0),				/* segment remap a0/a1*/
 101:..\u8g2\csrc/u8x8_d_sh1106_64x32.c ****   U8X8_C(0x0c0),				/* c0: scan dir normal, c8: reverse */
 102:..\u8g2\csrc/u8x8_d_sh1106_64x32.c ****   U8X8_CA(0x0d3, 0),		/* What is the correct offset in flip 1 mode?  --> Issue 547 */
 103:..\u8g2\csrc/u8x8_d_sh1106_64x32.c ****   U8X8_END_TRANSFER(),             	/* disable chip */
 104:..\u8g2\csrc/u8x8_d_sh1106_64x32.c ****   U8X8_END()             			/* end of sequence */
 105:..\u8g2\csrc/u8x8_d_sh1106_64x32.c **** };
 106:..\u8g2\csrc/u8x8_d_sh1106_64x32.c **** 
 107:..\u8g2\csrc/u8x8_d_sh1106_64x32.c **** 
 108:..\u8g2\csrc/u8x8_d_sh1106_64x32.c **** static uint8_t u8x8_d_sh1106_64x32_generic(u8x8_t *u8x8, uint8_t msg, uint8_t arg_int, void *arg_pt
 109:..\u8g2\csrc/u8x8_d_sh1106_64x32.c **** {
  27              		.loc 1 109 0
  28              		.cfi_startproc
  29              		@ args = 0, pretend = 0, frame = 0
  30              		@ frame_needed = 0, uses_anonymous_args = 0
  31              	.LVL0:
  32 0000 F8B5     		push	{r3, r4, r5, r6, r7, lr}
  33              		.cfi_def_cfa_offset 24
  34              		.cfi_offset 3, -24
  35              		.cfi_offset 4, -20
  36              		.cfi_offset 5, -16
  37              		.cfi_offset 6, -12
  38              		.cfi_offset 7, -8
  39              		.cfi_offset 14, -4
  40 0002 0546     		mov	r5, r0
  41 0004 1446     		mov	r4, r2
  42 0006 1E46     		mov	r6, r3
 110:..\u8g2\csrc/u8x8_d_sh1106_64x32.c ****   uint8_t x, c;
 111:..\u8g2\csrc/u8x8_d_sh1106_64x32.c ****   uint8_t *ptr;
 112:..\u8g2\csrc/u8x8_d_sh1106_64x32.c ****   switch(msg)
  43              		.loc 1 112 0
  44 0008 0B39     		subs	r1, r1, #11
  45              	.LVL1:
  46 000a 0429     		cmp	r1, #4
  47 000c 5CD8     		bhi	.L11
  48 000e DFE801F0 		tbb	[pc, r1]
  49              	.LVL2:
  50              	.L4:
  51 0012 03       		.byte	(.L3-.L4)/2
  52 0013 5B       		.byte	(.L11-.L4)/2
  53 0014 0E       		.byte	(.L5-.L4)/2
  54 0015 21       		.byte	(.L6-.L4)/2
  55 0016 30       		.byte	(.L7-.L4)/2
  56 0017 00       		.p2align 1
  57              	.L3:
 113:..\u8g2\csrc/u8x8_d_sh1106_64x32.c ****   {
 114:..\u8g2\csrc/u8x8_d_sh1106_64x32.c ****     /* handled by the calling function
ARM GAS  C:\Users\brian\AppData\Local\Temp\ccxbXCyk.s 			page 4


 115:..\u8g2\csrc/u8x8_d_sh1106_64x32.c ****     case U8X8_MSG_DISPLAY_SETUP_MEMORY:
 116:..\u8g2\csrc/u8x8_d_sh1106_64x32.c ****       u8x8_d_helper_display_setup_memory(u8x8, &u8x8_sh1106_64x32_display_info);
 117:..\u8g2\csrc/u8x8_d_sh1106_64x32.c ****       break;
 118:..\u8g2\csrc/u8x8_d_sh1106_64x32.c ****     case U8X8_MSG_DISPLAY_INIT:
 119:..\u8g2\csrc/u8x8_d_sh1106_64x32.c ****       u8x8_d_helper_display_init(u8x8);
 120:..\u8g2\csrc/u8x8_d_sh1106_64x32.c ****       u8x8_cad_SendSequence(u8x8, u8x8_d_sh1106_64x32_init_seq);    
 121:..\u8g2\csrc/u8x8_d_sh1106_64x32.c ****       break;
 122:..\u8g2\csrc/u8x8_d_sh1106_64x32.c ****     */
 123:..\u8g2\csrc/u8x8_d_sh1106_64x32.c ****     case U8X8_MSG_DISPLAY_SET_POWER_SAVE:
 124:..\u8g2\csrc/u8x8_d_sh1106_64x32.c ****       if ( arg_int == 0 )
  58              		.loc 1 124 0
  59 0018 22B9     		cbnz	r2, .L8
 125:..\u8g2\csrc/u8x8_d_sh1106_64x32.c ****         u8x8_cad_SendSequence(u8x8, u8x8_d_sh1106_64x32_powersave0_seq);
  60              		.loc 1 125 0
  61 001a 2C49     		ldr	r1, .L13
  62 001c FFF7FEFF 		bl	u8x8_cad_SendSequence
  63              	.LVL3:
 126:..\u8g2\csrc/u8x8_d_sh1106_64x32.c ****       else
 127:..\u8g2\csrc/u8x8_d_sh1106_64x32.c ****         u8x8_cad_SendSequence(u8x8, u8x8_d_sh1106_64x32_powersave1_seq);
 128:..\u8g2\csrc/u8x8_d_sh1106_64x32.c ****       break;
 129:..\u8g2\csrc/u8x8_d_sh1106_64x32.c ****     case U8X8_MSG_DISPLAY_SET_FLIP_MODE:
 130:..\u8g2\csrc/u8x8_d_sh1106_64x32.c ****       if ( arg_int == 0 )
 131:..\u8g2\csrc/u8x8_d_sh1106_64x32.c ****       {
 132:..\u8g2\csrc/u8x8_d_sh1106_64x32.c ****         u8x8_cad_SendSequence(u8x8, u8x8_d_sh1106_64x32_flip0_seq);
 133:..\u8g2\csrc/u8x8_d_sh1106_64x32.c ****         u8x8->x_offset = u8x8->display_info->default_x_offset;
 134:..\u8g2\csrc/u8x8_d_sh1106_64x32.c ****       }
 135:..\u8g2\csrc/u8x8_d_sh1106_64x32.c ****       else
 136:..\u8g2\csrc/u8x8_d_sh1106_64x32.c ****       {
 137:..\u8g2\csrc/u8x8_d_sh1106_64x32.c ****         u8x8_cad_SendSequence(u8x8, u8x8_d_sh1106_64x32_flip1_seq);
 138:..\u8g2\csrc/u8x8_d_sh1106_64x32.c ****         u8x8->x_offset = u8x8->display_info->flipmode_x_offset;
 139:..\u8g2\csrc/u8x8_d_sh1106_64x32.c ****       }
 140:..\u8g2\csrc/u8x8_d_sh1106_64x32.c ****       break;
 141:..\u8g2\csrc/u8x8_d_sh1106_64x32.c **** #ifdef U8X8_WITH_SET_CONTRAST
 142:..\u8g2\csrc/u8x8_d_sh1106_64x32.c ****     case U8X8_MSG_DISPLAY_SET_CONTRAST:
 143:..\u8g2\csrc/u8x8_d_sh1106_64x32.c ****       u8x8_cad_StartTransfer(u8x8);
 144:..\u8g2\csrc/u8x8_d_sh1106_64x32.c ****       u8x8_cad_SendCmd(u8x8, 0x081 );
 145:..\u8g2\csrc/u8x8_d_sh1106_64x32.c ****       u8x8_cad_SendArg(u8x8, arg_int );	/* ssd1306 has range from 0 to 255 */
 146:..\u8g2\csrc/u8x8_d_sh1106_64x32.c ****       u8x8_cad_EndTransfer(u8x8);
 147:..\u8g2\csrc/u8x8_d_sh1106_64x32.c ****       break;
 148:..\u8g2\csrc/u8x8_d_sh1106_64x32.c **** #endif
 149:..\u8g2\csrc/u8x8_d_sh1106_64x32.c ****     case U8X8_MSG_DISPLAY_DRAW_TILE:
 150:..\u8g2\csrc/u8x8_d_sh1106_64x32.c ****       u8x8_cad_StartTransfer(u8x8);
 151:..\u8g2\csrc/u8x8_d_sh1106_64x32.c ****       x = ((u8x8_tile_t *)arg_ptr)->x_pos;    
 152:..\u8g2\csrc/u8x8_d_sh1106_64x32.c ****       x *= 8;
 153:..\u8g2\csrc/u8x8_d_sh1106_64x32.c ****       x += u8x8->x_offset;
 154:..\u8g2\csrc/u8x8_d_sh1106_64x32.c ****       u8x8_cad_SendCmd(u8x8, 0x010 | (x>>4) );
 155:..\u8g2\csrc/u8x8_d_sh1106_64x32.c ****       u8x8_cad_SendCmd(u8x8, 0x000 | ((x&15)));
 156:..\u8g2\csrc/u8x8_d_sh1106_64x32.c ****       u8x8_cad_SendCmd(u8x8, 0x0b0 | (((u8x8_tile_t *)arg_ptr)->y_pos));
 157:..\u8g2\csrc/u8x8_d_sh1106_64x32.c ****       
 158:..\u8g2\csrc/u8x8_d_sh1106_64x32.c ****       do
 159:..\u8g2\csrc/u8x8_d_sh1106_64x32.c ****       {
 160:..\u8g2\csrc/u8x8_d_sh1106_64x32.c **** 	c = ((u8x8_tile_t *)arg_ptr)->cnt;
 161:..\u8g2\csrc/u8x8_d_sh1106_64x32.c **** 	ptr = ((u8x8_tile_t *)arg_ptr)->tile_ptr;
 162:..\u8g2\csrc/u8x8_d_sh1106_64x32.c **** 	u8x8_cad_SendData(u8x8, c*8, ptr); 	/* note: SendData can not handle more than 255 bytes */
 163:..\u8g2\csrc/u8x8_d_sh1106_64x32.c **** 	arg_int--;
 164:..\u8g2\csrc/u8x8_d_sh1106_64x32.c ****       } while( arg_int > 0 );
 165:..\u8g2\csrc/u8x8_d_sh1106_64x32.c ****       
ARM GAS  C:\Users\brian\AppData\Local\Temp\ccxbXCyk.s 			page 5


 166:..\u8g2\csrc/u8x8_d_sh1106_64x32.c ****       u8x8_cad_EndTransfer(u8x8);
 167:..\u8g2\csrc/u8x8_d_sh1106_64x32.c ****       break;
 168:..\u8g2\csrc/u8x8_d_sh1106_64x32.c ****     default:
 169:..\u8g2\csrc/u8x8_d_sh1106_64x32.c ****       return 0;
 170:..\u8g2\csrc/u8x8_d_sh1106_64x32.c ****   }
 171:..\u8g2\csrc/u8x8_d_sh1106_64x32.c ****   return 1;
  64              		.loc 1 171 0
  65 0020 0120     		movs	r0, #1
  66 0022 F8BD     		pop	{r3, r4, r5, r6, r7, pc}
  67              	.LVL4:
  68              	.L8:
 127:..\u8g2\csrc/u8x8_d_sh1106_64x32.c ****       break;
  69              		.loc 1 127 0
  70 0024 2A49     		ldr	r1, .L13+4
  71 0026 FFF7FEFF 		bl	u8x8_cad_SendSequence
  72              	.LVL5:
  73              		.loc 1 171 0
  74 002a 0120     		movs	r0, #1
  75 002c F8BD     		pop	{r3, r4, r5, r6, r7, pc}
  76              	.LVL6:
  77              	.L5:
 130:..\u8g2\csrc/u8x8_d_sh1106_64x32.c ****       {
  78              		.loc 1 130 0
  79 002e 42B9     		cbnz	r2, .L9
 132:..\u8g2\csrc/u8x8_d_sh1106_64x32.c ****         u8x8->x_offset = u8x8->display_info->default_x_offset;
  80              		.loc 1 132 0
  81 0030 2849     		ldr	r1, .L13+8
  82 0032 FFF7FEFF 		bl	u8x8_cad_SendSequence
  83              	.LVL7:
 133:..\u8g2\csrc/u8x8_d_sh1106_64x32.c ****       }
  84              		.loc 1 133 0
  85 0036 2B68     		ldr	r3, [r5]
  86 0038 9B7C     		ldrb	r3, [r3, #18]	@ zero_extendqisi2
  87 003a 85F82230 		strb	r3, [r5, #34]
  88              		.loc 1 171 0
  89 003e 0120     		movs	r0, #1
  90 0040 F8BD     		pop	{r3, r4, r5, r6, r7, pc}
  91              	.LVL8:
  92              	.L9:
 137:..\u8g2\csrc/u8x8_d_sh1106_64x32.c ****         u8x8->x_offset = u8x8->display_info->flipmode_x_offset;
  93              		.loc 1 137 0
  94 0042 2549     		ldr	r1, .L13+12
  95 0044 FFF7FEFF 		bl	u8x8_cad_SendSequence
  96              	.LVL9:
 138:..\u8g2\csrc/u8x8_d_sh1106_64x32.c ****       }
  97              		.loc 1 138 0
  98 0048 2B68     		ldr	r3, [r5]
  99 004a DB7C     		ldrb	r3, [r3, #19]	@ zero_extendqisi2
 100 004c 85F82230 		strb	r3, [r5, #34]
 101              		.loc 1 171 0
 102 0050 0120     		movs	r0, #1
 103 0052 F8BD     		pop	{r3, r4, r5, r6, r7, pc}
 104              	.LVL10:
 105              	.L6:
 143:..\u8g2\csrc/u8x8_d_sh1106_64x32.c ****       u8x8_cad_SendCmd(u8x8, 0x081 );
 106              		.loc 1 143 0
 107 0054 FFF7FEFF 		bl	u8x8_cad_StartTransfer
ARM GAS  C:\Users\brian\AppData\Local\Temp\ccxbXCyk.s 			page 6


 108              	.LVL11:
 144:..\u8g2\csrc/u8x8_d_sh1106_64x32.c ****       u8x8_cad_SendArg(u8x8, arg_int );	/* ssd1306 has range from 0 to 255 */
 109              		.loc 1 144 0
 110 0058 8121     		movs	r1, #129
 111 005a 2846     		mov	r0, r5
 112 005c FFF7FEFF 		bl	u8x8_cad_SendCmd
 113              	.LVL12:
 145:..\u8g2\csrc/u8x8_d_sh1106_64x32.c ****       u8x8_cad_EndTransfer(u8x8);
 114              		.loc 1 145 0
 115 0060 2146     		mov	r1, r4
 116 0062 2846     		mov	r0, r5
 117 0064 FFF7FEFF 		bl	u8x8_cad_SendArg
 118              	.LVL13:
 146:..\u8g2\csrc/u8x8_d_sh1106_64x32.c ****       break;
 119              		.loc 1 146 0
 120 0068 2846     		mov	r0, r5
 121 006a FFF7FEFF 		bl	u8x8_cad_EndTransfer
 122              	.LVL14:
 123              		.loc 1 171 0
 124 006e 0120     		movs	r0, #1
 147:..\u8g2\csrc/u8x8_d_sh1106_64x32.c **** #endif
 125              		.loc 1 147 0
 126 0070 F8BD     		pop	{r3, r4, r5, r6, r7, pc}
 127              	.LVL15:
 128              	.L7:
 150:..\u8g2\csrc/u8x8_d_sh1106_64x32.c ****       x = ((u8x8_tile_t *)arg_ptr)->x_pos;    
 129              		.loc 1 150 0
 130 0072 FFF7FEFF 		bl	u8x8_cad_StartTransfer
 131              	.LVL16:
 151:..\u8g2\csrc/u8x8_d_sh1106_64x32.c ****       x *= 8;
 132              		.loc 1 151 0
 133 0076 7779     		ldrb	r7, [r6, #5]	@ zero_extendqisi2
 134              	.LVL17:
 152:..\u8g2\csrc/u8x8_d_sh1106_64x32.c ****       x += u8x8->x_offset;
 135              		.loc 1 152 0
 136 0078 FF00     		lsls	r7, r7, #3
 137              	.LVL18:
 138 007a FFB2     		uxtb	r7, r7
 139              	.LVL19:
 153:..\u8g2\csrc/u8x8_d_sh1106_64x32.c ****       u8x8_cad_SendCmd(u8x8, 0x010 | (x>>4) );
 140              		.loc 1 153 0
 141 007c 95F82230 		ldrb	r3, [r5, #34]	@ zero_extendqisi2
 142 0080 1F44     		add	r7, r7, r3
 143              	.LVL20:
 144 0082 FFB2     		uxtb	r7, r7
 145              	.LVL21:
 154:..\u8g2\csrc/u8x8_d_sh1106_64x32.c ****       u8x8_cad_SendCmd(u8x8, 0x000 | ((x&15)));
 146              		.loc 1 154 0
 147 0084 3909     		lsrs	r1, r7, #4
 148 0086 41F01001 		orr	r1, r1, #16
 149 008a 2846     		mov	r0, r5
 150 008c FFF7FEFF 		bl	u8x8_cad_SendCmd
 151              	.LVL22:
 155:..\u8g2\csrc/u8x8_d_sh1106_64x32.c ****       u8x8_cad_SendCmd(u8x8, 0x0b0 | (((u8x8_tile_t *)arg_ptr)->y_pos));
 152              		.loc 1 155 0
 153 0090 07F00F01 		and	r1, r7, #15
 154 0094 2846     		mov	r0, r5
ARM GAS  C:\Users\brian\AppData\Local\Temp\ccxbXCyk.s 			page 7


 155 0096 FFF7FEFF 		bl	u8x8_cad_SendCmd
 156              	.LVL23:
 156:..\u8g2\csrc/u8x8_d_sh1106_64x32.c ****       
 157              		.loc 1 156 0
 158 009a B179     		ldrb	r1, [r6, #6]	@ zero_extendqisi2
 159 009c 41F0B001 		orr	r1, r1, #176
 160 00a0 2846     		mov	r0, r5
 161 00a2 FFF7FEFF 		bl	u8x8_cad_SendCmd
 162              	.LVL24:
 163              	.L10:
 160:..\u8g2\csrc/u8x8_d_sh1106_64x32.c **** 	ptr = ((u8x8_tile_t *)arg_ptr)->tile_ptr;
 164              		.loc 1 160 0 discriminator 1
 165 00a6 3179     		ldrb	r1, [r6, #4]	@ zero_extendqisi2
 166              	.LVL25:
 162:..\u8g2\csrc/u8x8_d_sh1106_64x32.c **** 	arg_int--;
 167              		.loc 1 162 0 discriminator 1
 168 00a8 C900     		lsls	r1, r1, #3
 169              	.LVL26:
 170 00aa 3268     		ldr	r2, [r6]
 171 00ac 01F0F801 		and	r1, r1, #248
 172 00b0 2846     		mov	r0, r5
 173 00b2 FFF7FEFF 		bl	u8x8_cad_SendData
 174              	.LVL27:
 163:..\u8g2\csrc/u8x8_d_sh1106_64x32.c ****       } while( arg_int > 0 );
 175              		.loc 1 163 0 discriminator 1
 176 00b6 621E     		subs	r2, r4, #1
 177              	.LVL28:
 164:..\u8g2\csrc/u8x8_d_sh1106_64x32.c ****       
 178              		.loc 1 164 0 discriminator 1
 179 00b8 12F0FF04 		ands	r4, r2, #255
 180 00bc F3D1     		bne	.L10
 166:..\u8g2\csrc/u8x8_d_sh1106_64x32.c ****       break;
 181              		.loc 1 166 0
 182 00be 2846     		mov	r0, r5
 183 00c0 FFF7FEFF 		bl	u8x8_cad_EndTransfer
 184              	.LVL29:
 185              		.loc 1 171 0
 186 00c4 0120     		movs	r0, #1
 167:..\u8g2\csrc/u8x8_d_sh1106_64x32.c ****     default:
 187              		.loc 1 167 0
 188 00c6 F8BD     		pop	{r3, r4, r5, r6, r7, pc}
 189              	.LVL30:
 190              	.L11:
 169:..\u8g2\csrc/u8x8_d_sh1106_64x32.c ****   }
 191              		.loc 1 169 0
 192 00c8 0020     		movs	r0, #0
 193              	.LVL31:
 172:..\u8g2\csrc/u8x8_d_sh1106_64x32.c **** }
 194              		.loc 1 172 0
 195 00ca F8BD     		pop	{r3, r4, r5, r6, r7, pc}
 196              	.LVL32:
 197              	.L14:
 198              		.align	2
 199              	.L13:
 200 00cc 00000000 		.word	.LANCHOR0
 201 00d0 08000000 		.word	.LANCHOR0+8
 202 00d4 10000000 		.word	.LANCHOR0+16
ARM GAS  C:\Users\brian\AppData\Local\Temp\ccxbXCyk.s 			page 8


 203 00d8 1C000000 		.word	.LANCHOR0+28
 204              		.cfi_endproc
 205              	.LFE0:
 206              		.size	u8x8_d_sh1106_64x32_generic, .-u8x8_d_sh1106_64x32_generic
 207              		.section	.text.u8x8_d_sh1106_64x32,"ax",%progbits
 208              		.align	2
 209              		.global	u8x8_d_sh1106_64x32
 210              		.thumb
 211              		.thumb_func
 212              		.type	u8x8_d_sh1106_64x32, %function
 213              	u8x8_d_sh1106_64x32:
 214              	.LFB1:
 173:..\u8g2\csrc/u8x8_d_sh1106_64x32.c **** 
 174:..\u8g2\csrc/u8x8_d_sh1106_64x32.c **** /* copied from SSD1306 */
 175:..\u8g2\csrc/u8x8_d_sh1106_64x32.c **** static const u8x8_display_info_t u8x8_sh1106_64x32_display_info =
 176:..\u8g2\csrc/u8x8_d_sh1106_64x32.c **** {
 177:..\u8g2\csrc/u8x8_d_sh1106_64x32.c ****   /* chip_enable_level = */ 0,
 178:..\u8g2\csrc/u8x8_d_sh1106_64x32.c ****   /* chip_disable_level = */ 1,
 179:..\u8g2\csrc/u8x8_d_sh1106_64x32.c ****   
 180:..\u8g2\csrc/u8x8_d_sh1106_64x32.c ****   /* post_chip_enable_wait_ns = */ 20,
 181:..\u8g2\csrc/u8x8_d_sh1106_64x32.c ****   /* pre_chip_disable_wait_ns = */ 10,
 182:..\u8g2\csrc/u8x8_d_sh1106_64x32.c ****   /* reset_pulse_width_ms = */ 100, 	/* SSD1306: 3 us */
 183:..\u8g2\csrc/u8x8_d_sh1106_64x32.c ****   /* post_reset_wait_ms = */ 100, /* far east OLEDs need much longer setup time */
 184:..\u8g2\csrc/u8x8_d_sh1106_64x32.c ****   /* sda_setup_time_ns = */ 50,		/* SSD1306: 15ns, but cycle time is 100ns, so use 100/2 */
 185:..\u8g2\csrc/u8x8_d_sh1106_64x32.c ****   /* sck_pulse_width_ns = */ 50,	/* SSD1306: 20ns, but cycle time is 100ns, so use 100/2, AVR: belo
 186:..\u8g2\csrc/u8x8_d_sh1106_64x32.c ****   /* sck_clock_hz = */ 4000000UL,	/* since Arduino 1.6.0, the SPI bus speed in Hz. Should be  10000
 187:..\u8g2\csrc/u8x8_d_sh1106_64x32.c ****   /* spi_mode = */ 0,		/* active high, rising edge */
 188:..\u8g2\csrc/u8x8_d_sh1106_64x32.c ****   /* i2c_bus_clock_100kHz = */ 4,
 189:..\u8g2\csrc/u8x8_d_sh1106_64x32.c ****   /* data_setup_time_ns = */ 40,
 190:..\u8g2\csrc/u8x8_d_sh1106_64x32.c ****   /* write_pulse_width_ns = */ 150,	/* SSD1306: cycle time is 300ns, so use 300/2 = 150 */
 191:..\u8g2\csrc/u8x8_d_sh1106_64x32.c ****   /* tile_width = */ 8,
 192:..\u8g2\csrc/u8x8_d_sh1106_64x32.c ****   /* tile_hight = */ 4,
 193:..\u8g2\csrc/u8x8_d_sh1106_64x32.c ****   /* default_x_offset = */ 32,
 194:..\u8g2\csrc/u8x8_d_sh1106_64x32.c ****   /* flipmode_x_offset = */ 36,
 195:..\u8g2\csrc/u8x8_d_sh1106_64x32.c ****   /* pixel_width = */ 64,
 196:..\u8g2\csrc/u8x8_d_sh1106_64x32.c ****   /* pixel_height = */ 32
 197:..\u8g2\csrc/u8x8_d_sh1106_64x32.c **** };
 198:..\u8g2\csrc/u8x8_d_sh1106_64x32.c **** 
 199:..\u8g2\csrc/u8x8_d_sh1106_64x32.c **** uint8_t u8x8_d_sh1106_64x32(u8x8_t *u8x8, uint8_t msg, uint8_t arg_int, void *arg_ptr)
 200:..\u8g2\csrc/u8x8_d_sh1106_64x32.c **** {
 215              		.loc 1 200 0
 216              		.cfi_startproc
 217              		@ args = 0, pretend = 0, frame = 0
 218              		@ frame_needed = 0, uses_anonymous_args = 0
 219              	.LVL33:
 220 0000 10B5     		push	{r4, lr}
 221              		.cfi_def_cfa_offset 8
 222              		.cfi_offset 4, -8
 223              		.cfi_offset 14, -4
 224 0002 0446     		mov	r4, r0
 201:..\u8g2\csrc/u8x8_d_sh1106_64x32.c ****     if ( msg == U8X8_MSG_DISPLAY_SETUP_MEMORY )
 225              		.loc 1 201 0
 226 0004 0929     		cmp	r1, #9
 227 0006 04D1     		bne	.L16
 202:..\u8g2\csrc/u8x8_d_sh1106_64x32.c ****     {
 203:..\u8g2\csrc/u8x8_d_sh1106_64x32.c ****       u8x8_d_helper_display_setup_memory(u8x8, &u8x8_sh1106_64x32_display_info);
 228              		.loc 1 203 0
ARM GAS  C:\Users\brian\AppData\Local\Temp\ccxbXCyk.s 			page 9


 229 0008 0849     		ldr	r1, .L20
 230              	.LVL34:
 231 000a FFF7FEFF 		bl	u8x8_d_helper_display_setup_memory
 232              	.LVL35:
 204:..\u8g2\csrc/u8x8_d_sh1106_64x32.c ****       return 1;
 233              		.loc 1 204 0
 234 000e 0120     		movs	r0, #1
 235 0010 10BD     		pop	{r4, pc}
 236              	.LVL36:
 237              	.L16:
 205:..\u8g2\csrc/u8x8_d_sh1106_64x32.c ****     }
 206:..\u8g2\csrc/u8x8_d_sh1106_64x32.c ****     else if ( msg == U8X8_MSG_DISPLAY_INIT )
 238              		.loc 1 206 0
 239 0012 0A29     		cmp	r1, #10
 240 0014 07D1     		bne	.L18
 207:..\u8g2\csrc/u8x8_d_sh1106_64x32.c ****     {
 208:..\u8g2\csrc/u8x8_d_sh1106_64x32.c ****       u8x8_d_helper_display_init(u8x8);
 241              		.loc 1 208 0
 242 0016 FFF7FEFF 		bl	u8x8_d_helper_display_init
 243              	.LVL37:
 209:..\u8g2\csrc/u8x8_d_sh1106_64x32.c ****       u8x8_cad_SendSequence(u8x8, u8x8_d_sh1106_64x32_init_seq);    
 244              		.loc 1 209 0
 245 001a 0549     		ldr	r1, .L20+4
 246 001c 2046     		mov	r0, r4
 247 001e FFF7FEFF 		bl	u8x8_cad_SendSequence
 248              	.LVL38:
 210:..\u8g2\csrc/u8x8_d_sh1106_64x32.c ****       return 1;
 249              		.loc 1 210 0
 250 0022 0120     		movs	r0, #1
 251 0024 10BD     		pop	{r4, pc}
 252              	.LVL39:
 253              	.L18:
 211:..\u8g2\csrc/u8x8_d_sh1106_64x32.c ****     }
 212:..\u8g2\csrc/u8x8_d_sh1106_64x32.c ****     return u8x8_d_sh1106_64x32_generic(u8x8, msg, arg_int, arg_ptr);
 254              		.loc 1 212 0
 255 0026 FFF7FEFF 		bl	u8x8_d_sh1106_64x32_generic
 256              	.LVL40:
 213:..\u8g2\csrc/u8x8_d_sh1106_64x32.c **** }
 257              		.loc 1 213 0
 258 002a 10BD     		pop	{r4, pc}
 259              	.LVL41:
 260              	.L21:
 261              		.align	2
 262              	.L20:
 263 002c 28000000 		.word	.LANCHOR0+40
 264 0030 40000000 		.word	.LANCHOR0+64
 265              		.cfi_endproc
 266              	.LFE1:
 267              		.size	u8x8_d_sh1106_64x32, .-u8x8_d_sh1106_64x32
 268              		.section	.rodata
 269              		.align	2
 270              		.set	.LANCHOR0,. + 0
 271              		.type	u8x8_d_sh1106_64x32_powersave0_seq, %object
 272              		.size	u8x8_d_sh1106_64x32_powersave0_seq, 5
 273              	u8x8_d_sh1106_64x32_powersave0_seq:
 274 0000 18       		.byte	24
 275 0001 15       		.byte	21
ARM GAS  C:\Users\brian\AppData\Local\Temp\ccxbXCyk.s 			page 10


 276 0002 AF       		.byte	-81
 277 0003 19       		.byte	25
 278 0004 FF       		.byte	-1
 279 0005 000000   		.space	3
 280              		.type	u8x8_d_sh1106_64x32_powersave1_seq, %object
 281              		.size	u8x8_d_sh1106_64x32_powersave1_seq, 5
 282              	u8x8_d_sh1106_64x32_powersave1_seq:
 283 0008 18       		.byte	24
 284 0009 15       		.byte	21
 285 000a AE       		.byte	-82
 286 000b 19       		.byte	25
 287 000c FF       		.byte	-1
 288 000d 000000   		.space	3
 289              		.type	u8x8_d_sh1106_64x32_flip0_seq, %object
 290              		.size	u8x8_d_sh1106_64x32_flip0_seq, 11
 291              	u8x8_d_sh1106_64x32_flip0_seq:
 292 0010 18       		.byte	24
 293 0011 15       		.byte	21
 294 0012 A1       		.byte	-95
 295 0013 15       		.byte	21
 296 0014 C8       		.byte	-56
 297 0015 15       		.byte	21
 298 0016 D3       		.byte	-45
 299 0017 16       		.byte	22
 300 0018 00       		.byte	0
 301 0019 19       		.byte	25
 302 001a FF       		.byte	-1
 303 001b 00       		.space	1
 304              		.type	u8x8_d_sh1106_64x32_flip1_seq, %object
 305              		.size	u8x8_d_sh1106_64x32_flip1_seq, 11
 306              	u8x8_d_sh1106_64x32_flip1_seq:
 307 001c 18       		.byte	24
 308 001d 15       		.byte	21
 309 001e A0       		.byte	-96
 310 001f 15       		.byte	21
 311 0020 C0       		.byte	-64
 312 0021 15       		.byte	21
 313 0022 D3       		.byte	-45
 314 0023 16       		.byte	22
 315 0024 00       		.byte	0
 316 0025 19       		.byte	25
 317 0026 FF       		.byte	-1
 318 0027 00       		.space	1
 319              		.type	u8x8_sh1106_64x32_display_info, %object
 320              		.size	u8x8_sh1106_64x32_display_info, 24
 321              	u8x8_sh1106_64x32_display_info:
 322 0028 00       		.byte	0
 323 0029 01       		.byte	1
 324 002a 14       		.byte	20
 325 002b 0A       		.byte	10
 326 002c 64       		.byte	100
 327 002d 64       		.byte	100
 328 002e 32       		.byte	50
 329 002f 32       		.byte	50
 330 0030 00093D00 		.word	4000000
 331 0034 00       		.byte	0
 332 0035 04       		.byte	4
ARM GAS  C:\Users\brian\AppData\Local\Temp\ccxbXCyk.s 			page 11


 333 0036 28       		.byte	40
 334 0037 96       		.byte	-106
 335 0038 08       		.byte	8
 336 0039 04       		.byte	4
 337 003a 20       		.byte	32
 338 003b 24       		.byte	36
 339 003c 4000     		.short	64
 340 003e 2000     		.short	32
 341              		.type	u8x8_d_sh1106_64x32_init_seq, %object
 342              		.size	u8x8_d_sh1106_64x32_init_seq, 55
 343              	u8x8_d_sh1106_64x32_init_seq:
 344 0040 18       		.byte	24
 345 0041 15       		.byte	21
 346 0042 AE       		.byte	-82
 347 0043 15       		.byte	21
 348 0044 D5       		.byte	-43
 349 0045 16       		.byte	22
 350 0046 80       		.byte	-128
 351 0047 15       		.byte	21
 352 0048 A8       		.byte	-88
 353 0049 16       		.byte	22
 354 004a 1F       		.byte	31
 355 004b 15       		.byte	21
 356 004c D3       		.byte	-45
 357 004d 16       		.byte	22
 358 004e 00       		.byte	0
 359 004f 15       		.byte	21
 360 0050 40       		.byte	64
 361 0051 15       		.byte	21
 362 0052 AD       		.byte	-83
 363 0053 16       		.byte	22
 364 0054 8B       		.byte	-117
 365 0055 15       		.byte	21
 366 0056 33       		.byte	51
 367 0057 15       		.byte	21
 368 0058 20       		.byte	32
 369 0059 16       		.byte	22
 370 005a 00       		.byte	0
 371 005b 15       		.byte	21
 372 005c A1       		.byte	-95
 373 005d 15       		.byte	21
 374 005e C8       		.byte	-56
 375 005f 15       		.byte	21
 376 0060 DA       		.byte	-38
 377 0061 16       		.byte	22
 378 0062 12       		.byte	18
 379 0063 15       		.byte	21
 380 0064 81       		.byte	-127
 381 0065 16       		.byte	22
 382 0066 80       		.byte	-128
 383 0067 15       		.byte	21
 384 0068 D9       		.byte	-39
 385 0069 16       		.byte	22
 386 006a 22       		.byte	34
 387 006b 15       		.byte	21
 388 006c DB       		.byte	-37
 389 006d 16       		.byte	22
ARM GAS  C:\Users\brian\AppData\Local\Temp\ccxbXCyk.s 			page 12


 390 006e 28       		.byte	40
 391 006f 15       		.byte	21
 392 0070 2E       		.byte	46
 393 0071 15       		.byte	21
 394 0072 A4       		.byte	-92
 395 0073 15       		.byte	21
 396 0074 A6       		.byte	-90
 397 0075 19       		.byte	25
 398 0076 FF       		.byte	-1
 399              		.text
 400              	.Letext0:
 401              		.file 2 "c:\\program files (x86)\\cypress\\psoc creator\\4.4\\psoc creator\\import\\gnu\\arm\\5.4.
 402              		.file 3 "c:\\program files (x86)\\cypress\\psoc creator\\4.4\\psoc creator\\import\\gnu\\arm\\5.4.
 403              		.file 4 "..\\u8g2\\csrc\\u8x8.h"