ARM GAS  C:\Users\brian\AppData\Local\Temp\ccVIu5fW.s 			page 1


   1              		.syntax unified
   2              		.cpu cortex-m3
   3              		.fpu softvfp
   4              		.eabi_attribute 20, 1
   5              		.eabi_attribute 21, 1
   6              		.eabi_attribute 23, 3
   7              		.eabi_attribute 24, 1
   8              		.eabi_attribute 25, 1
   9              		.eabi_attribute 26, 1
  10              		.eabi_attribute 30, 1
  11              		.eabi_attribute 34, 1
  12              		.eabi_attribute 18, 4
  13              		.thumb
  14              		.syntax unified
  15              		.file	"u8x8_d_hd44102.c"
  16              		.text
  17              	.Ltext0:
  18              		.cfi_sections	.debug_frame
  19              		.section	.text.u8x8_hd44102_outy,"ax",%progbits
  20              		.align	2
  21              		.thumb
  22              		.thumb_func
  23              		.type	u8x8_hd44102_outy, %function
  24              	u8x8_hd44102_outy:
  25              	.LFB0:
  26              		.file 1 "..\\u8g2\\csrc\\u8x8_d_hd44102.c"
   1:..\u8g2\csrc/u8x8_d_hd44102.c **** /*
   2:..\u8g2\csrc/u8x8_d_hd44102.c **** 
   3:..\u8g2\csrc/u8x8_d_hd44102.c ****   u8x8_d_hd44102.c 
   4:..\u8g2\csrc/u8x8_d_hd44102.c ****   
   5:..\u8g2\csrc/u8x8_d_hd44102.c ****   Support for HD44102 and T7932 controller (https://github.com/olikraus/u8g2/issues/1492)
   6:..\u8g2\csrc/u8x8_d_hd44102.c ****   
   7:..\u8g2\csrc/u8x8_d_hd44102.c ****   Universal 8bit Graphics Library (https://github.com/olikraus/u8g2/)
   8:..\u8g2\csrc/u8x8_d_hd44102.c **** 
   9:..\u8g2\csrc/u8x8_d_hd44102.c ****   Copyright (c) 2021, olikraus@gmail.com
  10:..\u8g2\csrc/u8x8_d_hd44102.c ****   All rights reserved.
  11:..\u8g2\csrc/u8x8_d_hd44102.c **** 
  12:..\u8g2\csrc/u8x8_d_hd44102.c ****   Redistribution and use in source and binary forms, with or without modification, 
  13:..\u8g2\csrc/u8x8_d_hd44102.c ****   are permitted provided that the following conditions are met:
  14:..\u8g2\csrc/u8x8_d_hd44102.c **** 
  15:..\u8g2\csrc/u8x8_d_hd44102.c ****   * Redistributions of source code must retain the above copyright notice, this list 
  16:..\u8g2\csrc/u8x8_d_hd44102.c ****     of conditions and the following disclaimer.
  17:..\u8g2\csrc/u8x8_d_hd44102.c ****     
  18:..\u8g2\csrc/u8x8_d_hd44102.c ****   * Redistributions in binary form must reproduce the above copyright notice, this 
  19:..\u8g2\csrc/u8x8_d_hd44102.c ****     list of conditions and the following disclaimer in the documentation and/or other 
  20:..\u8g2\csrc/u8x8_d_hd44102.c ****     materials provided with the distribution.
  21:..\u8g2\csrc/u8x8_d_hd44102.c **** 
  22:..\u8g2\csrc/u8x8_d_hd44102.c ****   THIS SOFTWARE IS PROVIDED BY THE COPYRIGHT HOLDERS AND 
  23:..\u8g2\csrc/u8x8_d_hd44102.c ****   CONTRIBUTORS "AS IS" AND ANY EXPRESS OR IMPLIED WARRANTIES, 
  24:..\u8g2\csrc/u8x8_d_hd44102.c ****   INCLUDING, BUT NOT LIMITED TO, THE IMPLIED WARRANTIES OF 
  25:..\u8g2\csrc/u8x8_d_hd44102.c ****   MERCHANTABILITY AND FITNESS FOR A PARTICULAR PURPOSE ARE 
  26:..\u8g2\csrc/u8x8_d_hd44102.c ****   DISCLAIMED. IN NO EVENT SHALL THE COPYRIGHT HOLDER OR 
  27:..\u8g2\csrc/u8x8_d_hd44102.c ****   CONTRIBUTORS BE LIABLE FOR ANY DIRECT, INDIRECT, INCIDENTAL, 
  28:..\u8g2\csrc/u8x8_d_hd44102.c ****   SPECIAL, EXEMPLARY, OR CONSEQUENTIAL DAMAGES (INCLUDING, BUT 
  29:..\u8g2\csrc/u8x8_d_hd44102.c ****   NOT LIMITED TO, PROCUREMENT OF SUBSTITUTE GOODS OR SERVICES; 
  30:..\u8g2\csrc/u8x8_d_hd44102.c ****   LOSS OF USE, DATA, OR PROFITS; OR BUSINESS INTERRUPTION) HOWEVER 
  31:..\u8g2\csrc/u8x8_d_hd44102.c ****   CAUSED AND ON ANY THEORY OF LIABILITY, WHETHER IN CONTRACT, 
ARM GAS  C:\Users\brian\AppData\Local\Temp\ccVIu5fW.s 			page 2


  32:..\u8g2\csrc/u8x8_d_hd44102.c ****   STRICT LIABILITY, OR TORT (INCLUDING NEGLIGENCE OR OTHERWISE) 
  33:..\u8g2\csrc/u8x8_d_hd44102.c ****   ARISING IN ANY WAY OUT OF THE USE OF THIS SOFTWARE, EVEN IF 
  34:..\u8g2\csrc/u8x8_d_hd44102.c ****   ADVISED OF THE POSSIBILITY OF SUCH DAMAGE.  
  35:..\u8g2\csrc/u8x8_d_hd44102.c **** 
  36:..\u8g2\csrc/u8x8_d_hd44102.c ****   
  37:..\u8g2\csrc/u8x8_d_hd44102.c **** */
  38:..\u8g2\csrc/u8x8_d_hd44102.c **** #include "u8x8.h"
  39:..\u8g2\csrc/u8x8_d_hd44102.c **** 
  40:..\u8g2\csrc/u8x8_d_hd44102.c **** 
  41:..\u8g2\csrc/u8x8_d_hd44102.c **** 
  42:..\u8g2\csrc/u8x8_d_hd44102.c **** 
  43:..\u8g2\csrc/u8x8_d_hd44102.c **** static const uint8_t u8x8_d_hd44102_init_seq[] = {
  44:..\u8g2\csrc/u8x8_d_hd44102.c ****   U8X8_C(0x03b),		                /* upcount  */  
  45:..\u8g2\csrc/u8x8_d_hd44102.c ****   U8X8_C(0x03e),		                /* start at the top  */  
  46:..\u8g2\csrc/u8x8_d_hd44102.c ****   U8X8_END()             			/* end of sequence */
  47:..\u8g2\csrc/u8x8_d_hd44102.c **** };
  48:..\u8g2\csrc/u8x8_d_hd44102.c **** 
  49:..\u8g2\csrc/u8x8_d_hd44102.c **** static const uint8_t u8x8_d_hd44102_powersave0_seq[] = {
  50:..\u8g2\csrc/u8x8_d_hd44102.c ****   U8X8_C(0x039),		                /* display on */
  51:..\u8g2\csrc/u8x8_d_hd44102.c ****   U8X8_END()             			/* end of sequence */
  52:..\u8g2\csrc/u8x8_d_hd44102.c **** };
  53:..\u8g2\csrc/u8x8_d_hd44102.c **** 
  54:..\u8g2\csrc/u8x8_d_hd44102.c **** static const uint8_t u8x8_d_hd44102_powersave1_seq[] = {
  55:..\u8g2\csrc/u8x8_d_hd44102.c ****   U8X8_C(0x038),		                /* display off */
  56:..\u8g2\csrc/u8x8_d_hd44102.c ****   U8X8_END()             			/* end of sequence */
  57:..\u8g2\csrc/u8x8_d_hd44102.c **** };
  58:..\u8g2\csrc/u8x8_d_hd44102.c **** 
  59:..\u8g2\csrc/u8x8_d_hd44102.c **** /*
  60:..\u8g2\csrc/u8x8_d_hd44102.c ****   data: pointer to "cnt" bytes
  61:..\u8g2\csrc/u8x8_d_hd44102.c ****   cnt: number of bytes, which should be sent
  62:..\u8g2\csrc/u8x8_d_hd44102.c ****   page: 0..3: the current page within the display
  63:..\u8g2\csrc/u8x8_d_hd44102.c ****   offset: offset location on the display, where the data should be placed
  64:..\u8g2\csrc/u8x8_d_hd44102.c ****   cs_none: 3-bit chip select pattern for not selecting any display
  65:..\u8g2\csrc/u8x8_d_hd44102.c ****   cs0: 3-bit chip select pattern for the left display (0..49)
  66:..\u8g2\csrc/u8x8_d_hd44102.c ****   cs1: 3-bit chip select pattern for the middle display (50..99)
  67:..\u8g2\csrc/u8x8_d_hd44102.c ****   cs2: 3-bit chip select pattern for the right display (100..149)
  68:..\u8g2\csrc/u8x8_d_hd44102.c **** 
  69:..\u8g2\csrc/u8x8_d_hd44102.c ****   The csX bit pattern is:
  70:..\u8g2\csrc/u8x8_d_hd44102.c ****     bit 0: CS 
  71:..\u8g2\csrc/u8x8_d_hd44102.c ****     bit 1: CS1
  72:..\u8g2\csrc/u8x8_d_hd44102.c ****     bit 2: CS2
  73:..\u8g2\csrc/u8x8_d_hd44102.c ****     see u8x8_byte_set_ks0108_cs() in u8x8_byte.c
  74:..\u8g2\csrc/u8x8_d_hd44102.c **** 
  75:..\u8g2\csrc/u8x8_d_hd44102.c **** */
  76:..\u8g2\csrc/u8x8_d_hd44102.c **** static void u8x8_hd44102_outy(u8x8_t *u8x8, uint8_t *data, uint8_t cnt, uint8_t page, uint8_t offse
  77:..\u8g2\csrc/u8x8_d_hd44102.c **** {
  27              		.loc 1 77 0
  28              		.cfi_startproc
  29              		@ args = 20, pretend = 0, frame = 0
  30              		@ frame_needed = 0, uses_anonymous_args = 0
  31              	.LVL0:
  32 0000 2DE9F84F 		push	{r3, r4, r5, r6, r7, r8, r9, r10, fp, lr}
  33              		.cfi_def_cfa_offset 40
  34              		.cfi_offset 3, -40
  35              		.cfi_offset 4, -36
  36              		.cfi_offset 5, -32
  37              		.cfi_offset 6, -28
ARM GAS  C:\Users\brian\AppData\Local\Temp\ccVIu5fW.s 			page 3


  38              		.cfi_offset 7, -24
  39              		.cfi_offset 8, -20
  40              		.cfi_offset 9, -16
  41              		.cfi_offset 10, -12
  42              		.cfi_offset 11, -8
  43              		.cfi_offset 14, -4
  44 0004 0546     		mov	r5, r0
  45 0006 8846     		mov	r8, r1
  46 0008 1646     		mov	r6, r2
  47 000a 9946     		mov	r9, r3
  48 000c 9DF82840 		ldrb	r4, [sp, #40]	@ zero_extendqisi2
  49 0010 9DF82CB0 		ldrb	fp, [sp, #44]	@ zero_extendqisi2
  50              	.LVL1:
  78:..\u8g2\csrc/u8x8_d_hd44102.c ****   uint8_t pos = offset;
  79:..\u8g2\csrc/u8x8_d_hd44102.c ****   uint8_t data_cnt;
  80:..\u8g2\csrc/u8x8_d_hd44102.c ****   
  81:..\u8g2\csrc/u8x8_d_hd44102.c ****   /* write to left display? */
  82:..\u8g2\csrc/u8x8_d_hd44102.c ****   if ( pos < 50 && cnt > 0 )
  51              		.loc 1 82 0
  52 0014 312C     		cmp	r4, #49
  53 0016 2AD8     		bhi	.L2
  54              		.loc 1 82 0 is_stmt 0 discriminator 1
  55 0018 4AB3     		cbz	r2, .L2
  83:..\u8g2\csrc/u8x8_d_hd44102.c ****   {
  84:..\u8g2\csrc/u8x8_d_hd44102.c ****     /* calculate number of bytes to sent */
  85:..\u8g2\csrc/u8x8_d_hd44102.c ****     data_cnt = 50 - pos;
  56              		.loc 1 85 0 is_stmt 1
  57 001a C4F1320A 		rsb	r10, r4, #50
  58 001e 5FFA8AFA 		uxtb	r10, r10
  59              	.LVL2:
  86:..\u8g2\csrc/u8x8_d_hd44102.c ****     if ( data_cnt > cnt )
  60              		.loc 1 86 0
  61 0022 5245     		cmp	r2, r10
  62 0024 00D2     		bcs	.L3
  87:..\u8g2\csrc/u8x8_d_hd44102.c ****       data_cnt = cnt;
  63              		.loc 1 87 0
  64 0026 9246     		mov	r10, r2
  65              	.LVL3:
  66              	.L3:
  88:..\u8g2\csrc/u8x8_d_hd44102.c ****     if ( data_cnt > 50 )
  67              		.loc 1 88 0
  68 0028 BAF1320F 		cmp	r10, #50
  69 002c 01D9     		bls	.L4
  89:..\u8g2\csrc/u8x8_d_hd44102.c ****       data_cnt = 50;
  70              		.loc 1 89 0
  71 002e 4FF0320A 		mov	r10, #50
  72              	.LVL4:
  73              	.L4:
  90:..\u8g2\csrc/u8x8_d_hd44102.c **** 
  91:..\u8g2\csrc/u8x8_d_hd44102.c ****     /* sent the data */
  92:..\u8g2\csrc/u8x8_d_hd44102.c ****     u8x8->cad_cb(u8x8, U8X8_MSG_CAD_START_TRANSFER, cs0, NULL);
  74              		.loc 1 92 0
  75 0032 EF68     		ldr	r7, [r5, #12]
  76 0034 0023     		movs	r3, #0
  77              	.LVL5:
  78 0036 9DF83020 		ldrb	r2, [sp, #48]	@ zero_extendqisi2
  79              	.LVL6:
ARM GAS  C:\Users\brian\AppData\Local\Temp\ccVIu5fW.s 			page 4


  80 003a 1821     		movs	r1, #24
  81              	.LVL7:
  82 003c 2846     		mov	r0, r5
  83              	.LVL8:
  84 003e B847     		blx	r7
  85              	.LVL9:
  93:..\u8g2\csrc/u8x8_d_hd44102.c ****     u8x8_cad_SendCmd(u8x8, (page << 6) | pos );
  86              		.loc 1 93 0
  87 0040 44EA8911 		orr	r1, r4, r9, lsl #6
  88 0044 C9B2     		uxtb	r1, r1
  89 0046 2846     		mov	r0, r5
  90 0048 FFF7FEFF 		bl	u8x8_cad_SendCmd
  91              	.LVL10:
  94:..\u8g2\csrc/u8x8_d_hd44102.c ****     u8x8_cad_SendData(u8x8, data_cnt, data);
  92              		.loc 1 94 0
  93 004c 4246     		mov	r2, r8
  94 004e 5146     		mov	r1, r10
  95 0050 2846     		mov	r0, r5
  96 0052 FFF7FEFF 		bl	u8x8_cad_SendData
  97              	.LVL11:
  95:..\u8g2\csrc/u8x8_d_hd44102.c ****     u8x8->cad_cb(u8x8, U8X8_MSG_CAD_END_TRANSFER, cs_none, NULL); 
  98              		.loc 1 95 0
  99 0056 EF68     		ldr	r7, [r5, #12]
 100 0058 0023     		movs	r3, #0
 101 005a 5A46     		mov	r2, fp
 102 005c 1921     		movs	r1, #25
 103 005e 2846     		mov	r0, r5
 104 0060 B847     		blx	r7
 105              	.LVL12:
  96:..\u8g2\csrc/u8x8_d_hd44102.c **** 
  97:..\u8g2\csrc/u8x8_d_hd44102.c ****     /* adjust the data */
  98:..\u8g2\csrc/u8x8_d_hd44102.c ****     data += data_cnt;
 106              		.loc 1 98 0
 107 0062 D044     		add	r8, r8, r10
 108              	.LVL13:
  99:..\u8g2\csrc/u8x8_d_hd44102.c ****     pos += data_cnt;
 109              		.loc 1 99 0
 110 0064 5444     		add	r4, r4, r10
 111              	.LVL14:
 112 0066 E4B2     		uxtb	r4, r4
 100:..\u8g2\csrc/u8x8_d_hd44102.c ****     cnt -= data_cnt;
 113              		.loc 1 100 0
 114 0068 CAEB0606 		rsb	r6, r10, r6
 115 006c F6B2     		uxtb	r6, r6
 116              	.LVL15:
 117              	.L2:
 101:..\u8g2\csrc/u8x8_d_hd44102.c ****   }
 102:..\u8g2\csrc/u8x8_d_hd44102.c ****   
 103:..\u8g2\csrc/u8x8_d_hd44102.c ****   /* write to middle display? */
 104:..\u8g2\csrc/u8x8_d_hd44102.c ****   if ( pos < 100 && cnt > 0 )
 118              		.loc 1 104 0
 119 006e 632C     		cmp	r4, #99
 120 0070 2CD8     		bhi	.L5
 121              		.loc 1 104 0 is_stmt 0 discriminator 1
 122 0072 5EB3     		cbz	r6, .L5
 105:..\u8g2\csrc/u8x8_d_hd44102.c ****   {
 106:..\u8g2\csrc/u8x8_d_hd44102.c ****     /* calculate number of bytes to sent */
ARM GAS  C:\Users\brian\AppData\Local\Temp\ccVIu5fW.s 			page 5


 107:..\u8g2\csrc/u8x8_d_hd44102.c ****     data_cnt = 100 - pos;
 123              		.loc 1 107 0 is_stmt 1
 124 0074 C4F1640A 		rsb	r10, r4, #100
 125 0078 5FFA8AFA 		uxtb	r10, r10
 126              	.LVL16:
 108:..\u8g2\csrc/u8x8_d_hd44102.c ****     if ( data_cnt > cnt )
 127              		.loc 1 108 0
 128 007c 5645     		cmp	r6, r10
 129 007e 00D2     		bcs	.L6
 109:..\u8g2\csrc/u8x8_d_hd44102.c ****       data_cnt = cnt;
 130              		.loc 1 109 0
 131 0080 B246     		mov	r10, r6
 132              	.LVL17:
 133              	.L6:
 110:..\u8g2\csrc/u8x8_d_hd44102.c ****     if ( data_cnt > 50 )
 134              		.loc 1 110 0
 135 0082 BAF1320F 		cmp	r10, #50
 136 0086 01D9     		bls	.L7
 111:..\u8g2\csrc/u8x8_d_hd44102.c ****       data_cnt = 50;
 137              		.loc 1 111 0
 138 0088 4FF0320A 		mov	r10, #50
 139              	.LVL18:
 140              	.L7:
 112:..\u8g2\csrc/u8x8_d_hd44102.c **** 
 113:..\u8g2\csrc/u8x8_d_hd44102.c ****     /* sent the data */
 114:..\u8g2\csrc/u8x8_d_hd44102.c ****     u8x8->cad_cb(u8x8, U8X8_MSG_CAD_START_TRANSFER, cs1, NULL);
 141              		.loc 1 114 0
 142 008c EF68     		ldr	r7, [r5, #12]
 143 008e 0023     		movs	r3, #0
 144 0090 9DF83420 		ldrb	r2, [sp, #52]	@ zero_extendqisi2
 145 0094 1821     		movs	r1, #24
 146 0096 2846     		mov	r0, r5
 147 0098 B847     		blx	r7
 148              	.LVL19:
 115:..\u8g2\csrc/u8x8_d_hd44102.c ****     u8x8_cad_SendCmd(u8x8, (page << 6) | (pos-50) );
 149              		.loc 1 115 0
 150 009a A4F13201 		sub	r1, r4, #50
 151 009e 41EA8911 		orr	r1, r1, r9, lsl #6
 152 00a2 C9B2     		uxtb	r1, r1
 153 00a4 2846     		mov	r0, r5
 154 00a6 FFF7FEFF 		bl	u8x8_cad_SendCmd
 155              	.LVL20:
 116:..\u8g2\csrc/u8x8_d_hd44102.c ****     u8x8_cad_SendData(u8x8, data_cnt, data);
 156              		.loc 1 116 0
 157 00aa 4246     		mov	r2, r8
 158 00ac 5146     		mov	r1, r10
 159 00ae 2846     		mov	r0, r5
 160 00b0 FFF7FEFF 		bl	u8x8_cad_SendData
 161              	.LVL21:
 117:..\u8g2\csrc/u8x8_d_hd44102.c ****     u8x8->cad_cb(u8x8, U8X8_MSG_CAD_END_TRANSFER, cs_none, NULL); 
 162              		.loc 1 117 0
 163 00b4 EF68     		ldr	r7, [r5, #12]
 164 00b6 0023     		movs	r3, #0
 165 00b8 5A46     		mov	r2, fp
 166 00ba 1921     		movs	r1, #25
 167 00bc 2846     		mov	r0, r5
 168 00be B847     		blx	r7
ARM GAS  C:\Users\brian\AppData\Local\Temp\ccVIu5fW.s 			page 6


 169              	.LVL22:
 118:..\u8g2\csrc/u8x8_d_hd44102.c **** 
 119:..\u8g2\csrc/u8x8_d_hd44102.c ****     /* adjust the data */
 120:..\u8g2\csrc/u8x8_d_hd44102.c ****     data += data_cnt;
 170              		.loc 1 120 0
 171 00c0 D044     		add	r8, r8, r10
 172              	.LVL23:
 121:..\u8g2\csrc/u8x8_d_hd44102.c ****     pos += data_cnt;
 173              		.loc 1 121 0
 174 00c2 5444     		add	r4, r4, r10
 175              	.LVL24:
 176 00c4 E4B2     		uxtb	r4, r4
 122:..\u8g2\csrc/u8x8_d_hd44102.c ****     cnt -= data_cnt;
 177              		.loc 1 122 0
 178 00c6 CAEB0606 		rsb	r6, r10, r6
 179              	.LVL25:
 180 00ca F6B2     		uxtb	r6, r6
 181              	.LVL26:
 182              	.L5:
 123:..\u8g2\csrc/u8x8_d_hd44102.c ****   }
 124:..\u8g2\csrc/u8x8_d_hd44102.c ****   
 125:..\u8g2\csrc/u8x8_d_hd44102.c ****   /* write to right display? */
 126:..\u8g2\csrc/u8x8_d_hd44102.c ****   if ( pos < 150 && cnt > 0 )
 183              		.loc 1 126 0
 184 00cc 952C     		cmp	r4, #149
 185 00ce 23D8     		bhi	.L1
 186              		.loc 1 126 0 is_stmt 0 discriminator 1
 187 00d0 16B3     		cbz	r6, .L1
 127:..\u8g2\csrc/u8x8_d_hd44102.c ****   {
 128:..\u8g2\csrc/u8x8_d_hd44102.c ****     /* calculate number of bytes to sent */
 129:..\u8g2\csrc/u8x8_d_hd44102.c ****     data_cnt = 150 - pos;
 188              		.loc 1 129 0 is_stmt 1
 189 00d2 C4F19603 		rsb	r3, r4, #150
 190 00d6 DBB2     		uxtb	r3, r3
 191              	.LVL27:
 130:..\u8g2\csrc/u8x8_d_hd44102.c ****     if ( data_cnt > cnt )
 192              		.loc 1 130 0
 193 00d8 9E42     		cmp	r6, r3
 194 00da 00D3     		bcc	.L9
 195              	.LVL28:
 129:..\u8g2\csrc/u8x8_d_hd44102.c ****     if ( data_cnt > cnt )
 196              		.loc 1 129 0
 197 00dc 1E46     		mov	r6, r3
 198              	.LVL29:
 199              	.L9:
 131:..\u8g2\csrc/u8x8_d_hd44102.c ****       data_cnt = cnt;
 132:..\u8g2\csrc/u8x8_d_hd44102.c ****     if ( data_cnt > 50 )
 200              		.loc 1 132 0
 201 00de 322E     		cmp	r6, #50
 202 00e0 00D9     		bls	.L10
 203              	.LVL30:
 133:..\u8g2\csrc/u8x8_d_hd44102.c ****       data_cnt = 50;
 204              		.loc 1 133 0
 205 00e2 3226     		movs	r6, #50
 206              	.LVL31:
 207              	.L10:
 134:..\u8g2\csrc/u8x8_d_hd44102.c **** 
ARM GAS  C:\Users\brian\AppData\Local\Temp\ccVIu5fW.s 			page 7


 135:..\u8g2\csrc/u8x8_d_hd44102.c ****     /* sent the data */
 136:..\u8g2\csrc/u8x8_d_hd44102.c ****     u8x8->cad_cb(u8x8, U8X8_MSG_CAD_START_TRANSFER, cs2, NULL);
 208              		.loc 1 136 0
 209 00e4 EF68     		ldr	r7, [r5, #12]
 210 00e6 0023     		movs	r3, #0
 211 00e8 9DF83820 		ldrb	r2, [sp, #56]	@ zero_extendqisi2
 212 00ec 1821     		movs	r1, #24
 213 00ee 2846     		mov	r0, r5
 214 00f0 B847     		blx	r7
 215              	.LVL32:
 137:..\u8g2\csrc/u8x8_d_hd44102.c ****     u8x8_cad_SendCmd(u8x8, (page << 6) | (pos-100) );
 216              		.loc 1 137 0
 217 00f2 A4F16401 		sub	r1, r4, #100
 218 00f6 41EA8911 		orr	r1, r1, r9, lsl #6
 219 00fa C9B2     		uxtb	r1, r1
 220 00fc 2846     		mov	r0, r5
 221 00fe FFF7FEFF 		bl	u8x8_cad_SendCmd
 222              	.LVL33:
 138:..\u8g2\csrc/u8x8_d_hd44102.c ****     u8x8_cad_SendData(u8x8, data_cnt, data);
 223              		.loc 1 138 0
 224 0102 4246     		mov	r2, r8
 225 0104 3146     		mov	r1, r6
 226 0106 2846     		mov	r0, r5
 227 0108 FFF7FEFF 		bl	u8x8_cad_SendData
 228              	.LVL34:
 139:..\u8g2\csrc/u8x8_d_hd44102.c ****     u8x8->cad_cb(u8x8, U8X8_MSG_CAD_END_TRANSFER, cs_none, NULL); 
 229              		.loc 1 139 0
 230 010c EC68     		ldr	r4, [r5, #12]
 231              	.LVL35:
 232 010e 0023     		movs	r3, #0
 233 0110 5A46     		mov	r2, fp
 234 0112 1921     		movs	r1, #25
 235 0114 2846     		mov	r0, r5
 236 0116 A047     		blx	r4
 237              	.LVL36:
 238              	.L1:
 239 0118 BDE8F88F 		pop	{r3, r4, r5, r6, r7, r8, r9, r10, fp, pc}
 240              		.cfi_endproc
 241              	.LFE0:
 242              		.size	u8x8_hd44102_outy, .-u8x8_hd44102_outy
 243              		.section	.text.u8x8_d_t7932_150x32,"ax",%progbits
 244              		.align	2
 245              		.global	u8x8_d_t7932_150x32
 246              		.thumb
 247              		.thumb_func
 248              		.type	u8x8_d_t7932_150x32, %function
 249              	u8x8_d_t7932_150x32:
 250              	.LFB1:
 140:..\u8g2\csrc/u8x8_d_hd44102.c **** 
 141:..\u8g2\csrc/u8x8_d_hd44102.c ****     /* adjust the data */
 142:..\u8g2\csrc/u8x8_d_hd44102.c ****     data += data_cnt;
 143:..\u8g2\csrc/u8x8_d_hd44102.c ****     pos += data_cnt;
 144:..\u8g2\csrc/u8x8_d_hd44102.c ****     cnt -= data_cnt;
 145:..\u8g2\csrc/u8x8_d_hd44102.c ****   }
 146:..\u8g2\csrc/u8x8_d_hd44102.c **** }
 147:..\u8g2\csrc/u8x8_d_hd44102.c **** 
 148:..\u8g2\csrc/u8x8_d_hd44102.c **** 
ARM GAS  C:\Users\brian\AppData\Local\Temp\ccVIu5fW.s 			page 8


 149:..\u8g2\csrc/u8x8_d_hd44102.c **** 
 150:..\u8g2\csrc/u8x8_d_hd44102.c **** 
 151:..\u8g2\csrc/u8x8_d_hd44102.c **** static const u8x8_display_info_t u8x8_hd44102_150x32_display_info =
 152:..\u8g2\csrc/u8x8_d_hd44102.c **** {
 153:..\u8g2\csrc/u8x8_d_hd44102.c ****   /* chip_enable_level = */ 0,		/* KS0108/HD44102: Not used */
 154:..\u8g2\csrc/u8x8_d_hd44102.c ****   /* chip_disable_level = */ 1,		/* KS0108/HD44102: Not used */
 155:..\u8g2\csrc/u8x8_d_hd44102.c ****   
 156:..\u8g2\csrc/u8x8_d_hd44102.c ****   /* post_chip_enable_wait_ns = */ 100,
 157:..\u8g2\csrc/u8x8_d_hd44102.c ****   /* pre_chip_disable_wait_ns = */ 20,
 158:..\u8g2\csrc/u8x8_d_hd44102.c ****   /* reset_pulse_width_ms = */ 1, 
 159:..\u8g2\csrc/u8x8_d_hd44102.c ****   /* post_reset_wait_ms = */ 6, 	
 160:..\u8g2\csrc/u8x8_d_hd44102.c ****   /* sda_setup_time_ns = */ 12,		
 161:..\u8g2\csrc/u8x8_d_hd44102.c ****   /* sck_pulse_width_ns = */ 75,	/* KS0108/HD44102: Not used */
 162:..\u8g2\csrc/u8x8_d_hd44102.c ****   /* sck_clock_hz = */ 4000000UL,	/* KS0108/HD44102: Not used */
 163:..\u8g2\csrc/u8x8_d_hd44102.c ****   /* spi_mode = */ 0,				/* active high, rising edge */
 164:..\u8g2\csrc/u8x8_d_hd44102.c ****   /* i2c_bus_clock_100kHz = */ 4,	/* KS0108/HD44102: Not used */
 165:..\u8g2\csrc/u8x8_d_hd44102.c ****   /* data_setup_time_ns = */ 200,
 166:..\u8g2\csrc/u8x8_d_hd44102.c ****   /* write_pulse_width_ns = */ 250,	/* KS0108/HD44102: actially 450 ns, but additional 200 ns are a
 167:..\u8g2\csrc/u8x8_d_hd44102.c ****   /* tile_width = */ 19,		/* width of 19*8=152 pixel */
 168:..\u8g2\csrc/u8x8_d_hd44102.c ****   /* tile_hight = */ 4,
 169:..\u8g2\csrc/u8x8_d_hd44102.c ****   /* default_x_offset = */ 0,
 170:..\u8g2\csrc/u8x8_d_hd44102.c ****   /* flipmode_x_offset = */ 0,
 171:..\u8g2\csrc/u8x8_d_hd44102.c ****   /* pixel_width = */ 150,
 172:..\u8g2\csrc/u8x8_d_hd44102.c ****   /* pixel_height = */ 32
 173:..\u8g2\csrc/u8x8_d_hd44102.c **** };
 174:..\u8g2\csrc/u8x8_d_hd44102.c **** 
 175:..\u8g2\csrc/u8x8_d_hd44102.c **** //uint8_t u8x8_d_hd44102_150x32(u8x8_t *u8x8, uint8_t msg, uint8_t arg_int, void *arg_ptr)
 176:..\u8g2\csrc/u8x8_d_hd44102.c **** 
 177:..\u8g2\csrc/u8x8_d_hd44102.c **** uint8_t u8x8_d_t7932_150x32(u8x8_t *u8x8, uint8_t msg, uint8_t arg_int, void *arg_ptr)
 178:..\u8g2\csrc/u8x8_d_hd44102.c **** {
 251              		.loc 1 178 0
 252              		.cfi_startproc
 253              		@ args = 0, pretend = 0, frame = 8
 254              		@ frame_needed = 0, uses_anonymous_args = 0
 255              	.LVL37:
 256 0000 2DE9F041 		push	{r4, r5, r6, r7, r8, lr}
 257              		.cfi_def_cfa_offset 24
 258              		.cfi_offset 4, -24
 259              		.cfi_offset 5, -20
 260              		.cfi_offset 6, -16
 261              		.cfi_offset 7, -12
 262              		.cfi_offset 8, -8
 263              		.cfi_offset 14, -4
 264 0004 88B0     		sub	sp, sp, #32
 265              		.cfi_def_cfa_offset 56
 266 0006 0646     		mov	r6, r0
 267 0008 1446     		mov	r4, r2
 268 000a 1F46     		mov	r7, r3
 179:..\u8g2\csrc/u8x8_d_hd44102.c ****   uint8_t cs[4] = {1, 2, 4, 0};
 269              		.loc 1 179 0
 270 000c 3A4B     		ldr	r3, .L33
 271              	.LVL38:
 272 000e 1868     		ldr	r0, [r3]	@ unaligned
 273              	.LVL39:
 274 0010 0790     		str	r0, [sp, #28]	@ unaligned
 180:..\u8g2\csrc/u8x8_d_hd44102.c ****   uint8_t i;
 181:..\u8g2\csrc/u8x8_d_hd44102.c ****   uint8_t x, cnt;
ARM GAS  C:\Users\brian\AppData\Local\Temp\ccVIu5fW.s 			page 9


 182:..\u8g2\csrc/u8x8_d_hd44102.c ****   switch(msg)
 275              		.loc 1 182 0
 276 0012 0939     		subs	r1, r1, #9
 277              	.LVL40:
 278 0014 0629     		cmp	r1, #6
 279 0016 6AD8     		bhi	.L30
 280 0018 DFE801F0 		tbb	[pc, r1]
 281              	.L20:
 282 001c 04       		.byte	(.L19-.L20)/2
 283 001d 0A       		.byte	(.L21-.L20)/2
 284 001e 44       		.byte	(.L31-.L20)/2
 285 001f 69       		.byte	(.L30-.L20)/2
 286 0020 69       		.byte	(.L30-.L20)/2
 287 0021 69       		.byte	(.L30-.L20)/2
 288 0022 49       		.byte	(.L23-.L20)/2
 289 0023 00       		.p2align 1
 290              	.L19:
 183:..\u8g2\csrc/u8x8_d_hd44102.c ****   {
 184:..\u8g2\csrc/u8x8_d_hd44102.c ****     case U8X8_MSG_DISPLAY_SETUP_MEMORY:
 185:..\u8g2\csrc/u8x8_d_hd44102.c ****       u8x8_d_helper_display_setup_memory(u8x8, &u8x8_hd44102_150x32_display_info);
 291              		.loc 1 185 0
 292 0024 3549     		ldr	r1, .L33+4
 293 0026 3046     		mov	r0, r6
 294 0028 FFF7FEFF 		bl	u8x8_d_helper_display_setup_memory
 295              	.LVL41:
 186:..\u8g2\csrc/u8x8_d_hd44102.c ****       break;
 187:..\u8g2\csrc/u8x8_d_hd44102.c ****     case U8X8_MSG_DISPLAY_INIT:
 188:..\u8g2\csrc/u8x8_d_hd44102.c ****       u8x8_d_helper_display_init(u8x8);
 189:..\u8g2\csrc/u8x8_d_hd44102.c **** 
 190:..\u8g2\csrc/u8x8_d_hd44102.c ****       for( i = 0; i < 3; i++ )
 191:..\u8g2\csrc/u8x8_d_hd44102.c ****       {
 192:..\u8g2\csrc/u8x8_d_hd44102.c ****         u8x8->cad_cb(u8x8, U8X8_MSG_CAD_START_TRANSFER, cs[i], NULL);
 193:..\u8g2\csrc/u8x8_d_hd44102.c ****         u8x8_cad_SendSequence(u8x8, u8x8_d_hd44102_init_seq);
 194:..\u8g2\csrc/u8x8_d_hd44102.c ****         u8x8->cad_cb(u8x8, U8X8_MSG_CAD_END_TRANSFER, cs[3], NULL);
 195:..\u8g2\csrc/u8x8_d_hd44102.c ****       }
 196:..\u8g2\csrc/u8x8_d_hd44102.c ****     
 197:..\u8g2\csrc/u8x8_d_hd44102.c ****       break;
 198:..\u8g2\csrc/u8x8_d_hd44102.c ****     case U8X8_MSG_DISPLAY_SET_POWER_SAVE:
 199:..\u8g2\csrc/u8x8_d_hd44102.c ****       
 200:..\u8g2\csrc/u8x8_d_hd44102.c ****       for( i = 0; i < 3; i++ )
 201:..\u8g2\csrc/u8x8_d_hd44102.c ****       {
 202:..\u8g2\csrc/u8x8_d_hd44102.c ****         u8x8->cad_cb(u8x8, U8X8_MSG_CAD_START_TRANSFER, cs[i], NULL);
 203:..\u8g2\csrc/u8x8_d_hd44102.c ****         if ( arg_int == 0 )
 204:..\u8g2\csrc/u8x8_d_hd44102.c ****         {
 205:..\u8g2\csrc/u8x8_d_hd44102.c ****           u8x8_cad_SendSequence(u8x8, u8x8_d_hd44102_powersave0_seq);
 206:..\u8g2\csrc/u8x8_d_hd44102.c ****         }
 207:..\u8g2\csrc/u8x8_d_hd44102.c ****         else
 208:..\u8g2\csrc/u8x8_d_hd44102.c ****         {
 209:..\u8g2\csrc/u8x8_d_hd44102.c ****           u8x8_cad_SendSequence(u8x8, u8x8_d_hd44102_powersave1_seq);
 210:..\u8g2\csrc/u8x8_d_hd44102.c ****         }
 211:..\u8g2\csrc/u8x8_d_hd44102.c ****         u8x8->cad_cb(u8x8, U8X8_MSG_CAD_END_TRANSFER, cs[3], NULL);	
 212:..\u8g2\csrc/u8x8_d_hd44102.c ****       }
 213:..\u8g2\csrc/u8x8_d_hd44102.c ****       break;
 214:..\u8g2\csrc/u8x8_d_hd44102.c **** // The HD44102 can not mirror the cols and rows, use U8g2 for rotation
 215:..\u8g2\csrc/u8x8_d_hd44102.c **** //    case U8X8_MSG_DISPLAY_SET_FLIP_MODE:
 216:..\u8g2\csrc/u8x8_d_hd44102.c **** //      break;
 217:..\u8g2\csrc/u8x8_d_hd44102.c **** // The HD44102 has no internal contrast command
ARM GAS  C:\Users\brian\AppData\Local\Temp\ccVIu5fW.s 			page 10


 218:..\u8g2\csrc/u8x8_d_hd44102.c **** //    case U8X8_MSG_DISPLAY_SET_CONTRAST:
 219:..\u8g2\csrc/u8x8_d_hd44102.c **** //      break;
 220:..\u8g2\csrc/u8x8_d_hd44102.c ****     case U8X8_MSG_DISPLAY_DRAW_TILE:
 221:..\u8g2\csrc/u8x8_d_hd44102.c ****       x = ((u8x8_tile_t *)arg_ptr)->x_pos;
 222:..\u8g2\csrc/u8x8_d_hd44102.c ****       cnt = ((u8x8_tile_t *)arg_ptr)->cnt;
 223:..\u8g2\csrc/u8x8_d_hd44102.c ****       x*=8;
 224:..\u8g2\csrc/u8x8_d_hd44102.c ****       cnt*=8;
 225:..\u8g2\csrc/u8x8_d_hd44102.c ****     
 226:..\u8g2\csrc/u8x8_d_hd44102.c ****       do
 227:..\u8g2\csrc/u8x8_d_hd44102.c ****       {
 228:..\u8g2\csrc/u8x8_d_hd44102.c ****         u8x8_hd44102_outy(u8x8, 
 229:..\u8g2\csrc/u8x8_d_hd44102.c ****           ((u8x8_tile_t *)arg_ptr)->tile_ptr, 
 230:..\u8g2\csrc/u8x8_d_hd44102.c ****           cnt, 
 231:..\u8g2\csrc/u8x8_d_hd44102.c ****           ((u8x8_tile_t *)arg_ptr)->y_pos, 
 232:..\u8g2\csrc/u8x8_d_hd44102.c ****           x, 
 233:..\u8g2\csrc/u8x8_d_hd44102.c ****           cs[3], cs[0], cs[1], cs[2]);
 234:..\u8g2\csrc/u8x8_d_hd44102.c ****         arg_int--;
 235:..\u8g2\csrc/u8x8_d_hd44102.c ****         x += cnt;
 236:..\u8g2\csrc/u8x8_d_hd44102.c ****       } while (arg_int > 0);
 237:..\u8g2\csrc/u8x8_d_hd44102.c ****     
 238:..\u8g2\csrc/u8x8_d_hd44102.c ****     
 239:..\u8g2\csrc/u8x8_d_hd44102.c ****       break;
 240:..\u8g2\csrc/u8x8_d_hd44102.c ****     default:
 241:..\u8g2\csrc/u8x8_d_hd44102.c ****       return 0;
 242:..\u8g2\csrc/u8x8_d_hd44102.c ****   }
 243:..\u8g2\csrc/u8x8_d_hd44102.c ****   return 1;
 296              		.loc 1 243 0
 297 002c 0120     		movs	r0, #1
 186:..\u8g2\csrc/u8x8_d_hd44102.c ****       break;
 298              		.loc 1 186 0
 299 002e 5FE0     		b	.L18
 300              	.LVL42:
 301              	.L21:
 188:..\u8g2\csrc/u8x8_d_hd44102.c **** 
 302              		.loc 1 188 0
 303 0030 3046     		mov	r0, r6
 304 0032 FFF7FEFF 		bl	u8x8_d_helper_display_init
 305              	.LVL43:
 190:..\u8g2\csrc/u8x8_d_hd44102.c ****       {
 306              		.loc 1 190 0
 307 0036 0024     		movs	r4, #0
 308 0038 14E0     		b	.L24
 309              	.LVL44:
 310              	.L25:
 192:..\u8g2\csrc/u8x8_d_hd44102.c ****         u8x8_cad_SendSequence(u8x8, u8x8_d_hd44102_init_seq);
 311              		.loc 1 192 0 discriminator 3
 312 003a F568     		ldr	r5, [r6, #12]
 313 003c 08AB     		add	r3, sp, #32
 314 003e 1A19     		adds	r2, r3, r4
 315 0040 0023     		movs	r3, #0
 316 0042 12F8042C 		ldrb	r2, [r2, #-4]	@ zero_extendqisi2
 317 0046 1821     		movs	r1, #24
 318 0048 3046     		mov	r0, r6
 319 004a A847     		blx	r5
 320              	.LVL45:
 193:..\u8g2\csrc/u8x8_d_hd44102.c ****         u8x8->cad_cb(u8x8, U8X8_MSG_CAD_END_TRANSFER, cs[3], NULL);
 321              		.loc 1 193 0 discriminator 3
ARM GAS  C:\Users\brian\AppData\Local\Temp\ccVIu5fW.s 			page 11


 322 004c 2C49     		ldr	r1, .L33+8
 323 004e 3046     		mov	r0, r6
 324 0050 FFF7FEFF 		bl	u8x8_cad_SendSequence
 325              	.LVL46:
 194:..\u8g2\csrc/u8x8_d_hd44102.c ****       }
 326              		.loc 1 194 0 discriminator 3
 327 0054 F568     		ldr	r5, [r6, #12]
 328 0056 0023     		movs	r3, #0
 329 0058 1A46     		mov	r2, r3
 330 005a 1921     		movs	r1, #25
 331 005c 3046     		mov	r0, r6
 332 005e A847     		blx	r5
 333              	.LVL47:
 190:..\u8g2\csrc/u8x8_d_hd44102.c ****       {
 334              		.loc 1 190 0 discriminator 3
 335 0060 0134     		adds	r4, r4, #1
 336              	.LVL48:
 337 0062 E4B2     		uxtb	r4, r4
 338              	.LVL49:
 339              	.L24:
 190:..\u8g2\csrc/u8x8_d_hd44102.c ****       {
 340              		.loc 1 190 0 is_stmt 0 discriminator 1
 341 0064 022C     		cmp	r4, #2
 342 0066 E8D9     		bls	.L25
 343              		.loc 1 243 0 is_stmt 1
 344 0068 0120     		movs	r0, #1
 345 006a 41E0     		b	.L18
 346              	.LVL50:
 347              	.L28:
 202:..\u8g2\csrc/u8x8_d_hd44102.c ****         if ( arg_int == 0 )
 348              		.loc 1 202 0
 349 006c F768     		ldr	r7, [r6, #12]
 350 006e 0023     		movs	r3, #0
 351 0070 08AA     		add	r2, sp, #32
 352 0072 2A44     		add	r2, r2, r5
 353 0074 12F8042C 		ldrb	r2, [r2, #-4]	@ zero_extendqisi2
 354 0078 1821     		movs	r1, #24
 355 007a 3046     		mov	r0, r6
 356 007c B847     		blx	r7
 357              	.LVL51:
 203:..\u8g2\csrc/u8x8_d_hd44102.c ****         {
 358              		.loc 1 203 0
 359 007e 24B9     		cbnz	r4, .L26
 205:..\u8g2\csrc/u8x8_d_hd44102.c ****         }
 360              		.loc 1 205 0
 361 0080 2049     		ldr	r1, .L33+12
 362 0082 3046     		mov	r0, r6
 363 0084 FFF7FEFF 		bl	u8x8_cad_SendSequence
 364              	.LVL52:
 365 0088 03E0     		b	.L27
 366              	.L26:
 209:..\u8g2\csrc/u8x8_d_hd44102.c ****         }
 367              		.loc 1 209 0
 368 008a 1F49     		ldr	r1, .L33+16
 369 008c 3046     		mov	r0, r6
 370 008e FFF7FEFF 		bl	u8x8_cad_SendSequence
 371              	.LVL53:
ARM GAS  C:\Users\brian\AppData\Local\Temp\ccVIu5fW.s 			page 12


 372              	.L27:
 211:..\u8g2\csrc/u8x8_d_hd44102.c ****       }
 373              		.loc 1 211 0 discriminator 2
 374 0092 F768     		ldr	r7, [r6, #12]
 375 0094 0023     		movs	r3, #0
 376 0096 1A46     		mov	r2, r3
 377 0098 1921     		movs	r1, #25
 378 009a 3046     		mov	r0, r6
 379 009c B847     		blx	r7
 380              	.LVL54:
 200:..\u8g2\csrc/u8x8_d_hd44102.c ****       {
 381              		.loc 1 200 0 discriminator 2
 382 009e 0135     		adds	r5, r5, #1
 383              	.LVL55:
 384 00a0 EDB2     		uxtb	r5, r5
 385              	.LVL56:
 386 00a2 00E0     		b	.L22
 387              	.LVL57:
 388              	.L31:
 182:..\u8g2\csrc/u8x8_d_hd44102.c ****   {
 389              		.loc 1 182 0
 390 00a4 0025     		movs	r5, #0
 391              	.LVL58:
 392              	.L22:
 200:..\u8g2\csrc/u8x8_d_hd44102.c ****       {
 393              		.loc 1 200 0 discriminator 1
 394 00a6 022D     		cmp	r5, #2
 395 00a8 E0D9     		bls	.L28
 396              		.loc 1 243 0
 397 00aa 0120     		movs	r0, #1
 398 00ac 20E0     		b	.L18
 399              	.LVL59:
 400              	.L23:
 221:..\u8g2\csrc/u8x8_d_hd44102.c ****       cnt = ((u8x8_tile_t *)arg_ptr)->cnt;
 401              		.loc 1 221 0
 402 00ae 7D79     		ldrb	r5, [r7, #5]	@ zero_extendqisi2
 403              	.LVL60:
 222:..\u8g2\csrc/u8x8_d_hd44102.c ****       x*=8;
 404              		.loc 1 222 0
 405 00b0 97F80480 		ldrb	r8, [r7, #4]	@ zero_extendqisi2
 406              	.LVL61:
 223:..\u8g2\csrc/u8x8_d_hd44102.c ****       cnt*=8;
 407              		.loc 1 223 0
 408 00b4 ED00     		lsls	r5, r5, #3
 409              	.LVL62:
 410 00b6 EDB2     		uxtb	r5, r5
 411              	.LVL63:
 224:..\u8g2\csrc/u8x8_d_hd44102.c ****     
 412              		.loc 1 224 0
 413 00b8 4FEAC808 		lsl	r8, r8, #3
 414              	.LVL64:
 415 00bc 5FFA88F8 		uxtb	r8, r8
 416              	.LVL65:
 417              	.L29:
 228:..\u8g2\csrc/u8x8_d_hd44102.c ****           ((u8x8_tile_t *)arg_ptr)->tile_ptr, 
 418              		.loc 1 228 0 discriminator 1
 419 00c0 BB79     		ldrb	r3, [r7, #6]	@ zero_extendqisi2
ARM GAS  C:\Users\brian\AppData\Local\Temp\ccVIu5fW.s 			page 13


 420 00c2 0422     		movs	r2, #4
 421 00c4 0492     		str	r2, [sp, #16]
 422 00c6 0222     		movs	r2, #2
 423 00c8 0392     		str	r2, [sp, #12]
 424 00ca 0122     		movs	r2, #1
 425 00cc 0292     		str	r2, [sp, #8]
 426 00ce 0022     		movs	r2, #0
 427 00d0 0192     		str	r2, [sp, #4]
 428 00d2 0095     		str	r5, [sp]
 429 00d4 4246     		mov	r2, r8
 430 00d6 3968     		ldr	r1, [r7]
 431 00d8 3046     		mov	r0, r6
 432 00da FFF7FEFF 		bl	u8x8_hd44102_outy
 433              	.LVL66:
 234:..\u8g2\csrc/u8x8_d_hd44102.c ****         x += cnt;
 434              		.loc 1 234 0 discriminator 1
 435 00de 621E     		subs	r2, r4, #1
 436              	.LVL67:
 235:..\u8g2\csrc/u8x8_d_hd44102.c ****       } while (arg_int > 0);
 437              		.loc 1 235 0 discriminator 1
 438 00e0 4544     		add	r5, r5, r8
 439              	.LVL68:
 440 00e2 EDB2     		uxtb	r5, r5
 441              	.LVL69:
 236:..\u8g2\csrc/u8x8_d_hd44102.c ****     
 442              		.loc 1 236 0 discriminator 1
 443 00e4 12F0FF04 		ands	r4, r2, #255
 444 00e8 EAD1     		bne	.L29
 445              		.loc 1 243 0
 446 00ea 0120     		movs	r0, #1
 447 00ec 00E0     		b	.L18
 448              	.LVL70:
 449              	.L30:
 241:..\u8g2\csrc/u8x8_d_hd44102.c ****   }
 450              		.loc 1 241 0
 451 00ee 0020     		movs	r0, #0
 452              	.LVL71:
 453              	.L18:
 244:..\u8g2\csrc/u8x8_d_hd44102.c **** }
 454              		.loc 1 244 0
 455 00f0 08B0     		add	sp, sp, #32
 456              		.cfi_def_cfa_offset 24
 457              		@ sp needed
 458 00f2 BDE8F081 		pop	{r4, r5, r6, r7, r8, pc}
 459              	.LVL72:
 460              	.L34:
 461 00f6 00BF     		.align	2
 462              	.L33:
 463 00f8 00000000 		.word	.LANCHOR0
 464 00fc 04000000 		.word	.LANCHOR0+4
 465 0100 1C000000 		.word	.LANCHOR0+28
 466 0104 24000000 		.word	.LANCHOR0+36
 467 0108 28000000 		.word	.LANCHOR0+40
 468              		.cfi_endproc
 469              	.LFE1:
 470              		.size	u8x8_d_t7932_150x32, .-u8x8_d_t7932_150x32
 471              		.section	.text.u8x8_d_hd44102_100x64,"ax",%progbits
ARM GAS  C:\Users\brian\AppData\Local\Temp\ccVIu5fW.s 			page 14


 472              		.align	2
 473              		.global	u8x8_d_hd44102_100x64
 474              		.thumb
 475              		.thumb_func
 476              		.type	u8x8_d_hd44102_100x64, %function
 477              	u8x8_d_hd44102_100x64:
 478              	.LFB2:
 245:..\u8g2\csrc/u8x8_d_hd44102.c **** 
 246:..\u8g2\csrc/u8x8_d_hd44102.c **** static const u8x8_display_info_t u8x8_hd44102_100x64_display_info =
 247:..\u8g2\csrc/u8x8_d_hd44102.c **** {
 248:..\u8g2\csrc/u8x8_d_hd44102.c ****   /* chip_enable_level = */ 0,		/* KS0108/HD44102: Not used */
 249:..\u8g2\csrc/u8x8_d_hd44102.c ****   /* chip_disable_level = */ 1,		/* KS0108/HD44102: Not used */
 250:..\u8g2\csrc/u8x8_d_hd44102.c ****   
 251:..\u8g2\csrc/u8x8_d_hd44102.c ****   /* post_chip_enable_wait_ns = */ 100,
 252:..\u8g2\csrc/u8x8_d_hd44102.c ****   /* pre_chip_disable_wait_ns = */ 20,
 253:..\u8g2\csrc/u8x8_d_hd44102.c ****   /* reset_pulse_width_ms = */ 1, 
 254:..\u8g2\csrc/u8x8_d_hd44102.c ****   /* post_reset_wait_ms = */ 6, 	
 255:..\u8g2\csrc/u8x8_d_hd44102.c ****   /* sda_setup_time_ns = */ 12,		
 256:..\u8g2\csrc/u8x8_d_hd44102.c ****   /* sck_pulse_width_ns = */ 75,	/* KS0108/HD44102: Not used */
 257:..\u8g2\csrc/u8x8_d_hd44102.c ****   /* sck_clock_hz = */ 4000000UL,	/* KS0108/HD44102: Not used */
 258:..\u8g2\csrc/u8x8_d_hd44102.c ****   /* spi_mode = */ 0,				/* active high, rising edge */
 259:..\u8g2\csrc/u8x8_d_hd44102.c ****   /* i2c_bus_clock_100kHz = */ 4,	/* KS0108/HD44102: Not used */
 260:..\u8g2\csrc/u8x8_d_hd44102.c ****   /* data_setup_time_ns = */ 200,
 261:..\u8g2\csrc/u8x8_d_hd44102.c ****   /* write_pulse_width_ns = */ 250,	/* KS0108/HD44102: actially 450 ns, but additional 200 ns are a
 262:..\u8g2\csrc/u8x8_d_hd44102.c ****   /* tile_width = */ 13,		/* width of 13*8=104 pixel */
 263:..\u8g2\csrc/u8x8_d_hd44102.c ****   /* tile_hight = */ 8,
 264:..\u8g2\csrc/u8x8_d_hd44102.c ****   /* default_x_offset = */ 0,
 265:..\u8g2\csrc/u8x8_d_hd44102.c ****   /* flipmode_x_offset = */ 0,
 266:..\u8g2\csrc/u8x8_d_hd44102.c ****   /* pixel_width = */ 100,
 267:..\u8g2\csrc/u8x8_d_hd44102.c ****   /* pixel_height = */ 64
 268:..\u8g2\csrc/u8x8_d_hd44102.c **** };
 269:..\u8g2\csrc/u8x8_d_hd44102.c **** 
 270:..\u8g2\csrc/u8x8_d_hd44102.c **** uint8_t u8x8_d_hd44102_100x64(u8x8_t *u8x8, uint8_t msg, uint8_t arg_int, void *arg_ptr)
 271:..\u8g2\csrc/u8x8_d_hd44102.c **** {
 479              		.loc 1 271 0
 480              		.cfi_startproc
 481              		@ args = 0, pretend = 0, frame = 0
 482              		@ frame_needed = 0, uses_anonymous_args = 0
 483              	.LVL73:
 484 0000 2DE9F043 		push	{r4, r5, r6, r7, r8, r9, lr}
 485              		.cfi_def_cfa_offset 28
 486              		.cfi_offset 4, -28
 487              		.cfi_offset 5, -24
 488              		.cfi_offset 6, -20
 489              		.cfi_offset 7, -16
 490              		.cfi_offset 8, -12
 491              		.cfi_offset 9, -8
 492              		.cfi_offset 14, -4
 493 0004 87B0     		sub	sp, sp, #28
 494              		.cfi_def_cfa_offset 56
 495 0006 0646     		mov	r6, r0
 496 0008 1446     		mov	r4, r2
 497 000a 9846     		mov	r8, r3
 272:..\u8g2\csrc/u8x8_d_hd44102.c ****   uint8_t i;
 273:..\u8g2\csrc/u8x8_d_hd44102.c ****   uint8_t x, cnt, page;
 274:..\u8g2\csrc/u8x8_d_hd44102.c ****   switch(msg)
 498              		.loc 1 274 0
ARM GAS  C:\Users\brian\AppData\Local\Temp\ccVIu5fW.s 			page 15


 499 000c 0939     		subs	r1, r1, #9
 500              	.LVL74:
 501 000e 0629     		cmp	r1, #6
 502 0010 7FD8     		bhi	.L49
 503 0012 DFE801F0 		tbb	[pc, r1]
 504              	.LVL75:
 505              	.L38:
 506 0016 04       		.byte	(.L37-.L38)/2
 507 0017 09       		.byte	(.L39-.L38)/2
 508 0018 3C       		.byte	(.L50-.L38)/2
 509 0019 7E       		.byte	(.L49-.L38)/2
 510 001a 7E       		.byte	(.L49-.L38)/2
 511 001b 7E       		.byte	(.L49-.L38)/2
 512 001c 41       		.byte	(.L41-.L38)/2
 513 001d 00       		.p2align 1
 514              	.L37:
 275:..\u8g2\csrc/u8x8_d_hd44102.c ****   {
 276:..\u8g2\csrc/u8x8_d_hd44102.c ****     case U8X8_MSG_DISPLAY_SETUP_MEMORY:
 277:..\u8g2\csrc/u8x8_d_hd44102.c ****       u8x8_d_helper_display_setup_memory(u8x8, &u8x8_hd44102_100x64_display_info);
 515              		.loc 1 277 0
 516 001e 3F49     		ldr	r1, .L52
 517 0020 FFF7FEFF 		bl	u8x8_d_helper_display_setup_memory
 518              	.LVL76:
 278:..\u8g2\csrc/u8x8_d_hd44102.c ****       break;
 279:..\u8g2\csrc/u8x8_d_hd44102.c ****     case U8X8_MSG_DISPLAY_INIT:
 280:..\u8g2\csrc/u8x8_d_hd44102.c ****       u8x8_d_helper_display_init(u8x8);
 281:..\u8g2\csrc/u8x8_d_hd44102.c **** 
 282:..\u8g2\csrc/u8x8_d_hd44102.c ****       for( i = 0; i < 4; i++ )
 283:..\u8g2\csrc/u8x8_d_hd44102.c ****       {
 284:..\u8g2\csrc/u8x8_d_hd44102.c ****         u8x8->cad_cb(u8x8, U8X8_MSG_CAD_START_TRANSFER, i, NULL);
 285:..\u8g2\csrc/u8x8_d_hd44102.c ****         u8x8_cad_SendSequence(u8x8, u8x8_d_hd44102_init_seq);
 286:..\u8g2\csrc/u8x8_d_hd44102.c ****         u8x8->cad_cb(u8x8, U8X8_MSG_CAD_END_TRANSFER, 7, NULL);
 287:..\u8g2\csrc/u8x8_d_hd44102.c ****       }
 288:..\u8g2\csrc/u8x8_d_hd44102.c ****     
 289:..\u8g2\csrc/u8x8_d_hd44102.c ****       break;
 290:..\u8g2\csrc/u8x8_d_hd44102.c ****     case U8X8_MSG_DISPLAY_SET_POWER_SAVE:
 291:..\u8g2\csrc/u8x8_d_hd44102.c ****       
 292:..\u8g2\csrc/u8x8_d_hd44102.c ****       for( i = 0; i < 4; i++ )
 293:..\u8g2\csrc/u8x8_d_hd44102.c ****       {
 294:..\u8g2\csrc/u8x8_d_hd44102.c ****         u8x8->cad_cb(u8x8, U8X8_MSG_CAD_START_TRANSFER, i, NULL);
 295:..\u8g2\csrc/u8x8_d_hd44102.c ****         if ( arg_int == 0 )
 296:..\u8g2\csrc/u8x8_d_hd44102.c ****         {
 297:..\u8g2\csrc/u8x8_d_hd44102.c ****           u8x8_cad_SendSequence(u8x8, u8x8_d_hd44102_powersave0_seq);
 298:..\u8g2\csrc/u8x8_d_hd44102.c ****         }
 299:..\u8g2\csrc/u8x8_d_hd44102.c ****         else
 300:..\u8g2\csrc/u8x8_d_hd44102.c ****         {
 301:..\u8g2\csrc/u8x8_d_hd44102.c ****           u8x8_cad_SendSequence(u8x8, u8x8_d_hd44102_powersave1_seq);
 302:..\u8g2\csrc/u8x8_d_hd44102.c ****         }
 303:..\u8g2\csrc/u8x8_d_hd44102.c ****         u8x8->cad_cb(u8x8, U8X8_MSG_CAD_END_TRANSFER, 7, NULL);	
 304:..\u8g2\csrc/u8x8_d_hd44102.c ****       }
 305:..\u8g2\csrc/u8x8_d_hd44102.c ****       break;
 306:..\u8g2\csrc/u8x8_d_hd44102.c **** // The HD44102 can not mirror the cols and rows, use U8g2 for rotation
 307:..\u8g2\csrc/u8x8_d_hd44102.c **** //    case U8X8_MSG_DISPLAY_SET_FLIP_MODE:
 308:..\u8g2\csrc/u8x8_d_hd44102.c **** //      break;
 309:..\u8g2\csrc/u8x8_d_hd44102.c **** // The HD44102 has no internal contrast command
 310:..\u8g2\csrc/u8x8_d_hd44102.c **** //    case U8X8_MSG_DISPLAY_SET_CONTRAST:
 311:..\u8g2\csrc/u8x8_d_hd44102.c **** //      break;
ARM GAS  C:\Users\brian\AppData\Local\Temp\ccVIu5fW.s 			page 16


 312:..\u8g2\csrc/u8x8_d_hd44102.c ****     case U8X8_MSG_DISPLAY_DRAW_TILE:
 313:..\u8g2\csrc/u8x8_d_hd44102.c ****       x = ((u8x8_tile_t *)arg_ptr)->x_pos;      
 314:..\u8g2\csrc/u8x8_d_hd44102.c ****       cnt = ((u8x8_tile_t *)arg_ptr)->cnt;
 315:..\u8g2\csrc/u8x8_d_hd44102.c ****       page = ((u8x8_tile_t *)arg_ptr)->y_pos;
 316:..\u8g2\csrc/u8x8_d_hd44102.c ****       x*=8;
 317:..\u8g2\csrc/u8x8_d_hd44102.c ****       cnt*=8;
 318:..\u8g2\csrc/u8x8_d_hd44102.c ****       if ( page < 4 )
 319:..\u8g2\csrc/u8x8_d_hd44102.c ****       {
 320:..\u8g2\csrc/u8x8_d_hd44102.c ****         do
 321:..\u8g2\csrc/u8x8_d_hd44102.c ****         {
 322:..\u8g2\csrc/u8x8_d_hd44102.c ****           u8x8_hd44102_outy(u8x8, 
 323:..\u8g2\csrc/u8x8_d_hd44102.c ****             ((u8x8_tile_t *)arg_ptr)->tile_ptr, 
 324:..\u8g2\csrc/u8x8_d_hd44102.c ****             cnt, 
 325:..\u8g2\csrc/u8x8_d_hd44102.c ****             page, 
 326:..\u8g2\csrc/u8x8_d_hd44102.c ****             x, 
 327:..\u8g2\csrc/u8x8_d_hd44102.c ****             7, 0, 1, 7);
 328:..\u8g2\csrc/u8x8_d_hd44102.c ****           arg_int--;
 329:..\u8g2\csrc/u8x8_d_hd44102.c ****           x += cnt;
 330:..\u8g2\csrc/u8x8_d_hd44102.c ****         } while (arg_int > 0);
 331:..\u8g2\csrc/u8x8_d_hd44102.c ****       }
 332:..\u8g2\csrc/u8x8_d_hd44102.c ****       else
 333:..\u8g2\csrc/u8x8_d_hd44102.c ****       {
 334:..\u8g2\csrc/u8x8_d_hd44102.c ****         do
 335:..\u8g2\csrc/u8x8_d_hd44102.c ****         {
 336:..\u8g2\csrc/u8x8_d_hd44102.c ****           u8x8_hd44102_outy(u8x8, 
 337:..\u8g2\csrc/u8x8_d_hd44102.c ****             ((u8x8_tile_t *)arg_ptr)->tile_ptr, 
 338:..\u8g2\csrc/u8x8_d_hd44102.c ****             cnt, 
 339:..\u8g2\csrc/u8x8_d_hd44102.c ****             page-4, 
 340:..\u8g2\csrc/u8x8_d_hd44102.c ****             x, 
 341:..\u8g2\csrc/u8x8_d_hd44102.c ****             7, 2, 3, 7);
 342:..\u8g2\csrc/u8x8_d_hd44102.c ****           arg_int--;
 343:..\u8g2\csrc/u8x8_d_hd44102.c ****           x += cnt;
 344:..\u8g2\csrc/u8x8_d_hd44102.c ****         } while (arg_int > 0);
 345:..\u8g2\csrc/u8x8_d_hd44102.c ****       }
 346:..\u8g2\csrc/u8x8_d_hd44102.c ****     
 347:..\u8g2\csrc/u8x8_d_hd44102.c ****       break;
 348:..\u8g2\csrc/u8x8_d_hd44102.c ****     default:
 349:..\u8g2\csrc/u8x8_d_hd44102.c ****       return 0;
 350:..\u8g2\csrc/u8x8_d_hd44102.c ****   }
 351:..\u8g2\csrc/u8x8_d_hd44102.c ****   return 1;
 519              		.loc 1 351 0
 520 0024 0120     		movs	r0, #1
 278:..\u8g2\csrc/u8x8_d_hd44102.c ****       break;
 521              		.loc 1 278 0
 522 0026 75E0     		b	.L36
 523              	.LVL77:
 524              	.L39:
 280:..\u8g2\csrc/u8x8_d_hd44102.c **** 
 525              		.loc 1 280 0
 526 0028 FFF7FEFF 		bl	u8x8_d_helper_display_init
 527              	.LVL78:
 282:..\u8g2\csrc/u8x8_d_hd44102.c ****       {
 528              		.loc 1 282 0
 529 002c 0024     		movs	r4, #0
 530 002e 11E0     		b	.L42
 531              	.LVL79:
 532              	.L43:
ARM GAS  C:\Users\brian\AppData\Local\Temp\ccVIu5fW.s 			page 17


 284:..\u8g2\csrc/u8x8_d_hd44102.c ****         u8x8_cad_SendSequence(u8x8, u8x8_d_hd44102_init_seq);
 533              		.loc 1 284 0 discriminator 3
 534 0030 F568     		ldr	r5, [r6, #12]
 535 0032 0023     		movs	r3, #0
 536 0034 2246     		mov	r2, r4
 537 0036 1821     		movs	r1, #24
 538 0038 3046     		mov	r0, r6
 539 003a A847     		blx	r5
 540              	.LVL80:
 285:..\u8g2\csrc/u8x8_d_hd44102.c ****         u8x8->cad_cb(u8x8, U8X8_MSG_CAD_END_TRANSFER, 7, NULL);
 541              		.loc 1 285 0 discriminator 3
 542 003c 3849     		ldr	r1, .L52+4
 543 003e 3046     		mov	r0, r6
 544 0040 FFF7FEFF 		bl	u8x8_cad_SendSequence
 545              	.LVL81:
 286:..\u8g2\csrc/u8x8_d_hd44102.c ****       }
 546              		.loc 1 286 0 discriminator 3
 547 0044 F568     		ldr	r5, [r6, #12]
 548 0046 0023     		movs	r3, #0
 549 0048 0722     		movs	r2, #7
 550 004a 1921     		movs	r1, #25
 551 004c 3046     		mov	r0, r6
 552 004e A847     		blx	r5
 553              	.LVL82:
 282:..\u8g2\csrc/u8x8_d_hd44102.c ****       {
 554              		.loc 1 282 0 discriminator 3
 555 0050 0134     		adds	r4, r4, #1
 556              	.LVL83:
 557 0052 E4B2     		uxtb	r4, r4
 558              	.LVL84:
 559              	.L42:
 282:..\u8g2\csrc/u8x8_d_hd44102.c ****       {
 560              		.loc 1 282 0 is_stmt 0 discriminator 1
 561 0054 032C     		cmp	r4, #3
 562 0056 EBD9     		bls	.L43
 563              		.loc 1 351 0 is_stmt 1
 564 0058 0120     		movs	r0, #1
 565 005a 5BE0     		b	.L36
 566              	.LVL85:
 567              	.L46:
 294:..\u8g2\csrc/u8x8_d_hd44102.c ****         if ( arg_int == 0 )
 568              		.loc 1 294 0
 569 005c F768     		ldr	r7, [r6, #12]
 570 005e 0023     		movs	r3, #0
 571 0060 2A46     		mov	r2, r5
 572 0062 1821     		movs	r1, #24
 573 0064 3046     		mov	r0, r6
 574 0066 B847     		blx	r7
 575              	.LVL86:
 295:..\u8g2\csrc/u8x8_d_hd44102.c ****         {
 576              		.loc 1 295 0
 577 0068 24B9     		cbnz	r4, .L44
 297:..\u8g2\csrc/u8x8_d_hd44102.c ****         }
 578              		.loc 1 297 0
 579 006a 2E49     		ldr	r1, .L52+8
 580 006c 3046     		mov	r0, r6
 581 006e FFF7FEFF 		bl	u8x8_cad_SendSequence
ARM GAS  C:\Users\brian\AppData\Local\Temp\ccVIu5fW.s 			page 18


 582              	.LVL87:
 583 0072 03E0     		b	.L45
 584              	.L44:
 301:..\u8g2\csrc/u8x8_d_hd44102.c ****         }
 585              		.loc 1 301 0
 586 0074 2C49     		ldr	r1, .L52+12
 587 0076 3046     		mov	r0, r6
 588 0078 FFF7FEFF 		bl	u8x8_cad_SendSequence
 589              	.LVL88:
 590              	.L45:
 303:..\u8g2\csrc/u8x8_d_hd44102.c ****       }
 591              		.loc 1 303 0 discriminator 2
 592 007c F768     		ldr	r7, [r6, #12]
 593 007e 0023     		movs	r3, #0
 594 0080 0722     		movs	r2, #7
 595 0082 1921     		movs	r1, #25
 596 0084 3046     		mov	r0, r6
 597 0086 B847     		blx	r7
 598              	.LVL89:
 292:..\u8g2\csrc/u8x8_d_hd44102.c ****       {
 599              		.loc 1 292 0 discriminator 2
 600 0088 0135     		adds	r5, r5, #1
 601              	.LVL90:
 602 008a EDB2     		uxtb	r5, r5
 603              	.LVL91:
 604 008c 00E0     		b	.L40
 605              	.LVL92:
 606              	.L50:
 274:..\u8g2\csrc/u8x8_d_hd44102.c ****   {
 607              		.loc 1 274 0
 608 008e 0025     		movs	r5, #0
 609              	.LVL93:
 610              	.L40:
 292:..\u8g2\csrc/u8x8_d_hd44102.c ****       {
 611              		.loc 1 292 0 discriminator 1
 612 0090 032D     		cmp	r5, #3
 613 0092 E3D9     		bls	.L46
 614              		.loc 1 351 0
 615 0094 0120     		movs	r0, #1
 616 0096 3DE0     		b	.L36
 617              	.LVL94:
 618              	.L41:
 313:..\u8g2\csrc/u8x8_d_hd44102.c ****       cnt = ((u8x8_tile_t *)arg_ptr)->cnt;
 619              		.loc 1 313 0
 620 0098 98F80550 		ldrb	r5, [r8, #5]	@ zero_extendqisi2
 621              	.LVL95:
 314:..\u8g2\csrc/u8x8_d_hd44102.c ****       page = ((u8x8_tile_t *)arg_ptr)->y_pos;
 622              		.loc 1 314 0
 623 009c 98F80470 		ldrb	r7, [r8, #4]	@ zero_extendqisi2
 624              	.LVL96:
 315:..\u8g2\csrc/u8x8_d_hd44102.c ****       x*=8;
 625              		.loc 1 315 0
 626 00a0 98F80690 		ldrb	r9, [r8, #6]	@ zero_extendqisi2
 627              	.LVL97:
 316:..\u8g2\csrc/u8x8_d_hd44102.c ****       cnt*=8;
 628              		.loc 1 316 0
 629 00a4 ED00     		lsls	r5, r5, #3
ARM GAS  C:\Users\brian\AppData\Local\Temp\ccVIu5fW.s 			page 19


 630              	.LVL98:
 631 00a6 EDB2     		uxtb	r5, r5
 632              	.LVL99:
 317:..\u8g2\csrc/u8x8_d_hd44102.c ****       if ( page < 4 )
 633              		.loc 1 317 0
 634 00a8 FF00     		lsls	r7, r7, #3
 635              	.LVL100:
 636 00aa FFB2     		uxtb	r7, r7
 637              	.LVL101:
 318:..\u8g2\csrc/u8x8_d_hd44102.c ****       {
 638              		.loc 1 318 0
 639 00ac B9F1030F 		cmp	r9, #3
 640 00b0 16D8     		bhi	.L47
 641              	.LVL102:
 642              	.L48:
 322:..\u8g2\csrc/u8x8_d_hd44102.c ****             ((u8x8_tile_t *)arg_ptr)->tile_ptr, 
 643              		.loc 1 322 0 discriminator 1
 644 00b2 0723     		movs	r3, #7
 645 00b4 0493     		str	r3, [sp, #16]
 646 00b6 0122     		movs	r2, #1
 647 00b8 0392     		str	r2, [sp, #12]
 648 00ba 0022     		movs	r2, #0
 649 00bc 0292     		str	r2, [sp, #8]
 650 00be 0193     		str	r3, [sp, #4]
 651 00c0 0095     		str	r5, [sp]
 652 00c2 4B46     		mov	r3, r9
 653 00c4 3A46     		mov	r2, r7
 654 00c6 D8F80010 		ldr	r1, [r8]
 655 00ca 3046     		mov	r0, r6
 656 00cc FFF7FEFF 		bl	u8x8_hd44102_outy
 657              	.LVL103:
 328:..\u8g2\csrc/u8x8_d_hd44102.c ****           x += cnt;
 658              		.loc 1 328 0 discriminator 1
 659 00d0 013C     		subs	r4, r4, #1
 660              	.LVL104:
 329:..\u8g2\csrc/u8x8_d_hd44102.c ****         } while (arg_int > 0);
 661              		.loc 1 329 0 discriminator 1
 662 00d2 3D44     		add	r5, r5, r7
 663              	.LVL105:
 664 00d4 EDB2     		uxtb	r5, r5
 665              	.LVL106:
 330:..\u8g2\csrc/u8x8_d_hd44102.c ****       }
 666              		.loc 1 330 0 discriminator 1
 667 00d6 14F0FF04 		ands	r4, r4, #255
 668              	.LVL107:
 669 00da EAD1     		bne	.L48
 670              		.loc 1 351 0
 671 00dc 0120     		movs	r0, #1
 672 00de 19E0     		b	.L36
 673              	.L47:
 674              	.LVL108:
 336:..\u8g2\csrc/u8x8_d_hd44102.c ****             ((u8x8_tile_t *)arg_ptr)->tile_ptr, 
 675              		.loc 1 336 0 discriminator 1
 676 00e0 A9F10403 		sub	r3, r9, #4
 677 00e4 0722     		movs	r2, #7
 678 00e6 0492     		str	r2, [sp, #16]
 679 00e8 0321     		movs	r1, #3
ARM GAS  C:\Users\brian\AppData\Local\Temp\ccVIu5fW.s 			page 20


 680 00ea 0391     		str	r1, [sp, #12]
 681 00ec 0221     		movs	r1, #2
 682 00ee 0291     		str	r1, [sp, #8]
 683 00f0 0192     		str	r2, [sp, #4]
 684 00f2 0095     		str	r5, [sp]
 685 00f4 DBB2     		uxtb	r3, r3
 686 00f6 3A46     		mov	r2, r7
 687 00f8 D8F80010 		ldr	r1, [r8]
 688 00fc 3046     		mov	r0, r6
 689 00fe FFF7FEFF 		bl	u8x8_hd44102_outy
 690              	.LVL109:
 342:..\u8g2\csrc/u8x8_d_hd44102.c ****           x += cnt;
 691              		.loc 1 342 0 discriminator 1
 692 0102 013C     		subs	r4, r4, #1
 693              	.LVL110:
 343:..\u8g2\csrc/u8x8_d_hd44102.c ****         } while (arg_int > 0);
 694              		.loc 1 343 0 discriminator 1
 695 0104 3D44     		add	r5, r5, r7
 696              	.LVL111:
 697 0106 EDB2     		uxtb	r5, r5
 698              	.LVL112:
 344:..\u8g2\csrc/u8x8_d_hd44102.c ****       }
 699              		.loc 1 344 0 discriminator 1
 700 0108 14F0FF04 		ands	r4, r4, #255
 701              	.LVL113:
 702 010c E8D1     		bne	.L47
 703              		.loc 1 351 0
 704 010e 0120     		movs	r0, #1
 705 0110 00E0     		b	.L36
 706              	.LVL114:
 707              	.L49:
 349:..\u8g2\csrc/u8x8_d_hd44102.c ****   }
 708              		.loc 1 349 0
 709 0112 0020     		movs	r0, #0
 710              	.LVL115:
 711              	.L36:
 352:..\u8g2\csrc/u8x8_d_hd44102.c **** }
 712              		.loc 1 352 0
 713 0114 07B0     		add	sp, sp, #28
 714              		.cfi_def_cfa_offset 28
 715              		@ sp needed
 716 0116 BDE8F083 		pop	{r4, r5, r6, r7, r8, r9, pc}
 717              	.LVL116:
 718              	.L53:
 719 011a 00BF     		.align	2
 720              	.L52:
 721 011c 2C000000 		.word	.LANCHOR0+44
 722 0120 1C000000 		.word	.LANCHOR0+28
 723 0124 24000000 		.word	.LANCHOR0+36
 724 0128 28000000 		.word	.LANCHOR0+40
 725              		.cfi_endproc
 726              	.LFE2:
 727              		.size	u8x8_d_hd44102_100x64, .-u8x8_d_hd44102_100x64
 728              		.section	.rodata
 729              		.align	2
 730              		.set	.LANCHOR0,. + 0
 731              	.LC0:
ARM GAS  C:\Users\brian\AppData\Local\Temp\ccVIu5fW.s 			page 21


 732 0000 01       		.byte	1
 733 0001 02       		.byte	2
 734 0002 04       		.byte	4
 735 0003 00       		.byte	0
 736              		.type	u8x8_hd44102_150x32_display_info, %object
 737              		.size	u8x8_hd44102_150x32_display_info, 24
 738              	u8x8_hd44102_150x32_display_info:
 739 0004 00       		.byte	0
 740 0005 01       		.byte	1
 741 0006 64       		.byte	100
 742 0007 14       		.byte	20
 743 0008 01       		.byte	1
 744 0009 06       		.byte	6
 745 000a 0C       		.byte	12
 746 000b 4B       		.byte	75
 747 000c 00093D00 		.word	4000000
 748 0010 00       		.byte	0
 749 0011 04       		.byte	4
 750 0012 C8       		.byte	-56
 751 0013 FA       		.byte	-6
 752 0014 13       		.byte	19
 753 0015 04       		.byte	4
 754 0016 00       		.byte	0
 755 0017 00       		.byte	0
 756 0018 9600     		.short	150
 757 001a 2000     		.short	32
 758              		.type	u8x8_d_hd44102_init_seq, %object
 759              		.size	u8x8_d_hd44102_init_seq, 5
 760              	u8x8_d_hd44102_init_seq:
 761 001c 15       		.byte	21
 762 001d 3B       		.byte	59
 763 001e 15       		.byte	21
 764 001f 3E       		.byte	62
 765 0020 FF       		.byte	-1
 766 0021 000000   		.space	3
 767              		.type	u8x8_d_hd44102_powersave0_seq, %object
 768              		.size	u8x8_d_hd44102_powersave0_seq, 3
 769              	u8x8_d_hd44102_powersave0_seq:
 770 0024 15       		.byte	21
 771 0025 39       		.byte	57
 772 0026 FF       		.byte	-1
 773 0027 00       		.space	1
 774              		.type	u8x8_d_hd44102_powersave1_seq, %object
 775              		.size	u8x8_d_hd44102_powersave1_seq, 3
 776              	u8x8_d_hd44102_powersave1_seq:
 777 0028 15       		.byte	21
 778 0029 38       		.byte	56
 779 002a FF       		.byte	-1
 780 002b 00       		.space	1
 781              		.type	u8x8_hd44102_100x64_display_info, %object
 782              		.size	u8x8_hd44102_100x64_display_info, 24
 783              	u8x8_hd44102_100x64_display_info:
 784 002c 00       		.byte	0
 785 002d 01       		.byte	1
 786 002e 64       		.byte	100
 787 002f 14       		.byte	20
 788 0030 01       		.byte	1
ARM GAS  C:\Users\brian\AppData\Local\Temp\ccVIu5fW.s 			page 22


 789 0031 06       		.byte	6
 790 0032 0C       		.byte	12
 791 0033 4B       		.byte	75
 792 0034 00093D00 		.word	4000000
 793 0038 00       		.byte	0
 794 0039 04       		.byte	4
 795 003a C8       		.byte	-56
 796 003b FA       		.byte	-6
 797 003c 0D       		.byte	13
 798 003d 08       		.byte	8
 799 003e 00       		.byte	0
 800 003f 00       		.byte	0
 801 0040 6400     		.short	100
 802 0042 4000     		.short	64
 803              		.text
 804              	.Letext0:
 805              		.file 2 "c:\\program files (x86)\\cypress\\psoc creator\\4.4\\psoc creator\\import\\gnu\\arm\\5.4.
 806              		.file 3 "c:\\program files (x86)\\cypress\\psoc creator\\4.4\\psoc creator\\import\\gnu\\arm\\5.4.
 807              		.file 4 "..\\u8g2\\csrc\\u8x8.h"