ARM GAS  C:\Users\brian\AppData\Local\Temp\ccaMHHDN.s 			page 1


   1              		.syntax unified
   2              		.cpu cortex-m3
   3              		.fpu softvfp
   4              		.eabi_attribute 20, 1
   5              		.eabi_attribute 21, 1
   6              		.eabi_attribute 23, 3
   7              		.eabi_attribute 24, 1
   8              		.eabi_attribute 25, 1
   9              		.eabi_attribute 26, 1
  10              		.eabi_attribute 30, 1
  11              		.eabi_attribute 34, 1
  12              		.eabi_attribute 18, 4
  13              		.thumb
  14              		.syntax unified
  15              		.file	"u8x8_d_pcd8544_84x48.c"
  16              		.text
  17              	.Ltext0:
  18              		.cfi_sections	.debug_frame
  19              		.section	.text.u8x8_d_pcd8544_84x48,"ax",%progbits
  20              		.align	2
  21              		.global	u8x8_d_pcd8544_84x48
  22              		.thumb
  23              		.thumb_func
  24              		.type	u8x8_d_pcd8544_84x48, %function
  25              	u8x8_d_pcd8544_84x48:
  26              	.LFB0:
  27              		.file 1 "..\\u8g2\\csrc\\u8x8_d_pcd8544_84x48.c"
   1:..\u8g2\csrc/u8x8_d_pcd8544_84x48.c **** /*
   2:..\u8g2\csrc/u8x8_d_pcd8544_84x48.c **** 
   3:..\u8g2\csrc/u8x8_d_pcd8544_84x48.c ****   u8x8_d_pcd8544_84x48.c (so called "Nokia 5110" displays)
   4:..\u8g2\csrc/u8x8_d_pcd8544_84x48.c ****   
   5:..\u8g2\csrc/u8x8_d_pcd8544_84x48.c ****   Universal 8bit Graphics Library (https://github.com/olikraus/u8g2/)
   6:..\u8g2\csrc/u8x8_d_pcd8544_84x48.c **** 
   7:..\u8g2\csrc/u8x8_d_pcd8544_84x48.c ****   Copyright (c) 2016, olikraus@gmail.com
   8:..\u8g2\csrc/u8x8_d_pcd8544_84x48.c ****   All rights reserved.
   9:..\u8g2\csrc/u8x8_d_pcd8544_84x48.c **** 
  10:..\u8g2\csrc/u8x8_d_pcd8544_84x48.c ****   Redistribution and use in source and binary forms, with or without modification, 
  11:..\u8g2\csrc/u8x8_d_pcd8544_84x48.c ****   are permitted provided that the following conditions are met:
  12:..\u8g2\csrc/u8x8_d_pcd8544_84x48.c **** 
  13:..\u8g2\csrc/u8x8_d_pcd8544_84x48.c ****   * Redistributions of source code must retain the above copyright notice, this list 
  14:..\u8g2\csrc/u8x8_d_pcd8544_84x48.c ****     of conditions and the following disclaimer.
  15:..\u8g2\csrc/u8x8_d_pcd8544_84x48.c ****     
  16:..\u8g2\csrc/u8x8_d_pcd8544_84x48.c ****   * Redistributions in binary form must reproduce the above copyright notice, this 
  17:..\u8g2\csrc/u8x8_d_pcd8544_84x48.c ****     list of conditions and the following disclaimer in the documentation and/or other 
  18:..\u8g2\csrc/u8x8_d_pcd8544_84x48.c ****     materials provided with the distribution.
  19:..\u8g2\csrc/u8x8_d_pcd8544_84x48.c **** 
  20:..\u8g2\csrc/u8x8_d_pcd8544_84x48.c ****   THIS SOFTWARE IS PROVIDED BY THE COPYRIGHT HOLDERS AND 
  21:..\u8g2\csrc/u8x8_d_pcd8544_84x48.c ****   CONTRIBUTORS "AS IS" AND ANY EXPRESS OR IMPLIED WARRANTIES, 
  22:..\u8g2\csrc/u8x8_d_pcd8544_84x48.c ****   INCLUDING, BUT NOT LIMITED TO, THE IMPLIED WARRANTIES OF 
  23:..\u8g2\csrc/u8x8_d_pcd8544_84x48.c ****   MERCHANTABILITY AND FITNESS FOR A PARTICULAR PURPOSE ARE 
  24:..\u8g2\csrc/u8x8_d_pcd8544_84x48.c ****   DISCLAIMED. IN NO EVENT SHALL THE COPYRIGHT HOLDER OR 
  25:..\u8g2\csrc/u8x8_d_pcd8544_84x48.c ****   CONTRIBUTORS BE LIABLE FOR ANY DIRECT, INDIRECT, INCIDENTAL, 
  26:..\u8g2\csrc/u8x8_d_pcd8544_84x48.c ****   SPECIAL, EXEMPLARY, OR CONSEQUENTIAL DAMAGES (INCLUDING, BUT 
  27:..\u8g2\csrc/u8x8_d_pcd8544_84x48.c ****   NOT LIMITED TO, PROCUREMENT OF SUBSTITUTE GOODS OR SERVICES; 
  28:..\u8g2\csrc/u8x8_d_pcd8544_84x48.c ****   LOSS OF USE, DATA, OR PROFITS; OR BUSINESS INTERRUPTION) HOWEVER 
  29:..\u8g2\csrc/u8x8_d_pcd8544_84x48.c ****   CAUSED AND ON ANY THEORY OF LIABILITY, WHETHER IN CONTRACT, 
  30:..\u8g2\csrc/u8x8_d_pcd8544_84x48.c ****   STRICT LIABILITY, OR TORT (INCLUDING NEGLIGENCE OR OTHERWISE) 
ARM GAS  C:\Users\brian\AppData\Local\Temp\ccaMHHDN.s 			page 2


  31:..\u8g2\csrc/u8x8_d_pcd8544_84x48.c ****   ARISING IN ANY WAY OUT OF THE USE OF THIS SOFTWARE, EVEN IF 
  32:..\u8g2\csrc/u8x8_d_pcd8544_84x48.c ****   ADVISED OF THE POSSIBILITY OF SUCH DAMAGE.  
  33:..\u8g2\csrc/u8x8_d_pcd8544_84x48.c **** 
  34:..\u8g2\csrc/u8x8_d_pcd8544_84x48.c ****   
  35:..\u8g2\csrc/u8x8_d_pcd8544_84x48.c **** */
  36:..\u8g2\csrc/u8x8_d_pcd8544_84x48.c **** #include "u8x8.h"
  37:..\u8g2\csrc/u8x8_d_pcd8544_84x48.c **** 
  38:..\u8g2\csrc/u8x8_d_pcd8544_84x48.c **** 
  39:..\u8g2\csrc/u8x8_d_pcd8544_84x48.c **** 
  40:..\u8g2\csrc/u8x8_d_pcd8544_84x48.c **** 
  41:..\u8g2\csrc/u8x8_d_pcd8544_84x48.c **** static const uint8_t u8x8_d_pcd8544_84x48_init_seq[] = {
  42:..\u8g2\csrc/u8x8_d_pcd8544_84x48.c ****     
  43:..\u8g2\csrc/u8x8_d_pcd8544_84x48.c ****   U8X8_START_TRANSFER(),             	/* enable chip, delay is part of the transfer start */
  44:..\u8g2\csrc/u8x8_d_pcd8544_84x48.c ****   
  45:..\u8g2\csrc/u8x8_d_pcd8544_84x48.c ****   U8X8_C(0x021),            			/* activate chip (PD=0), horizontal increment (V=0), enter extended 
  46:..\u8g2\csrc/u8x8_d_pcd8544_84x48.c ****   U8X8_C(0x006),		                /* temp. control: b10 = 2  */
  47:..\u8g2\csrc/u8x8_d_pcd8544_84x48.c ****   U8X8_C(0x013),		                /* bias system 1:48 */
  48:..\u8g2\csrc/u8x8_d_pcd8544_84x48.c ****   U8X8_C(0x0c0),		                /* medium Vop  */
  49:..\u8g2\csrc/u8x8_d_pcd8544_84x48.c ****   
  50:..\u8g2\csrc/u8x8_d_pcd8544_84x48.c ****   U8X8_C(0x020),		                /* activate chip (PD=0), horizontal increment (V=0), enter normal
  51:..\u8g2\csrc/u8x8_d_pcd8544_84x48.c ****   U8X8_C(0x008),				/* blank */
  52:..\u8g2\csrc/u8x8_d_pcd8544_84x48.c ****   U8X8_C(0x024),		                /* power down (PD=1), horizontal increment (V=0), enter normal co
  53:..\u8g2\csrc/u8x8_d_pcd8544_84x48.c ****     
  54:..\u8g2\csrc/u8x8_d_pcd8544_84x48.c ****   U8X8_END_TRANSFER(),             	/* disable chip */
  55:..\u8g2\csrc/u8x8_d_pcd8544_84x48.c ****   U8X8_END()             			/* end of sequence */
  56:..\u8g2\csrc/u8x8_d_pcd8544_84x48.c **** };
  57:..\u8g2\csrc/u8x8_d_pcd8544_84x48.c **** 
  58:..\u8g2\csrc/u8x8_d_pcd8544_84x48.c **** static const uint8_t u8x8_d_pcd8544_84x48_powersave0_seq[] = {
  59:..\u8g2\csrc/u8x8_d_pcd8544_84x48.c ****   U8X8_START_TRANSFER(),             	/* enable chip, delay is part of the transfer start */
  60:..\u8g2\csrc/u8x8_d_pcd8544_84x48.c ****   U8X8_C(0x020),		                /* activate chip (PD=0), horizontal increment (V=0), enter normal
  61:..\u8g2\csrc/u8x8_d_pcd8544_84x48.c ****   U8X8_C(0x00c),				/* display on */
  62:..\u8g2\csrc/u8x8_d_pcd8544_84x48.c ****   U8X8_END_TRANSFER(),             	/* disable chip */
  63:..\u8g2\csrc/u8x8_d_pcd8544_84x48.c ****   U8X8_END()             			/* end of sequence */
  64:..\u8g2\csrc/u8x8_d_pcd8544_84x48.c **** };
  65:..\u8g2\csrc/u8x8_d_pcd8544_84x48.c **** 
  66:..\u8g2\csrc/u8x8_d_pcd8544_84x48.c **** static const uint8_t u8x8_d_pcd8544_84x48_powersave1_seq[] = {
  67:..\u8g2\csrc/u8x8_d_pcd8544_84x48.c ****   U8X8_START_TRANSFER(),             	/* enable chip, delay is part of the transfer start */
  68:..\u8g2\csrc/u8x8_d_pcd8544_84x48.c ****   U8X8_C(0x020),		                /* activate chip (PD=0), horizontal increment (V=0), enter normal
  69:..\u8g2\csrc/u8x8_d_pcd8544_84x48.c ****   U8X8_C(0x008),				/* blank */
  70:..\u8g2\csrc/u8x8_d_pcd8544_84x48.c ****   U8X8_C(0x024),		                /* power down (PD=1), horizontal increment (V=0), enter normal co
  71:..\u8g2\csrc/u8x8_d_pcd8544_84x48.c ****   U8X8_END_TRANSFER(),             	/* disable chip */
  72:..\u8g2\csrc/u8x8_d_pcd8544_84x48.c ****   U8X8_END()             			/* end of sequence */
  73:..\u8g2\csrc/u8x8_d_pcd8544_84x48.c **** };
  74:..\u8g2\csrc/u8x8_d_pcd8544_84x48.c **** 
  75:..\u8g2\csrc/u8x8_d_pcd8544_84x48.c **** 
  76:..\u8g2\csrc/u8x8_d_pcd8544_84x48.c **** 
  77:..\u8g2\csrc/u8x8_d_pcd8544_84x48.c **** static const u8x8_display_info_t u8x8_pcd8544_84x48_display_info =
  78:..\u8g2\csrc/u8x8_d_pcd8544_84x48.c **** {
  79:..\u8g2\csrc/u8x8_d_pcd8544_84x48.c ****   /* chip_enable_level = */ 0,
  80:..\u8g2\csrc/u8x8_d_pcd8544_84x48.c ****   /* chip_disable_level = */ 1,
  81:..\u8g2\csrc/u8x8_d_pcd8544_84x48.c ****   
  82:..\u8g2\csrc/u8x8_d_pcd8544_84x48.c ****   /* post_chip_enable_wait_ns = */ 5,
  83:..\u8g2\csrc/u8x8_d_pcd8544_84x48.c ****   /* pre_chip_disable_wait_ns = */ 5,
  84:..\u8g2\csrc/u8x8_d_pcd8544_84x48.c ****   /* reset_pulse_width_ms = */ 2, 
  85:..\u8g2\csrc/u8x8_d_pcd8544_84x48.c ****   /* post_reset_wait_ms = */ 2, 
  86:..\u8g2\csrc/u8x8_d_pcd8544_84x48.c ****   /* sda_setup_time_ns = */ 12,		
  87:..\u8g2\csrc/u8x8_d_pcd8544_84x48.c ****   /* sck_pulse_width_ns = */ 75,	/* half of cycle time (100ns according to datasheet), AVR: below 7
ARM GAS  C:\Users\brian\AppData\Local\Temp\ccaMHHDN.s 			page 3


  88:..\u8g2\csrc/u8x8_d_pcd8544_84x48.c ****   /* sck_clock_hz = */ 4000000UL,	/* since Arduino 1.6.0, the SPI bus speed in Hz. Should be  10000
  89:..\u8g2\csrc/u8x8_d_pcd8544_84x48.c ****   /* spi_mode = */ 0,		/* active high, rising edge */
  90:..\u8g2\csrc/u8x8_d_pcd8544_84x48.c ****   /* i2c_bus_clock_100kHz = */ 4,
  91:..\u8g2\csrc/u8x8_d_pcd8544_84x48.c ****   /* data_setup_time_ns = */ 30,
  92:..\u8g2\csrc/u8x8_d_pcd8544_84x48.c ****   /* write_pulse_width_ns = */ 40,
  93:..\u8g2\csrc/u8x8_d_pcd8544_84x48.c ****   /* tile_width = */ 11,		/* width of 11*8=88 pixel */
  94:..\u8g2\csrc/u8x8_d_pcd8544_84x48.c ****   /* tile_hight = */ 6,
  95:..\u8g2\csrc/u8x8_d_pcd8544_84x48.c ****   /* default_x_offset = */ 0,
  96:..\u8g2\csrc/u8x8_d_pcd8544_84x48.c ****   /* flipmode_x_offset = */ 0,
  97:..\u8g2\csrc/u8x8_d_pcd8544_84x48.c ****   /* pixel_width = */ 84,
  98:..\u8g2\csrc/u8x8_d_pcd8544_84x48.c ****   /* pixel_height = */ 48
  99:..\u8g2\csrc/u8x8_d_pcd8544_84x48.c **** };
 100:..\u8g2\csrc/u8x8_d_pcd8544_84x48.c **** 
 101:..\u8g2\csrc/u8x8_d_pcd8544_84x48.c **** uint8_t u8x8_d_pcd8544_84x48(u8x8_t *u8x8, uint8_t msg, uint8_t arg_int, void *arg_ptr)
 102:..\u8g2\csrc/u8x8_d_pcd8544_84x48.c **** {
  28              		.loc 1 102 0
  29              		.cfi_startproc
  30              		@ args = 0, pretend = 0, frame = 0
  31              		@ frame_needed = 0, uses_anonymous_args = 0
  32              	.LVL0:
  33 0000 2DE9F041 		push	{r4, r5, r6, r7, r8, lr}
  34              		.cfi_def_cfa_offset 24
  35              		.cfi_offset 4, -24
  36              		.cfi_offset 5, -20
  37              		.cfi_offset 6, -16
  38              		.cfi_offset 7, -12
  39              		.cfi_offset 8, -8
  40              		.cfi_offset 14, -4
  41 0004 0646     		mov	r6, r0
  42 0006 9046     		mov	r8, r2
  43 0008 1D46     		mov	r5, r3
 103:..\u8g2\csrc/u8x8_d_pcd8544_84x48.c ****   uint8_t x, c;
 104:..\u8g2\csrc/u8x8_d_pcd8544_84x48.c ****   uint8_t *ptr;
 105:..\u8g2\csrc/u8x8_d_pcd8544_84x48.c ****   switch(msg)
  44              		.loc 1 105 0
  45 000a 0939     		subs	r1, r1, #9
  46              	.LVL1:
  47 000c 0629     		cmp	r1, #6
  48 000e 6AD8     		bhi	.L13
  49 0010 DFE801F0 		tbb	[pc, r1]
  50              	.LVL2:
  51              	.L4:
  52 0014 04       		.byte	(.L3-.L4)/2
  53 0015 0A       		.byte	(.L5-.L4)/2
  54 0016 13       		.byte	(.L6-.L4)/2
  55 0017 69       		.byte	(.L13-.L4)/2
  56 0018 69       		.byte	(.L13-.L4)/2
  57 0019 20       		.byte	(.L7-.L4)/2
  58 001a 33       		.byte	(.L8-.L4)/2
  59 001b 00       		.p2align 1
  60              	.L3:
 106:..\u8g2\csrc/u8x8_d_pcd8544_84x48.c ****   {
 107:..\u8g2\csrc/u8x8_d_pcd8544_84x48.c ****     case U8X8_MSG_DISPLAY_SETUP_MEMORY:
 108:..\u8g2\csrc/u8x8_d_pcd8544_84x48.c ****       u8x8_d_helper_display_setup_memory(u8x8, &u8x8_pcd8544_84x48_display_info);
  61              		.loc 1 108 0
  62 001c 3349     		ldr	r1, .L15
  63 001e FFF7FEFF 		bl	u8x8_d_helper_display_setup_memory
ARM GAS  C:\Users\brian\AppData\Local\Temp\ccaMHHDN.s 			page 4


  64              	.LVL3:
 109:..\u8g2\csrc/u8x8_d_pcd8544_84x48.c ****       break;
 110:..\u8g2\csrc/u8x8_d_pcd8544_84x48.c ****     case U8X8_MSG_DISPLAY_INIT:
 111:..\u8g2\csrc/u8x8_d_pcd8544_84x48.c ****       u8x8_d_helper_display_init(u8x8);
 112:..\u8g2\csrc/u8x8_d_pcd8544_84x48.c ****       u8x8_cad_SendSequence(u8x8, u8x8_d_pcd8544_84x48_init_seq);
 113:..\u8g2\csrc/u8x8_d_pcd8544_84x48.c ****       break;
 114:..\u8g2\csrc/u8x8_d_pcd8544_84x48.c ****     case U8X8_MSG_DISPLAY_SET_POWER_SAVE:
 115:..\u8g2\csrc/u8x8_d_pcd8544_84x48.c ****       if ( arg_int == 0 )
 116:..\u8g2\csrc/u8x8_d_pcd8544_84x48.c **** 	u8x8_cad_SendSequence(u8x8, u8x8_d_pcd8544_84x48_powersave0_seq);
 117:..\u8g2\csrc/u8x8_d_pcd8544_84x48.c ****       else
 118:..\u8g2\csrc/u8x8_d_pcd8544_84x48.c **** 	u8x8_cad_SendSequence(u8x8, u8x8_d_pcd8544_84x48_powersave1_seq);
 119:..\u8g2\csrc/u8x8_d_pcd8544_84x48.c ****       break;
 120:..\u8g2\csrc/u8x8_d_pcd8544_84x48.c ****     // case U8X8_MSG_DISPLAY_SET_FLIP_MODE:
 121:..\u8g2\csrc/u8x8_d_pcd8544_84x48.c ****     // 	  break; 	NOT SUPPORTED
 122:..\u8g2\csrc/u8x8_d_pcd8544_84x48.c ****       
 123:..\u8g2\csrc/u8x8_d_pcd8544_84x48.c **** #ifdef U8X8_WITH_SET_CONTRAST
 124:..\u8g2\csrc/u8x8_d_pcd8544_84x48.c ****     case U8X8_MSG_DISPLAY_SET_CONTRAST:
 125:..\u8g2\csrc/u8x8_d_pcd8544_84x48.c ****       u8x8_cad_StartTransfer(u8x8);
 126:..\u8g2\csrc/u8x8_d_pcd8544_84x48.c ****       u8x8_cad_SendCmd(u8x8, 0x021 ); /* command mode, extended function set */
 127:..\u8g2\csrc/u8x8_d_pcd8544_84x48.c ****       u8x8_cad_SendCmd(u8x8, 0x080 | (arg_int >> 1) );
 128:..\u8g2\csrc/u8x8_d_pcd8544_84x48.c ****       u8x8_cad_EndTransfer(u8x8);
 129:..\u8g2\csrc/u8x8_d_pcd8544_84x48.c ****       break;
 130:..\u8g2\csrc/u8x8_d_pcd8544_84x48.c **** #endif
 131:..\u8g2\csrc/u8x8_d_pcd8544_84x48.c ****     case U8X8_MSG_DISPLAY_DRAW_TILE:
 132:..\u8g2\csrc/u8x8_d_pcd8544_84x48.c ****       u8x8_cad_StartTransfer(u8x8);
 133:..\u8g2\csrc/u8x8_d_pcd8544_84x48.c ****     
 134:..\u8g2\csrc/u8x8_d_pcd8544_84x48.c ****       x = ((u8x8_tile_t *)arg_ptr)->x_pos;
 135:..\u8g2\csrc/u8x8_d_pcd8544_84x48.c ****       x *= 8;
 136:..\u8g2\csrc/u8x8_d_pcd8544_84x48.c ****       x += u8x8->x_offset;
 137:..\u8g2\csrc/u8x8_d_pcd8544_84x48.c ****       u8x8_cad_SendCmd(u8x8, 0x020 ); /* activate chip (PD=0), horizontal increment (V=0), enter no
 138:..\u8g2\csrc/u8x8_d_pcd8544_84x48.c ****       u8x8_cad_SendCmd(u8x8, 0x080 | (x) );	/* set X address */
 139:..\u8g2\csrc/u8x8_d_pcd8544_84x48.c ****       u8x8_cad_SendCmd(u8x8, 0x040 | (((u8x8_tile_t *)arg_ptr)->y_pos) );	/* set Y address */
 140:..\u8g2\csrc/u8x8_d_pcd8544_84x48.c ****     
 141:..\u8g2\csrc/u8x8_d_pcd8544_84x48.c ****       ptr = ((u8x8_tile_t *)arg_ptr)->tile_ptr;
 142:..\u8g2\csrc/u8x8_d_pcd8544_84x48.c ****       c = ((u8x8_tile_t *)arg_ptr)->cnt;
 143:..\u8g2\csrc/u8x8_d_pcd8544_84x48.c ****       c *= 8;	
 144:..\u8g2\csrc/u8x8_d_pcd8544_84x48.c ****       do
 145:..\u8g2\csrc/u8x8_d_pcd8544_84x48.c ****       {
 146:..\u8g2\csrc/u8x8_d_pcd8544_84x48.c **** 	if ( c + x > 84u )
 147:..\u8g2\csrc/u8x8_d_pcd8544_84x48.c **** 	{
 148:..\u8g2\csrc/u8x8_d_pcd8544_84x48.c **** 	  if ( x >= 84u )
 149:..\u8g2\csrc/u8x8_d_pcd8544_84x48.c **** 	    break;
 150:..\u8g2\csrc/u8x8_d_pcd8544_84x48.c **** 	  c = 84u;
 151:..\u8g2\csrc/u8x8_d_pcd8544_84x48.c **** 	  c -= x;
 152:..\u8g2\csrc/u8x8_d_pcd8544_84x48.c **** 	}
 153:..\u8g2\csrc/u8x8_d_pcd8544_84x48.c **** 	u8x8_cad_SendData(u8x8, c, ptr);	/* note: SendData can not handle more than 255 bytes */
 154:..\u8g2\csrc/u8x8_d_pcd8544_84x48.c **** 	x += c;
 155:..\u8g2\csrc/u8x8_d_pcd8544_84x48.c **** 	arg_int--;
 156:..\u8g2\csrc/u8x8_d_pcd8544_84x48.c ****       } while( arg_int > 0 );
 157:..\u8g2\csrc/u8x8_d_pcd8544_84x48.c ****       
 158:..\u8g2\csrc/u8x8_d_pcd8544_84x48.c ****       u8x8_cad_EndTransfer(u8x8);
 159:..\u8g2\csrc/u8x8_d_pcd8544_84x48.c ****       break;
 160:..\u8g2\csrc/u8x8_d_pcd8544_84x48.c ****     default:
 161:..\u8g2\csrc/u8x8_d_pcd8544_84x48.c ****       return 0;
 162:..\u8g2\csrc/u8x8_d_pcd8544_84x48.c ****   }
 163:..\u8g2\csrc/u8x8_d_pcd8544_84x48.c ****   return 1;
  65              		.loc 1 163 0
ARM GAS  C:\Users\brian\AppData\Local\Temp\ccaMHHDN.s 			page 5


  66 0022 0120     		movs	r0, #1
 109:..\u8g2\csrc/u8x8_d_pcd8544_84x48.c ****       break;
  67              		.loc 1 109 0
  68 0024 BDE8F081 		pop	{r4, r5, r6, r7, r8, pc}
  69              	.LVL4:
  70              	.L5:
 111:..\u8g2\csrc/u8x8_d_pcd8544_84x48.c ****       u8x8_cad_SendSequence(u8x8, u8x8_d_pcd8544_84x48_init_seq);
  71              		.loc 1 111 0
  72 0028 FFF7FEFF 		bl	u8x8_d_helper_display_init
  73              	.LVL5:
 112:..\u8g2\csrc/u8x8_d_pcd8544_84x48.c ****       break;
  74              		.loc 1 112 0
  75 002c 3049     		ldr	r1, .L15+4
  76 002e 3046     		mov	r0, r6
  77 0030 FFF7FEFF 		bl	u8x8_cad_SendSequence
  78              	.LVL6:
  79              		.loc 1 163 0
  80 0034 0120     		movs	r0, #1
 113:..\u8g2\csrc/u8x8_d_pcd8544_84x48.c ****     case U8X8_MSG_DISPLAY_SET_POWER_SAVE:
  81              		.loc 1 113 0
  82 0036 BDE8F081 		pop	{r4, r5, r6, r7, r8, pc}
  83              	.LVL7:
  84              	.L6:
 115:..\u8g2\csrc/u8x8_d_pcd8544_84x48.c **** 	u8x8_cad_SendSequence(u8x8, u8x8_d_pcd8544_84x48_powersave0_seq);
  85              		.loc 1 115 0
  86 003a 2AB9     		cbnz	r2, .L9
 116:..\u8g2\csrc/u8x8_d_pcd8544_84x48.c ****       else
  87              		.loc 1 116 0
  88 003c 2D49     		ldr	r1, .L15+8
  89 003e FFF7FEFF 		bl	u8x8_cad_SendSequence
  90              	.LVL8:
  91              		.loc 1 163 0
  92 0042 0120     		movs	r0, #1
  93 0044 BDE8F081 		pop	{r4, r5, r6, r7, r8, pc}
  94              	.LVL9:
  95              	.L9:
 118:..\u8g2\csrc/u8x8_d_pcd8544_84x48.c ****       break;
  96              		.loc 1 118 0
  97 0048 2B49     		ldr	r1, .L15+12
  98 004a FFF7FEFF 		bl	u8x8_cad_SendSequence
  99              	.LVL10:
 100              		.loc 1 163 0
 101 004e 0120     		movs	r0, #1
 102 0050 BDE8F081 		pop	{r4, r5, r6, r7, r8, pc}
 103              	.LVL11:
 104              	.L7:
 125:..\u8g2\csrc/u8x8_d_pcd8544_84x48.c ****       u8x8_cad_SendCmd(u8x8, 0x021 ); /* command mode, extended function set */
 105              		.loc 1 125 0
 106 0054 FFF7FEFF 		bl	u8x8_cad_StartTransfer
 107              	.LVL12:
 126:..\u8g2\csrc/u8x8_d_pcd8544_84x48.c ****       u8x8_cad_SendCmd(u8x8, 0x080 | (arg_int >> 1) );
 108              		.loc 1 126 0
 109 0058 2121     		movs	r1, #33
 110 005a 3046     		mov	r0, r6
 111 005c FFF7FEFF 		bl	u8x8_cad_SendCmd
 112              	.LVL13:
 127:..\u8g2\csrc/u8x8_d_pcd8544_84x48.c ****       u8x8_cad_EndTransfer(u8x8);
ARM GAS  C:\Users\brian\AppData\Local\Temp\ccaMHHDN.s 			page 6


 113              		.loc 1 127 0
 114 0060 4FEA5801 		lsr	r1, r8, #1
 115 0064 41F08001 		orr	r1, r1, #128
 116 0068 3046     		mov	r0, r6
 117 006a FFF7FEFF 		bl	u8x8_cad_SendCmd
 118              	.LVL14:
 128:..\u8g2\csrc/u8x8_d_pcd8544_84x48.c ****       break;
 119              		.loc 1 128 0
 120 006e 3046     		mov	r0, r6
 121 0070 FFF7FEFF 		bl	u8x8_cad_EndTransfer
 122              	.LVL15:
 123              		.loc 1 163 0
 124 0074 0120     		movs	r0, #1
 129:..\u8g2\csrc/u8x8_d_pcd8544_84x48.c **** #endif
 125              		.loc 1 129 0
 126 0076 BDE8F081 		pop	{r4, r5, r6, r7, r8, pc}
 127              	.LVL16:
 128              	.L8:
 132:..\u8g2\csrc/u8x8_d_pcd8544_84x48.c ****     
 129              		.loc 1 132 0
 130 007a FFF7FEFF 		bl	u8x8_cad_StartTransfer
 131              	.LVL17:
 134:..\u8g2\csrc/u8x8_d_pcd8544_84x48.c ****       x *= 8;
 132              		.loc 1 134 0
 133 007e 6B79     		ldrb	r3, [r5, #5]	@ zero_extendqisi2
 134              	.LVL18:
 135:..\u8g2\csrc/u8x8_d_pcd8544_84x48.c ****       x += u8x8->x_offset;
 135              		.loc 1 135 0
 136 0080 DB00     		lsls	r3, r3, #3
 137              	.LVL19:
 138 0082 DBB2     		uxtb	r3, r3
 139              	.LVL20:
 136:..\u8g2\csrc/u8x8_d_pcd8544_84x48.c ****       u8x8_cad_SendCmd(u8x8, 0x020 ); /* activate chip (PD=0), horizontal increment (V=0), enter no
 140              		.loc 1 136 0
 141 0084 96F82240 		ldrb	r4, [r6, #34]	@ zero_extendqisi2
 142 0088 1C44     		add	r4, r4, r3
 143 008a E4B2     		uxtb	r4, r4
 144              	.LVL21:
 137:..\u8g2\csrc/u8x8_d_pcd8544_84x48.c ****       u8x8_cad_SendCmd(u8x8, 0x080 | (x) );	/* set X address */
 145              		.loc 1 137 0
 146 008c 2021     		movs	r1, #32
 147 008e 3046     		mov	r0, r6
 148 0090 FFF7FEFF 		bl	u8x8_cad_SendCmd
 149              	.LVL22:
 138:..\u8g2\csrc/u8x8_d_pcd8544_84x48.c ****       u8x8_cad_SendCmd(u8x8, 0x040 | (((u8x8_tile_t *)arg_ptr)->y_pos) );	/* set Y address */
 150              		.loc 1 138 0
 151 0094 44F08001 		orr	r1, r4, #128
 152 0098 3046     		mov	r0, r6
 153 009a FFF7FEFF 		bl	u8x8_cad_SendCmd
 154              	.LVL23:
 139:..\u8g2\csrc/u8x8_d_pcd8544_84x48.c ****     
 155              		.loc 1 139 0
 156 009e A979     		ldrb	r1, [r5, #6]	@ zero_extendqisi2
 157 00a0 41F04001 		orr	r1, r1, #64
 158 00a4 3046     		mov	r0, r6
 159 00a6 FFF7FEFF 		bl	u8x8_cad_SendCmd
 160              	.LVL24:
ARM GAS  C:\Users\brian\AppData\Local\Temp\ccaMHHDN.s 			page 7


 141:..\u8g2\csrc/u8x8_d_pcd8544_84x48.c ****       c = ((u8x8_tile_t *)arg_ptr)->cnt;
 161              		.loc 1 141 0
 162 00aa 2F68     		ldr	r7, [r5]
 163              	.LVL25:
 142:..\u8g2\csrc/u8x8_d_pcd8544_84x48.c ****       c *= 8;	
 164              		.loc 1 142 0
 165 00ac 2D79     		ldrb	r5, [r5, #4]	@ zero_extendqisi2
 166              	.LVL26:
 143:..\u8g2\csrc/u8x8_d_pcd8544_84x48.c ****       do
 167              		.loc 1 143 0
 168 00ae ED00     		lsls	r5, r5, #3
 169              	.LVL27:
 170 00b0 EDB2     		uxtb	r5, r5
 171              	.LVL28:
 172              	.L12:
 146:..\u8g2\csrc/u8x8_d_pcd8544_84x48.c **** 	{
 173              		.loc 1 146 0
 174 00b2 2B19     		adds	r3, r5, r4
 175 00b4 542B     		cmp	r3, #84
 176 00b6 04D9     		bls	.L10
 148:..\u8g2\csrc/u8x8_d_pcd8544_84x48.c **** 	    break;
 177              		.loc 1 148 0
 178 00b8 532C     		cmp	r4, #83
 179 00ba 0ED8     		bhi	.L11
 180              	.LVL29:
 151:..\u8g2\csrc/u8x8_d_pcd8544_84x48.c **** 	}
 181              		.loc 1 151 0
 182 00bc C4F15405 		rsb	r5, r4, #84
 183 00c0 EDB2     		uxtb	r5, r5
 184              	.LVL30:
 185              	.L10:
 153:..\u8g2\csrc/u8x8_d_pcd8544_84x48.c **** 	x += c;
 186              		.loc 1 153 0
 187 00c2 3A46     		mov	r2, r7
 188 00c4 2946     		mov	r1, r5
 189 00c6 3046     		mov	r0, r6
 190 00c8 FFF7FEFF 		bl	u8x8_cad_SendData
 191              	.LVL31:
 154:..\u8g2\csrc/u8x8_d_pcd8544_84x48.c **** 	arg_int--;
 192              		.loc 1 154 0
 193 00cc 2C44     		add	r4, r4, r5
 194              	.LVL32:
 195 00ce E4B2     		uxtb	r4, r4
 196              	.LVL33:
 155:..\u8g2\csrc/u8x8_d_pcd8544_84x48.c ****       } while( arg_int > 0 );
 197              		.loc 1 155 0
 198 00d0 08F1FF32 		add	r2, r8, #-1
 199              	.LVL34:
 156:..\u8g2\csrc/u8x8_d_pcd8544_84x48.c ****       
 200              		.loc 1 156 0
 201 00d4 12F0FF08 		ands	r8, r2, #255
 202 00d8 EBD1     		bne	.L12
 203              	.LVL35:
 204              	.L11:
 158:..\u8g2\csrc/u8x8_d_pcd8544_84x48.c ****       break;
 205              		.loc 1 158 0
 206 00da 3046     		mov	r0, r6
ARM GAS  C:\Users\brian\AppData\Local\Temp\ccaMHHDN.s 			page 8


 207 00dc FFF7FEFF 		bl	u8x8_cad_EndTransfer
 208              	.LVL36:
 209              		.loc 1 163 0
 210 00e0 0120     		movs	r0, #1
 159:..\u8g2\csrc/u8x8_d_pcd8544_84x48.c ****     default:
 211              		.loc 1 159 0
 212 00e2 BDE8F081 		pop	{r4, r5, r6, r7, r8, pc}
 213              	.LVL37:
 214              	.L13:
 161:..\u8g2\csrc/u8x8_d_pcd8544_84x48.c ****   }
 215              		.loc 1 161 0
 216 00e6 0020     		movs	r0, #0
 217              	.LVL38:
 164:..\u8g2\csrc/u8x8_d_pcd8544_84x48.c **** }
 218              		.loc 1 164 0
 219 00e8 BDE8F081 		pop	{r4, r5, r6, r7, r8, pc}
 220              	.LVL39:
 221              	.L16:
 222              		.align	2
 223              	.L15:
 224 00ec 00000000 		.word	.LANCHOR0
 225 00f0 18000000 		.word	.LANCHOR0+24
 226 00f4 2C000000 		.word	.LANCHOR0+44
 227 00f8 34000000 		.word	.LANCHOR0+52
 228              		.cfi_endproc
 229              	.LFE0:
 230              		.size	u8x8_d_pcd8544_84x48, .-u8x8_d_pcd8544_84x48
 231              		.section	.rodata
 232              		.align	2
 233              		.set	.LANCHOR0,. + 0
 234              		.type	u8x8_pcd8544_84x48_display_info, %object
 235              		.size	u8x8_pcd8544_84x48_display_info, 24
 236              	u8x8_pcd8544_84x48_display_info:
 237 0000 00       		.byte	0
 238 0001 01       		.byte	1
 239 0002 05       		.byte	5
 240 0003 05       		.byte	5
 241 0004 02       		.byte	2
 242 0005 02       		.byte	2
 243 0006 0C       		.byte	12
 244 0007 4B       		.byte	75
 245 0008 00093D00 		.word	4000000
 246 000c 00       		.byte	0
 247 000d 04       		.byte	4
 248 000e 1E       		.byte	30
 249 000f 28       		.byte	40
 250 0010 0B       		.byte	11
 251 0011 06       		.byte	6
 252 0012 00       		.byte	0
 253 0013 00       		.byte	0
 254 0014 5400     		.short	84
 255 0016 3000     		.short	48
 256              		.type	u8x8_d_pcd8544_84x48_init_seq, %object
 257              		.size	u8x8_d_pcd8544_84x48_init_seq, 17
 258              	u8x8_d_pcd8544_84x48_init_seq:
 259 0018 18       		.byte	24
 260 0019 15       		.byte	21
ARM GAS  C:\Users\brian\AppData\Local\Temp\ccaMHHDN.s 			page 9


 261 001a 21       		.byte	33
 262 001b 15       		.byte	21
 263 001c 06       		.byte	6
 264 001d 15       		.byte	21
 265 001e 13       		.byte	19
 266 001f 15       		.byte	21
 267 0020 C0       		.byte	-64
 268 0021 15       		.byte	21
 269 0022 20       		.byte	32
 270 0023 15       		.byte	21
 271 0024 08       		.byte	8
 272 0025 15       		.byte	21
 273 0026 24       		.byte	36
 274 0027 19       		.byte	25
 275 0028 FF       		.byte	-1
 276 0029 000000   		.space	3
 277              		.type	u8x8_d_pcd8544_84x48_powersave0_seq, %object
 278              		.size	u8x8_d_pcd8544_84x48_powersave0_seq, 7
 279              	u8x8_d_pcd8544_84x48_powersave0_seq:
 280 002c 18       		.byte	24
 281 002d 15       		.byte	21
 282 002e 20       		.byte	32
 283 002f 15       		.byte	21
 284 0030 0C       		.byte	12
 285 0031 19       		.byte	25
 286 0032 FF       		.byte	-1
 287 0033 00       		.space	1
 288              		.type	u8x8_d_pcd8544_84x48_powersave1_seq, %object
 289              		.size	u8x8_d_pcd8544_84x48_powersave1_seq, 9
 290              	u8x8_d_pcd8544_84x48_powersave1_seq:
 291 0034 18       		.byte	24
 292 0035 15       		.byte	21
 293 0036 20       		.byte	32
 294 0037 15       		.byte	21
 295 0038 08       		.byte	8
 296 0039 15       		.byte	21
 297 003a 24       		.byte	36
 298 003b 19       		.byte	25
 299 003c FF       		.byte	-1
 300              		.text
 301              	.Letext0:
 302              		.file 2 "c:\\program files (x86)\\cypress\\psoc creator\\4.4\\psoc creator\\import\\gnu\\arm\\5.4.
 303              		.file 3 "c:\\program files (x86)\\cypress\\psoc creator\\4.4\\psoc creator\\import\\gnu\\arm\\5.4.
 304              		.file 4 "..\\u8g2\\csrc\\u8x8.h"