ARM GAS  C:\Users\brian\AppData\Local\Temp\cccd6p3Y.s 			page 1


   1              		.syntax unified
   2              		.cpu cortex-m3
   3              		.fpu softvfp
   4              		.eabi_attribute 20, 1
   5              		.eabi_attribute 21, 1
   6              		.eabi_attribute 23, 3
   7              		.eabi_attribute 24, 1
   8              		.eabi_attribute 25, 1
   9              		.eabi_attribute 26, 1
  10              		.eabi_attribute 30, 1
  11              		.eabi_attribute 34, 1
  12              		.eabi_attribute 18, 4
  13              		.thumb
  14              		.syntax unified
  15              		.file	"u8x8_d_pcf8814_hx1230.c"
  16              		.text
  17              	.Ltext0:
  18              		.cfi_sections	.debug_frame
  19              		.section	.text.u8x8_d_hx1230_96x68_generic,"ax",%progbits
  20              		.align	2
  21              		.thumb
  22              		.thumb_func
  23              		.type	u8x8_d_hx1230_96x68_generic, %function
  24              	u8x8_d_hx1230_96x68_generic:
  25              	.LFB0:
  26              		.file 1 "..\\u8g2\\csrc\\u8x8_d_pcf8814_hx1230.c"
   1:..\u8g2\csrc/u8x8_d_pcf8814_hx1230.c **** /*
   2:..\u8g2\csrc/u8x8_d_pcf8814_hx1230.c **** 
   3:..\u8g2\csrc/u8x8_d_pcf8814_hx1230.c ****   u8x8_d_pcf8814_hc1230.c
   4:..\u8g2\csrc/u8x8_d_pcf8814_hx1230.c ****   
   5:..\u8g2\csrc/u8x8_d_pcf8814_hx1230.c ****   pcf8814: 65x96
   6:..\u8g2\csrc/u8x8_d_pcf8814_hx1230.c ****   hx1230: 68x96
   7:..\u8g2\csrc/u8x8_d_pcf8814_hx1230.c ****   
   8:..\u8g2\csrc/u8x8_d_pcf8814_hx1230.c ****   pcf8814 and hc1230 are almost identical.
   9:..\u8g2\csrc/u8x8_d_pcf8814_hx1230.c **** 
  10:..\u8g2\csrc/u8x8_d_pcf8814_hx1230.c ****   Universal 8bit Graphics Library (https://github.com/olikraus/u8g2/)
  11:..\u8g2\csrc/u8x8_d_pcf8814_hx1230.c **** 
  12:..\u8g2\csrc/u8x8_d_pcf8814_hx1230.c ****   Copyright (c) 2017, olikraus@gmail.com
  13:..\u8g2\csrc/u8x8_d_pcf8814_hx1230.c ****   All rights reserved.
  14:..\u8g2\csrc/u8x8_d_pcf8814_hx1230.c **** 
  15:..\u8g2\csrc/u8x8_d_pcf8814_hx1230.c ****   Redistribution and use in source and binary forms, with or without modification, 
  16:..\u8g2\csrc/u8x8_d_pcf8814_hx1230.c ****   are permitted provided that the following conditions are met:
  17:..\u8g2\csrc/u8x8_d_pcf8814_hx1230.c **** 
  18:..\u8g2\csrc/u8x8_d_pcf8814_hx1230.c ****   * Redistributions of source code must retain the above copyright notice, this list 
  19:..\u8g2\csrc/u8x8_d_pcf8814_hx1230.c ****     of conditions and the following disclaimer.
  20:..\u8g2\csrc/u8x8_d_pcf8814_hx1230.c ****     
  21:..\u8g2\csrc/u8x8_d_pcf8814_hx1230.c ****   * Redistributions in binary form must reproduce the above copyright notice, this 
  22:..\u8g2\csrc/u8x8_d_pcf8814_hx1230.c ****     list of conditions and the following disclaimer in the documentation and/or other 
  23:..\u8g2\csrc/u8x8_d_pcf8814_hx1230.c ****     materials provided with the distribution.
  24:..\u8g2\csrc/u8x8_d_pcf8814_hx1230.c **** 
  25:..\u8g2\csrc/u8x8_d_pcf8814_hx1230.c ****   THIS SOFTWARE IS PROVIDED BY THE COPYRIGHT HOLDERS AND 
  26:..\u8g2\csrc/u8x8_d_pcf8814_hx1230.c ****   CONTRIBUTORS "AS IS" AND ANY EXPRESS OR IMPLIED WARRANTIES, 
  27:..\u8g2\csrc/u8x8_d_pcf8814_hx1230.c ****   INCLUDING, BUT NOT LIMITED TO, THE IMPLIED WARRANTIES OF 
  28:..\u8g2\csrc/u8x8_d_pcf8814_hx1230.c ****   MERCHANTABILITY AND FITNESS FOR A PARTICULAR PURPOSE ARE 
  29:..\u8g2\csrc/u8x8_d_pcf8814_hx1230.c ****   DISCLAIMED. IN NO EVENT SHALL THE COPYRIGHT HOLDER OR 
  30:..\u8g2\csrc/u8x8_d_pcf8814_hx1230.c ****   CONTRIBUTORS BE LIABLE FOR ANY DIRECT, INDIRECT, INCIDENTAL, 
  31:..\u8g2\csrc/u8x8_d_pcf8814_hx1230.c ****   SPECIAL, EXEMPLARY, OR CONSEQUENTIAL DAMAGES (INCLUDING, BUT 
ARM GAS  C:\Users\brian\AppData\Local\Temp\cccd6p3Y.s 			page 2


  32:..\u8g2\csrc/u8x8_d_pcf8814_hx1230.c ****   NOT LIMITED TO, PROCUREMENT OF SUBSTITUTE GOODS OR SERVICES; 
  33:..\u8g2\csrc/u8x8_d_pcf8814_hx1230.c ****   LOSS OF USE, DATA, OR PROFITS; OR BUSINESS INTERRUPTION) HOWEVER 
  34:..\u8g2\csrc/u8x8_d_pcf8814_hx1230.c ****   CAUSED AND ON ANY THEORY OF LIABILITY, WHETHER IN CONTRACT, 
  35:..\u8g2\csrc/u8x8_d_pcf8814_hx1230.c ****   STRICT LIABILITY, OR TORT (INCLUDING NEGLIGENCE OR OTHERWISE) 
  36:..\u8g2\csrc/u8x8_d_pcf8814_hx1230.c ****   ARISING IN ANY WAY OUT OF THE USE OF THIS SOFTWARE, EVEN IF 
  37:..\u8g2\csrc/u8x8_d_pcf8814_hx1230.c ****   ADVISED OF THE POSSIBILITY OF SUCH DAMAGE.  
  38:..\u8g2\csrc/u8x8_d_pcf8814_hx1230.c ****   
  39:..\u8g2\csrc/u8x8_d_pcf8814_hx1230.c **** */
  40:..\u8g2\csrc/u8x8_d_pcf8814_hx1230.c **** 
  41:..\u8g2\csrc/u8x8_d_pcf8814_hx1230.c **** 
  42:..\u8g2\csrc/u8x8_d_pcf8814_hx1230.c **** #include "u8x8.h"
  43:..\u8g2\csrc/u8x8_d_pcf8814_hx1230.c **** 
  44:..\u8g2\csrc/u8x8_d_pcf8814_hx1230.c **** 
  45:..\u8g2\csrc/u8x8_d_pcf8814_hx1230.c **** 
  46:..\u8g2\csrc/u8x8_d_pcf8814_hx1230.c **** static const uint8_t u8x8_d_hx1230_96x68_init_seq[] = {
  47:..\u8g2\csrc/u8x8_d_pcf8814_hx1230.c ****     
  48:..\u8g2\csrc/u8x8_d_pcf8814_hx1230.c ****   U8X8_START_TRANSFER(),             	/* enable chip, delay is part of the transfer start */
  49:..\u8g2\csrc/u8x8_d_pcf8814_hx1230.c ****   
  50:..\u8g2\csrc/u8x8_d_pcf8814_hx1230.c ****   U8X8_C(0x0ae),		                /* display off */
  51:..\u8g2\csrc/u8x8_d_pcf8814_hx1230.c ****   U8X8_C(0x020),		                /* power off */
  52:..\u8g2\csrc/u8x8_d_pcf8814_hx1230.c ****   U8X8_C(0x080),				/* contrast setting, 0..31, set to 0 */
  53:..\u8g2\csrc/u8x8_d_pcf8814_hx1230.c ****   U8X8_C(0x0a6),		                /* not inverted display */
  54:..\u8g2\csrc/u8x8_d_pcf8814_hx1230.c ****   U8X8_C(0x0a4),		                /* normal display mode */
  55:..\u8g2\csrc/u8x8_d_pcf8814_hx1230.c **** 
  56:..\u8g2\csrc/u8x8_d_pcf8814_hx1230.c ****   U8X8_C(0x0a0),		                /* */
  57:..\u8g2\csrc/u8x8_d_pcf8814_hx1230.c ****   U8X8_C(0x0c0),		                /* */
  58:..\u8g2\csrc/u8x8_d_pcf8814_hx1230.c ****   
  59:..\u8g2\csrc/u8x8_d_pcf8814_hx1230.c ****   U8X8_C(0x040),		                /* start at scanline 0 */
  60:..\u8g2\csrc/u8x8_d_pcf8814_hx1230.c ****     
  61:..\u8g2\csrc/u8x8_d_pcf8814_hx1230.c ****   U8X8_END_TRANSFER(),             	/* disable chip */
  62:..\u8g2\csrc/u8x8_d_pcf8814_hx1230.c ****   U8X8_END()             			/* end of sequence */
  63:..\u8g2\csrc/u8x8_d_pcf8814_hx1230.c **** };
  64:..\u8g2\csrc/u8x8_d_pcf8814_hx1230.c **** 
  65:..\u8g2\csrc/u8x8_d_pcf8814_hx1230.c **** static const uint8_t u8x8_d_hx1230_96x68_powersave0_seq[] = {
  66:..\u8g2\csrc/u8x8_d_pcf8814_hx1230.c ****   U8X8_START_TRANSFER(),             	/* enable chip, delay is part of the transfer start */
  67:..\u8g2\csrc/u8x8_d_pcf8814_hx1230.c ****   U8X8_C(0x02f),		                /* power on */
  68:..\u8g2\csrc/u8x8_d_pcf8814_hx1230.c ****   U8X8_C(0x0af),		                /* display on */
  69:..\u8g2\csrc/u8x8_d_pcf8814_hx1230.c ****   U8X8_END_TRANSFER(),             	/* disable chip */
  70:..\u8g2\csrc/u8x8_d_pcf8814_hx1230.c ****   U8X8_END()             			/* end of sequence */
  71:..\u8g2\csrc/u8x8_d_pcf8814_hx1230.c **** };
  72:..\u8g2\csrc/u8x8_d_pcf8814_hx1230.c **** 
  73:..\u8g2\csrc/u8x8_d_pcf8814_hx1230.c **** static const uint8_t u8x8_d_hx1230_96x68_powersave1_seq[] = {
  74:..\u8g2\csrc/u8x8_d_pcf8814_hx1230.c ****   U8X8_START_TRANSFER(),             	/* enable chip, delay is part of the transfer start */
  75:..\u8g2\csrc/u8x8_d_pcf8814_hx1230.c ****   U8X8_C(0x0ae),           		/* display off */
  76:..\u8g2\csrc/u8x8_d_pcf8814_hx1230.c ****   U8X8_C(0x0a5),	     		/* All pixels on = powersave */
  77:..\u8g2\csrc/u8x8_d_pcf8814_hx1230.c ****   U8X8_END_TRANSFER(),             	/* disable chip */
  78:..\u8g2\csrc/u8x8_d_pcf8814_hx1230.c ****   U8X8_END()             			/* end of sequence */
  79:..\u8g2\csrc/u8x8_d_pcf8814_hx1230.c **** };
  80:..\u8g2\csrc/u8x8_d_pcf8814_hx1230.c **** 
  81:..\u8g2\csrc/u8x8_d_pcf8814_hx1230.c **** static const uint8_t u8x8_d_hx1230_96x68_flip0_seq[] = {
  82:..\u8g2\csrc/u8x8_d_pcf8814_hx1230.c ****   U8X8_START_TRANSFER(),             	/* enable chip, delay is part of the transfer start */
  83:..\u8g2\csrc/u8x8_d_pcf8814_hx1230.c ****   U8X8_C(0x0a0),		                /* */
  84:..\u8g2\csrc/u8x8_d_pcf8814_hx1230.c ****   U8X8_C(0x0c0),		                /* */
  85:..\u8g2\csrc/u8x8_d_pcf8814_hx1230.c ****   U8X8_END_TRANSFER(),             	/* disable chip */
  86:..\u8g2\csrc/u8x8_d_pcf8814_hx1230.c ****   U8X8_END()             			/* end of sequence */
  87:..\u8g2\csrc/u8x8_d_pcf8814_hx1230.c **** };
  88:..\u8g2\csrc/u8x8_d_pcf8814_hx1230.c **** 
ARM GAS  C:\Users\brian\AppData\Local\Temp\cccd6p3Y.s 			page 3


  89:..\u8g2\csrc/u8x8_d_pcf8814_hx1230.c **** static const uint8_t u8x8_d_hx1230_96x68_flip1_seq[] = {
  90:..\u8g2\csrc/u8x8_d_pcf8814_hx1230.c ****   U8X8_START_TRANSFER(),             	/* enable chip, delay is part of the transfer start */
  91:..\u8g2\csrc/u8x8_d_pcf8814_hx1230.c ****   U8X8_C(0x0a1),		                /* */
  92:..\u8g2\csrc/u8x8_d_pcf8814_hx1230.c ****   U8X8_C(0x0c8),		                /* */
  93:..\u8g2\csrc/u8x8_d_pcf8814_hx1230.c ****   U8X8_END_TRANSFER(),             	/* disable chip */
  94:..\u8g2\csrc/u8x8_d_pcf8814_hx1230.c ****   U8X8_END()             			/* end of sequence */
  95:..\u8g2\csrc/u8x8_d_pcf8814_hx1230.c **** };
  96:..\u8g2\csrc/u8x8_d_pcf8814_hx1230.c **** 
  97:..\u8g2\csrc/u8x8_d_pcf8814_hx1230.c **** 
  98:..\u8g2\csrc/u8x8_d_pcf8814_hx1230.c **** static uint8_t u8x8_d_hx1230_96x68_generic(u8x8_t *u8x8, uint8_t msg, uint8_t arg_int, void *arg_pt
  99:..\u8g2\csrc/u8x8_d_pcf8814_hx1230.c **** {
  27              		.loc 1 99 0
  28              		.cfi_startproc
  29              		@ args = 0, pretend = 0, frame = 0
  30              		@ frame_needed = 0, uses_anonymous_args = 0
  31              	.LVL0:
  32 0000 F8B5     		push	{r3, r4, r5, r6, r7, lr}
  33              		.cfi_def_cfa_offset 24
  34              		.cfi_offset 3, -24
  35              		.cfi_offset 4, -20
  36              		.cfi_offset 5, -16
  37              		.cfi_offset 6, -12
  38              		.cfi_offset 7, -8
  39              		.cfi_offset 14, -4
  40 0002 0546     		mov	r5, r0
  41 0004 1446     		mov	r4, r2
  42 0006 1E46     		mov	r6, r3
 100:..\u8g2\csrc/u8x8_d_pcf8814_hx1230.c ****   uint8_t x, c;
 101:..\u8g2\csrc/u8x8_d_pcf8814_hx1230.c ****   uint8_t *ptr;
 102:..\u8g2\csrc/u8x8_d_pcf8814_hx1230.c ****   switch(msg)
  43              		.loc 1 102 0
  44 0008 0A39     		subs	r1, r1, #10
  45              	.LVL1:
  46 000a 0529     		cmp	r1, #5
  47 000c 62D8     		bhi	.L12
  48 000e DFE801F0 		tbb	[pc, r1]
  49              	.LVL2:
  50              	.L4:
  51 0012 03       		.byte	(.L3-.L4)/2
  52 0013 0B       		.byte	(.L5-.L4)/2
  53 0014 61       		.byte	(.L12-.L4)/2
  54 0015 16       		.byte	(.L6-.L4)/2
  55 0016 29       		.byte	(.L7-.L4)/2
  56 0017 36       		.byte	(.L8-.L4)/2
  57              		.p2align 1
  58              	.L3:
 103:..\u8g2\csrc/u8x8_d_pcf8814_hx1230.c ****   {
 104:..\u8g2\csrc/u8x8_d_pcf8814_hx1230.c ****     /* handled by the calling function
 105:..\u8g2\csrc/u8x8_d_pcf8814_hx1230.c ****     case U8X8_MSG_DISPLAY_SETUP_MEMORY:
 106:..\u8g2\csrc/u8x8_d_pcf8814_hx1230.c ****       u8x8_d_helper_display_setup_memory(u8x8, &u8x8_hx1230_96x68_display_info);
 107:..\u8g2\csrc/u8x8_d_pcf8814_hx1230.c ****       break;
 108:..\u8g2\csrc/u8x8_d_pcf8814_hx1230.c ****     */
 109:..\u8g2\csrc/u8x8_d_pcf8814_hx1230.c ****     case U8X8_MSG_DISPLAY_INIT:
 110:..\u8g2\csrc/u8x8_d_pcf8814_hx1230.c ****       u8x8_d_helper_display_init(u8x8);
  59              		.loc 1 110 0
  60 0018 FFF7FEFF 		bl	u8x8_d_helper_display_init
  61              	.LVL3:
ARM GAS  C:\Users\brian\AppData\Local\Temp\cccd6p3Y.s 			page 4


 111:..\u8g2\csrc/u8x8_d_pcf8814_hx1230.c ****       u8x8_cad_SendSequence(u8x8, u8x8_d_hx1230_96x68_init_seq);    
  62              		.loc 1 111 0
  63 001c 2E49     		ldr	r1, .L14
  64 001e 2846     		mov	r0, r5
  65 0020 FFF7FEFF 		bl	u8x8_cad_SendSequence
  66              	.LVL4:
 112:..\u8g2\csrc/u8x8_d_pcf8814_hx1230.c ****       break;
 113:..\u8g2\csrc/u8x8_d_pcf8814_hx1230.c ****     case U8X8_MSG_DISPLAY_SET_POWER_SAVE:
 114:..\u8g2\csrc/u8x8_d_pcf8814_hx1230.c ****       if ( arg_int == 0 )
 115:..\u8g2\csrc/u8x8_d_pcf8814_hx1230.c **** 	u8x8_cad_SendSequence(u8x8, u8x8_d_hx1230_96x68_powersave0_seq);
 116:..\u8g2\csrc/u8x8_d_pcf8814_hx1230.c ****       else
 117:..\u8g2\csrc/u8x8_d_pcf8814_hx1230.c **** 	u8x8_cad_SendSequence(u8x8, u8x8_d_hx1230_96x68_powersave1_seq);
 118:..\u8g2\csrc/u8x8_d_pcf8814_hx1230.c ****       break;
 119:..\u8g2\csrc/u8x8_d_pcf8814_hx1230.c ****     case U8X8_MSG_DISPLAY_SET_FLIP_MODE:
 120:..\u8g2\csrc/u8x8_d_pcf8814_hx1230.c ****       if ( arg_int == 0 )
 121:..\u8g2\csrc/u8x8_d_pcf8814_hx1230.c ****       {
 122:..\u8g2\csrc/u8x8_d_pcf8814_hx1230.c **** 	u8x8_cad_SendSequence(u8x8, u8x8_d_hx1230_96x68_flip0_seq);
 123:..\u8g2\csrc/u8x8_d_pcf8814_hx1230.c **** 	u8x8->x_offset = u8x8->display_info->default_x_offset;
 124:..\u8g2\csrc/u8x8_d_pcf8814_hx1230.c ****       }
 125:..\u8g2\csrc/u8x8_d_pcf8814_hx1230.c ****       else
 126:..\u8g2\csrc/u8x8_d_pcf8814_hx1230.c ****       {
 127:..\u8g2\csrc/u8x8_d_pcf8814_hx1230.c **** 	u8x8_cad_SendSequence(u8x8, u8x8_d_hx1230_96x68_flip1_seq);
 128:..\u8g2\csrc/u8x8_d_pcf8814_hx1230.c **** 	u8x8->x_offset = u8x8->display_info->flipmode_x_offset;
 129:..\u8g2\csrc/u8x8_d_pcf8814_hx1230.c ****       }
 130:..\u8g2\csrc/u8x8_d_pcf8814_hx1230.c ****       break;
 131:..\u8g2\csrc/u8x8_d_pcf8814_hx1230.c **** #ifdef U8X8_WITH_SET_CONTRAST
 132:..\u8g2\csrc/u8x8_d_pcf8814_hx1230.c ****     case U8X8_MSG_DISPLAY_SET_CONTRAST:
 133:..\u8g2\csrc/u8x8_d_pcf8814_hx1230.c ****       u8x8_cad_StartTransfer(u8x8);
 134:..\u8g2\csrc/u8x8_d_pcf8814_hx1230.c ****       u8x8_cad_SendCmd(u8x8, (arg_int>>3)|0x80 );	/* 0..31 for contrast */
 135:..\u8g2\csrc/u8x8_d_pcf8814_hx1230.c ****       u8x8_cad_EndTransfer(u8x8);
 136:..\u8g2\csrc/u8x8_d_pcf8814_hx1230.c ****       break;
 137:..\u8g2\csrc/u8x8_d_pcf8814_hx1230.c **** #endif
 138:..\u8g2\csrc/u8x8_d_pcf8814_hx1230.c ****     case U8X8_MSG_DISPLAY_DRAW_TILE:
 139:..\u8g2\csrc/u8x8_d_pcf8814_hx1230.c ****       u8x8_cad_StartTransfer(u8x8);
 140:..\u8g2\csrc/u8x8_d_pcf8814_hx1230.c ****       x = ((u8x8_tile_t *)arg_ptr)->x_pos;    
 141:..\u8g2\csrc/u8x8_d_pcf8814_hx1230.c ****       x *= 8;
 142:..\u8g2\csrc/u8x8_d_pcf8814_hx1230.c ****       x += u8x8->x_offset;
 143:..\u8g2\csrc/u8x8_d_pcf8814_hx1230.c ****     
 144:..\u8g2\csrc/u8x8_d_pcf8814_hx1230.c ****       u8x8_cad_SendCmd(u8x8, x&15);
 145:..\u8g2\csrc/u8x8_d_pcf8814_hx1230.c ****       u8x8_cad_SendCmd(u8x8, 0x010 | (x>>4));
 146:..\u8g2\csrc/u8x8_d_pcf8814_hx1230.c ****       u8x8_cad_SendCmd(u8x8, 0x0b0 | ((u8x8_tile_t *)arg_ptr)->y_pos);
 147:..\u8g2\csrc/u8x8_d_pcf8814_hx1230.c ****       
 148:..\u8g2\csrc/u8x8_d_pcf8814_hx1230.c ****       do
 149:..\u8g2\csrc/u8x8_d_pcf8814_hx1230.c ****       {
 150:..\u8g2\csrc/u8x8_d_pcf8814_hx1230.c **** 	c = ((u8x8_tile_t *)arg_ptr)->cnt;
 151:..\u8g2\csrc/u8x8_d_pcf8814_hx1230.c **** 	ptr = ((u8x8_tile_t *)arg_ptr)->tile_ptr;
 152:..\u8g2\csrc/u8x8_d_pcf8814_hx1230.c **** 	u8x8_cad_SendData(u8x8, c*8, ptr); 	/* note: SendData can not handle more than 255 bytes */
 153:..\u8g2\csrc/u8x8_d_pcf8814_hx1230.c **** 	arg_int--;
 154:..\u8g2\csrc/u8x8_d_pcf8814_hx1230.c ****       } while( arg_int > 0 );
 155:..\u8g2\csrc/u8x8_d_pcf8814_hx1230.c ****       
 156:..\u8g2\csrc/u8x8_d_pcf8814_hx1230.c ****       u8x8_cad_EndTransfer(u8x8);
 157:..\u8g2\csrc/u8x8_d_pcf8814_hx1230.c ****       break;
 158:..\u8g2\csrc/u8x8_d_pcf8814_hx1230.c ****     default:
 159:..\u8g2\csrc/u8x8_d_pcf8814_hx1230.c ****       return 0;
 160:..\u8g2\csrc/u8x8_d_pcf8814_hx1230.c ****   }
 161:..\u8g2\csrc/u8x8_d_pcf8814_hx1230.c ****   return 1;
  67              		.loc 1 161 0
ARM GAS  C:\Users\brian\AppData\Local\Temp\cccd6p3Y.s 			page 5


  68 0024 0120     		movs	r0, #1
 112:..\u8g2\csrc/u8x8_d_pcf8814_hx1230.c ****       break;
  69              		.loc 1 112 0
  70 0026 F8BD     		pop	{r3, r4, r5, r6, r7, pc}
  71              	.LVL5:
  72              	.L5:
 114:..\u8g2\csrc/u8x8_d_pcf8814_hx1230.c **** 	u8x8_cad_SendSequence(u8x8, u8x8_d_hx1230_96x68_powersave0_seq);
  73              		.loc 1 114 0
  74 0028 22B9     		cbnz	r2, .L9
 115:..\u8g2\csrc/u8x8_d_pcf8814_hx1230.c ****       else
  75              		.loc 1 115 0
  76 002a 2C49     		ldr	r1, .L14+4
  77 002c FFF7FEFF 		bl	u8x8_cad_SendSequence
  78              	.LVL6:
  79              		.loc 1 161 0
  80 0030 0120     		movs	r0, #1
  81 0032 F8BD     		pop	{r3, r4, r5, r6, r7, pc}
  82              	.LVL7:
  83              	.L9:
 117:..\u8g2\csrc/u8x8_d_pcf8814_hx1230.c ****       break;
  84              		.loc 1 117 0
  85 0034 2A49     		ldr	r1, .L14+8
  86 0036 FFF7FEFF 		bl	u8x8_cad_SendSequence
  87              	.LVL8:
  88              		.loc 1 161 0
  89 003a 0120     		movs	r0, #1
  90 003c F8BD     		pop	{r3, r4, r5, r6, r7, pc}
  91              	.LVL9:
  92              	.L6:
 120:..\u8g2\csrc/u8x8_d_pcf8814_hx1230.c ****       {
  93              		.loc 1 120 0
  94 003e 42B9     		cbnz	r2, .L10
 122:..\u8g2\csrc/u8x8_d_pcf8814_hx1230.c **** 	u8x8->x_offset = u8x8->display_info->default_x_offset;
  95              		.loc 1 122 0
  96 0040 2849     		ldr	r1, .L14+12
  97 0042 FFF7FEFF 		bl	u8x8_cad_SendSequence
  98              	.LVL10:
 123:..\u8g2\csrc/u8x8_d_pcf8814_hx1230.c ****       }
  99              		.loc 1 123 0
 100 0046 2B68     		ldr	r3, [r5]
 101 0048 9B7C     		ldrb	r3, [r3, #18]	@ zero_extendqisi2
 102 004a 85F82230 		strb	r3, [r5, #34]
 103              		.loc 1 161 0
 104 004e 0120     		movs	r0, #1
 105 0050 F8BD     		pop	{r3, r4, r5, r6, r7, pc}
 106              	.LVL11:
 107              	.L10:
 127:..\u8g2\csrc/u8x8_d_pcf8814_hx1230.c **** 	u8x8->x_offset = u8x8->display_info->flipmode_x_offset;
 108              		.loc 1 127 0
 109 0052 2549     		ldr	r1, .L14+16
 110 0054 FFF7FEFF 		bl	u8x8_cad_SendSequence
 111              	.LVL12:
 128:..\u8g2\csrc/u8x8_d_pcf8814_hx1230.c ****       }
 112              		.loc 1 128 0
 113 0058 2B68     		ldr	r3, [r5]
 114 005a DB7C     		ldrb	r3, [r3, #19]	@ zero_extendqisi2
 115 005c 85F82230 		strb	r3, [r5, #34]
ARM GAS  C:\Users\brian\AppData\Local\Temp\cccd6p3Y.s 			page 6


 116              		.loc 1 161 0
 117 0060 0120     		movs	r0, #1
 118 0062 F8BD     		pop	{r3, r4, r5, r6, r7, pc}
 119              	.LVL13:
 120              	.L7:
 133:..\u8g2\csrc/u8x8_d_pcf8814_hx1230.c ****       u8x8_cad_SendCmd(u8x8, (arg_int>>3)|0x80 );	/* 0..31 for contrast */
 121              		.loc 1 133 0
 122 0064 FFF7FEFF 		bl	u8x8_cad_StartTransfer
 123              	.LVL14:
 134:..\u8g2\csrc/u8x8_d_pcf8814_hx1230.c ****       u8x8_cad_EndTransfer(u8x8);
 124              		.loc 1 134 0
 125 0068 E108     		lsrs	r1, r4, #3
 126 006a 41F08001 		orr	r1, r1, #128
 127 006e 2846     		mov	r0, r5
 128 0070 FFF7FEFF 		bl	u8x8_cad_SendCmd
 129              	.LVL15:
 135:..\u8g2\csrc/u8x8_d_pcf8814_hx1230.c ****       break;
 130              		.loc 1 135 0
 131 0074 2846     		mov	r0, r5
 132 0076 FFF7FEFF 		bl	u8x8_cad_EndTransfer
 133              	.LVL16:
 134              		.loc 1 161 0
 135 007a 0120     		movs	r0, #1
 136:..\u8g2\csrc/u8x8_d_pcf8814_hx1230.c **** #endif
 136              		.loc 1 136 0
 137 007c F8BD     		pop	{r3, r4, r5, r6, r7, pc}
 138              	.LVL17:
 139              	.L8:
 139:..\u8g2\csrc/u8x8_d_pcf8814_hx1230.c ****       x = ((u8x8_tile_t *)arg_ptr)->x_pos;    
 140              		.loc 1 139 0
 141 007e FFF7FEFF 		bl	u8x8_cad_StartTransfer
 142              	.LVL18:
 140:..\u8g2\csrc/u8x8_d_pcf8814_hx1230.c ****       x *= 8;
 143              		.loc 1 140 0
 144 0082 7779     		ldrb	r7, [r6, #5]	@ zero_extendqisi2
 145              	.LVL19:
 141:..\u8g2\csrc/u8x8_d_pcf8814_hx1230.c ****       x += u8x8->x_offset;
 146              		.loc 1 141 0
 147 0084 FF00     		lsls	r7, r7, #3
 148              	.LVL20:
 149 0086 FFB2     		uxtb	r7, r7
 150              	.LVL21:
 142:..\u8g2\csrc/u8x8_d_pcf8814_hx1230.c ****     
 151              		.loc 1 142 0
 152 0088 95F82230 		ldrb	r3, [r5, #34]	@ zero_extendqisi2
 153 008c 1F44     		add	r7, r7, r3
 154              	.LVL22:
 155 008e FFB2     		uxtb	r7, r7
 156              	.LVL23:
 144:..\u8g2\csrc/u8x8_d_pcf8814_hx1230.c ****       u8x8_cad_SendCmd(u8x8, 0x010 | (x>>4));
 157              		.loc 1 144 0
 158 0090 07F00F01 		and	r1, r7, #15
 159 0094 2846     		mov	r0, r5
 160 0096 FFF7FEFF 		bl	u8x8_cad_SendCmd
 161              	.LVL24:
 145:..\u8g2\csrc/u8x8_d_pcf8814_hx1230.c ****       u8x8_cad_SendCmd(u8x8, 0x0b0 | ((u8x8_tile_t *)arg_ptr)->y_pos);
 162              		.loc 1 145 0
ARM GAS  C:\Users\brian\AppData\Local\Temp\cccd6p3Y.s 			page 7


 163 009a 3909     		lsrs	r1, r7, #4
 164 009c 41F01001 		orr	r1, r1, #16
 165 00a0 2846     		mov	r0, r5
 166 00a2 FFF7FEFF 		bl	u8x8_cad_SendCmd
 167              	.LVL25:
 146:..\u8g2\csrc/u8x8_d_pcf8814_hx1230.c ****       
 168              		.loc 1 146 0
 169 00a6 B179     		ldrb	r1, [r6, #6]	@ zero_extendqisi2
 170 00a8 41F0B001 		orr	r1, r1, #176
 171 00ac 2846     		mov	r0, r5
 172 00ae FFF7FEFF 		bl	u8x8_cad_SendCmd
 173              	.LVL26:
 174              	.L11:
 150:..\u8g2\csrc/u8x8_d_pcf8814_hx1230.c **** 	ptr = ((u8x8_tile_t *)arg_ptr)->tile_ptr;
 175              		.loc 1 150 0 discriminator 1
 176 00b2 3179     		ldrb	r1, [r6, #4]	@ zero_extendqisi2
 177              	.LVL27:
 152:..\u8g2\csrc/u8x8_d_pcf8814_hx1230.c **** 	arg_int--;
 178              		.loc 1 152 0 discriminator 1
 179 00b4 C900     		lsls	r1, r1, #3
 180              	.LVL28:
 181 00b6 3268     		ldr	r2, [r6]
 182 00b8 01F0F801 		and	r1, r1, #248
 183 00bc 2846     		mov	r0, r5
 184 00be FFF7FEFF 		bl	u8x8_cad_SendData
 185              	.LVL29:
 153:..\u8g2\csrc/u8x8_d_pcf8814_hx1230.c ****       } while( arg_int > 0 );
 186              		.loc 1 153 0 discriminator 1
 187 00c2 621E     		subs	r2, r4, #1
 188              	.LVL30:
 154:..\u8g2\csrc/u8x8_d_pcf8814_hx1230.c ****       
 189              		.loc 1 154 0 discriminator 1
 190 00c4 12F0FF04 		ands	r4, r2, #255
 191 00c8 F3D1     		bne	.L11
 156:..\u8g2\csrc/u8x8_d_pcf8814_hx1230.c ****       break;
 192              		.loc 1 156 0
 193 00ca 2846     		mov	r0, r5
 194 00cc FFF7FEFF 		bl	u8x8_cad_EndTransfer
 195              	.LVL31:
 196              		.loc 1 161 0
 197 00d0 0120     		movs	r0, #1
 157:..\u8g2\csrc/u8x8_d_pcf8814_hx1230.c ****     default:
 198              		.loc 1 157 0
 199 00d2 F8BD     		pop	{r3, r4, r5, r6, r7, pc}
 200              	.LVL32:
 201              	.L12:
 159:..\u8g2\csrc/u8x8_d_pcf8814_hx1230.c ****   }
 202              		.loc 1 159 0
 203 00d4 0020     		movs	r0, #0
 204              	.LVL33:
 162:..\u8g2\csrc/u8x8_d_pcf8814_hx1230.c **** }
 205              		.loc 1 162 0
 206 00d6 F8BD     		pop	{r3, r4, r5, r6, r7, pc}
 207              	.LVL34:
 208              	.L15:
 209              		.align	2
 210              	.L14:
ARM GAS  C:\Users\brian\AppData\Local\Temp\cccd6p3Y.s 			page 8


 211 00d8 00000000 		.word	.LANCHOR0
 212 00dc 14000000 		.word	.LANCHOR0+20
 213 00e0 1C000000 		.word	.LANCHOR0+28
 214 00e4 24000000 		.word	.LANCHOR0+36
 215 00e8 2C000000 		.word	.LANCHOR0+44
 216              		.cfi_endproc
 217              	.LFE0:
 218              		.size	u8x8_d_hx1230_96x68_generic, .-u8x8_d_hx1230_96x68_generic
 219              		.section	.text.u8x8_d_hx1230_96x68,"ax",%progbits
 220              		.align	2
 221              		.global	u8x8_d_hx1230_96x68
 222              		.thumb
 223              		.thumb_func
 224              		.type	u8x8_d_hx1230_96x68, %function
 225              	u8x8_d_hx1230_96x68:
 226              	.LFB1:
 163:..\u8g2\csrc/u8x8_d_pcf8814_hx1230.c **** 
 164:..\u8g2\csrc/u8x8_d_pcf8814_hx1230.c **** static const u8x8_display_info_t u8x8_hx1230_96x68_display_info =
 165:..\u8g2\csrc/u8x8_d_pcf8814_hx1230.c **** {
 166:..\u8g2\csrc/u8x8_d_pcf8814_hx1230.c ****   /* chip_enable_level = */ 0,
 167:..\u8g2\csrc/u8x8_d_pcf8814_hx1230.c ****   /* chip_disable_level = */ 1,
 168:..\u8g2\csrc/u8x8_d_pcf8814_hx1230.c ****   
 169:..\u8g2\csrc/u8x8_d_pcf8814_hx1230.c ****   /* post_chip_enable_wait_ns = */ 100,
 170:..\u8g2\csrc/u8x8_d_pcf8814_hx1230.c ****   /* pre_chip_disable_wait_ns = */ 100,
 171:..\u8g2\csrc/u8x8_d_pcf8814_hx1230.c ****   /* reset_pulse_width_ms = */ 100, 
 172:..\u8g2\csrc/u8x8_d_pcf8814_hx1230.c ****   /* post_reset_wait_ms = */ 100, 
 173:..\u8g2\csrc/u8x8_d_pcf8814_hx1230.c ****   /* sda_setup_time_ns = */ 100,	
 174:..\u8g2\csrc/u8x8_d_pcf8814_hx1230.c ****   /* sck_pulse_width_ns = */ 100,	
 175:..\u8g2\csrc/u8x8_d_pcf8814_hx1230.c ****   /* sck_clock_hz = */ 4000000UL,	/* since Arduino 1.6.0, the SPI bus speed in Hz. Should be  10000
 176:..\u8g2\csrc/u8x8_d_pcf8814_hx1230.c ****   /* spi_mode = */ 0,		/* active high, rising edge */
 177:..\u8g2\csrc/u8x8_d_pcf8814_hx1230.c ****   /* i2c_bus_clock_100kHz = */ 4,
 178:..\u8g2\csrc/u8x8_d_pcf8814_hx1230.c ****   /* data_setup_time_ns = */ 40,
 179:..\u8g2\csrc/u8x8_d_pcf8814_hx1230.c ****   /* write_pulse_width_ns = */ 150,	
 180:..\u8g2\csrc/u8x8_d_pcf8814_hx1230.c ****   /* tile_width = */ 12,
 181:..\u8g2\csrc/u8x8_d_pcf8814_hx1230.c ****   /* tile_hight = */ 9,
 182:..\u8g2\csrc/u8x8_d_pcf8814_hx1230.c ****   /* default_x_offset = */ 0,
 183:..\u8g2\csrc/u8x8_d_pcf8814_hx1230.c ****   /* flipmode_x_offset = */ 0,
 184:..\u8g2\csrc/u8x8_d_pcf8814_hx1230.c ****   /* pixel_width = */ 96,
 185:..\u8g2\csrc/u8x8_d_pcf8814_hx1230.c ****   /* pixel_height = */ 68
 186:..\u8g2\csrc/u8x8_d_pcf8814_hx1230.c **** };
 187:..\u8g2\csrc/u8x8_d_pcf8814_hx1230.c **** 
 188:..\u8g2\csrc/u8x8_d_pcf8814_hx1230.c **** uint8_t u8x8_d_hx1230_96x68(u8x8_t *u8x8, uint8_t msg, uint8_t arg_int, void *arg_ptr)
 189:..\u8g2\csrc/u8x8_d_pcf8814_hx1230.c **** {
 227              		.loc 1 189 0
 228              		.cfi_startproc
 229              		@ args = 0, pretend = 0, frame = 0
 230              		@ frame_needed = 0, uses_anonymous_args = 0
 231              	.LVL35:
 232 0000 08B5     		push	{r3, lr}
 233              		.cfi_def_cfa_offset 8
 234              		.cfi_offset 3, -8
 235              		.cfi_offset 14, -4
 190:..\u8g2\csrc/u8x8_d_pcf8814_hx1230.c ****     if ( msg == U8X8_MSG_DISPLAY_SETUP_MEMORY )
 236              		.loc 1 190 0
 237 0002 0929     		cmp	r1, #9
 238 0004 04D1     		bne	.L17
 191:..\u8g2\csrc/u8x8_d_pcf8814_hx1230.c ****     {
ARM GAS  C:\Users\brian\AppData\Local\Temp\cccd6p3Y.s 			page 9


 192:..\u8g2\csrc/u8x8_d_pcf8814_hx1230.c ****       u8x8_d_helper_display_setup_memory(u8x8, &u8x8_hx1230_96x68_display_info);
 239              		.loc 1 192 0
 240 0006 0449     		ldr	r1, .L20
 241              	.LVL36:
 242 0008 FFF7FEFF 		bl	u8x8_d_helper_display_setup_memory
 243              	.LVL37:
 193:..\u8g2\csrc/u8x8_d_pcf8814_hx1230.c ****       return 1;
 244              		.loc 1 193 0
 245 000c 0120     		movs	r0, #1
 246 000e 08BD     		pop	{r3, pc}
 247              	.LVL38:
 248              	.L17:
 194:..\u8g2\csrc/u8x8_d_pcf8814_hx1230.c ****     }
 195:..\u8g2\csrc/u8x8_d_pcf8814_hx1230.c ****     return u8x8_d_hx1230_96x68_generic(u8x8, msg, arg_int, arg_ptr);
 249              		.loc 1 195 0
 250 0010 FFF7FEFF 		bl	u8x8_d_hx1230_96x68_generic
 251              	.LVL39:
 196:..\u8g2\csrc/u8x8_d_pcf8814_hx1230.c **** }
 252              		.loc 1 196 0
 253 0014 08BD     		pop	{r3, pc}
 254              	.L21:
 255 0016 00BF     		.align	2
 256              	.L20:
 257 0018 34000000 		.word	.LANCHOR0+52
 258              		.cfi_endproc
 259              	.LFE1:
 260              		.size	u8x8_d_hx1230_96x68, .-u8x8_d_hx1230_96x68
 261              		.section	.rodata
 262              		.align	2
 263              		.set	.LANCHOR0,. + 0
 264              		.type	u8x8_d_hx1230_96x68_init_seq, %object
 265              		.size	u8x8_d_hx1230_96x68_init_seq, 19
 266              	u8x8_d_hx1230_96x68_init_seq:
 267 0000 18       		.byte	24
 268 0001 15       		.byte	21
 269 0002 AE       		.byte	-82
 270 0003 15       		.byte	21
 271 0004 20       		.byte	32
 272 0005 15       		.byte	21
 273 0006 80       		.byte	-128
 274 0007 15       		.byte	21
 275 0008 A6       		.byte	-90
 276 0009 15       		.byte	21
 277 000a A4       		.byte	-92
 278 000b 15       		.byte	21
 279 000c A0       		.byte	-96
 280 000d 15       		.byte	21
 281 000e C0       		.byte	-64
 282 000f 15       		.byte	21
 283 0010 40       		.byte	64
 284 0011 19       		.byte	25
 285 0012 FF       		.byte	-1
 286 0013 00       		.space	1
 287              		.type	u8x8_d_hx1230_96x68_powersave0_seq, %object
 288              		.size	u8x8_d_hx1230_96x68_powersave0_seq, 7
 289              	u8x8_d_hx1230_96x68_powersave0_seq:
 290 0014 18       		.byte	24
ARM GAS  C:\Users\brian\AppData\Local\Temp\cccd6p3Y.s 			page 10


 291 0015 15       		.byte	21
 292 0016 2F       		.byte	47
 293 0017 15       		.byte	21
 294 0018 AF       		.byte	-81
 295 0019 19       		.byte	25
 296 001a FF       		.byte	-1
 297 001b 00       		.space	1
 298              		.type	u8x8_d_hx1230_96x68_powersave1_seq, %object
 299              		.size	u8x8_d_hx1230_96x68_powersave1_seq, 7
 300              	u8x8_d_hx1230_96x68_powersave1_seq:
 301 001c 18       		.byte	24
 302 001d 15       		.byte	21
 303 001e AE       		.byte	-82
 304 001f 15       		.byte	21
 305 0020 A5       		.byte	-91
 306 0021 19       		.byte	25
 307 0022 FF       		.byte	-1
 308 0023 00       		.space	1
 309              		.type	u8x8_d_hx1230_96x68_flip0_seq, %object
 310              		.size	u8x8_d_hx1230_96x68_flip0_seq, 7
 311              	u8x8_d_hx1230_96x68_flip0_seq:
 312 0024 18       		.byte	24
 313 0025 15       		.byte	21
 314 0026 A0       		.byte	-96
 315 0027 15       		.byte	21
 316 0028 C0       		.byte	-64
 317 0029 19       		.byte	25
 318 002a FF       		.byte	-1
 319 002b 00       		.space	1
 320              		.type	u8x8_d_hx1230_96x68_flip1_seq, %object
 321              		.size	u8x8_d_hx1230_96x68_flip1_seq, 7
 322              	u8x8_d_hx1230_96x68_flip1_seq:
 323 002c 18       		.byte	24
 324 002d 15       		.byte	21
 325 002e A1       		.byte	-95
 326 002f 15       		.byte	21
 327 0030 C8       		.byte	-56
 328 0031 19       		.byte	25
 329 0032 FF       		.byte	-1
 330 0033 00       		.space	1
 331              		.type	u8x8_hx1230_96x68_display_info, %object
 332              		.size	u8x8_hx1230_96x68_display_info, 24
 333              	u8x8_hx1230_96x68_display_info:
 334 0034 00       		.byte	0
 335 0035 01       		.byte	1
 336 0036 64       		.byte	100
 337 0037 64       		.byte	100
 338 0038 64       		.byte	100
 339 0039 64       		.byte	100
 340 003a 64       		.byte	100
 341 003b 64       		.byte	100
 342 003c 00093D00 		.word	4000000
 343 0040 00       		.byte	0
 344 0041 04       		.byte	4
 345 0042 28       		.byte	40
 346 0043 96       		.byte	-106
 347 0044 0C       		.byte	12
ARM GAS  C:\Users\brian\AppData\Local\Temp\cccd6p3Y.s 			page 11


 348 0045 09       		.byte	9
 349 0046 00       		.byte	0
 350 0047 00       		.byte	0
 351 0048 6000     		.short	96
 352 004a 4400     		.short	68
 353              		.text
 354              	.Letext0:
 355              		.file 2 "c:\\program files (x86)\\cypress\\psoc creator\\4.4\\psoc creator\\import\\gnu\\arm\\5.4.
 356              		.file 3 "c:\\program files (x86)\\cypress\\psoc creator\\4.4\\psoc creator\\import\\gnu\\arm\\5.4.
 357              		.file 4 "..\\u8g2\\csrc\\u8x8.h"