ARM GAS  C:\Users\brian\AppData\Local\Temp\ccbjYGG2.s 			page 1


   1              		.syntax unified
   2              		.cpu cortex-m3
   3              		.fpu softvfp
   4              		.eabi_attribute 20, 1
   5              		.eabi_attribute 21, 1
   6              		.eabi_attribute 23, 3
   7              		.eabi_attribute 24, 1
   8              		.eabi_attribute 25, 1
   9              		.eabi_attribute 26, 1
  10              		.eabi_attribute 30, 1
  11              		.eabi_attribute 34, 1
  12              		.eabi_attribute 18, 4
  13              		.thumb
  14              		.syntax unified
  15              		.file	"u8x8_d_il3820_296x128.c"
  16              		.text
  17              	.Ltext0:
  18              		.cfi_sections	.debug_frame
  19              		.section	.text.u8x8_convert_tile_for_il3820,"ax",%progbits
  20              		.align	2
  21              		.thumb
  22              		.thumb_func
  23              		.type	u8x8_convert_tile_for_il3820, %function
  24              	u8x8_convert_tile_for_il3820:
  25              	.LFB0:
  26              		.file 1 "..\\u8g2\\csrc\\u8x8_d_il3820_296x128.c"
   1:..\u8g2\csrc/u8x8_d_il3820_296x128.c **** /*
   2:..\u8g2\csrc/u8x8_d_il3820_296x128.c **** 
   3:..\u8g2\csrc/u8x8_d_il3820_296x128.c ****   u8x8_d_il3820_296x128.c
   4:..\u8g2\csrc/u8x8_d_il3820_296x128.c **** 
   5:..\u8g2\csrc/u8x8_d_il3820_296x128.c ****   Universal 8bit Graphics Library (https://github.com/olikraus/u8g2/)
   6:..\u8g2\csrc/u8x8_d_il3820_296x128.c **** 
   7:..\u8g2\csrc/u8x8_d_il3820_296x128.c ****   Copyright (c) 2017, olikraus@gmail.com
   8:..\u8g2\csrc/u8x8_d_il3820_296x128.c ****   All rights reserved.
   9:..\u8g2\csrc/u8x8_d_il3820_296x128.c **** 
  10:..\u8g2\csrc/u8x8_d_il3820_296x128.c ****   Redistribution and use in source and binary forms, with or without modification, 
  11:..\u8g2\csrc/u8x8_d_il3820_296x128.c ****   are permitted provided that the following conditions are met:
  12:..\u8g2\csrc/u8x8_d_il3820_296x128.c **** 
  13:..\u8g2\csrc/u8x8_d_il3820_296x128.c ****   * Redistributions of source code must retain the above copyright notice, this list 
  14:..\u8g2\csrc/u8x8_d_il3820_296x128.c ****     of conditions and the following disclaimer.
  15:..\u8g2\csrc/u8x8_d_il3820_296x128.c ****     
  16:..\u8g2\csrc/u8x8_d_il3820_296x128.c ****   * Redistributions in binary form must reproduce the above copyright notice, this 
  17:..\u8g2\csrc/u8x8_d_il3820_296x128.c ****     list of conditions and the following disclaimer in the documentation and/or other 
  18:..\u8g2\csrc/u8x8_d_il3820_296x128.c ****     materials provided with the distribution.
  19:..\u8g2\csrc/u8x8_d_il3820_296x128.c **** 
  20:..\u8g2\csrc/u8x8_d_il3820_296x128.c ****   THIS SOFTWARE IS PROVIDED BY THE COPYRIGHT HOLDERS AND 
  21:..\u8g2\csrc/u8x8_d_il3820_296x128.c ****   CONTRIBUTORS "AS IS" AND ANY EXPRESS OR IMPLIED WARRANTIES, 
  22:..\u8g2\csrc/u8x8_d_il3820_296x128.c ****   INCLUDING, BUT NOT LIMITED TO, THE IMPLIED WARRANTIES OF 
  23:..\u8g2\csrc/u8x8_d_il3820_296x128.c ****   MERCHANTABILITY AND FITNESS FOR A PARTICULAR PURPOSE ARE 
  24:..\u8g2\csrc/u8x8_d_il3820_296x128.c ****   DISCLAIMED. IN NO EVENT SHALL THE COPYRIGHT HOLDER OR 
  25:..\u8g2\csrc/u8x8_d_il3820_296x128.c ****   CONTRIBUTORS BE LIABLE FOR ANY DIRECT, INDIRECT, INCIDENTAL, 
  26:..\u8g2\csrc/u8x8_d_il3820_296x128.c ****   SPECIAL, EXEMPLARY, OR CONSEQUENTIAL DAMAGES (INCLUDING, BUT 
  27:..\u8g2\csrc/u8x8_d_il3820_296x128.c ****   NOT LIMITED TO, PROCUREMENT OF SUBSTITUTE GOODS OR SERVICES; 
  28:..\u8g2\csrc/u8x8_d_il3820_296x128.c ****   LOSS OF USE, DATA, OR PROFITS; OR BUSINESS INTERRUPTION) HOWEVER 
  29:..\u8g2\csrc/u8x8_d_il3820_296x128.c ****   CAUSED AND ON ANY THEORY OF LIABILITY, WHETHER IN CONTRACT, 
  30:..\u8g2\csrc/u8x8_d_il3820_296x128.c ****   STRICT LIABILITY, OR TORT (INCLUDING NEGLIGENCE OR OTHERWISE) 
  31:..\u8g2\csrc/u8x8_d_il3820_296x128.c ****   ARISING IN ANY WAY OUT OF THE USE OF THIS SOFTWARE, EVEN IF 
ARM GAS  C:\Users\brian\AppData\Local\Temp\ccbjYGG2.s 			page 2


  32:..\u8g2\csrc/u8x8_d_il3820_296x128.c ****   ADVISED OF THE POSSIBILITY OF SUCH DAMAGE.  
  33:..\u8g2\csrc/u8x8_d_il3820_296x128.c ****   
  34:..\u8g2\csrc/u8x8_d_il3820_296x128.c ****   il3820: 200x300x1
  35:..\u8g2\csrc/u8x8_d_il3820_296x128.c ****   
  36:..\u8g2\csrc/u8x8_d_il3820_296x128.c ****   command 
  37:..\u8g2\csrc/u8x8_d_il3820_296x128.c ****     0x22: assign actions
  38:..\u8g2\csrc/u8x8_d_il3820_296x128.c ****     0x20: execute actions
  39:..\u8g2\csrc/u8x8_d_il3820_296x128.c ****   
  40:..\u8g2\csrc/u8x8_d_il3820_296x128.c ****   action for command 0x022 are (more or less guessed)
  41:..\u8g2\csrc/u8x8_d_il3820_296x128.c ****     bit 7:	Enable Clock
  42:..\u8g2\csrc/u8x8_d_il3820_296x128.c ****     bit 6:	Enable Charge Pump
  43:..\u8g2\csrc/u8x8_d_il3820_296x128.c ****     bit 5:	Load Temparture Value (???)
  44:..\u8g2\csrc/u8x8_d_il3820_296x128.c ****     bit 4:	Load LUT (???)
  45:..\u8g2\csrc/u8x8_d_il3820_296x128.c ****     bit 3:	Initial Display (???)
  46:..\u8g2\csrc/u8x8_d_il3820_296x128.c ****     bit 2:	Pattern Display --> Requires about 945ms with the LUT from below
  47:..\u8g2\csrc/u8x8_d_il3820_296x128.c ****     bit 1:	Disable Charge Pump
  48:..\u8g2\csrc/u8x8_d_il3820_296x128.c ****     bit 0:	Disable Clock
  49:..\u8g2\csrc/u8x8_d_il3820_296x128.c ****     
  50:..\u8g2\csrc/u8x8_d_il3820_296x128.c ****     Disable Charge Pump and Clock require about 10ms
  51:..\u8g2\csrc/u8x8_d_il3820_296x128.c ****     Enable Charge Pump and Clock require about 100 to 300ms
  52:..\u8g2\csrc/u8x8_d_il3820_296x128.c **** 
  53:..\u8g2\csrc/u8x8_d_il3820_296x128.c ****   Notes:
  54:..\u8g2\csrc/u8x8_d_il3820_296x128.c ****     - Introduced a refresh display message, which copies RAM to display
  55:..\u8g2\csrc/u8x8_d_il3820_296x128.c ****     - Charge pump is always enabled. Charge pump can be enabled/disabled via power save message
  56:..\u8g2\csrc/u8x8_d_il3820_296x128.c ****     - U8x8 will not really work because of the two buffers in the SSD1606, however U8g2 should be o
  57:..\u8g2\csrc/u8x8_d_il3820_296x128.c **** 
  58:..\u8g2\csrc/u8x8_d_il3820_296x128.c ****   LUT for the 296x128 device (IL3820)
  59:..\u8g2\csrc/u8x8_d_il3820_296x128.c ****   LUT (cmd: 0x032 has 30 bytes)
  60:..\u8g2\csrc/u8x8_d_il3820_296x128.c ****   section 6.8 of the datasheet mentions 256 bits = 32 bytes for the LUT
  61:..\u8g2\csrc/u8x8_d_il3820_296x128.c ****   chapter 7 tells 30 bytes
  62:..\u8g2\csrc/u8x8_d_il3820_296x128.c **** 
  63:..\u8g2\csrc/u8x8_d_il3820_296x128.c ****   according to section 6.8:
  64:..\u8g2\csrc/u8x8_d_il3820_296x128.c ****   20 bytes waveform
  65:..\u8g2\csrc/u8x8_d_il3820_296x128.c ****   10 bytes timing
  66:..\u8g2\csrc/u8x8_d_il3820_296x128.c ****   1 byte named as VSH/VSL
  67:..\u8g2\csrc/u8x8_d_il3820_296x128.c ****   1 empty byte
  68:..\u8g2\csrc/u8x8_d_il3820_296x128.c ****   according to the command table, the lut has 240 bits (=30 bytes * 8 bits)
  69:..\u8g2\csrc/u8x8_d_il3820_296x128.c **** 
  70:..\u8g2\csrc/u8x8_d_il3820_296x128.c **** 
  71:..\u8g2\csrc/u8x8_d_il3820_296x128.c ****   LUT / Refresh time
  72:..\u8g2\csrc/u8x8_d_il3820_296x128.c ****     total_refresh_time = (refresh_lines + dummy_lines*2)*TGate*TS_Sum/f_OSC
  73:..\u8g2\csrc/u8x8_d_il3820_296x128.c **** 
  74:..\u8g2\csrc/u8x8_d_il3820_296x128.c ****     f_OSC=1MHz (according to the datasheets)
  75:..\u8g2\csrc/u8x8_d_il3820_296x128.c ****     refreh_lines = 296 (for the waveshare display, 0x045 cmd)
  76:..\u8g2\csrc/u8x8_d_il3820_296x128.c ****     dummy_lines = 22 (for the upcoming u8g2 code, 0x03a cmd)
  77:..\u8g2\csrc/u8x8_d_il3820_296x128.c ****     TGate = 62 (POR default, 0x03b cmd)
  78:..\u8g2\csrc/u8x8_d_il3820_296x128.c ****     TS_Sum: Sum of all TS entries of the second part of the LUT
  79:..\u8g2\csrc/u8x8_d_il3820_296x128.c ****     f_OSC: 1MHz according to the datasheet.
  80:..\u8g2\csrc/u8x8_d_il3820_296x128.c **** 
  81:..\u8g2\csrc/u8x8_d_il3820_296x128.c ****     so we have
  82:..\u8g2\csrc/u8x8_d_il3820_296x128.c **** 
  83:..\u8g2\csrc/u8x8_d_il3820_296x128.c ****     total_refresh_time = 21080*TS_Sum/1000000 = 21ms * TS_Sum
  84:..\u8g2\csrc/u8x8_d_il3820_296x128.c **** 
  85:..\u8g2\csrc/u8x8_d_il3820_296x128.c **** 
  86:..\u8g2\csrc/u8x8_d_il3820_296x128.c ****   This file includes two devices:
  87:..\u8g2\csrc/u8x8_d_il3820_296x128.c ****     u8x8_d_il3820_296x128		--> includes LUT which is probably from the WaveShare 2.9 Vendor
  88:..\u8g2\csrc/u8x8_d_il3820_296x128.c ****     u8x8_d_il3820_v2_296x128		--> includes LUT which was optimized for faster speed and lesser flic
ARM GAS  C:\Users\brian\AppData\Local\Temp\ccbjYGG2.s 			page 3


  89:..\u8g2\csrc/u8x8_d_il3820_296x128.c **** 
  90:..\u8g2\csrc/u8x8_d_il3820_296x128.c **** */
  91:..\u8g2\csrc/u8x8_d_il3820_296x128.c ****   
  92:..\u8g2\csrc/u8x8_d_il3820_296x128.c **** /* Waveform part of the LUT (20 bytes) */
  93:..\u8g2\csrc/u8x8_d_il3820_296x128.c **** /* bit 7/6: 1 - 1 transition */
  94:..\u8g2\csrc/u8x8_d_il3820_296x128.c **** /* bit 5/4: 1 - 0 transition */
  95:..\u8g2\csrc/u8x8_d_il3820_296x128.c **** /* bit 3/2: 0 - 1 transition */
  96:..\u8g2\csrc/u8x8_d_il3820_296x128.c **** /* bit 1/0: 0 - 0 transition */
  97:..\u8g2\csrc/u8x8_d_il3820_296x128.c **** /* 	00 – VSS */
  98:..\u8g2\csrc/u8x8_d_il3820_296x128.c **** /* 	01 – VSH */
  99:..\u8g2\csrc/u8x8_d_il3820_296x128.c **** /* 	10 – VSL */
 100:..\u8g2\csrc/u8x8_d_il3820_296x128.c **** /* 	11 – NA */
 101:..\u8g2\csrc/u8x8_d_il3820_296x128.c ****   
 102:..\u8g2\csrc/u8x8_d_il3820_296x128.c **** 
 103:..\u8g2\csrc/u8x8_d_il3820_296x128.c **** #include "u8x8.h"
 104:..\u8g2\csrc/u8x8_d_il3820_296x128.c **** 
 105:..\u8g2\csrc/u8x8_d_il3820_296x128.c **** /*=================================================*/
 106:..\u8g2\csrc/u8x8_d_il3820_296x128.c **** /* common code for all devices */
 107:..\u8g2\csrc/u8x8_d_il3820_296x128.c **** 
 108:..\u8g2\csrc/u8x8_d_il3820_296x128.c **** 
 109:..\u8g2\csrc/u8x8_d_il3820_296x128.c **** static const uint8_t u8x8_d_il3820_296x128_powersave0_seq[] = {
 110:..\u8g2\csrc/u8x8_d_il3820_296x128.c ****   U8X8_START_TRANSFER(),             	/* enable chip, delay is part of the transfer start */
 111:..\u8g2\csrc/u8x8_d_il3820_296x128.c ****   U8X8_CA(0x22, 0xc0),			/* enable clock and charge pump */
 112:..\u8g2\csrc/u8x8_d_il3820_296x128.c ****   U8X8_C(0x20),				/* execute sequence */  
 113:..\u8g2\csrc/u8x8_d_il3820_296x128.c ****   U8X8_DLY(200),				/* according to my measures it may take up to 150ms */
 114:..\u8g2\csrc/u8x8_d_il3820_296x128.c ****   U8X8_DLY(100),				/* but it might take longer */
 115:..\u8g2\csrc/u8x8_d_il3820_296x128.c ****   U8X8_END_TRANSFER(),             	/* disable chip */
 116:..\u8g2\csrc/u8x8_d_il3820_296x128.c ****   U8X8_END()             			/* end of sequence */
 117:..\u8g2\csrc/u8x8_d_il3820_296x128.c **** };
 118:..\u8g2\csrc/u8x8_d_il3820_296x128.c **** 
 119:..\u8g2\csrc/u8x8_d_il3820_296x128.c **** static const uint8_t u8x8_d_il3820_296x128_powersave1_seq[] = {
 120:..\u8g2\csrc/u8x8_d_il3820_296x128.c ****   U8X8_START_TRANSFER(),             	/* enable chip, delay is part of the transfer start */  
 121:..\u8g2\csrc/u8x8_d_il3820_296x128.c ****   /* disable clock and charge pump only, deep sleep is not entered, because we will loose RAM conte
 122:..\u8g2\csrc/u8x8_d_il3820_296x128.c ****   U8X8_CA(0x22, 0x02),			/* only disable charge pump, HW reset seems to be required if the clock is
 123:..\u8g2\csrc/u8x8_d_il3820_296x128.c ****   U8X8_C(0x20),				/* execute sequence */  
 124:..\u8g2\csrc/u8x8_d_il3820_296x128.c ****   U8X8_DLY(20),
 125:..\u8g2\csrc/u8x8_d_il3820_296x128.c ****   U8X8_END_TRANSFER(),             	/* disable chip */
 126:..\u8g2\csrc/u8x8_d_il3820_296x128.c ****   U8X8_END()             			/* end of sequence */
 127:..\u8g2\csrc/u8x8_d_il3820_296x128.c **** };
 128:..\u8g2\csrc/u8x8_d_il3820_296x128.c **** 
 129:..\u8g2\csrc/u8x8_d_il3820_296x128.c **** // static const uint8_t u8x8_d_il3820_296x128_flip0_seq[] = {
 130:..\u8g2\csrc/u8x8_d_il3820_296x128.c **** //   U8X8_START_TRANSFER(),             	/* enable chip, delay is part of the transfer start */
 131:..\u8g2\csrc/u8x8_d_il3820_296x128.c **** //   U8X8_END_TRANSFER(),             	/* disable chip */
 132:..\u8g2\csrc/u8x8_d_il3820_296x128.c **** //   U8X8_END()             			/* end of sequence */
 133:..\u8g2\csrc/u8x8_d_il3820_296x128.c **** // };
 134:..\u8g2\csrc/u8x8_d_il3820_296x128.c **** 
 135:..\u8g2\csrc/u8x8_d_il3820_296x128.c **** // static const uint8_t u8x8_d_il3820_296x128_flip1_seq[] = {
 136:..\u8g2\csrc/u8x8_d_il3820_296x128.c **** //   U8X8_START_TRANSFER(),             	/* enable chip, delay is part of the transfer start */
 137:..\u8g2\csrc/u8x8_d_il3820_296x128.c **** //   U8X8_END_TRANSFER(),             	/* disable chip */
 138:..\u8g2\csrc/u8x8_d_il3820_296x128.c **** //   U8X8_END()             			/* end of sequence */
 139:..\u8g2\csrc/u8x8_d_il3820_296x128.c **** // };
 140:..\u8g2\csrc/u8x8_d_il3820_296x128.c **** 
 141:..\u8g2\csrc/u8x8_d_il3820_296x128.c **** 
 142:..\u8g2\csrc/u8x8_d_il3820_296x128.c **** static const u8x8_display_info_t u8x8_il3820_296x128_display_info =
 143:..\u8g2\csrc/u8x8_d_il3820_296x128.c **** {
 144:..\u8g2\csrc/u8x8_d_il3820_296x128.c ****   /* chip_enable_level = */ 0,
 145:..\u8g2\csrc/u8x8_d_il3820_296x128.c ****   /* chip_disable_level = */ 1,
ARM GAS  C:\Users\brian\AppData\Local\Temp\ccbjYGG2.s 			page 4


 146:..\u8g2\csrc/u8x8_d_il3820_296x128.c ****   
 147:..\u8g2\csrc/u8x8_d_il3820_296x128.c ****   /* post_chip_enable_wait_ns = */ 120,
 148:..\u8g2\csrc/u8x8_d_il3820_296x128.c ****   /* pre_chip_disable_wait_ns = */ 60,
 149:..\u8g2\csrc/u8x8_d_il3820_296x128.c ****   /* reset_pulse_width_ms = */ 100, 	
 150:..\u8g2\csrc/u8x8_d_il3820_296x128.c ****   /* post_reset_wait_ms = */ 100, 
 151:..\u8g2\csrc/u8x8_d_il3820_296x128.c ****   /* sda_setup_time_ns = */ 50,		/* IL3820 */
 152:..\u8g2\csrc/u8x8_d_il3820_296x128.c ****   /* sck_pulse_width_ns = */ 125,	/* IL3820: 125ns, clock cycle = 250ns */
 153:..\u8g2\csrc/u8x8_d_il3820_296x128.c ****   /* sck_clock_hz = */ 4000000UL,	/* since Arduino 1.6.0, the SPI bus speed in Hz. Should be  10000
 154:..\u8g2\csrc/u8x8_d_il3820_296x128.c ****   /* spi_mode = */ 0,		/* active high, rising edge */
 155:..\u8g2\csrc/u8x8_d_il3820_296x128.c ****   /* i2c_bus_clock_100kHz = */ 4,
 156:..\u8g2\csrc/u8x8_d_il3820_296x128.c ****   /* data_setup_time_ns = */ 40,
 157:..\u8g2\csrc/u8x8_d_il3820_296x128.c ****   /* write_pulse_width_ns = */ 150,	
 158:..\u8g2\csrc/u8x8_d_il3820_296x128.c ****   /* tile_width = */ 37,		/* 37*8 = 296 */
 159:..\u8g2\csrc/u8x8_d_il3820_296x128.c ****   /* tile_hight = */ 16,		/* 16*8 = 128 */	
 160:..\u8g2\csrc/u8x8_d_il3820_296x128.c ****   /* default_x_offset = */ 0,
 161:..\u8g2\csrc/u8x8_d_il3820_296x128.c ****   /* flipmode_x_offset = */ 0,
 162:..\u8g2\csrc/u8x8_d_il3820_296x128.c ****   /* pixel_width = */ 296,
 163:..\u8g2\csrc/u8x8_d_il3820_296x128.c ****   /* pixel_height = */ 128
 164:..\u8g2\csrc/u8x8_d_il3820_296x128.c **** };
 165:..\u8g2\csrc/u8x8_d_il3820_296x128.c **** 
 166:..\u8g2\csrc/u8x8_d_il3820_296x128.c **** 
 167:..\u8g2\csrc/u8x8_d_il3820_296x128.c **** static uint8_t *u8x8_convert_tile_for_il3820(uint8_t *t)
 168:..\u8g2\csrc/u8x8_d_il3820_296x128.c **** {
  27              		.loc 1 168 0
  28              		.cfi_startproc
  29              		@ args = 0, pretend = 0, frame = 0
  30              		@ frame_needed = 0, uses_anonymous_args = 0
  31              		@ link register save eliminated.
  32              	.LVL0:
 169:..\u8g2\csrc/u8x8_d_il3820_296x128.c ****   uint8_t i;
 170:..\u8g2\csrc/u8x8_d_il3820_296x128.c ****   static uint8_t buf[8];
 171:..\u8g2\csrc/u8x8_d_il3820_296x128.c ****   uint8_t *pbuf = buf;
  33              		.loc 1 171 0
  34 0000 0649     		ldr	r1, .L4
 172:..\u8g2\csrc/u8x8_d_il3820_296x128.c **** 
 173:..\u8g2\csrc/u8x8_d_il3820_296x128.c ****   for( i = 0; i < 8; i++ )
  35              		.loc 1 173 0
  36 0002 0023     		movs	r3, #0
  37 0004 06E0     		b	.L2
  38              	.LVL1:
  39              	.L3:
 174:..\u8g2\csrc/u8x8_d_il3820_296x128.c ****   {
 175:..\u8g2\csrc/u8x8_d_il3820_296x128.c ****     *pbuf++ = ~(*t++);
  40              		.loc 1 175 0 discriminator 3
  41 0006 0278     		ldrb	r2, [r0]	@ zero_extendqisi2
  42 0008 D243     		mvns	r2, r2
  43 000a 0A70     		strb	r2, [r1]
 173:..\u8g2\csrc/u8x8_d_il3820_296x128.c ****   {
  44              		.loc 1 173 0 discriminator 3
  45 000c 0133     		adds	r3, r3, #1
  46              	.LVL2:
  47 000e DBB2     		uxtb	r3, r3
  48              	.LVL3:
  49              		.loc 1 175 0 discriminator 3
  50 0010 0131     		adds	r1, r1, #1
  51              	.LVL4:
  52 0012 0130     		adds	r0, r0, #1
ARM GAS  C:\Users\brian\AppData\Local\Temp\ccbjYGG2.s 			page 5


  53              	.LVL5:
  54              	.L2:
 173:..\u8g2\csrc/u8x8_d_il3820_296x128.c ****   {
  55              		.loc 1 173 0 discriminator 1
  56 0014 072B     		cmp	r3, #7
  57 0016 F6D9     		bls	.L3
 176:..\u8g2\csrc/u8x8_d_il3820_296x128.c ****   }
 177:..\u8g2\csrc/u8x8_d_il3820_296x128.c ****   return buf;
 178:..\u8g2\csrc/u8x8_d_il3820_296x128.c **** }
  58              		.loc 1 178 0
  59 0018 0048     		ldr	r0, .L4
  60              	.LVL6:
  61 001a 7047     		bx	lr
  62              	.L5:
  63              		.align	2
  64              	.L4:
  65 001c 00000000 		.word	.LANCHOR0
  66              		.cfi_endproc
  67              	.LFE0:
  68              		.size	u8x8_convert_tile_for_il3820, .-u8x8_convert_tile_for_il3820
  69              		.section	.text.u8x8_d_il3820_first_init,"ax",%progbits
  70              		.align	2
  71              		.thumb
  72              		.thumb_func
  73              		.type	u8x8_d_il3820_first_init, %function
  74              	u8x8_d_il3820_first_init:
  75              	.LFB2:
 179:..\u8g2\csrc/u8x8_d_il3820_296x128.c **** 
 180:..\u8g2\csrc/u8x8_d_il3820_296x128.c **** static void u8x8_d_il3820_draw_tile(u8x8_t *u8x8, uint8_t arg_int, void *arg_ptr) U8X8_NOINLINE;
 181:..\u8g2\csrc/u8x8_d_il3820_296x128.c **** static void u8x8_d_il3820_draw_tile(u8x8_t *u8x8, uint8_t arg_int, void *arg_ptr)
 182:..\u8g2\csrc/u8x8_d_il3820_296x128.c **** {
 183:..\u8g2\csrc/u8x8_d_il3820_296x128.c ****   uint16_t x;
 184:..\u8g2\csrc/u8x8_d_il3820_296x128.c ****   uint8_t c, page;
 185:..\u8g2\csrc/u8x8_d_il3820_296x128.c ****   uint8_t *ptr;
 186:..\u8g2\csrc/u8x8_d_il3820_296x128.c ****   u8x8_cad_StartTransfer(u8x8);
 187:..\u8g2\csrc/u8x8_d_il3820_296x128.c **** 
 188:..\u8g2\csrc/u8x8_d_il3820_296x128.c ****   page = u8x8->display_info->tile_height;
 189:..\u8g2\csrc/u8x8_d_il3820_296x128.c ****   page --;
 190:..\u8g2\csrc/u8x8_d_il3820_296x128.c ****   page -= (((u8x8_tile_t *)arg_ptr)->y_pos);
 191:..\u8g2\csrc/u8x8_d_il3820_296x128.c ****   
 192:..\u8g2\csrc/u8x8_d_il3820_296x128.c ****   x = ((u8x8_tile_t *)arg_ptr)->x_pos;
 193:..\u8g2\csrc/u8x8_d_il3820_296x128.c ****   x *= 8;
 194:..\u8g2\csrc/u8x8_d_il3820_296x128.c ****   x += u8x8->x_offset;
 195:..\u8g2\csrc/u8x8_d_il3820_296x128.c **** 
 196:..\u8g2\csrc/u8x8_d_il3820_296x128.c ****   //u8x8_cad_SendCmd(u8x8, 0x011 );	/* cursor increment mode */
 197:..\u8g2\csrc/u8x8_d_il3820_296x128.c ****   //u8x8_cad_SendArg(u8x8, 7);
 198:..\u8g2\csrc/u8x8_d_il3820_296x128.c **** 
 199:..\u8g2\csrc/u8x8_d_il3820_296x128.c ****   u8x8_cad_SendCmd(u8x8, 0x04f );	/* set cursor column */
 200:..\u8g2\csrc/u8x8_d_il3820_296x128.c ****   u8x8_cad_SendArg(u8x8, x&255);
 201:..\u8g2\csrc/u8x8_d_il3820_296x128.c ****   u8x8_cad_SendArg(u8x8, x>>8);
 202:..\u8g2\csrc/u8x8_d_il3820_296x128.c **** 
 203:..\u8g2\csrc/u8x8_d_il3820_296x128.c ****   u8x8_cad_SendCmd(u8x8, 0x04e );	/* set cursor row */
 204:..\u8g2\csrc/u8x8_d_il3820_296x128.c ****   u8x8_cad_SendArg(u8x8, page);
 205:..\u8g2\csrc/u8x8_d_il3820_296x128.c **** 
 206:..\u8g2\csrc/u8x8_d_il3820_296x128.c ****   u8x8_cad_SendCmd(u8x8, 0x024 );
 207:..\u8g2\csrc/u8x8_d_il3820_296x128.c ****   
 208:..\u8g2\csrc/u8x8_d_il3820_296x128.c ****   do
ARM GAS  C:\Users\brian\AppData\Local\Temp\ccbjYGG2.s 			page 6


 209:..\u8g2\csrc/u8x8_d_il3820_296x128.c ****   {
 210:..\u8g2\csrc/u8x8_d_il3820_296x128.c ****     c = ((u8x8_tile_t *)arg_ptr)->cnt;
 211:..\u8g2\csrc/u8x8_d_il3820_296x128.c ****     ptr = ((u8x8_tile_t *)arg_ptr)->tile_ptr;
 212:..\u8g2\csrc/u8x8_d_il3820_296x128.c ****     do
 213:..\u8g2\csrc/u8x8_d_il3820_296x128.c ****     {
 214:..\u8g2\csrc/u8x8_d_il3820_296x128.c ****       u8x8_cad_SendData(u8x8, 8, u8x8_convert_tile_for_il3820(ptr));
 215:..\u8g2\csrc/u8x8_d_il3820_296x128.c ****       ptr += 8;
 216:..\u8g2\csrc/u8x8_d_il3820_296x128.c ****       x += 8;
 217:..\u8g2\csrc/u8x8_d_il3820_296x128.c ****       c--;
 218:..\u8g2\csrc/u8x8_d_il3820_296x128.c ****     } while( c > 0 );
 219:..\u8g2\csrc/u8x8_d_il3820_296x128.c ****     
 220:..\u8g2\csrc/u8x8_d_il3820_296x128.c ****     arg_int--;
 221:..\u8g2\csrc/u8x8_d_il3820_296x128.c ****   } while( arg_int > 0 );
 222:..\u8g2\csrc/u8x8_d_il3820_296x128.c ****   
 223:..\u8g2\csrc/u8x8_d_il3820_296x128.c ****   u8x8_cad_EndTransfer(u8x8);
 224:..\u8g2\csrc/u8x8_d_il3820_296x128.c **** }
 225:..\u8g2\csrc/u8x8_d_il3820_296x128.c **** 
 226:..\u8g2\csrc/u8x8_d_il3820_296x128.c **** 
 227:..\u8g2\csrc/u8x8_d_il3820_296x128.c **** 
 228:..\u8g2\csrc/u8x8_d_il3820_296x128.c **** static const uint8_t u8x8_d_il3820_exec_1000dly_seq[] = {
 229:..\u8g2\csrc/u8x8_d_il3820_296x128.c ****   // assumes, that the start transfer has happend
 230:..\u8g2\csrc/u8x8_d_il3820_296x128.c ****   U8X8_CA(0x22, 0x04),	/* display update seq. option: pattern display */
 231:..\u8g2\csrc/u8x8_d_il3820_296x128.c ****   U8X8_C(0x20),	/* execute sequence */
 232:..\u8g2\csrc/u8x8_d_il3820_296x128.c ****   U8X8_DLY(250),
 233:..\u8g2\csrc/u8x8_d_il3820_296x128.c ****   U8X8_DLY(250),
 234:..\u8g2\csrc/u8x8_d_il3820_296x128.c ****   U8X8_DLY(250),
 235:..\u8g2\csrc/u8x8_d_il3820_296x128.c ****   U8X8_DLY(250),
 236:..\u8g2\csrc/u8x8_d_il3820_296x128.c ****   U8X8_END_TRANSFER(),             	/* disable chip */
 237:..\u8g2\csrc/u8x8_d_il3820_296x128.c ****   U8X8_END()             			/* end of sequence */
 238:..\u8g2\csrc/u8x8_d_il3820_296x128.c **** };
 239:..\u8g2\csrc/u8x8_d_il3820_296x128.c **** 
 240:..\u8g2\csrc/u8x8_d_il3820_296x128.c **** static void u8x8_d_il3820_first_init(u8x8_t *u8x8)
 241:..\u8g2\csrc/u8x8_d_il3820_296x128.c **** {
  76              		.loc 1 241 0
  77              		.cfi_startproc
  78              		@ args = 0, pretend = 0, frame = 0
  79              		@ frame_needed = 0, uses_anonymous_args = 0
  80              	.LVL7:
  81 0000 10B5     		push	{r4, lr}
  82              		.cfi_def_cfa_offset 8
  83              		.cfi_offset 4, -8
  84              		.cfi_offset 14, -4
  85 0002 0446     		mov	r4, r0
 242:..\u8g2\csrc/u8x8_d_il3820_296x128.c ****       u8x8_ClearDisplay(u8x8);
  86              		.loc 1 242 0
  87 0004 FFF7FEFF 		bl	u8x8_ClearDisplay
  88              	.LVL8:
 243:..\u8g2\csrc/u8x8_d_il3820_296x128.c ****   
 244:..\u8g2\csrc/u8x8_d_il3820_296x128.c ****       u8x8_cad_StartTransfer(u8x8);
  89              		.loc 1 244 0
  90 0008 2046     		mov	r0, r4
  91 000a FFF7FEFF 		bl	u8x8_cad_StartTransfer
  92              	.LVL9:
 245:..\u8g2\csrc/u8x8_d_il3820_296x128.c ****       u8x8_cad_SendCmd(u8x8, 0x032);		// program update sequence
  93              		.loc 1 245 0
  94 000e 3221     		movs	r1, #50
  95 0010 2046     		mov	r0, r4
ARM GAS  C:\Users\brian\AppData\Local\Temp\ccbjYGG2.s 			page 7


  96 0012 FFF7FEFF 		bl	u8x8_cad_SendCmd
  97              	.LVL10:
 246:..\u8g2\csrc/u8x8_d_il3820_296x128.c ****       u8x8_cad_SendMultipleArg(u8x8, 8, 0x055);		// all black
  98              		.loc 1 246 0
  99 0016 5522     		movs	r2, #85
 100 0018 0821     		movs	r1, #8
 101 001a 2046     		mov	r0, r4
 102 001c FFF7FEFF 		bl	u8x8_cad_SendMultipleArg
 103              	.LVL11:
 247:..\u8g2\csrc/u8x8_d_il3820_296x128.c ****       u8x8_cad_SendMultipleArg(u8x8, 12, 0x0aa);		// all white
 104              		.loc 1 247 0
 105 0020 AA22     		movs	r2, #170
 106 0022 0C21     		movs	r1, #12
 107 0024 2046     		mov	r0, r4
 108 0026 FFF7FEFF 		bl	u8x8_cad_SendMultipleArg
 109              	.LVL12:
 248:..\u8g2\csrc/u8x8_d_il3820_296x128.c ****       u8x8_cad_SendMultipleArg(u8x8, 10, 0x022);		// 830ms
 110              		.loc 1 248 0
 111 002a 2222     		movs	r2, #34
 112 002c 0A21     		movs	r1, #10
 113 002e 2046     		mov	r0, r4
 114 0030 FFF7FEFF 		bl	u8x8_cad_SendMultipleArg
 115              	.LVL13:
 249:..\u8g2\csrc/u8x8_d_il3820_296x128.c ****       u8x8_cad_SendSequence(u8x8, u8x8_d_il3820_exec_1000dly_seq);
 116              		.loc 1 249 0
 117 0034 0249     		ldr	r1, .L8
 118 0036 2046     		mov	r0, r4
 119 0038 FFF7FEFF 		bl	u8x8_cad_SendSequence
 120              	.LVL14:
 121 003c 10BD     		pop	{r4, pc}
 122              	.LVL15:
 123              	.L9:
 124 003e 00BF     		.align	2
 125              	.L8:
 126 0040 00000000 		.word	.LANCHOR1
 127              		.cfi_endproc
 128              	.LFE2:
 129              		.size	u8x8_d_il3820_first_init, .-u8x8_d_il3820_first_init
 130              		.section	.text.u8x8_d_il3820_draw_tile,"ax",%progbits
 131              		.align	2
 132              		.thumb
 133              		.thumb_func
 134              		.type	u8x8_d_il3820_draw_tile, %function
 135              	u8x8_d_il3820_draw_tile:
 136              	.LFB1:
 182:..\u8g2\csrc/u8x8_d_il3820_296x128.c ****   uint16_t x;
 137              		.loc 1 182 0
 138              		.cfi_startproc
 139              		@ args = 0, pretend = 0, frame = 0
 140              		@ frame_needed = 0, uses_anonymous_args = 0
 141              	.LVL16:
 142 0000 2DE9F041 		push	{r4, r5, r6, r7, r8, lr}
 143              		.cfi_def_cfa_offset 24
 144              		.cfi_offset 4, -24
 145              		.cfi_offset 5, -20
 146              		.cfi_offset 6, -16
 147              		.cfi_offset 7, -12
ARM GAS  C:\Users\brian\AppData\Local\Temp\ccbjYGG2.s 			page 8


 148              		.cfi_offset 8, -8
 149              		.cfi_offset 14, -4
 150 0004 0646     		mov	r6, r0
 151 0006 0F46     		mov	r7, r1
 152 0008 9046     		mov	r8, r2
 186:..\u8g2\csrc/u8x8_d_il3820_296x128.c **** 
 153              		.loc 1 186 0
 154 000a FFF7FEFF 		bl	u8x8_cad_StartTransfer
 155              	.LVL17:
 188:..\u8g2\csrc/u8x8_d_il3820_296x128.c ****   page --;
 156              		.loc 1 188 0
 157 000e 3368     		ldr	r3, [r6]
 158 0010 5B7C     		ldrb	r3, [r3, #17]	@ zero_extendqisi2
 159              	.LVL18:
 189:..\u8g2\csrc/u8x8_d_il3820_296x128.c ****   page -= (((u8x8_tile_t *)arg_ptr)->y_pos);
 160              		.loc 1 189 0
 161 0012 013B     		subs	r3, r3, #1
 162              	.LVL19:
 163 0014 DBB2     		uxtb	r3, r3
 164              	.LVL20:
 190:..\u8g2\csrc/u8x8_d_il3820_296x128.c ****   
 165              		.loc 1 190 0
 166 0016 98F80640 		ldrb	r4, [r8, #6]	@ zero_extendqisi2
 167 001a 1C1B     		subs	r4, r3, r4
 168 001c E4B2     		uxtb	r4, r4
 169              	.LVL21:
 192:..\u8g2\csrc/u8x8_d_il3820_296x128.c ****   x *= 8;
 170              		.loc 1 192 0
 171 001e 98F80550 		ldrb	r5, [r8, #5]	@ zero_extendqisi2
 172              	.LVL22:
 194:..\u8g2\csrc/u8x8_d_il3820_296x128.c **** 
 173              		.loc 1 194 0
 174 0022 96F82230 		ldrb	r3, [r6, #34]	@ zero_extendqisi2
 175 0026 03EBC505 		add	r5, r3, r5, lsl #3
 176              	.LVL23:
 199:..\u8g2\csrc/u8x8_d_il3820_296x128.c ****   u8x8_cad_SendArg(u8x8, x&255);
 177              		.loc 1 199 0
 178 002a 4F21     		movs	r1, #79
 179 002c 3046     		mov	r0, r6
 180 002e FFF7FEFF 		bl	u8x8_cad_SendCmd
 181              	.LVL24:
 200:..\u8g2\csrc/u8x8_d_il3820_296x128.c ****   u8x8_cad_SendArg(u8x8, x>>8);
 182              		.loc 1 200 0
 183 0032 E9B2     		uxtb	r1, r5
 184 0034 3046     		mov	r0, r6
 185 0036 FFF7FEFF 		bl	u8x8_cad_SendArg
 186              	.LVL25:
 201:..\u8g2\csrc/u8x8_d_il3820_296x128.c **** 
 187              		.loc 1 201 0
 188 003a C5F30721 		ubfx	r1, r5, #8, #8
 189 003e 3046     		mov	r0, r6
 190 0040 FFF7FEFF 		bl	u8x8_cad_SendArg
 191              	.LVL26:
 203:..\u8g2\csrc/u8x8_d_il3820_296x128.c ****   u8x8_cad_SendArg(u8x8, page);
 192              		.loc 1 203 0
 193 0044 4E21     		movs	r1, #78
 194 0046 3046     		mov	r0, r6
ARM GAS  C:\Users\brian\AppData\Local\Temp\ccbjYGG2.s 			page 9


 195 0048 FFF7FEFF 		bl	u8x8_cad_SendCmd
 196              	.LVL27:
 204:..\u8g2\csrc/u8x8_d_il3820_296x128.c **** 
 197              		.loc 1 204 0
 198 004c 2146     		mov	r1, r4
 199 004e 3046     		mov	r0, r6
 200 0050 FFF7FEFF 		bl	u8x8_cad_SendArg
 201              	.LVL28:
 206:..\u8g2\csrc/u8x8_d_il3820_296x128.c ****   
 202              		.loc 1 206 0
 203 0054 2421     		movs	r1, #36
 204 0056 3046     		mov	r0, r6
 205 0058 FFF7FEFF 		bl	u8x8_cad_SendCmd
 206              	.LVL29:
 207              	.L12:
 210:..\u8g2\csrc/u8x8_d_il3820_296x128.c ****     ptr = ((u8x8_tile_t *)arg_ptr)->tile_ptr;
 208              		.loc 1 210 0
 209 005c 98F80440 		ldrb	r4, [r8, #4]	@ zero_extendqisi2
 210              	.LVL30:
 211:..\u8g2\csrc/u8x8_d_il3820_296x128.c ****     do
 211              		.loc 1 211 0
 212 0060 D8F80050 		ldr	r5, [r8]
 213              	.LVL31:
 214              	.L11:
 214:..\u8g2\csrc/u8x8_d_il3820_296x128.c ****       ptr += 8;
 215              		.loc 1 214 0 discriminator 1
 216 0064 2846     		mov	r0, r5
 217 0066 FFF7FEFF 		bl	u8x8_convert_tile_for_il3820
 218              	.LVL32:
 219 006a 0246     		mov	r2, r0
 220 006c 0821     		movs	r1, #8
 221 006e 3046     		mov	r0, r6
 222 0070 FFF7FEFF 		bl	u8x8_cad_SendData
 223              	.LVL33:
 215:..\u8g2\csrc/u8x8_d_il3820_296x128.c ****       x += 8;
 224              		.loc 1 215 0 discriminator 1
 225 0074 0835     		adds	r5, r5, #8
 226              	.LVL34:
 217:..\u8g2\csrc/u8x8_d_il3820_296x128.c ****     } while( c > 0 );
 227              		.loc 1 217 0 discriminator 1
 228 0076 631E     		subs	r3, r4, #1
 229              	.LVL35:
 218:..\u8g2\csrc/u8x8_d_il3820_296x128.c ****     
 230              		.loc 1 218 0 discriminator 1
 231 0078 13F0FF04 		ands	r4, r3, #255
 232 007c F2D1     		bne	.L11
 220:..\u8g2\csrc/u8x8_d_il3820_296x128.c ****   } while( arg_int > 0 );
 233              		.loc 1 220 0
 234 007e 7B1E     		subs	r3, r7, #1
 235              	.LVL36:
 221:..\u8g2\csrc/u8x8_d_il3820_296x128.c ****   
 236              		.loc 1 221 0
 237 0080 13F0FF07 		ands	r7, r3, #255
 238 0084 EAD1     		bne	.L12
 223:..\u8g2\csrc/u8x8_d_il3820_296x128.c **** }
 239              		.loc 1 223 0
 240 0086 3046     		mov	r0, r6
ARM GAS  C:\Users\brian\AppData\Local\Temp\ccbjYGG2.s 			page 10


 241 0088 FFF7FEFF 		bl	u8x8_cad_EndTransfer
 242              	.LVL37:
 243 008c BDE8F081 		pop	{r4, r5, r6, r7, r8, pc}
 244              		.cfi_endproc
 245              	.LFE1:
 246              		.size	u8x8_d_il3820_draw_tile, .-u8x8_d_il3820_draw_tile
 247              		.section	.text.u8x8_d_il3820_296x128,"ax",%progbits
 248              		.align	2
 249              		.global	u8x8_d_il3820_296x128
 250              		.thumb
 251              		.thumb_func
 252              		.type	u8x8_d_il3820_296x128, %function
 253              	u8x8_d_il3820_296x128:
 254              	.LFB3:
 250:..\u8g2\csrc/u8x8_d_il3820_296x128.c ****   
 251:..\u8g2\csrc/u8x8_d_il3820_296x128.c **** }
 252:..\u8g2\csrc/u8x8_d_il3820_296x128.c **** 
 253:..\u8g2\csrc/u8x8_d_il3820_296x128.c **** #ifdef OBSOLETE
 254:..\u8g2\csrc/u8x8_d_il3820_296x128.c **** static void u8x8_d_il3820_second_init(u8x8_t *u8x8)
 255:..\u8g2\csrc/u8x8_d_il3820_296x128.c **** {
 256:..\u8g2\csrc/u8x8_d_il3820_296x128.c ****       u8x8_ClearDisplay(u8x8);
 257:..\u8g2\csrc/u8x8_d_il3820_296x128.c ****   
 258:..\u8g2\csrc/u8x8_d_il3820_296x128.c ****       u8x8_cad_StartTransfer(u8x8);
 259:..\u8g2\csrc/u8x8_d_il3820_296x128.c ****       u8x8_cad_SendCmd(u8x8, 0x032);		// program update sequence
 260:..\u8g2\csrc/u8x8_d_il3820_296x128.c ****       u8x8_cad_SendMultipleArg(u8x8, 20, 0x000);		// do nothing
 261:..\u8g2\csrc/u8x8_d_il3820_296x128.c ****       u8x8_cad_SendMultipleArg(u8x8, 10, 0x011);		// 414ms dly
 262:..\u8g2\csrc/u8x8_d_il3820_296x128.c ****       /* reuse sequence from above, ok some time is wasted here, */
 263:..\u8g2\csrc/u8x8_d_il3820_296x128.c ****       /* delay could be lesser */
 264:..\u8g2\csrc/u8x8_d_il3820_296x128.c ****       u8x8_cad_SendSequence(u8x8, u8x8_d_il3820_exec_1000dly_seq);  
 265:..\u8g2\csrc/u8x8_d_il3820_296x128.c **** }
 266:..\u8g2\csrc/u8x8_d_il3820_296x128.c **** #endif
 267:..\u8g2\csrc/u8x8_d_il3820_296x128.c **** 
 268:..\u8g2\csrc/u8x8_d_il3820_296x128.c **** 
 269:..\u8g2\csrc/u8x8_d_il3820_296x128.c **** /*=================================================*/
 270:..\u8g2\csrc/u8x8_d_il3820_296x128.c **** /* first version, LUT from WaveShare */
 271:..\u8g2\csrc/u8x8_d_il3820_296x128.c **** 
 272:..\u8g2\csrc/u8x8_d_il3820_296x128.c **** 
 273:..\u8g2\csrc/u8x8_d_il3820_296x128.c **** /* http://www.waveshare.com/wiki/File:2.9inch_e-Paper_Module_code.7z */
 274:..\u8g2\csrc/u8x8_d_il3820_296x128.c **** static const uint8_t u8x8_d_il3820_296x128_init_seq[] = {
 275:..\u8g2\csrc/u8x8_d_il3820_296x128.c ****     
 276:..\u8g2\csrc/u8x8_d_il3820_296x128.c ****   U8X8_START_TRANSFER(),             	/* enable chip, delay is part of the transfer start */
 277:..\u8g2\csrc/u8x8_d_il3820_296x128.c **** 
 278:..\u8g2\csrc/u8x8_d_il3820_296x128.c ****   U8X8_CA(0x10, 0x00),	/* Deep Sleep mode Control: Disable */
 279:..\u8g2\csrc/u8x8_d_il3820_296x128.c ****   U8X8_C(0x01),
 280:..\u8g2\csrc/u8x8_d_il3820_296x128.c ****   U8X8_A(295 % 256), U8X8_A(295/256), U8X8_A(0),
 281:..\u8g2\csrc/u8x8_d_il3820_296x128.c ****   
 282:..\u8g2\csrc/u8x8_d_il3820_296x128.c ****   
 283:..\u8g2\csrc/u8x8_d_il3820_296x128.c ****   U8X8_CA(0x03, 0x00), 	/* Gate Driving voltage: 15V (lowest value)*/
 284:..\u8g2\csrc/u8x8_d_il3820_296x128.c ****   U8X8_CA(0x04, 0x0a), 	/* Source Driving voltage: 15V (mid value and POR)*/
 285:..\u8g2\csrc/u8x8_d_il3820_296x128.c ****   
 286:..\u8g2\csrc/u8x8_d_il3820_296x128.c ****   //U8X8_CA(0x22, 0xc0),	/* display update seq. option: enable clk, enable CP, .... todo: this is n
 287:..\u8g2\csrc/u8x8_d_il3820_296x128.c **** 
 288:..\u8g2\csrc/u8x8_d_il3820_296x128.c ****   //U8X8_CA(0x0b, 7),	/* Set Delay of gate and source non overlap period, POR = 7 */
 289:..\u8g2\csrc/u8x8_d_il3820_296x128.c ****   U8X8_CA(0x2c, 0xa8),	/* write vcom value*/
 290:..\u8g2\csrc/u8x8_d_il3820_296x128.c ****   U8X8_CA(0x3a, 0x16),	/* dummy lines POR=22 (0x016) */
 291:..\u8g2\csrc/u8x8_d_il3820_296x128.c ****   U8X8_CA(0x3b, 0x08),	/* gate time POR=0x08*/
 292:..\u8g2\csrc/u8x8_d_il3820_296x128.c ****   U8X8_CA(0x3c, 0x33),	/* select boarder waveform */
ARM GAS  C:\Users\brian\AppData\Local\Temp\ccbjYGG2.s 			page 11


 293:..\u8g2\csrc/u8x8_d_il3820_296x128.c ****   //U8X8_CA(0x22, 0xc4),	/* display update seq. option: clk -> CP -> LUT -> initial display -> patt
 294:..\u8g2\csrc/u8x8_d_il3820_296x128.c **** 
 295:..\u8g2\csrc/u8x8_d_il3820_296x128.c **** 
 296:..\u8g2\csrc/u8x8_d_il3820_296x128.c ****   U8X8_CA(0x11, 0x07),	/* Define data entry mode, x&y inc, x first*/
 297:..\u8g2\csrc/u8x8_d_il3820_296x128.c **** 
 298:..\u8g2\csrc/u8x8_d_il3820_296x128.c ****   U8X8_CAA(0x44, 0, 29),	/* RAM x start & end, issue 920: end should be (128/8)-1=15. */
 299:..\u8g2\csrc/u8x8_d_il3820_296x128.c ****   U8X8_CAAAA(0x45, 0, 0, 295&255, 295>>8),	/* RAM y start & end */
 300:..\u8g2\csrc/u8x8_d_il3820_296x128.c ****   
 301:..\u8g2\csrc/u8x8_d_il3820_296x128.c ****   //U8X8_CA(0x4e, 0),	/* set x pos, 0..29? */
 302:..\u8g2\csrc/u8x8_d_il3820_296x128.c ****   //U8X8_CAA(0x4f, 0, 0),	/* set y pos, 0...320??? */
 303:..\u8g2\csrc/u8x8_d_il3820_296x128.c **** 
 304:..\u8g2\csrc/u8x8_d_il3820_296x128.c **** 
 305:..\u8g2\csrc/u8x8_d_il3820_296x128.c ****   U8X8_END_TRANSFER(),             	/* disable chip */
 306:..\u8g2\csrc/u8x8_d_il3820_296x128.c ****   U8X8_END()             			/* end of sequence */
 307:..\u8g2\csrc/u8x8_d_il3820_296x128.c **** };
 308:..\u8g2\csrc/u8x8_d_il3820_296x128.c **** 
 309:..\u8g2\csrc/u8x8_d_il3820_296x128.c **** 
 310:..\u8g2\csrc/u8x8_d_il3820_296x128.c **** static const uint8_t u8x8_d_il3820_to_display_seq[] = {
 311:..\u8g2\csrc/u8x8_d_il3820_296x128.c ****   U8X8_START_TRANSFER(),             	/* enable chip, delay is part of the transfer start */
 312:..\u8g2\csrc/u8x8_d_il3820_296x128.c **** /*
 313:..\u8g2\csrc/u8x8_d_il3820_296x128.c **** 0x50, 0xAA, 0x55, 0xAA, 0x11, 	0x00, 0x00, 0x00, 0x00, 0x00, 
 314:..\u8g2\csrc/u8x8_d_il3820_296x128.c **** 0x00, 0x00, 0x00, 0x00, 0x00, 	0x00, 0x00, 0x00, 0x00, 0x00, 
 315:..\u8g2\csrc/u8x8_d_il3820_296x128.c **** 0xFF, 0xFF, 0x1F, 0x00, 0x00, 		0x00, 0x00, 0x00, 0x00, 0x00
 316:..\u8g2\csrc/u8x8_d_il3820_296x128.c **** measured 1582 ms
 317:..\u8g2\csrc/u8x8_d_il3820_296x128.c **** */
 318:..\u8g2\csrc/u8x8_d_il3820_296x128.c ****   U8X8_C(0x32),	/* write LUT register*/
 319:..\u8g2\csrc/u8x8_d_il3820_296x128.c ****   /* original values */
 320:..\u8g2\csrc/u8x8_d_il3820_296x128.c ****   U8X8_A(0x50),
 321:..\u8g2\csrc/u8x8_d_il3820_296x128.c ****   U8X8_A(0xaa),
 322:..\u8g2\csrc/u8x8_d_il3820_296x128.c ****   U8X8_A(0x55),
 323:..\u8g2\csrc/u8x8_d_il3820_296x128.c ****   U8X8_A(0xaa),  
 324:..\u8g2\csrc/u8x8_d_il3820_296x128.c ****   U8X8_A(0x11),
 325:..\u8g2\csrc/u8x8_d_il3820_296x128.c ****   
 326:..\u8g2\csrc/u8x8_d_il3820_296x128.c ****   U8X8_A(0x11),
 327:..\u8g2\csrc/u8x8_d_il3820_296x128.c ****   U8X8_A(0x00),
 328:..\u8g2\csrc/u8x8_d_il3820_296x128.c ****   U8X8_A(0x00),
 329:..\u8g2\csrc/u8x8_d_il3820_296x128.c ****   U8X8_A(0x00),  
 330:..\u8g2\csrc/u8x8_d_il3820_296x128.c ****   U8X8_A(0x00),
 331:..\u8g2\csrc/u8x8_d_il3820_296x128.c ****   
 332:..\u8g2\csrc/u8x8_d_il3820_296x128.c ****   U8X8_A(0x00),
 333:..\u8g2\csrc/u8x8_d_il3820_296x128.c ****   U8X8_A(0x00),
 334:..\u8g2\csrc/u8x8_d_il3820_296x128.c ****   U8X8_A(0x00),
 335:..\u8g2\csrc/u8x8_d_il3820_296x128.c ****   U8X8_A(0x00),
 336:..\u8g2\csrc/u8x8_d_il3820_296x128.c ****   U8X8_A(0x00),
 337:..\u8g2\csrc/u8x8_d_il3820_296x128.c ****   
 338:..\u8g2\csrc/u8x8_d_il3820_296x128.c ****   U8X8_A(0x00),
 339:..\u8g2\csrc/u8x8_d_il3820_296x128.c ****   U8X8_A(0x00),
 340:..\u8g2\csrc/u8x8_d_il3820_296x128.c ****   U8X8_A(0x00),
 341:..\u8g2\csrc/u8x8_d_il3820_296x128.c ****   U8X8_A(0x00),
 342:..\u8g2\csrc/u8x8_d_il3820_296x128.c ****   U8X8_A(0x00),
 343:..\u8g2\csrc/u8x8_d_il3820_296x128.c ****   
 344:..\u8g2\csrc/u8x8_d_il3820_296x128.c ****   /* Timing part of the LUT, 20 Phases with 4 bit each: 10 bytes */
 345:..\u8g2\csrc/u8x8_d_il3820_296x128.c ****   U8X8_A(0xff),
 346:..\u8g2\csrc/u8x8_d_il3820_296x128.c ****   U8X8_A(0xff),
 347:..\u8g2\csrc/u8x8_d_il3820_296x128.c ****   U8X8_A(0x3f),
 348:..\u8g2\csrc/u8x8_d_il3820_296x128.c ****   U8X8_A(0x00),
 349:..\u8g2\csrc/u8x8_d_il3820_296x128.c ****   U8X8_A(0x00),
ARM GAS  C:\Users\brian\AppData\Local\Temp\ccbjYGG2.s 			page 12


 350:..\u8g2\csrc/u8x8_d_il3820_296x128.c ****   U8X8_A(0x00),
 351:..\u8g2\csrc/u8x8_d_il3820_296x128.c ****   U8X8_A(0x00),
 352:..\u8g2\csrc/u8x8_d_il3820_296x128.c ****   U8X8_A(0x00),
 353:..\u8g2\csrc/u8x8_d_il3820_296x128.c ****   U8X8_A(0x00),
 354:..\u8g2\csrc/u8x8_d_il3820_296x128.c ****   U8X8_A(0x00),
 355:..\u8g2\csrc/u8x8_d_il3820_296x128.c **** 
 356:..\u8g2\csrc/u8x8_d_il3820_296x128.c ****   U8X8_CA(0x22, 0x04),	/* display update seq. option: pattern display, assumes clk and charge pump 
 357:..\u8g2\csrc/u8x8_d_il3820_296x128.c ****   U8X8_C(0x20),	/* execute sequence */
 358:..\u8g2\csrc/u8x8_d_il3820_296x128.c ****   
 359:..\u8g2\csrc/u8x8_d_il3820_296x128.c ****   U8X8_DLY(250),	/* delay for 1620ms. The current sequence takes 1582ms */
 360:..\u8g2\csrc/u8x8_d_il3820_296x128.c ****   U8X8_DLY(250),
 361:..\u8g2\csrc/u8x8_d_il3820_296x128.c ****   U8X8_DLY(250),
 362:..\u8g2\csrc/u8x8_d_il3820_296x128.c ****   U8X8_DLY(250),
 363:..\u8g2\csrc/u8x8_d_il3820_296x128.c ****   
 364:..\u8g2\csrc/u8x8_d_il3820_296x128.c ****   U8X8_DLY(250),
 365:..\u8g2\csrc/u8x8_d_il3820_296x128.c ****   U8X8_DLY(250),
 366:..\u8g2\csrc/u8x8_d_il3820_296x128.c ****   U8X8_DLY(120),
 367:..\u8g2\csrc/u8x8_d_il3820_296x128.c ****    
 368:..\u8g2\csrc/u8x8_d_il3820_296x128.c ****   U8X8_END_TRANSFER(),             	/* disable chip */
 369:..\u8g2\csrc/u8x8_d_il3820_296x128.c ****   U8X8_END()             			/* end of sequence */
 370:..\u8g2\csrc/u8x8_d_il3820_296x128.c **** };
 371:..\u8g2\csrc/u8x8_d_il3820_296x128.c **** 
 372:..\u8g2\csrc/u8x8_d_il3820_296x128.c **** 
 373:..\u8g2\csrc/u8x8_d_il3820_296x128.c **** uint8_t u8x8_d_il3820_296x128(u8x8_t *u8x8, uint8_t msg, uint8_t arg_int, void *arg_ptr)
 374:..\u8g2\csrc/u8x8_d_il3820_296x128.c **** {
 255              		.loc 1 374 0
 256              		.cfi_startproc
 257              		@ args = 0, pretend = 0, frame = 0
 258              		@ frame_needed = 0, uses_anonymous_args = 0
 259              	.LVL38:
 260 0000 38B5     		push	{r3, r4, r5, lr}
 261              		.cfi_def_cfa_offset 16
 262              		.cfi_offset 3, -16
 263              		.cfi_offset 4, -12
 264              		.cfi_offset 5, -8
 265              		.cfi_offset 14, -4
 266 0002 0446     		mov	r4, r0
 267 0004 1046     		mov	r0, r2
 268              	.LVL39:
 375:..\u8g2\csrc/u8x8_d_il3820_296x128.c ****   switch(msg)
 269              		.loc 1 375 0
 270 0006 0939     		subs	r1, r1, #9
 271              	.LVL40:
 272 0008 0729     		cmp	r1, #7
 273 000a 38D8     		bhi	.L23
 274 000c DFE801F0 		tbb	[pc, r1]
 275              	.LVL41:
 276              	.L17:
 277 0010 04       		.byte	(.L16-.L17)/2
 278 0011 0A       		.byte	(.L18-.L17)/2
 279 0012 1D       		.byte	(.L19-.L17)/2
 280 0013 37       		.byte	(.L23-.L17)/2
 281 0014 37       		.byte	(.L23-.L17)/2
 282 0015 37       		.byte	(.L23-.L17)/2
 283 0016 2A       		.byte	(.L20-.L17)/2
 284 0017 31       		.byte	(.L21-.L17)/2
 285              		.p2align 1
ARM GAS  C:\Users\brian\AppData\Local\Temp\ccbjYGG2.s 			page 13


 286              	.L16:
 376:..\u8g2\csrc/u8x8_d_il3820_296x128.c ****   {
 377:..\u8g2\csrc/u8x8_d_il3820_296x128.c ****     case U8X8_MSG_DISPLAY_SETUP_MEMORY:
 378:..\u8g2\csrc/u8x8_d_il3820_296x128.c ****       u8x8_d_helper_display_setup_memory(u8x8, &u8x8_il3820_296x128_display_info);
 287              		.loc 1 378 0
 288 0018 1A49     		ldr	r1, .L25
 289 001a 2046     		mov	r0, r4
 290 001c FFF7FEFF 		bl	u8x8_d_helper_display_setup_memory
 291              	.LVL42:
 379:..\u8g2\csrc/u8x8_d_il3820_296x128.c ****       break;
 380:..\u8g2\csrc/u8x8_d_il3820_296x128.c ****     case U8X8_MSG_DISPLAY_INIT:
 381:..\u8g2\csrc/u8x8_d_il3820_296x128.c **** 
 382:..\u8g2\csrc/u8x8_d_il3820_296x128.c ****       u8x8_d_helper_display_init(u8x8);
 383:..\u8g2\csrc/u8x8_d_il3820_296x128.c ****       u8x8_cad_SendSequence(u8x8, u8x8_d_il3820_296x128_init_seq);    
 384:..\u8g2\csrc/u8x8_d_il3820_296x128.c **** 
 385:..\u8g2\csrc/u8x8_d_il3820_296x128.c ****       u8x8_cad_SendSequence(u8x8, u8x8_d_il3820_296x128_powersave0_seq);
 386:..\u8g2\csrc/u8x8_d_il3820_296x128.c ****       u8x8_d_il3820_first_init(u8x8);
 387:..\u8g2\csrc/u8x8_d_il3820_296x128.c **** 
 388:..\u8g2\csrc/u8x8_d_il3820_296x128.c ****       /* usually the DISPLAY_INIT message leaves the display in power save state */
 389:..\u8g2\csrc/u8x8_d_il3820_296x128.c ****       /* however this is not done for e-paper devices, see: */
 390:..\u8g2\csrc/u8x8_d_il3820_296x128.c ****       /* https://github.com/olikraus/u8g2/wiki/internal#powersave-mode */
 391:..\u8g2\csrc/u8x8_d_il3820_296x128.c ****     
 392:..\u8g2\csrc/u8x8_d_il3820_296x128.c ****       break;
 393:..\u8g2\csrc/u8x8_d_il3820_296x128.c ****     case U8X8_MSG_DISPLAY_SET_POWER_SAVE:
 394:..\u8g2\csrc/u8x8_d_il3820_296x128.c ****       if ( arg_int == 0 )
 395:..\u8g2\csrc/u8x8_d_il3820_296x128.c **** 	u8x8_cad_SendSequence(u8x8, u8x8_d_il3820_296x128_powersave0_seq);
 396:..\u8g2\csrc/u8x8_d_il3820_296x128.c ****       else
 397:..\u8g2\csrc/u8x8_d_il3820_296x128.c **** 	u8x8_cad_SendSequence(u8x8, u8x8_d_il3820_296x128_powersave1_seq);
 398:..\u8g2\csrc/u8x8_d_il3820_296x128.c ****       break;
 399:..\u8g2\csrc/u8x8_d_il3820_296x128.c ****     case U8X8_MSG_DISPLAY_DRAW_TILE:
 400:..\u8g2\csrc/u8x8_d_il3820_296x128.c ****       u8x8_d_il3820_draw_tile(u8x8, arg_int, arg_ptr);
 401:..\u8g2\csrc/u8x8_d_il3820_296x128.c ****       break;
 402:..\u8g2\csrc/u8x8_d_il3820_296x128.c ****     case U8X8_MSG_DISPLAY_REFRESH:
 403:..\u8g2\csrc/u8x8_d_il3820_296x128.c ****       u8x8_cad_SendSequence(u8x8, u8x8_d_il3820_to_display_seq);
 404:..\u8g2\csrc/u8x8_d_il3820_296x128.c ****       break;
 405:..\u8g2\csrc/u8x8_d_il3820_296x128.c ****     default:
 406:..\u8g2\csrc/u8x8_d_il3820_296x128.c ****       return 0;
 407:..\u8g2\csrc/u8x8_d_il3820_296x128.c ****   }
 408:..\u8g2\csrc/u8x8_d_il3820_296x128.c ****   return 1;
 292              		.loc 1 408 0
 293 0020 0120     		movs	r0, #1
 379:..\u8g2\csrc/u8x8_d_il3820_296x128.c ****       break;
 294              		.loc 1 379 0
 295 0022 38BD     		pop	{r3, r4, r5, pc}
 296              	.LVL43:
 297              	.L18:
 382:..\u8g2\csrc/u8x8_d_il3820_296x128.c ****       u8x8_cad_SendSequence(u8x8, u8x8_d_il3820_296x128_init_seq);    
 298              		.loc 1 382 0
 299 0024 2046     		mov	r0, r4
 300 0026 FFF7FEFF 		bl	u8x8_d_helper_display_init
 301              	.LVL44:
 383:..\u8g2\csrc/u8x8_d_il3820_296x128.c **** 
 302              		.loc 1 383 0
 303 002a 174D     		ldr	r5, .L25+4
 304 002c 05F12801 		add	r1, r5, #40
 305 0030 2046     		mov	r0, r4
 306 0032 FFF7FEFF 		bl	u8x8_cad_SendSequence
ARM GAS  C:\Users\brian\AppData\Local\Temp\ccbjYGG2.s 			page 14


 307              	.LVL45:
 385:..\u8g2\csrc/u8x8_d_il3820_296x128.c ****       u8x8_d_il3820_first_init(u8x8);
 308              		.loc 1 385 0
 309 0036 05F16401 		add	r1, r5, #100
 310 003a 2046     		mov	r0, r4
 311 003c FFF7FEFF 		bl	u8x8_cad_SendSequence
 312              	.LVL46:
 386:..\u8g2\csrc/u8x8_d_il3820_296x128.c **** 
 313              		.loc 1 386 0
 314 0040 2046     		mov	r0, r4
 315 0042 FFF7FEFF 		bl	u8x8_d_il3820_first_init
 316              	.LVL47:
 317              		.loc 1 408 0
 318 0046 0120     		movs	r0, #1
 392:..\u8g2\csrc/u8x8_d_il3820_296x128.c ****     case U8X8_MSG_DISPLAY_SET_POWER_SAVE:
 319              		.loc 1 392 0
 320 0048 38BD     		pop	{r3, r4, r5, pc}
 321              	.LVL48:
 322              	.L19:
 394:..\u8g2\csrc/u8x8_d_il3820_296x128.c **** 	u8x8_cad_SendSequence(u8x8, u8x8_d_il3820_296x128_powersave0_seq);
 323              		.loc 1 394 0
 324 004a 28B9     		cbnz	r0, .L22
 395:..\u8g2\csrc/u8x8_d_il3820_296x128.c ****       else
 325              		.loc 1 395 0
 326 004c 0F49     		ldr	r1, .L25+8
 327 004e 2046     		mov	r0, r4
 328 0050 FFF7FEFF 		bl	u8x8_cad_SendSequence
 329              	.LVL49:
 330              		.loc 1 408 0
 331 0054 0120     		movs	r0, #1
 332 0056 38BD     		pop	{r3, r4, r5, pc}
 333              	.LVL50:
 334              	.L22:
 397:..\u8g2\csrc/u8x8_d_il3820_296x128.c ****       break;
 335              		.loc 1 397 0
 336 0058 0D49     		ldr	r1, .L25+12
 337 005a 2046     		mov	r0, r4
 338 005c FFF7FEFF 		bl	u8x8_cad_SendSequence
 339              	.LVL51:
 340              		.loc 1 408 0
 341 0060 0120     		movs	r0, #1
 342 0062 38BD     		pop	{r3, r4, r5, pc}
 343              	.LVL52:
 344              	.L20:
 400:..\u8g2\csrc/u8x8_d_il3820_296x128.c ****       break;
 345              		.loc 1 400 0
 346 0064 1A46     		mov	r2, r3
 347 0066 0146     		mov	r1, r0
 348 0068 2046     		mov	r0, r4
 349 006a FFF7FEFF 		bl	u8x8_d_il3820_draw_tile
 350              	.LVL53:
 351              		.loc 1 408 0
 352 006e 0120     		movs	r0, #1
 401:..\u8g2\csrc/u8x8_d_il3820_296x128.c ****     case U8X8_MSG_DISPLAY_REFRESH:
 353              		.loc 1 401 0
 354 0070 38BD     		pop	{r3, r4, r5, pc}
 355              	.LVL54:
ARM GAS  C:\Users\brian\AppData\Local\Temp\ccbjYGG2.s 			page 15


 356              	.L21:
 403:..\u8g2\csrc/u8x8_d_il3820_296x128.c ****       break;
 357              		.loc 1 403 0
 358 0072 0849     		ldr	r1, .L25+16
 359 0074 2046     		mov	r0, r4
 360 0076 FFF7FEFF 		bl	u8x8_cad_SendSequence
 361              	.LVL55:
 362              		.loc 1 408 0
 363 007a 0120     		movs	r0, #1
 404:..\u8g2\csrc/u8x8_d_il3820_296x128.c ****     default:
 364              		.loc 1 404 0
 365 007c 38BD     		pop	{r3, r4, r5, pc}
 366              	.LVL56:
 367              	.L23:
 406:..\u8g2\csrc/u8x8_d_il3820_296x128.c ****   }
 368              		.loc 1 406 0
 369 007e 0020     		movs	r0, #0
 409:..\u8g2\csrc/u8x8_d_il3820_296x128.c **** }
 370              		.loc 1 409 0
 371 0080 38BD     		pop	{r3, r4, r5, pc}
 372              	.LVL57:
 373              	.L26:
 374 0082 00BF     		.align	2
 375              	.L25:
 376 0084 10000000 		.word	.LANCHOR1+16
 377 0088 00000000 		.word	.LANCHOR1
 378 008c 64000000 		.word	.LANCHOR1+100
 379 0090 74000000 		.word	.LANCHOR1+116
 380 0094 80000000 		.word	.LANCHOR1+128
 381              		.cfi_endproc
 382              	.LFE3:
 383              		.size	u8x8_d_il3820_296x128, .-u8x8_d_il3820_296x128
 384              		.section	.text.u8x8_d_il3820_v2_296x128,"ax",%progbits
 385              		.align	2
 386              		.global	u8x8_d_il3820_v2_296x128
 387              		.thumb
 388              		.thumb_func
 389              		.type	u8x8_d_il3820_v2_296x128, %function
 390              	u8x8_d_il3820_v2_296x128:
 391              	.LFB4:
 410:..\u8g2\csrc/u8x8_d_il3820_296x128.c **** 
 411:..\u8g2\csrc/u8x8_d_il3820_296x128.c **** /*=================================================*/
 412:..\u8g2\csrc/u8x8_d_il3820_296x128.c **** /* second version for the IL3820 display */
 413:..\u8g2\csrc/u8x8_d_il3820_296x128.c **** 
 414:..\u8g2\csrc/u8x8_d_il3820_296x128.c **** 
 415:..\u8g2\csrc/u8x8_d_il3820_296x128.c **** /* http://www.waveshare.com/wiki/File:2.9inch_e-Paper_Module_code.7z */
 416:..\u8g2\csrc/u8x8_d_il3820_296x128.c **** static const uint8_t u8x8_d_il3820_v2_296x128_init_seq[] = {
 417:..\u8g2\csrc/u8x8_d_il3820_296x128.c ****     
 418:..\u8g2\csrc/u8x8_d_il3820_296x128.c ****   U8X8_START_TRANSFER(),             	/* enable chip, delay is part of the transfer start */
 419:..\u8g2\csrc/u8x8_d_il3820_296x128.c **** 
 420:..\u8g2\csrc/u8x8_d_il3820_296x128.c ****   // U8X8_CA(0x10, 0x00),	/* Deep Sleep mode Control: POR: Normal mode */
 421:..\u8g2\csrc/u8x8_d_il3820_296x128.c ****   U8X8_C(0x01),
 422:..\u8g2\csrc/u8x8_d_il3820_296x128.c ****   U8X8_A(295 % 256), U8X8_A(295/256), U8X8_A(0),
 423:..\u8g2\csrc/u8x8_d_il3820_296x128.c ****   
 424:..\u8g2\csrc/u8x8_d_il3820_296x128.c ****   /* the driving voltagesmust not be that high, in order to aviod level change after */
 425:..\u8g2\csrc/u8x8_d_il3820_296x128.c ****   /* some seconds (which happens with 0xea */
 426:..\u8g2\csrc/u8x8_d_il3820_296x128.c ****   U8X8_CA(0x03, 0x75), 	/* Gate Driving voltage: +/-15V =0x00 POR (+22/-20V) = 0x0ea*/
ARM GAS  C:\Users\brian\AppData\Local\Temp\ccbjYGG2.s 			page 16


 427:..\u8g2\csrc/u8x8_d_il3820_296x128.c ****   U8X8_CA(0x04, 0x0a), 	/* Source Driving voltage:  (POR=0x0a=15V), max=0x0e*/
 428:..\u8g2\csrc/u8x8_d_il3820_296x128.c ****   
 429:..\u8g2\csrc/u8x8_d_il3820_296x128.c ****   U8X8_CA(0x0b, 7),	/* Set Delay of gate and source non overlap period, POR = 7 */
 430:..\u8g2\csrc/u8x8_d_il3820_296x128.c ****   U8X8_CA(0x2c, 0xa8),	/* write vcom value*/
 431:..\u8g2\csrc/u8x8_d_il3820_296x128.c ****   U8X8_CA(0x3a, 0x16),	/* dummy lines POR=22 (0x016) */
 432:..\u8g2\csrc/u8x8_d_il3820_296x128.c ****   U8X8_CA(0x3b, 0x08),	/* gate time POR=0x08*/
 433:..\u8g2\csrc/u8x8_d_il3820_296x128.c ****   U8X8_CA(0x3c, 0x33),	/* select boarder waveform */
 434:..\u8g2\csrc/u8x8_d_il3820_296x128.c **** 
 435:..\u8g2\csrc/u8x8_d_il3820_296x128.c ****   U8X8_CA(0x11, 0x07),	/* Define data entry mode, x&y inc, x first*/
 436:..\u8g2\csrc/u8x8_d_il3820_296x128.c ****   U8X8_CAA(0x44, 0, 29),	/* RAM x start & end, 32*4=128 */
 437:..\u8g2\csrc/u8x8_d_il3820_296x128.c ****   U8X8_CAAAA(0x45, 0, 0, 295&255, 295>>8),	/* RAM y start & end, 0..295 */
 438:..\u8g2\csrc/u8x8_d_il3820_296x128.c ****   
 439:..\u8g2\csrc/u8x8_d_il3820_296x128.c ****   U8X8_END_TRANSFER(),             	/* disable chip */
 440:..\u8g2\csrc/u8x8_d_il3820_296x128.c ****   U8X8_END()             			/* end of sequence */
 441:..\u8g2\csrc/u8x8_d_il3820_296x128.c **** };
 442:..\u8g2\csrc/u8x8_d_il3820_296x128.c **** 
 443:..\u8g2\csrc/u8x8_d_il3820_296x128.c **** 
 444:..\u8g2\csrc/u8x8_d_il3820_296x128.c **** static const uint8_t u8x8_d_il3820_v2_to_display_seq[] = {
 445:..\u8g2\csrc/u8x8_d_il3820_296x128.c ****   U8X8_START_TRANSFER(),             	/* enable chip, delay is part of the transfer start */
 446:..\u8g2\csrc/u8x8_d_il3820_296x128.c **** 
 447:..\u8g2\csrc/u8x8_d_il3820_296x128.c **** /*
 448:..\u8g2\csrc/u8x8_d_il3820_296x128.c **** 0xaa, 0x09, 0x09, 0x19, 0x19, 
 449:..\u8g2\csrc/u8x8_d_il3820_296x128.c **** 0x11, 0x11, 0x11, 0x11, 0x00, 
 450:..\u8g2\csrc/u8x8_d_il3820_296x128.c **** 0x00, 0x00, 0x00, 0x00, 0x00, 
 451:..\u8g2\csrc/u8x8_d_il3820_296x128.c **** 0x00, 0x00, 0x00, 0x00, 0x00, 
 452:..\u8g2\csrc/u8x8_d_il3820_296x128.c **** 
 453:..\u8g2\csrc/u8x8_d_il3820_296x128.c **** 0x75, 0x77, 0x77, 0x77, 0x07, 
 454:..\u8g2\csrc/u8x8_d_il3820_296x128.c **** 0x00, 0x00, 0x00, 0x00, 0x00
 455:..\u8g2\csrc/u8x8_d_il3820_296x128.c **** measured 1240 ms
 456:..\u8g2\csrc/u8x8_d_il3820_296x128.c **** */
 457:..\u8g2\csrc/u8x8_d_il3820_296x128.c ****   U8X8_C(0x32),	/* write LUT register*/
 458:..\u8g2\csrc/u8x8_d_il3820_296x128.c ****   /* https://github.com/olikraus/u8g2/issues/347 */
 459:..\u8g2\csrc/u8x8_d_il3820_296x128.c ****   U8X8_A(0xaa),
 460:..\u8g2\csrc/u8x8_d_il3820_296x128.c ****   U8X8_A(0x09),
 461:..\u8g2\csrc/u8x8_d_il3820_296x128.c ****   U8X8_A(0x09),
 462:..\u8g2\csrc/u8x8_d_il3820_296x128.c ****   U8X8_A(0x19),  
 463:..\u8g2\csrc/u8x8_d_il3820_296x128.c ****   U8X8_A(0x19),
 464:..\u8g2\csrc/u8x8_d_il3820_296x128.c ****   
 465:..\u8g2\csrc/u8x8_d_il3820_296x128.c ****   U8X8_A(0x11),
 466:..\u8g2\csrc/u8x8_d_il3820_296x128.c ****   U8X8_A(0x11),
 467:..\u8g2\csrc/u8x8_d_il3820_296x128.c ****   U8X8_A(0x11),
 468:..\u8g2\csrc/u8x8_d_il3820_296x128.c ****   U8X8_A(0x11),  
 469:..\u8g2\csrc/u8x8_d_il3820_296x128.c ****   U8X8_A(0x00),
 470:..\u8g2\csrc/u8x8_d_il3820_296x128.c ****   
 471:..\u8g2\csrc/u8x8_d_il3820_296x128.c ****   U8X8_A(0x00),
 472:..\u8g2\csrc/u8x8_d_il3820_296x128.c ****   U8X8_A(0x00),
 473:..\u8g2\csrc/u8x8_d_il3820_296x128.c ****   U8X8_A(0x00),
 474:..\u8g2\csrc/u8x8_d_il3820_296x128.c ****   U8X8_A(0x00),
 475:..\u8g2\csrc/u8x8_d_il3820_296x128.c ****   U8X8_A(0x00),
 476:..\u8g2\csrc/u8x8_d_il3820_296x128.c ****   
 477:..\u8g2\csrc/u8x8_d_il3820_296x128.c ****   U8X8_A(0x00),
 478:..\u8g2\csrc/u8x8_d_il3820_296x128.c ****   U8X8_A(0x00),
 479:..\u8g2\csrc/u8x8_d_il3820_296x128.c ****   U8X8_A(0x00),
 480:..\u8g2\csrc/u8x8_d_il3820_296x128.c ****   U8X8_A(0x00),
 481:..\u8g2\csrc/u8x8_d_il3820_296x128.c ****   U8X8_A(0x00),
 482:..\u8g2\csrc/u8x8_d_il3820_296x128.c ****   
 483:..\u8g2\csrc/u8x8_d_il3820_296x128.c ****   /* Timing part of the LUT, 20 Phases with 4 bit each: 10 bytes */
ARM GAS  C:\Users\brian\AppData\Local\Temp\ccbjYGG2.s 			page 17


 484:..\u8g2\csrc/u8x8_d_il3820_296x128.c ****   U8X8_A(0x75),
 485:..\u8g2\csrc/u8x8_d_il3820_296x128.c ****   U8X8_A(0x77),
 486:..\u8g2\csrc/u8x8_d_il3820_296x128.c ****   U8X8_A(0x77),
 487:..\u8g2\csrc/u8x8_d_il3820_296x128.c ****   U8X8_A(0x77),
 488:..\u8g2\csrc/u8x8_d_il3820_296x128.c ****   U8X8_A(0x07),
 489:..\u8g2\csrc/u8x8_d_il3820_296x128.c ****   
 490:..\u8g2\csrc/u8x8_d_il3820_296x128.c ****   U8X8_A(0x00),
 491:..\u8g2\csrc/u8x8_d_il3820_296x128.c ****   U8X8_A(0x00),
 492:..\u8g2\csrc/u8x8_d_il3820_296x128.c ****   U8X8_A(0x00),
 493:..\u8g2\csrc/u8x8_d_il3820_296x128.c ****   U8X8_A(0x00),
 494:..\u8g2\csrc/u8x8_d_il3820_296x128.c ****   U8X8_A(0x00),
 495:..\u8g2\csrc/u8x8_d_il3820_296x128.c ****   
 496:..\u8g2\csrc/u8x8_d_il3820_296x128.c ****   U8X8_CA(0x22, 0x04),	/* display update seq. option: pattern display */
 497:..\u8g2\csrc/u8x8_d_il3820_296x128.c ****   U8X8_C(0x20),	/* execute sequence */
 498:..\u8g2\csrc/u8x8_d_il3820_296x128.c ****   
 499:..\u8g2\csrc/u8x8_d_il3820_296x128.c ****   U8X8_DLY(250),	/* delay for 1400ms. The current sequence takes 1240ms, it was reported, that long
 500:..\u8g2\csrc/u8x8_d_il3820_296x128.c ****   U8X8_DLY(250),
 501:..\u8g2\csrc/u8x8_d_il3820_296x128.c ****   U8X8_DLY(250),
 502:..\u8g2\csrc/u8x8_d_il3820_296x128.c ****   U8X8_DLY(250),
 503:..\u8g2\csrc/u8x8_d_il3820_296x128.c ****   
 504:..\u8g2\csrc/u8x8_d_il3820_296x128.c ****   U8X8_DLY(250),
 505:..\u8g2\csrc/u8x8_d_il3820_296x128.c ****   U8X8_DLY(150),	/* extended, #318 */
 506:..\u8g2\csrc/u8x8_d_il3820_296x128.c ****  
 507:..\u8g2\csrc/u8x8_d_il3820_296x128.c ****   U8X8_END_TRANSFER(),             	/* disable chip */
 508:..\u8g2\csrc/u8x8_d_il3820_296x128.c ****   U8X8_END()             			/* end of sequence */
 509:..\u8g2\csrc/u8x8_d_il3820_296x128.c **** };
 510:..\u8g2\csrc/u8x8_d_il3820_296x128.c **** 
 511:..\u8g2\csrc/u8x8_d_il3820_296x128.c **** uint8_t u8x8_d_il3820_v2_296x128(u8x8_t *u8x8, uint8_t msg, uint8_t arg_int, void *arg_ptr)
 512:..\u8g2\csrc/u8x8_d_il3820_296x128.c **** {
 392              		.loc 1 512 0
 393              		.cfi_startproc
 394              		@ args = 0, pretend = 0, frame = 0
 395              		@ frame_needed = 0, uses_anonymous_args = 0
 396              	.LVL58:
 397 0000 38B5     		push	{r3, r4, r5, lr}
 398              		.cfi_def_cfa_offset 16
 399              		.cfi_offset 3, -16
 400              		.cfi_offset 4, -12
 401              		.cfi_offset 5, -8
 402              		.cfi_offset 14, -4
 403 0002 0446     		mov	r4, r0
 404 0004 1046     		mov	r0, r2
 405              	.LVL59:
 513:..\u8g2\csrc/u8x8_d_il3820_296x128.c ****   switch(msg)
 406              		.loc 1 513 0
 407 0006 0939     		subs	r1, r1, #9
 408              	.LVL60:
 409 0008 0729     		cmp	r1, #7
 410 000a 38D8     		bhi	.L36
 411 000c DFE801F0 		tbb	[pc, r1]
 412              	.LVL61:
 413              	.L30:
 414 0010 04       		.byte	(.L29-.L30)/2
 415 0011 0A       		.byte	(.L31-.L30)/2
 416 0012 1D       		.byte	(.L32-.L30)/2
 417 0013 37       		.byte	(.L36-.L30)/2
 418 0014 37       		.byte	(.L36-.L30)/2
ARM GAS  C:\Users\brian\AppData\Local\Temp\ccbjYGG2.s 			page 18


 419 0015 37       		.byte	(.L36-.L30)/2
 420 0016 2A       		.byte	(.L33-.L30)/2
 421 0017 31       		.byte	(.L34-.L30)/2
 422              		.p2align 1
 423              	.L29:
 514:..\u8g2\csrc/u8x8_d_il3820_296x128.c ****   {
 515:..\u8g2\csrc/u8x8_d_il3820_296x128.c ****     case U8X8_MSG_DISPLAY_SETUP_MEMORY:
 516:..\u8g2\csrc/u8x8_d_il3820_296x128.c ****       u8x8_d_helper_display_setup_memory(u8x8, &u8x8_il3820_296x128_display_info);
 424              		.loc 1 516 0
 425 0018 1A49     		ldr	r1, .L38
 426 001a 2046     		mov	r0, r4
 427 001c FFF7FEFF 		bl	u8x8_d_helper_display_setup_memory
 428              	.LVL62:
 517:..\u8g2\csrc/u8x8_d_il3820_296x128.c ****       break;    
 518:..\u8g2\csrc/u8x8_d_il3820_296x128.c ****     case U8X8_MSG_DISPLAY_INIT:
 519:..\u8g2\csrc/u8x8_d_il3820_296x128.c **** 
 520:..\u8g2\csrc/u8x8_d_il3820_296x128.c ****       u8x8_d_helper_display_init(u8x8);
 521:..\u8g2\csrc/u8x8_d_il3820_296x128.c ****     
 522:..\u8g2\csrc/u8x8_d_il3820_296x128.c ****       u8x8_cad_SendSequence(u8x8, u8x8_d_il3820_v2_296x128_init_seq);    
 523:..\u8g2\csrc/u8x8_d_il3820_296x128.c **** 
 524:..\u8g2\csrc/u8x8_d_il3820_296x128.c ****       u8x8_cad_SendSequence(u8x8, u8x8_d_il3820_296x128_powersave0_seq);
 525:..\u8g2\csrc/u8x8_d_il3820_296x128.c ****       u8x8_d_il3820_first_init(u8x8);
 526:..\u8g2\csrc/u8x8_d_il3820_296x128.c ****       /* u8x8_d_il3820_second_init(u8x8); */  /* not required, u8g2.begin() will also clear the dis
 527:..\u8g2\csrc/u8x8_d_il3820_296x128.c ****           
 528:..\u8g2\csrc/u8x8_d_il3820_296x128.c ****       /* usually the DISPLAY_INIT message leaves the display in power save state */
 529:..\u8g2\csrc/u8x8_d_il3820_296x128.c ****       /* however this is not done for e-paper devices, see: */
 530:..\u8g2\csrc/u8x8_d_il3820_296x128.c ****       /* https://github.com/olikraus/u8g2/wiki/internal#powersave-mode */
 531:..\u8g2\csrc/u8x8_d_il3820_296x128.c ****     
 532:..\u8g2\csrc/u8x8_d_il3820_296x128.c ****       break;
 533:..\u8g2\csrc/u8x8_d_il3820_296x128.c ****     case U8X8_MSG_DISPLAY_SET_POWER_SAVE:
 534:..\u8g2\csrc/u8x8_d_il3820_296x128.c ****       if ( arg_int == 0 )
 535:..\u8g2\csrc/u8x8_d_il3820_296x128.c **** 	u8x8_cad_SendSequence(u8x8, u8x8_d_il3820_296x128_powersave0_seq);
 536:..\u8g2\csrc/u8x8_d_il3820_296x128.c ****       else
 537:..\u8g2\csrc/u8x8_d_il3820_296x128.c **** 	u8x8_cad_SendSequence(u8x8, u8x8_d_il3820_296x128_powersave1_seq);
 538:..\u8g2\csrc/u8x8_d_il3820_296x128.c ****       break;
 539:..\u8g2\csrc/u8x8_d_il3820_296x128.c ****     case U8X8_MSG_DISPLAY_DRAW_TILE:
 540:..\u8g2\csrc/u8x8_d_il3820_296x128.c ****       u8x8_d_il3820_draw_tile(u8x8, arg_int, arg_ptr);
 541:..\u8g2\csrc/u8x8_d_il3820_296x128.c ****       break;
 542:..\u8g2\csrc/u8x8_d_il3820_296x128.c ****     case U8X8_MSG_DISPLAY_REFRESH:
 543:..\u8g2\csrc/u8x8_d_il3820_296x128.c ****       u8x8_cad_SendSequence(u8x8, u8x8_d_il3820_v2_to_display_seq);
 544:..\u8g2\csrc/u8x8_d_il3820_296x128.c ****       break;
 545:..\u8g2\csrc/u8x8_d_il3820_296x128.c ****     default:
 546:..\u8g2\csrc/u8x8_d_il3820_296x128.c ****       return 0;
 547:..\u8g2\csrc/u8x8_d_il3820_296x128.c ****   }
 548:..\u8g2\csrc/u8x8_d_il3820_296x128.c ****   return 1;
 429              		.loc 1 548 0
 430 0020 0120     		movs	r0, #1
 517:..\u8g2\csrc/u8x8_d_il3820_296x128.c ****       break;    
 431              		.loc 1 517 0
 432 0022 38BD     		pop	{r3, r4, r5, pc}
 433              	.LVL63:
 434              	.L31:
 520:..\u8g2\csrc/u8x8_d_il3820_296x128.c ****     
 435              		.loc 1 520 0
 436 0024 2046     		mov	r0, r4
 437 0026 FFF7FEFF 		bl	u8x8_d_helper_display_init
 438              	.LVL64:
ARM GAS  C:\Users\brian\AppData\Local\Temp\ccbjYGG2.s 			page 19


 522:..\u8g2\csrc/u8x8_d_il3820_296x128.c **** 
 439              		.loc 1 522 0
 440 002a 174D     		ldr	r5, .L38+4
 441 002c 05F1D801 		add	r1, r5, #216
 442 0030 2046     		mov	r0, r4
 443 0032 FFF7FEFF 		bl	u8x8_cad_SendSequence
 444              	.LVL65:
 524:..\u8g2\csrc/u8x8_d_il3820_296x128.c ****       u8x8_d_il3820_first_init(u8x8);
 445              		.loc 1 524 0
 446 0036 05F16401 		add	r1, r5, #100
 447 003a 2046     		mov	r0, r4
 448 003c FFF7FEFF 		bl	u8x8_cad_SendSequence
 449              	.LVL66:
 525:..\u8g2\csrc/u8x8_d_il3820_296x128.c ****       /* u8x8_d_il3820_second_init(u8x8); */  /* not required, u8g2.begin() will also clear the dis
 450              		.loc 1 525 0
 451 0040 2046     		mov	r0, r4
 452 0042 FFF7FEFF 		bl	u8x8_d_il3820_first_init
 453              	.LVL67:
 454              		.loc 1 548 0
 455 0046 0120     		movs	r0, #1
 532:..\u8g2\csrc/u8x8_d_il3820_296x128.c ****     case U8X8_MSG_DISPLAY_SET_POWER_SAVE:
 456              		.loc 1 532 0
 457 0048 38BD     		pop	{r3, r4, r5, pc}
 458              	.LVL68:
 459              	.L32:
 534:..\u8g2\csrc/u8x8_d_il3820_296x128.c **** 	u8x8_cad_SendSequence(u8x8, u8x8_d_il3820_296x128_powersave0_seq);
 460              		.loc 1 534 0
 461 004a 28B9     		cbnz	r0, .L35
 535:..\u8g2\csrc/u8x8_d_il3820_296x128.c ****       else
 462              		.loc 1 535 0
 463 004c 0F49     		ldr	r1, .L38+8
 464 004e 2046     		mov	r0, r4
 465 0050 FFF7FEFF 		bl	u8x8_cad_SendSequence
 466              	.LVL69:
 467              		.loc 1 548 0
 468 0054 0120     		movs	r0, #1
 469 0056 38BD     		pop	{r3, r4, r5, pc}
 470              	.LVL70:
 471              	.L35:
 537:..\u8g2\csrc/u8x8_d_il3820_296x128.c ****       break;
 472              		.loc 1 537 0
 473 0058 0D49     		ldr	r1, .L38+12
 474 005a 2046     		mov	r0, r4
 475 005c FFF7FEFF 		bl	u8x8_cad_SendSequence
 476              	.LVL71:
 477              		.loc 1 548 0
 478 0060 0120     		movs	r0, #1
 479 0062 38BD     		pop	{r3, r4, r5, pc}
 480              	.LVL72:
 481              	.L33:
 540:..\u8g2\csrc/u8x8_d_il3820_296x128.c ****       break;
 482              		.loc 1 540 0
 483 0064 1A46     		mov	r2, r3
 484 0066 0146     		mov	r1, r0
 485 0068 2046     		mov	r0, r4
 486 006a FFF7FEFF 		bl	u8x8_d_il3820_draw_tile
 487              	.LVL73:
ARM GAS  C:\Users\brian\AppData\Local\Temp\ccbjYGG2.s 			page 20


 488              		.loc 1 548 0
 489 006e 0120     		movs	r0, #1
 541:..\u8g2\csrc/u8x8_d_il3820_296x128.c ****     case U8X8_MSG_DISPLAY_REFRESH:
 490              		.loc 1 541 0
 491 0070 38BD     		pop	{r3, r4, r5, pc}
 492              	.LVL74:
 493              	.L34:
 543:..\u8g2\csrc/u8x8_d_il3820_296x128.c ****       break;
 494              		.loc 1 543 0
 495 0072 0849     		ldr	r1, .L38+16
 496 0074 2046     		mov	r0, r4
 497 0076 FFF7FEFF 		bl	u8x8_cad_SendSequence
 498              	.LVL75:
 499              		.loc 1 548 0
 500 007a 0120     		movs	r0, #1
 544:..\u8g2\csrc/u8x8_d_il3820_296x128.c ****     default:
 501              		.loc 1 544 0
 502 007c 38BD     		pop	{r3, r4, r5, pc}
 503              	.LVL76:
 504              	.L36:
 546:..\u8g2\csrc/u8x8_d_il3820_296x128.c ****   }
 505              		.loc 1 546 0
 506 007e 0020     		movs	r0, #0
 549:..\u8g2\csrc/u8x8_d_il3820_296x128.c **** }
 507              		.loc 1 549 0
 508 0080 38BD     		pop	{r3, r4, r5, pc}
 509              	.LVL77:
 510              	.L39:
 511 0082 00BF     		.align	2
 512              	.L38:
 513 0084 10000000 		.word	.LANCHOR1+16
 514 0088 00000000 		.word	.LANCHOR1
 515 008c 64000000 		.word	.LANCHOR1+100
 516 0090 74000000 		.word	.LANCHOR1+116
 517 0094 14010000 		.word	.LANCHOR1+276
 518              		.cfi_endproc
 519              	.LFE4:
 520              		.size	u8x8_d_il3820_v2_296x128, .-u8x8_d_il3820_v2_296x128
 521              		.section	.rodata
 522              		.align	2
 523              		.set	.LANCHOR1,. + 0
 524              		.type	u8x8_d_il3820_exec_1000dly_seq, %object
 525              		.size	u8x8_d_il3820_exec_1000dly_seq, 16
 526              	u8x8_d_il3820_exec_1000dly_seq:
 527 0000 15       		.byte	21
 528 0001 22       		.byte	34
 529 0002 16       		.byte	22
 530 0003 04       		.byte	4
 531 0004 15       		.byte	21
 532 0005 20       		.byte	32
 533 0006 FE       		.byte	-2
 534 0007 FA       		.byte	-6
 535 0008 FE       		.byte	-2
 536 0009 FA       		.byte	-6
 537 000a FE       		.byte	-2
 538 000b FA       		.byte	-6
 539 000c FE       		.byte	-2
ARM GAS  C:\Users\brian\AppData\Local\Temp\ccbjYGG2.s 			page 21


 540 000d FA       		.byte	-6
 541 000e 19       		.byte	25
 542 000f FF       		.byte	-1
 543              		.type	u8x8_il3820_296x128_display_info, %object
 544              		.size	u8x8_il3820_296x128_display_info, 24
 545              	u8x8_il3820_296x128_display_info:
 546 0010 00       		.byte	0
 547 0011 01       		.byte	1
 548 0012 78       		.byte	120
 549 0013 3C       		.byte	60
 550 0014 64       		.byte	100
 551 0015 64       		.byte	100
 552 0016 32       		.byte	50
 553 0017 7D       		.byte	125
 554 0018 00093D00 		.word	4000000
 555 001c 00       		.byte	0
 556 001d 04       		.byte	4
 557 001e 28       		.byte	40
 558 001f 96       		.byte	-106
 559 0020 25       		.byte	37
 560 0021 10       		.byte	16
 561 0022 00       		.byte	0
 562 0023 00       		.byte	0
 563 0024 2801     		.short	296
 564 0026 8000     		.short	128
 565              		.type	u8x8_d_il3820_296x128_init_seq, %object
 566              		.size	u8x8_d_il3820_296x128_init_seq, 59
 567              	u8x8_d_il3820_296x128_init_seq:
 568 0028 18       		.byte	24
 569 0029 15       		.byte	21
 570 002a 10       		.byte	16
 571 002b 16       		.byte	22
 572 002c 00       		.byte	0
 573 002d 15       		.byte	21
 574 002e 01       		.byte	1
 575 002f 16       		.byte	22
 576 0030 27       		.byte	39
 577 0031 16       		.byte	22
 578 0032 01       		.byte	1
 579 0033 16       		.byte	22
 580 0034 00       		.byte	0
 581 0035 15       		.byte	21
 582 0036 03       		.byte	3
 583 0037 16       		.byte	22
 584 0038 00       		.byte	0
 585 0039 15       		.byte	21
 586 003a 04       		.byte	4
 587 003b 16       		.byte	22
 588 003c 0A       		.byte	10
 589 003d 15       		.byte	21
 590 003e 2C       		.byte	44
 591 003f 16       		.byte	22
 592 0040 A8       		.byte	-88
 593 0041 15       		.byte	21
 594 0042 3A       		.byte	58
 595 0043 16       		.byte	22
 596 0044 16       		.byte	22
ARM GAS  C:\Users\brian\AppData\Local\Temp\ccbjYGG2.s 			page 22


 597 0045 15       		.byte	21
 598 0046 3B       		.byte	59
 599 0047 16       		.byte	22
 600 0048 08       		.byte	8
 601 0049 15       		.byte	21
 602 004a 3C       		.byte	60
 603 004b 16       		.byte	22
 604 004c 33       		.byte	51
 605 004d 15       		.byte	21
 606 004e 11       		.byte	17
 607 004f 16       		.byte	22
 608 0050 07       		.byte	7
 609 0051 15       		.byte	21
 610 0052 44       		.byte	68
 611 0053 16       		.byte	22
 612 0054 00       		.byte	0
 613 0055 16       		.byte	22
 614 0056 1D       		.byte	29
 615 0057 15       		.byte	21
 616 0058 45       		.byte	69
 617 0059 16       		.byte	22
 618 005a 00       		.byte	0
 619 005b 16       		.byte	22
 620 005c 00       		.byte	0
 621 005d 16       		.byte	22
 622 005e 27       		.byte	39
 623 005f 16       		.byte	22
 624 0060 01       		.byte	1
 625 0061 19       		.byte	25
 626 0062 FF       		.byte	-1
 627 0063 00       		.space	1
 628              		.type	u8x8_d_il3820_296x128_powersave0_seq, %object
 629              		.size	u8x8_d_il3820_296x128_powersave0_seq, 13
 630              	u8x8_d_il3820_296x128_powersave0_seq:
 631 0064 18       		.byte	24
 632 0065 15       		.byte	21
 633 0066 22       		.byte	34
 634 0067 16       		.byte	22
 635 0068 C0       		.byte	-64
 636 0069 15       		.byte	21
 637 006a 20       		.byte	32
 638 006b FE       		.byte	-2
 639 006c C8       		.byte	-56
 640 006d FE       		.byte	-2
 641 006e 64       		.byte	100
 642 006f 19       		.byte	25
 643 0070 FF       		.byte	-1
 644 0071 000000   		.space	3
 645              		.type	u8x8_d_il3820_296x128_powersave1_seq, %object
 646              		.size	u8x8_d_il3820_296x128_powersave1_seq, 11
 647              	u8x8_d_il3820_296x128_powersave1_seq:
 648 0074 18       		.byte	24
 649 0075 15       		.byte	21
 650 0076 22       		.byte	34
 651 0077 16       		.byte	22
 652 0078 02       		.byte	2
 653 0079 15       		.byte	21
ARM GAS  C:\Users\brian\AppData\Local\Temp\ccbjYGG2.s 			page 23


 654 007a 20       		.byte	32
 655 007b FE       		.byte	-2
 656 007c 14       		.byte	20
 657 007d 19       		.byte	25
 658 007e FF       		.byte	-1
 659 007f 00       		.space	1
 660              		.type	u8x8_d_il3820_to_display_seq, %object
 661              		.size	u8x8_d_il3820_to_display_seq, 85
 662              	u8x8_d_il3820_to_display_seq:
 663 0080 18       		.byte	24
 664 0081 15       		.byte	21
 665 0082 32       		.byte	50
 666 0083 16       		.byte	22
 667 0084 50       		.byte	80
 668 0085 16       		.byte	22
 669 0086 AA       		.byte	-86
 670 0087 16       		.byte	22
 671 0088 55       		.byte	85
 672 0089 16       		.byte	22
 673 008a AA       		.byte	-86
 674 008b 16       		.byte	22
 675 008c 11       		.byte	17
 676 008d 16       		.byte	22
 677 008e 11       		.byte	17
 678 008f 16       		.byte	22
 679 0090 00       		.byte	0
 680 0091 16       		.byte	22
 681 0092 00       		.byte	0
 682 0093 16       		.byte	22
 683 0094 00       		.byte	0
 684 0095 16       		.byte	22
 685 0096 00       		.byte	0
 686 0097 16       		.byte	22
 687 0098 00       		.byte	0
 688 0099 16       		.byte	22
 689 009a 00       		.byte	0
 690 009b 16       		.byte	22
 691 009c 00       		.byte	0
 692 009d 16       		.byte	22
 693 009e 00       		.byte	0
 694 009f 16       		.byte	22
 695 00a0 00       		.byte	0
 696 00a1 16       		.byte	22
 697 00a2 00       		.byte	0
 698 00a3 16       		.byte	22
 699 00a4 00       		.byte	0
 700 00a5 16       		.byte	22
 701 00a6 00       		.byte	0
 702 00a7 16       		.byte	22
 703 00a8 00       		.byte	0
 704 00a9 16       		.byte	22
 705 00aa 00       		.byte	0
 706 00ab 16       		.byte	22
 707 00ac FF       		.byte	-1
 708 00ad 16       		.byte	22
 709 00ae FF       		.byte	-1
 710 00af 16       		.byte	22
ARM GAS  C:\Users\brian\AppData\Local\Temp\ccbjYGG2.s 			page 24


 711 00b0 3F       		.byte	63
 712 00b1 16       		.byte	22
 713 00b2 00       		.byte	0
 714 00b3 16       		.byte	22
 715 00b4 00       		.byte	0
 716 00b5 16       		.byte	22
 717 00b6 00       		.byte	0
 718 00b7 16       		.byte	22
 719 00b8 00       		.byte	0
 720 00b9 16       		.byte	22
 721 00ba 00       		.byte	0
 722 00bb 16       		.byte	22
 723 00bc 00       		.byte	0
 724 00bd 16       		.byte	22
 725 00be 00       		.byte	0
 726 00bf 15       		.byte	21
 727 00c0 22       		.byte	34
 728 00c1 16       		.byte	22
 729 00c2 04       		.byte	4
 730 00c3 15       		.byte	21
 731 00c4 20       		.byte	32
 732 00c5 FE       		.byte	-2
 733 00c6 FA       		.byte	-6
 734 00c7 FE       		.byte	-2
 735 00c8 FA       		.byte	-6
 736 00c9 FE       		.byte	-2
 737 00ca FA       		.byte	-6
 738 00cb FE       		.byte	-2
 739 00cc FA       		.byte	-6
 740 00cd FE       		.byte	-2
 741 00ce FA       		.byte	-6
 742 00cf FE       		.byte	-2
 743 00d0 FA       		.byte	-6
 744 00d1 FE       		.byte	-2
 745 00d2 78       		.byte	120
 746 00d3 19       		.byte	25
 747 00d4 FF       		.byte	-1
 748 00d5 000000   		.space	3
 749              		.type	u8x8_d_il3820_v2_296x128_init_seq, %object
 750              		.size	u8x8_d_il3820_v2_296x128_init_seq, 59
 751              	u8x8_d_il3820_v2_296x128_init_seq:
 752 00d8 18       		.byte	24
 753 00d9 15       		.byte	21
 754 00da 01       		.byte	1
 755 00db 16       		.byte	22
 756 00dc 27       		.byte	39
 757 00dd 16       		.byte	22
 758 00de 01       		.byte	1
 759 00df 16       		.byte	22
 760 00e0 00       		.byte	0
 761 00e1 15       		.byte	21
 762 00e2 03       		.byte	3
 763 00e3 16       		.byte	22
 764 00e4 75       		.byte	117
 765 00e5 15       		.byte	21
 766 00e6 04       		.byte	4
 767 00e7 16       		.byte	22
ARM GAS  C:\Users\brian\AppData\Local\Temp\ccbjYGG2.s 			page 25


 768 00e8 0A       		.byte	10
 769 00e9 15       		.byte	21
 770 00ea 0B       		.byte	11
 771 00eb 16       		.byte	22
 772 00ec 07       		.byte	7
 773 00ed 15       		.byte	21
 774 00ee 2C       		.byte	44
 775 00ef 16       		.byte	22
 776 00f0 A8       		.byte	-88
 777 00f1 15       		.byte	21
 778 00f2 3A       		.byte	58
 779 00f3 16       		.byte	22
 780 00f4 16       		.byte	22
 781 00f5 15       		.byte	21
 782 00f6 3B       		.byte	59
 783 00f7 16       		.byte	22
 784 00f8 08       		.byte	8
 785 00f9 15       		.byte	21
 786 00fa 3C       		.byte	60
 787 00fb 16       		.byte	22
 788 00fc 33       		.byte	51
 789 00fd 15       		.byte	21
 790 00fe 11       		.byte	17
 791 00ff 16       		.byte	22
 792 0100 07       		.byte	7
 793 0101 15       		.byte	21
 794 0102 44       		.byte	68
 795 0103 16       		.byte	22
 796 0104 00       		.byte	0
 797 0105 16       		.byte	22
 798 0106 1D       		.byte	29
 799 0107 15       		.byte	21
 800 0108 45       		.byte	69
 801 0109 16       		.byte	22
 802 010a 00       		.byte	0
 803 010b 16       		.byte	22
 804 010c 00       		.byte	0
 805 010d 16       		.byte	22
 806 010e 27       		.byte	39
 807 010f 16       		.byte	22
 808 0110 01       		.byte	1
 809 0111 19       		.byte	25
 810 0112 FF       		.byte	-1
 811 0113 00       		.space	1
 812              		.type	u8x8_d_il3820_v2_to_display_seq, %object
 813              		.size	u8x8_d_il3820_v2_to_display_seq, 83
 814              	u8x8_d_il3820_v2_to_display_seq:
 815 0114 18       		.byte	24
 816 0115 15       		.byte	21
 817 0116 32       		.byte	50
 818 0117 16       		.byte	22
 819 0118 AA       		.byte	-86
 820 0119 16       		.byte	22
 821 011a 09       		.byte	9
 822 011b 16       		.byte	22
 823 011c 09       		.byte	9
 824 011d 16       		.byte	22
ARM GAS  C:\Users\brian\AppData\Local\Temp\ccbjYGG2.s 			page 26


 825 011e 19       		.byte	25
 826 011f 16       		.byte	22
 827 0120 19       		.byte	25
 828 0121 16       		.byte	22
 829 0122 11       		.byte	17
 830 0123 16       		.byte	22
 831 0124 11       		.byte	17
 832 0125 16       		.byte	22
 833 0126 11       		.byte	17
 834 0127 16       		.byte	22
 835 0128 11       		.byte	17
 836 0129 16       		.byte	22
 837 012a 00       		.byte	0
 838 012b 16       		.byte	22
 839 012c 00       		.byte	0
 840 012d 16       		.byte	22
 841 012e 00       		.byte	0
 842 012f 16       		.byte	22
 843 0130 00       		.byte	0
 844 0131 16       		.byte	22
 845 0132 00       		.byte	0
 846 0133 16       		.byte	22
 847 0134 00       		.byte	0
 848 0135 16       		.byte	22
 849 0136 00       		.byte	0
 850 0137 16       		.byte	22
 851 0138 00       		.byte	0
 852 0139 16       		.byte	22
 853 013a 00       		.byte	0
 854 013b 16       		.byte	22
 855 013c 00       		.byte	0
 856 013d 16       		.byte	22
 857 013e 00       		.byte	0
 858 013f 16       		.byte	22
 859 0140 75       		.byte	117
 860 0141 16       		.byte	22
 861 0142 77       		.byte	119
 862 0143 16       		.byte	22
 863 0144 77       		.byte	119
 864 0145 16       		.byte	22
 865 0146 77       		.byte	119
 866 0147 16       		.byte	22
 867 0148 07       		.byte	7
 868 0149 16       		.byte	22
 869 014a 00       		.byte	0
 870 014b 16       		.byte	22
 871 014c 00       		.byte	0
 872 014d 16       		.byte	22
 873 014e 00       		.byte	0
 874 014f 16       		.byte	22
 875 0150 00       		.byte	0
 876 0151 16       		.byte	22
 877 0152 00       		.byte	0
 878 0153 15       		.byte	21
 879 0154 22       		.byte	34
 880 0155 16       		.byte	22
 881 0156 04       		.byte	4
ARM GAS  C:\Users\brian\AppData\Local\Temp\ccbjYGG2.s 			page 27


 882 0157 15       		.byte	21
 883 0158 20       		.byte	32
 884 0159 FE       		.byte	-2
 885 015a FA       		.byte	-6
 886 015b FE       		.byte	-2
 887 015c FA       		.byte	-6
 888 015d FE       		.byte	-2
 889 015e FA       		.byte	-6
 890 015f FE       		.byte	-2
 891 0160 FA       		.byte	-6
 892 0161 FE       		.byte	-2
 893 0162 FA       		.byte	-6
 894 0163 FE       		.byte	-2
 895 0164 96       		.byte	-106
 896 0165 19       		.byte	25
 897 0166 FF       		.byte	-1
 898              		.bss
 899              		.align	2
 900              		.set	.LANCHOR0,. + 0
 901              		.type	buf.5686, %object
 902              		.size	buf.5686, 8
 903              	buf.5686:
 904 0000 00000000 		.space	8
 904      00000000 
 905              		.text
 906              	.Letext0:
 907              		.file 2 "c:\\program files (x86)\\cypress\\psoc creator\\4.4\\psoc creator\\import\\gnu\\arm\\5.4.
 908              		.file 3 "c:\\program files (x86)\\cypress\\psoc creator\\4.4\\psoc creator\\import\\gnu\\arm\\5.4.
 909              		.file 4 "..\\u8g2\\csrc\\u8x8.h"