ARM GAS  C:\Users\brian\AppData\Local\Temp\ccvX8oZO.s 			page 1


   1              		.syntax unified
   2              		.cpu cortex-m3
   3              		.fpu softvfp
   4              		.eabi_attribute 20, 1
   5              		.eabi_attribute 21, 1
   6              		.eabi_attribute 23, 3
   7              		.eabi_attribute 24, 1
   8              		.eabi_attribute 25, 1
   9              		.eabi_attribute 26, 1
  10              		.eabi_attribute 30, 1
  11              		.eabi_attribute 34, 1
  12              		.eabi_attribute 18, 4
  13              		.thumb
  14              		.syntax unified
  15              		.file	"u8x8_d_gu800.c"
  16              		.text
  17              	.Ltext0:
  18              		.cfi_sections	.debug_frame
  19              		.section	.text.u8x8_d_gu800_common,"ax",%progbits
  20              		.align	2
  21              		.global	u8x8_d_gu800_common
  22              		.thumb
  23              		.thumb_func
  24              		.type	u8x8_d_gu800_common, %function
  25              	u8x8_d_gu800_common:
  26              	.LFB0:
  27              		.file 1 "..\\u8g2\\csrc\\u8x8_d_gu800.c"
   1:..\u8g2\csrc/u8x8_d_gu800.c **** /*
   2:..\u8g2\csrc/u8x8_d_gu800.c **** 
   3:..\u8g2\csrc/u8x8_d_gu800.c ****   u8x8_d_gu800.c
   4:..\u8g2\csrc/u8x8_d_gu800.c ****   
   5:..\u8g2\csrc/u8x8_d_gu800.c ****   Support for GU800 series of VFD displays
   6:..\u8g2\csrc/u8x8_d_gu800.c ****   https://www.noritake-elec.com/products/vfd-display-module/dot-matrix-graphic-display/gu-800-serie
   7:..\u8g2\csrc/u8x8_d_gu800.c ****   
   8:..\u8g2\csrc/u8x8_d_gu800.c ****   Universal 8bit Graphics Library (https://github.com/olikraus/u8g2/)
   9:..\u8g2\csrc/u8x8_d_gu800.c **** 
  10:..\u8g2\csrc/u8x8_d_gu800.c ****   Copyright (c) 2021, olikraus@gmail.com
  11:..\u8g2\csrc/u8x8_d_gu800.c ****   All rights reserved.
  12:..\u8g2\csrc/u8x8_d_gu800.c **** 
  13:..\u8g2\csrc/u8x8_d_gu800.c ****   Redistribution and use in source and binary forms, with or without modification, 
  14:..\u8g2\csrc/u8x8_d_gu800.c ****   are permitted provided that the following conditions are met:
  15:..\u8g2\csrc/u8x8_d_gu800.c **** 
  16:..\u8g2\csrc/u8x8_d_gu800.c ****   * Redistributions of source code must retain the above copyright notice, this list 
  17:..\u8g2\csrc/u8x8_d_gu800.c ****     of conditions and the following disclaimer.
  18:..\u8g2\csrc/u8x8_d_gu800.c ****     
  19:..\u8g2\csrc/u8x8_d_gu800.c ****   * Redistributions in binary form must reproduce the above copyright notice, this 
  20:..\u8g2\csrc/u8x8_d_gu800.c ****     list of conditions and the following disclaimer in the documentation and/or other 
  21:..\u8g2\csrc/u8x8_d_gu800.c ****     materials provided with the distribution.
  22:..\u8g2\csrc/u8x8_d_gu800.c **** 
  23:..\u8g2\csrc/u8x8_d_gu800.c ****   THIS SOFTWARE IS PROVIDED BY THE COPYRIGHT HOLDERS AND 
  24:..\u8g2\csrc/u8x8_d_gu800.c ****   CONTRIBUTORS "AS IS" AND ANY EXPRESS OR IMPLIED WARRANTIES, 
  25:..\u8g2\csrc/u8x8_d_gu800.c ****   INCLUDING, BUT NOT LIMITED TO, THE IMPLIED WARRANTIES OF 
  26:..\u8g2\csrc/u8x8_d_gu800.c ****   MERCHANTABILITY AND FITNESS FOR A PARTICULAR PURPOSE ARE 
  27:..\u8g2\csrc/u8x8_d_gu800.c ****   DISCLAIMED. IN NO EVENT SHALL THE COPYRIGHT HOLDER OR 
  28:..\u8g2\csrc/u8x8_d_gu800.c ****   CONTRIBUTORS BE LIABLE FOR ANY DIRECT, INDIRECT, INCIDENTAL, 
  29:..\u8g2\csrc/u8x8_d_gu800.c ****   SPECIAL, EXEMPLARY, OR CONSEQUENTIAL DAMAGES (INCLUDING, BUT 
  30:..\u8g2\csrc/u8x8_d_gu800.c ****   NOT LIMITED TO, PROCUREMENT OF SUBSTITUTE GOODS OR SERVICES; 
ARM GAS  C:\Users\brian\AppData\Local\Temp\ccvX8oZO.s 			page 2


  31:..\u8g2\csrc/u8x8_d_gu800.c ****   LOSS OF USE, DATA, OR PROFITS; OR BUSINESS INTERRUPTION) HOWEVER 
  32:..\u8g2\csrc/u8x8_d_gu800.c ****   CAUSED AND ON ANY THEORY OF LIABILITY, WHETHER IN CONTRACT, 
  33:..\u8g2\csrc/u8x8_d_gu800.c ****   STRICT LIABILITY, OR TORT (INCLUDING NEGLIGENCE OR OTHERWISE) 
  34:..\u8g2\csrc/u8x8_d_gu800.c ****   ARISING IN ANY WAY OUT OF THE USE OF THIS SOFTWARE, EVEN IF 
  35:..\u8g2\csrc/u8x8_d_gu800.c ****   ADVISED OF THE POSSIBILITY OF SUCH DAMAGE.  
  36:..\u8g2\csrc/u8x8_d_gu800.c **** 
  37:..\u8g2\csrc/u8x8_d_gu800.c ****   
  38:..\u8g2\csrc/u8x8_d_gu800.c ****  
  39:..\u8g2\csrc/u8x8_d_gu800.c ****   u8x8_gu800_cad_110
  40:..\u8g2\csrc/u8x8_d_gu800.c ****   
  41:..\u8g2\csrc/u8x8_d_gu800.c ****   WARNING: DO NOT USE THIS FILE AS TEMPLATE:
  42:..\u8g2\csrc/u8x8_d_gu800.c ****   
  43:..\u8g2\csrc/u8x8_d_gu800.c ****   This code requires a special cad callback which includes the start
  44:..\u8g2\csrc/u8x8_d_gu800.c ****   and end transfer code. As a consequence this code does not include any
  45:..\u8g2\csrc/u8x8_d_gu800.c ****   start / end transfer calls.
  46:..\u8g2\csrc/u8x8_d_gu800.c ****   
  47:..\u8g2\csrc/u8x8_d_gu800.c **** */
  48:..\u8g2\csrc/u8x8_d_gu800.c **** #include "u8x8.h"
  49:..\u8g2\csrc/u8x8_d_gu800.c **** 
  50:..\u8g2\csrc/u8x8_d_gu800.c **** 
  51:..\u8g2\csrc/u8x8_d_gu800.c **** 
  52:..\u8g2\csrc/u8x8_d_gu800.c **** 
  53:..\u8g2\csrc/u8x8_d_gu800.c **** static const uint8_t u8x8_d_gu800_128x64_powersave0_seq[] = {
  54:..\u8g2\csrc/u8x8_d_gu800.c ****   U8X8_CA(0x024, 0x040),		        /* Byte 1: Layer 0010xx00, Byte 2: 0x40 (graphics on, normal mode
  55:..\u8g2\csrc/u8x8_d_gu800.c ****   U8X8_END()             			/* end of sequence */
  56:..\u8g2\csrc/u8x8_d_gu800.c **** };
  57:..\u8g2\csrc/u8x8_d_gu800.c **** 
  58:..\u8g2\csrc/u8x8_d_gu800.c **** static const uint8_t u8x8_d_gu800_128x64_powersave1_seq[] = {
  59:..\u8g2\csrc/u8x8_d_gu800.c ****   U8X8_CA(0x020, 0x040),		        /* Byte 1: Layer 0010xx00, Byte 2: 0x40 (graphics on, normal mode
  60:..\u8g2\csrc/u8x8_d_gu800.c ****   U8X8_END()             			/* end of sequence */
  61:..\u8g2\csrc/u8x8_d_gu800.c **** };
  62:..\u8g2\csrc/u8x8_d_gu800.c **** 
  63:..\u8g2\csrc/u8x8_d_gu800.c **** /* hardware flip is not supported by GU800 */
  64:..\u8g2\csrc/u8x8_d_gu800.c **** #ifdef NOT_SUPPORTED
  65:..\u8g2\csrc/u8x8_d_gu800.c **** static const uint8_t u8x8_d_gu800_128x64_flip0_seq[] = {
  66:..\u8g2\csrc/u8x8_d_gu800.c ****   U8X8_START_TRANSFER(),             	/* enable chip, delay is part of the transfer start */
  67:..\u8g2\csrc/u8x8_d_gu800.c ****   U8X8_END_TRANSFER(),             	/* disable chip */
  68:..\u8g2\csrc/u8x8_d_gu800.c ****   U8X8_END()             			/* end of sequence */
  69:..\u8g2\csrc/u8x8_d_gu800.c **** };
  70:..\u8g2\csrc/u8x8_d_gu800.c **** 
  71:..\u8g2\csrc/u8x8_d_gu800.c **** static const uint8_t u8x8_d_gu800_128x64_flip1_seq[] = {
  72:..\u8g2\csrc/u8x8_d_gu800.c ****   U8X8_START_TRANSFER(),             	/* enable chip, delay is part of the transfer start */
  73:..\u8g2\csrc/u8x8_d_gu800.c ****   U8X8_END_TRANSFER(),             	/* disable chip */
  74:..\u8g2\csrc/u8x8_d_gu800.c ****   U8X8_END()             			/* end of sequence */
  75:..\u8g2\csrc/u8x8_d_gu800.c **** };
  76:..\u8g2\csrc/u8x8_d_gu800.c **** #endif
  77:..\u8g2\csrc/u8x8_d_gu800.c **** 
  78:..\u8g2\csrc/u8x8_d_gu800.c **** uint8_t u8x8_d_gu800_common(u8x8_t *u8x8, uint8_t msg, uint8_t arg_int, void *arg_ptr)
  79:..\u8g2\csrc/u8x8_d_gu800.c **** {
  28              		.loc 1 79 0
  29              		.cfi_startproc
  30              		@ args = 0, pretend = 0, frame = 0
  31              		@ frame_needed = 0, uses_anonymous_args = 0
  32              	.LVL0:
  33 0000 2DE9F041 		push	{r4, r5, r6, r7, r8, lr}
  34              		.cfi_def_cfa_offset 24
  35              		.cfi_offset 4, -24
ARM GAS  C:\Users\brian\AppData\Local\Temp\ccvX8oZO.s 			page 3


  36              		.cfi_offset 5, -20
  37              		.cfi_offset 6, -16
  38              		.cfi_offset 7, -12
  39              		.cfi_offset 8, -8
  40              		.cfi_offset 14, -4
  41 0004 8046     		mov	r8, r0
  42 0006 1546     		mov	r5, r2
  80:..\u8g2\csrc/u8x8_d_gu800.c ****   uint8_t x, c;
  81:..\u8g2\csrc/u8x8_d_gu800.c ****   uint8_t *ptr;
  82:..\u8g2\csrc/u8x8_d_gu800.c ****   switch(msg)
  43              		.loc 1 82 0
  44 0008 0E29     		cmp	r1, #14
  45 000a 11D0     		beq	.L3
  46 000c 1F46     		mov	r7, r3
  47 000e 0F29     		cmp	r1, #15
  48 0010 16D0     		beq	.L4
  49 0012 0B29     		cmp	r1, #11
  50 0014 44D1     		bne	.L10
  83:..\u8g2\csrc/u8x8_d_gu800.c ****   {
  84:..\u8g2\csrc/u8x8_d_gu800.c ****     case U8X8_MSG_DISPLAY_SET_POWER_SAVE:
  85:..\u8g2\csrc/u8x8_d_gu800.c ****       if ( arg_int == 0 )
  51              		.loc 1 85 0
  52 0016 2AB9     		cbnz	r2, .L6
  86:..\u8g2\csrc/u8x8_d_gu800.c **** 	u8x8_cad_SendSequence(u8x8, u8x8_d_gu800_128x64_powersave0_seq);
  53              		.loc 1 86 0
  54 0018 2349     		ldr	r1, .L12
  55              	.LVL1:
  56 001a FFF7FEFF 		bl	u8x8_cad_SendSequence
  57              	.LVL2:
  87:..\u8g2\csrc/u8x8_d_gu800.c ****       else
  88:..\u8g2\csrc/u8x8_d_gu800.c **** 	u8x8_cad_SendSequence(u8x8, u8x8_d_gu800_128x64_powersave1_seq);
  89:..\u8g2\csrc/u8x8_d_gu800.c ****       break;
  90:..\u8g2\csrc/u8x8_d_gu800.c **** #ifdef NOT_SUPPORTED
  91:..\u8g2\csrc/u8x8_d_gu800.c ****     case U8X8_MSG_DISPLAY_SET_FLIP_MODE:
  92:..\u8g2\csrc/u8x8_d_gu800.c ****       if ( arg_int == 0 )
  93:..\u8g2\csrc/u8x8_d_gu800.c ****       {
  94:..\u8g2\csrc/u8x8_d_gu800.c **** 	u8x8_cad_SendSequence(u8x8, u8x8_d_gu800_128x64_flip0_seq);
  95:..\u8g2\csrc/u8x8_d_gu800.c **** 	u8x8->x_offset = u8x8->display_info->default_x_offset;
  96:..\u8g2\csrc/u8x8_d_gu800.c ****       }
  97:..\u8g2\csrc/u8x8_d_gu800.c ****       else
  98:..\u8g2\csrc/u8x8_d_gu800.c ****       {
  99:..\u8g2\csrc/u8x8_d_gu800.c **** 	u8x8_cad_SendSequence(u8x8, u8x8_d_gu800_128x64_flip1_seq);
 100:..\u8g2\csrc/u8x8_d_gu800.c **** 	u8x8->x_offset = u8x8->display_info->flipmode_x_offset;
 101:..\u8g2\csrc/u8x8_d_gu800.c ****       }	
 102:..\u8g2\csrc/u8x8_d_gu800.c ****       break;
 103:..\u8g2\csrc/u8x8_d_gu800.c **** #endif
 104:..\u8g2\csrc/u8x8_d_gu800.c **** #ifdef U8X8_WITH_SET_CONTRAST
 105:..\u8g2\csrc/u8x8_d_gu800.c ****     case U8X8_MSG_DISPLAY_SET_CONTRAST:
 106:..\u8g2\csrc/u8x8_d_gu800.c ****       u8x8_cad_SendCmd(u8x8, 0x40 | (arg_int >> 4) );	/* GU800 has range from 0..15 */
 107:..\u8g2\csrc/u8x8_d_gu800.c ****       break;
 108:..\u8g2\csrc/u8x8_d_gu800.c **** #endif
 109:..\u8g2\csrc/u8x8_d_gu800.c ****     case U8X8_MSG_DISPLAY_DRAW_TILE:
 110:..\u8g2\csrc/u8x8_d_gu800.c ****     
 111:..\u8g2\csrc/u8x8_d_gu800.c ****       x = ((u8x8_tile_t *)arg_ptr)->x_pos;
 112:..\u8g2\csrc/u8x8_d_gu800.c ****       x *= 8;
 113:..\u8g2\csrc/u8x8_d_gu800.c ****       x += u8x8->x_offset;
 114:..\u8g2\csrc/u8x8_d_gu800.c ****       u8x8_cad_SendCmd(u8x8, 0x064 );
ARM GAS  C:\Users\brian\AppData\Local\Temp\ccvX8oZO.s 			page 4


 115:..\u8g2\csrc/u8x8_d_gu800.c ****       u8x8_cad_SendArg(u8x8, x );
 116:..\u8g2\csrc/u8x8_d_gu800.c ****       u8x8_cad_SendCmd(u8x8, 0x060 );
 117:..\u8g2\csrc/u8x8_d_gu800.c ****       u8x8_cad_SendArg(u8x8, (((u8x8_tile_t *)arg_ptr)->y_pos) );
 118:..\u8g2\csrc/u8x8_d_gu800.c ****     
 119:..\u8g2\csrc/u8x8_d_gu800.c ****       do
 120:..\u8g2\csrc/u8x8_d_gu800.c ****       {
 121:..\u8g2\csrc/u8x8_d_gu800.c ****         c = ((u8x8_tile_t *)arg_ptr)->cnt;
 122:..\u8g2\csrc/u8x8_d_gu800.c ****         ptr = ((u8x8_tile_t *)arg_ptr)->tile_ptr;
 123:..\u8g2\csrc/u8x8_d_gu800.c ****         /* SendData can not handle more than 255 bytes, treat c > 31 correctly  */
 124:..\u8g2\csrc/u8x8_d_gu800.c ****         if ( c > 31 )
 125:..\u8g2\csrc/u8x8_d_gu800.c ****         {
 126:..\u8g2\csrc/u8x8_d_gu800.c ****           u8x8_cad_SendData(u8x8, 248, ptr); 	/* 31*8=248 */
 127:..\u8g2\csrc/u8x8_d_gu800.c ****           ptr+=248;
 128:..\u8g2\csrc/u8x8_d_gu800.c ****           c -= 31;
 129:..\u8g2\csrc/u8x8_d_gu800.c ****         }
 130:..\u8g2\csrc/u8x8_d_gu800.c ****         u8x8_cad_SendData(u8x8, c*8, ptr); 	
 131:..\u8g2\csrc/u8x8_d_gu800.c **** 	arg_int--;
 132:..\u8g2\csrc/u8x8_d_gu800.c ****       } while( arg_int > 0 );
 133:..\u8g2\csrc/u8x8_d_gu800.c ****       break;
 134:..\u8g2\csrc/u8x8_d_gu800.c ****     default:
 135:..\u8g2\csrc/u8x8_d_gu800.c ****       return 0;
 136:..\u8g2\csrc/u8x8_d_gu800.c ****   }
 137:..\u8g2\csrc/u8x8_d_gu800.c ****   return 1;
  58              		.loc 1 137 0
  59 001e 0120     		movs	r0, #1
  60 0020 BDE8F081 		pop	{r4, r5, r6, r7, r8, pc}
  61              	.LVL3:
  62              	.L6:
  88:..\u8g2\csrc/u8x8_d_gu800.c ****       break;
  63              		.loc 1 88 0
  64 0024 2149     		ldr	r1, .L12+4
  65              	.LVL4:
  66 0026 FFF7FEFF 		bl	u8x8_cad_SendSequence
  67              	.LVL5:
  68              		.loc 1 137 0
  69 002a 0120     		movs	r0, #1
  70 002c BDE8F081 		pop	{r4, r5, r6, r7, r8, pc}
  71              	.LVL6:
  72              	.L3:
 106:..\u8g2\csrc/u8x8_d_gu800.c ****       break;
  73              		.loc 1 106 0
  74 0030 1109     		lsrs	r1, r2, #4
  75              	.LVL7:
  76 0032 41F04001 		orr	r1, r1, #64
  77 0036 FFF7FEFF 		bl	u8x8_cad_SendCmd
  78              	.LVL8:
  79              		.loc 1 137 0
  80 003a 0120     		movs	r0, #1
 107:..\u8g2\csrc/u8x8_d_gu800.c **** #endif
  81              		.loc 1 107 0
  82 003c BDE8F081 		pop	{r4, r5, r6, r7, r8, pc}
  83              	.LVL9:
  84              	.L4:
 111:..\u8g2\csrc/u8x8_d_gu800.c ****       x *= 8;
  85              		.loc 1 111 0
  86 0040 5C79     		ldrb	r4, [r3, #5]	@ zero_extendqisi2
  87              	.LVL10:
ARM GAS  C:\Users\brian\AppData\Local\Temp\ccvX8oZO.s 			page 5


 112:..\u8g2\csrc/u8x8_d_gu800.c ****       x += u8x8->x_offset;
  88              		.loc 1 112 0
  89 0042 E400     		lsls	r4, r4, #3
  90              	.LVL11:
  91 0044 E4B2     		uxtb	r4, r4
  92              	.LVL12:
 113:..\u8g2\csrc/u8x8_d_gu800.c ****       u8x8_cad_SendCmd(u8x8, 0x064 );
  93              		.loc 1 113 0
  94 0046 90F82230 		ldrb	r3, [r0, #34]	@ zero_extendqisi2
  95              	.LVL13:
  96 004a 1C44     		add	r4, r4, r3
  97              	.LVL14:
  98 004c E4B2     		uxtb	r4, r4
  99              	.LVL15:
 114:..\u8g2\csrc/u8x8_d_gu800.c ****       u8x8_cad_SendArg(u8x8, x );
 100              		.loc 1 114 0
 101 004e 6421     		movs	r1, #100
 102              	.LVL16:
 103 0050 FFF7FEFF 		bl	u8x8_cad_SendCmd
 104              	.LVL17:
 115:..\u8g2\csrc/u8x8_d_gu800.c ****       u8x8_cad_SendCmd(u8x8, 0x060 );
 105              		.loc 1 115 0
 106 0054 2146     		mov	r1, r4
 107 0056 4046     		mov	r0, r8
 108 0058 FFF7FEFF 		bl	u8x8_cad_SendArg
 109              	.LVL18:
 116:..\u8g2\csrc/u8x8_d_gu800.c ****       u8x8_cad_SendArg(u8x8, (((u8x8_tile_t *)arg_ptr)->y_pos) );
 110              		.loc 1 116 0
 111 005c 6021     		movs	r1, #96
 112 005e 4046     		mov	r0, r8
 113 0060 FFF7FEFF 		bl	u8x8_cad_SendCmd
 114              	.LVL19:
 117:..\u8g2\csrc/u8x8_d_gu800.c ****     
 115              		.loc 1 117 0
 116 0064 B979     		ldrb	r1, [r7, #6]	@ zero_extendqisi2
 117 0066 4046     		mov	r0, r8
 118 0068 FFF7FEFF 		bl	u8x8_cad_SendArg
 119              	.LVL20:
 120              	.L8:
 121:..\u8g2\csrc/u8x8_d_gu800.c ****         ptr = ((u8x8_tile_t *)arg_ptr)->tile_ptr;
 121              		.loc 1 121 0
 122 006c 3C79     		ldrb	r4, [r7, #4]	@ zero_extendqisi2
 123              	.LVL21:
 122:..\u8g2\csrc/u8x8_d_gu800.c ****         /* SendData can not handle more than 255 bytes, treat c > 31 correctly  */
 124              		.loc 1 122 0
 125 006e 3E68     		ldr	r6, [r7]
 126              	.LVL22:
 124:..\u8g2\csrc/u8x8_d_gu800.c ****         {
 127              		.loc 1 124 0
 128 0070 1F2C     		cmp	r4, #31
 129 0072 07D9     		bls	.L7
 126:..\u8g2\csrc/u8x8_d_gu800.c ****           ptr+=248;
 130              		.loc 1 126 0
 131 0074 3246     		mov	r2, r6
 132 0076 F821     		movs	r1, #248
 133 0078 4046     		mov	r0, r8
 134 007a FFF7FEFF 		bl	u8x8_cad_SendData
ARM GAS  C:\Users\brian\AppData\Local\Temp\ccvX8oZO.s 			page 6


 135              	.LVL23:
 127:..\u8g2\csrc/u8x8_d_gu800.c ****           c -= 31;
 136              		.loc 1 127 0
 137 007e F836     		adds	r6, r6, #248
 138              	.LVL24:
 128:..\u8g2\csrc/u8x8_d_gu800.c ****         }
 139              		.loc 1 128 0
 140 0080 1F3C     		subs	r4, r4, #31
 141              	.LVL25:
 142 0082 E4B2     		uxtb	r4, r4
 143              	.LVL26:
 144              	.L7:
 130:..\u8g2\csrc/u8x8_d_gu800.c **** 	arg_int--;
 145              		.loc 1 130 0
 146 0084 E100     		lsls	r1, r4, #3
 147 0086 3246     		mov	r2, r6
 148 0088 01F0F801 		and	r1, r1, #248
 149 008c 4046     		mov	r0, r8
 150 008e FFF7FEFF 		bl	u8x8_cad_SendData
 151              	.LVL27:
 131:..\u8g2\csrc/u8x8_d_gu800.c ****       } while( arg_int > 0 );
 152              		.loc 1 131 0
 153 0092 6A1E     		subs	r2, r5, #1
 154              	.LVL28:
 132:..\u8g2\csrc/u8x8_d_gu800.c ****       break;
 155              		.loc 1 132 0
 156 0094 12F0FF05 		ands	r5, r2, #255
 157 0098 E8D1     		bne	.L8
 158              		.loc 1 137 0
 159 009a 0120     		movs	r0, #1
 160 009c BDE8F081 		pop	{r4, r5, r6, r7, r8, pc}
 161              	.LVL29:
 162              	.L10:
 135:..\u8g2\csrc/u8x8_d_gu800.c ****   }
 163              		.loc 1 135 0
 164 00a0 0020     		movs	r0, #0
 165              	.LVL30:
 138:..\u8g2\csrc/u8x8_d_gu800.c **** }
 166              		.loc 1 138 0
 167 00a2 BDE8F081 		pop	{r4, r5, r6, r7, r8, pc}
 168              	.LVL31:
 169              	.L13:
 170 00a6 00BF     		.align	2
 171              	.L12:
 172 00a8 00000000 		.word	.LANCHOR0
 173 00ac 08000000 		.word	.LANCHOR0+8
 174              		.cfi_endproc
 175              	.LFE0:
 176              		.size	u8x8_d_gu800_common, .-u8x8_d_gu800_common
 177              		.section	.text.u8x8_d_gu800_128x64,"ax",%progbits
 178              		.align	2
 179              		.global	u8x8_d_gu800_128x64
 180              		.thumb
 181              		.thumb_func
 182              		.type	u8x8_d_gu800_128x64, %function
 183              	u8x8_d_gu800_128x64:
 184              	.LFB1:
ARM GAS  C:\Users\brian\AppData\Local\Temp\ccvX8oZO.s 			page 7


 139:..\u8g2\csrc/u8x8_d_gu800.c **** 
 140:..\u8g2\csrc/u8x8_d_gu800.c **** static const uint8_t u8x8_d_gu800_128x64_init_seq[] = {
 141:..\u8g2\csrc/u8x8_d_gu800.c ****     
 142:..\u8g2\csrc/u8x8_d_gu800.c ****   U8X8_START_TRANSFER(),             	/* enable chip, delay is part of the transfer start */
 143:..\u8g2\csrc/u8x8_d_gu800.c ****   
 144:..\u8g2\csrc/u8x8_d_gu800.c ****   U8X8_C(0x05f),                                /* clear all RAM, clear address counters */
 145:..\u8g2\csrc/u8x8_d_gu800.c ****   U8X8_DLY(1),                                  /* delay for 1 ms (see datasheet) */
 146:..\u8g2\csrc/u8x8_d_gu800.c ****   
 147:..\u8g2\csrc/u8x8_d_gu800.c ****   /* configure all area as graphics RAM */
 148:..\u8g2\csrc/u8x8_d_gu800.c ****   U8X8_CA(0x62,0), U8X8_D1(0xff),
 149:..\u8g2\csrc/u8x8_d_gu800.c ****   U8X8_CA(0x62,1), U8X8_D1(0xff),
 150:..\u8g2\csrc/u8x8_d_gu800.c ****   U8X8_CA(0x62,2), U8X8_D1(0xff),
 151:..\u8g2\csrc/u8x8_d_gu800.c ****   U8X8_CA(0x62,3), U8X8_D1(0xff),
 152:..\u8g2\csrc/u8x8_d_gu800.c ****   U8X8_CA(0x62,4), U8X8_D1(0xff),
 153:..\u8g2\csrc/u8x8_d_gu800.c ****   U8X8_CA(0x62,5), U8X8_D1(0xff),
 154:..\u8g2\csrc/u8x8_d_gu800.c ****   U8X8_CA(0x62,6), U8X8_D1(0xff),
 155:..\u8g2\csrc/u8x8_d_gu800.c ****   U8X8_CA(0x62,7), U8X8_D1(0xff),
 156:..\u8g2\csrc/u8x8_d_gu800.c ****   
 157:..\u8g2\csrc/u8x8_d_gu800.c ****   U8X8_CA(0x70, 0),                             /* horizontal shift */
 158:..\u8g2\csrc/u8x8_d_gu800.c ****   U8X8_C(0xb0),                                 /* vertical shift */  
 159:..\u8g2\csrc/u8x8_d_gu800.c ****   U8X8_C(0x4f),                                 /* max brightness */
 160:..\u8g2\csrc/u8x8_d_gu800.c ****   U8X8_C(0x84),                                 /* x increment */
 161:..\u8g2\csrc/u8x8_d_gu800.c ****   
 162:..\u8g2\csrc/u8x8_d_gu800.c ****   // U8X8_CA(0x024, 0x040)              /* display on */
 163:..\u8g2\csrc/u8x8_d_gu800.c ****   
 164:..\u8g2\csrc/u8x8_d_gu800.c ****   U8X8_END_TRANSFER(),             	/* disable chip */
 165:..\u8g2\csrc/u8x8_d_gu800.c ****   U8X8_END()             			/* end of sequence */
 166:..\u8g2\csrc/u8x8_d_gu800.c **** };
 167:..\u8g2\csrc/u8x8_d_gu800.c **** 
 168:..\u8g2\csrc/u8x8_d_gu800.c **** 
 169:..\u8g2\csrc/u8x8_d_gu800.c **** static const u8x8_display_info_t u8x8_d_gu800_128x64_display_info =
 170:..\u8g2\csrc/u8x8_d_gu800.c **** {
 171:..\u8g2\csrc/u8x8_d_gu800.c ****   /* chip_enable_level = */ 0,      /* GU800: CSS signal */
 172:..\u8g2\csrc/u8x8_d_gu800.c ****   /* chip_disable_level = */ 1,     /* GU800: CSS signal */
 173:..\u8g2\csrc/u8x8_d_gu800.c ****   
 174:..\u8g2\csrc/u8x8_d_gu800.c ****   /* post_chip_enable_wait_ns = */ 40,
 175:..\u8g2\csrc/u8x8_d_gu800.c ****   /* pre_chip_disable_wait_ns = */ 150,
 176:..\u8g2\csrc/u8x8_d_gu800.c ****   /* reset_pulse_width_ms = */ 2,   /* GU800: Unspecified in datasheet */
 177:..\u8g2\csrc/u8x8_d_gu800.c ****   /* post_reset_wait_ms = */ 2,     /* GU800: Min 1.5ms per datasheet */
 178:..\u8g2\csrc/u8x8_d_gu800.c ****   /* sda_setup_time_ns = */ 40,     /* GU800: 40ns according to the timing diagram */
 179:..\u8g2\csrc/u8x8_d_gu800.c ****   /* sck_pulse_width_ns = */ 80,    /* GU800: Min 80ns per datasheet */
 180:..\u8g2\csrc/u8x8_d_gu800.c ****   /* sck_clock_hz = */ 4000000UL,
 181:..\u8g2\csrc/u8x8_d_gu800.c ****   /* spi_mode = */ 2,               /* active high, rising edge */
 182:..\u8g2\csrc/u8x8_d_gu800.c ****   /* i2c_bus_clock_100kHz = */ 4,   /* GU800: Not used */
 183:..\u8g2\csrc/u8x8_d_gu800.c ****   /* data_setup_time_ns = */ 40,    /* GU800: Min 40ns per datasheet */
 184:..\u8g2\csrc/u8x8_d_gu800.c ****   /* write_pulse_width_ns = */ 150, /* GU800: Min 150ns per datasheet */
 185:..\u8g2\csrc/u8x8_d_gu800.c ****   /* tile_width = */ 16,            /* width of 16*8=128 pixel */
 186:..\u8g2\csrc/u8x8_d_gu800.c ****   /* tile_hight = */ 8,
 187:..\u8g2\csrc/u8x8_d_gu800.c ****   /* default_x_offset = */ 0,
 188:..\u8g2\csrc/u8x8_d_gu800.c ****   /* flipmode_x_offset = */ 0,
 189:..\u8g2\csrc/u8x8_d_gu800.c ****   /* pixel_width = */ 128,
 190:..\u8g2\csrc/u8x8_d_gu800.c ****   /* pixel_height = */ 64
 191:..\u8g2\csrc/u8x8_d_gu800.c **** };
 192:..\u8g2\csrc/u8x8_d_gu800.c **** 
 193:..\u8g2\csrc/u8x8_d_gu800.c **** 
 194:..\u8g2\csrc/u8x8_d_gu800.c **** uint8_t u8x8_d_gu800_128x64(u8x8_t *u8x8, uint8_t msg, uint8_t arg_int, void *arg_ptr)
 195:..\u8g2\csrc/u8x8_d_gu800.c **** {
ARM GAS  C:\Users\brian\AppData\Local\Temp\ccvX8oZO.s 			page 8


 185              		.loc 1 195 0
 186              		.cfi_startproc
 187              		@ args = 0, pretend = 0, frame = 0
 188              		@ frame_needed = 0, uses_anonymous_args = 0
 189              	.LVL32:
 190 0000 38B5     		push	{r3, r4, r5, lr}
 191              		.cfi_def_cfa_offset 16
 192              		.cfi_offset 3, -16
 193              		.cfi_offset 4, -12
 194              		.cfi_offset 5, -8
 195              		.cfi_offset 14, -4
 196 0002 0546     		mov	r5, r0
 197 0004 0C46     		mov	r4, r1
 196:..\u8g2\csrc/u8x8_d_gu800.c ****   
 197:..\u8g2\csrc/u8x8_d_gu800.c ****   if ( u8x8_d_gu800_common(u8x8, msg, arg_int, arg_ptr) )
 198              		.loc 1 197 0
 199 0006 FFF7FEFF 		bl	u8x8_d_gu800_common
 200              	.LVL33:
 201 000a A0B9     		cbnz	r0, .L18
 202 000c 0346     		mov	r3, r0
 198:..\u8g2\csrc/u8x8_d_gu800.c ****     return 1;
 199:..\u8g2\csrc/u8x8_d_gu800.c ****   
 200:..\u8g2\csrc/u8x8_d_gu800.c ****   switch(msg)
 203              		.loc 1 200 0
 204 000e 092C     		cmp	r4, #9
 205 0010 02D0     		beq	.L16
 206 0012 0A2C     		cmp	r4, #10
 207 0014 06D0     		beq	.L17
 208 0016 0FE0     		b	.L15
 209              	.L16:
 201:..\u8g2\csrc/u8x8_d_gu800.c ****   {
 202:..\u8g2\csrc/u8x8_d_gu800.c ****     case U8X8_MSG_DISPLAY_SETUP_MEMORY:
 203:..\u8g2\csrc/u8x8_d_gu800.c ****       u8x8_d_helper_display_setup_memory(u8x8, &u8x8_d_gu800_128x64_display_info);
 210              		.loc 1 203 0
 211 0018 0849     		ldr	r1, .L20
 212 001a 2846     		mov	r0, r5
 213 001c FFF7FEFF 		bl	u8x8_d_helper_display_setup_memory
 214              	.LVL34:
 204:..\u8g2\csrc/u8x8_d_gu800.c ****       break;
 205:..\u8g2\csrc/u8x8_d_gu800.c ****     case U8X8_MSG_DISPLAY_INIT:
 206:..\u8g2\csrc/u8x8_d_gu800.c ****       u8x8_d_helper_display_init(u8x8);
 207:..\u8g2\csrc/u8x8_d_gu800.c ****       u8x8_cad_SendSequence(u8x8, u8x8_d_gu800_128x64_init_seq);
 208:..\u8g2\csrc/u8x8_d_gu800.c ****       break;
 209:..\u8g2\csrc/u8x8_d_gu800.c ****     default:
 210:..\u8g2\csrc/u8x8_d_gu800.c ****       return 0;
 211:..\u8g2\csrc/u8x8_d_gu800.c ****   }
 212:..\u8g2\csrc/u8x8_d_gu800.c ****   return 1;
 215              		.loc 1 212 0
 216 0020 0123     		movs	r3, #1
 204:..\u8g2\csrc/u8x8_d_gu800.c ****       break;
 217              		.loc 1 204 0
 218 0022 09E0     		b	.L15
 219              	.L17:
 206:..\u8g2\csrc/u8x8_d_gu800.c ****       u8x8_cad_SendSequence(u8x8, u8x8_d_gu800_128x64_init_seq);
 220              		.loc 1 206 0
 221 0024 2846     		mov	r0, r5
 222 0026 FFF7FEFF 		bl	u8x8_d_helper_display_init
ARM GAS  C:\Users\brian\AppData\Local\Temp\ccvX8oZO.s 			page 9


 223              	.LVL35:
 207:..\u8g2\csrc/u8x8_d_gu800.c ****       break;
 224              		.loc 1 207 0
 225 002a 0549     		ldr	r1, .L20+4
 226 002c 2846     		mov	r0, r5
 227 002e FFF7FEFF 		bl	u8x8_cad_SendSequence
 228              	.LVL36:
 229              		.loc 1 212 0
 230 0032 0123     		movs	r3, #1
 208:..\u8g2\csrc/u8x8_d_gu800.c ****     default:
 231              		.loc 1 208 0
 232 0034 00E0     		b	.L15
 233              	.L18:
 198:..\u8g2\csrc/u8x8_d_gu800.c ****   
 234              		.loc 1 198 0
 235 0036 0123     		movs	r3, #1
 236              	.L15:
 213:..\u8g2\csrc/u8x8_d_gu800.c **** }
 237              		.loc 1 213 0
 238 0038 1846     		mov	r0, r3
 239 003a 38BD     		pop	{r3, r4, r5, pc}
 240              	.LVL37:
 241              	.L21:
 242              		.align	2
 243              	.L20:
 244 003c 10000000 		.word	.LANCHOR0+16
 245 0040 28000000 		.word	.LANCHOR0+40
 246              		.cfi_endproc
 247              	.LFE1:
 248              		.size	u8x8_d_gu800_128x64, .-u8x8_d_gu800_128x64
 249              		.section	.rodata
 250              		.align	2
 251              		.set	.LANCHOR0,. + 0
 252              		.type	u8x8_d_gu800_128x64_powersave0_seq, %object
 253              		.size	u8x8_d_gu800_128x64_powersave0_seq, 5
 254              	u8x8_d_gu800_128x64_powersave0_seq:
 255 0000 15       		.byte	21
 256 0001 24       		.byte	36
 257 0002 16       		.byte	22
 258 0003 40       		.byte	64
 259 0004 FF       		.byte	-1
 260 0005 000000   		.space	3
 261              		.type	u8x8_d_gu800_128x64_powersave1_seq, %object
 262              		.size	u8x8_d_gu800_128x64_powersave1_seq, 5
 263              	u8x8_d_gu800_128x64_powersave1_seq:
 264 0008 15       		.byte	21
 265 0009 20       		.byte	32
 266 000a 16       		.byte	22
 267 000b 40       		.byte	64
 268 000c FF       		.byte	-1
 269 000d 000000   		.space	3
 270              		.type	u8x8_d_gu800_128x64_display_info, %object
 271              		.size	u8x8_d_gu800_128x64_display_info, 24
 272              	u8x8_d_gu800_128x64_display_info:
 273 0010 00       		.byte	0
 274 0011 01       		.byte	1
 275 0012 28       		.byte	40
ARM GAS  C:\Users\brian\AppData\Local\Temp\ccvX8oZO.s 			page 10


 276 0013 96       		.byte	-106
 277 0014 02       		.byte	2
 278 0015 02       		.byte	2
 279 0016 28       		.byte	40
 280 0017 50       		.byte	80
 281 0018 00093D00 		.word	4000000
 282 001c 02       		.byte	2
 283 001d 04       		.byte	4
 284 001e 28       		.byte	40
 285 001f 96       		.byte	-106
 286 0020 10       		.byte	16
 287 0021 08       		.byte	8
 288 0022 00       		.byte	0
 289 0023 00       		.byte	0
 290 0024 8000     		.short	128
 291 0026 4000     		.short	64
 292              		.type	u8x8_d_gu800_128x64_init_seq, %object
 293              		.size	u8x8_d_gu800_128x64_init_seq, 65
 294              	u8x8_d_gu800_128x64_init_seq:
 295 0028 18       		.byte	24
 296 0029 15       		.byte	21
 297 002a 5F       		.byte	95
 298 002b FE       		.byte	-2
 299 002c 01       		.byte	1
 300 002d 15       		.byte	21
 301 002e 62       		.byte	98
 302 002f 16       		.byte	22
 303 0030 00       		.byte	0
 304 0031 17       		.byte	23
 305 0032 FF       		.byte	-1
 306 0033 15       		.byte	21
 307 0034 62       		.byte	98
 308 0035 16       		.byte	22
 309 0036 01       		.byte	1
 310 0037 17       		.byte	23
 311 0038 FF       		.byte	-1
 312 0039 15       		.byte	21
 313 003a 62       		.byte	98
 314 003b 16       		.byte	22
 315 003c 02       		.byte	2
 316 003d 17       		.byte	23
 317 003e FF       		.byte	-1
 318 003f 15       		.byte	21
 319 0040 62       		.byte	98
 320 0041 16       		.byte	22
 321 0042 03       		.byte	3
 322 0043 17       		.byte	23
 323 0044 FF       		.byte	-1
 324 0045 15       		.byte	21
 325 0046 62       		.byte	98
 326 0047 16       		.byte	22
 327 0048 04       		.byte	4
 328 0049 17       		.byte	23
 329 004a FF       		.byte	-1
 330 004b 15       		.byte	21
 331 004c 62       		.byte	98
 332 004d 16       		.byte	22
ARM GAS  C:\Users\brian\AppData\Local\Temp\ccvX8oZO.s 			page 11


 333 004e 05       		.byte	5
 334 004f 17       		.byte	23
 335 0050 FF       		.byte	-1
 336 0051 15       		.byte	21
 337 0052 62       		.byte	98
 338 0053 16       		.byte	22
 339 0054 06       		.byte	6
 340 0055 17       		.byte	23
 341 0056 FF       		.byte	-1
 342 0057 15       		.byte	21
 343 0058 62       		.byte	98
 344 0059 16       		.byte	22
 345 005a 07       		.byte	7
 346 005b 17       		.byte	23
 347 005c FF       		.byte	-1
 348 005d 15       		.byte	21
 349 005e 70       		.byte	112
 350 005f 16       		.byte	22
 351 0060 00       		.byte	0
 352 0061 15       		.byte	21
 353 0062 B0       		.byte	-80
 354 0063 15       		.byte	21
 355 0064 4F       		.byte	79
 356 0065 15       		.byte	21
 357 0066 84       		.byte	-124
 358 0067 19       		.byte	25
 359 0068 FF       		.byte	-1
 360              		.text
 361              	.Letext0:
 362              		.file 2 "c:\\program files (x86)\\cypress\\psoc creator\\4.4\\psoc creator\\import\\gnu\\arm\\5.4.
 363              		.file 3 "c:\\program files (x86)\\cypress\\psoc creator\\4.4\\psoc creator\\import\\gnu\\arm\\5.4.
 364              		.file 4 "..\\u8g2\\csrc\\u8x8.h"