ARM GAS  C:\Users\brian\AppData\Local\Temp\cc2iWzvm.s 			page 1


   1              		.syntax unified
   2              		.cpu cortex-m3
   3              		.fpu softvfp
   4              		.eabi_attribute 20, 1
   5              		.eabi_attribute 21, 1
   6              		.eabi_attribute 23, 3
   7              		.eabi_attribute 24, 1
   8              		.eabi_attribute 25, 1
   9              		.eabi_attribute 26, 1
  10              		.eabi_attribute 30, 1
  11              		.eabi_attribute 34, 1
  12              		.eabi_attribute 18, 4
  13              		.thumb
  14              		.syntax unified
  15              		.file	"u8x8_debounce.c"
  16              		.text
  17              	.Ltext0:
  18              		.cfi_sections	.debug_frame
  19              		.section	.text.u8x8_find_first_diff,"ax",%progbits
  20              		.align	2
  21              		.thumb
  22              		.thumb_func
  23              		.type	u8x8_find_first_diff, %function
  24              	u8x8_find_first_diff:
  25              	.LFB1:
  26              		.file 1 "..\\u8g2\\csrc\\u8x8_debounce.c"
   1:..\u8g2\csrc/u8x8_debounce.c **** /*
   2:..\u8g2\csrc/u8x8_debounce.c **** 
   3:..\u8g2\csrc/u8x8_debounce.c ****   u8x8_debounce.c
   4:..\u8g2\csrc/u8x8_debounce.c ****   
   5:..\u8g2\csrc/u8x8_debounce.c ****   Key/button simple debounce algorithm (Addon for u8x8)
   6:..\u8g2\csrc/u8x8_debounce.c ****   
   7:..\u8g2\csrc/u8x8_debounce.c ****   Universal 8bit Graphics Library (https://github.com/olikraus/u8g2/)
   8:..\u8g2\csrc/u8x8_debounce.c **** 
   9:..\u8g2\csrc/u8x8_debounce.c ****   Copyright (c) 2016, olikraus@gmail.com
  10:..\u8g2\csrc/u8x8_debounce.c ****   All rights reserved.
  11:..\u8g2\csrc/u8x8_debounce.c **** 
  12:..\u8g2\csrc/u8x8_debounce.c ****   Redistribution and use in source and binary forms, with or without modification, 
  13:..\u8g2\csrc/u8x8_debounce.c ****   are permitted provided that the following conditions are met:
  14:..\u8g2\csrc/u8x8_debounce.c **** 
  15:..\u8g2\csrc/u8x8_debounce.c ****   * Redistributions of source code must retain the above copyright notice, this list 
  16:..\u8g2\csrc/u8x8_debounce.c ****     of conditions and the following disclaimer.
  17:..\u8g2\csrc/u8x8_debounce.c ****     
  18:..\u8g2\csrc/u8x8_debounce.c ****   * Redistributions in binary form must reproduce the above copyright notice, this 
  19:..\u8g2\csrc/u8x8_debounce.c ****     list of conditions and the following disclaimer in the documentation and/or other 
  20:..\u8g2\csrc/u8x8_debounce.c ****     materials provided with the distribution.
  21:..\u8g2\csrc/u8x8_debounce.c **** 
  22:..\u8g2\csrc/u8x8_debounce.c ****   THIS SOFTWARE IS PROVIDED BY THE COPYRIGHT HOLDERS AND 
  23:..\u8g2\csrc/u8x8_debounce.c ****   CONTRIBUTORS "AS IS" AND ANY EXPRESS OR IMPLIED WARRANTIES, 
  24:..\u8g2\csrc/u8x8_debounce.c ****   INCLUDING, BUT NOT LIMITED TO, THE IMPLIED WARRANTIES OF 
  25:..\u8g2\csrc/u8x8_debounce.c ****   MERCHANTABILITY AND FITNESS FOR A PARTICULAR PURPOSE ARE 
  26:..\u8g2\csrc/u8x8_debounce.c ****   DISCLAIMED. IN NO EVENT SHALL THE COPYRIGHT HOLDER OR 
  27:..\u8g2\csrc/u8x8_debounce.c ****   CONTRIBUTORS BE LIABLE FOR ANY DIRECT, INDIRECT, INCIDENTAL, 
  28:..\u8g2\csrc/u8x8_debounce.c ****   SPECIAL, EXEMPLARY, OR CONSEQUENTIAL DAMAGES (INCLUDING, BUT 
  29:..\u8g2\csrc/u8x8_debounce.c ****   NOT LIMITED TO, PROCUREMENT OF SUBSTITUTE GOODS OR SERVICES; 
  30:..\u8g2\csrc/u8x8_debounce.c ****   LOSS OF USE, DATA, OR PROFITS; OR BUSINESS INTERRUPTION) HOWEVER 
  31:..\u8g2\csrc/u8x8_debounce.c ****   CAUSED AND ON ANY THEORY OF LIABILITY, WHETHER IN CONTRACT, 
ARM GAS  C:\Users\brian\AppData\Local\Temp\cc2iWzvm.s 			page 2


  32:..\u8g2\csrc/u8x8_debounce.c ****   STRICT LIABILITY, OR TORT (INCLUDING NEGLIGENCE OR OTHERWISE) 
  33:..\u8g2\csrc/u8x8_debounce.c ****   ARISING IN ANY WAY OUT OF THE USE OF THIS SOFTWARE, EVEN IF 
  34:..\u8g2\csrc/u8x8_debounce.c ****   ADVISED OF THE POSSIBILITY OF SUCH DAMAGE.  
  35:..\u8g2\csrc/u8x8_debounce.c ****   
  36:..\u8g2\csrc/u8x8_debounce.c **** */
  37:..\u8g2\csrc/u8x8_debounce.c **** 
  38:..\u8g2\csrc/u8x8_debounce.c **** #include "u8x8.h"
  39:..\u8g2\csrc/u8x8_debounce.c **** 
  40:..\u8g2\csrc/u8x8_debounce.c **** static uint8_t u8x8_read_pin_state(u8x8_t *u8x8)
  41:..\u8g2\csrc/u8x8_debounce.c **** {
  42:..\u8g2\csrc/u8x8_debounce.c ****   uint8_t i;
  43:..\u8g2\csrc/u8x8_debounce.c ****   uint8_t pin_state;
  44:..\u8g2\csrc/u8x8_debounce.c ****   
  45:..\u8g2\csrc/u8x8_debounce.c ****   pin_state = 255;	/* be compatible with the setup of the default pin setup, which is 255 */
  46:..\u8g2\csrc/u8x8_debounce.c ****   for( i = 0; i < U8X8_PIN_INPUT_CNT; i++ )
  47:..\u8g2\csrc/u8x8_debounce.c ****   {
  48:..\u8g2\csrc/u8x8_debounce.c ****     pin_state <<= 1;
  49:..\u8g2\csrc/u8x8_debounce.c ****     
  50:..\u8g2\csrc/u8x8_debounce.c ****     /* the callback function should put the return value into this variable */
  51:..\u8g2\csrc/u8x8_debounce.c ****     u8x8->gpio_result = 1;
  52:..\u8g2\csrc/u8x8_debounce.c ****     u8x8_gpio_call(u8x8, U8X8_MSG_GPIO(i+U8X8_PIN_OUTPUT_CNT), 0);
  53:..\u8g2\csrc/u8x8_debounce.c ****     pin_state |= u8x8->gpio_result & 1;
  54:..\u8g2\csrc/u8x8_debounce.c ****   }
  55:..\u8g2\csrc/u8x8_debounce.c ****   
  56:..\u8g2\csrc/u8x8_debounce.c ****   return pin_state;
  57:..\u8g2\csrc/u8x8_debounce.c **** }
  58:..\u8g2\csrc/u8x8_debounce.c **** 
  59:..\u8g2\csrc/u8x8_debounce.c **** /*
  60:..\u8g2\csrc/u8x8_debounce.c ****   return 0 to U8X8_PIN_INPUT_CNT-1 if there is a difference
  61:..\u8g2\csrc/u8x8_debounce.c ****   return U8X8_PIN_INPUT_CNT if there is no difference
  62:..\u8g2\csrc/u8x8_debounce.c **** */
  63:..\u8g2\csrc/u8x8_debounce.c **** static uint8_t u8x8_find_first_diff(uint8_t a, uint8_t b)
  64:..\u8g2\csrc/u8x8_debounce.c **** {
  27              		.loc 1 64 0
  28              		.cfi_startproc
  29              		@ args = 0, pretend = 0, frame = 0
  30              		@ frame_needed = 0, uses_anonymous_args = 0
  31              		@ link register save eliminated.
  32              	.LVL0:
  33 0000 10B4     		push	{r4}
  34              		.cfi_def_cfa_offset 4
  35              		.cfi_offset 4, -4
  36              	.LVL1:
  65:..\u8g2\csrc/u8x8_debounce.c ****   uint8_t mask;
  66:..\u8g2\csrc/u8x8_debounce.c ****   uint8_t i;
  67:..\u8g2\csrc/u8x8_debounce.c ****   mask = 1;
  68:..\u8g2\csrc/u8x8_debounce.c ****   i = U8X8_PIN_INPUT_CNT;
  37              		.loc 1 68 0
  38 0002 0623     		movs	r3, #6
  67:..\u8g2\csrc/u8x8_debounce.c ****   i = U8X8_PIN_INPUT_CNT;
  39              		.loc 1 67 0
  40 0004 0122     		movs	r2, #1
  41              	.LVL2:
  42              	.L3:
  69:..\u8g2\csrc/u8x8_debounce.c ****   do
  70:..\u8g2\csrc/u8x8_debounce.c ****   {
  71:..\u8g2\csrc/u8x8_debounce.c ****     i--;
ARM GAS  C:\Users\brian\AppData\Local\Temp\cc2iWzvm.s 			page 3


  43              		.loc 1 71 0
  44 0006 013B     		subs	r3, r3, #1
  45              	.LVL3:
  46 0008 DBB2     		uxtb	r3, r3
  47              	.LVL4:
  72:..\u8g2\csrc/u8x8_debounce.c ****     if ( (a & mask) != (b & mask) )
  48              		.loc 1 72 0
  49 000a 80EA0104 		eor	r4, r0, r1
  50 000e 2242     		tst	r2, r4
  51 0010 05D1     		bne	.L4
  73:..\u8g2\csrc/u8x8_debounce.c ****       return i;
  74:..\u8g2\csrc/u8x8_debounce.c ****     mask <<= 1;
  52              		.loc 1 74 0
  53 0012 5200     		lsls	r2, r2, #1
  54              	.LVL5:
  55 0014 D2B2     		uxtb	r2, r2
  56              	.LVL6:
  75:..\u8g2\csrc/u8x8_debounce.c ****   } while( i > 0 );
  57              		.loc 1 75 0
  58 0016 002B     		cmp	r3, #0
  59 0018 F5D1     		bne	.L3
  76:..\u8g2\csrc/u8x8_debounce.c ****   return U8X8_PIN_INPUT_CNT;
  60              		.loc 1 76 0
  61 001a 0620     		movs	r0, #6
  62              	.LVL7:
  63 001c 00E0     		b	.L2
  64              	.LVL8:
  65              	.L4:
  73:..\u8g2\csrc/u8x8_debounce.c ****       return i;
  66              		.loc 1 73 0
  67 001e 1846     		mov	r0, r3
  68              	.LVL9:
  69              	.L2:
  77:..\u8g2\csrc/u8x8_debounce.c **** }
  70              		.loc 1 77 0
  71 0020 10BC     		pop	{r4}
  72              		.cfi_restore 4
  73              		.cfi_def_cfa_offset 0
  74 0022 7047     		bx	lr
  75              		.cfi_endproc
  76              	.LFE1:
  77              		.size	u8x8_find_first_diff, .-u8x8_find_first_diff
  78              		.section	.text.u8x8_read_pin_state,"ax",%progbits
  79              		.align	2
  80              		.thumb
  81              		.thumb_func
  82              		.type	u8x8_read_pin_state, %function
  83              	u8x8_read_pin_state:
  84              	.LFB0:
  41:..\u8g2\csrc/u8x8_debounce.c ****   uint8_t i;
  85              		.loc 1 41 0
  86              		.cfi_startproc
  87              		@ args = 0, pretend = 0, frame = 0
  88              		@ frame_needed = 0, uses_anonymous_args = 0
  89              	.LVL10:
  90 0000 70B5     		push	{r4, r5, r6, lr}
  91              		.cfi_def_cfa_offset 16
ARM GAS  C:\Users\brian\AppData\Local\Temp\cc2iWzvm.s 			page 4


  92              		.cfi_offset 4, -16
  93              		.cfi_offset 5, -12
  94              		.cfi_offset 6, -8
  95              		.cfi_offset 14, -4
  96 0002 0646     		mov	r6, r0
  97              	.LVL11:
  45:..\u8g2\csrc/u8x8_debounce.c ****   for( i = 0; i < U8X8_PIN_INPUT_CNT; i++ )
  98              		.loc 1 45 0
  99 0004 FF20     		movs	r0, #255
 100              	.LVL12:
  46:..\u8g2\csrc/u8x8_debounce.c ****   {
 101              		.loc 1 46 0
 102 0006 0024     		movs	r4, #0
 103 0008 12E0     		b	.L7
 104              	.LVL13:
 105              	.L8:
  48:..\u8g2\csrc/u8x8_debounce.c ****     
 106              		.loc 1 48 0 discriminator 3
 107 000a 4000     		lsls	r0, r0, #1
 108              	.LVL14:
 109 000c C5B2     		uxtb	r5, r0
 110              	.LVL15:
  51:..\u8g2\csrc/u8x8_debounce.c ****     u8x8_gpio_call(u8x8, U8X8_MSG_GPIO(i+U8X8_PIN_OUTPUT_CNT), 0);
 111              		.loc 1 51 0 discriminator 3
 112 000e 0123     		movs	r3, #1
 113 0010 86F82730 		strb	r3, [r6, #39]
  52:..\u8g2\csrc/u8x8_debounce.c ****     pin_state |= u8x8->gpio_result & 1;
 114              		.loc 1 52 0 discriminator 3
 115 0014 04F15001 		add	r1, r4, #80
 116 0018 0022     		movs	r2, #0
 117 001a C9B2     		uxtb	r1, r1
 118 001c 3046     		mov	r0, r6
 119 001e FFF7FEFF 		bl	u8x8_gpio_call
 120              	.LVL16:
  53:..\u8g2\csrc/u8x8_debounce.c ****   }
 121              		.loc 1 53 0 discriminator 3
 122 0022 96F82700 		ldrb	r0, [r6, #39]	@ zero_extendqisi2
 123 0026 00F00100 		and	r0, r0, #1
 124 002a 2843     		orrs	r0, r0, r5
 125              	.LVL17:
  46:..\u8g2\csrc/u8x8_debounce.c ****   {
 126              		.loc 1 46 0 discriminator 3
 127 002c 0134     		adds	r4, r4, #1
 128              	.LVL18:
 129 002e E4B2     		uxtb	r4, r4
 130              	.LVL19:
 131              	.L7:
  46:..\u8g2\csrc/u8x8_debounce.c ****   {
 132              		.loc 1 46 0 is_stmt 0 discriminator 1
 133 0030 052C     		cmp	r4, #5
 134 0032 EAD9     		bls	.L8
  57:..\u8g2\csrc/u8x8_debounce.c **** 
 135              		.loc 1 57 0 is_stmt 1
 136 0034 70BD     		pop	{r4, r5, r6, pc}
 137              		.cfi_endproc
 138              	.LFE0:
 139              		.size	u8x8_read_pin_state, .-u8x8_read_pin_state
ARM GAS  C:\Users\brian\AppData\Local\Temp\cc2iWzvm.s 			page 5


 140 0036 00BF     		.section	.text.u8x8_GetMenuEvent,"ax",%progbits
 141              		.align	2
 142              		.weak	u8x8_GetMenuEvent
 143              		.thumb
 144              		.thumb_func
 145              		.type	u8x8_GetMenuEvent, %function
 146              	u8x8_GetMenuEvent:
 147              	.LFB2:
  78:..\u8g2\csrc/u8x8_debounce.c **** 
  79:..\u8g2\csrc/u8x8_debounce.c **** /*
  80:..\u8g2\csrc/u8x8_debounce.c ****   State A:
  81:..\u8g2\csrc/u8x8_debounce.c ****     u8x8->debounce_last_pin_state == current_state 
  82:..\u8g2\csrc/u8x8_debounce.c ****       --> State A
  83:..\u8g2\csrc/u8x8_debounce.c ****     u8x8->debounce_last_pin_state != current_state 
  84:..\u8g2\csrc/u8x8_debounce.c ****       --> u8x8->debounce_last_pin_state = current_state 
  85:..\u8g2\csrc/u8x8_debounce.c ****       --> State B + cnt
  86:..\u8g2\csrc/u8x8_debounce.c **** 
  87:..\u8g2\csrc/u8x8_debounce.c ****   State B + cnt
  88:..\u8g2\csrc/u8x8_debounce.c ****     --> state--
  89:..\u8g2\csrc/u8x8_debounce.c **** 
  90:..\u8g2\csrc/u8x8_debounce.c ****   State B
  91:..\u8g2\csrc/u8x8_debounce.c ****     u8x8->debounce_last_pin_state == current_state 
  92:..\u8g2\csrc/u8x8_debounce.c ****       --> keypress detected
  93:..\u8g2\csrc/u8x8_debounce.c ****       --> State C
  94:..\u8g2\csrc/u8x8_debounce.c ****     u8x8->debounce_last_pin_state != current_state 
  95:..\u8g2\csrc/u8x8_debounce.c ****       --> State A
  96:..\u8g2\csrc/u8x8_debounce.c **** 
  97:..\u8g2\csrc/u8x8_debounce.c ****   State C
  98:..\u8g2\csrc/u8x8_debounce.c ****     u8x8->debounce_last_pin_state == current_state 
  99:..\u8g2\csrc/u8x8_debounce.c ****       --> State C
 100:..\u8g2\csrc/u8x8_debounce.c ****     u8x8->debounce_last_pin_state != current_state 
 101:..\u8g2\csrc/u8x8_debounce.c ****       --> State A
 102:..\u8g2\csrc/u8x8_debounce.c **** 
 103:..\u8g2\csrc/u8x8_debounce.c **** */
 104:..\u8g2\csrc/u8x8_debounce.c **** 
 105:..\u8g2\csrc/u8x8_debounce.c **** #ifdef __unix__xxxxxx_THIS_IS_DISABLED
 106:..\u8g2\csrc/u8x8_debounce.c **** 
 107:..\u8g2\csrc/u8x8_debounce.c **** #include <stdio.h>
 108:..\u8g2\csrc/u8x8_debounce.c **** #include <stdlib.h>
 109:..\u8g2\csrc/u8x8_debounce.c **** uint8_t u8x8_GetMenuEvent(u8x8_t *u8x8)
 110:..\u8g2\csrc/u8x8_debounce.c **** {
 111:..\u8g2\csrc/u8x8_debounce.c ****     int c;
 112:..\u8g2\csrc/u8x8_debounce.c ****     c = getc(stdin);
 113:..\u8g2\csrc/u8x8_debounce.c ****     switch(c)
 114:..\u8g2\csrc/u8x8_debounce.c ****     {
 115:..\u8g2\csrc/u8x8_debounce.c ****         case 'n':
 116:..\u8g2\csrc/u8x8_debounce.c ****             return  U8X8_MSG_GPIO_MENU_NEXT;
 117:..\u8g2\csrc/u8x8_debounce.c ****         case 'p':
 118:..\u8g2\csrc/u8x8_debounce.c ****             return  U8X8_MSG_GPIO_MENU_PREV;
 119:..\u8g2\csrc/u8x8_debounce.c ****         case 's':
 120:..\u8g2\csrc/u8x8_debounce.c ****             return  U8X8_MSG_GPIO_MENU_SELECT;
 121:..\u8g2\csrc/u8x8_debounce.c ****         case 'h':
 122:..\u8g2\csrc/u8x8_debounce.c ****             return  U8X8_MSG_GPIO_MENU_HOME;
 123:..\u8g2\csrc/u8x8_debounce.c ****         case 'x':
 124:..\u8g2\csrc/u8x8_debounce.c ****             exit(0);
 125:..\u8g2\csrc/u8x8_debounce.c ****         default:
 126:..\u8g2\csrc/u8x8_debounce.c ****             puts("press n, p, s, h or x");
ARM GAS  C:\Users\brian\AppData\Local\Temp\cc2iWzvm.s 			page 6


 127:..\u8g2\csrc/u8x8_debounce.c ****             break;
 128:..\u8g2\csrc/u8x8_debounce.c ****     }
 129:..\u8g2\csrc/u8x8_debounce.c ****     return 0;
 130:..\u8g2\csrc/u8x8_debounce.c **** }
 131:..\u8g2\csrc/u8x8_debounce.c **** 
 132:..\u8g2\csrc/u8x8_debounce.c **** 
 133:..\u8g2\csrc/u8x8_debounce.c **** #else  /* __unix__ */
 134:..\u8g2\csrc/u8x8_debounce.c **** 
 135:..\u8g2\csrc/u8x8_debounce.c **** 
 136:..\u8g2\csrc/u8x8_debounce.c **** #define U8X8_DEBOUNCE_WAIT 2
 137:..\u8g2\csrc/u8x8_debounce.c **** /* do debounce and return a GPIO msg which indicates the event */
 138:..\u8g2\csrc/u8x8_debounce.c **** /* returns 0, if there is no event */
 139:..\u8g2\csrc/u8x8_debounce.c **** #if defined(__GNUC__) && !defined(__CYGWIN__)
 140:..\u8g2\csrc/u8x8_debounce.c **** # pragma weak  u8x8_GetMenuEvent
 141:..\u8g2\csrc/u8x8_debounce.c **** #endif
 142:..\u8g2\csrc/u8x8_debounce.c **** uint8_t u8x8_GetMenuEvent(u8x8_t *u8x8)
 143:..\u8g2\csrc/u8x8_debounce.c **** {
 148              		.loc 1 143 0
 149              		.cfi_startproc
 150              		@ args = 0, pretend = 0, frame = 0
 151              		@ frame_needed = 0, uses_anonymous_args = 0
 152              	.LVL20:
 153 0000 10B5     		push	{r4, lr}
 154              		.cfi_def_cfa_offset 8
 155              		.cfi_offset 4, -8
 156              		.cfi_offset 14, -4
 157 0002 0446     		mov	r4, r0
 158              	.LVL21:
 144:..\u8g2\csrc/u8x8_debounce.c ****   uint8_t pin_state;
 145:..\u8g2\csrc/u8x8_debounce.c ****   uint8_t result_msg = 0;	/* invalid message, no event */
 146:..\u8g2\csrc/u8x8_debounce.c ****   
 147:..\u8g2\csrc/u8x8_debounce.c ****   pin_state = u8x8_read_pin_state(u8x8);
 159              		.loc 1 147 0
 160 0004 FFF7FEFF 		bl	u8x8_read_pin_state
 161              	.LVL22:
 148:..\u8g2\csrc/u8x8_debounce.c ****   
 149:..\u8g2\csrc/u8x8_debounce.c ****   /* States A, B, C & D are encoded in the upper 4 bit*/
 150:..\u8g2\csrc/u8x8_debounce.c ****   switch(u8x8->debounce_state)
 162              		.loc 1 150 0
 163 0008 94F82A30 		ldrb	r3, [r4, #42]	@ zero_extendqisi2
 164 000c 102B     		cmp	r3, #16
 165 000e 10D0     		beq	.L12
 166 0010 01D8     		bhi	.L13
 167 0012 2BB1     		cbz	r3, .L14
 168 0014 38E0     		b	.L11
 169              	.L13:
 170 0016 202B     		cmp	r3, #32
 171 0018 1AD0     		beq	.L15
 172 001a 302B     		cmp	r3, #48
 173 001c 25D0     		beq	.L16
 174 001e 33E0     		b	.L11
 175              	.L14:
 151:..\u8g2\csrc/u8x8_debounce.c ****   {
 152:..\u8g2\csrc/u8x8_debounce.c ****     case 0x00:	/* State A, default state */
 153:..\u8g2\csrc/u8x8_debounce.c ****       if ( u8x8->debounce_default_pin_state != pin_state )
 176              		.loc 1 153 0
 177 0020 94F82830 		ldrb	r3, [r4, #40]	@ zero_extendqisi2
ARM GAS  C:\Users\brian\AppData\Local\Temp\cc2iWzvm.s 			page 7


 178 0024 9842     		cmp	r0, r3
 179 0026 34D0     		beq	.L20
 154:..\u8g2\csrc/u8x8_debounce.c ****       {
 155:..\u8g2\csrc/u8x8_debounce.c **** 	//u8x8->debounce_last_pin_state = pin_state;
 156:..\u8g2\csrc/u8x8_debounce.c **** 	u8x8->debounce_state = 0x010 + U8X8_DEBOUNCE_WAIT;
 180              		.loc 1 156 0
 181 0028 1223     		movs	r3, #18
 182 002a 84F82A30 		strb	r3, [r4, #42]
 145:..\u8g2\csrc/u8x8_debounce.c ****   
 183              		.loc 1 145 0
 184 002e 0020     		movs	r0, #0
 185              	.LVL23:
 186 0030 10BD     		pop	{r4, pc}
 187              	.LVL24:
 188              	.L12:
 157:..\u8g2\csrc/u8x8_debounce.c ****       }
 158:..\u8g2\csrc/u8x8_debounce.c ****       break;
 159:..\u8g2\csrc/u8x8_debounce.c ****     case 0x10:	/* State B */
 160:..\u8g2\csrc/u8x8_debounce.c ****       //if ( u8x8->debounce_last_pin_state != pin_state )
 161:..\u8g2\csrc/u8x8_debounce.c ****       if ( u8x8->debounce_default_pin_state == pin_state )
 189              		.loc 1 161 0
 190 0032 94F82830 		ldrb	r3, [r4, #40]	@ zero_extendqisi2
 191 0036 9842     		cmp	r0, r3
 192 0038 03D1     		bne	.L18
 162:..\u8g2\csrc/u8x8_debounce.c ****       {
 163:..\u8g2\csrc/u8x8_debounce.c **** 	u8x8->debounce_state = 0x00;	/* back to state A */
 193              		.loc 1 163 0
 194 003a 0020     		movs	r0, #0
 195              	.LVL25:
 196 003c 84F82A00 		strb	r0, [r4, #42]
 197 0040 10BD     		pop	{r4, pc}
 198              	.LVL26:
 199              	.L18:
 164:..\u8g2\csrc/u8x8_debounce.c ****       }
 165:..\u8g2\csrc/u8x8_debounce.c ****       else
 166:..\u8g2\csrc/u8x8_debounce.c ****       {
 167:..\u8g2\csrc/u8x8_debounce.c **** 	/* keypress detected */
 168:..\u8g2\csrc/u8x8_debounce.c **** 	u8x8->debounce_last_pin_state = pin_state;
 200              		.loc 1 168 0
 201 0042 84F82900 		strb	r0, [r4, #41]
 169:..\u8g2\csrc/u8x8_debounce.c **** 	//result_msg = U8X8_MSG_GPIO_MENU_NEXT;
 170:..\u8g2\csrc/u8x8_debounce.c **** 	u8x8->debounce_state = 0x020 + U8X8_DEBOUNCE_WAIT;	/* got to state C */	
 202              		.loc 1 170 0
 203 0046 2223     		movs	r3, #34
 204 0048 84F82A30 		strb	r3, [r4, #42]
 145:..\u8g2\csrc/u8x8_debounce.c ****   
 205              		.loc 1 145 0
 206 004c 0020     		movs	r0, #0
 207              	.LVL27:
 208 004e 10BD     		pop	{r4, pc}
 209              	.LVL28:
 210              	.L15:
 171:..\u8g2\csrc/u8x8_debounce.c ****       }
 172:..\u8g2\csrc/u8x8_debounce.c ****       break;
 173:..\u8g2\csrc/u8x8_debounce.c ****       
 174:..\u8g2\csrc/u8x8_debounce.c ****     case 0x20:	/* State C */
 175:..\u8g2\csrc/u8x8_debounce.c ****       if ( u8x8->debounce_last_pin_state != pin_state )
ARM GAS  C:\Users\brian\AppData\Local\Temp\cc2iWzvm.s 			page 8


 211              		.loc 1 175 0
 212 0050 94F82930 		ldrb	r3, [r4, #41]	@ zero_extendqisi2
 213 0054 9842     		cmp	r0, r3
 214 0056 03D0     		beq	.L19
 176:..\u8g2\csrc/u8x8_debounce.c ****       {
 177:..\u8g2\csrc/u8x8_debounce.c **** 	u8x8->debounce_state = 0x00;	/* back to state A */
 215              		.loc 1 177 0
 216 0058 0020     		movs	r0, #0
 217              	.LVL29:
 218 005a 84F82A00 		strb	r0, [r4, #42]
 219 005e 10BD     		pop	{r4, pc}
 220              	.LVL30:
 221              	.L19:
 178:..\u8g2\csrc/u8x8_debounce.c ****       }
 179:..\u8g2\csrc/u8x8_debounce.c ****       else
 180:..\u8g2\csrc/u8x8_debounce.c ****       {
 181:..\u8g2\csrc/u8x8_debounce.c **** 	u8x8->debounce_state = 0x030;	/* got to state D */	
 222              		.loc 1 181 0
 223 0060 3023     		movs	r3, #48
 224 0062 84F82A30 		strb	r3, [r4, #42]
 145:..\u8g2\csrc/u8x8_debounce.c ****   
 225              		.loc 1 145 0
 226 0066 0020     		movs	r0, #0
 227              	.LVL31:
 228 0068 10BD     		pop	{r4, pc}
 229              	.LVL32:
 230              	.L16:
 182:..\u8g2\csrc/u8x8_debounce.c ****       }
 183:..\u8g2\csrc/u8x8_debounce.c ****       break;
 184:..\u8g2\csrc/u8x8_debounce.c ****       
 185:..\u8g2\csrc/u8x8_debounce.c ****     case 0x30:	/* State D */
 186:..\u8g2\csrc/u8x8_debounce.c ****       /* wait until key release */
 187:..\u8g2\csrc/u8x8_debounce.c ****       if ( u8x8->debounce_default_pin_state == pin_state )
 231              		.loc 1 187 0
 232 006a 94F82830 		ldrb	r3, [r4, #40]	@ zero_extendqisi2
 233 006e 9842     		cmp	r0, r3
 234 0070 11D1     		bne	.L21
 188:..\u8g2\csrc/u8x8_debounce.c ****       {
 189:..\u8g2\csrc/u8x8_debounce.c **** 	u8x8->debounce_state = 0x00;	/* back to state A */
 235              		.loc 1 189 0
 236 0072 0022     		movs	r2, #0
 237 0074 84F82A20 		strb	r2, [r4, #42]
 190:..\u8g2\csrc/u8x8_debounce.c **** 	result_msg = U8X8_MSG_GPIO(u8x8_find_first_diff(u8x8->debounce_default_pin_state, u8x8->debounce_l
 238              		.loc 1 190 0
 239 0078 94F82910 		ldrb	r1, [r4, #41]	@ zero_extendqisi2
 240 007c 1846     		mov	r0, r3
 241              	.LVL33:
 242 007e FFF7FEFF 		bl	u8x8_find_first_diff
 243              	.LVL34:
 244 0082 5030     		adds	r0, r0, #80
 245 0084 C0B2     		uxtb	r0, r0
 246              	.LVL35:
 247 0086 10BD     		pop	{r4, pc}
 248              	.LVL36:
 249              	.L11:
 191:..\u8g2\csrc/u8x8_debounce.c ****       }
 192:..\u8g2\csrc/u8x8_debounce.c ****       else
ARM GAS  C:\Users\brian\AppData\Local\Temp\cc2iWzvm.s 			page 9


 193:..\u8g2\csrc/u8x8_debounce.c ****       {
 194:..\u8g2\csrc/u8x8_debounce.c **** 	//result_msg = U8X8_MSG_GPIO_MENU_NEXT;
 195:..\u8g2\csrc/u8x8_debounce.c **** 	// maybe implement autorepeat here 
 196:..\u8g2\csrc/u8x8_debounce.c ****       }
 197:..\u8g2\csrc/u8x8_debounce.c ****       break;
 198:..\u8g2\csrc/u8x8_debounce.c ****     default:
 199:..\u8g2\csrc/u8x8_debounce.c ****       u8x8->debounce_state--;	/* count down, until there is a valid state */
 250              		.loc 1 199 0
 251 0088 013B     		subs	r3, r3, #1
 252 008a 84F82A30 		strb	r3, [r4, #42]
 145:..\u8g2\csrc/u8x8_debounce.c ****   
 253              		.loc 1 145 0
 254 008e 0020     		movs	r0, #0
 255              	.LVL37:
 200:..\u8g2\csrc/u8x8_debounce.c ****       break;
 256              		.loc 1 200 0
 257 0090 10BD     		pop	{r4, pc}
 258              	.LVL38:
 259              	.L20:
 145:..\u8g2\csrc/u8x8_debounce.c ****   
 260              		.loc 1 145 0
 261 0092 0020     		movs	r0, #0
 262              	.LVL39:
 263 0094 10BD     		pop	{r4, pc}
 264              	.LVL40:
 265              	.L21:
 266 0096 0020     		movs	r0, #0
 267              	.LVL41:
 201:..\u8g2\csrc/u8x8_debounce.c ****   }
 202:..\u8g2\csrc/u8x8_debounce.c ****   return result_msg;
 203:..\u8g2\csrc/u8x8_debounce.c **** }
 268              		.loc 1 203 0
 269 0098 10BD     		pop	{r4, pc}
 270              		.cfi_endproc
 271              	.LFE2:
 272              		.size	u8x8_GetMenuEvent, .-u8x8_GetMenuEvent
 273 009a 00BF     		.text
 274              	.Letext0:
 275              		.file 2 "c:\\program files (x86)\\cypress\\psoc creator\\4.4\\psoc creator\\import\\gnu\\arm\\5.4.
 276              		.file 3 "c:\\program files (x86)\\cypress\\psoc creator\\4.4\\psoc creator\\import\\gnu\\arm\\5.4.
 277              		.file 4 "..\\u8g2\\csrc\\u8x8.h"