ARM GAS  C:\Users\brian\AppData\Local\Temp\ccQnWkUl.s 			page 1


   1              		.syntax unified
   2              		.cpu cortex-m3
   3              		.fpu softvfp
   4              		.eabi_attribute 20, 1
   5              		.eabi_attribute 21, 1
   6              		.eabi_attribute 23, 3
   7              		.eabi_attribute 24, 1
   8              		.eabi_attribute 25, 1
   9              		.eabi_attribute 26, 1
  10              		.eabi_attribute 30, 1
  11              		.eabi_attribute 34, 1
  12              		.eabi_attribute 18, 4
  13              		.thumb
  14              		.syntax unified
  15              		.file	"u8x8_d_st7571.c"
  16              		.text
  17              	.Ltext0:
  18              		.cfi_sections	.debug_frame
  19              		.section	.text.u8x8_d_st7571_generic,"ax",%progbits
  20              		.align	2
  21              		.thumb
  22              		.thumb_func
  23              		.type	u8x8_d_st7571_generic, %function
  24              	u8x8_d_st7571_generic:
  25              	.LFB0:
  26              		.file 1 "..\\u8g2\\csrc\\u8x8_d_st7571.c"
   1:..\u8g2\csrc/u8x8_d_st7571.c **** /*
   2:..\u8g2\csrc/u8x8_d_st7571.c **** 
   3:..\u8g2\csrc/u8x8_d_st7571.c ****   u8x8_d_st7571.c
   4:..\u8g2\csrc/u8x8_d_st7571.c **** 
   5:..\u8g2\csrc/u8x8_d_st7571.c ****   Universal 8bit Graphics Library (https://github.com/olikraus/u8g2/)
   6:..\u8g2\csrc/u8x8_d_st7571.c **** 
   7:..\u8g2\csrc/u8x8_d_st7571.c ****   Copyright (c) 2020, olikraus@gmail.com
   8:..\u8g2\csrc/u8x8_d_st7571.c ****   All rights reserved.
   9:..\u8g2\csrc/u8x8_d_st7571.c **** 
  10:..\u8g2\csrc/u8x8_d_st7571.c ****   Redistribution and use in source and binary forms, with or without modification, 
  11:..\u8g2\csrc/u8x8_d_st7571.c ****   are permitted provided that the following conditions are met:
  12:..\u8g2\csrc/u8x8_d_st7571.c **** 
  13:..\u8g2\csrc/u8x8_d_st7571.c ****   * Redistributions of source code must retain the above copyright notice, this list 
  14:..\u8g2\csrc/u8x8_d_st7571.c ****     of conditions and the following disclaimer.
  15:..\u8g2\csrc/u8x8_d_st7571.c ****     
  16:..\u8g2\csrc/u8x8_d_st7571.c ****   * Redistributions in binary form must reproduce the above copyright notice, this 
  17:..\u8g2\csrc/u8x8_d_st7571.c ****     list of conditions and the following disclaimer in the documentation and/or other 
  18:..\u8g2\csrc/u8x8_d_st7571.c ****     materials provided with the distribution.
  19:..\u8g2\csrc/u8x8_d_st7571.c **** 
  20:..\u8g2\csrc/u8x8_d_st7571.c ****   THIS SOFTWARE IS PROVIDED BY THE COPYRIGHT HOLDERS AND 
  21:..\u8g2\csrc/u8x8_d_st7571.c ****   CONTRIBUTORS "AS IS" AND ANY EXPRESS OR IMPLIED WARRANTIES, 
  22:..\u8g2\csrc/u8x8_d_st7571.c ****   INCLUDING, BUT NOT LIMITED TO, THE IMPLIED WARRANTIES OF 
  23:..\u8g2\csrc/u8x8_d_st7571.c ****   MERCHANTABILITY AND FITNESS FOR A PARTICULAR PURPOSE ARE 
  24:..\u8g2\csrc/u8x8_d_st7571.c ****   DISCLAIMED. IN NO EVENT SHALL THE COPYRIGHT HOLDER OR 
  25:..\u8g2\csrc/u8x8_d_st7571.c ****   CONTRIBUTORS BE LIABLE FOR ANY DIRECT, INDIRECT, INCIDENTAL, 
  26:..\u8g2\csrc/u8x8_d_st7571.c ****   SPECIAL, EXEMPLARY, OR CONSEQUENTIAL DAMAGES (INCLUDING, BUT 
  27:..\u8g2\csrc/u8x8_d_st7571.c ****   NOT LIMITED TO, PROCUREMENT OF SUBSTITUTE GOODS OR SERVICES; 
  28:..\u8g2\csrc/u8x8_d_st7571.c ****   LOSS OF USE, DATA, OR PROFITS; OR BUSINESS INTERRUPTION) HOWEVER 
  29:..\u8g2\csrc/u8x8_d_st7571.c ****   CAUSED AND ON ANY THEORY OF LIABILITY, WHETHER IN CONTRACT, 
  30:..\u8g2\csrc/u8x8_d_st7571.c ****   STRICT LIABILITY, OR TORT (INCLUDING NEGLIGENCE OR OTHERWISE) 
  31:..\u8g2\csrc/u8x8_d_st7571.c ****   ARISING IN ANY WAY OUT OF THE USE OF THIS SOFTWARE, EVEN IF 
ARM GAS  C:\Users\brian\AppData\Local\Temp\ccQnWkUl.s 			page 2


  32:..\u8g2\csrc/u8x8_d_st7571.c ****   ADVISED OF THE POSSIBILITY OF SUCH DAMAGE.  
  33:..\u8g2\csrc/u8x8_d_st7571.c **** 
  34:..\u8g2\csrc/u8x8_d_st7571.c **** 
  35:..\u8g2\csrc/u8x8_d_st7571.c ****   ST7571: 128x129 2-bit graylevel LCD
  36:..\u8g2\csrc/u8x8_d_st7571.c ****   
  37:..\u8g2\csrc/u8x8_d_st7571.c ****   https://github.com/olikraus/u8g2/issues/921
  38:..\u8g2\csrc/u8x8_d_st7571.c ****   https://github.com/olikraus/u8g2/issues/1575          128x96
  39:..\u8g2\csrc/u8x8_d_st7571.c **** 
  40:..\u8g2\csrc/u8x8_d_st7571.c **** */
  41:..\u8g2\csrc/u8x8_d_st7571.c **** 
  42:..\u8g2\csrc/u8x8_d_st7571.c **** 
  43:..\u8g2\csrc/u8x8_d_st7571.c **** #include "u8x8.h"
  44:..\u8g2\csrc/u8x8_d_st7571.c **** 
  45:..\u8g2\csrc/u8x8_d_st7571.c **** static const uint8_t u8x8_d_st7571_128x128_powersave0_seq[] = {
  46:..\u8g2\csrc/u8x8_d_st7571.c ****   U8X8_START_TRANSFER(),             	/* enable chip, delay is part of the transfer start */
  47:..\u8g2\csrc/u8x8_d_st7571.c ****   U8X8_C(0x071),		                /* exit power save mode */
  48:..\u8g2\csrc/u8x8_d_st7571.c ****   U8X8_C(0x0a8),		                /* disable powersave mode */
  49:..\u8g2\csrc/u8x8_d_st7571.c ****   U8X8_C(0x0af),		                /* display on */
  50:..\u8g2\csrc/u8x8_d_st7571.c ****   U8X8_END_TRANSFER(),             	/* disable chip */
  51:..\u8g2\csrc/u8x8_d_st7571.c ****   U8X8_END()             			/* end of sequence */
  52:..\u8g2\csrc/u8x8_d_st7571.c **** };
  53:..\u8g2\csrc/u8x8_d_st7571.c **** 
  54:..\u8g2\csrc/u8x8_d_st7571.c **** static const uint8_t u8x8_d_st7571_128x128_powersave1_seq[] = {
  55:..\u8g2\csrc/u8x8_d_st7571.c ****   U8X8_START_TRANSFER(),             	/* enable chip, delay is part of the transfer start */
  56:..\u8g2\csrc/u8x8_d_st7571.c ****   U8X8_C(0x0ae),		                /* display off */  
  57:..\u8g2\csrc/u8x8_d_st7571.c ****   U8X8_C(0x0a9),		                /* enter powersave mode */
  58:..\u8g2\csrc/u8x8_d_st7571.c ****   U8X8_END_TRANSFER(),             	/* disable chip */
  59:..\u8g2\csrc/u8x8_d_st7571.c ****   U8X8_END()             			/* end of sequence */
  60:..\u8g2\csrc/u8x8_d_st7571.c **** };
  61:..\u8g2\csrc/u8x8_d_st7571.c **** 
  62:..\u8g2\csrc/u8x8_d_st7571.c **** static const uint8_t u8x8_d_st7571_128x128_flip0_seq[] = {
  63:..\u8g2\csrc/u8x8_d_st7571.c ****   U8X8_START_TRANSFER(),             	/* enable chip, delay is part of the transfer start */
  64:..\u8g2\csrc/u8x8_d_st7571.c ****   U8X8_C(0x0a0),				/* segment remap a0/a1*/
  65:..\u8g2\csrc/u8x8_d_st7571.c ****   U8X8_C(0x0c8),				/* c0: scan dir normal, c8: reverse */
  66:..\u8g2\csrc/u8x8_d_st7571.c ****   U8X8_END_TRANSFER(),             	/* disable chip */
  67:..\u8g2\csrc/u8x8_d_st7571.c ****   U8X8_END()             			/* end of sequence */
  68:..\u8g2\csrc/u8x8_d_st7571.c **** };
  69:..\u8g2\csrc/u8x8_d_st7571.c **** 
  70:..\u8g2\csrc/u8x8_d_st7571.c **** static const uint8_t u8x8_d_st7571_128x128_flip1_seq[] = {
  71:..\u8g2\csrc/u8x8_d_st7571.c ****   U8X8_START_TRANSFER(),             	/* enable chip, delay is part of the transfer start */
  72:..\u8g2\csrc/u8x8_d_st7571.c ****   U8X8_C(0x0a1),				/* segment remap a0/a1*/
  73:..\u8g2\csrc/u8x8_d_st7571.c ****   U8X8_C(0x0c0),				/* c0: scan dir normal, c8: reverse */
  74:..\u8g2\csrc/u8x8_d_st7571.c ****   U8X8_END_TRANSFER(),             	/* disable chip */
  75:..\u8g2\csrc/u8x8_d_st7571.c ****   U8X8_END()             			/* end of sequence */
  76:..\u8g2\csrc/u8x8_d_st7571.c **** };
  77:..\u8g2\csrc/u8x8_d_st7571.c **** 
  78:..\u8g2\csrc/u8x8_d_st7571.c **** 
  79:..\u8g2\csrc/u8x8_d_st7571.c **** 
  80:..\u8g2\csrc/u8x8_d_st7571.c **** 
  81:..\u8g2\csrc/u8x8_d_st7571.c **** /*===================================================*/
  82:..\u8g2\csrc/u8x8_d_st7571.c **** 
  83:..\u8g2\csrc/u8x8_d_st7571.c **** static uint8_t u8x8_d_st7571_generic(u8x8_t *u8x8, uint8_t msg, uint8_t arg_int, void *arg_ptr)
  84:..\u8g2\csrc/u8x8_d_st7571.c **** {
  27              		.loc 1 84 0
  28              		.cfi_startproc
  29              		@ args = 0, pretend = 0, frame = 0
  30              		@ frame_needed = 0, uses_anonymous_args = 0
ARM GAS  C:\Users\brian\AppData\Local\Temp\ccQnWkUl.s 			page 3


  31              	.LVL0:
  32 0000 F8B5     		push	{r3, r4, r5, r6, r7, lr}
  33              		.cfi_def_cfa_offset 24
  34              		.cfi_offset 3, -24
  35              		.cfi_offset 4, -20
  36              		.cfi_offset 5, -16
  37              		.cfi_offset 6, -12
  38              		.cfi_offset 7, -8
  39              		.cfi_offset 14, -4
  40 0002 0546     		mov	r5, r0
  41 0004 1446     		mov	r4, r2
  42 0006 1E46     		mov	r6, r3
  85:..\u8g2\csrc/u8x8_d_st7571.c ****   uint16_t x;
  86:..\u8g2\csrc/u8x8_d_st7571.c ****   uint8_t c;
  87:..\u8g2\csrc/u8x8_d_st7571.c ****   uint8_t *ptr;
  88:..\u8g2\csrc/u8x8_d_st7571.c ****   switch(msg)
  43              		.loc 1 88 0
  44 0008 0B39     		subs	r1, r1, #11
  45              	.LVL1:
  46 000a 0429     		cmp	r1, #4
  47 000c 5BD8     		bhi	.L11
  48 000e DFE801F0 		tbb	[pc, r1]
  49              	.LVL2:
  50              	.L4:
  51 0012 03       		.byte	(.L3-.L4)/2
  52 0013 5A       		.byte	(.L11-.L4)/2
  53 0014 0E       		.byte	(.L5-.L4)/2
  54 0015 21       		.byte	(.L6-.L4)/2
  55 0016 30       		.byte	(.L7-.L4)/2
  56 0017 00       		.p2align 1
  57              	.L3:
  89:..\u8g2\csrc/u8x8_d_st7571.c ****   {
  90:..\u8g2\csrc/u8x8_d_st7571.c ****     /* handled by the calling function
  91:..\u8g2\csrc/u8x8_d_st7571.c ****     case U8X8_MSG_DISPLAY_SETUP_MEMORY:
  92:..\u8g2\csrc/u8x8_d_st7571.c ****       u8x8_d_helper_display_setup_memory(u8x8, &u8x8_st7571_128x128_display_info);
  93:..\u8g2\csrc/u8x8_d_st7571.c ****       break;
  94:..\u8g2\csrc/u8x8_d_st7571.c ****     */
  95:..\u8g2\csrc/u8x8_d_st7571.c ****     /* handled by the calling function
  96:..\u8g2\csrc/u8x8_d_st7571.c ****     case U8X8_MSG_DISPLAY_INIT:
  97:..\u8g2\csrc/u8x8_d_st7571.c ****       u8x8_d_helper_display_init(u8x8);
  98:..\u8g2\csrc/u8x8_d_st7571.c ****       u8x8_cad_SendSequence(u8x8, u8x8_d_st7571_128x128_init_seq);    
  99:..\u8g2\csrc/u8x8_d_st7571.c ****       break;
 100:..\u8g2\csrc/u8x8_d_st7571.c ****     */
 101:..\u8g2\csrc/u8x8_d_st7571.c ****     case U8X8_MSG_DISPLAY_SET_POWER_SAVE:
 102:..\u8g2\csrc/u8x8_d_st7571.c ****       if ( arg_int == 0 )
  58              		.loc 1 102 0
  59 0018 22B9     		cbnz	r2, .L8
 103:..\u8g2\csrc/u8x8_d_st7571.c **** 	u8x8_cad_SendSequence(u8x8, u8x8_d_st7571_128x128_powersave0_seq);
  60              		.loc 1 103 0
  61 001a 2C49     		ldr	r1, .L13
  62 001c FFF7FEFF 		bl	u8x8_cad_SendSequence
  63              	.LVL3:
 104:..\u8g2\csrc/u8x8_d_st7571.c ****       else
 105:..\u8g2\csrc/u8x8_d_st7571.c **** 	u8x8_cad_SendSequence(u8x8, u8x8_d_st7571_128x128_powersave1_seq);
 106:..\u8g2\csrc/u8x8_d_st7571.c ****       break;
 107:..\u8g2\csrc/u8x8_d_st7571.c ****     case U8X8_MSG_DISPLAY_SET_FLIP_MODE:
 108:..\u8g2\csrc/u8x8_d_st7571.c ****       if ( arg_int == 0 )
ARM GAS  C:\Users\brian\AppData\Local\Temp\ccQnWkUl.s 			page 4


 109:..\u8g2\csrc/u8x8_d_st7571.c ****       {
 110:..\u8g2\csrc/u8x8_d_st7571.c **** 	u8x8_cad_SendSequence(u8x8, u8x8_d_st7571_128x128_flip0_seq);
 111:..\u8g2\csrc/u8x8_d_st7571.c **** 	u8x8->x_offset = u8x8->display_info->default_x_offset;
 112:..\u8g2\csrc/u8x8_d_st7571.c ****       }
 113:..\u8g2\csrc/u8x8_d_st7571.c ****       else
 114:..\u8g2\csrc/u8x8_d_st7571.c ****       {
 115:..\u8g2\csrc/u8x8_d_st7571.c **** 	u8x8_cad_SendSequence(u8x8, u8x8_d_st7571_128x128_flip1_seq);
 116:..\u8g2\csrc/u8x8_d_st7571.c **** 	u8x8->x_offset = u8x8->display_info->flipmode_x_offset;
 117:..\u8g2\csrc/u8x8_d_st7571.c ****       }
 118:..\u8g2\csrc/u8x8_d_st7571.c ****       break;
 119:..\u8g2\csrc/u8x8_d_st7571.c **** #ifdef U8X8_WITH_SET_CONTRAST
 120:..\u8g2\csrc/u8x8_d_st7571.c ****     case U8X8_MSG_DISPLAY_SET_CONTRAST:
 121:..\u8g2\csrc/u8x8_d_st7571.c ****       u8x8_cad_StartTransfer(u8x8);
 122:..\u8g2\csrc/u8x8_d_st7571.c ****       u8x8_cad_SendCmd(u8x8, 0x081 );
 123:..\u8g2\csrc/u8x8_d_st7571.c ****       u8x8_cad_SendArg(u8x8, arg_int>>2);			// 6 bit for the ST7571
 124:..\u8g2\csrc/u8x8_d_st7571.c ****       u8x8_cad_EndTransfer(u8x8);
 125:..\u8g2\csrc/u8x8_d_st7571.c ****       break;
 126:..\u8g2\csrc/u8x8_d_st7571.c **** #endif
 127:..\u8g2\csrc/u8x8_d_st7571.c ****     case U8X8_MSG_DISPLAY_DRAW_TILE:
 128:..\u8g2\csrc/u8x8_d_st7571.c ****       u8x8_cad_StartTransfer(u8x8);
 129:..\u8g2\csrc/u8x8_d_st7571.c **** 
 130:..\u8g2\csrc/u8x8_d_st7571.c **** 
 131:..\u8g2\csrc/u8x8_d_st7571.c ****       x = ((u8x8_tile_t *)arg_ptr)->x_pos;    
 132:..\u8g2\csrc/u8x8_d_st7571.c ****       x *= 8;
 133:..\u8g2\csrc/u8x8_d_st7571.c ****       x += u8x8->x_offset;
 134:..\u8g2\csrc/u8x8_d_st7571.c ****       u8x8_cad_SendCmd(u8x8, 0x010 | (x>>4) );
 135:..\u8g2\csrc/u8x8_d_st7571.c ****       u8x8_cad_SendCmd(u8x8, 0x000 | ((x&15)));
 136:..\u8g2\csrc/u8x8_d_st7571.c ****       u8x8_cad_SendCmd(u8x8, 0x0b0 | (((u8x8_tile_t *)arg_ptr)->y_pos));
 137:..\u8g2\csrc/u8x8_d_st7571.c ****     
 138:..\u8g2\csrc/u8x8_d_st7571.c **** 
 139:..\u8g2\csrc/u8x8_d_st7571.c **** 
 140:..\u8g2\csrc/u8x8_d_st7571.c ****       do
 141:..\u8g2\csrc/u8x8_d_st7571.c ****       {
 142:..\u8g2\csrc/u8x8_d_st7571.c ****         c = ((u8x8_tile_t *)arg_ptr)->cnt;
 143:..\u8g2\csrc/u8x8_d_st7571.c ****         ptr = ((u8x8_tile_t *)arg_ptr)->tile_ptr;
 144:..\u8g2\csrc/u8x8_d_st7571.c ****         /* SendData can not handle more than 255 bytes */
 145:..\u8g2\csrc/u8x8_d_st7571.c **** 	/*
 146:..\u8g2\csrc/u8x8_d_st7571.c ****         if ( c > 31 )
 147:..\u8g2\csrc/u8x8_d_st7571.c ****         {
 148:..\u8g2\csrc/u8x8_d_st7571.c ****           u8x8_cad_SendData(u8x8, 31*8, ptr); 
 149:..\u8g2\csrc/u8x8_d_st7571.c ****           ptr+=31*8;
 150:..\u8g2\csrc/u8x8_d_st7571.c ****           c -= 31;
 151:..\u8g2\csrc/u8x8_d_st7571.c ****         }
 152:..\u8g2\csrc/u8x8_d_st7571.c **** 	*/
 153:..\u8g2\csrc/u8x8_d_st7571.c ****         
 154:..\u8g2\csrc/u8x8_d_st7571.c ****         u8x8_cad_SendData(u8x8, c*8, ptr); 	
 155:..\u8g2\csrc/u8x8_d_st7571.c ****         arg_int--;
 156:..\u8g2\csrc/u8x8_d_st7571.c ****       } while( arg_int > 0 );
 157:..\u8g2\csrc/u8x8_d_st7571.c **** 
 158:..\u8g2\csrc/u8x8_d_st7571.c ****       
 159:..\u8g2\csrc/u8x8_d_st7571.c ****       u8x8_cad_EndTransfer(u8x8);
 160:..\u8g2\csrc/u8x8_d_st7571.c ****       break;
 161:..\u8g2\csrc/u8x8_d_st7571.c ****     default:
 162:..\u8g2\csrc/u8x8_d_st7571.c ****       return 0;
 163:..\u8g2\csrc/u8x8_d_st7571.c ****   }
 164:..\u8g2\csrc/u8x8_d_st7571.c ****   return 1;
  64              		.loc 1 164 0
ARM GAS  C:\Users\brian\AppData\Local\Temp\ccQnWkUl.s 			page 5


  65 0020 0120     		movs	r0, #1
  66 0022 F8BD     		pop	{r3, r4, r5, r6, r7, pc}
  67              	.LVL4:
  68              	.L8:
 105:..\u8g2\csrc/u8x8_d_st7571.c ****       break;
  69              		.loc 1 105 0
  70 0024 2A49     		ldr	r1, .L13+4
  71 0026 FFF7FEFF 		bl	u8x8_cad_SendSequence
  72              	.LVL5:
  73              		.loc 1 164 0
  74 002a 0120     		movs	r0, #1
  75 002c F8BD     		pop	{r3, r4, r5, r6, r7, pc}
  76              	.LVL6:
  77              	.L5:
 108:..\u8g2\csrc/u8x8_d_st7571.c ****       {
  78              		.loc 1 108 0
  79 002e 42B9     		cbnz	r2, .L9
 110:..\u8g2\csrc/u8x8_d_st7571.c **** 	u8x8->x_offset = u8x8->display_info->default_x_offset;
  80              		.loc 1 110 0
  81 0030 2849     		ldr	r1, .L13+8
  82 0032 FFF7FEFF 		bl	u8x8_cad_SendSequence
  83              	.LVL7:
 111:..\u8g2\csrc/u8x8_d_st7571.c ****       }
  84              		.loc 1 111 0
  85 0036 2B68     		ldr	r3, [r5]
  86 0038 9B7C     		ldrb	r3, [r3, #18]	@ zero_extendqisi2
  87 003a 85F82230 		strb	r3, [r5, #34]
  88              		.loc 1 164 0
  89 003e 0120     		movs	r0, #1
  90 0040 F8BD     		pop	{r3, r4, r5, r6, r7, pc}
  91              	.LVL8:
  92              	.L9:
 115:..\u8g2\csrc/u8x8_d_st7571.c **** 	u8x8->x_offset = u8x8->display_info->flipmode_x_offset;
  93              		.loc 1 115 0
  94 0042 2549     		ldr	r1, .L13+12
  95 0044 FFF7FEFF 		bl	u8x8_cad_SendSequence
  96              	.LVL9:
 116:..\u8g2\csrc/u8x8_d_st7571.c ****       }
  97              		.loc 1 116 0
  98 0048 2B68     		ldr	r3, [r5]
  99 004a DB7C     		ldrb	r3, [r3, #19]	@ zero_extendqisi2
 100 004c 85F82230 		strb	r3, [r5, #34]
 101              		.loc 1 164 0
 102 0050 0120     		movs	r0, #1
 103 0052 F8BD     		pop	{r3, r4, r5, r6, r7, pc}
 104              	.LVL10:
 105              	.L6:
 121:..\u8g2\csrc/u8x8_d_st7571.c ****       u8x8_cad_SendCmd(u8x8, 0x081 );
 106              		.loc 1 121 0
 107 0054 FFF7FEFF 		bl	u8x8_cad_StartTransfer
 108              	.LVL11:
 122:..\u8g2\csrc/u8x8_d_st7571.c ****       u8x8_cad_SendArg(u8x8, arg_int>>2);			// 6 bit for the ST7571
 109              		.loc 1 122 0
 110 0058 8121     		movs	r1, #129
 111 005a 2846     		mov	r0, r5
 112 005c FFF7FEFF 		bl	u8x8_cad_SendCmd
 113              	.LVL12:
ARM GAS  C:\Users\brian\AppData\Local\Temp\ccQnWkUl.s 			page 6


 123:..\u8g2\csrc/u8x8_d_st7571.c ****       u8x8_cad_EndTransfer(u8x8);
 114              		.loc 1 123 0
 115 0060 A108     		lsrs	r1, r4, #2
 116 0062 2846     		mov	r0, r5
 117 0064 FFF7FEFF 		bl	u8x8_cad_SendArg
 118              	.LVL13:
 124:..\u8g2\csrc/u8x8_d_st7571.c ****       break;
 119              		.loc 1 124 0
 120 0068 2846     		mov	r0, r5
 121 006a FFF7FEFF 		bl	u8x8_cad_EndTransfer
 122              	.LVL14:
 123              		.loc 1 164 0
 124 006e 0120     		movs	r0, #1
 125:..\u8g2\csrc/u8x8_d_st7571.c **** #endif
 125              		.loc 1 125 0
 126 0070 F8BD     		pop	{r3, r4, r5, r6, r7, pc}
 127              	.LVL15:
 128              	.L7:
 128:..\u8g2\csrc/u8x8_d_st7571.c **** 
 129              		.loc 1 128 0
 130 0072 FFF7FEFF 		bl	u8x8_cad_StartTransfer
 131              	.LVL16:
 131:..\u8g2\csrc/u8x8_d_st7571.c ****       x *= 8;
 132              		.loc 1 131 0
 133 0076 7779     		ldrb	r7, [r6, #5]	@ zero_extendqisi2
 134              	.LVL17:
 133:..\u8g2\csrc/u8x8_d_st7571.c ****       u8x8_cad_SendCmd(u8x8, 0x010 | (x>>4) );
 135              		.loc 1 133 0
 136 0078 95F82230 		ldrb	r3, [r5, #34]	@ zero_extendqisi2
 137 007c 03EBC707 		add	r7, r3, r7, lsl #3
 138              	.LVL18:
 134:..\u8g2\csrc/u8x8_d_st7571.c ****       u8x8_cad_SendCmd(u8x8, 0x000 | ((x&15)));
 139              		.loc 1 134 0
 140 0080 3909     		lsrs	r1, r7, #4
 141 0082 41F01001 		orr	r1, r1, #16
 142 0086 C9B2     		uxtb	r1, r1
 143 0088 2846     		mov	r0, r5
 144 008a FFF7FEFF 		bl	u8x8_cad_SendCmd
 145              	.LVL19:
 135:..\u8g2\csrc/u8x8_d_st7571.c ****       u8x8_cad_SendCmd(u8x8, 0x0b0 | (((u8x8_tile_t *)arg_ptr)->y_pos));
 146              		.loc 1 135 0
 147 008e 07F00F01 		and	r1, r7, #15
 148 0092 2846     		mov	r0, r5
 149 0094 FFF7FEFF 		bl	u8x8_cad_SendCmd
 150              	.LVL20:
 136:..\u8g2\csrc/u8x8_d_st7571.c ****     
 151              		.loc 1 136 0
 152 0098 B179     		ldrb	r1, [r6, #6]	@ zero_extendqisi2
 153 009a 41F0B001 		orr	r1, r1, #176
 154 009e 2846     		mov	r0, r5
 155 00a0 FFF7FEFF 		bl	u8x8_cad_SendCmd
 156              	.LVL21:
 157              	.L10:
 142:..\u8g2\csrc/u8x8_d_st7571.c ****         ptr = ((u8x8_tile_t *)arg_ptr)->tile_ptr;
 158              		.loc 1 142 0 discriminator 1
 159 00a4 3179     		ldrb	r1, [r6, #4]	@ zero_extendqisi2
 160              	.LVL22:
ARM GAS  C:\Users\brian\AppData\Local\Temp\ccQnWkUl.s 			page 7


 154:..\u8g2\csrc/u8x8_d_st7571.c ****         arg_int--;
 161              		.loc 1 154 0 discriminator 1
 162 00a6 C900     		lsls	r1, r1, #3
 163              	.LVL23:
 164 00a8 3268     		ldr	r2, [r6]
 165 00aa 01F0F801 		and	r1, r1, #248
 166 00ae 2846     		mov	r0, r5
 167 00b0 FFF7FEFF 		bl	u8x8_cad_SendData
 168              	.LVL24:
 155:..\u8g2\csrc/u8x8_d_st7571.c ****       } while( arg_int > 0 );
 169              		.loc 1 155 0 discriminator 1
 170 00b4 621E     		subs	r2, r4, #1
 171              	.LVL25:
 156:..\u8g2\csrc/u8x8_d_st7571.c **** 
 172              		.loc 1 156 0 discriminator 1
 173 00b6 12F0FF04 		ands	r4, r2, #255
 174 00ba F3D1     		bne	.L10
 159:..\u8g2\csrc/u8x8_d_st7571.c ****       break;
 175              		.loc 1 159 0
 176 00bc 2846     		mov	r0, r5
 177 00be FFF7FEFF 		bl	u8x8_cad_EndTransfer
 178              	.LVL26:
 179              		.loc 1 164 0
 180 00c2 0120     		movs	r0, #1
 160:..\u8g2\csrc/u8x8_d_st7571.c ****     default:
 181              		.loc 1 160 0
 182 00c4 F8BD     		pop	{r3, r4, r5, r6, r7, pc}
 183              	.LVL27:
 184              	.L11:
 162:..\u8g2\csrc/u8x8_d_st7571.c ****   }
 185              		.loc 1 162 0
 186 00c6 0020     		movs	r0, #0
 187              	.LVL28:
 165:..\u8g2\csrc/u8x8_d_st7571.c **** }
 188              		.loc 1 165 0
 189 00c8 F8BD     		pop	{r3, r4, r5, r6, r7, pc}
 190              	.LVL29:
 191              	.L14:
 192 00ca 00BF     		.align	2
 193              	.L13:
 194 00cc 00000000 		.word	.LANCHOR0
 195 00d0 0C000000 		.word	.LANCHOR0+12
 196 00d4 14000000 		.word	.LANCHOR0+20
 197 00d8 1C000000 		.word	.LANCHOR0+28
 198              		.cfi_endproc
 199              	.LFE0:
 200              		.size	u8x8_d_st7571_generic, .-u8x8_d_st7571_generic
 201              		.section	.text.u8x8_d_st7571_128x128,"ax",%progbits
 202              		.align	2
 203              		.global	u8x8_d_st7571_128x128
 204              		.thumb
 205              		.thumb_func
 206              		.type	u8x8_d_st7571_128x128, %function
 207              	u8x8_d_st7571_128x128:
 208              	.LFB1:
 166:..\u8g2\csrc/u8x8_d_st7571.c **** 
 167:..\u8g2\csrc/u8x8_d_st7571.c **** /*===================================================*/
ARM GAS  C:\Users\brian\AppData\Local\Temp\ccQnWkUl.s 			page 8


 168:..\u8g2\csrc/u8x8_d_st7571.c **** 
 169:..\u8g2\csrc/u8x8_d_st7571.c **** 
 170:..\u8g2\csrc/u8x8_d_st7571.c **** /* QT-2832TSWUG02/ZJY-2832TSWZG02 */
 171:..\u8g2\csrc/u8x8_d_st7571.c **** static const uint8_t u8x8_d_st7571_128x128_init_seq[] = {
 172:..\u8g2\csrc/u8x8_d_st7571.c ****     
 173:..\u8g2\csrc/u8x8_d_st7571.c ****   U8X8_START_TRANSFER(),             	/* enable chip, delay is part of the transfer start */
 174:..\u8g2\csrc/u8x8_d_st7571.c **** 
 175:..\u8g2\csrc/u8x8_d_st7571.c ****   
 176:..\u8g2\csrc/u8x8_d_st7571.c ****   U8X8_C(0xAE), 				// Display OFF
 177:..\u8g2\csrc/u8x8_d_st7571.c ****   U8X8_C(0x38), 				// Mode Set  
 178:..\u8g2\csrc/u8x8_d_st7571.c ****   U8X8_C(0xB8), 				// FR=1011 (85Hz), BE[1:0]=10, level 3 booster
 179:..\u8g2\csrc/u8x8_d_st7571.c ****   
 180:..\u8g2\csrc/u8x8_d_st7571.c ****   
 181:..\u8g2\csrc/u8x8_d_st7571.c ****   U8X8_C(0xA0), 				// ADC select
 182:..\u8g2\csrc/u8x8_d_st7571.c ****   U8X8_C(0xC8), 				// SHL select
 183:..\u8g2\csrc/u8x8_d_st7571.c ****   U8X8_CA(0x44, 0x00), 		// COM0 register  
 184:..\u8g2\csrc/u8x8_d_st7571.c ****   U8X8_CA(0x40, 0x7f), 		// initial display line  (0x7f... strange but ok... maybe specific for the
 185:..\u8g2\csrc/u8x8_d_st7571.c ****                                                         // 2 sep 2021: maybe this also wrong becaus
 186:..\u8g2\csrc/u8x8_d_st7571.c ****   
 187:..\u8g2\csrc/u8x8_d_st7571.c ****   U8X8_C(0xAB), 				// OSC ON  
 188:..\u8g2\csrc/u8x8_d_st7571.c ****   U8X8_C(0x25), 				// Voltage regulator
 189:..\u8g2\csrc/u8x8_d_st7571.c ****   U8X8_CA(0x81, 0x33), 		// Volume
 190:..\u8g2\csrc/u8x8_d_st7571.c ****   U8X8_C(0x54), 				// LCD Bias: 0x056=1/11 (1/11 according to JLX128128 datasheet), 0x054=1/9
 191:..\u8g2\csrc/u8x8_d_st7571.c ****   U8X8_CA(0x44, 0x7f), 		// Duty 1/128   // 2 Sep 2021: Should this be 00x48???
 192:..\u8g2\csrc/u8x8_d_st7571.c ****   
 193:..\u8g2\csrc/u8x8_d_st7571.c ****   U8X8_C(0x2C), 				// Power Control, VC: ON, VR: OFF, VF: OFF
 194:..\u8g2\csrc/u8x8_d_st7571.c ****   U8X8_DLY(200),
 195:..\u8g2\csrc/u8x8_d_st7571.c ****   U8X8_C(0x2E), 				// Power Control, VC: ON, VR: ON, VF: OFF
 196:..\u8g2\csrc/u8x8_d_st7571.c ****   U8X8_DLY(200),
 197:..\u8g2\csrc/u8x8_d_st7571.c ****   U8X8_C(0x2F), 				// Power Control, VC: ON, VR: ON, VF: ON
 198:..\u8g2\csrc/u8x8_d_st7571.c ****   U8X8_DLY(10),
 199:..\u8g2\csrc/u8x8_d_st7571.c **** 
 200:..\u8g2\csrc/u8x8_d_st7571.c ****   U8X8_C(0x7B), 				// command set 3
 201:..\u8g2\csrc/u8x8_d_st7571.c ****   U8X8_C(0x11), 				// black white mode
 202:..\u8g2\csrc/u8x8_d_st7571.c ****   U8X8_C(0x00), 				// exit command set 3
 203:..\u8g2\csrc/u8x8_d_st7571.c **** 
 204:..\u8g2\csrc/u8x8_d_st7571.c **** 
 205:..\u8g2\csrc/u8x8_d_st7571.c ****   U8X8_C(0xA6), 				// Display Inverse OFF
 206:..\u8g2\csrc/u8x8_d_st7571.c ****   U8X8_C(0xA4), 				// Disable Display All Pixel ON
 207:..\u8g2\csrc/u8x8_d_st7571.c **** 
 208:..\u8g2\csrc/u8x8_d_st7571.c ****   //U8X8_C(0xAF), 				// Display on
 209:..\u8g2\csrc/u8x8_d_st7571.c **** 
 210:..\u8g2\csrc/u8x8_d_st7571.c **** 
 211:..\u8g2\csrc/u8x8_d_st7571.c ****   U8X8_END_TRANSFER(),             	/* disable chip */
 212:..\u8g2\csrc/u8x8_d_st7571.c ****   U8X8_END()           			/* end of sequence */
 213:..\u8g2\csrc/u8x8_d_st7571.c **** };
 214:..\u8g2\csrc/u8x8_d_st7571.c **** 
 215:..\u8g2\csrc/u8x8_d_st7571.c **** 
 216:..\u8g2\csrc/u8x8_d_st7571.c **** 
 217:..\u8g2\csrc/u8x8_d_st7571.c **** 
 218:..\u8g2\csrc/u8x8_d_st7571.c **** static const u8x8_display_info_t u8x8_st7571_128x128_display_info =
 219:..\u8g2\csrc/u8x8_d_st7571.c **** {
 220:..\u8g2\csrc/u8x8_d_st7571.c ****   /* chip_enable_level = */ 0,
 221:..\u8g2\csrc/u8x8_d_st7571.c ****   /* chip_disable_level = */ 1,
 222:..\u8g2\csrc/u8x8_d_st7571.c ****   
 223:..\u8g2\csrc/u8x8_d_st7571.c ****   /* post_chip_enable_wait_ns = */ 20,
 224:..\u8g2\csrc/u8x8_d_st7571.c ****   /* pre_chip_disable_wait_ns = */ 20,
ARM GAS  C:\Users\brian\AppData\Local\Temp\ccQnWkUl.s 			page 9


 225:..\u8g2\csrc/u8x8_d_st7571.c ****   /* reset_pulse_width_ms = */ 5, 	
 226:..\u8g2\csrc/u8x8_d_st7571.c ****   /* post_reset_wait_ms = */ 5, 		/**/
 227:..\u8g2\csrc/u8x8_d_st7571.c ****   /* sda_setup_time_ns = */ 20,		/* */
 228:..\u8g2\csrc/u8x8_d_st7571.c ****   /* sck_pulse_width_ns = */ 40,	/*  */
 229:..\u8g2\csrc/u8x8_d_st7571.c ****   /* sck_clock_hz = */ 4000000UL,	/* since Arduino 1.6.0, the SPI bus speed in Hz. Should be  10000
 230:..\u8g2\csrc/u8x8_d_st7571.c ****   /* spi_mode = */ 0,		/* active high, rising edge */
 231:..\u8g2\csrc/u8x8_d_st7571.c ****   /* i2c_bus_clock_100kHz = */ 4,	/* 400KHz */
 232:..\u8g2\csrc/u8x8_d_st7571.c ****   /* data_setup_time_ns = */ 15,
 233:..\u8g2\csrc/u8x8_d_st7571.c ****   /* write_pulse_width_ns = */ 70,	
 234:..\u8g2\csrc/u8x8_d_st7571.c ****   /* tile_width = */ 16,
 235:..\u8g2\csrc/u8x8_d_st7571.c ****   /* tile_hight = */ 16,
 236:..\u8g2\csrc/u8x8_d_st7571.c ****   /* default_x_offset = */ 0,
 237:..\u8g2\csrc/u8x8_d_st7571.c ****   /* flipmode_x_offset = */ 0,
 238:..\u8g2\csrc/u8x8_d_st7571.c ****   /* pixel_width = */ 128,
 239:..\u8g2\csrc/u8x8_d_st7571.c ****   /* pixel_height = */ 128
 240:..\u8g2\csrc/u8x8_d_st7571.c **** };
 241:..\u8g2\csrc/u8x8_d_st7571.c **** 
 242:..\u8g2\csrc/u8x8_d_st7571.c **** uint8_t u8x8_d_st7571_128x128(u8x8_t *u8x8, uint8_t msg, uint8_t arg_int, void *arg_ptr)
 243:..\u8g2\csrc/u8x8_d_st7571.c **** {
 209              		.loc 1 243 0
 210              		.cfi_startproc
 211              		@ args = 0, pretend = 0, frame = 0
 212              		@ frame_needed = 0, uses_anonymous_args = 0
 213              	.LVL30:
 214 0000 38B5     		push	{r3, r4, r5, lr}
 215              		.cfi_def_cfa_offset 16
 216              		.cfi_offset 3, -16
 217              		.cfi_offset 4, -12
 218              		.cfi_offset 5, -8
 219              		.cfi_offset 14, -4
 220 0002 0546     		mov	r5, r0
 221 0004 0C46     		mov	r4, r1
 244:..\u8g2\csrc/u8x8_d_st7571.c ****     
 245:..\u8g2\csrc/u8x8_d_st7571.c ****   if ( u8x8_d_st7571_generic(u8x8, msg, arg_int, arg_ptr) != 0 )
 222              		.loc 1 245 0
 223 0006 FFF7FEFF 		bl	u8x8_d_st7571_generic
 224              	.LVL31:
 225 000a 98B9     		cbnz	r0, .L19
 226 000c 0346     		mov	r3, r0
 246:..\u8g2\csrc/u8x8_d_st7571.c ****     return 1;
 247:..\u8g2\csrc/u8x8_d_st7571.c ****   
 248:..\u8g2\csrc/u8x8_d_st7571.c ****   switch(msg)
 227              		.loc 1 248 0
 228 000e 092C     		cmp	r4, #9
 229 0010 0AD0     		beq	.L17
 230 0012 0A2C     		cmp	r4, #10
 231 0014 0FD1     		bne	.L16
 249:..\u8g2\csrc/u8x8_d_st7571.c ****   {
 250:..\u8g2\csrc/u8x8_d_st7571.c ****     case U8X8_MSG_DISPLAY_INIT:
 251:..\u8g2\csrc/u8x8_d_st7571.c ****       u8x8_d_helper_display_init(u8x8);
 232              		.loc 1 251 0
 233 0016 2846     		mov	r0, r5
 234 0018 FFF7FEFF 		bl	u8x8_d_helper_display_init
 235              	.LVL32:
 252:..\u8g2\csrc/u8x8_d_st7571.c ****       u8x8_cad_SendSequence(u8x8, u8x8_d_st7571_128x128_init_seq); 
 236              		.loc 1 252 0
 237 001c 0749     		ldr	r1, .L21
ARM GAS  C:\Users\brian\AppData\Local\Temp\ccQnWkUl.s 			page 10


 238 001e 2846     		mov	r0, r5
 239 0020 FFF7FEFF 		bl	u8x8_cad_SendSequence
 240              	.LVL33:
 253:..\u8g2\csrc/u8x8_d_st7571.c ****       break;
 254:..\u8g2\csrc/u8x8_d_st7571.c ****     case U8X8_MSG_DISPLAY_SETUP_MEMORY:
 255:..\u8g2\csrc/u8x8_d_st7571.c ****       u8x8_d_helper_display_setup_memory(u8x8, &u8x8_st7571_128x128_display_info);
 256:..\u8g2\csrc/u8x8_d_st7571.c ****       break;
 257:..\u8g2\csrc/u8x8_d_st7571.c ****     default:
 258:..\u8g2\csrc/u8x8_d_st7571.c ****       return 0;
 259:..\u8g2\csrc/u8x8_d_st7571.c ****   }
 260:..\u8g2\csrc/u8x8_d_st7571.c ****   return 1;
 241              		.loc 1 260 0
 242 0024 0123     		movs	r3, #1
 253:..\u8g2\csrc/u8x8_d_st7571.c ****       break;
 243              		.loc 1 253 0
 244 0026 06E0     		b	.L16
 245              	.L17:
 255:..\u8g2\csrc/u8x8_d_st7571.c ****       break;
 246              		.loc 1 255 0
 247 0028 0549     		ldr	r1, .L21+4
 248 002a 2846     		mov	r0, r5
 249 002c FFF7FEFF 		bl	u8x8_d_helper_display_setup_memory
 250              	.LVL34:
 251              		.loc 1 260 0
 252 0030 0123     		movs	r3, #1
 256:..\u8g2\csrc/u8x8_d_st7571.c ****     default:
 253              		.loc 1 256 0
 254 0032 00E0     		b	.L16
 255              	.L19:
 246:..\u8g2\csrc/u8x8_d_st7571.c ****   
 256              		.loc 1 246 0
 257 0034 0123     		movs	r3, #1
 258              	.L16:
 261:..\u8g2\csrc/u8x8_d_st7571.c **** }
 259              		.loc 1 261 0
 260 0036 1846     		mov	r0, r3
 261 0038 38BD     		pop	{r3, r4, r5, pc}
 262              	.LVL35:
 263              	.L22:
 264 003a 00BF     		.align	2
 265              	.L21:
 266 003c 24000000 		.word	.LANCHOR0+36
 267 0040 60000000 		.word	.LANCHOR0+96
 268              		.cfi_endproc
 269              	.LFE1:
 270              		.size	u8x8_d_st7571_128x128, .-u8x8_d_st7571_128x128
 271              		.section	.text.u8x8_d_st7571_128x96,"ax",%progbits
 272              		.align	2
 273              		.global	u8x8_d_st7571_128x96
 274              		.thumb
 275              		.thumb_func
 276              		.type	u8x8_d_st7571_128x96, %function
 277              	u8x8_d_st7571_128x96:
 278              	.LFB2:
 262:..\u8g2\csrc/u8x8_d_st7571.c **** 
 263:..\u8g2\csrc/u8x8_d_st7571.c **** 
 264:..\u8g2\csrc/u8x8_d_st7571.c **** 
ARM GAS  C:\Users\brian\AppData\Local\Temp\ccQnWkUl.s 			page 11


 265:..\u8g2\csrc/u8x8_d_st7571.c **** 
 266:..\u8g2\csrc/u8x8_d_st7571.c **** /*===================================================*/
 267:..\u8g2\csrc/u8x8_d_st7571.c **** /*
 268:..\u8g2\csrc/u8x8_d_st7571.c ****   https://github.com/olikraus/u8g2/issues/1575
 269:..\u8g2\csrc/u8x8_d_st7571.c ****   http://www.jlxlcd.cn/html/zh-detail-1211.html 
 270:..\u8g2\csrc/u8x8_d_st7571.c **** */
 271:..\u8g2\csrc/u8x8_d_st7571.c **** static const uint8_t u8x8_d_st7571_128x96_init_seq[] = {
 272:..\u8g2\csrc/u8x8_d_st7571.c ****     
 273:..\u8g2\csrc/u8x8_d_st7571.c ****   U8X8_START_TRANSFER(),             	/* enable chip, delay is part of the transfer start */
 274:..\u8g2\csrc/u8x8_d_st7571.c **** 
 275:..\u8g2\csrc/u8x8_d_st7571.c ****   
 276:..\u8g2\csrc/u8x8_d_st7571.c ****   U8X8_C(0xAE), 				// Display OFF
 277:..\u8g2\csrc/u8x8_d_st7571.c ****   U8X8_C(0x38), 				// Mode Set  
 278:..\u8g2\csrc/u8x8_d_st7571.c ****   //U8X8_C(0xB8), 				// FR=1011 (85Hz), BE[1:0]=10, level 3 booster
 279:..\u8g2\csrc/u8x8_d_st7571.c ****   U8X8_C(0x94),                                 // 128x96: 75 Hz 
 280:..\u8g2\csrc/u8x8_d_st7571.c ****   
 281:..\u8g2\csrc/u8x8_d_st7571.c ****   U8X8_C(0xA0), 				// ADC select
 282:..\u8g2\csrc/u8x8_d_st7571.c ****   U8X8_C(0xC8), 				// SHL select
 283:..\u8g2\csrc/u8x8_d_st7571.c ****   U8X8_CA(0x44, 0x20), 		// 128x96: COM0 register  
 284:..\u8g2\csrc/u8x8_d_st7571.c ****   U8X8_CA(0x40, 0x00), 		// 128x96 datasheet
 285:..\u8g2\csrc/u8x8_d_st7571.c ****   
 286:..\u8g2\csrc/u8x8_d_st7571.c ****   U8X8_C(0xAB), 				// OSC ON  
 287:..\u8g2\csrc/u8x8_d_st7571.c ****   U8X8_C(0x27), 				// 128x96: Voltage regulator
 288:..\u8g2\csrc/u8x8_d_st7571.c ****   U8X8_CA(0x81, 0x28), 		// 128x96: Volume
 289:..\u8g2\csrc/u8x8_d_st7571.c ****   U8X8_C(0x57), 				// 128x96: LCD Bias: 1/12 
 290:..\u8g2\csrc/u8x8_d_st7571.c ****   U8X8_CA(0x48, 0x61), 		// 128x96: Duty 1/96
 291:..\u8g2\csrc/u8x8_d_st7571.c ****   
 292:..\u8g2\csrc/u8x8_d_st7571.c ****   U8X8_C(0x2C), 				// Power Control, VC: ON, VR: OFF, VF: OFF
 293:..\u8g2\csrc/u8x8_d_st7571.c ****   U8X8_DLY(200),
 294:..\u8g2\csrc/u8x8_d_st7571.c ****   U8X8_C(0x2E), 				// Power Control, VC: ON, VR: ON, VF: OFF
 295:..\u8g2\csrc/u8x8_d_st7571.c ****   U8X8_DLY(200),
 296:..\u8g2\csrc/u8x8_d_st7571.c ****   U8X8_C(0x2F), 				// Power Control, VC: ON, VR: ON, VF: ON
 297:..\u8g2\csrc/u8x8_d_st7571.c ****   U8X8_DLY(10),
 298:..\u8g2\csrc/u8x8_d_st7571.c **** 
 299:..\u8g2\csrc/u8x8_d_st7571.c ****   U8X8_C(0x7B), 				// command set 3
 300:..\u8g2\csrc/u8x8_d_st7571.c ****   U8X8_C(0x11), 				// black white mode
 301:..\u8g2\csrc/u8x8_d_st7571.c ****   U8X8_C(0x00), 				// exit command set 3
 302:..\u8g2\csrc/u8x8_d_st7571.c **** 
 303:..\u8g2\csrc/u8x8_d_st7571.c **** 
 304:..\u8g2\csrc/u8x8_d_st7571.c ****   U8X8_C(0xA6), 				// Display Inverse OFF
 305:..\u8g2\csrc/u8x8_d_st7571.c ****   U8X8_C(0xA4), 				// Disable Display All Pixel ON
 306:..\u8g2\csrc/u8x8_d_st7571.c **** 
 307:..\u8g2\csrc/u8x8_d_st7571.c ****   //U8X8_C(0xAF), 				// Display on
 308:..\u8g2\csrc/u8x8_d_st7571.c **** 
 309:..\u8g2\csrc/u8x8_d_st7571.c **** 
 310:..\u8g2\csrc/u8x8_d_st7571.c ****   U8X8_END_TRANSFER(),             	/* disable chip */
 311:..\u8g2\csrc/u8x8_d_st7571.c ****   U8X8_END()           			/* end of sequence */
 312:..\u8g2\csrc/u8x8_d_st7571.c **** };
 313:..\u8g2\csrc/u8x8_d_st7571.c **** 
 314:..\u8g2\csrc/u8x8_d_st7571.c **** 
 315:..\u8g2\csrc/u8x8_d_st7571.c **** 
 316:..\u8g2\csrc/u8x8_d_st7571.c **** 
 317:..\u8g2\csrc/u8x8_d_st7571.c **** static const u8x8_display_info_t u8x8_st7571_128x96_display_info =
 318:..\u8g2\csrc/u8x8_d_st7571.c **** {
 319:..\u8g2\csrc/u8x8_d_st7571.c ****   /* chip_enable_level = */ 0,
 320:..\u8g2\csrc/u8x8_d_st7571.c ****   /* chip_disable_level = */ 1,
 321:..\u8g2\csrc/u8x8_d_st7571.c ****   
ARM GAS  C:\Users\brian\AppData\Local\Temp\ccQnWkUl.s 			page 12


 322:..\u8g2\csrc/u8x8_d_st7571.c ****   /* post_chip_enable_wait_ns = */ 20,
 323:..\u8g2\csrc/u8x8_d_st7571.c ****   /* pre_chip_disable_wait_ns = */ 20,
 324:..\u8g2\csrc/u8x8_d_st7571.c ****   /* reset_pulse_width_ms = */ 5, 	
 325:..\u8g2\csrc/u8x8_d_st7571.c ****   /* post_reset_wait_ms = */ 5, 		/**/
 326:..\u8g2\csrc/u8x8_d_st7571.c ****   /* sda_setup_time_ns = */ 20,		/* */
 327:..\u8g2\csrc/u8x8_d_st7571.c ****   /* sck_pulse_width_ns = */ 40,	/*  */
 328:..\u8g2\csrc/u8x8_d_st7571.c ****   /* sck_clock_hz = */ 4000000UL,	/* since Arduino 1.6.0, the SPI bus speed in Hz. Should be  10000
 329:..\u8g2\csrc/u8x8_d_st7571.c ****   /* spi_mode = */ 0,		/* active high, rising edge */
 330:..\u8g2\csrc/u8x8_d_st7571.c ****   /* i2c_bus_clock_100kHz = */ 4,	/* 400KHz */
 331:..\u8g2\csrc/u8x8_d_st7571.c ****   /* data_setup_time_ns = */ 15,
 332:..\u8g2\csrc/u8x8_d_st7571.c ****   /* write_pulse_width_ns = */ 70,	
 333:..\u8g2\csrc/u8x8_d_st7571.c ****   /* tile_width = */ 16,
 334:..\u8g2\csrc/u8x8_d_st7571.c ****   /* tile_hight = */ 12,
 335:..\u8g2\csrc/u8x8_d_st7571.c ****   /* default_x_offset = */ 0,
 336:..\u8g2\csrc/u8x8_d_st7571.c ****   /* flipmode_x_offset = */ 0,
 337:..\u8g2\csrc/u8x8_d_st7571.c ****   /* pixel_width = */ 128,
 338:..\u8g2\csrc/u8x8_d_st7571.c ****   /* pixel_height = */ 96
 339:..\u8g2\csrc/u8x8_d_st7571.c **** };
 340:..\u8g2\csrc/u8x8_d_st7571.c **** 
 341:..\u8g2\csrc/u8x8_d_st7571.c **** uint8_t u8x8_d_st7571_128x96(u8x8_t *u8x8, uint8_t msg, uint8_t arg_int, void *arg_ptr)
 342:..\u8g2\csrc/u8x8_d_st7571.c **** {
 279              		.loc 1 342 0
 280              		.cfi_startproc
 281              		@ args = 0, pretend = 0, frame = 0
 282              		@ frame_needed = 0, uses_anonymous_args = 0
 283              	.LVL36:
 284 0000 38B5     		push	{r3, r4, r5, lr}
 285              		.cfi_def_cfa_offset 16
 286              		.cfi_offset 3, -16
 287              		.cfi_offset 4, -12
 288              		.cfi_offset 5, -8
 289              		.cfi_offset 14, -4
 290 0002 0546     		mov	r5, r0
 291 0004 0C46     		mov	r4, r1
 343:..\u8g2\csrc/u8x8_d_st7571.c ****     
 344:..\u8g2\csrc/u8x8_d_st7571.c ****   if ( u8x8_d_st7571_generic(u8x8, msg, arg_int, arg_ptr) != 0 )
 292              		.loc 1 344 0
 293 0006 FFF7FEFF 		bl	u8x8_d_st7571_generic
 294              	.LVL37:
 295 000a 98B9     		cbnz	r0, .L27
 296 000c 0346     		mov	r3, r0
 345:..\u8g2\csrc/u8x8_d_st7571.c ****     return 1;
 346:..\u8g2\csrc/u8x8_d_st7571.c ****   
 347:..\u8g2\csrc/u8x8_d_st7571.c ****   switch(msg)
 297              		.loc 1 347 0
 298 000e 092C     		cmp	r4, #9
 299 0010 0AD0     		beq	.L25
 300 0012 0A2C     		cmp	r4, #10
 301 0014 0FD1     		bne	.L24
 348:..\u8g2\csrc/u8x8_d_st7571.c ****   {
 349:..\u8g2\csrc/u8x8_d_st7571.c ****     case U8X8_MSG_DISPLAY_INIT:
 350:..\u8g2\csrc/u8x8_d_st7571.c ****       u8x8_d_helper_display_init(u8x8);
 302              		.loc 1 350 0
 303 0016 2846     		mov	r0, r5
 304 0018 FFF7FEFF 		bl	u8x8_d_helper_display_init
 305              	.LVL38:
 351:..\u8g2\csrc/u8x8_d_st7571.c ****       u8x8_cad_SendSequence(u8x8, u8x8_d_st7571_128x96_init_seq); 
ARM GAS  C:\Users\brian\AppData\Local\Temp\ccQnWkUl.s 			page 13


 306              		.loc 1 351 0
 307 001c 0749     		ldr	r1, .L29
 308 001e 2846     		mov	r0, r5
 309 0020 FFF7FEFF 		bl	u8x8_cad_SendSequence
 310              	.LVL39:
 352:..\u8g2\csrc/u8x8_d_st7571.c ****       break;
 353:..\u8g2\csrc/u8x8_d_st7571.c ****     case U8X8_MSG_DISPLAY_SETUP_MEMORY:
 354:..\u8g2\csrc/u8x8_d_st7571.c ****       u8x8_d_helper_display_setup_memory(u8x8, &u8x8_st7571_128x96_display_info);
 355:..\u8g2\csrc/u8x8_d_st7571.c ****       break;
 356:..\u8g2\csrc/u8x8_d_st7571.c ****     default:
 357:..\u8g2\csrc/u8x8_d_st7571.c ****       return 0;
 358:..\u8g2\csrc/u8x8_d_st7571.c ****   }
 359:..\u8g2\csrc/u8x8_d_st7571.c ****   return 1;
 311              		.loc 1 359 0
 312 0024 0123     		movs	r3, #1
 352:..\u8g2\csrc/u8x8_d_st7571.c ****       break;
 313              		.loc 1 352 0
 314 0026 06E0     		b	.L24
 315              	.L25:
 354:..\u8g2\csrc/u8x8_d_st7571.c ****       break;
 316              		.loc 1 354 0
 317 0028 0549     		ldr	r1, .L29+4
 318 002a 2846     		mov	r0, r5
 319 002c FFF7FEFF 		bl	u8x8_d_helper_display_setup_memory
 320              	.LVL40:
 321              		.loc 1 359 0
 322 0030 0123     		movs	r3, #1
 355:..\u8g2\csrc/u8x8_d_st7571.c ****     default:
 323              		.loc 1 355 0
 324 0032 00E0     		b	.L24
 325              	.L27:
 345:..\u8g2\csrc/u8x8_d_st7571.c ****   
 326              		.loc 1 345 0
 327 0034 0123     		movs	r3, #1
 328              	.L24:
 360:..\u8g2\csrc/u8x8_d_st7571.c **** }
 329              		.loc 1 360 0
 330 0036 1846     		mov	r0, r3
 331 0038 38BD     		pop	{r3, r4, r5, pc}
 332              	.LVL41:
 333              	.L30:
 334 003a 00BF     		.align	2
 335              	.L29:
 336 003c 78000000 		.word	.LANCHOR0+120
 337 0040 B4000000 		.word	.LANCHOR0+180
 338              		.cfi_endproc
 339              	.LFE2:
 340              		.size	u8x8_d_st7571_128x96, .-u8x8_d_st7571_128x96
 341              		.section	.rodata
 342              		.align	2
 343              		.set	.LANCHOR0,. + 0
 344              		.type	u8x8_d_st7571_128x128_powersave0_seq, %object
 345              		.size	u8x8_d_st7571_128x128_powersave0_seq, 9
 346              	u8x8_d_st7571_128x128_powersave0_seq:
 347 0000 18       		.byte	24
 348 0001 15       		.byte	21
 349 0002 71       		.byte	113
ARM GAS  C:\Users\brian\AppData\Local\Temp\ccQnWkUl.s 			page 14


 350 0003 15       		.byte	21
 351 0004 A8       		.byte	-88
 352 0005 15       		.byte	21
 353 0006 AF       		.byte	-81
 354 0007 19       		.byte	25
 355 0008 FF       		.byte	-1
 356 0009 000000   		.space	3
 357              		.type	u8x8_d_st7571_128x128_powersave1_seq, %object
 358              		.size	u8x8_d_st7571_128x128_powersave1_seq, 7
 359              	u8x8_d_st7571_128x128_powersave1_seq:
 360 000c 18       		.byte	24
 361 000d 15       		.byte	21
 362 000e AE       		.byte	-82
 363 000f 15       		.byte	21
 364 0010 A9       		.byte	-87
 365 0011 19       		.byte	25
 366 0012 FF       		.byte	-1
 367 0013 00       		.space	1
 368              		.type	u8x8_d_st7571_128x128_flip0_seq, %object
 369              		.size	u8x8_d_st7571_128x128_flip0_seq, 7
 370              	u8x8_d_st7571_128x128_flip0_seq:
 371 0014 18       		.byte	24
 372 0015 15       		.byte	21
 373 0016 A0       		.byte	-96
 374 0017 15       		.byte	21
 375 0018 C8       		.byte	-56
 376 0019 19       		.byte	25
 377 001a FF       		.byte	-1
 378 001b 00       		.space	1
 379              		.type	u8x8_d_st7571_128x128_flip1_seq, %object
 380              		.size	u8x8_d_st7571_128x128_flip1_seq, 7
 381              	u8x8_d_st7571_128x128_flip1_seq:
 382 001c 18       		.byte	24
 383 001d 15       		.byte	21
 384 001e A1       		.byte	-95
 385 001f 15       		.byte	21
 386 0020 C0       		.byte	-64
 387 0021 19       		.byte	25
 388 0022 FF       		.byte	-1
 389 0023 00       		.space	1
 390              		.type	u8x8_d_st7571_128x128_init_seq, %object
 391              		.size	u8x8_d_st7571_128x128_init_seq, 57
 392              	u8x8_d_st7571_128x128_init_seq:
 393 0024 18       		.byte	24
 394 0025 15       		.byte	21
 395 0026 AE       		.byte	-82
 396 0027 15       		.byte	21
 397 0028 38       		.byte	56
 398 0029 15       		.byte	21
 399 002a B8       		.byte	-72
 400 002b 15       		.byte	21
 401 002c A0       		.byte	-96
 402 002d 15       		.byte	21
 403 002e C8       		.byte	-56
 404 002f 15       		.byte	21
 405 0030 44       		.byte	68
 406 0031 16       		.byte	22
ARM GAS  C:\Users\brian\AppData\Local\Temp\ccQnWkUl.s 			page 15


 407 0032 00       		.byte	0
 408 0033 15       		.byte	21
 409 0034 40       		.byte	64
 410 0035 16       		.byte	22
 411 0036 7F       		.byte	127
 412 0037 15       		.byte	21
 413 0038 AB       		.byte	-85
 414 0039 15       		.byte	21
 415 003a 25       		.byte	37
 416 003b 15       		.byte	21
 417 003c 81       		.byte	-127
 418 003d 16       		.byte	22
 419 003e 33       		.byte	51
 420 003f 15       		.byte	21
 421 0040 54       		.byte	84
 422 0041 15       		.byte	21
 423 0042 44       		.byte	68
 424 0043 16       		.byte	22
 425 0044 7F       		.byte	127
 426 0045 15       		.byte	21
 427 0046 2C       		.byte	44
 428 0047 FE       		.byte	-2
 429 0048 C8       		.byte	-56
 430 0049 15       		.byte	21
 431 004a 2E       		.byte	46
 432 004b FE       		.byte	-2
 433 004c C8       		.byte	-56
 434 004d 15       		.byte	21
 435 004e 2F       		.byte	47
 436 004f FE       		.byte	-2
 437 0050 0A       		.byte	10
 438 0051 15       		.byte	21
 439 0052 7B       		.byte	123
 440 0053 15       		.byte	21
 441 0054 11       		.byte	17
 442 0055 15       		.byte	21
 443 0056 00       		.byte	0
 444 0057 15       		.byte	21
 445 0058 A6       		.byte	-90
 446 0059 15       		.byte	21
 447 005a A4       		.byte	-92
 448 005b 19       		.byte	25
 449 005c FF       		.byte	-1
 450 005d 000000   		.space	3
 451              		.type	u8x8_st7571_128x128_display_info, %object
 452              		.size	u8x8_st7571_128x128_display_info, 24
 453              	u8x8_st7571_128x128_display_info:
 454 0060 00       		.byte	0
 455 0061 01       		.byte	1
 456 0062 14       		.byte	20
 457 0063 14       		.byte	20
 458 0064 05       		.byte	5
 459 0065 05       		.byte	5
 460 0066 14       		.byte	20
 461 0067 28       		.byte	40
 462 0068 00093D00 		.word	4000000
 463 006c 00       		.byte	0
ARM GAS  C:\Users\brian\AppData\Local\Temp\ccQnWkUl.s 			page 16


 464 006d 04       		.byte	4
 465 006e 0F       		.byte	15
 466 006f 46       		.byte	70
 467 0070 10       		.byte	16
 468 0071 10       		.byte	16
 469 0072 00       		.byte	0
 470 0073 00       		.byte	0
 471 0074 8000     		.short	128
 472 0076 8000     		.short	128
 473              		.type	u8x8_d_st7571_128x96_init_seq, %object
 474              		.size	u8x8_d_st7571_128x96_init_seq, 57
 475              	u8x8_d_st7571_128x96_init_seq:
 476 0078 18       		.byte	24
 477 0079 15       		.byte	21
 478 007a AE       		.byte	-82
 479 007b 15       		.byte	21
 480 007c 38       		.byte	56
 481 007d 15       		.byte	21
 482 007e 94       		.byte	-108
 483 007f 15       		.byte	21
 484 0080 A0       		.byte	-96
 485 0081 15       		.byte	21
 486 0082 C8       		.byte	-56
 487 0083 15       		.byte	21
 488 0084 44       		.byte	68
 489 0085 16       		.byte	22
 490 0086 20       		.byte	32
 491 0087 15       		.byte	21
 492 0088 40       		.byte	64
 493 0089 16       		.byte	22
 494 008a 00       		.byte	0
 495 008b 15       		.byte	21
 496 008c AB       		.byte	-85
 497 008d 15       		.byte	21
 498 008e 27       		.byte	39
 499 008f 15       		.byte	21
 500 0090 81       		.byte	-127
 501 0091 16       		.byte	22
 502 0092 28       		.byte	40
 503 0093 15       		.byte	21
 504 0094 57       		.byte	87
 505 0095 15       		.byte	21
 506 0096 48       		.byte	72
 507 0097 16       		.byte	22
 508 0098 61       		.byte	97
 509 0099 15       		.byte	21
 510 009a 2C       		.byte	44
 511 009b FE       		.byte	-2
 512 009c C8       		.byte	-56
 513 009d 15       		.byte	21
 514 009e 2E       		.byte	46
 515 009f FE       		.byte	-2
 516 00a0 C8       		.byte	-56
 517 00a1 15       		.byte	21
 518 00a2 2F       		.byte	47
 519 00a3 FE       		.byte	-2
 520 00a4 0A       		.byte	10
ARM GAS  C:\Users\brian\AppData\Local\Temp\ccQnWkUl.s 			page 17


 521 00a5 15       		.byte	21
 522 00a6 7B       		.byte	123
 523 00a7 15       		.byte	21
 524 00a8 11       		.byte	17
 525 00a9 15       		.byte	21
 526 00aa 00       		.byte	0
 527 00ab 15       		.byte	21
 528 00ac A6       		.byte	-90
 529 00ad 15       		.byte	21
 530 00ae A4       		.byte	-92
 531 00af 19       		.byte	25
 532 00b0 FF       		.byte	-1
 533 00b1 000000   		.space	3
 534              		.type	u8x8_st7571_128x96_display_info, %object
 535              		.size	u8x8_st7571_128x96_display_info, 24
 536              	u8x8_st7571_128x96_display_info:
 537 00b4 00       		.byte	0
 538 00b5 01       		.byte	1
 539 00b6 14       		.byte	20
 540 00b7 14       		.byte	20
 541 00b8 05       		.byte	5
 542 00b9 05       		.byte	5
 543 00ba 14       		.byte	20
 544 00bb 28       		.byte	40
 545 00bc 00093D00 		.word	4000000
 546 00c0 00       		.byte	0
 547 00c1 04       		.byte	4
 548 00c2 0F       		.byte	15
 549 00c3 46       		.byte	70
 550 00c4 10       		.byte	16
 551 00c5 0C       		.byte	12
 552 00c6 00       		.byte	0
 553 00c7 00       		.byte	0
 554 00c8 8000     		.short	128
 555 00ca 6000     		.short	96
 556              		.text
 557              	.Letext0:
 558              		.file 2 "c:\\program files (x86)\\cypress\\psoc creator\\4.4\\psoc creator\\import\\gnu\\arm\\5.4.
 559              		.file 3 "c:\\program files (x86)\\cypress\\psoc creator\\4.4\\psoc creator\\import\\gnu\\arm\\5.4.
 560              		.file 4 "..\\u8g2\\csrc\\u8x8.h"