ARM GAS  C:\Users\brian\AppData\Local\Temp\cchHvIBZ.s 			page 1


   1              		.syntax unified
   2              		.cpu cortex-m3
   3              		.fpu softvfp
   4              		.eabi_attribute 20, 1
   5              		.eabi_attribute 21, 1
   6              		.eabi_attribute 23, 3
   7              		.eabi_attribute 24, 1
   8              		.eabi_attribute 25, 1
   9              		.eabi_attribute 26, 1
  10              		.eabi_attribute 30, 1
  11              		.eabi_attribute 34, 1
  12              		.eabi_attribute 18, 4
  13              		.thumb
  14              		.syntax unified
  15              		.file	"u8x8_d_uc1611.c"
  16              		.text
  17              	.Ltext0:
  18              		.cfi_sections	.debug_frame
  19              		.section	.text.u8x8_d_uc1611_common,"ax",%progbits
  20              		.align	2
  21              		.global	u8x8_d_uc1611_common
  22              		.thumb
  23              		.thumb_func
  24              		.type	u8x8_d_uc1611_common, %function
  25              	u8x8_d_uc1611_common:
  26              	.LFB0:
  27              		.file 1 "..\\u8g2\\csrc\\u8x8_d_uc1611.c"
   1:..\u8g2\csrc/u8x8_d_uc1611.c **** /*
   2:..\u8g2\csrc/u8x8_d_uc1611.c **** 
   3:..\u8g2\csrc/u8x8_d_uc1611.c ****   u8x8_d_uc1611.c
   4:..\u8g2\csrc/u8x8_d_uc1611.c ****   
   5:..\u8g2\csrc/u8x8_d_uc1611.c ****   Universal 8bit Graphics Library (https://github.com/olikraus/u8g2/)
   6:..\u8g2\csrc/u8x8_d_uc1611.c **** 
   7:..\u8g2\csrc/u8x8_d_uc1611.c ****   Copyright (c) 2016, olikraus@gmail.com
   8:..\u8g2\csrc/u8x8_d_uc1611.c ****   All rights reserved.
   9:..\u8g2\csrc/u8x8_d_uc1611.c **** 
  10:..\u8g2\csrc/u8x8_d_uc1611.c ****   Redistribution and use in source and binary forms, with or without modification, 
  11:..\u8g2\csrc/u8x8_d_uc1611.c ****   are permitted provided that the following conditions are met:
  12:..\u8g2\csrc/u8x8_d_uc1611.c **** 
  13:..\u8g2\csrc/u8x8_d_uc1611.c ****   * Redistributions of source code must retain the above copyright notice, this list 
  14:..\u8g2\csrc/u8x8_d_uc1611.c ****     of conditions and the following disclaimer.
  15:..\u8g2\csrc/u8x8_d_uc1611.c ****     
  16:..\u8g2\csrc/u8x8_d_uc1611.c ****   * Redistributions in binary form must reproduce the above copyright notice, this 
  17:..\u8g2\csrc/u8x8_d_uc1611.c ****     list of conditions and the following disclaimer in the documentation and/or other 
  18:..\u8g2\csrc/u8x8_d_uc1611.c ****     materials provided with the distribution.
  19:..\u8g2\csrc/u8x8_d_uc1611.c **** 
  20:..\u8g2\csrc/u8x8_d_uc1611.c ****   THIS SOFTWARE IS PROVIDED BY THE COPYRIGHT HOLDERS AND 
  21:..\u8g2\csrc/u8x8_d_uc1611.c ****   CONTRIBUTORS "AS IS" AND ANY EXPRESS OR IMPLIED WARRANTIES, 
  22:..\u8g2\csrc/u8x8_d_uc1611.c ****   INCLUDING, BUT NOT LIMITED TO, THE IMPLIED WARRANTIES OF 
  23:..\u8g2\csrc/u8x8_d_uc1611.c ****   MERCHANTABILITY AND FITNESS FOR A PARTICULAR PURPOSE ARE 
  24:..\u8g2\csrc/u8x8_d_uc1611.c ****   DISCLAIMED. IN NO EVENT SHALL THE COPYRIGHT HOLDER OR 
  25:..\u8g2\csrc/u8x8_d_uc1611.c ****   CONTRIBUTORS BE LIABLE FOR ANY DIRECT, INDIRECT, INCIDENTAL, 
  26:..\u8g2\csrc/u8x8_d_uc1611.c ****   SPECIAL, EXEMPLARY, OR CONSEQUENTIAL DAMAGES (INCLUDING, BUT 
  27:..\u8g2\csrc/u8x8_d_uc1611.c ****   NOT LIMITED TO, PROCUREMENT OF SUBSTITUTE GOODS OR SERVICES; 
  28:..\u8g2\csrc/u8x8_d_uc1611.c ****   LOSS OF USE, DATA, OR PROFITS; OR BUSINESS INTERRUPTION) HOWEVER 
  29:..\u8g2\csrc/u8x8_d_uc1611.c ****   CAUSED AND ON ANY THEORY OF LIABILITY, WHETHER IN CONTRACT, 
  30:..\u8g2\csrc/u8x8_d_uc1611.c ****   STRICT LIABILITY, OR TORT (INCLUDING NEGLIGENCE OR OTHERWISE) 
ARM GAS  C:\Users\brian\AppData\Local\Temp\cchHvIBZ.s 			page 2


  31:..\u8g2\csrc/u8x8_d_uc1611.c ****   ARISING IN ANY WAY OUT OF THE USE OF THIS SOFTWARE, EVEN IF 
  32:..\u8g2\csrc/u8x8_d_uc1611.c ****   ADVISED OF THE POSSIBILITY OF SUCH DAMAGE.  
  33:..\u8g2\csrc/u8x8_d_uc1611.c **** 
  34:..\u8g2\csrc/u8x8_d_uc1611.c **** 
  35:..\u8g2\csrc/u8x8_d_uc1611.c ****   6 Nov 2016: Not yet finished
  36:..\u8g2\csrc/u8x8_d_uc1611.c ****   
  37:..\u8g2\csrc/u8x8_d_uc1611.c ****   There are two controller:
  38:..\u8g2\csrc/u8x8_d_uc1611.c ****   UC1611s		160x256
  39:..\u8g2\csrc/u8x8_d_uc1611.c ****   UC1611			160x240
  40:..\u8g2\csrc/u8x8_d_uc1611.c ****   
  41:..\u8g2\csrc/u8x8_d_uc1611.c ****   Differences:
  42:..\u8g2\csrc/u8x8_d_uc1611.c ****   UC1611		0xa8 cmd: enables 80 display rows
  43:..\u8g2\csrc/u8x8_d_uc1611.c ****   UC1611s	0xa8 cmd: controlls graylevels
  44:..\u8g2\csrc/u8x8_d_uc1611.c ****   
  45:..\u8g2\csrc/u8x8_d_uc1611.c ****   UC1611		0xc0 cmd: single byte command for LCD mapping control
  46:..\u8g2\csrc/u8x8_d_uc1611.c ****   UC1611s	0xc0 cmd: double byte command for LCD mapping control
  47:..\u8g2\csrc/u8x8_d_uc1611.c ****   
  48:..\u8g2\csrc/u8x8_d_uc1611.c ****   
  49:..\u8g2\csrc/u8x8_d_uc1611.c **** */
  50:..\u8g2\csrc/u8x8_d_uc1611.c **** #include "u8x8.h"
  51:..\u8g2\csrc/u8x8_d_uc1611.c **** 
  52:..\u8g2\csrc/u8x8_d_uc1611.c **** 
  53:..\u8g2\csrc/u8x8_d_uc1611.c **** 
  54:..\u8g2\csrc/u8x8_d_uc1611.c **** 
  55:..\u8g2\csrc/u8x8_d_uc1611.c **** 
  56:..\u8g2\csrc/u8x8_d_uc1611.c **** static const uint8_t u8x8_d_uc1611s_powersave0_seq[] = {
  57:..\u8g2\csrc/u8x8_d_uc1611.c ****   U8X8_START_TRANSFER(),             	/* enable chip, delay is part of the transfer start */
  58:..\u8g2\csrc/u8x8_d_uc1611.c ****   U8X8_C(0x0a9),		                /* display on, UC1611s */
  59:..\u8g2\csrc/u8x8_d_uc1611.c ****   U8X8_END_TRANSFER(),             	/* disable chip */
  60:..\u8g2\csrc/u8x8_d_uc1611.c ****   U8X8_END()             			/* end of sequence */
  61:..\u8g2\csrc/u8x8_d_uc1611.c **** };
  62:..\u8g2\csrc/u8x8_d_uc1611.c **** 
  63:..\u8g2\csrc/u8x8_d_uc1611.c **** static const uint8_t u8x8_d_uc1611s_powersave1_seq[] = {
  64:..\u8g2\csrc/u8x8_d_uc1611.c ****   U8X8_START_TRANSFER(),             	/* enable chip, delay is part of the transfer start */
  65:..\u8g2\csrc/u8x8_d_uc1611.c ****   U8X8_C(0x0a8),		                /* display off, enter sleep mode, UC1611s */
  66:..\u8g2\csrc/u8x8_d_uc1611.c ****   U8X8_END_TRANSFER(),             	/* disable chip */
  67:..\u8g2\csrc/u8x8_d_uc1611.c ****   U8X8_END()             			/* end of sequence */
  68:..\u8g2\csrc/u8x8_d_uc1611.c **** };
  69:..\u8g2\csrc/u8x8_d_uc1611.c **** 
  70:..\u8g2\csrc/u8x8_d_uc1611.c **** static const uint8_t u8x8_d_uc1611s_flip0_seq[] = {
  71:..\u8g2\csrc/u8x8_d_uc1611.c ****   U8X8_START_TRANSFER(),             	/* enable chip, delay is part of the transfer start */
  72:..\u8g2\csrc/u8x8_d_uc1611.c ****   U8X8_CA(0x0c0, 0x004),            	/* LCD Mapping */
  73:..\u8g2\csrc/u8x8_d_uc1611.c ****   U8X8_END_TRANSFER(),             	/* disable chip */
  74:..\u8g2\csrc/u8x8_d_uc1611.c ****   U8X8_END()             			/* end of sequence */
  75:..\u8g2\csrc/u8x8_d_uc1611.c **** };
  76:..\u8g2\csrc/u8x8_d_uc1611.c **** 
  77:..\u8g2\csrc/u8x8_d_uc1611.c **** static const uint8_t u8x8_d_uc1611s_flip1_seq[] = {
  78:..\u8g2\csrc/u8x8_d_uc1611.c ****   U8X8_START_TRANSFER(),             	/* enable chip, delay is part of the transfer start */
  79:..\u8g2\csrc/u8x8_d_uc1611.c ****   U8X8_CA(0x0c0, 0x002),            	/* LCD Mapping */
  80:..\u8g2\csrc/u8x8_d_uc1611.c ****   U8X8_END_TRANSFER(),             	/* disable chip */
  81:..\u8g2\csrc/u8x8_d_uc1611.c ****   U8X8_END()             			/* end of sequence */
  82:..\u8g2\csrc/u8x8_d_uc1611.c **** };
  83:..\u8g2\csrc/u8x8_d_uc1611.c **** 
  84:..\u8g2\csrc/u8x8_d_uc1611.c **** uint8_t u8x8_d_uc1611_common(u8x8_t *u8x8, uint8_t msg, uint8_t arg_int, void *arg_ptr)
  85:..\u8g2\csrc/u8x8_d_uc1611.c **** {
  28              		.loc 1 85 0
  29              		.cfi_startproc
ARM GAS  C:\Users\brian\AppData\Local\Temp\cchHvIBZ.s 			page 3


  30              		@ args = 0, pretend = 0, frame = 0
  31              		@ frame_needed = 0, uses_anonymous_args = 0
  32              	.LVL0:
  33 0000 F8B5     		push	{r3, r4, r5, r6, r7, lr}
  34              		.cfi_def_cfa_offset 24
  35              		.cfi_offset 3, -24
  36              		.cfi_offset 4, -20
  37              		.cfi_offset 5, -16
  38              		.cfi_offset 6, -12
  39              		.cfi_offset 7, -8
  40              		.cfi_offset 14, -4
  41 0002 0546     		mov	r5, r0
  42 0004 1446     		mov	r4, r2
  86:..\u8g2\csrc/u8x8_d_uc1611.c ****   uint8_t x, y, c;
  87:..\u8g2\csrc/u8x8_d_uc1611.c ****   uint8_t *ptr;
  88:..\u8g2\csrc/u8x8_d_uc1611.c ****   switch(msg)
  43              		.loc 1 88 0
  44 0006 0E29     		cmp	r1, #14
  45 0008 36D0     		beq	.L3
  46 000a 1F46     		mov	r7, r3
  47 000c 0F29     		cmp	r1, #15
  48 000e 42D1     		bne	.L7
  89:..\u8g2\csrc/u8x8_d_uc1611.c ****   {
  90:..\u8g2\csrc/u8x8_d_uc1611.c ****     case U8X8_MSG_DISPLAY_DRAW_TILE:
  91:..\u8g2\csrc/u8x8_d_uc1611.c ****       u8x8_cad_StartTransfer(u8x8);
  49              		.loc 1 91 0
  50 0010 FFF7FEFF 		bl	u8x8_cad_StartTransfer
  51              	.LVL1:
  92:..\u8g2\csrc/u8x8_d_uc1611.c ****     
  93:..\u8g2\csrc/u8x8_d_uc1611.c ****       x = ((u8x8_tile_t *)arg_ptr)->x_pos;
  52              		.loc 1 93 0
  53 0014 7E79     		ldrb	r6, [r7, #5]	@ zero_extendqisi2
  54              	.LVL2:
  94:..\u8g2\csrc/u8x8_d_uc1611.c ****       x *= 8;
  55              		.loc 1 94 0
  56 0016 F600     		lsls	r6, r6, #3
  57              	.LVL3:
  58 0018 F6B2     		uxtb	r6, r6
  59              	.LVL4:
  95:..\u8g2\csrc/u8x8_d_uc1611.c ****       x += u8x8->x_offset;
  60              		.loc 1 95 0
  61 001a 95F82230 		ldrb	r3, [r5, #34]	@ zero_extendqisi2
  62 001e 1E44     		add	r6, r6, r3
  63              	.LVL5:
  64 0020 F6B2     		uxtb	r6, r6
  65              	.LVL6:
  96:..\u8g2\csrc/u8x8_d_uc1611.c ****    
  97:..\u8g2\csrc/u8x8_d_uc1611.c ****       u8x8_cad_SendCmd(u8x8, 0x000 | ((x&15)));
  66              		.loc 1 97 0
  67 0022 06F00F01 		and	r1, r6, #15
  68 0026 2846     		mov	r0, r5
  69 0028 FFF7FEFF 		bl	u8x8_cad_SendCmd
  70              	.LVL7:
  98:..\u8g2\csrc/u8x8_d_uc1611.c ****       u8x8_cad_SendCmd(u8x8, 0x010 | (x>>4) );
  71              		.loc 1 98 0
  72 002c 3109     		lsrs	r1, r6, #4
  73 002e 41F01001 		orr	r1, r1, #16
ARM GAS  C:\Users\brian\AppData\Local\Temp\cchHvIBZ.s 			page 4


  74 0032 2846     		mov	r0, r5
  75 0034 FFF7FEFF 		bl	u8x8_cad_SendCmd
  76              	.LVL8:
  99:..\u8g2\csrc/u8x8_d_uc1611.c ****     
 100:..\u8g2\csrc/u8x8_d_uc1611.c ****       y = ((u8x8_tile_t *)arg_ptr)->y_pos;
  77              		.loc 1 100 0
  78 0038 BE79     		ldrb	r6, [r7, #6]	@ zero_extendqisi2
  79              	.LVL9:
 101:..\u8g2\csrc/u8x8_d_uc1611.c ****       u8x8_cad_SendCmd(u8x8, 0x060 | (y&15));
  80              		.loc 1 101 0
  81 003a 06F00F01 		and	r1, r6, #15
  82 003e 41F06001 		orr	r1, r1, #96
  83 0042 2846     		mov	r0, r5
  84 0044 FFF7FEFF 		bl	u8x8_cad_SendCmd
  85              	.LVL10:
 102:..\u8g2\csrc/u8x8_d_uc1611.c ****       u8x8_cad_SendCmd(u8x8, 0x070 | (y>>4));
  86              		.loc 1 102 0
  87 0048 3109     		lsrs	r1, r6, #4
  88 004a 41F07001 		orr	r1, r1, #112
  89 004e 2846     		mov	r0, r5
  90 0050 FFF7FEFF 		bl	u8x8_cad_SendCmd
  91              	.LVL11:
 103:..\u8g2\csrc/u8x8_d_uc1611.c ****     
 104:..\u8g2\csrc/u8x8_d_uc1611.c ****       c = ((u8x8_tile_t *)arg_ptr)->cnt;
  92              		.loc 1 104 0
  93 0054 3E79     		ldrb	r6, [r7, #4]	@ zero_extendqisi2
  94              	.LVL12:
 105:..\u8g2\csrc/u8x8_d_uc1611.c ****       c *= 8;
  95              		.loc 1 105 0
  96 0056 F600     		lsls	r6, r6, #3
  97              	.LVL13:
  98 0058 F6B2     		uxtb	r6, r6
  99              	.LVL14:
 106:..\u8g2\csrc/u8x8_d_uc1611.c ****       ptr = ((u8x8_tile_t *)arg_ptr)->tile_ptr;
 100              		.loc 1 106 0
 101 005a 3F68     		ldr	r7, [r7]
 102              	.LVL15:
 103              	.L5:
 107:..\u8g2\csrc/u8x8_d_uc1611.c ****       do
 108:..\u8g2\csrc/u8x8_d_uc1611.c ****       {
 109:..\u8g2\csrc/u8x8_d_uc1611.c **** 	u8x8_cad_SendData(u8x8, c, ptr);	/* note: SendData can not handle more than 255 bytes */
 104              		.loc 1 109 0 discriminator 1
 105 005c 3A46     		mov	r2, r7
 106 005e 3146     		mov	r1, r6
 107 0060 2846     		mov	r0, r5
 108 0062 FFF7FEFF 		bl	u8x8_cad_SendData
 109              	.LVL16:
 110:..\u8g2\csrc/u8x8_d_uc1611.c **** 	arg_int--;
 110              		.loc 1 110 0 discriminator 1
 111 0066 621E     		subs	r2, r4, #1
 112              	.LVL17:
 111:..\u8g2\csrc/u8x8_d_uc1611.c ****       } while( arg_int > 0 );
 113              		.loc 1 111 0 discriminator 1
 114 0068 12F0FF04 		ands	r4, r2, #255
 115 006c F6D1     		bne	.L5
 112:..\u8g2\csrc/u8x8_d_uc1611.c ****       
 113:..\u8g2\csrc/u8x8_d_uc1611.c ****       u8x8_cad_EndTransfer(u8x8);
ARM GAS  C:\Users\brian\AppData\Local\Temp\cchHvIBZ.s 			page 5


 116              		.loc 1 113 0
 117 006e 2846     		mov	r0, r5
 118 0070 FFF7FEFF 		bl	u8x8_cad_EndTransfer
 119              	.LVL18:
 114:..\u8g2\csrc/u8x8_d_uc1611.c ****       break;
 115:..\u8g2\csrc/u8x8_d_uc1611.c ****     /*	handled in the calling procedure 
 116:..\u8g2\csrc/u8x8_d_uc1611.c ****     case U8X8_MSG_DISPLAY_SETUP_MEMORY:
 117:..\u8g2\csrc/u8x8_d_uc1611.c ****       u8x8_d_helper_display_setup_memory(u8x8, &u8x8_uc1611_128x64_display_info);
 118:..\u8g2\csrc/u8x8_d_uc1611.c ****       break;
 119:..\u8g2\csrc/u8x8_d_uc1611.c ****     case U8X8_MSG_DISPLAY_INIT:
 120:..\u8g2\csrc/u8x8_d_uc1611.c ****       u8x8_d_helper_display_init(u8x8);
 121:..\u8g2\csrc/u8x8_d_uc1611.c ****       u8x8_cad_SendSequence(u8x8, u8x8_d_uc1701_dogs102_init_seq);
 122:..\u8g2\csrc/u8x8_d_uc1611.c ****       break;
 123:..\u8g2\csrc/u8x8_d_uc1611.c ****     */
 124:..\u8g2\csrc/u8x8_d_uc1611.c **** #ifdef U8X8_WITH_SET_CONTRAST
 125:..\u8g2\csrc/u8x8_d_uc1611.c ****     case U8X8_MSG_DISPLAY_SET_CONTRAST:
 126:..\u8g2\csrc/u8x8_d_uc1611.c ****       u8x8_cad_StartTransfer(u8x8);
 127:..\u8g2\csrc/u8x8_d_uc1611.c ****       u8x8_cad_SendCmd(u8x8, 0x081 );
 128:..\u8g2\csrc/u8x8_d_uc1611.c ****       u8x8_cad_SendArg(u8x8, arg_int  );	/* uc1611 has range from 0 to 255 */
 129:..\u8g2\csrc/u8x8_d_uc1611.c ****       u8x8_cad_EndTransfer(u8x8);
 130:..\u8g2\csrc/u8x8_d_uc1611.c ****       break;
 131:..\u8g2\csrc/u8x8_d_uc1611.c **** #endif
 132:..\u8g2\csrc/u8x8_d_uc1611.c ****     default:
 133:..\u8g2\csrc/u8x8_d_uc1611.c ****       return 0;
 134:..\u8g2\csrc/u8x8_d_uc1611.c ****   }
 135:..\u8g2\csrc/u8x8_d_uc1611.c ****   return 1;
 120              		.loc 1 135 0
 121 0074 0120     		movs	r0, #1
 114:..\u8g2\csrc/u8x8_d_uc1611.c ****       break;
 122              		.loc 1 114 0
 123 0076 F8BD     		pop	{r3, r4, r5, r6, r7, pc}
 124              	.LVL19:
 125              	.L3:
 126:..\u8g2\csrc/u8x8_d_uc1611.c ****       u8x8_cad_SendCmd(u8x8, 0x081 );
 126              		.loc 1 126 0
 127 0078 FFF7FEFF 		bl	u8x8_cad_StartTransfer
 128              	.LVL20:
 127:..\u8g2\csrc/u8x8_d_uc1611.c ****       u8x8_cad_SendArg(u8x8, arg_int  );	/* uc1611 has range from 0 to 255 */
 129              		.loc 1 127 0
 130 007c 8121     		movs	r1, #129
 131 007e 2846     		mov	r0, r5
 132 0080 FFF7FEFF 		bl	u8x8_cad_SendCmd
 133              	.LVL21:
 128:..\u8g2\csrc/u8x8_d_uc1611.c ****       u8x8_cad_EndTransfer(u8x8);
 134              		.loc 1 128 0
 135 0084 2146     		mov	r1, r4
 136 0086 2846     		mov	r0, r5
 137 0088 FFF7FEFF 		bl	u8x8_cad_SendArg
 138              	.LVL22:
 129:..\u8g2\csrc/u8x8_d_uc1611.c ****       break;
 139              		.loc 1 129 0
 140 008c 2846     		mov	r0, r5
 141 008e FFF7FEFF 		bl	u8x8_cad_EndTransfer
 142              	.LVL23:
 143              		.loc 1 135 0
 144 0092 0120     		movs	r0, #1
 130:..\u8g2\csrc/u8x8_d_uc1611.c **** #endif
ARM GAS  C:\Users\brian\AppData\Local\Temp\cchHvIBZ.s 			page 6


 145              		.loc 1 130 0
 146 0094 F8BD     		pop	{r3, r4, r5, r6, r7, pc}
 147              	.LVL24:
 148              	.L7:
 133:..\u8g2\csrc/u8x8_d_uc1611.c ****   }
 149              		.loc 1 133 0
 150 0096 0020     		movs	r0, #0
 151              	.LVL25:
 136:..\u8g2\csrc/u8x8_d_uc1611.c **** }
 152              		.loc 1 136 0
 153 0098 F8BD     		pop	{r3, r4, r5, r6, r7, pc}
 154              		.cfi_endproc
 155              	.LFE0:
 156              		.size	u8x8_d_uc1611_common, .-u8x8_d_uc1611_common
 157 009a 00BF     		.section	.text.u8x8_d_uc1611_ea_dogm240,"ax",%progbits
 158              		.align	2
 159              		.global	u8x8_d_uc1611_ea_dogm240
 160              		.thumb
 161              		.thumb_func
 162              		.type	u8x8_d_uc1611_ea_dogm240, %function
 163              	u8x8_d_uc1611_ea_dogm240:
 164              	.LFB1:
 137:..\u8g2\csrc/u8x8_d_uc1611.c **** 
 138:..\u8g2\csrc/u8x8_d_uc1611.c **** /*================================================*/
 139:..\u8g2\csrc/u8x8_d_uc1611.c **** /* EA DOGM240 */
 140:..\u8g2\csrc/u8x8_d_uc1611.c **** 
 141:..\u8g2\csrc/u8x8_d_uc1611.c **** 
 142:..\u8g2\csrc/u8x8_d_uc1611.c **** /*
 143:..\u8g2\csrc/u8x8_d_uc1611.c ****   UC1611 has two chip select inputs (CS0 and CS1).
 144:..\u8g2\csrc/u8x8_d_uc1611.c ****   CS0 is low active, CS1 is high active. It will depend on the display
 145:..\u8g2\csrc/u8x8_d_uc1611.c ****   module whether the display has a is low or high active chip select.
 146:..\u8g2\csrc/u8x8_d_uc1611.c **** */
 147:..\u8g2\csrc/u8x8_d_uc1611.c **** 
 148:..\u8g2\csrc/u8x8_d_uc1611.c **** static const u8x8_display_info_t u8x8_uc1611_240x64_display_info =
 149:..\u8g2\csrc/u8x8_d_uc1611.c **** {
 150:..\u8g2\csrc/u8x8_d_uc1611.c ****   /* chip_enable_level = */ 0,
 151:..\u8g2\csrc/u8x8_d_uc1611.c ****   /* chip_disable_level = */ 1,
 152:..\u8g2\csrc/u8x8_d_uc1611.c ****   
 153:..\u8g2\csrc/u8x8_d_uc1611.c ****   /* post_chip_enable_wait_ns = */ 10,	/* uc1611 datasheet, page 60, actually 0 */
 154:..\u8g2\csrc/u8x8_d_uc1611.c ****   /* pre_chip_disable_wait_ns = */ 10,	/* uc1611 datasheet, page 60, actually 0 */
 155:..\u8g2\csrc/u8x8_d_uc1611.c ****   /* reset_pulse_width_ms = */ 1, 
 156:..\u8g2\csrc/u8x8_d_uc1611.c ****   /* post_reset_wait_ms = */ 10, 	/* uc1611 datasheet, page 67 */
 157:..\u8g2\csrc/u8x8_d_uc1611.c ****   /* sda_setup_time_ns = */ 10,		/* uc1611 datasheet, page 64, actually 0 */
 158:..\u8g2\csrc/u8x8_d_uc1611.c ****   /* sck_pulse_width_ns = */ 60,	/* half of cycle time  */
 159:..\u8g2\csrc/u8x8_d_uc1611.c ****   /* sck_clock_hz = */ 8000000UL,	/* since Arduino 1.6.0, the SPI bus speed in Hz. Should be  10000
 160:..\u8g2\csrc/u8x8_d_uc1611.c ****   /* spi_mode = */ 0,		/* active high, rising edge */
 161:..\u8g2\csrc/u8x8_d_uc1611.c ****   /* i2c_bus_clock_100kHz = */ 4,
 162:..\u8g2\csrc/u8x8_d_uc1611.c ****   /* data_setup_time_ns = */ 30,	/* uc1611 datasheet, page 60 */
 163:..\u8g2\csrc/u8x8_d_uc1611.c ****   /* write_pulse_width_ns = */ 80,	/* uc1611 datasheet, page 60 */
 164:..\u8g2\csrc/u8x8_d_uc1611.c ****   /* tile_width = */ 30,		/* width of 30*8=240 pixel */
 165:..\u8g2\csrc/u8x8_d_uc1611.c ****   /* tile_hight = */ 8,
 166:..\u8g2\csrc/u8x8_d_uc1611.c ****   /* default_x_offset = */ 0,
 167:..\u8g2\csrc/u8x8_d_uc1611.c ****   /* flipmode_x_offset = */ 0,
 168:..\u8g2\csrc/u8x8_d_uc1611.c ****   /* pixel_width = */ 240,
 169:..\u8g2\csrc/u8x8_d_uc1611.c ****   /* pixel_height = */ 64
 170:..\u8g2\csrc/u8x8_d_uc1611.c **** };
 171:..\u8g2\csrc/u8x8_d_uc1611.c **** 
ARM GAS  C:\Users\brian\AppData\Local\Temp\cchHvIBZ.s 			page 7


 172:..\u8g2\csrc/u8x8_d_uc1611.c **** static const uint8_t u8x8_d_uc1611_ea_dogm240_init_seq[] = {
 173:..\u8g2\csrc/u8x8_d_uc1611.c ****     
 174:..\u8g2\csrc/u8x8_d_uc1611.c ****   U8X8_START_TRANSFER(),             	/* enable chip, delay is part of the transfer start */
 175:..\u8g2\csrc/u8x8_d_uc1611.c ****   U8X8_C(0x02f),            			/* internal pump control */
 176:..\u8g2\csrc/u8x8_d_uc1611.c ****   U8X8_CA(0x0f1, 63),			/* set COM end */
 177:..\u8g2\csrc/u8x8_d_uc1611.c ****   U8X8_CA(0x0f2, 0x000),		/* display line start */
 178:..\u8g2\csrc/u8x8_d_uc1611.c ****   U8X8_CA(0x0f3, 63),			/* display line end */
 179:..\u8g2\csrc/u8x8_d_uc1611.c ****   U8X8_C(0x0a3),            			/* line rate */
 180:..\u8g2\csrc/u8x8_d_uc1611.c ****   U8X8_CA(0x081, 0x0a4),		/* set contrast, EA default: 0x0b7 */
 181:..\u8g2\csrc/u8x8_d_uc1611.c ****   
 182:..\u8g2\csrc/u8x8_d_uc1611.c ****   //U8X8_C(0x0a9),            			/* display enable */
 183:..\u8g2\csrc/u8x8_d_uc1611.c **** 
 184:..\u8g2\csrc/u8x8_d_uc1611.c ****   U8X8_C(0x0d1),            			/* display pattern */  
 185:..\u8g2\csrc/u8x8_d_uc1611.c ****   U8X8_C(0x089),            			/* auto increment */
 186:..\u8g2\csrc/u8x8_d_uc1611.c ****   U8X8_CA(0x0c0, 0x004),            	/* LCD Mapping */
 187:..\u8g2\csrc/u8x8_d_uc1611.c ****   U8X8_C(0x000),		                /* column low nibble */
 188:..\u8g2\csrc/u8x8_d_uc1611.c ****   U8X8_C(0x010),		                /* column high nibble */  
 189:..\u8g2\csrc/u8x8_d_uc1611.c ****   U8X8_C(0x060),		                /* page adr low */
 190:..\u8g2\csrc/u8x8_d_uc1611.c ****   U8X8_C(0x070),		                /* page adr high */
 191:..\u8g2\csrc/u8x8_d_uc1611.c ****   
 192:..\u8g2\csrc/u8x8_d_uc1611.c ****   
 193:..\u8g2\csrc/u8x8_d_uc1611.c ****   U8X8_END_TRANSFER(),             	/* disable chip */
 194:..\u8g2\csrc/u8x8_d_uc1611.c ****   U8X8_END()             			/* end of sequence */
 195:..\u8g2\csrc/u8x8_d_uc1611.c **** };
 196:..\u8g2\csrc/u8x8_d_uc1611.c **** 
 197:..\u8g2\csrc/u8x8_d_uc1611.c **** /* UC1611s 240x64 display */
 198:..\u8g2\csrc/u8x8_d_uc1611.c **** uint8_t u8x8_d_uc1611_ea_dogm240(u8x8_t *u8x8, uint8_t msg, uint8_t arg_int, void *arg_ptr)
 199:..\u8g2\csrc/u8x8_d_uc1611.c **** {
 165              		.loc 1 199 0
 166              		.cfi_startproc
 167              		@ args = 0, pretend = 0, frame = 0
 168              		@ frame_needed = 0, uses_anonymous_args = 0
 169              	.LVL26:
 170 0000 70B5     		push	{r4, r5, r6, lr}
 171              		.cfi_def_cfa_offset 16
 172              		.cfi_offset 4, -16
 173              		.cfi_offset 5, -12
 174              		.cfi_offset 6, -8
 175              		.cfi_offset 14, -4
 176 0002 0546     		mov	r5, r0
 177 0004 0C46     		mov	r4, r1
 178 0006 1646     		mov	r6, r2
 200:..\u8g2\csrc/u8x8_d_uc1611.c ****   /* call common procedure first and handle messages there */
 201:..\u8g2\csrc/u8x8_d_uc1611.c ****   if ( u8x8_d_uc1611_common(u8x8, msg, arg_int, arg_ptr) == 0 )
 179              		.loc 1 201 0
 180 0008 FFF7FEFF 		bl	u8x8_d_uc1611_common
 181              	.LVL27:
 182 000c 0028     		cmp	r0, #0
 183 000e 3AD1     		bne	.L18
 184 0010 0346     		mov	r3, r0
 202:..\u8g2\csrc/u8x8_d_uc1611.c ****   {
 203:..\u8g2\csrc/u8x8_d_uc1611.c ****     /* msg not handled, then try here */
 204:..\u8g2\csrc/u8x8_d_uc1611.c ****     switch(msg)
 185              		.loc 1 204 0
 186 0012 A4F10901 		sub	r1, r4, #9
 187 0016 0429     		cmp	r1, #4
 188 0018 36D8     		bhi	.L10
ARM GAS  C:\Users\brian\AppData\Local\Temp\cchHvIBZ.s 			page 8


 189 001a DFE801F0 		tbb	[pc, r1]
 190              	.L12:
 191 001e 03       		.byte	(.L11-.L12)/2
 192 001f 09       		.byte	(.L13-.L12)/2
 193 0020 12       		.byte	(.L14-.L12)/2
 194 0021 35       		.byte	(.L10-.L12)/2
 195 0022 1F       		.byte	(.L15-.L12)/2
 196 0023 00       		.p2align 1
 197              	.L11:
 205:..\u8g2\csrc/u8x8_d_uc1611.c ****     {
 206:..\u8g2\csrc/u8x8_d_uc1611.c ****       case U8X8_MSG_DISPLAY_SETUP_MEMORY:
 207:..\u8g2\csrc/u8x8_d_uc1611.c **** 	u8x8_d_helper_display_setup_memory(u8x8, &u8x8_uc1611_240x64_display_info);
 198              		.loc 1 207 0
 199 0024 1949     		ldr	r1, .L20
 200 0026 2846     		mov	r0, r5
 201 0028 FFF7FEFF 		bl	u8x8_d_helper_display_setup_memory
 202              	.LVL28:
 208:..\u8g2\csrc/u8x8_d_uc1611.c **** 	break;
 209:..\u8g2\csrc/u8x8_d_uc1611.c ****       case U8X8_MSG_DISPLAY_INIT:
 210:..\u8g2\csrc/u8x8_d_uc1611.c **** 	u8x8_d_helper_display_init(u8x8);
 211:..\u8g2\csrc/u8x8_d_uc1611.c **** 	u8x8_cad_SendSequence(u8x8, u8x8_d_uc1611_ea_dogm240_init_seq);
 212:..\u8g2\csrc/u8x8_d_uc1611.c **** 	break;
 213:..\u8g2\csrc/u8x8_d_uc1611.c ****       case U8X8_MSG_DISPLAY_SET_POWER_SAVE:
 214:..\u8g2\csrc/u8x8_d_uc1611.c **** 	if ( arg_int == 0 )
 215:..\u8g2\csrc/u8x8_d_uc1611.c **** 	  u8x8_cad_SendSequence(u8x8, u8x8_d_uc1611s_powersave0_seq);
 216:..\u8g2\csrc/u8x8_d_uc1611.c **** 	else
 217:..\u8g2\csrc/u8x8_d_uc1611.c **** 	  u8x8_cad_SendSequence(u8x8, u8x8_d_uc1611s_powersave1_seq);
 218:..\u8g2\csrc/u8x8_d_uc1611.c **** 	break;
 219:..\u8g2\csrc/u8x8_d_uc1611.c ****       case U8X8_MSG_DISPLAY_SET_FLIP_MODE:
 220:..\u8g2\csrc/u8x8_d_uc1611.c **** 	if ( arg_int == 0 )
 221:..\u8g2\csrc/u8x8_d_uc1611.c **** 	{
 222:..\u8g2\csrc/u8x8_d_uc1611.c **** 	  u8x8_cad_SendSequence(u8x8, u8x8_d_uc1611s_flip0_seq);
 223:..\u8g2\csrc/u8x8_d_uc1611.c **** 	  u8x8->x_offset = u8x8->display_info->default_x_offset;
 224:..\u8g2\csrc/u8x8_d_uc1611.c **** 	}
 225:..\u8g2\csrc/u8x8_d_uc1611.c **** 	else
 226:..\u8g2\csrc/u8x8_d_uc1611.c **** 	{
 227:..\u8g2\csrc/u8x8_d_uc1611.c **** 	  u8x8_cad_SendSequence(u8x8, u8x8_d_uc1611s_flip1_seq);
 228:..\u8g2\csrc/u8x8_d_uc1611.c **** 	  u8x8->x_offset = u8x8->display_info->flipmode_x_offset;
 229:..\u8g2\csrc/u8x8_d_uc1611.c **** 	}	
 230:..\u8g2\csrc/u8x8_d_uc1611.c **** 	break;
 231:..\u8g2\csrc/u8x8_d_uc1611.c ****       default:
 232:..\u8g2\csrc/u8x8_d_uc1611.c **** 	return 0;		/* msg unknown */
 233:..\u8g2\csrc/u8x8_d_uc1611.c ****     }
 234:..\u8g2\csrc/u8x8_d_uc1611.c ****   }
 235:..\u8g2\csrc/u8x8_d_uc1611.c ****   return 1;
 203              		.loc 1 235 0
 204 002c 0123     		movs	r3, #1
 208:..\u8g2\csrc/u8x8_d_uc1611.c **** 	break;
 205              		.loc 1 208 0
 206 002e 2BE0     		b	.L10
 207              	.L13:
 210:..\u8g2\csrc/u8x8_d_uc1611.c **** 	u8x8_cad_SendSequence(u8x8, u8x8_d_uc1611_ea_dogm240_init_seq);
 208              		.loc 1 210 0
 209 0030 2846     		mov	r0, r5
 210 0032 FFF7FEFF 		bl	u8x8_d_helper_display_init
 211              	.LVL29:
 211:..\u8g2\csrc/u8x8_d_uc1611.c **** 	break;
ARM GAS  C:\Users\brian\AppData\Local\Temp\cchHvIBZ.s 			page 9


 212              		.loc 1 211 0
 213 0036 1649     		ldr	r1, .L20+4
 214 0038 2846     		mov	r0, r5
 215 003a FFF7FEFF 		bl	u8x8_cad_SendSequence
 216              	.LVL30:
 217              		.loc 1 235 0
 218 003e 0123     		movs	r3, #1
 212:..\u8g2\csrc/u8x8_d_uc1611.c ****       case U8X8_MSG_DISPLAY_SET_POWER_SAVE:
 219              		.loc 1 212 0
 220 0040 22E0     		b	.L10
 221              	.L14:
 214:..\u8g2\csrc/u8x8_d_uc1611.c **** 	  u8x8_cad_SendSequence(u8x8, u8x8_d_uc1611s_powersave0_seq);
 222              		.loc 1 214 0
 223 0042 2EB9     		cbnz	r6, .L16
 215:..\u8g2\csrc/u8x8_d_uc1611.c **** 	else
 224              		.loc 1 215 0
 225 0044 1349     		ldr	r1, .L20+8
 226 0046 2846     		mov	r0, r5
 227 0048 FFF7FEFF 		bl	u8x8_cad_SendSequence
 228              	.LVL31:
 229              		.loc 1 235 0
 230 004c 0123     		movs	r3, #1
 231 004e 1BE0     		b	.L10
 232              	.L16:
 217:..\u8g2\csrc/u8x8_d_uc1611.c **** 	break;
 233              		.loc 1 217 0
 234 0050 1149     		ldr	r1, .L20+12
 235 0052 2846     		mov	r0, r5
 236 0054 FFF7FEFF 		bl	u8x8_cad_SendSequence
 237              	.LVL32:
 238              		.loc 1 235 0
 239 0058 0123     		movs	r3, #1
 240 005a 15E0     		b	.L10
 241              	.L15:
 220:..\u8g2\csrc/u8x8_d_uc1611.c **** 	{
 242              		.loc 1 220 0
 243 005c 4EB9     		cbnz	r6, .L17
 222:..\u8g2\csrc/u8x8_d_uc1611.c **** 	  u8x8->x_offset = u8x8->display_info->default_x_offset;
 244              		.loc 1 222 0
 245 005e 0F49     		ldr	r1, .L20+16
 246 0060 2846     		mov	r0, r5
 247 0062 FFF7FEFF 		bl	u8x8_cad_SendSequence
 248              	.LVL33:
 223:..\u8g2\csrc/u8x8_d_uc1611.c **** 	}
 249              		.loc 1 223 0
 250 0066 2B68     		ldr	r3, [r5]
 251 0068 9B7C     		ldrb	r3, [r3, #18]	@ zero_extendqisi2
 252 006a 85F82230 		strb	r3, [r5, #34]
 253              		.loc 1 235 0
 254 006e 0123     		movs	r3, #1
 255 0070 0AE0     		b	.L10
 256              	.L17:
 227:..\u8g2\csrc/u8x8_d_uc1611.c **** 	  u8x8->x_offset = u8x8->display_info->flipmode_x_offset;
 257              		.loc 1 227 0
 258 0072 0B49     		ldr	r1, .L20+20
 259 0074 2846     		mov	r0, r5
 260 0076 FFF7FEFF 		bl	u8x8_cad_SendSequence
ARM GAS  C:\Users\brian\AppData\Local\Temp\cchHvIBZ.s 			page 10


 261              	.LVL34:
 228:..\u8g2\csrc/u8x8_d_uc1611.c **** 	}	
 262              		.loc 1 228 0
 263 007a 2B68     		ldr	r3, [r5]
 264 007c DB7C     		ldrb	r3, [r3, #19]	@ zero_extendqisi2
 265 007e 85F82230 		strb	r3, [r5, #34]
 266              		.loc 1 235 0
 267 0082 0123     		movs	r3, #1
 268 0084 00E0     		b	.L10
 269              	.L18:
 270 0086 0123     		movs	r3, #1
 271              	.L10:
 236:..\u8g2\csrc/u8x8_d_uc1611.c **** }
 272              		.loc 1 236 0
 273 0088 1846     		mov	r0, r3
 274 008a 70BD     		pop	{r4, r5, r6, pc}
 275              	.LVL35:
 276              	.L21:
 277              		.align	2
 278              	.L20:
 279 008c 00000000 		.word	.LANCHOR0
 280 0090 18000000 		.word	.LANCHOR0+24
 281 0094 40000000 		.word	.LANCHOR0+64
 282 0098 48000000 		.word	.LANCHOR0+72
 283 009c 50000000 		.word	.LANCHOR0+80
 284 00a0 58000000 		.word	.LANCHOR0+88
 285              		.cfi_endproc
 286              	.LFE1:
 287              		.size	u8x8_d_uc1611_ea_dogm240, .-u8x8_d_uc1611_ea_dogm240
 288              		.section	.text.u8x8_d_uc1611_ea_dogxl240,"ax",%progbits
 289              		.align	2
 290              		.global	u8x8_d_uc1611_ea_dogxl240
 291              		.thumb
 292              		.thumb_func
 293              		.type	u8x8_d_uc1611_ea_dogxl240, %function
 294              	u8x8_d_uc1611_ea_dogxl240:
 295              	.LFB2:
 237:..\u8g2\csrc/u8x8_d_uc1611.c **** 
 238:..\u8g2\csrc/u8x8_d_uc1611.c **** /*================================================*/
 239:..\u8g2\csrc/u8x8_d_uc1611.c **** /* EA DOGXL240 */
 240:..\u8g2\csrc/u8x8_d_uc1611.c **** 
 241:..\u8g2\csrc/u8x8_d_uc1611.c **** static const uint8_t u8x8_d_uc1611_ea_dogxl240_init_seq[] = {
 242:..\u8g2\csrc/u8x8_d_uc1611.c ****     
 243:..\u8g2\csrc/u8x8_d_uc1611.c ****   U8X8_START_TRANSFER(),             	/* enable chip, delay is part of the transfer start */
 244:..\u8g2\csrc/u8x8_d_uc1611.c ****   U8X8_C(0x02f),            			/* internal pump control */
 245:..\u8g2\csrc/u8x8_d_uc1611.c ****   U8X8_CA(0x0f1, 0x07f),			/* set COM end */
 246:..\u8g2\csrc/u8x8_d_uc1611.c ****   U8X8_CA(0x0f2, 0x000),		/* display line start */
 247:..\u8g2\csrc/u8x8_d_uc1611.c ****   U8X8_CA(0x0f3, 127),		/* display line end */
 248:..\u8g2\csrc/u8x8_d_uc1611.c ****   U8X8_C(0x0a3),            			/* line rate */
 249:..\u8g2\csrc/u8x8_d_uc1611.c ****   U8X8_CA(0x081, 0x08f),		/* set contrast */
 250:..\u8g2\csrc/u8x8_d_uc1611.c ****   
 251:..\u8g2\csrc/u8x8_d_uc1611.c ****   //U8X8_C(0x0a9),            			/* display enable */
 252:..\u8g2\csrc/u8x8_d_uc1611.c **** 
 253:..\u8g2\csrc/u8x8_d_uc1611.c ****   U8X8_C(0x0d1),            			/* display pattern */  
 254:..\u8g2\csrc/u8x8_d_uc1611.c ****   U8X8_C(0x089),            			/* auto increment */
 255:..\u8g2\csrc/u8x8_d_uc1611.c ****   U8X8_CA(0x0c0, 0x004),            	/* LCD Mapping */
 256:..\u8g2\csrc/u8x8_d_uc1611.c ****   U8X8_C(0x000),		                /* column low nibble */
ARM GAS  C:\Users\brian\AppData\Local\Temp\cchHvIBZ.s 			page 11


 257:..\u8g2\csrc/u8x8_d_uc1611.c ****   U8X8_C(0x010),		                /* column high nibble */  
 258:..\u8g2\csrc/u8x8_d_uc1611.c ****   U8X8_C(0x060),		                /* page adr low */
 259:..\u8g2\csrc/u8x8_d_uc1611.c ****   U8X8_C(0x070),		                /* page adr high */
 260:..\u8g2\csrc/u8x8_d_uc1611.c ****   
 261:..\u8g2\csrc/u8x8_d_uc1611.c ****   
 262:..\u8g2\csrc/u8x8_d_uc1611.c ****   U8X8_END_TRANSFER(),             	/* disable chip */
 263:..\u8g2\csrc/u8x8_d_uc1611.c ****   U8X8_END()             			/* end of sequence */
 264:..\u8g2\csrc/u8x8_d_uc1611.c **** };
 265:..\u8g2\csrc/u8x8_d_uc1611.c **** 
 266:..\u8g2\csrc/u8x8_d_uc1611.c **** static const u8x8_display_info_t u8x8_uc1611_240x128_display_info =
 267:..\u8g2\csrc/u8x8_d_uc1611.c **** {
 268:..\u8g2\csrc/u8x8_d_uc1611.c ****   /* chip_enable_level = */ 0,
 269:..\u8g2\csrc/u8x8_d_uc1611.c ****   /* chip_disable_level = */ 1,
 270:..\u8g2\csrc/u8x8_d_uc1611.c ****   
 271:..\u8g2\csrc/u8x8_d_uc1611.c ****   /* post_chip_enable_wait_ns = */ 10,	/* uc1611 datasheet, page 60, actually 0 */
 272:..\u8g2\csrc/u8x8_d_uc1611.c ****   /* pre_chip_disable_wait_ns = */ 10,	/* uc1611 datasheet, page 60, actually 0 */
 273:..\u8g2\csrc/u8x8_d_uc1611.c ****   /* reset_pulse_width_ms = */ 1, 
 274:..\u8g2\csrc/u8x8_d_uc1611.c ****   /* post_reset_wait_ms = */ 10, 	/* uc1611 datasheet, page 67 */
 275:..\u8g2\csrc/u8x8_d_uc1611.c ****   /* sda_setup_time_ns = */ 10,		/* uc1611 datasheet, page 64, actually 0 */
 276:..\u8g2\csrc/u8x8_d_uc1611.c ****   /* sck_pulse_width_ns = */ 60,	/* half of cycle time  */
 277:..\u8g2\csrc/u8x8_d_uc1611.c ****   /* sck_clock_hz = */ 8000000UL,	/* since Arduino 1.6.0, the SPI bus speed in Hz. Should be  10000
 278:..\u8g2\csrc/u8x8_d_uc1611.c ****   /* spi_mode = */ 0,		/* active high, rising edge */
 279:..\u8g2\csrc/u8x8_d_uc1611.c ****   /* i2c_bus_clock_100kHz = */ 4,
 280:..\u8g2\csrc/u8x8_d_uc1611.c ****   /* data_setup_time_ns = */ 30,	/* uc1611 datasheet, page 60 */
 281:..\u8g2\csrc/u8x8_d_uc1611.c ****   /* write_pulse_width_ns = */ 80,	/* uc1611 datasheet, page 60 */
 282:..\u8g2\csrc/u8x8_d_uc1611.c ****   /* tile_width = */ 30,		/* width of 30*8=240 pixel */
 283:..\u8g2\csrc/u8x8_d_uc1611.c ****   /* tile_hight = */ 16,
 284:..\u8g2\csrc/u8x8_d_uc1611.c ****   /* default_x_offset = */ 0,
 285:..\u8g2\csrc/u8x8_d_uc1611.c ****   /* flipmode_x_offset = */ 0,
 286:..\u8g2\csrc/u8x8_d_uc1611.c ****   /* pixel_width = */ 240,
 287:..\u8g2\csrc/u8x8_d_uc1611.c ****   /* pixel_height = */ 128
 288:..\u8g2\csrc/u8x8_d_uc1611.c **** };
 289:..\u8g2\csrc/u8x8_d_uc1611.c **** 
 290:..\u8g2\csrc/u8x8_d_uc1611.c **** /* UC1611s 240x128 display */
 291:..\u8g2\csrc/u8x8_d_uc1611.c **** uint8_t u8x8_d_uc1611_ea_dogxl240(u8x8_t *u8x8, uint8_t msg, uint8_t arg_int, void *arg_ptr)
 292:..\u8g2\csrc/u8x8_d_uc1611.c **** {
 296              		.loc 1 292 0
 297              		.cfi_startproc
 298              		@ args = 0, pretend = 0, frame = 0
 299              		@ frame_needed = 0, uses_anonymous_args = 0
 300              	.LVL36:
 301 0000 70B5     		push	{r4, r5, r6, lr}
 302              		.cfi_def_cfa_offset 16
 303              		.cfi_offset 4, -16
 304              		.cfi_offset 5, -12
 305              		.cfi_offset 6, -8
 306              		.cfi_offset 14, -4
 307 0002 0546     		mov	r5, r0
 308 0004 0C46     		mov	r4, r1
 309 0006 1646     		mov	r6, r2
 293:..\u8g2\csrc/u8x8_d_uc1611.c ****   /* call common procedure first and handle messages there */
 294:..\u8g2\csrc/u8x8_d_uc1611.c ****   if ( u8x8_d_uc1611_common(u8x8, msg, arg_int, arg_ptr) == 0 )
 310              		.loc 1 294 0
 311 0008 FFF7FEFF 		bl	u8x8_d_uc1611_common
 312              	.LVL37:
 313 000c 0028     		cmp	r0, #0
 314 000e 3AD1     		bne	.L31
ARM GAS  C:\Users\brian\AppData\Local\Temp\cchHvIBZ.s 			page 12


 315 0010 0346     		mov	r3, r0
 295:..\u8g2\csrc/u8x8_d_uc1611.c ****   {
 296:..\u8g2\csrc/u8x8_d_uc1611.c ****     /* msg not handled, then try here */
 297:..\u8g2\csrc/u8x8_d_uc1611.c ****     switch(msg)
 316              		.loc 1 297 0
 317 0012 A4F10901 		sub	r1, r4, #9
 318 0016 0429     		cmp	r1, #4
 319 0018 36D8     		bhi	.L23
 320 001a DFE801F0 		tbb	[pc, r1]
 321              	.L25:
 322 001e 03       		.byte	(.L24-.L25)/2
 323 001f 09       		.byte	(.L26-.L25)/2
 324 0020 12       		.byte	(.L27-.L25)/2
 325 0021 35       		.byte	(.L23-.L25)/2
 326 0022 1F       		.byte	(.L28-.L25)/2
 327 0023 00       		.p2align 1
 328              	.L24:
 298:..\u8g2\csrc/u8x8_d_uc1611.c ****     {
 299:..\u8g2\csrc/u8x8_d_uc1611.c ****       case U8X8_MSG_DISPLAY_SETUP_MEMORY:
 300:..\u8g2\csrc/u8x8_d_uc1611.c **** 	u8x8_d_helper_display_setup_memory(u8x8, &u8x8_uc1611_240x128_display_info);
 329              		.loc 1 300 0
 330 0024 1949     		ldr	r1, .L33
 331 0026 2846     		mov	r0, r5
 332 0028 FFF7FEFF 		bl	u8x8_d_helper_display_setup_memory
 333              	.LVL38:
 301:..\u8g2\csrc/u8x8_d_uc1611.c **** 	break;
 302:..\u8g2\csrc/u8x8_d_uc1611.c ****       case U8X8_MSG_DISPLAY_INIT:
 303:..\u8g2\csrc/u8x8_d_uc1611.c **** 	u8x8_d_helper_display_init(u8x8);
 304:..\u8g2\csrc/u8x8_d_uc1611.c **** 	u8x8_cad_SendSequence(u8x8, u8x8_d_uc1611_ea_dogxl240_init_seq);
 305:..\u8g2\csrc/u8x8_d_uc1611.c **** 	break;
 306:..\u8g2\csrc/u8x8_d_uc1611.c ****       case U8X8_MSG_DISPLAY_SET_POWER_SAVE:
 307:..\u8g2\csrc/u8x8_d_uc1611.c **** 	if ( arg_int == 0 )
 308:..\u8g2\csrc/u8x8_d_uc1611.c **** 	  u8x8_cad_SendSequence(u8x8, u8x8_d_uc1611s_powersave0_seq);
 309:..\u8g2\csrc/u8x8_d_uc1611.c **** 	else
 310:..\u8g2\csrc/u8x8_d_uc1611.c **** 	  u8x8_cad_SendSequence(u8x8, u8x8_d_uc1611s_powersave1_seq);
 311:..\u8g2\csrc/u8x8_d_uc1611.c **** 	break;
 312:..\u8g2\csrc/u8x8_d_uc1611.c ****       case U8X8_MSG_DISPLAY_SET_FLIP_MODE:
 313:..\u8g2\csrc/u8x8_d_uc1611.c **** 	if ( arg_int == 0 )
 314:..\u8g2\csrc/u8x8_d_uc1611.c **** 	{
 315:..\u8g2\csrc/u8x8_d_uc1611.c **** 	  u8x8_cad_SendSequence(u8x8, u8x8_d_uc1611s_flip0_seq);
 316:..\u8g2\csrc/u8x8_d_uc1611.c **** 	  u8x8->x_offset = u8x8->display_info->default_x_offset;
 317:..\u8g2\csrc/u8x8_d_uc1611.c **** 	}
 318:..\u8g2\csrc/u8x8_d_uc1611.c **** 	else
 319:..\u8g2\csrc/u8x8_d_uc1611.c **** 	{
 320:..\u8g2\csrc/u8x8_d_uc1611.c **** 	  u8x8_cad_SendSequence(u8x8, u8x8_d_uc1611s_flip1_seq);
 321:..\u8g2\csrc/u8x8_d_uc1611.c **** 	  u8x8->x_offset = u8x8->display_info->flipmode_x_offset;
 322:..\u8g2\csrc/u8x8_d_uc1611.c **** 	}	
 323:..\u8g2\csrc/u8x8_d_uc1611.c **** 	break;
 324:..\u8g2\csrc/u8x8_d_uc1611.c ****       default:
 325:..\u8g2\csrc/u8x8_d_uc1611.c **** 	return 0;		/* msg unknown */
 326:..\u8g2\csrc/u8x8_d_uc1611.c ****     }
 327:..\u8g2\csrc/u8x8_d_uc1611.c ****   }
 328:..\u8g2\csrc/u8x8_d_uc1611.c ****   return 1;
 334              		.loc 1 328 0
 335 002c 0123     		movs	r3, #1
 301:..\u8g2\csrc/u8x8_d_uc1611.c **** 	break;
 336              		.loc 1 301 0
ARM GAS  C:\Users\brian\AppData\Local\Temp\cchHvIBZ.s 			page 13


 337 002e 2BE0     		b	.L23
 338              	.L26:
 303:..\u8g2\csrc/u8x8_d_uc1611.c **** 	u8x8_cad_SendSequence(u8x8, u8x8_d_uc1611_ea_dogxl240_init_seq);
 339              		.loc 1 303 0
 340 0030 2846     		mov	r0, r5
 341 0032 FFF7FEFF 		bl	u8x8_d_helper_display_init
 342              	.LVL39:
 304:..\u8g2\csrc/u8x8_d_uc1611.c **** 	break;
 343              		.loc 1 304 0
 344 0036 1649     		ldr	r1, .L33+4
 345 0038 2846     		mov	r0, r5
 346 003a FFF7FEFF 		bl	u8x8_cad_SendSequence
 347              	.LVL40:
 348              		.loc 1 328 0
 349 003e 0123     		movs	r3, #1
 305:..\u8g2\csrc/u8x8_d_uc1611.c ****       case U8X8_MSG_DISPLAY_SET_POWER_SAVE:
 350              		.loc 1 305 0
 351 0040 22E0     		b	.L23
 352              	.L27:
 307:..\u8g2\csrc/u8x8_d_uc1611.c **** 	  u8x8_cad_SendSequence(u8x8, u8x8_d_uc1611s_powersave0_seq);
 353              		.loc 1 307 0
 354 0042 2EB9     		cbnz	r6, .L29
 308:..\u8g2\csrc/u8x8_d_uc1611.c **** 	else
 355              		.loc 1 308 0
 356 0044 1349     		ldr	r1, .L33+8
 357 0046 2846     		mov	r0, r5
 358 0048 FFF7FEFF 		bl	u8x8_cad_SendSequence
 359              	.LVL41:
 360              		.loc 1 328 0
 361 004c 0123     		movs	r3, #1
 362 004e 1BE0     		b	.L23
 363              	.L29:
 310:..\u8g2\csrc/u8x8_d_uc1611.c **** 	break;
 364              		.loc 1 310 0
 365 0050 1149     		ldr	r1, .L33+12
 366 0052 2846     		mov	r0, r5
 367 0054 FFF7FEFF 		bl	u8x8_cad_SendSequence
 368              	.LVL42:
 369              		.loc 1 328 0
 370 0058 0123     		movs	r3, #1
 371 005a 15E0     		b	.L23
 372              	.L28:
 313:..\u8g2\csrc/u8x8_d_uc1611.c **** 	{
 373              		.loc 1 313 0
 374 005c 4EB9     		cbnz	r6, .L30
 315:..\u8g2\csrc/u8x8_d_uc1611.c **** 	  u8x8->x_offset = u8x8->display_info->default_x_offset;
 375              		.loc 1 315 0
 376 005e 0F49     		ldr	r1, .L33+16
 377 0060 2846     		mov	r0, r5
 378 0062 FFF7FEFF 		bl	u8x8_cad_SendSequence
 379              	.LVL43:
 316:..\u8g2\csrc/u8x8_d_uc1611.c **** 	}
 380              		.loc 1 316 0
 381 0066 2B68     		ldr	r3, [r5]
 382 0068 9B7C     		ldrb	r3, [r3, #18]	@ zero_extendqisi2
 383 006a 85F82230 		strb	r3, [r5, #34]
 384              		.loc 1 328 0
ARM GAS  C:\Users\brian\AppData\Local\Temp\cchHvIBZ.s 			page 14


 385 006e 0123     		movs	r3, #1
 386 0070 0AE0     		b	.L23
 387              	.L30:
 320:..\u8g2\csrc/u8x8_d_uc1611.c **** 	  u8x8->x_offset = u8x8->display_info->flipmode_x_offset;
 388              		.loc 1 320 0
 389 0072 0B49     		ldr	r1, .L33+20
 390 0074 2846     		mov	r0, r5
 391 0076 FFF7FEFF 		bl	u8x8_cad_SendSequence
 392              	.LVL44:
 321:..\u8g2\csrc/u8x8_d_uc1611.c **** 	}	
 393              		.loc 1 321 0
 394 007a 2B68     		ldr	r3, [r5]
 395 007c DB7C     		ldrb	r3, [r3, #19]	@ zero_extendqisi2
 396 007e 85F82230 		strb	r3, [r5, #34]
 397              		.loc 1 328 0
 398 0082 0123     		movs	r3, #1
 399 0084 00E0     		b	.L23
 400              	.L31:
 401 0086 0123     		movs	r3, #1
 402              	.L23:
 329:..\u8g2\csrc/u8x8_d_uc1611.c **** }
 403              		.loc 1 329 0
 404 0088 1846     		mov	r0, r3
 405 008a 70BD     		pop	{r4, r5, r6, pc}
 406              	.LVL45:
 407              	.L34:
 408              		.align	2
 409              	.L33:
 410 008c 60000000 		.word	.LANCHOR0+96
 411 0090 78000000 		.word	.LANCHOR0+120
 412 0094 40000000 		.word	.LANCHOR0+64
 413 0098 48000000 		.word	.LANCHOR0+72
 414 009c 50000000 		.word	.LANCHOR0+80
 415 00a0 58000000 		.word	.LANCHOR0+88
 416              		.cfi_endproc
 417              	.LFE2:
 418              		.size	u8x8_d_uc1611_ea_dogxl240, .-u8x8_d_uc1611_ea_dogxl240
 419              		.section	.text.u8x8_d_uc1611_ew50850,"ax",%progbits
 420              		.align	2
 421              		.global	u8x8_d_uc1611_ew50850
 422              		.thumb
 423              		.thumb_func
 424              		.type	u8x8_d_uc1611_ew50850, %function
 425              	u8x8_d_uc1611_ew50850:
 426              	.LFB3:
 330:..\u8g2\csrc/u8x8_d_uc1611.c **** 
 331:..\u8g2\csrc/u8x8_d_uc1611.c **** /*================================================*/
 332:..\u8g2\csrc/u8x8_d_uc1611.c **** /* EMERGING DISPLAY, EW50850FLWP 240x160 */
 333:..\u8g2\csrc/u8x8_d_uc1611.c **** /* active high CS (CS1), UC1611 display  */
 334:..\u8g2\csrc/u8x8_d_uc1611.c **** 
 335:..\u8g2\csrc/u8x8_d_uc1611.c **** static const uint8_t u8x8_d_uc1611_ew50850_init_seq[] = {
 336:..\u8g2\csrc/u8x8_d_uc1611.c ****     
 337:..\u8g2\csrc/u8x8_d_uc1611.c ****   U8X8_START_TRANSFER(),             	/* enable chip, delay is part of the transfer start */
 338:..\u8g2\csrc/u8x8_d_uc1611.c ****   U8X8_C(0x02f),            			/* internal pump control */
 339:..\u8g2\csrc/u8x8_d_uc1611.c ****   U8X8_CA(0x0f1, 159),			/* set COM end */
 340:..\u8g2\csrc/u8x8_d_uc1611.c ****   U8X8_CA(0x0f2, 0),			/* display line start */
 341:..\u8g2\csrc/u8x8_d_uc1611.c ****   U8X8_CA(0x0f3, 159),			/* display line end */
ARM GAS  C:\Users\brian\AppData\Local\Temp\cchHvIBZ.s 			page 15


 342:..\u8g2\csrc/u8x8_d_uc1611.c ****   U8X8_C(0x0a3),            			/* line rate */
 343:..\u8g2\csrc/u8x8_d_uc1611.c ****   U8X8_CA(0x081, 75),			/* set contrast */
 344:..\u8g2\csrc/u8x8_d_uc1611.c ****   
 345:..\u8g2\csrc/u8x8_d_uc1611.c ****   //U8X8_C(0x0a9),            			/* display enable */
 346:..\u8g2\csrc/u8x8_d_uc1611.c **** 
 347:..\u8g2\csrc/u8x8_d_uc1611.c ****   U8X8_C(0x0d2),            			/* gray level mode: 16 gray shades */  
 348:..\u8g2\csrc/u8x8_d_uc1611.c ****   U8X8_C(0x089),            			/* auto increment */
 349:..\u8g2\csrc/u8x8_d_uc1611.c ****   U8X8_C(0x0c0),            			/* LCD Mapping Bit 0: MSF, Bit 1: MX, Bit 2: MY */
 350:..\u8g2\csrc/u8x8_d_uc1611.c ****   U8X8_C(0x000),		                /* column low nibble */
 351:..\u8g2\csrc/u8x8_d_uc1611.c ****   U8X8_C(0x010),		                /* column high nibble */  
 352:..\u8g2\csrc/u8x8_d_uc1611.c ****   U8X8_C(0x060),		                /* page adr low */
 353:..\u8g2\csrc/u8x8_d_uc1611.c ****   U8X8_C(0x070),		                /* page adr high */
 354:..\u8g2\csrc/u8x8_d_uc1611.c ****     
 355:..\u8g2\csrc/u8x8_d_uc1611.c ****   U8X8_END_TRANSFER(),             	/* disable chip */
 356:..\u8g2\csrc/u8x8_d_uc1611.c ****   U8X8_END()             			/* end of sequence */
 357:..\u8g2\csrc/u8x8_d_uc1611.c **** };
 358:..\u8g2\csrc/u8x8_d_uc1611.c **** 
 359:..\u8g2\csrc/u8x8_d_uc1611.c **** static const u8x8_display_info_t u8x8_uc1611_ew50850_display_info =
 360:..\u8g2\csrc/u8x8_d_uc1611.c **** {
 361:..\u8g2\csrc/u8x8_d_uc1611.c ****   /* chip_enable_level = */ 1,		/* active high */
 362:..\u8g2\csrc/u8x8_d_uc1611.c ****   /* chip_disable_level = */ 0,
 363:..\u8g2\csrc/u8x8_d_uc1611.c ****   
 364:..\u8g2\csrc/u8x8_d_uc1611.c ****   /* post_chip_enable_wait_ns = */ 10,	/* uc1611 datasheet, page 60, actually 0 */
 365:..\u8g2\csrc/u8x8_d_uc1611.c ****   /* pre_chip_disable_wait_ns = */ 10,	/* uc1611 datasheet, page 60, actually 0 */
 366:..\u8g2\csrc/u8x8_d_uc1611.c ****   /* reset_pulse_width_ms = */ 1, 
 367:..\u8g2\csrc/u8x8_d_uc1611.c ****   /* post_reset_wait_ms = */ 10, 	/* uc1611 datasheet, page 67 */
 368:..\u8g2\csrc/u8x8_d_uc1611.c ****   /* sda_setup_time_ns = */ 10,		/* uc1611 datasheet, page 64, actually 0 */
 369:..\u8g2\csrc/u8x8_d_uc1611.c ****   /* sck_pulse_width_ns = */ 60,	/* half of cycle time  */
 370:..\u8g2\csrc/u8x8_d_uc1611.c ****   /* sck_clock_hz = */ 8000000UL,	/* since Arduino 1.6.0, the SPI bus speed in Hz. Should be  10000
 371:..\u8g2\csrc/u8x8_d_uc1611.c ****   /* spi_mode = */ 0,		/* active high, rising edge */
 372:..\u8g2\csrc/u8x8_d_uc1611.c ****   /* i2c_bus_clock_100kHz = */ 4,
 373:..\u8g2\csrc/u8x8_d_uc1611.c ****   /* data_setup_time_ns = */ 30,	/* uc1611 datasheet, page 60 */
 374:..\u8g2\csrc/u8x8_d_uc1611.c ****   /* write_pulse_width_ns = */ 80,	/* uc1611 datasheet, page 60 */
 375:..\u8g2\csrc/u8x8_d_uc1611.c ****   /* tile_width = */ 30,		/* width of 30*8=240 pixel */
 376:..\u8g2\csrc/u8x8_d_uc1611.c ****   /* tile_hight = */ 20,		/* height: 160 pixel */
 377:..\u8g2\csrc/u8x8_d_uc1611.c ****   /* default_x_offset = */ 0,
 378:..\u8g2\csrc/u8x8_d_uc1611.c ****   /* flipmode_x_offset = */ 0,
 379:..\u8g2\csrc/u8x8_d_uc1611.c ****   /* pixel_width = */ 240,
 380:..\u8g2\csrc/u8x8_d_uc1611.c ****   /* pixel_height = */ 160
 381:..\u8g2\csrc/u8x8_d_uc1611.c **** };
 382:..\u8g2\csrc/u8x8_d_uc1611.c **** 
 383:..\u8g2\csrc/u8x8_d_uc1611.c **** static const uint8_t u8x8_d_uc1611_alt_flip0_seq[] = {
 384:..\u8g2\csrc/u8x8_d_uc1611.c ****   U8X8_START_TRANSFER(),             	/* enable chip, delay is part of the transfer start */
 385:..\u8g2\csrc/u8x8_d_uc1611.c ****   U8X8_C(0x0c0),				/* LCD Mapping Bit 0: MSF, Bit 1: MX, Bit 2: MY */
 386:..\u8g2\csrc/u8x8_d_uc1611.c ****   U8X8_END_TRANSFER(),             	/* disable chip */
 387:..\u8g2\csrc/u8x8_d_uc1611.c ****   U8X8_END()             			/* end of sequence */
 388:..\u8g2\csrc/u8x8_d_uc1611.c **** };
 389:..\u8g2\csrc/u8x8_d_uc1611.c **** 
 390:..\u8g2\csrc/u8x8_d_uc1611.c **** static const uint8_t u8x8_d_uc1611_alt_flip1_seq[] = {
 391:..\u8g2\csrc/u8x8_d_uc1611.c ****   U8X8_START_TRANSFER(),             	/* enable chip, delay is part of the transfer start */
 392:..\u8g2\csrc/u8x8_d_uc1611.c ****   U8X8_C(0x0c6),				/* LCD Mapping Bit 0: MSF, Bit 1: MX, Bit 2: MY */
 393:..\u8g2\csrc/u8x8_d_uc1611.c ****   U8X8_END_TRANSFER(),             	/* disable chip */
 394:..\u8g2\csrc/u8x8_d_uc1611.c ****   U8X8_END()             			/* end of sequence */
 395:..\u8g2\csrc/u8x8_d_uc1611.c **** };
 396:..\u8g2\csrc/u8x8_d_uc1611.c **** 
 397:..\u8g2\csrc/u8x8_d_uc1611.c **** static const uint8_t u8x8_d_uc1611_powersave0_seq[] = {
 398:..\u8g2\csrc/u8x8_d_uc1611.c ****   U8X8_START_TRANSFER(),             	/* enable chip, delay is part of the transfer start */
ARM GAS  C:\Users\brian\AppData\Local\Temp\cchHvIBZ.s 			page 16


 399:..\u8g2\csrc/u8x8_d_uc1611.c ****   U8X8_C(0x0af),		                /* display on, UC1611 */
 400:..\u8g2\csrc/u8x8_d_uc1611.c ****   U8X8_END_TRANSFER(),             	/* disable chip */
 401:..\u8g2\csrc/u8x8_d_uc1611.c ****   U8X8_END()             			/* end of sequence */
 402:..\u8g2\csrc/u8x8_d_uc1611.c **** };
 403:..\u8g2\csrc/u8x8_d_uc1611.c **** 
 404:..\u8g2\csrc/u8x8_d_uc1611.c **** static const uint8_t u8x8_d_uc1611_powersave1_seq[] = {
 405:..\u8g2\csrc/u8x8_d_uc1611.c ****   U8X8_START_TRANSFER(),             	/* enable chip, delay is part of the transfer start */
 406:..\u8g2\csrc/u8x8_d_uc1611.c ****   U8X8_C(0x0a8),		                /* display off, enter sleep mode, UC1611 */
 407:..\u8g2\csrc/u8x8_d_uc1611.c ****   U8X8_END_TRANSFER(),             	/* disable chip */
 408:..\u8g2\csrc/u8x8_d_uc1611.c ****   U8X8_END()             			/* end of sequence */
 409:..\u8g2\csrc/u8x8_d_uc1611.c **** };
 410:..\u8g2\csrc/u8x8_d_uc1611.c **** 
 411:..\u8g2\csrc/u8x8_d_uc1611.c **** 
 412:..\u8g2\csrc/u8x8_d_uc1611.c **** /* EW50850, 240x160 */
 413:..\u8g2\csrc/u8x8_d_uc1611.c **** uint8_t u8x8_d_uc1611_ew50850(u8x8_t *u8x8, uint8_t msg, uint8_t arg_int, void *arg_ptr)
 414:..\u8g2\csrc/u8x8_d_uc1611.c **** {
 427              		.loc 1 414 0
 428              		.cfi_startproc
 429              		@ args = 0, pretend = 0, frame = 24
 430              		@ frame_needed = 0, uses_anonymous_args = 0
 431              	.LVL46:
 432 0000 2DE9F04F 		push	{r4, r5, r6, r7, r8, r9, r10, fp, lr}
 433              		.cfi_def_cfa_offset 36
 434              		.cfi_offset 4, -36
 435              		.cfi_offset 5, -32
 436              		.cfi_offset 6, -28
 437              		.cfi_offset 7, -24
 438              		.cfi_offset 8, -20
 439              		.cfi_offset 9, -16
 440              		.cfi_offset 10, -12
 441              		.cfi_offset 11, -8
 442              		.cfi_offset 14, -4
 443 0004 87B0     		sub	sp, sp, #28
 444              		.cfi_def_cfa_offset 64
 445 0006 0646     		mov	r6, r0
 446 0008 0292     		str	r2, [sp, #8]
 447 000a 9A46     		mov	r10, r3
 415:..\u8g2\csrc/u8x8_d_uc1611.c ****   uint8_t x, y, c, i, v, m0, m1, ai;
 416:..\u8g2\csrc/u8x8_d_uc1611.c ****   uint8_t *ptr;
 417:..\u8g2\csrc/u8x8_d_uc1611.c ****   /* msg not handled, then try here */
 418:..\u8g2\csrc/u8x8_d_uc1611.c ****   switch(msg)
 448              		.loc 1 418 0
 449 000c 0939     		subs	r1, r1, #9
 450              	.LVL47:
 451 000e 0629     		cmp	r1, #6
 452 0010 00F2B580 		bhi	.L53
 453 0014 DFE801F0 		tbb	[pc, r1]
 454              	.LVL48:
 455              	.L38:
 456 0018 77       		.byte	(.L37-.L38)/2
 457 0019 7C       		.byte	(.L39-.L38)/2
 458 001a 84       		.byte	(.L40-.L38)/2
 459 001b B3       		.byte	(.L53-.L38)/2
 460 001c 90       		.byte	(.L41-.L38)/2
 461 001d A4       		.byte	(.L42-.L38)/2
 462 001e 04       		.byte	(.L43-.L38)/2
 463 001f 00       		.p2align 1
ARM GAS  C:\Users\brian\AppData\Local\Temp\cchHvIBZ.s 			page 17


 464              	.L43:
 419:..\u8g2\csrc/u8x8_d_uc1611.c ****   {
 420:..\u8g2\csrc/u8x8_d_uc1611.c ****     case U8X8_MSG_DISPLAY_DRAW_TILE:
 421:..\u8g2\csrc/u8x8_d_uc1611.c ****       u8x8_cad_StartTransfer(u8x8);
 465              		.loc 1 421 0
 466 0020 FFF7FEFF 		bl	u8x8_cad_StartTransfer
 467              	.LVL49:
 422:..\u8g2\csrc/u8x8_d_uc1611.c ****     
 423:..\u8g2\csrc/u8x8_d_uc1611.c ****       x = ((u8x8_tile_t *)arg_ptr)->x_pos;
 468              		.loc 1 423 0
 469 0024 9AF80530 		ldrb	r3, [r10, #5]	@ zero_extendqisi2
 470              	.LVL50:
 424:..\u8g2\csrc/u8x8_d_uc1611.c ****       x *= 8;
 471              		.loc 1 424 0
 472 0028 DB00     		lsls	r3, r3, #3
 473              	.LVL51:
 474 002a DBB2     		uxtb	r3, r3
 475              	.LVL52:
 425:..\u8g2\csrc/u8x8_d_uc1611.c ****       x += u8x8->x_offset;
 476              		.loc 1 425 0
 477 002c 96F82220 		ldrb	r2, [r6, #34]	@ zero_extendqisi2
 478 0030 1344     		add	r3, r3, r2
 479              	.LVL53:
 480 0032 DBB2     		uxtb	r3, r3
 481 0034 0393     		str	r3, [sp, #12]
 482              	.LVL54:
 426:..\u8g2\csrc/u8x8_d_uc1611.c ****    
 427:..\u8g2\csrc/u8x8_d_uc1611.c ****       y = ((u8x8_tile_t *)arg_ptr)->y_pos;
 483              		.loc 1 427 0
 484 0036 9AF806B0 		ldrb	fp, [r10, #6]	@ zero_extendqisi2
 485              	.LVL55:
 428:..\u8g2\csrc/u8x8_d_uc1611.c ****       y*=4;
 486              		.loc 1 428 0
 487 003a 4FEA8B0B 		lsl	fp, fp, #2
 488              	.LVL56:
 489 003e 5FFA8BFB 		uxtb	fp, fp
 490              	.LVL57:
 429:..\u8g2\csrc/u8x8_d_uc1611.c ****       m0 = 1;
 430:..\u8g2\csrc/u8x8_d_uc1611.c ****       m1 = 2;
 491              		.loc 1 430 0
 492 0042 4FF00208 		mov	r8, #2
 429:..\u8g2\csrc/u8x8_d_uc1611.c ****       m0 = 1;
 493              		.loc 1 429 0
 494 0046 0127     		movs	r7, #1
 431:..\u8g2\csrc/u8x8_d_uc1611.c ****       for( i = 0; i < 4; i++ )
 495              		.loc 1 431 0
 496 0048 0023     		movs	r3, #0
 497 004a 0193     		str	r3, [sp, #4]
 498 004c 53E0     		b	.L44
 499              	.LVL58:
 500              	.L50:
 432:..\u8g2\csrc/u8x8_d_uc1611.c ****       {
 433:..\u8g2\csrc/u8x8_d_uc1611.c ****         u8x8_cad_SendCmd(u8x8, 0x000 | ((x&15)));
 501              		.loc 1 433 0
 502 004e 039C     		ldr	r4, [sp, #12]
 503 0050 04F00F01 		and	r1, r4, #15
 504 0054 3046     		mov	r0, r6
ARM GAS  C:\Users\brian\AppData\Local\Temp\cchHvIBZ.s 			page 18


 505 0056 FFF7FEFF 		bl	u8x8_cad_SendCmd
 506              	.LVL59:
 434:..\u8g2\csrc/u8x8_d_uc1611.c ****         u8x8_cad_SendCmd(u8x8, 0x010 | (x>>4) );
 507              		.loc 1 434 0
 508 005a 2109     		lsrs	r1, r4, #4
 509 005c 41F01001 		orr	r1, r1, #16
 510 0060 3046     		mov	r0, r6
 511 0062 FFF7FEFF 		bl	u8x8_cad_SendCmd
 512              	.LVL60:
 435:..\u8g2\csrc/u8x8_d_uc1611.c ****     
 436:..\u8g2\csrc/u8x8_d_uc1611.c **** 	u8x8_cad_SendCmd(u8x8, 0x060 | (y&15));
 513              		.loc 1 436 0
 514 0066 0BF00F01 		and	r1, fp, #15
 515 006a 41F06001 		orr	r1, r1, #96
 516 006e 3046     		mov	r0, r6
 517 0070 FFF7FEFF 		bl	u8x8_cad_SendCmd
 518              	.LVL61:
 437:..\u8g2\csrc/u8x8_d_uc1611.c **** 	u8x8_cad_SendCmd(u8x8, 0x070 | (y>>4));
 519              		.loc 1 437 0
 520 0074 4FEA1B11 		lsr	r1, fp, #4
 521 0078 41F07001 		orr	r1, r1, #112
 522 007c 3046     		mov	r0, r6
 523 007e FFF7FEFF 		bl	u8x8_cad_SendCmd
 524              	.LVL62:
 438:..\u8g2\csrc/u8x8_d_uc1611.c ****       
 439:..\u8g2\csrc/u8x8_d_uc1611.c **** 	ai = arg_int;
 525              		.loc 1 439 0
 526 0082 DDF80890 		ldr	r9, [sp, #8]
 527              	.LVL63:
 528              	.L49:
 440:..\u8g2\csrc/u8x8_d_uc1611.c **** 	do
 441:..\u8g2\csrc/u8x8_d_uc1611.c **** 	{
 442:..\u8g2\csrc/u8x8_d_uc1611.c **** 	  c = ((u8x8_tile_t *)arg_ptr)->cnt;
 529              		.loc 1 442 0
 530 0086 9AF80440 		ldrb	r4, [r10, #4]	@ zero_extendqisi2
 531              	.LVL64:
 443:..\u8g2\csrc/u8x8_d_uc1611.c **** 	  c *= 8;
 532              		.loc 1 443 0
 533 008a E400     		lsls	r4, r4, #3
 534              	.LVL65:
 535 008c E4B2     		uxtb	r4, r4
 536              	.LVL66:
 444:..\u8g2\csrc/u8x8_d_uc1611.c **** 	  ptr = ((u8x8_tile_t *)arg_ptr)->tile_ptr;
 537              		.loc 1 444 0
 538 008e DAF80050 		ldr	r5, [r10]
 539              	.LVL67:
 445:..\u8g2\csrc/u8x8_d_uc1611.c **** 	  while( c > 0 )
 540              		.loc 1 445 0
 541 0092 1BE0     		b	.L45
 542              	.L48:
 446:..\u8g2\csrc/u8x8_d_uc1611.c **** 	  {
 447:..\u8g2\csrc/u8x8_d_uc1611.c **** 	    v = 0;
 543              		.loc 1 447 0
 544 0094 0023     		movs	r3, #0
 545 0096 8DF81730 		strb	r3, [sp, #23]
 448:..\u8g2\csrc/u8x8_d_uc1611.c **** 	    if ( *ptr & m0 )
 546              		.loc 1 448 0
ARM GAS  C:\Users\brian\AppData\Local\Temp\cchHvIBZ.s 			page 19


 547 009a 2B78     		ldrb	r3, [r5]	@ zero_extendqisi2
 548 009c 1F42     		tst	r7, r3
 549 009e 02D0     		beq	.L46
 449:..\u8g2\csrc/u8x8_d_uc1611.c **** 	      v|= 0x0f;
 550              		.loc 1 449 0
 551 00a0 0F23     		movs	r3, #15
 552 00a2 8DF81730 		strb	r3, [sp, #23]
 553              	.L46:
 450:..\u8g2\csrc/u8x8_d_uc1611.c **** 	    if ( *ptr & m1 )
 554              		.loc 1 450 0
 555 00a6 2B78     		ldrb	r3, [r5]	@ zero_extendqisi2
 556 00a8 18EA030F 		tst	r8, r3
 557 00ac 05D0     		beq	.L47
 451:..\u8g2\csrc/u8x8_d_uc1611.c **** 	      v|= 0xf0;
 558              		.loc 1 451 0
 559 00ae 9DF81730 		ldrb	r3, [sp, #23]	@ zero_extendqisi2
 560 00b2 63F00F03 		orn	r3, r3, #15
 561 00b6 8DF81730 		strb	r3, [sp, #23]
 562              	.L47:
 452:..\u8g2\csrc/u8x8_d_uc1611.c **** 	    u8x8_cad_SendData(u8x8, 1, &v);	/* note: SendData can not handle more than 255 bytes */
 563              		.loc 1 452 0
 564 00ba 0DF11702 		add	r2, sp, #23
 565 00be 0121     		movs	r1, #1
 566 00c0 3046     		mov	r0, r6
 567 00c2 FFF7FEFF 		bl	u8x8_cad_SendData
 568              	.LVL68:
 453:..\u8g2\csrc/u8x8_d_uc1611.c **** 	    c--;
 569              		.loc 1 453 0
 570 00c6 013C     		subs	r4, r4, #1
 571              	.LVL69:
 572 00c8 E4B2     		uxtb	r4, r4
 573              	.LVL70:
 454:..\u8g2\csrc/u8x8_d_uc1611.c ****             ptr++;
 574              		.loc 1 454 0
 575 00ca 0135     		adds	r5, r5, #1
 576              	.LVL71:
 577              	.L45:
 445:..\u8g2\csrc/u8x8_d_uc1611.c **** 	  {
 578              		.loc 1 445 0
 579 00cc 002C     		cmp	r4, #0
 580 00ce E1D1     		bne	.L48
 455:..\u8g2\csrc/u8x8_d_uc1611.c **** 	  }
 456:..\u8g2\csrc/u8x8_d_uc1611.c **** 	  ai--;
 581              		.loc 1 456 0
 582 00d0 09F1FF39 		add	r9, r9, #-1
 583              	.LVL72:
 457:..\u8g2\csrc/u8x8_d_uc1611.c **** 	} while( ai > 0 );
 584              		.loc 1 457 0
 585 00d4 19F0FF09 		ands	r9, r9, #255
 586              	.LVL73:
 587 00d8 D5D1     		bne	.L49
 458:..\u8g2\csrc/u8x8_d_uc1611.c **** 	
 459:..\u8g2\csrc/u8x8_d_uc1611.c **** 	m0 <<= 2;
 588              		.loc 1 459 0 discriminator 2
 589 00da BF00     		lsls	r7, r7, #2
 590              	.LVL74:
 591 00dc FFB2     		uxtb	r7, r7
ARM GAS  C:\Users\brian\AppData\Local\Temp\cchHvIBZ.s 			page 20


 592              	.LVL75:
 460:..\u8g2\csrc/u8x8_d_uc1611.c **** 	m1 <<= 2;
 593              		.loc 1 460 0 discriminator 2
 594 00de 4FEA8808 		lsl	r8, r8, #2
 595              	.LVL76:
 596 00e2 5FFA88F8 		uxtb	r8, r8
 597              	.LVL77:
 461:..\u8g2\csrc/u8x8_d_uc1611.c **** 	y++;
 598              		.loc 1 461 0 discriminator 2
 599 00e6 0BF1010B 		add	fp, fp, #1
 600              	.LVL78:
 601 00ea 5FFA8BFB 		uxtb	fp, fp
 602              	.LVL79:
 431:..\u8g2\csrc/u8x8_d_uc1611.c ****       {
 603              		.loc 1 431 0 discriminator 2
 604 00ee 019B     		ldr	r3, [sp, #4]
 605 00f0 0133     		adds	r3, r3, #1
 606 00f2 DBB2     		uxtb	r3, r3
 607 00f4 0193     		str	r3, [sp, #4]
 608              	.LVL80:
 609              	.L44:
 431:..\u8g2\csrc/u8x8_d_uc1611.c ****       {
 610              		.loc 1 431 0 is_stmt 0 discriminator 1
 611 00f6 019B     		ldr	r3, [sp, #4]
 612 00f8 032B     		cmp	r3, #3
 613 00fa A8D9     		bls	.L50
 462:..\u8g2\csrc/u8x8_d_uc1611.c ****       }
 463:..\u8g2\csrc/u8x8_d_uc1611.c ****       u8x8_cad_EndTransfer(u8x8);
 614              		.loc 1 463 0 is_stmt 1
 615 00fc 3046     		mov	r0, r6
 616 00fe FFF7FEFF 		bl	u8x8_cad_EndTransfer
 617              	.LVL81:
 464:..\u8g2\csrc/u8x8_d_uc1611.c ****       break;
 465:..\u8g2\csrc/u8x8_d_uc1611.c ****     case U8X8_MSG_DISPLAY_SETUP_MEMORY:
 466:..\u8g2\csrc/u8x8_d_uc1611.c ****       u8x8_d_helper_display_setup_memory(u8x8, &u8x8_uc1611_ew50850_display_info);
 467:..\u8g2\csrc/u8x8_d_uc1611.c ****       break;
 468:..\u8g2\csrc/u8x8_d_uc1611.c ****     case U8X8_MSG_DISPLAY_INIT:
 469:..\u8g2\csrc/u8x8_d_uc1611.c ****       u8x8_d_helper_display_init(u8x8);
 470:..\u8g2\csrc/u8x8_d_uc1611.c ****       u8x8_cad_SendSequence(u8x8, u8x8_d_uc1611_ew50850_init_seq);
 471:..\u8g2\csrc/u8x8_d_uc1611.c ****       break;
 472:..\u8g2\csrc/u8x8_d_uc1611.c ****     case U8X8_MSG_DISPLAY_SET_POWER_SAVE:
 473:..\u8g2\csrc/u8x8_d_uc1611.c ****       if ( arg_int == 0 )
 474:..\u8g2\csrc/u8x8_d_uc1611.c **** 	u8x8_cad_SendSequence(u8x8, u8x8_d_uc1611_powersave0_seq);
 475:..\u8g2\csrc/u8x8_d_uc1611.c ****       else
 476:..\u8g2\csrc/u8x8_d_uc1611.c **** 	u8x8_cad_SendSequence(u8x8, u8x8_d_uc1611_powersave1_seq);
 477:..\u8g2\csrc/u8x8_d_uc1611.c ****       break;
 478:..\u8g2\csrc/u8x8_d_uc1611.c ****     case U8X8_MSG_DISPLAY_SET_FLIP_MODE:
 479:..\u8g2\csrc/u8x8_d_uc1611.c ****       if ( arg_int == 0 )
 480:..\u8g2\csrc/u8x8_d_uc1611.c ****       {
 481:..\u8g2\csrc/u8x8_d_uc1611.c **** 	u8x8_cad_SendSequence(u8x8, u8x8_d_uc1611_alt_flip0_seq);
 482:..\u8g2\csrc/u8x8_d_uc1611.c **** 	u8x8->x_offset = u8x8->display_info->default_x_offset;
 483:..\u8g2\csrc/u8x8_d_uc1611.c ****       }
 484:..\u8g2\csrc/u8x8_d_uc1611.c ****       else
 485:..\u8g2\csrc/u8x8_d_uc1611.c ****       {
 486:..\u8g2\csrc/u8x8_d_uc1611.c **** 	u8x8_cad_SendSequence(u8x8, u8x8_d_uc1611_alt_flip1_seq);
 487:..\u8g2\csrc/u8x8_d_uc1611.c **** 	u8x8->x_offset = u8x8->display_info->flipmode_x_offset;
 488:..\u8g2\csrc/u8x8_d_uc1611.c ****       }	
ARM GAS  C:\Users\brian\AppData\Local\Temp\cchHvIBZ.s 			page 21


 489:..\u8g2\csrc/u8x8_d_uc1611.c ****       break;
 490:..\u8g2\csrc/u8x8_d_uc1611.c **** #ifdef U8X8_WITH_SET_CONTRAST
 491:..\u8g2\csrc/u8x8_d_uc1611.c ****   case U8X8_MSG_DISPLAY_SET_CONTRAST:
 492:..\u8g2\csrc/u8x8_d_uc1611.c ****     u8x8_cad_StartTransfer(u8x8);
 493:..\u8g2\csrc/u8x8_d_uc1611.c ****     u8x8_cad_SendCmd(u8x8, 0x081 );
 494:..\u8g2\csrc/u8x8_d_uc1611.c ****     u8x8_cad_SendArg(u8x8, arg_int  );	/* uc1611 has range from 0 to 255 */
 495:..\u8g2\csrc/u8x8_d_uc1611.c ****     u8x8_cad_EndTransfer(u8x8);
 496:..\u8g2\csrc/u8x8_d_uc1611.c ****     break;
 497:..\u8g2\csrc/u8x8_d_uc1611.c **** #endif
 498:..\u8g2\csrc/u8x8_d_uc1611.c ****     default:
 499:..\u8g2\csrc/u8x8_d_uc1611.c ****       return 0;		/* msg unknown */
 500:..\u8g2\csrc/u8x8_d_uc1611.c ****   }
 501:..\u8g2\csrc/u8x8_d_uc1611.c ****   return 1;
 618              		.loc 1 501 0
 619 0102 0120     		movs	r0, #1
 464:..\u8g2\csrc/u8x8_d_uc1611.c ****       break;
 620              		.loc 1 464 0
 621 0104 3CE0     		b	.L36
 622              	.LVL82:
 623              	.L37:
 466:..\u8g2\csrc/u8x8_d_uc1611.c ****       break;
 624              		.loc 1 466 0
 625 0106 2049     		ldr	r1, .L55
 626 0108 FFF7FEFF 		bl	u8x8_d_helper_display_setup_memory
 627              	.LVL83:
 628              		.loc 1 501 0
 629 010c 0120     		movs	r0, #1
 467:..\u8g2\csrc/u8x8_d_uc1611.c ****     case U8X8_MSG_DISPLAY_INIT:
 630              		.loc 1 467 0
 631 010e 37E0     		b	.L36
 632              	.LVL84:
 633              	.L39:
 469:..\u8g2\csrc/u8x8_d_uc1611.c ****       u8x8_cad_SendSequence(u8x8, u8x8_d_uc1611_ew50850_init_seq);
 634              		.loc 1 469 0
 635 0110 FFF7FEFF 		bl	u8x8_d_helper_display_init
 636              	.LVL85:
 470:..\u8g2\csrc/u8x8_d_uc1611.c ****       break;
 637              		.loc 1 470 0
 638 0114 1D49     		ldr	r1, .L55+4
 639 0116 3046     		mov	r0, r6
 640 0118 FFF7FEFF 		bl	u8x8_cad_SendSequence
 641              	.LVL86:
 642              		.loc 1 501 0
 643 011c 0120     		movs	r0, #1
 471:..\u8g2\csrc/u8x8_d_uc1611.c ****     case U8X8_MSG_DISPLAY_SET_POWER_SAVE:
 644              		.loc 1 471 0
 645 011e 2FE0     		b	.L36
 646              	.LVL87:
 647              	.L40:
 473:..\u8g2\csrc/u8x8_d_uc1611.c **** 	u8x8_cad_SendSequence(u8x8, u8x8_d_uc1611_powersave0_seq);
 648              		.loc 1 473 0
 649 0120 029B     		ldr	r3, [sp, #8]
 650 0122 23B9     		cbnz	r3, .L51
 474:..\u8g2\csrc/u8x8_d_uc1611.c ****       else
 651              		.loc 1 474 0
 652 0124 1A49     		ldr	r1, .L55+8
 653 0126 FFF7FEFF 		bl	u8x8_cad_SendSequence
ARM GAS  C:\Users\brian\AppData\Local\Temp\cchHvIBZ.s 			page 22


 654              	.LVL88:
 655              		.loc 1 501 0
 656 012a 0120     		movs	r0, #1
 657 012c 28E0     		b	.L36
 658              	.LVL89:
 659              	.L51:
 476:..\u8g2\csrc/u8x8_d_uc1611.c ****       break;
 660              		.loc 1 476 0
 661 012e 1949     		ldr	r1, .L55+12
 662 0130 FFF7FEFF 		bl	u8x8_cad_SendSequence
 663              	.LVL90:
 664              		.loc 1 501 0
 665 0134 0120     		movs	r0, #1
 666 0136 23E0     		b	.L36
 667              	.LVL91:
 668              	.L41:
 479:..\u8g2\csrc/u8x8_d_uc1611.c ****       {
 669              		.loc 1 479 0
 670 0138 029B     		ldr	r3, [sp, #8]
 671 013a 43B9     		cbnz	r3, .L52
 481:..\u8g2\csrc/u8x8_d_uc1611.c **** 	u8x8->x_offset = u8x8->display_info->default_x_offset;
 672              		.loc 1 481 0
 673 013c 1649     		ldr	r1, .L55+16
 674 013e FFF7FEFF 		bl	u8x8_cad_SendSequence
 675              	.LVL92:
 482:..\u8g2\csrc/u8x8_d_uc1611.c ****       }
 676              		.loc 1 482 0
 677 0142 3368     		ldr	r3, [r6]
 678 0144 9B7C     		ldrb	r3, [r3, #18]	@ zero_extendqisi2
 679 0146 86F82230 		strb	r3, [r6, #34]
 680              		.loc 1 501 0
 681 014a 0120     		movs	r0, #1
 682 014c 18E0     		b	.L36
 683              	.LVL93:
 684              	.L52:
 486:..\u8g2\csrc/u8x8_d_uc1611.c **** 	u8x8->x_offset = u8x8->display_info->flipmode_x_offset;
 685              		.loc 1 486 0
 686 014e 1349     		ldr	r1, .L55+20
 687 0150 FFF7FEFF 		bl	u8x8_cad_SendSequence
 688              	.LVL94:
 487:..\u8g2\csrc/u8x8_d_uc1611.c ****       }	
 689              		.loc 1 487 0
 690 0154 3368     		ldr	r3, [r6]
 691 0156 DB7C     		ldrb	r3, [r3, #19]	@ zero_extendqisi2
 692 0158 86F82230 		strb	r3, [r6, #34]
 693              		.loc 1 501 0
 694 015c 0120     		movs	r0, #1
 695 015e 0FE0     		b	.L36
 696              	.LVL95:
 697              	.L42:
 492:..\u8g2\csrc/u8x8_d_uc1611.c ****     u8x8_cad_SendCmd(u8x8, 0x081 );
 698              		.loc 1 492 0
 699 0160 FFF7FEFF 		bl	u8x8_cad_StartTransfer
 700              	.LVL96:
 493:..\u8g2\csrc/u8x8_d_uc1611.c ****     u8x8_cad_SendArg(u8x8, arg_int  );	/* uc1611 has range from 0 to 255 */
 701              		.loc 1 493 0
 702 0164 8121     		movs	r1, #129
ARM GAS  C:\Users\brian\AppData\Local\Temp\cchHvIBZ.s 			page 23


 703 0166 3046     		mov	r0, r6
 704 0168 FFF7FEFF 		bl	u8x8_cad_SendCmd
 705              	.LVL97:
 494:..\u8g2\csrc/u8x8_d_uc1611.c ****     u8x8_cad_EndTransfer(u8x8);
 706              		.loc 1 494 0
 707 016c 0299     		ldr	r1, [sp, #8]
 708 016e 3046     		mov	r0, r6
 709 0170 FFF7FEFF 		bl	u8x8_cad_SendArg
 710              	.LVL98:
 495:..\u8g2\csrc/u8x8_d_uc1611.c ****     break;
 711              		.loc 1 495 0
 712 0174 3046     		mov	r0, r6
 713 0176 FFF7FEFF 		bl	u8x8_cad_EndTransfer
 714              	.LVL99:
 715              		.loc 1 501 0
 716 017a 0120     		movs	r0, #1
 496:..\u8g2\csrc/u8x8_d_uc1611.c **** #endif
 717              		.loc 1 496 0
 718 017c 00E0     		b	.L36
 719              	.LVL100:
 720              	.L53:
 499:..\u8g2\csrc/u8x8_d_uc1611.c ****   }
 721              		.loc 1 499 0
 722 017e 0020     		movs	r0, #0
 723              	.LVL101:
 724              	.L36:
 502:..\u8g2\csrc/u8x8_d_uc1611.c **** }
 725              		.loc 1 502 0
 726 0180 07B0     		add	sp, sp, #28
 727              		.cfi_def_cfa_offset 36
 728              		@ sp needed
 729 0182 BDE8F08F 		pop	{r4, r5, r6, r7, r8, r9, r10, fp, pc}
 730              	.LVL102:
 731              	.L56:
 732 0186 00BF     		.align	2
 733              	.L55:
 734 0188 A0000000 		.word	.LANCHOR0+160
 735 018c B8000000 		.word	.LANCHOR0+184
 736 0190 E0000000 		.word	.LANCHOR0+224
 737 0194 E8000000 		.word	.LANCHOR0+232
 738 0198 F0000000 		.word	.LANCHOR0+240
 739 019c F8000000 		.word	.LANCHOR0+248
 740              		.cfi_endproc
 741              	.LFE3:
 742              		.size	u8x8_d_uc1611_ew50850, .-u8x8_d_uc1611_ew50850
 743              		.section	.text.u8x8_d_uc1611_cg160160,"ax",%progbits
 744              		.align	2
 745              		.global	u8x8_d_uc1611_cg160160
 746              		.thumb
 747              		.thumb_func
 748              		.type	u8x8_d_uc1611_cg160160, %function
 749              	u8x8_d_uc1611_cg160160:
 750              	.LFB4:
 503:..\u8g2\csrc/u8x8_d_uc1611.c **** 
 504:..\u8g2\csrc/u8x8_d_uc1611.c **** 
 505:..\u8g2\csrc/u8x8_d_uc1611.c **** /*================================================*/
 506:..\u8g2\csrc/u8x8_d_uc1611.c **** /* CG160160D, http://www.cloverdisplay.com/pdf/CG160160D.pdf  */
ARM GAS  C:\Users\brian\AppData\Local\Temp\cchHvIBZ.s 			page 24


 507:..\u8g2\csrc/u8x8_d_uc1611.c **** 
 508:..\u8g2\csrc/u8x8_d_uc1611.c **** /*
 509:..\u8g2\csrc/u8x8_d_uc1611.c ****   UC1611 has two chip select inputs (CS0 and CS1).
 510:..\u8g2\csrc/u8x8_d_uc1611.c ****   CS0 is low active, CS1 is high active. It will depend on the display
 511:..\u8g2\csrc/u8x8_d_uc1611.c ****   module whether the display has a is low or high active chip select.
 512:..\u8g2\csrc/u8x8_d_uc1611.c **** 
 513:..\u8g2\csrc/u8x8_d_uc1611.c ****   Connect CS1 to 3.3V and CS0 to GPIO
 514:..\u8g2\csrc/u8x8_d_uc1611.c **** */
 515:..\u8g2\csrc/u8x8_d_uc1611.c **** 
 516:..\u8g2\csrc/u8x8_d_uc1611.c **** static const u8x8_display_info_t u8x8_uc1611_cg160160_display_info =
 517:..\u8g2\csrc/u8x8_d_uc1611.c **** {
 518:..\u8g2\csrc/u8x8_d_uc1611.c ****   /* chip_enable_level = */ 0,			/* use CS0 of the UC1611 */
 519:..\u8g2\csrc/u8x8_d_uc1611.c ****   /* chip_disable_level = */ 1,
 520:..\u8g2\csrc/u8x8_d_uc1611.c ****   
 521:..\u8g2\csrc/u8x8_d_uc1611.c ****   /* post_chip_enable_wait_ns = */ 10,	/* uc1611 datasheet, page 60, actually 0 */
 522:..\u8g2\csrc/u8x8_d_uc1611.c ****   /* pre_chip_disable_wait_ns = */ 10,	/* uc1611 datasheet, page 60, actually 0 */
 523:..\u8g2\csrc/u8x8_d_uc1611.c ****   /* reset_pulse_width_ms = */ 1, 
 524:..\u8g2\csrc/u8x8_d_uc1611.c ****   /* post_reset_wait_ms = */ 10, 	/* uc1611 datasheet, page 67 */
 525:..\u8g2\csrc/u8x8_d_uc1611.c ****   /* sda_setup_time_ns = */ 10,		/* uc1611 datasheet, page 64, actually 0 */
 526:..\u8g2\csrc/u8x8_d_uc1611.c ****   /* sck_pulse_width_ns = */ 60,	/* half of cycle time  */
 527:..\u8g2\csrc/u8x8_d_uc1611.c ****   /* sck_clock_hz = */ 8000000UL,	/* since Arduino 1.6.0, the SPI bus speed in Hz. Should be  10000
 528:..\u8g2\csrc/u8x8_d_uc1611.c ****   /* spi_mode = */ 0,		/* active high, rising edge */
 529:..\u8g2\csrc/u8x8_d_uc1611.c ****   /* i2c_bus_clock_100kHz = */ 4,
 530:..\u8g2\csrc/u8x8_d_uc1611.c ****   /* data_setup_time_ns = */ 30,	/* uc1611 datasheet, page 60 */
 531:..\u8g2\csrc/u8x8_d_uc1611.c ****   /* write_pulse_width_ns = */ 80,	/* uc1611 datasheet, page 60 */
 532:..\u8g2\csrc/u8x8_d_uc1611.c ****   /* tile_width = */ 20,		/* width of 20*8=160 pixel */
 533:..\u8g2\csrc/u8x8_d_uc1611.c ****   /* tile_hight = */ 20,
 534:..\u8g2\csrc/u8x8_d_uc1611.c ****   /* default_x_offset = */ 0,
 535:..\u8g2\csrc/u8x8_d_uc1611.c ****   /* flipmode_x_offset = */ 0,
 536:..\u8g2\csrc/u8x8_d_uc1611.c ****   /* pixel_width = */ 160,
 537:..\u8g2\csrc/u8x8_d_uc1611.c ****   /* pixel_height = */ 160
 538:..\u8g2\csrc/u8x8_d_uc1611.c **** };
 539:..\u8g2\csrc/u8x8_d_uc1611.c **** 
 540:..\u8g2\csrc/u8x8_d_uc1611.c **** /*
 541:..\u8g2\csrc/u8x8_d_uc1611.c **** System Reset: E2H 	--> DONE
 542:..\u8g2\csrc/u8x8_d_uc1611.c **** Set Temp. Compensation: 24H --> DONE
 543:..\u8g2\csrc/u8x8_d_uc1611.c **** Set up LCD format specific parameters MX,MY,etc(double-byte command): C0H,04H  --> FLIP0
 544:..\u8g2\csrc/u8x8_d_uc1611.c **** Set line rate: A3H --> DONE
 545:..\u8g2\csrc/u8x8_d_uc1611.c **** Set Pump Control (internal Vlcd): 2FH --> DONE
 546:..\u8g2\csrc/u8x8_d_uc1611.c **** Set Isolation Clock Front (3 bytes command): 82H, 13H, 01H  --> DONE
 547:..\u8g2\csrc/u8x8_d_uc1611.c **** Set Isolation Clock Back (3 bytes command): 82H, 14H, 00H  --> DONE
 548:..\u8g2\csrc/u8x8_d_uc1611.c **** Set LCD Bias Ratio: EAH 
 549:..\u8g2\csrc/u8x8_d_uc1611.c **** LCD Specific Operation Voltage Setting (double-byte command): 81H, 90H --> DONE
 550:..\u8g2\csrc/u8x8_d_uc1611.c **** Set RAM Address Control: 80H --> DOES NOT MAKE SENSE
 551:..\u8g2\csrc/u8x8_d_uc1611.c **** Set Page Addr. MSB: 72H 		--> DONE
 552:..\u8g2\csrc/u8x8_d_uc1611.c **** Set Page Addr. LSB : 60H 		--> DONE
 553:..\u8g2\csrc/u8x8_d_uc1611.c **** Set Column Addr. LSB: 00H 		--> DONE
 554:..\u8g2\csrc/u8x8_d_uc1611.c **** Set Column Addr.MSB: 10H 		--> DONE
 555:..\u8g2\csrc/u8x8_d_uc1611.c **** Window Program Enable : F8H 		--> NOT REQURED
 556:..\u8g2\csrc/u8x8_d_uc1611.c **** Window Starting Column (double-byte command): F4H , 00H --> NOT REQURED
 557:..\u8g2\csrc/u8x8_d_uc1611.c **** Window Ending Column (double-byte command): F6H, 9FH --> NOT REQURED
 558:..\u8g2\csrc/u8x8_d_uc1611.c **** Set one bit for one pixel: D1H 		--> DONE
 559:..\u8g2\csrc/u8x8_d_uc1611.c **** Set Display Enable: A9H 
 560:..\u8g2\csrc/u8x8_d_uc1611.c **** */
 561:..\u8g2\csrc/u8x8_d_uc1611.c **** 
 562:..\u8g2\csrc/u8x8_d_uc1611.c **** static const uint8_t u8x8_d_uc1611_cg160160_init_seq[] = {
 563:..\u8g2\csrc/u8x8_d_uc1611.c ****     
ARM GAS  C:\Users\brian\AppData\Local\Temp\cchHvIBZ.s 			page 25


 564:..\u8g2\csrc/u8x8_d_uc1611.c ****   U8X8_START_TRANSFER(),             	/* enable chip, delay is part of the transfer start */
 565:..\u8g2\csrc/u8x8_d_uc1611.c ****   U8X8_C(0x0e2),				/* system reset */
 566:..\u8g2\csrc/u8x8_d_uc1611.c ****   U8X8_DLY(2),
 567:..\u8g2\csrc/u8x8_d_uc1611.c ****   U8X8_C(0x024),            			/* Temp. Compensation to 0 = -0.05%/ Grad C */
 568:..\u8g2\csrc/u8x8_d_uc1611.c ****   U8X8_C(0x0a3),            			/* line rate */  
 569:..\u8g2\csrc/u8x8_d_uc1611.c ****   U8X8_C(0x02f),            			/* internal pump control */
 570:..\u8g2\csrc/u8x8_d_uc1611.c ****   U8X8_CAA(0x082, 0x013, 0x001), /* Isolation front clock, "1" is the default value */
 571:..\u8g2\csrc/u8x8_d_uc1611.c ****   U8X8_CAA(0x082, 0x014, 0x000), /* Isolation back clock, "0" is the default value */
 572:..\u8g2\csrc/u8x8_d_uc1611.c ****   U8X8_C(0x0ea),            			/* bias ratio, default: 0x0ea */
 573:..\u8g2\csrc/u8x8_d_uc1611.c ****   U8X8_CA(0x081, 0x090),		/* set contrast, CG160160: 0x090 */
 574:..\u8g2\csrc/u8x8_d_uc1611.c ****   
 575:..\u8g2\csrc/u8x8_d_uc1611.c ****   //U8X8_CA(0x0f1, 159),			/* set COM end */
 576:..\u8g2\csrc/u8x8_d_uc1611.c ****   //U8X8_CA(0x0f2, 0),			/* display line start */
 577:..\u8g2\csrc/u8x8_d_uc1611.c ****   //U8X8_CA(0x0f3, 159),			/* display line end */
 578:..\u8g2\csrc/u8x8_d_uc1611.c ****   
 579:..\u8g2\csrc/u8x8_d_uc1611.c ****   //U8X8_C(0x0a9),            			/* display enable */
 580:..\u8g2\csrc/u8x8_d_uc1611.c **** 
 581:..\u8g2\csrc/u8x8_d_uc1611.c ****   U8X8_C(0x089),            			/* RAM Address Control: auto increment */
 582:..\u8g2\csrc/u8x8_d_uc1611.c ****   U8X8_C(0x0d1),            			/* display pattern */  
 583:..\u8g2\csrc/u8x8_d_uc1611.c ****   U8X8_CA(0x0c0, 0x004),            	/* LCD Mapping */
 584:..\u8g2\csrc/u8x8_d_uc1611.c ****   U8X8_C(0x000),		                /* column low nibble */
 585:..\u8g2\csrc/u8x8_d_uc1611.c ****   U8X8_C(0x010),		                /* column high nibble */  
 586:..\u8g2\csrc/u8x8_d_uc1611.c ****   U8X8_C(0x060),		                /* page adr low */
 587:..\u8g2\csrc/u8x8_d_uc1611.c ****   U8X8_C(0x070),		                /* page adr high */
 588:..\u8g2\csrc/u8x8_d_uc1611.c ****   
 589:..\u8g2\csrc/u8x8_d_uc1611.c ****   
 590:..\u8g2\csrc/u8x8_d_uc1611.c ****   U8X8_END_TRANSFER(),             	/* disable chip */
 591:..\u8g2\csrc/u8x8_d_uc1611.c ****   U8X8_END()             			/* end of sequence */
 592:..\u8g2\csrc/u8x8_d_uc1611.c **** };
 593:..\u8g2\csrc/u8x8_d_uc1611.c **** 
 594:..\u8g2\csrc/u8x8_d_uc1611.c **** /* cg160160 display */
 595:..\u8g2\csrc/u8x8_d_uc1611.c **** uint8_t u8x8_d_uc1611_cg160160(u8x8_t *u8x8, uint8_t msg, uint8_t arg_int, void *arg_ptr)
 596:..\u8g2\csrc/u8x8_d_uc1611.c **** {
 751              		.loc 1 596 0
 752              		.cfi_startproc
 753              		@ args = 0, pretend = 0, frame = 0
 754              		@ frame_needed = 0, uses_anonymous_args = 0
 755              	.LVL103:
 756 0000 70B5     		push	{r4, r5, r6, lr}
 757              		.cfi_def_cfa_offset 16
 758              		.cfi_offset 4, -16
 759              		.cfi_offset 5, -12
 760              		.cfi_offset 6, -8
 761              		.cfi_offset 14, -4
 762 0002 0546     		mov	r5, r0
 763 0004 0C46     		mov	r4, r1
 764 0006 1646     		mov	r6, r2
 597:..\u8g2\csrc/u8x8_d_uc1611.c ****   /* call common procedure first and handle messages there */
 598:..\u8g2\csrc/u8x8_d_uc1611.c ****   if ( u8x8_d_uc1611_common(u8x8, msg, arg_int, arg_ptr) == 0 )
 765              		.loc 1 598 0
 766 0008 FFF7FEFF 		bl	u8x8_d_uc1611_common
 767              	.LVL104:
 768 000c 0028     		cmp	r0, #0
 769 000e 3AD1     		bne	.L66
 770 0010 0346     		mov	r3, r0
 599:..\u8g2\csrc/u8x8_d_uc1611.c ****   {
 600:..\u8g2\csrc/u8x8_d_uc1611.c ****     /* msg not handled, then try here */
ARM GAS  C:\Users\brian\AppData\Local\Temp\cchHvIBZ.s 			page 26


 601:..\u8g2\csrc/u8x8_d_uc1611.c ****     switch(msg)
 771              		.loc 1 601 0
 772 0012 A4F10901 		sub	r1, r4, #9
 773 0016 0429     		cmp	r1, #4
 774 0018 36D8     		bhi	.L58
 775 001a DFE801F0 		tbb	[pc, r1]
 776              	.L60:
 777 001e 03       		.byte	(.L59-.L60)/2
 778 001f 09       		.byte	(.L61-.L60)/2
 779 0020 12       		.byte	(.L62-.L60)/2
 780 0021 35       		.byte	(.L58-.L60)/2
 781 0022 1F       		.byte	(.L63-.L60)/2
 782 0023 00       		.p2align 1
 783              	.L59:
 602:..\u8g2\csrc/u8x8_d_uc1611.c ****     {
 603:..\u8g2\csrc/u8x8_d_uc1611.c ****       case U8X8_MSG_DISPLAY_SETUP_MEMORY:
 604:..\u8g2\csrc/u8x8_d_uc1611.c **** 	u8x8_d_helper_display_setup_memory(u8x8, &u8x8_uc1611_cg160160_display_info);
 784              		.loc 1 604 0
 785 0024 1949     		ldr	r1, .L68
 786 0026 2846     		mov	r0, r5
 787 0028 FFF7FEFF 		bl	u8x8_d_helper_display_setup_memory
 788              	.LVL105:
 605:..\u8g2\csrc/u8x8_d_uc1611.c **** 	break;
 606:..\u8g2\csrc/u8x8_d_uc1611.c ****       case U8X8_MSG_DISPLAY_INIT:
 607:..\u8g2\csrc/u8x8_d_uc1611.c **** 	u8x8_d_helper_display_init(u8x8);
 608:..\u8g2\csrc/u8x8_d_uc1611.c **** 	u8x8_cad_SendSequence(u8x8, u8x8_d_uc1611_cg160160_init_seq);
 609:..\u8g2\csrc/u8x8_d_uc1611.c **** 	break;
 610:..\u8g2\csrc/u8x8_d_uc1611.c ****       case U8X8_MSG_DISPLAY_SET_POWER_SAVE:
 611:..\u8g2\csrc/u8x8_d_uc1611.c **** 	if ( arg_int == 0 )
 612:..\u8g2\csrc/u8x8_d_uc1611.c **** 	  u8x8_cad_SendSequence(u8x8, u8x8_d_uc1611s_powersave0_seq);
 613:..\u8g2\csrc/u8x8_d_uc1611.c **** 	else
 614:..\u8g2\csrc/u8x8_d_uc1611.c **** 	  u8x8_cad_SendSequence(u8x8, u8x8_d_uc1611s_powersave1_seq);
 615:..\u8g2\csrc/u8x8_d_uc1611.c **** 	break;
 616:..\u8g2\csrc/u8x8_d_uc1611.c ****       case U8X8_MSG_DISPLAY_SET_FLIP_MODE:
 617:..\u8g2\csrc/u8x8_d_uc1611.c **** 	if ( arg_int == 0 )
 618:..\u8g2\csrc/u8x8_d_uc1611.c **** 	{
 619:..\u8g2\csrc/u8x8_d_uc1611.c **** 	  u8x8_cad_SendSequence(u8x8, u8x8_d_uc1611s_flip0_seq);
 620:..\u8g2\csrc/u8x8_d_uc1611.c **** 	  u8x8->x_offset = u8x8->display_info->default_x_offset;
 621:..\u8g2\csrc/u8x8_d_uc1611.c **** 	}
 622:..\u8g2\csrc/u8x8_d_uc1611.c **** 	else
 623:..\u8g2\csrc/u8x8_d_uc1611.c **** 	{
 624:..\u8g2\csrc/u8x8_d_uc1611.c **** 	  u8x8_cad_SendSequence(u8x8, u8x8_d_uc1611s_flip1_seq);
 625:..\u8g2\csrc/u8x8_d_uc1611.c **** 	  u8x8->x_offset = u8x8->display_info->flipmode_x_offset;
 626:..\u8g2\csrc/u8x8_d_uc1611.c **** 	}	
 627:..\u8g2\csrc/u8x8_d_uc1611.c **** 	break;
 628:..\u8g2\csrc/u8x8_d_uc1611.c ****       default:
 629:..\u8g2\csrc/u8x8_d_uc1611.c **** 	return 0;		/* msg unknown */
 630:..\u8g2\csrc/u8x8_d_uc1611.c ****     }
 631:..\u8g2\csrc/u8x8_d_uc1611.c ****   }
 632:..\u8g2\csrc/u8x8_d_uc1611.c ****   return 1;
 789              		.loc 1 632 0
 790 002c 0123     		movs	r3, #1
 605:..\u8g2\csrc/u8x8_d_uc1611.c **** 	break;
 791              		.loc 1 605 0
 792 002e 2BE0     		b	.L58
 793              	.L61:
 607:..\u8g2\csrc/u8x8_d_uc1611.c **** 	u8x8_cad_SendSequence(u8x8, u8x8_d_uc1611_cg160160_init_seq);
ARM GAS  C:\Users\brian\AppData\Local\Temp\cchHvIBZ.s 			page 27


 794              		.loc 1 607 0
 795 0030 2846     		mov	r0, r5
 796 0032 FFF7FEFF 		bl	u8x8_d_helper_display_init
 797              	.LVL106:
 608:..\u8g2\csrc/u8x8_d_uc1611.c **** 	break;
 798              		.loc 1 608 0
 799 0036 1649     		ldr	r1, .L68+4
 800 0038 2846     		mov	r0, r5
 801 003a FFF7FEFF 		bl	u8x8_cad_SendSequence
 802              	.LVL107:
 803              		.loc 1 632 0
 804 003e 0123     		movs	r3, #1
 609:..\u8g2\csrc/u8x8_d_uc1611.c ****       case U8X8_MSG_DISPLAY_SET_POWER_SAVE:
 805              		.loc 1 609 0
 806 0040 22E0     		b	.L58
 807              	.L62:
 611:..\u8g2\csrc/u8x8_d_uc1611.c **** 	  u8x8_cad_SendSequence(u8x8, u8x8_d_uc1611s_powersave0_seq);
 808              		.loc 1 611 0
 809 0042 2EB9     		cbnz	r6, .L64
 612:..\u8g2\csrc/u8x8_d_uc1611.c **** 	else
 810              		.loc 1 612 0
 811 0044 1349     		ldr	r1, .L68+8
 812 0046 2846     		mov	r0, r5
 813 0048 FFF7FEFF 		bl	u8x8_cad_SendSequence
 814              	.LVL108:
 815              		.loc 1 632 0
 816 004c 0123     		movs	r3, #1
 817 004e 1BE0     		b	.L58
 818              	.L64:
 614:..\u8g2\csrc/u8x8_d_uc1611.c **** 	break;
 819              		.loc 1 614 0
 820 0050 1149     		ldr	r1, .L68+12
 821 0052 2846     		mov	r0, r5
 822 0054 FFF7FEFF 		bl	u8x8_cad_SendSequence
 823              	.LVL109:
 824              		.loc 1 632 0
 825 0058 0123     		movs	r3, #1
 826 005a 15E0     		b	.L58
 827              	.L63:
 617:..\u8g2\csrc/u8x8_d_uc1611.c **** 	{
 828              		.loc 1 617 0
 829 005c 4EB9     		cbnz	r6, .L65
 619:..\u8g2\csrc/u8x8_d_uc1611.c **** 	  u8x8->x_offset = u8x8->display_info->default_x_offset;
 830              		.loc 1 619 0
 831 005e 0F49     		ldr	r1, .L68+16
 832 0060 2846     		mov	r0, r5
 833 0062 FFF7FEFF 		bl	u8x8_cad_SendSequence
 834              	.LVL110:
 620:..\u8g2\csrc/u8x8_d_uc1611.c **** 	}
 835              		.loc 1 620 0
 836 0066 2B68     		ldr	r3, [r5]
 837 0068 9B7C     		ldrb	r3, [r3, #18]	@ zero_extendqisi2
 838 006a 85F82230 		strb	r3, [r5, #34]
 839              		.loc 1 632 0
 840 006e 0123     		movs	r3, #1
 841 0070 0AE0     		b	.L58
 842              	.L65:
ARM GAS  C:\Users\brian\AppData\Local\Temp\cchHvIBZ.s 			page 28


 624:..\u8g2\csrc/u8x8_d_uc1611.c **** 	  u8x8->x_offset = u8x8->display_info->flipmode_x_offset;
 843              		.loc 1 624 0
 844 0072 0B49     		ldr	r1, .L68+20
 845 0074 2846     		mov	r0, r5
 846 0076 FFF7FEFF 		bl	u8x8_cad_SendSequence
 847              	.LVL111:
 625:..\u8g2\csrc/u8x8_d_uc1611.c **** 	}	
 848              		.loc 1 625 0
 849 007a 2B68     		ldr	r3, [r5]
 850 007c DB7C     		ldrb	r3, [r3, #19]	@ zero_extendqisi2
 851 007e 85F82230 		strb	r3, [r5, #34]
 852              		.loc 1 632 0
 853 0082 0123     		movs	r3, #1
 854 0084 00E0     		b	.L58
 855              	.L66:
 856 0086 0123     		movs	r3, #1
 857              	.L58:
 633:..\u8g2\csrc/u8x8_d_uc1611.c **** }
 858              		.loc 1 633 0
 859 0088 1846     		mov	r0, r3
 860 008a 70BD     		pop	{r4, r5, r6, pc}
 861              	.LVL112:
 862              	.L69:
 863              		.align	2
 864              	.L68:
 865 008c 00010000 		.word	.LANCHOR0+256
 866 0090 18010000 		.word	.LANCHOR0+280
 867 0094 40000000 		.word	.LANCHOR0+64
 868 0098 48000000 		.word	.LANCHOR0+72
 869 009c 50000000 		.word	.LANCHOR0+80
 870 00a0 58000000 		.word	.LANCHOR0+88
 871              		.cfi_endproc
 872              	.LFE4:
 873              		.size	u8x8_d_uc1611_cg160160, .-u8x8_d_uc1611_cg160160
 874              		.section	.text.u8x8_d_uc1611_ids4073,"ax",%progbits
 875              		.align	2
 876              		.global	u8x8_d_uc1611_ids4073
 877              		.thumb
 878              		.thumb_func
 879              		.type	u8x8_d_uc1611_ids4073, %function
 880              	u8x8_d_uc1611_ids4073:
 881              	.LFB5:
 634:..\u8g2\csrc/u8x8_d_uc1611.c **** 
 635:..\u8g2\csrc/u8x8_d_uc1611.c **** 
 636:..\u8g2\csrc/u8x8_d_uc1611.c **** /*================================================*/
 637:..\u8g2\csrc/u8x8_d_uc1611.c **** /* CI064-4073-06 (Intelligent Display Solutions), IDS4073*/
 638:..\u8g2\csrc/u8x8_d_uc1611.c **** /* https://docs.rs-online.com/7e6e/0900766b8156b018.pdf */
 639:..\u8g2\csrc/u8x8_d_uc1611.c **** 
 640:..\u8g2\csrc/u8x8_d_uc1611.c **** static const uint8_t u8x8_d_uc1611_ids4073_init_seq[] = {
 641:..\u8g2\csrc/u8x8_d_uc1611.c ****     
 642:..\u8g2\csrc/u8x8_d_uc1611.c ****   U8X8_START_TRANSFER(),             	/* enable chip, delay is part of the transfer start */
 643:..\u8g2\csrc/u8x8_d_uc1611.c ****   U8X8_C(0x02f),            			/* internal pump control */
 644:..\u8g2\csrc/u8x8_d_uc1611.c ****   U8X8_CA(0x0f1, 0x07f),			/* set COM end */
 645:..\u8g2\csrc/u8x8_d_uc1611.c ****   U8X8_CA(0x0f2, 0x000),		/* display line start */
 646:..\u8g2\csrc/u8x8_d_uc1611.c ****   U8X8_CA(0x0f3, 127),		/* display line end */
 647:..\u8g2\csrc/u8x8_d_uc1611.c ****   U8X8_C(0x0a3),            			/* line rate */
 648:..\u8g2\csrc/u8x8_d_uc1611.c ****   U8X8_CA(0x081, 0x08f),		/* set contrast */
ARM GAS  C:\Users\brian\AppData\Local\Temp\cchHvIBZ.s 			page 29


 649:..\u8g2\csrc/u8x8_d_uc1611.c ****   
 650:..\u8g2\csrc/u8x8_d_uc1611.c ****   //U8X8_C(0x0a9),            			/* display enable */
 651:..\u8g2\csrc/u8x8_d_uc1611.c **** 
 652:..\u8g2\csrc/u8x8_d_uc1611.c ****   U8X8_C(0x0d1),            			/* display pattern */  
 653:..\u8g2\csrc/u8x8_d_uc1611.c ****   U8X8_C(0x089),            			/* auto increment */
 654:..\u8g2\csrc/u8x8_d_uc1611.c ****   U8X8_CA(0x0c0, 0x004),            	/* LCD Mapping */
 655:..\u8g2\csrc/u8x8_d_uc1611.c ****   U8X8_C(0x000),		                /* column low nibble */
 656:..\u8g2\csrc/u8x8_d_uc1611.c ****   U8X8_C(0x010),		                /* column high nibble */  
 657:..\u8g2\csrc/u8x8_d_uc1611.c ****   U8X8_C(0x060),		                /* page adr low */
 658:..\u8g2\csrc/u8x8_d_uc1611.c ****   U8X8_C(0x070),		                /* page adr high */
 659:..\u8g2\csrc/u8x8_d_uc1611.c ****   
 660:..\u8g2\csrc/u8x8_d_uc1611.c ****   
 661:..\u8g2\csrc/u8x8_d_uc1611.c ****   U8X8_END_TRANSFER(),             	/* disable chip */
 662:..\u8g2\csrc/u8x8_d_uc1611.c ****   U8X8_END()             			/* end of sequence */
 663:..\u8g2\csrc/u8x8_d_uc1611.c **** };
 664:..\u8g2\csrc/u8x8_d_uc1611.c **** 
 665:..\u8g2\csrc/u8x8_d_uc1611.c **** 
 666:..\u8g2\csrc/u8x8_d_uc1611.c **** static const u8x8_display_info_t u8x8_uc1611_256x128_display_info =
 667:..\u8g2\csrc/u8x8_d_uc1611.c **** {
 668:..\u8g2\csrc/u8x8_d_uc1611.c ****   /* chip_enable_level = */ 0,
 669:..\u8g2\csrc/u8x8_d_uc1611.c ****   /* chip_disable_level = */ 1,
 670:..\u8g2\csrc/u8x8_d_uc1611.c ****   
 671:..\u8g2\csrc/u8x8_d_uc1611.c ****   /* post_chip_enable_wait_ns = */ 10,	/* uc1611 datasheet, page 60, actually 0 */
 672:..\u8g2\csrc/u8x8_d_uc1611.c ****   /* pre_chip_disable_wait_ns = */ 10,	/* uc1611 datasheet, page 60, actually 0 */
 673:..\u8g2\csrc/u8x8_d_uc1611.c ****   /* reset_pulse_width_ms = */ 1, 
 674:..\u8g2\csrc/u8x8_d_uc1611.c ****   /* post_reset_wait_ms = */ 10, 	/* uc1611 datasheet, page 67 */
 675:..\u8g2\csrc/u8x8_d_uc1611.c ****   /* sda_setup_time_ns = */ 10,		/* uc1611 datasheet, page 64, actually 0 */
 676:..\u8g2\csrc/u8x8_d_uc1611.c ****   /* sck_pulse_width_ns = */ 60,	/* half of cycle time  */
 677:..\u8g2\csrc/u8x8_d_uc1611.c ****   /* sck_clock_hz = */ 8000000UL,	/* since Arduino 1.6.0, the SPI bus speed in Hz. Should be  10000
 678:..\u8g2\csrc/u8x8_d_uc1611.c ****   /* spi_mode = */ 0,		/* active high, rising edge */
 679:..\u8g2\csrc/u8x8_d_uc1611.c ****   /* i2c_bus_clock_100kHz = */ 4,
 680:..\u8g2\csrc/u8x8_d_uc1611.c ****   /* data_setup_time_ns = */ 30,	/* uc1611 datasheet, page 60 */
 681:..\u8g2\csrc/u8x8_d_uc1611.c ****   /* write_pulse_width_ns = */ 80,	/* uc1611 datasheet, page 60 */
 682:..\u8g2\csrc/u8x8_d_uc1611.c ****   /* tile_width = */ 32,		/* width of 32*8=256 pixel */
 683:..\u8g2\csrc/u8x8_d_uc1611.c ****   /* tile_hight = */ 16,
 684:..\u8g2\csrc/u8x8_d_uc1611.c ****   /* default_x_offset = */ 0,
 685:..\u8g2\csrc/u8x8_d_uc1611.c ****   /* flipmode_x_offset = */ 0,
 686:..\u8g2\csrc/u8x8_d_uc1611.c ****   /* pixel_width = */ 256,
 687:..\u8g2\csrc/u8x8_d_uc1611.c ****   /* pixel_height = */ 128
 688:..\u8g2\csrc/u8x8_d_uc1611.c **** };
 689:..\u8g2\csrc/u8x8_d_uc1611.c **** 
 690:..\u8g2\csrc/u8x8_d_uc1611.c **** /* UC1611s 256x128 display */
 691:..\u8g2\csrc/u8x8_d_uc1611.c **** uint8_t u8x8_d_uc1611_ids4073(u8x8_t *u8x8, uint8_t msg, uint8_t arg_int, void *arg_ptr)
 692:..\u8g2\csrc/u8x8_d_uc1611.c **** {
 882              		.loc 1 692 0
 883              		.cfi_startproc
 884              		@ args = 0, pretend = 0, frame = 0
 885              		@ frame_needed = 0, uses_anonymous_args = 0
 886              	.LVL113:
 887 0000 2DE9F041 		push	{r4, r5, r6, r7, r8, lr}
 888              		.cfi_def_cfa_offset 24
 889              		.cfi_offset 4, -24
 890              		.cfi_offset 5, -20
 891              		.cfi_offset 6, -16
 892              		.cfi_offset 7, -12
 893              		.cfi_offset 8, -8
 894              		.cfi_offset 14, -4
ARM GAS  C:\Users\brian\AppData\Local\Temp\cchHvIBZ.s 			page 30


 895 0004 0646     		mov	r6, r0
 896 0006 1546     		mov	r5, r2
 897 0008 9846     		mov	r8, r3
 693:..\u8g2\csrc/u8x8_d_uc1611.c ****   uint8_t x, y, c;
 694:..\u8g2\csrc/u8x8_d_uc1611.c ****   uint8_t *ptr;
 695:..\u8g2\csrc/u8x8_d_uc1611.c ****   switch(msg)
 898              		.loc 1 695 0
 899 000a 0939     		subs	r1, r1, #9
 900              	.LVL114:
 901 000c 0629     		cmp	r1, #6
 902 000e 00F28A80 		bhi	.L83
 903 0012 DFE801F0 		tbb	[pc, r1]
 904              	.LVL115:
 905              	.L73:
 906 0016 57       		.byte	(.L72-.L73)/2
 907 0017 5D       		.byte	(.L74-.L73)/2
 908 0018 66       		.byte	(.L75-.L73)/2
 909 0019 88       		.byte	(.L83-.L73)/2
 910 001a 73       		.byte	(.L76-.L73)/2
 911 001b 47       		.byte	(.L77-.L73)/2
 912 001c 04       		.byte	(.L78-.L73)/2
 913 001d 00       		.p2align 1
 914              	.L78:
 696:..\u8g2\csrc/u8x8_d_uc1611.c ****   {
 697:..\u8g2\csrc/u8x8_d_uc1611.c ****     case U8X8_MSG_DISPLAY_DRAW_TILE:
 698:..\u8g2\csrc/u8x8_d_uc1611.c ****       u8x8_cad_StartTransfer(u8x8);
 915              		.loc 1 698 0
 916 001e FFF7FEFF 		bl	u8x8_cad_StartTransfer
 917              	.LVL116:
 699:..\u8g2\csrc/u8x8_d_uc1611.c ****     
 700:..\u8g2\csrc/u8x8_d_uc1611.c ****       x = ((u8x8_tile_t *)arg_ptr)->x_pos;
 918              		.loc 1 700 0
 919 0022 98F80540 		ldrb	r4, [r8, #5]	@ zero_extendqisi2
 920              	.LVL117:
 701:..\u8g2\csrc/u8x8_d_uc1611.c ****       x *= 8;
 921              		.loc 1 701 0
 922 0026 E400     		lsls	r4, r4, #3
 923              	.LVL118:
 924 0028 E4B2     		uxtb	r4, r4
 925              	.LVL119:
 702:..\u8g2\csrc/u8x8_d_uc1611.c ****       x += u8x8->x_offset;
 926              		.loc 1 702 0
 927 002a 96F82230 		ldrb	r3, [r6, #34]	@ zero_extendqisi2
 928 002e 1C44     		add	r4, r4, r3
 929              	.LVL120:
 930 0030 E4B2     		uxtb	r4, r4
 931              	.LVL121:
 703:..\u8g2\csrc/u8x8_d_uc1611.c ****    
 704:..\u8g2\csrc/u8x8_d_uc1611.c ****       u8x8_cad_SendCmd(u8x8, 0x000 | ((x&15)));
 932              		.loc 1 704 0
 933 0032 04F00F01 		and	r1, r4, #15
 934 0036 3046     		mov	r0, r6
 935 0038 FFF7FEFF 		bl	u8x8_cad_SendCmd
 936              	.LVL122:
 705:..\u8g2\csrc/u8x8_d_uc1611.c ****       u8x8_cad_SendCmd(u8x8, 0x010 | (x>>4) );
 937              		.loc 1 705 0
 938 003c 2109     		lsrs	r1, r4, #4
ARM GAS  C:\Users\brian\AppData\Local\Temp\cchHvIBZ.s 			page 31


 939 003e 41F01001 		orr	r1, r1, #16
 940 0042 3046     		mov	r0, r6
 941 0044 FFF7FEFF 		bl	u8x8_cad_SendCmd
 942              	.LVL123:
 706:..\u8g2\csrc/u8x8_d_uc1611.c ****     
 707:..\u8g2\csrc/u8x8_d_uc1611.c ****       y = ((u8x8_tile_t *)arg_ptr)->y_pos;
 943              		.loc 1 707 0
 944 0048 98F80640 		ldrb	r4, [r8, #6]	@ zero_extendqisi2
 945              	.LVL124:
 708:..\u8g2\csrc/u8x8_d_uc1611.c ****       u8x8_cad_SendCmd(u8x8, 0x060 | (y&15));
 946              		.loc 1 708 0
 947 004c 04F00F01 		and	r1, r4, #15
 948 0050 41F06001 		orr	r1, r1, #96
 949 0054 3046     		mov	r0, r6
 950 0056 FFF7FEFF 		bl	u8x8_cad_SendCmd
 951              	.LVL125:
 709:..\u8g2\csrc/u8x8_d_uc1611.c ****       u8x8_cad_SendCmd(u8x8, 0x070 | (y>>4));
 952              		.loc 1 709 0
 953 005a 2109     		lsrs	r1, r4, #4
 954 005c 41F07001 		orr	r1, r1, #112
 955 0060 3046     		mov	r0, r6
 956 0062 FFF7FEFF 		bl	u8x8_cad_SendCmd
 957              	.LVL126:
 958              	.L80:
 710:..\u8g2\csrc/u8x8_d_uc1611.c ****     
 711:..\u8g2\csrc/u8x8_d_uc1611.c ****       do
 712:..\u8g2\csrc/u8x8_d_uc1611.c ****       {
 713:..\u8g2\csrc/u8x8_d_uc1611.c ****         c = ((u8x8_tile_t *)arg_ptr)->cnt;
 959              		.loc 1 713 0
 960 0066 98F80440 		ldrb	r4, [r8, #4]	@ zero_extendqisi2
 961              	.LVL127:
 714:..\u8g2\csrc/u8x8_d_uc1611.c ****         ptr = ((u8x8_tile_t *)arg_ptr)->tile_ptr;
 962              		.loc 1 714 0
 963 006a D8F80070 		ldr	r7, [r8]
 964              	.LVL128:
 715:..\u8g2\csrc/u8x8_d_uc1611.c ****         /* SendData can not handle more than 255 bytes */
 716:..\u8g2\csrc/u8x8_d_uc1611.c ****         if ( c > 31 )
 965              		.loc 1 716 0
 966 006e 1F2C     		cmp	r4, #31
 967 0070 07D9     		bls	.L79
 717:..\u8g2\csrc/u8x8_d_uc1611.c ****         {
 718:..\u8g2\csrc/u8x8_d_uc1611.c ****           u8x8_cad_SendData(u8x8, 248, ptr); 	/* 31*8=248 */
 968              		.loc 1 718 0
 969 0072 3A46     		mov	r2, r7
 970 0074 F821     		movs	r1, #248
 971 0076 3046     		mov	r0, r6
 972 0078 FFF7FEFF 		bl	u8x8_cad_SendData
 973              	.LVL129:
 719:..\u8g2\csrc/u8x8_d_uc1611.c ****           ptr+=248;
 974              		.loc 1 719 0
 975 007c F837     		adds	r7, r7, #248
 976              	.LVL130:
 720:..\u8g2\csrc/u8x8_d_uc1611.c ****           c -= 31;
 977              		.loc 1 720 0
 978 007e 1F3C     		subs	r4, r4, #31
 979              	.LVL131:
 980 0080 E4B2     		uxtb	r4, r4
ARM GAS  C:\Users\brian\AppData\Local\Temp\cchHvIBZ.s 			page 32


 981              	.LVL132:
 982              	.L79:
 721:..\u8g2\csrc/u8x8_d_uc1611.c ****         }
 722:..\u8g2\csrc/u8x8_d_uc1611.c ****         
 723:..\u8g2\csrc/u8x8_d_uc1611.c ****         u8x8_cad_SendData(u8x8, c*8, ptr); 	
 983              		.loc 1 723 0
 984 0082 E100     		lsls	r1, r4, #3
 985 0084 3A46     		mov	r2, r7
 986 0086 01F0F801 		and	r1, r1, #248
 987 008a 3046     		mov	r0, r6
 988 008c FFF7FEFF 		bl	u8x8_cad_SendData
 989              	.LVL133:
 724:..\u8g2\csrc/u8x8_d_uc1611.c ****         arg_int--;
 990              		.loc 1 724 0
 991 0090 6A1E     		subs	r2, r5, #1
 992              	.LVL134:
 725:..\u8g2\csrc/u8x8_d_uc1611.c ****       } while( arg_int > 0 );
 993              		.loc 1 725 0
 994 0092 12F0FF05 		ands	r5, r2, #255
 995 0096 E6D1     		bne	.L80
 726:..\u8g2\csrc/u8x8_d_uc1611.c ****       
 727:..\u8g2\csrc/u8x8_d_uc1611.c ****       u8x8_cad_EndTransfer(u8x8);
 996              		.loc 1 727 0
 997 0098 3046     		mov	r0, r6
 998 009a FFF7FEFF 		bl	u8x8_cad_EndTransfer
 999              	.LVL135:
 728:..\u8g2\csrc/u8x8_d_uc1611.c ****       break;
 729:..\u8g2\csrc/u8x8_d_uc1611.c **** #ifdef U8X8_WITH_SET_CONTRAST
 730:..\u8g2\csrc/u8x8_d_uc1611.c ****     case U8X8_MSG_DISPLAY_SET_CONTRAST:
 731:..\u8g2\csrc/u8x8_d_uc1611.c ****       u8x8_cad_StartTransfer(u8x8);
 732:..\u8g2\csrc/u8x8_d_uc1611.c ****       u8x8_cad_SendCmd(u8x8, 0x081 );
 733:..\u8g2\csrc/u8x8_d_uc1611.c ****       u8x8_cad_SendArg(u8x8, arg_int  );	/* uc1611 has range from 0 to 255 */
 734:..\u8g2\csrc/u8x8_d_uc1611.c ****       u8x8_cad_EndTransfer(u8x8);
 735:..\u8g2\csrc/u8x8_d_uc1611.c ****       break;
 736:..\u8g2\csrc/u8x8_d_uc1611.c **** #endif
 737:..\u8g2\csrc/u8x8_d_uc1611.c ****     
 738:..\u8g2\csrc/u8x8_d_uc1611.c ****     case U8X8_MSG_DISPLAY_SETUP_MEMORY:
 739:..\u8g2\csrc/u8x8_d_uc1611.c ****       u8x8_d_helper_display_setup_memory(u8x8, &u8x8_uc1611_256x128_display_info);
 740:..\u8g2\csrc/u8x8_d_uc1611.c ****       break;
 741:..\u8g2\csrc/u8x8_d_uc1611.c ****     case U8X8_MSG_DISPLAY_INIT:
 742:..\u8g2\csrc/u8x8_d_uc1611.c ****       u8x8_d_helper_display_init(u8x8);
 743:..\u8g2\csrc/u8x8_d_uc1611.c ****       u8x8_cad_SendSequence(u8x8, u8x8_d_uc1611_ids4073_init_seq);
 744:..\u8g2\csrc/u8x8_d_uc1611.c ****       break;
 745:..\u8g2\csrc/u8x8_d_uc1611.c ****     case U8X8_MSG_DISPLAY_SET_POWER_SAVE:
 746:..\u8g2\csrc/u8x8_d_uc1611.c ****       if ( arg_int == 0 )
 747:..\u8g2\csrc/u8x8_d_uc1611.c **** 	u8x8_cad_SendSequence(u8x8, u8x8_d_uc1611s_powersave0_seq);
 748:..\u8g2\csrc/u8x8_d_uc1611.c ****       else
 749:..\u8g2\csrc/u8x8_d_uc1611.c **** 	u8x8_cad_SendSequence(u8x8, u8x8_d_uc1611s_powersave1_seq);
 750:..\u8g2\csrc/u8x8_d_uc1611.c ****       break;
 751:..\u8g2\csrc/u8x8_d_uc1611.c ****     case U8X8_MSG_DISPLAY_SET_FLIP_MODE:
 752:..\u8g2\csrc/u8x8_d_uc1611.c ****       if ( arg_int == 0 )
 753:..\u8g2\csrc/u8x8_d_uc1611.c ****       {
 754:..\u8g2\csrc/u8x8_d_uc1611.c **** 	u8x8_cad_SendSequence(u8x8, u8x8_d_uc1611s_flip0_seq);
 755:..\u8g2\csrc/u8x8_d_uc1611.c **** 	u8x8->x_offset = u8x8->display_info->default_x_offset;
 756:..\u8g2\csrc/u8x8_d_uc1611.c ****       }
 757:..\u8g2\csrc/u8x8_d_uc1611.c ****       else
 758:..\u8g2\csrc/u8x8_d_uc1611.c ****       {
ARM GAS  C:\Users\brian\AppData\Local\Temp\cchHvIBZ.s 			page 33


 759:..\u8g2\csrc/u8x8_d_uc1611.c **** 	u8x8_cad_SendSequence(u8x8, u8x8_d_uc1611s_flip1_seq);
 760:..\u8g2\csrc/u8x8_d_uc1611.c **** 	u8x8->x_offset = u8x8->display_info->flipmode_x_offset;
 761:..\u8g2\csrc/u8x8_d_uc1611.c ****       }	
 762:..\u8g2\csrc/u8x8_d_uc1611.c ****       break;
 763:..\u8g2\csrc/u8x8_d_uc1611.c ****     default:
 764:..\u8g2\csrc/u8x8_d_uc1611.c ****       return 0;		/* msg unknown */
 765:..\u8g2\csrc/u8x8_d_uc1611.c ****   }
 766:..\u8g2\csrc/u8x8_d_uc1611.c ****   return 1;
 1000              		.loc 1 766 0
 1001 009e 0120     		movs	r0, #1
 728:..\u8g2\csrc/u8x8_d_uc1611.c ****       break;
 1002              		.loc 1 728 0
 1003 00a0 BDE8F081 		pop	{r4, r5, r6, r7, r8, pc}
 1004              	.LVL136:
 1005              	.L77:
 731:..\u8g2\csrc/u8x8_d_uc1611.c ****       u8x8_cad_SendCmd(u8x8, 0x081 );
 1006              		.loc 1 731 0
 1007 00a4 FFF7FEFF 		bl	u8x8_cad_StartTransfer
 1008              	.LVL137:
 732:..\u8g2\csrc/u8x8_d_uc1611.c ****       u8x8_cad_SendArg(u8x8, arg_int  );	/* uc1611 has range from 0 to 255 */
 1009              		.loc 1 732 0
 1010 00a8 8121     		movs	r1, #129
 1011 00aa 3046     		mov	r0, r6
 1012 00ac FFF7FEFF 		bl	u8x8_cad_SendCmd
 1013              	.LVL138:
 733:..\u8g2\csrc/u8x8_d_uc1611.c ****       u8x8_cad_EndTransfer(u8x8);
 1014              		.loc 1 733 0
 1015 00b0 2946     		mov	r1, r5
 1016 00b2 3046     		mov	r0, r6
 1017 00b4 FFF7FEFF 		bl	u8x8_cad_SendArg
 1018              	.LVL139:
 734:..\u8g2\csrc/u8x8_d_uc1611.c ****       break;
 1019              		.loc 1 734 0
 1020 00b8 3046     		mov	r0, r6
 1021 00ba FFF7FEFF 		bl	u8x8_cad_EndTransfer
 1022              	.LVL140:
 1023              		.loc 1 766 0
 1024 00be 0120     		movs	r0, #1
 735:..\u8g2\csrc/u8x8_d_uc1611.c **** #endif
 1025              		.loc 1 735 0
 1026 00c0 BDE8F081 		pop	{r4, r5, r6, r7, r8, pc}
 1027              	.LVL141:
 1028              	.L72:
 739:..\u8g2\csrc/u8x8_d_uc1611.c ****       break;
 1029              		.loc 1 739 0
 1030 00c4 1949     		ldr	r1, .L85
 1031 00c6 FFF7FEFF 		bl	u8x8_d_helper_display_setup_memory
 1032              	.LVL142:
 1033              		.loc 1 766 0
 1034 00ca 0120     		movs	r0, #1
 740:..\u8g2\csrc/u8x8_d_uc1611.c ****     case U8X8_MSG_DISPLAY_INIT:
 1035              		.loc 1 740 0
 1036 00cc BDE8F081 		pop	{r4, r5, r6, r7, r8, pc}
 1037              	.LVL143:
 1038              	.L74:
 742:..\u8g2\csrc/u8x8_d_uc1611.c ****       u8x8_cad_SendSequence(u8x8, u8x8_d_uc1611_ids4073_init_seq);
 1039              		.loc 1 742 0
ARM GAS  C:\Users\brian\AppData\Local\Temp\cchHvIBZ.s 			page 34


 1040 00d0 FFF7FEFF 		bl	u8x8_d_helper_display_init
 1041              	.LVL144:
 743:..\u8g2\csrc/u8x8_d_uc1611.c ****       break;
 1042              		.loc 1 743 0
 1043 00d4 1649     		ldr	r1, .L85+4
 1044 00d6 3046     		mov	r0, r6
 1045 00d8 FFF7FEFF 		bl	u8x8_cad_SendSequence
 1046              	.LVL145:
 1047              		.loc 1 766 0
 1048 00dc 0120     		movs	r0, #1
 744:..\u8g2\csrc/u8x8_d_uc1611.c ****     case U8X8_MSG_DISPLAY_SET_POWER_SAVE:
 1049              		.loc 1 744 0
 1050 00de BDE8F081 		pop	{r4, r5, r6, r7, r8, pc}
 1051              	.LVL146:
 1052              	.L75:
 746:..\u8g2\csrc/u8x8_d_uc1611.c **** 	u8x8_cad_SendSequence(u8x8, u8x8_d_uc1611s_powersave0_seq);
 1053              		.loc 1 746 0
 1054 00e2 2AB9     		cbnz	r2, .L81
 747:..\u8g2\csrc/u8x8_d_uc1611.c ****       else
 1055              		.loc 1 747 0
 1056 00e4 1349     		ldr	r1, .L85+8
 1057 00e6 FFF7FEFF 		bl	u8x8_cad_SendSequence
 1058              	.LVL147:
 1059              		.loc 1 766 0
 1060 00ea 0120     		movs	r0, #1
 1061 00ec BDE8F081 		pop	{r4, r5, r6, r7, r8, pc}
 1062              	.LVL148:
 1063              	.L81:
 749:..\u8g2\csrc/u8x8_d_uc1611.c ****       break;
 1064              		.loc 1 749 0
 1065 00f0 1149     		ldr	r1, .L85+12
 1066 00f2 FFF7FEFF 		bl	u8x8_cad_SendSequence
 1067              	.LVL149:
 1068              		.loc 1 766 0
 1069 00f6 0120     		movs	r0, #1
 1070 00f8 BDE8F081 		pop	{r4, r5, r6, r7, r8, pc}
 1071              	.LVL150:
 1072              	.L76:
 752:..\u8g2\csrc/u8x8_d_uc1611.c ****       {
 1073              		.loc 1 752 0
 1074 00fc 4AB9     		cbnz	r2, .L82
 754:..\u8g2\csrc/u8x8_d_uc1611.c **** 	u8x8->x_offset = u8x8->display_info->default_x_offset;
 1075              		.loc 1 754 0
 1076 00fe 0F49     		ldr	r1, .L85+16
 1077 0100 FFF7FEFF 		bl	u8x8_cad_SendSequence
 1078              	.LVL151:
 755:..\u8g2\csrc/u8x8_d_uc1611.c ****       }
 1079              		.loc 1 755 0
 1080 0104 3368     		ldr	r3, [r6]
 1081 0106 9B7C     		ldrb	r3, [r3, #18]	@ zero_extendqisi2
 1082 0108 86F82230 		strb	r3, [r6, #34]
 1083              		.loc 1 766 0
 1084 010c 0120     		movs	r0, #1
 1085 010e BDE8F081 		pop	{r4, r5, r6, r7, r8, pc}
 1086              	.LVL152:
 1087              	.L82:
 759:..\u8g2\csrc/u8x8_d_uc1611.c **** 	u8x8->x_offset = u8x8->display_info->flipmode_x_offset;
ARM GAS  C:\Users\brian\AppData\Local\Temp\cchHvIBZ.s 			page 35


 1088              		.loc 1 759 0
 1089 0112 0B49     		ldr	r1, .L85+20
 1090 0114 FFF7FEFF 		bl	u8x8_cad_SendSequence
 1091              	.LVL153:
 760:..\u8g2\csrc/u8x8_d_uc1611.c ****       }	
 1092              		.loc 1 760 0
 1093 0118 3368     		ldr	r3, [r6]
 1094 011a DB7C     		ldrb	r3, [r3, #19]	@ zero_extendqisi2
 1095 011c 86F82230 		strb	r3, [r6, #34]
 1096              		.loc 1 766 0
 1097 0120 0120     		movs	r0, #1
 1098 0122 BDE8F081 		pop	{r4, r5, r6, r7, r8, pc}
 1099              	.LVL154:
 1100              	.L83:
 764:..\u8g2\csrc/u8x8_d_uc1611.c ****   }
 1101              		.loc 1 764 0
 1102 0126 0020     		movs	r0, #0
 1103              	.LVL155:
 767:..\u8g2\csrc/u8x8_d_uc1611.c **** }
 1104              		.loc 1 767 0
 1105 0128 BDE8F081 		pop	{r4, r5, r6, r7, r8, pc}
 1106              	.LVL156:
 1107              	.L86:
 1108              		.align	2
 1109              	.L85:
 1110 012c 48010000 		.word	.LANCHOR0+328
 1111 0130 60010000 		.word	.LANCHOR0+352
 1112 0134 40000000 		.word	.LANCHOR0+64
 1113 0138 48000000 		.word	.LANCHOR0+72
 1114 013c 50000000 		.word	.LANCHOR0+80
 1115 0140 58000000 		.word	.LANCHOR0+88
 1116              		.cfi_endproc
 1117              	.LFE5:
 1118              		.size	u8x8_d_uc1611_ids4073, .-u8x8_d_uc1611_ids4073
 1119              		.section	.rodata
 1120              		.align	2
 1121              		.set	.LANCHOR0,. + 0
 1122              		.type	u8x8_uc1611_240x64_display_info, %object
 1123              		.size	u8x8_uc1611_240x64_display_info, 24
 1124              	u8x8_uc1611_240x64_display_info:
 1125 0000 00       		.byte	0
 1126 0001 01       		.byte	1
 1127 0002 0A       		.byte	10
 1128 0003 0A       		.byte	10
 1129 0004 01       		.byte	1
 1130 0005 0A       		.byte	10
 1131 0006 0A       		.byte	10
 1132 0007 3C       		.byte	60
 1133 0008 00127A00 		.word	8000000
 1134 000c 00       		.byte	0
 1135 000d 04       		.byte	4
 1136 000e 1E       		.byte	30
 1137 000f 50       		.byte	80
 1138 0010 1E       		.byte	30
 1139 0011 08       		.byte	8
 1140 0012 00       		.byte	0
 1141 0013 00       		.byte	0
ARM GAS  C:\Users\brian\AppData\Local\Temp\cchHvIBZ.s 			page 36


 1142 0014 F000     		.short	240
 1143 0016 4000     		.short	64
 1144              		.type	u8x8_d_uc1611_ea_dogm240_init_seq, %object
 1145              		.size	u8x8_d_uc1611_ea_dogm240_init_seq, 39
 1146              	u8x8_d_uc1611_ea_dogm240_init_seq:
 1147 0018 18       		.byte	24
 1148 0019 15       		.byte	21
 1149 001a 2F       		.byte	47
 1150 001b 15       		.byte	21
 1151 001c F1       		.byte	-15
 1152 001d 16       		.byte	22
 1153 001e 3F       		.byte	63
 1154 001f 15       		.byte	21
 1155 0020 F2       		.byte	-14
 1156 0021 16       		.byte	22
 1157 0022 00       		.byte	0
 1158 0023 15       		.byte	21
 1159 0024 F3       		.byte	-13
 1160 0025 16       		.byte	22
 1161 0026 3F       		.byte	63
 1162 0027 15       		.byte	21
 1163 0028 A3       		.byte	-93
 1164 0029 15       		.byte	21
 1165 002a 81       		.byte	-127
 1166 002b 16       		.byte	22
 1167 002c A4       		.byte	-92
 1168 002d 15       		.byte	21
 1169 002e D1       		.byte	-47
 1170 002f 15       		.byte	21
 1171 0030 89       		.byte	-119
 1172 0031 15       		.byte	21
 1173 0032 C0       		.byte	-64
 1174 0033 16       		.byte	22
 1175 0034 04       		.byte	4
 1176 0035 15       		.byte	21
 1177 0036 00       		.byte	0
 1178 0037 15       		.byte	21
 1179 0038 10       		.byte	16
 1180 0039 15       		.byte	21
 1181 003a 60       		.byte	96
 1182 003b 15       		.byte	21
 1183 003c 70       		.byte	112
 1184 003d 19       		.byte	25
 1185 003e FF       		.byte	-1
 1186 003f 00       		.space	1
 1187              		.type	u8x8_d_uc1611s_powersave0_seq, %object
 1188              		.size	u8x8_d_uc1611s_powersave0_seq, 5
 1189              	u8x8_d_uc1611s_powersave0_seq:
 1190 0040 18       		.byte	24
 1191 0041 15       		.byte	21
 1192 0042 A9       		.byte	-87
 1193 0043 19       		.byte	25
 1194 0044 FF       		.byte	-1
 1195 0045 000000   		.space	3
 1196              		.type	u8x8_d_uc1611s_powersave1_seq, %object
 1197              		.size	u8x8_d_uc1611s_powersave1_seq, 5
 1198              	u8x8_d_uc1611s_powersave1_seq:
ARM GAS  C:\Users\brian\AppData\Local\Temp\cchHvIBZ.s 			page 37


 1199 0048 18       		.byte	24
 1200 0049 15       		.byte	21
 1201 004a A8       		.byte	-88
 1202 004b 19       		.byte	25
 1203 004c FF       		.byte	-1
 1204 004d 000000   		.space	3
 1205              		.type	u8x8_d_uc1611s_flip0_seq, %object
 1206              		.size	u8x8_d_uc1611s_flip0_seq, 7
 1207              	u8x8_d_uc1611s_flip0_seq:
 1208 0050 18       		.byte	24
 1209 0051 15       		.byte	21
 1210 0052 C0       		.byte	-64
 1211 0053 16       		.byte	22
 1212 0054 04       		.byte	4
 1213 0055 19       		.byte	25
 1214 0056 FF       		.byte	-1
 1215 0057 00       		.space	1
 1216              		.type	u8x8_d_uc1611s_flip1_seq, %object
 1217              		.size	u8x8_d_uc1611s_flip1_seq, 7
 1218              	u8x8_d_uc1611s_flip1_seq:
 1219 0058 18       		.byte	24
 1220 0059 15       		.byte	21
 1221 005a C0       		.byte	-64
 1222 005b 16       		.byte	22
 1223 005c 02       		.byte	2
 1224 005d 19       		.byte	25
 1225 005e FF       		.byte	-1
 1226 005f 00       		.space	1
 1227              		.type	u8x8_uc1611_240x128_display_info, %object
 1228              		.size	u8x8_uc1611_240x128_display_info, 24
 1229              	u8x8_uc1611_240x128_display_info:
 1230 0060 00       		.byte	0
 1231 0061 01       		.byte	1
 1232 0062 0A       		.byte	10
 1233 0063 0A       		.byte	10
 1234 0064 01       		.byte	1
 1235 0065 0A       		.byte	10
 1236 0066 0A       		.byte	10
 1237 0067 3C       		.byte	60
 1238 0068 00127A00 		.word	8000000
 1239 006c 00       		.byte	0
 1240 006d 04       		.byte	4
 1241 006e 1E       		.byte	30
 1242 006f 50       		.byte	80
 1243 0070 1E       		.byte	30
 1244 0071 10       		.byte	16
 1245 0072 00       		.byte	0
 1246 0073 00       		.byte	0
 1247 0074 F000     		.short	240
 1248 0076 8000     		.short	128
 1249              		.type	u8x8_d_uc1611_ea_dogxl240_init_seq, %object
 1250              		.size	u8x8_d_uc1611_ea_dogxl240_init_seq, 39
 1251              	u8x8_d_uc1611_ea_dogxl240_init_seq:
 1252 0078 18       		.byte	24
 1253 0079 15       		.byte	21
 1254 007a 2F       		.byte	47
 1255 007b 15       		.byte	21
ARM GAS  C:\Users\brian\AppData\Local\Temp\cchHvIBZ.s 			page 38


 1256 007c F1       		.byte	-15
 1257 007d 16       		.byte	22
 1258 007e 7F       		.byte	127
 1259 007f 15       		.byte	21
 1260 0080 F2       		.byte	-14
 1261 0081 16       		.byte	22
 1262 0082 00       		.byte	0
 1263 0083 15       		.byte	21
 1264 0084 F3       		.byte	-13
 1265 0085 16       		.byte	22
 1266 0086 7F       		.byte	127
 1267 0087 15       		.byte	21
 1268 0088 A3       		.byte	-93
 1269 0089 15       		.byte	21
 1270 008a 81       		.byte	-127
 1271 008b 16       		.byte	22
 1272 008c 8F       		.byte	-113
 1273 008d 15       		.byte	21
 1274 008e D1       		.byte	-47
 1275 008f 15       		.byte	21
 1276 0090 89       		.byte	-119
 1277 0091 15       		.byte	21
 1278 0092 C0       		.byte	-64
 1279 0093 16       		.byte	22
 1280 0094 04       		.byte	4
 1281 0095 15       		.byte	21
 1282 0096 00       		.byte	0
 1283 0097 15       		.byte	21
 1284 0098 10       		.byte	16
 1285 0099 15       		.byte	21
 1286 009a 60       		.byte	96
 1287 009b 15       		.byte	21
 1288 009c 70       		.byte	112
 1289 009d 19       		.byte	25
 1290 009e FF       		.byte	-1
 1291 009f 00       		.space	1
 1292              		.type	u8x8_uc1611_ew50850_display_info, %object
 1293              		.size	u8x8_uc1611_ew50850_display_info, 24
 1294              	u8x8_uc1611_ew50850_display_info:
 1295 00a0 01       		.byte	1
 1296 00a1 00       		.byte	0
 1297 00a2 0A       		.byte	10
 1298 00a3 0A       		.byte	10
 1299 00a4 01       		.byte	1
 1300 00a5 0A       		.byte	10
 1301 00a6 0A       		.byte	10
 1302 00a7 3C       		.byte	60
 1303 00a8 00127A00 		.word	8000000
 1304 00ac 00       		.byte	0
 1305 00ad 04       		.byte	4
 1306 00ae 1E       		.byte	30
 1307 00af 50       		.byte	80
 1308 00b0 1E       		.byte	30
 1309 00b1 14       		.byte	20
 1310 00b2 00       		.byte	0
 1311 00b3 00       		.byte	0
 1312 00b4 F000     		.short	240
ARM GAS  C:\Users\brian\AppData\Local\Temp\cchHvIBZ.s 			page 39


 1313 00b6 A000     		.short	160
 1314              		.type	u8x8_d_uc1611_ew50850_init_seq, %object
 1315              		.size	u8x8_d_uc1611_ew50850_init_seq, 37
 1316              	u8x8_d_uc1611_ew50850_init_seq:
 1317 00b8 18       		.byte	24
 1318 00b9 15       		.byte	21
 1319 00ba 2F       		.byte	47
 1320 00bb 15       		.byte	21
 1321 00bc F1       		.byte	-15
 1322 00bd 16       		.byte	22
 1323 00be 9F       		.byte	-97
 1324 00bf 15       		.byte	21
 1325 00c0 F2       		.byte	-14
 1326 00c1 16       		.byte	22
 1327 00c2 00       		.byte	0
 1328 00c3 15       		.byte	21
 1329 00c4 F3       		.byte	-13
 1330 00c5 16       		.byte	22
 1331 00c6 9F       		.byte	-97
 1332 00c7 15       		.byte	21
 1333 00c8 A3       		.byte	-93
 1334 00c9 15       		.byte	21
 1335 00ca 81       		.byte	-127
 1336 00cb 16       		.byte	22
 1337 00cc 4B       		.byte	75
 1338 00cd 15       		.byte	21
 1339 00ce D2       		.byte	-46
 1340 00cf 15       		.byte	21
 1341 00d0 89       		.byte	-119
 1342 00d1 15       		.byte	21
 1343 00d2 C0       		.byte	-64
 1344 00d3 15       		.byte	21
 1345 00d4 00       		.byte	0
 1346 00d5 15       		.byte	21
 1347 00d6 10       		.byte	16
 1348 00d7 15       		.byte	21
 1349 00d8 60       		.byte	96
 1350 00d9 15       		.byte	21
 1351 00da 70       		.byte	112
 1352 00db 19       		.byte	25
 1353 00dc FF       		.byte	-1
 1354 00dd 000000   		.space	3
 1355              		.type	u8x8_d_uc1611_powersave0_seq, %object
 1356              		.size	u8x8_d_uc1611_powersave0_seq, 5
 1357              	u8x8_d_uc1611_powersave0_seq:
 1358 00e0 18       		.byte	24
 1359 00e1 15       		.byte	21
 1360 00e2 AF       		.byte	-81
 1361 00e3 19       		.byte	25
 1362 00e4 FF       		.byte	-1
 1363 00e5 000000   		.space	3
 1364              		.type	u8x8_d_uc1611_powersave1_seq, %object
 1365              		.size	u8x8_d_uc1611_powersave1_seq, 5
 1366              	u8x8_d_uc1611_powersave1_seq:
 1367 00e8 18       		.byte	24
 1368 00e9 15       		.byte	21
 1369 00ea A8       		.byte	-88
ARM GAS  C:\Users\brian\AppData\Local\Temp\cchHvIBZ.s 			page 40


 1370 00eb 19       		.byte	25
 1371 00ec FF       		.byte	-1
 1372 00ed 000000   		.space	3
 1373              		.type	u8x8_d_uc1611_alt_flip0_seq, %object
 1374              		.size	u8x8_d_uc1611_alt_flip0_seq, 5
 1375              	u8x8_d_uc1611_alt_flip0_seq:
 1376 00f0 18       		.byte	24
 1377 00f1 15       		.byte	21
 1378 00f2 C0       		.byte	-64
 1379 00f3 19       		.byte	25
 1380 00f4 FF       		.byte	-1
 1381 00f5 000000   		.space	3
 1382              		.type	u8x8_d_uc1611_alt_flip1_seq, %object
 1383              		.size	u8x8_d_uc1611_alt_flip1_seq, 5
 1384              	u8x8_d_uc1611_alt_flip1_seq:
 1385 00f8 18       		.byte	24
 1386 00f9 15       		.byte	21
 1387 00fa C6       		.byte	-58
 1388 00fb 19       		.byte	25
 1389 00fc FF       		.byte	-1
 1390 00fd 000000   		.space	3
 1391              		.type	u8x8_uc1611_cg160160_display_info, %object
 1392              		.size	u8x8_uc1611_cg160160_display_info, 24
 1393              	u8x8_uc1611_cg160160_display_info:
 1394 0100 00       		.byte	0
 1395 0101 01       		.byte	1
 1396 0102 0A       		.byte	10
 1397 0103 0A       		.byte	10
 1398 0104 01       		.byte	1
 1399 0105 0A       		.byte	10
 1400 0106 0A       		.byte	10
 1401 0107 3C       		.byte	60
 1402 0108 00127A00 		.word	8000000
 1403 010c 00       		.byte	0
 1404 010d 04       		.byte	4
 1405 010e 1E       		.byte	30
 1406 010f 50       		.byte	80
 1407 0110 14       		.byte	20
 1408 0111 14       		.byte	20
 1409 0112 00       		.byte	0
 1410 0113 00       		.byte	0
 1411 0114 A000     		.short	160
 1412 0116 A000     		.short	160
 1413              		.type	u8x8_d_uc1611_cg160160_init_seq, %object
 1414              		.size	u8x8_d_uc1611_cg160160_init_seq, 47
 1415              	u8x8_d_uc1611_cg160160_init_seq:
 1416 0118 18       		.byte	24
 1417 0119 15       		.byte	21
 1418 011a E2       		.byte	-30
 1419 011b FE       		.byte	-2
 1420 011c 02       		.byte	2
 1421 011d 15       		.byte	21
 1422 011e 24       		.byte	36
 1423 011f 15       		.byte	21
 1424 0120 A3       		.byte	-93
 1425 0121 15       		.byte	21
 1426 0122 2F       		.byte	47
ARM GAS  C:\Users\brian\AppData\Local\Temp\cchHvIBZ.s 			page 41


 1427 0123 15       		.byte	21
 1428 0124 82       		.byte	-126
 1429 0125 16       		.byte	22
 1430 0126 13       		.byte	19
 1431 0127 16       		.byte	22
 1432 0128 01       		.byte	1
 1433 0129 15       		.byte	21
 1434 012a 82       		.byte	-126
 1435 012b 16       		.byte	22
 1436 012c 14       		.byte	20
 1437 012d 16       		.byte	22
 1438 012e 00       		.byte	0
 1439 012f 15       		.byte	21
 1440 0130 EA       		.byte	-22
 1441 0131 15       		.byte	21
 1442 0132 81       		.byte	-127
 1443 0133 16       		.byte	22
 1444 0134 90       		.byte	-112
 1445 0135 15       		.byte	21
 1446 0136 89       		.byte	-119
 1447 0137 15       		.byte	21
 1448 0138 D1       		.byte	-47
 1449 0139 15       		.byte	21
 1450 013a C0       		.byte	-64
 1451 013b 16       		.byte	22
 1452 013c 04       		.byte	4
 1453 013d 15       		.byte	21
 1454 013e 00       		.byte	0
 1455 013f 15       		.byte	21
 1456 0140 10       		.byte	16
 1457 0141 15       		.byte	21
 1458 0142 60       		.byte	96
 1459 0143 15       		.byte	21
 1460 0144 70       		.byte	112
 1461 0145 19       		.byte	25
 1462 0146 FF       		.byte	-1
 1463 0147 00       		.space	1
 1464              		.type	u8x8_uc1611_256x128_display_info, %object
 1465              		.size	u8x8_uc1611_256x128_display_info, 24
 1466              	u8x8_uc1611_256x128_display_info:
 1467 0148 00       		.byte	0
 1468 0149 01       		.byte	1
 1469 014a 0A       		.byte	10
 1470 014b 0A       		.byte	10
 1471 014c 01       		.byte	1
 1472 014d 0A       		.byte	10
 1473 014e 0A       		.byte	10
 1474 014f 3C       		.byte	60
 1475 0150 00127A00 		.word	8000000
 1476 0154 00       		.byte	0
 1477 0155 04       		.byte	4
 1478 0156 1E       		.byte	30
 1479 0157 50       		.byte	80
 1480 0158 20       		.byte	32
 1481 0159 10       		.byte	16
 1482 015a 00       		.byte	0
 1483 015b 00       		.byte	0
ARM GAS  C:\Users\brian\AppData\Local\Temp\cchHvIBZ.s 			page 42


 1484 015c 0001     		.short	256
 1485 015e 8000     		.short	128
 1486              		.type	u8x8_d_uc1611_ids4073_init_seq, %object
 1487              		.size	u8x8_d_uc1611_ids4073_init_seq, 39
 1488              	u8x8_d_uc1611_ids4073_init_seq:
 1489 0160 18       		.byte	24
 1490 0161 15       		.byte	21
 1491 0162 2F       		.byte	47
 1492 0163 15       		.byte	21
 1493 0164 F1       		.byte	-15
 1494 0165 16       		.byte	22
 1495 0166 7F       		.byte	127
 1496 0167 15       		.byte	21
 1497 0168 F2       		.byte	-14
 1498 0169 16       		.byte	22
 1499 016a 00       		.byte	0
 1500 016b 15       		.byte	21
 1501 016c F3       		.byte	-13
 1502 016d 16       		.byte	22
 1503 016e 7F       		.byte	127
 1504 016f 15       		.byte	21
 1505 0170 A3       		.byte	-93
 1506 0171 15       		.byte	21
 1507 0172 81       		.byte	-127
 1508 0173 16       		.byte	22
 1509 0174 8F       		.byte	-113
 1510 0175 15       		.byte	21
 1511 0176 D1       		.byte	-47
 1512 0177 15       		.byte	21
 1513 0178 89       		.byte	-119
 1514 0179 15       		.byte	21
 1515 017a C0       		.byte	-64
 1516 017b 16       		.byte	22
 1517 017c 04       		.byte	4
 1518 017d 15       		.byte	21
 1519 017e 00       		.byte	0
 1520 017f 15       		.byte	21
 1521 0180 10       		.byte	16
 1522 0181 15       		.byte	21
 1523 0182 60       		.byte	96
 1524 0183 15       		.byte	21
 1525 0184 70       		.byte	112
 1526 0185 19       		.byte	25
 1527 0186 FF       		.byte	-1
 1528              		.text
 1529              	.Letext0:
 1530              		.file 2 "c:\\program files (x86)\\cypress\\psoc creator\\4.4\\psoc creator\\import\\gnu\\arm\\5.4.
 1531              		.file 3 "c:\\program files (x86)\\cypress\\psoc creator\\4.4\\psoc creator\\import\\gnu\\arm\\5.4.
 1532              		.file 4 "..\\u8g2\\csrc\\u8x8.h"