ARM GAS  C:\Users\brian\AppData\Local\Temp\ccubeeSO.s 			page 1


   1              		.syntax unified
   2              		.cpu cortex-m3
   3              		.fpu softvfp
   4              		.eabi_attribute 20, 1
   5              		.eabi_attribute 21, 1
   6              		.eabi_attribute 23, 3
   7              		.eabi_attribute 24, 1
   8              		.eabi_attribute 25, 1
   9              		.eabi_attribute 26, 1
  10              		.eabi_attribute 30, 1
  11              		.eabi_attribute 34, 1
  12              		.eabi_attribute 18, 4
  13              		.thumb
  14              		.syntax unified
  15              		.file	"u8x8_d_ssd1316.c"
  16              		.text
  17              	.Ltext0:
  18              		.cfi_sections	.debug_frame
  19              		.section	.text.u8x8_d_ssd1316_generic,"ax",%progbits
  20              		.align	2
  21              		.thumb
  22              		.thumb_func
  23              		.type	u8x8_d_ssd1316_generic, %function
  24              	u8x8_d_ssd1316_generic:
  25              	.LFB0:
  26              		.file 1 "..\\u8g2\\csrc\\u8x8_d_ssd1316.c"
   1:..\u8g2\csrc/u8x8_d_ssd1316.c **** /*
   2:..\u8g2\csrc/u8x8_d_ssd1316.c **** 
   3:..\u8g2\csrc/u8x8_d_ssd1316.c ****   u8x8_d_ssd1316.c
   4:..\u8g2\csrc/u8x8_d_ssd1316.c **** 
   5:..\u8g2\csrc/u8x8_d_ssd1316.c ****   Universal 8bit Graphics Library (https://github.com/olikraus/u8g2/)
   6:..\u8g2\csrc/u8x8_d_ssd1316.c **** 
   7:..\u8g2\csrc/u8x8_d_ssd1316.c ****   Copyright (c) 2019, olikraus@gmail.com
   8:..\u8g2\csrc/u8x8_d_ssd1316.c ****   All rights reserved.
   9:..\u8g2\csrc/u8x8_d_ssd1316.c **** 
  10:..\u8g2\csrc/u8x8_d_ssd1316.c ****   Redistribution and use in source and binary forms, with or without modification, 
  11:..\u8g2\csrc/u8x8_d_ssd1316.c ****   are permitted provided that the following conditions are met:
  12:..\u8g2\csrc/u8x8_d_ssd1316.c **** 
  13:..\u8g2\csrc/u8x8_d_ssd1316.c ****   * Redistributions of source code must retain the above copyright notice, this list 
  14:..\u8g2\csrc/u8x8_d_ssd1316.c ****     of conditions and the following disclaimer.
  15:..\u8g2\csrc/u8x8_d_ssd1316.c ****     
  16:..\u8g2\csrc/u8x8_d_ssd1316.c ****   * Redistributions in binary form must reproduce the above copyright notice, this 
  17:..\u8g2\csrc/u8x8_d_ssd1316.c ****     list of conditions and the following disclaimer in the documentation and/or other 
  18:..\u8g2\csrc/u8x8_d_ssd1316.c ****     materials provided with the distribution.
  19:..\u8g2\csrc/u8x8_d_ssd1316.c **** 
  20:..\u8g2\csrc/u8x8_d_ssd1316.c ****   THIS SOFTWARE IS PROVIDED BY THE COPYRIGHT HOLDERS AND 
  21:..\u8g2\csrc/u8x8_d_ssd1316.c ****   CONTRIBUTORS "AS IS" AND ANY EXPRESS OR IMPLIED WARRANTIES, 
  22:..\u8g2\csrc/u8x8_d_ssd1316.c ****   INCLUDING, BUT NOT LIMITED TO, THE IMPLIED WARRANTIES OF 
  23:..\u8g2\csrc/u8x8_d_ssd1316.c ****   MERCHANTABILITY AND FITNESS FOR A PARTICULAR PURPOSE ARE 
  24:..\u8g2\csrc/u8x8_d_ssd1316.c ****   DISCLAIMED. IN NO EVENT SHALL THE COPYRIGHT HOLDER OR 
  25:..\u8g2\csrc/u8x8_d_ssd1316.c ****   CONTRIBUTORS BE LIABLE FOR ANY DIRECT, INDIRECT, INCIDENTAL, 
  26:..\u8g2\csrc/u8x8_d_ssd1316.c ****   SPECIAL, EXEMPLARY, OR CONSEQUENTIAL DAMAGES (INCLUDING, BUT 
  27:..\u8g2\csrc/u8x8_d_ssd1316.c ****   NOT LIMITED TO, PROCUREMENT OF SUBSTITUTE GOODS OR SERVICES; 
  28:..\u8g2\csrc/u8x8_d_ssd1316.c ****   LOSS OF USE, DATA, OR PROFITS; OR BUSINESS INTERRUPTION) HOWEVER 
  29:..\u8g2\csrc/u8x8_d_ssd1316.c ****   CAUSED AND ON ANY THEORY OF LIABILITY, WHETHER IN CONTRACT, 
  30:..\u8g2\csrc/u8x8_d_ssd1316.c ****   STRICT LIABILITY, OR TORT (INCLUDING NEGLIGENCE OR OTHERWISE) 
  31:..\u8g2\csrc/u8x8_d_ssd1316.c ****   ARISING IN ANY WAY OUT OF THE USE OF THIS SOFTWARE, EVEN IF 
ARM GAS  C:\Users\brian\AppData\Local\Temp\ccubeeSO.s 			page 2


  32:..\u8g2\csrc/u8x8_d_ssd1316.c ****   ADVISED OF THE POSSIBILITY OF SUCH DAMAGE.  
  33:..\u8g2\csrc/u8x8_d_ssd1316.c **** 
  34:..\u8g2\csrc/u8x8_d_ssd1316.c **** 
  35:..\u8g2\csrc/u8x8_d_ssd1316.c ****   SSD1316: 128x39 OLED
  36:..\u8g2\csrc/u8x8_d_ssd1316.c ****   
  37:..\u8g2\csrc/u8x8_d_ssd1316.c ****   https://github.com/olikraus/u8g2/issues/919
  38:..\u8g2\csrc/u8x8_d_ssd1316.c **** 
  39:..\u8g2\csrc/u8x8_d_ssd1316.c **** */
  40:..\u8g2\csrc/u8x8_d_ssd1316.c **** 
  41:..\u8g2\csrc/u8x8_d_ssd1316.c **** 
  42:..\u8g2\csrc/u8x8_d_ssd1316.c **** #include "u8x8.h"
  43:..\u8g2\csrc/u8x8_d_ssd1316.c **** 
  44:..\u8g2\csrc/u8x8_d_ssd1316.c **** static const uint8_t u8x8_d_ssd1316_128x32_powersave0_seq[] = {
  45:..\u8g2\csrc/u8x8_d_ssd1316.c ****   U8X8_START_TRANSFER(),             	/* enable chip, delay is part of the transfer start */
  46:..\u8g2\csrc/u8x8_d_ssd1316.c ****   U8X8_C(0x0af),		                /* display on */
  47:..\u8g2\csrc/u8x8_d_ssd1316.c ****   U8X8_END_TRANSFER(),             	/* disable chip */
  48:..\u8g2\csrc/u8x8_d_ssd1316.c ****   U8X8_END()             			/* end of sequence */
  49:..\u8g2\csrc/u8x8_d_ssd1316.c **** };
  50:..\u8g2\csrc/u8x8_d_ssd1316.c **** 
  51:..\u8g2\csrc/u8x8_d_ssd1316.c **** static const uint8_t u8x8_d_ssd1316_128x32_powersave1_seq[] = {
  52:..\u8g2\csrc/u8x8_d_ssd1316.c ****   U8X8_START_TRANSFER(),             	/* enable chip, delay is part of the transfer start */
  53:..\u8g2\csrc/u8x8_d_ssd1316.c ****   U8X8_C(0x0ae),		                /* display off */
  54:..\u8g2\csrc/u8x8_d_ssd1316.c ****   U8X8_END_TRANSFER(),             	/* disable chip */
  55:..\u8g2\csrc/u8x8_d_ssd1316.c ****   U8X8_END()             			/* end of sequence */
  56:..\u8g2\csrc/u8x8_d_ssd1316.c **** };
  57:..\u8g2\csrc/u8x8_d_ssd1316.c **** 
  58:..\u8g2\csrc/u8x8_d_ssd1316.c **** static const uint8_t u8x8_d_ssd1316_128x32_flip0_seq[] = {
  59:..\u8g2\csrc/u8x8_d_ssd1316.c ****   U8X8_START_TRANSFER(),             	/* enable chip, delay is part of the transfer start */
  60:..\u8g2\csrc/u8x8_d_ssd1316.c ****   U8X8_C(0x0a1),				/* segment remap a0/a1*/
  61:..\u8g2\csrc/u8x8_d_ssd1316.c ****   U8X8_C(0x0c0),				/* c0: scan dir normal, c8: reverse */
  62:..\u8g2\csrc/u8x8_d_ssd1316.c ****   U8X8_END_TRANSFER(),             	/* disable chip */
  63:..\u8g2\csrc/u8x8_d_ssd1316.c ****   U8X8_END()             			/* end of sequence */
  64:..\u8g2\csrc/u8x8_d_ssd1316.c **** };
  65:..\u8g2\csrc/u8x8_d_ssd1316.c **** 
  66:..\u8g2\csrc/u8x8_d_ssd1316.c **** static const uint8_t u8x8_d_ssd1316_128x32_flip1_seq[] = {
  67:..\u8g2\csrc/u8x8_d_ssd1316.c ****   U8X8_START_TRANSFER(),             	/* enable chip, delay is part of the transfer start */
  68:..\u8g2\csrc/u8x8_d_ssd1316.c ****   U8X8_C(0x0a0),				/* segment remap a0/a1*/
  69:..\u8g2\csrc/u8x8_d_ssd1316.c ****   U8X8_C(0x0c8),				/* c0: scan dir normal, c8: reverse */
  70:..\u8g2\csrc/u8x8_d_ssd1316.c ****   U8X8_END_TRANSFER(),             	/* disable chip */
  71:..\u8g2\csrc/u8x8_d_ssd1316.c ****   U8X8_END()             			/* end of sequence */
  72:..\u8g2\csrc/u8x8_d_ssd1316.c **** };
  73:..\u8g2\csrc/u8x8_d_ssd1316.c **** 
  74:..\u8g2\csrc/u8x8_d_ssd1316.c **** 
  75:..\u8g2\csrc/u8x8_d_ssd1316.c **** 
  76:..\u8g2\csrc/u8x8_d_ssd1316.c **** 
  77:..\u8g2\csrc/u8x8_d_ssd1316.c **** /*===================================================*/
  78:..\u8g2\csrc/u8x8_d_ssd1316.c **** 
  79:..\u8g2\csrc/u8x8_d_ssd1316.c **** static uint8_t u8x8_d_ssd1316_generic(u8x8_t *u8x8, uint8_t msg, uint8_t arg_int, void *arg_ptr)
  80:..\u8g2\csrc/u8x8_d_ssd1316.c **** {
  27              		.loc 1 80 0
  28              		.cfi_startproc
  29              		@ args = 0, pretend = 0, frame = 0
  30              		@ frame_needed = 0, uses_anonymous_args = 0
  31              	.LVL0:
  32 0000 F8B5     		push	{r3, r4, r5, r6, r7, lr}
  33              		.cfi_def_cfa_offset 24
  34              		.cfi_offset 3, -24
ARM GAS  C:\Users\brian\AppData\Local\Temp\ccubeeSO.s 			page 3


  35              		.cfi_offset 4, -20
  36              		.cfi_offset 5, -16
  37              		.cfi_offset 6, -12
  38              		.cfi_offset 7, -8
  39              		.cfi_offset 14, -4
  40 0002 0546     		mov	r5, r0
  41 0004 1446     		mov	r4, r2
  42 0006 1E46     		mov	r6, r3
  81:..\u8g2\csrc/u8x8_d_ssd1316.c ****   uint8_t x, c;
  82:..\u8g2\csrc/u8x8_d_ssd1316.c ****   uint8_t *ptr;
  83:..\u8g2\csrc/u8x8_d_ssd1316.c ****   switch(msg)
  43              		.loc 1 83 0
  44 0008 0B39     		subs	r1, r1, #11
  45              	.LVL1:
  46 000a 0429     		cmp	r1, #4
  47 000c 5CD8     		bhi	.L11
  48 000e DFE801F0 		tbb	[pc, r1]
  49              	.LVL2:
  50              	.L4:
  51 0012 03       		.byte	(.L3-.L4)/2
  52 0013 5B       		.byte	(.L11-.L4)/2
  53 0014 0E       		.byte	(.L5-.L4)/2
  54 0015 21       		.byte	(.L6-.L4)/2
  55 0016 30       		.byte	(.L7-.L4)/2
  56 0017 00       		.p2align 1
  57              	.L3:
  84:..\u8g2\csrc/u8x8_d_ssd1316.c ****   {
  85:..\u8g2\csrc/u8x8_d_ssd1316.c ****     /* handled by the calling function
  86:..\u8g2\csrc/u8x8_d_ssd1316.c ****     case U8X8_MSG_DISPLAY_SETUP_MEMORY:
  87:..\u8g2\csrc/u8x8_d_ssd1316.c ****       u8x8_d_helper_display_setup_memory(u8x8, &u8x8_ssd1316_128x32_display_info);
  88:..\u8g2\csrc/u8x8_d_ssd1316.c ****       break;
  89:..\u8g2\csrc/u8x8_d_ssd1316.c ****     */
  90:..\u8g2\csrc/u8x8_d_ssd1316.c ****     /* handled by the calling function
  91:..\u8g2\csrc/u8x8_d_ssd1316.c ****     case U8X8_MSG_DISPLAY_INIT:
  92:..\u8g2\csrc/u8x8_d_ssd1316.c ****       u8x8_d_helper_display_init(u8x8);
  93:..\u8g2\csrc/u8x8_d_ssd1316.c ****       u8x8_cad_SendSequence(u8x8, u8x8_d_ssd1316_128x32_init_seq);    
  94:..\u8g2\csrc/u8x8_d_ssd1316.c ****       break;
  95:..\u8g2\csrc/u8x8_d_ssd1316.c ****     */
  96:..\u8g2\csrc/u8x8_d_ssd1316.c ****     case U8X8_MSG_DISPLAY_SET_POWER_SAVE:
  97:..\u8g2\csrc/u8x8_d_ssd1316.c ****       if ( arg_int == 0 )
  58              		.loc 1 97 0
  59 0018 22B9     		cbnz	r2, .L8
  98:..\u8g2\csrc/u8x8_d_ssd1316.c **** 	u8x8_cad_SendSequence(u8x8, u8x8_d_ssd1316_128x32_powersave0_seq);
  60              		.loc 1 98 0
  61 001a 2C49     		ldr	r1, .L13
  62 001c FFF7FEFF 		bl	u8x8_cad_SendSequence
  63              	.LVL3:
  99:..\u8g2\csrc/u8x8_d_ssd1316.c ****       else
 100:..\u8g2\csrc/u8x8_d_ssd1316.c **** 	u8x8_cad_SendSequence(u8x8, u8x8_d_ssd1316_128x32_powersave1_seq);
 101:..\u8g2\csrc/u8x8_d_ssd1316.c ****       break;
 102:..\u8g2\csrc/u8x8_d_ssd1316.c ****     case U8X8_MSG_DISPLAY_SET_FLIP_MODE:
 103:..\u8g2\csrc/u8x8_d_ssd1316.c ****       if ( arg_int == 0 )
 104:..\u8g2\csrc/u8x8_d_ssd1316.c ****       {
 105:..\u8g2\csrc/u8x8_d_ssd1316.c **** 	u8x8_cad_SendSequence(u8x8, u8x8_d_ssd1316_128x32_flip0_seq);
 106:..\u8g2\csrc/u8x8_d_ssd1316.c **** 	u8x8->x_offset = u8x8->display_info->default_x_offset;
 107:..\u8g2\csrc/u8x8_d_ssd1316.c ****       }
 108:..\u8g2\csrc/u8x8_d_ssd1316.c ****       else
ARM GAS  C:\Users\brian\AppData\Local\Temp\ccubeeSO.s 			page 4


 109:..\u8g2\csrc/u8x8_d_ssd1316.c ****       {
 110:..\u8g2\csrc/u8x8_d_ssd1316.c **** 	u8x8_cad_SendSequence(u8x8, u8x8_d_ssd1316_128x32_flip1_seq);
 111:..\u8g2\csrc/u8x8_d_ssd1316.c **** 	u8x8->x_offset = u8x8->display_info->flipmode_x_offset;
 112:..\u8g2\csrc/u8x8_d_ssd1316.c ****       }
 113:..\u8g2\csrc/u8x8_d_ssd1316.c ****       break;
 114:..\u8g2\csrc/u8x8_d_ssd1316.c **** #ifdef U8X8_WITH_SET_CONTRAST
 115:..\u8g2\csrc/u8x8_d_ssd1316.c ****     case U8X8_MSG_DISPLAY_SET_CONTRAST:
 116:..\u8g2\csrc/u8x8_d_ssd1316.c ****       u8x8_cad_StartTransfer(u8x8);
 117:..\u8g2\csrc/u8x8_d_ssd1316.c ****       u8x8_cad_SendCmd(u8x8, 0x081 );
 118:..\u8g2\csrc/u8x8_d_ssd1316.c ****       u8x8_cad_SendArg(u8x8, arg_int );	/* ssd1306 has range from 0 to 255 */
 119:..\u8g2\csrc/u8x8_d_ssd1316.c ****       u8x8_cad_EndTransfer(u8x8);
 120:..\u8g2\csrc/u8x8_d_ssd1316.c ****       break;
 121:..\u8g2\csrc/u8x8_d_ssd1316.c **** #endif
 122:..\u8g2\csrc/u8x8_d_ssd1316.c ****     case U8X8_MSG_DISPLAY_DRAW_TILE:
 123:..\u8g2\csrc/u8x8_d_ssd1316.c ****       x = ((u8x8_tile_t *)arg_ptr)->x_pos;    
 124:..\u8g2\csrc/u8x8_d_ssd1316.c ****       x *= 8;
 125:..\u8g2\csrc/u8x8_d_ssd1316.c ****       x += u8x8->x_offset;
 126:..\u8g2\csrc/u8x8_d_ssd1316.c **** 
 127:..\u8g2\csrc/u8x8_d_ssd1316.c ****       u8x8_cad_StartTransfer(u8x8);
 128:..\u8g2\csrc/u8x8_d_ssd1316.c ****     
 129:..\u8g2\csrc/u8x8_d_ssd1316.c ****       u8x8_cad_SendCmd(u8x8, 0x010 | (x>>4) );
 130:..\u8g2\csrc/u8x8_d_ssd1316.c ****       u8x8_cad_SendCmd(u8x8, 0x000 | ((x&15)));	/* probably wrong, should be SendCmd */
 131:..\u8g2\csrc/u8x8_d_ssd1316.c ****       u8x8_cad_SendCmd(u8x8, 0x0b0 | (((u8x8_tile_t *)arg_ptr)->y_pos)); /* probably wrong, should 
 132:..\u8g2\csrc/u8x8_d_ssd1316.c **** 
 133:..\u8g2\csrc/u8x8_d_ssd1316.c ****       do
 134:..\u8g2\csrc/u8x8_d_ssd1316.c ****       {
 135:..\u8g2\csrc/u8x8_d_ssd1316.c **** 	c = ((u8x8_tile_t *)arg_ptr)->cnt;
 136:..\u8g2\csrc/u8x8_d_ssd1316.c **** 	ptr = ((u8x8_tile_t *)arg_ptr)->tile_ptr;
 137:..\u8g2\csrc/u8x8_d_ssd1316.c **** 	u8x8_cad_SendData(u8x8, c*8, ptr); 	/* note: SendData can not handle more than 255 bytes */
 138:..\u8g2\csrc/u8x8_d_ssd1316.c **** 	arg_int--;
 139:..\u8g2\csrc/u8x8_d_ssd1316.c ****       } while( arg_int > 0 );
 140:..\u8g2\csrc/u8x8_d_ssd1316.c ****       
 141:..\u8g2\csrc/u8x8_d_ssd1316.c ****       u8x8_cad_EndTransfer(u8x8);
 142:..\u8g2\csrc/u8x8_d_ssd1316.c ****       break;
 143:..\u8g2\csrc/u8x8_d_ssd1316.c ****     default:
 144:..\u8g2\csrc/u8x8_d_ssd1316.c ****       return 0;
 145:..\u8g2\csrc/u8x8_d_ssd1316.c ****   }
 146:..\u8g2\csrc/u8x8_d_ssd1316.c ****   return 1;
  64              		.loc 1 146 0
  65 0020 0120     		movs	r0, #1
  66 0022 F8BD     		pop	{r3, r4, r5, r6, r7, pc}
  67              	.LVL4:
  68              	.L8:
 100:..\u8g2\csrc/u8x8_d_ssd1316.c ****       break;
  69              		.loc 1 100 0
  70 0024 2A49     		ldr	r1, .L13+4
  71 0026 FFF7FEFF 		bl	u8x8_cad_SendSequence
  72              	.LVL5:
  73              		.loc 1 146 0
  74 002a 0120     		movs	r0, #1
  75 002c F8BD     		pop	{r3, r4, r5, r6, r7, pc}
  76              	.LVL6:
  77              	.L5:
 103:..\u8g2\csrc/u8x8_d_ssd1316.c ****       {
  78              		.loc 1 103 0
  79 002e 42B9     		cbnz	r2, .L9
 105:..\u8g2\csrc/u8x8_d_ssd1316.c **** 	u8x8->x_offset = u8x8->display_info->default_x_offset;
ARM GAS  C:\Users\brian\AppData\Local\Temp\ccubeeSO.s 			page 5


  80              		.loc 1 105 0
  81 0030 2849     		ldr	r1, .L13+8
  82 0032 FFF7FEFF 		bl	u8x8_cad_SendSequence
  83              	.LVL7:
 106:..\u8g2\csrc/u8x8_d_ssd1316.c ****       }
  84              		.loc 1 106 0
  85 0036 2B68     		ldr	r3, [r5]
  86 0038 9B7C     		ldrb	r3, [r3, #18]	@ zero_extendqisi2
  87 003a 85F82230 		strb	r3, [r5, #34]
  88              		.loc 1 146 0
  89 003e 0120     		movs	r0, #1
  90 0040 F8BD     		pop	{r3, r4, r5, r6, r7, pc}
  91              	.LVL8:
  92              	.L9:
 110:..\u8g2\csrc/u8x8_d_ssd1316.c **** 	u8x8->x_offset = u8x8->display_info->flipmode_x_offset;
  93              		.loc 1 110 0
  94 0042 2549     		ldr	r1, .L13+12
  95 0044 FFF7FEFF 		bl	u8x8_cad_SendSequence
  96              	.LVL9:
 111:..\u8g2\csrc/u8x8_d_ssd1316.c ****       }
  97              		.loc 1 111 0
  98 0048 2B68     		ldr	r3, [r5]
  99 004a DB7C     		ldrb	r3, [r3, #19]	@ zero_extendqisi2
 100 004c 85F82230 		strb	r3, [r5, #34]
 101              		.loc 1 146 0
 102 0050 0120     		movs	r0, #1
 103 0052 F8BD     		pop	{r3, r4, r5, r6, r7, pc}
 104              	.LVL10:
 105              	.L6:
 116:..\u8g2\csrc/u8x8_d_ssd1316.c ****       u8x8_cad_SendCmd(u8x8, 0x081 );
 106              		.loc 1 116 0
 107 0054 FFF7FEFF 		bl	u8x8_cad_StartTransfer
 108              	.LVL11:
 117:..\u8g2\csrc/u8x8_d_ssd1316.c ****       u8x8_cad_SendArg(u8x8, arg_int );	/* ssd1306 has range from 0 to 255 */
 109              		.loc 1 117 0
 110 0058 8121     		movs	r1, #129
 111 005a 2846     		mov	r0, r5
 112 005c FFF7FEFF 		bl	u8x8_cad_SendCmd
 113              	.LVL12:
 118:..\u8g2\csrc/u8x8_d_ssd1316.c ****       u8x8_cad_EndTransfer(u8x8);
 114              		.loc 1 118 0
 115 0060 2146     		mov	r1, r4
 116 0062 2846     		mov	r0, r5
 117 0064 FFF7FEFF 		bl	u8x8_cad_SendArg
 118              	.LVL13:
 119:..\u8g2\csrc/u8x8_d_ssd1316.c ****       break;
 119              		.loc 1 119 0
 120 0068 2846     		mov	r0, r5
 121 006a FFF7FEFF 		bl	u8x8_cad_EndTransfer
 122              	.LVL14:
 123              		.loc 1 146 0
 124 006e 0120     		movs	r0, #1
 120:..\u8g2\csrc/u8x8_d_ssd1316.c **** #endif
 125              		.loc 1 120 0
 126 0070 F8BD     		pop	{r3, r4, r5, r6, r7, pc}
 127              	.LVL15:
 128              	.L7:
ARM GAS  C:\Users\brian\AppData\Local\Temp\ccubeeSO.s 			page 6


 123:..\u8g2\csrc/u8x8_d_ssd1316.c ****       x *= 8;
 129              		.loc 1 123 0
 130 0072 7779     		ldrb	r7, [r6, #5]	@ zero_extendqisi2
 131              	.LVL16:
 124:..\u8g2\csrc/u8x8_d_ssd1316.c ****       x += u8x8->x_offset;
 132              		.loc 1 124 0
 133 0074 FF00     		lsls	r7, r7, #3
 134              	.LVL17:
 135 0076 FFB2     		uxtb	r7, r7
 136              	.LVL18:
 125:..\u8g2\csrc/u8x8_d_ssd1316.c **** 
 137              		.loc 1 125 0
 138 0078 90F82230 		ldrb	r3, [r0, #34]	@ zero_extendqisi2
 139 007c 1F44     		add	r7, r7, r3
 140              	.LVL19:
 141 007e FFB2     		uxtb	r7, r7
 142              	.LVL20:
 127:..\u8g2\csrc/u8x8_d_ssd1316.c ****     
 143              		.loc 1 127 0
 144 0080 FFF7FEFF 		bl	u8x8_cad_StartTransfer
 145              	.LVL21:
 129:..\u8g2\csrc/u8x8_d_ssd1316.c ****       u8x8_cad_SendCmd(u8x8, 0x000 | ((x&15)));	/* probably wrong, should be SendCmd */
 146              		.loc 1 129 0
 147 0084 3909     		lsrs	r1, r7, #4
 148 0086 41F01001 		orr	r1, r1, #16
 149 008a 2846     		mov	r0, r5
 150 008c FFF7FEFF 		bl	u8x8_cad_SendCmd
 151              	.LVL22:
 130:..\u8g2\csrc/u8x8_d_ssd1316.c ****       u8x8_cad_SendCmd(u8x8, 0x0b0 | (((u8x8_tile_t *)arg_ptr)->y_pos)); /* probably wrong, should 
 152              		.loc 1 130 0
 153 0090 07F00F01 		and	r1, r7, #15
 154 0094 2846     		mov	r0, r5
 155 0096 FFF7FEFF 		bl	u8x8_cad_SendCmd
 156              	.LVL23:
 131:..\u8g2\csrc/u8x8_d_ssd1316.c **** 
 157              		.loc 1 131 0
 158 009a B179     		ldrb	r1, [r6, #6]	@ zero_extendqisi2
 159 009c 41F0B001 		orr	r1, r1, #176
 160 00a0 2846     		mov	r0, r5
 161 00a2 FFF7FEFF 		bl	u8x8_cad_SendCmd
 162              	.LVL24:
 163              	.L10:
 135:..\u8g2\csrc/u8x8_d_ssd1316.c **** 	ptr = ((u8x8_tile_t *)arg_ptr)->tile_ptr;
 164              		.loc 1 135 0 discriminator 1
 165 00a6 3179     		ldrb	r1, [r6, #4]	@ zero_extendqisi2
 166              	.LVL25:
 137:..\u8g2\csrc/u8x8_d_ssd1316.c **** 	arg_int--;
 167              		.loc 1 137 0 discriminator 1
 168 00a8 C900     		lsls	r1, r1, #3
 169              	.LVL26:
 170 00aa 3268     		ldr	r2, [r6]
 171 00ac 01F0F801 		and	r1, r1, #248
 172 00b0 2846     		mov	r0, r5
 173 00b2 FFF7FEFF 		bl	u8x8_cad_SendData
 174              	.LVL27:
 138:..\u8g2\csrc/u8x8_d_ssd1316.c ****       } while( arg_int > 0 );
 175              		.loc 1 138 0 discriminator 1
ARM GAS  C:\Users\brian\AppData\Local\Temp\ccubeeSO.s 			page 7


 176 00b6 621E     		subs	r2, r4, #1
 177              	.LVL28:
 139:..\u8g2\csrc/u8x8_d_ssd1316.c ****       
 178              		.loc 1 139 0 discriminator 1
 179 00b8 12F0FF04 		ands	r4, r2, #255
 180 00bc F3D1     		bne	.L10
 141:..\u8g2\csrc/u8x8_d_ssd1316.c ****       break;
 181              		.loc 1 141 0
 182 00be 2846     		mov	r0, r5
 183 00c0 FFF7FEFF 		bl	u8x8_cad_EndTransfer
 184              	.LVL29:
 185              		.loc 1 146 0
 186 00c4 0120     		movs	r0, #1
 142:..\u8g2\csrc/u8x8_d_ssd1316.c ****     default:
 187              		.loc 1 142 0
 188 00c6 F8BD     		pop	{r3, r4, r5, r6, r7, pc}
 189              	.LVL30:
 190              	.L11:
 144:..\u8g2\csrc/u8x8_d_ssd1316.c ****   }
 191              		.loc 1 144 0
 192 00c8 0020     		movs	r0, #0
 193              	.LVL31:
 147:..\u8g2\csrc/u8x8_d_ssd1316.c **** }
 194              		.loc 1 147 0
 195 00ca F8BD     		pop	{r3, r4, r5, r6, r7, pc}
 196              	.LVL32:
 197              	.L14:
 198              		.align	2
 199              	.L13:
 200 00cc 00000000 		.word	.LANCHOR0
 201 00d0 08000000 		.word	.LANCHOR0+8
 202 00d4 10000000 		.word	.LANCHOR0+16
 203 00d8 18000000 		.word	.LANCHOR0+24
 204              		.cfi_endproc
 205              	.LFE0:
 206              		.size	u8x8_d_ssd1316_generic, .-u8x8_d_ssd1316_generic
 207              		.section	.text.u8x8_d_ssd1316_128x32,"ax",%progbits
 208              		.align	2
 209              		.global	u8x8_d_ssd1316_128x32
 210              		.thumb
 211              		.thumb_func
 212              		.type	u8x8_d_ssd1316_128x32, %function
 213              	u8x8_d_ssd1316_128x32:
 214              	.LFB1:
 148:..\u8g2\csrc/u8x8_d_ssd1316.c **** 
 149:..\u8g2\csrc/u8x8_d_ssd1316.c **** /*===================================================*/
 150:..\u8g2\csrc/u8x8_d_ssd1316.c **** 
 151:..\u8g2\csrc/u8x8_d_ssd1316.c **** 
 152:..\u8g2\csrc/u8x8_d_ssd1316.c **** /* QT-2832TSWUG02/ZJY-2832TSWZG02 */
 153:..\u8g2\csrc/u8x8_d_ssd1316.c **** static const uint8_t u8x8_d_ssd1316_128x32_init_seq[] = {
 154:..\u8g2\csrc/u8x8_d_ssd1316.c ****     
 155:..\u8g2\csrc/u8x8_d_ssd1316.c ****   U8X8_START_TRANSFER(),             	/* enable chip, delay is part of the transfer start */
 156:..\u8g2\csrc/u8x8_d_ssd1316.c ****   
 157:..\u8g2\csrc/u8x8_d_ssd1316.c ****   
 158:..\u8g2\csrc/u8x8_d_ssd1316.c ****   U8X8_C(0x0ae),		        /* display off */
 159:..\u8g2\csrc/u8x8_d_ssd1316.c ****   U8X8_C(0x040),		        /* start line */
 160:..\u8g2\csrc/u8x8_d_ssd1316.c ****   U8X8_CA(0x081, 0x045), 		/* QG-2832TSWZG02 datasheet */
ARM GAS  C:\Users\brian\AppData\Local\Temp\ccubeeSO.s 			page 8


 161:..\u8g2\csrc/u8x8_d_ssd1316.c **** 
 162:..\u8g2\csrc/u8x8_d_ssd1316.c ****   U8X8_C(0x0a6),			/* none inverted normal display mode */
 163:..\u8g2\csrc/u8x8_d_ssd1316.c ****   U8X8_CA(0x0a8, 0x01f),		/* multiplex ratio, duty = 1/32 */
 164:..\u8g2\csrc/u8x8_d_ssd1316.c **** 
 165:..\u8g2\csrc/u8x8_d_ssd1316.c ****   U8X8_C(0x0a1),			/* segment remap a0/a1*/
 166:..\u8g2\csrc/u8x8_d_ssd1316.c ****   U8X8_C(0x0c0),			/* c0: scan dir normal, c8: reverse */
 167:..\u8g2\csrc/u8x8_d_ssd1316.c **** 
 168:..\u8g2\csrc/u8x8_d_ssd1316.c ****   U8X8_CA(0x0d3, 0x000),		/* display offset */
 169:..\u8g2\csrc/u8x8_d_ssd1316.c ****   U8X8_CA(0x0d5, 0x080),		/* clock divide ratio (0x00=1) and oscillator frequency (0x8) */
 170:..\u8g2\csrc/u8x8_d_ssd1316.c ****   U8X8_CA(0x0d9, 0x022), 		/* [2] pre-charge period 0x022/f1*/
 171:..\u8g2\csrc/u8x8_d_ssd1316.c ****   U8X8_CA(0x0da, 0x012),		/* com pin HW config, sequential com pin config (bit 4), disable left/rig
 172:..\u8g2\csrc/u8x8_d_ssd1316.c ****   U8X8_CA(0x0db, 0x020), 		/* vcomh deselect level */  
 173:..\u8g2\csrc/u8x8_d_ssd1316.c ****   U8X8_CA(0x08d, 0x015),		/* [2] charge pump setting (p62): 0x014 enable, 0x010 disable, */
 174:..\u8g2\csrc/u8x8_d_ssd1316.c ****   
 175:..\u8g2\csrc/u8x8_d_ssd1316.c ****   //U8X8_CA(0x0a2, 0x000),		/* set display start line to 0 */
 176:..\u8g2\csrc/u8x8_d_ssd1316.c ****   //U8X8_CA(0x020, 0x000),		/* horizontal addressing mode */
 177:..\u8g2\csrc/u8x8_d_ssd1316.c ****   
 178:..\u8g2\csrc/u8x8_d_ssd1316.c ****   
 179:..\u8g2\csrc/u8x8_d_ssd1316.c ****   // Flipmode
 180:..\u8g2\csrc/u8x8_d_ssd1316.c ****   //U8X8_C(0x0a1),			/* segment remap a0/a1*/
 181:..\u8g2\csrc/u8x8_d_ssd1316.c ****   //U8X8_C(0x0c0),			/* c0: scan dir normal, c8: reverse */
 182:..\u8g2\csrc/u8x8_d_ssd1316.c ****   
 183:..\u8g2\csrc/u8x8_d_ssd1316.c ****   U8X8_C(0x02e),			/* Deactivate scroll */ 
 184:..\u8g2\csrc/u8x8_d_ssd1316.c ****   //U8X8_C(0x0a4),			/* output ram to display */
 185:..\u8g2\csrc/u8x8_d_ssd1316.c ****     
 186:..\u8g2\csrc/u8x8_d_ssd1316.c ****   U8X8_END_TRANSFER(),             	/* disable chip */
 187:..\u8g2\csrc/u8x8_d_ssd1316.c ****   U8X8_END()           			/* end of sequence */
 188:..\u8g2\csrc/u8x8_d_ssd1316.c **** };
 189:..\u8g2\csrc/u8x8_d_ssd1316.c **** 
 190:..\u8g2\csrc/u8x8_d_ssd1316.c **** 
 191:..\u8g2\csrc/u8x8_d_ssd1316.c **** 
 192:..\u8g2\csrc/u8x8_d_ssd1316.c **** 
 193:..\u8g2\csrc/u8x8_d_ssd1316.c **** static const u8x8_display_info_t u8x8_ssd1316_128x32_display_info =
 194:..\u8g2\csrc/u8x8_d_ssd1316.c **** {
 195:..\u8g2\csrc/u8x8_d_ssd1316.c ****   /* chip_enable_level = */ 0,
 196:..\u8g2\csrc/u8x8_d_ssd1316.c ****   /* chip_disable_level = */ 1,
 197:..\u8g2\csrc/u8x8_d_ssd1316.c ****   
 198:..\u8g2\csrc/u8x8_d_ssd1316.c ****   /* post_chip_enable_wait_ns = */ 20,
 199:..\u8g2\csrc/u8x8_d_ssd1316.c ****   /* pre_chip_disable_wait_ns = */ 10,
 200:..\u8g2\csrc/u8x8_d_ssd1316.c ****   /* reset_pulse_width_ms = */ 100, 	/* reset time */
 201:..\u8g2\csrc/u8x8_d_ssd1316.c ****   /* post_reset_wait_ms = */ 100, /* reset delay */
 202:..\u8g2\csrc/u8x8_d_ssd1316.c ****   /* sda_setup_time_ns = */ 50,		/* SSD1306: 15ns, but cycle time is 100ns, so use 100/2 */
 203:..\u8g2\csrc/u8x8_d_ssd1316.c ****   /* sck_pulse_width_ns = */ 50,	/* SSD1306: 20ns, but cycle time is 100ns, so use 100/2, AVR: belo
 204:..\u8g2\csrc/u8x8_d_ssd1316.c ****   /* sck_clock_hz = */ 8000000UL,	/* since Arduino 1.6.0, the SPI bus speed in Hz. Should be  10000
 205:..\u8g2\csrc/u8x8_d_ssd1316.c ****   /* spi_mode = */ 0,		/* active high, rising edge */
 206:..\u8g2\csrc/u8x8_d_ssd1316.c ****   /* i2c_bus_clock_100kHz = */ 4,
 207:..\u8g2\csrc/u8x8_d_ssd1316.c ****   /* data_setup_time_ns = */ 40,
 208:..\u8g2\csrc/u8x8_d_ssd1316.c ****   /* write_pulse_width_ns = */ 150,	/* SSD1306: cycle time is 300ns, so use 300/2 = 150 */
 209:..\u8g2\csrc/u8x8_d_ssd1316.c ****   /* tile_width = */ 16,
 210:..\u8g2\csrc/u8x8_d_ssd1316.c ****   /* tile_hight = */ 4,
 211:..\u8g2\csrc/u8x8_d_ssd1316.c ****   /* default_x_offset = */ 0,
 212:..\u8g2\csrc/u8x8_d_ssd1316.c ****   /* flipmode_x_offset = */ 0,
 213:..\u8g2\csrc/u8x8_d_ssd1316.c ****   /* pixel_width = */ 128,
 214:..\u8g2\csrc/u8x8_d_ssd1316.c ****   /* pixel_height = */ 32
 215:..\u8g2\csrc/u8x8_d_ssd1316.c **** };
 216:..\u8g2\csrc/u8x8_d_ssd1316.c **** 
 217:..\u8g2\csrc/u8x8_d_ssd1316.c **** uint8_t u8x8_d_ssd1316_128x32(u8x8_t *u8x8, uint8_t msg, uint8_t arg_int, void *arg_ptr)
ARM GAS  C:\Users\brian\AppData\Local\Temp\ccubeeSO.s 			page 9


 218:..\u8g2\csrc/u8x8_d_ssd1316.c **** {
 215              		.loc 1 218 0
 216              		.cfi_startproc
 217              		@ args = 0, pretend = 0, frame = 0
 218              		@ frame_needed = 0, uses_anonymous_args = 0
 219              	.LVL33:
 220 0000 38B5     		push	{r3, r4, r5, lr}
 221              		.cfi_def_cfa_offset 16
 222              		.cfi_offset 3, -16
 223              		.cfi_offset 4, -12
 224              		.cfi_offset 5, -8
 225              		.cfi_offset 14, -4
 226 0002 0546     		mov	r5, r0
 227 0004 0C46     		mov	r4, r1
 219:..\u8g2\csrc/u8x8_d_ssd1316.c ****     
 220:..\u8g2\csrc/u8x8_d_ssd1316.c ****   if ( u8x8_d_ssd1316_generic(u8x8, msg, arg_int, arg_ptr) != 0 )
 228              		.loc 1 220 0
 229 0006 FFF7FEFF 		bl	u8x8_d_ssd1316_generic
 230              	.LVL34:
 231 000a 98B9     		cbnz	r0, .L19
 232 000c 0346     		mov	r3, r0
 221:..\u8g2\csrc/u8x8_d_ssd1316.c ****     return 1;
 222:..\u8g2\csrc/u8x8_d_ssd1316.c ****   
 223:..\u8g2\csrc/u8x8_d_ssd1316.c ****   switch(msg)
 233              		.loc 1 223 0
 234 000e 092C     		cmp	r4, #9
 235 0010 0AD0     		beq	.L17
 236 0012 0A2C     		cmp	r4, #10
 237 0014 0FD1     		bne	.L16
 224:..\u8g2\csrc/u8x8_d_ssd1316.c ****   {
 225:..\u8g2\csrc/u8x8_d_ssd1316.c ****     case U8X8_MSG_DISPLAY_INIT:
 226:..\u8g2\csrc/u8x8_d_ssd1316.c ****       u8x8_d_helper_display_init(u8x8);
 238              		.loc 1 226 0
 239 0016 2846     		mov	r0, r5
 240 0018 FFF7FEFF 		bl	u8x8_d_helper_display_init
 241              	.LVL35:
 227:..\u8g2\csrc/u8x8_d_ssd1316.c ****       u8x8_cad_SendSequence(u8x8, u8x8_d_ssd1316_128x32_init_seq);    
 242              		.loc 1 227 0
 243 001c 0749     		ldr	r1, .L21
 244 001e 2846     		mov	r0, r5
 245 0020 FFF7FEFF 		bl	u8x8_cad_SendSequence
 246              	.LVL36:
 228:..\u8g2\csrc/u8x8_d_ssd1316.c ****       break;
 229:..\u8g2\csrc/u8x8_d_ssd1316.c ****     case U8X8_MSG_DISPLAY_SETUP_MEMORY:
 230:..\u8g2\csrc/u8x8_d_ssd1316.c ****       u8x8_d_helper_display_setup_memory(u8x8, &u8x8_ssd1316_128x32_display_info);
 231:..\u8g2\csrc/u8x8_d_ssd1316.c ****       break;
 232:..\u8g2\csrc/u8x8_d_ssd1316.c ****     default:
 233:..\u8g2\csrc/u8x8_d_ssd1316.c ****       return 0;
 234:..\u8g2\csrc/u8x8_d_ssd1316.c ****   }
 235:..\u8g2\csrc/u8x8_d_ssd1316.c ****   return 1;
 247              		.loc 1 235 0
 248 0024 0123     		movs	r3, #1
 228:..\u8g2\csrc/u8x8_d_ssd1316.c ****       break;
 249              		.loc 1 228 0
 250 0026 06E0     		b	.L16
 251              	.L17:
 230:..\u8g2\csrc/u8x8_d_ssd1316.c ****       break;
ARM GAS  C:\Users\brian\AppData\Local\Temp\ccubeeSO.s 			page 10


 252              		.loc 1 230 0
 253 0028 0549     		ldr	r1, .L21+4
 254 002a 2846     		mov	r0, r5
 255 002c FFF7FEFF 		bl	u8x8_d_helper_display_setup_memory
 256              	.LVL37:
 257              		.loc 1 235 0
 258 0030 0123     		movs	r3, #1
 231:..\u8g2\csrc/u8x8_d_ssd1316.c ****     default:
 259              		.loc 1 231 0
 260 0032 00E0     		b	.L16
 261              	.L19:
 221:..\u8g2\csrc/u8x8_d_ssd1316.c ****   
 262              		.loc 1 221 0
 263 0034 0123     		movs	r3, #1
 264              	.L16:
 236:..\u8g2\csrc/u8x8_d_ssd1316.c **** }
 265              		.loc 1 236 0
 266 0036 1846     		mov	r0, r3
 267 0038 38BD     		pop	{r3, r4, r5, pc}
 268              	.LVL38:
 269              	.L22:
 270 003a 00BF     		.align	2
 271              	.L21:
 272 003c 20000000 		.word	.LANCHOR0+32
 273 0040 50000000 		.word	.LANCHOR0+80
 274              		.cfi_endproc
 275              	.LFE1:
 276              		.size	u8x8_d_ssd1316_128x32, .-u8x8_d_ssd1316_128x32
 277              		.section	.rodata
 278              		.align	2
 279              		.set	.LANCHOR0,. + 0
 280              		.type	u8x8_d_ssd1316_128x32_powersave0_seq, %object
 281              		.size	u8x8_d_ssd1316_128x32_powersave0_seq, 5
 282              	u8x8_d_ssd1316_128x32_powersave0_seq:
 283 0000 18       		.byte	24
 284 0001 15       		.byte	21
 285 0002 AF       		.byte	-81
 286 0003 19       		.byte	25
 287 0004 FF       		.byte	-1
 288 0005 000000   		.space	3
 289              		.type	u8x8_d_ssd1316_128x32_powersave1_seq, %object
 290              		.size	u8x8_d_ssd1316_128x32_powersave1_seq, 5
 291              	u8x8_d_ssd1316_128x32_powersave1_seq:
 292 0008 18       		.byte	24
 293 0009 15       		.byte	21
 294 000a AE       		.byte	-82
 295 000b 19       		.byte	25
 296 000c FF       		.byte	-1
 297 000d 000000   		.space	3
 298              		.type	u8x8_d_ssd1316_128x32_flip0_seq, %object
 299              		.size	u8x8_d_ssd1316_128x32_flip0_seq, 7
 300              	u8x8_d_ssd1316_128x32_flip0_seq:
 301 0010 18       		.byte	24
 302 0011 15       		.byte	21
 303 0012 A1       		.byte	-95
 304 0013 15       		.byte	21
 305 0014 C0       		.byte	-64
ARM GAS  C:\Users\brian\AppData\Local\Temp\ccubeeSO.s 			page 11


 306 0015 19       		.byte	25
 307 0016 FF       		.byte	-1
 308 0017 00       		.space	1
 309              		.type	u8x8_d_ssd1316_128x32_flip1_seq, %object
 310              		.size	u8x8_d_ssd1316_128x32_flip1_seq, 7
 311              	u8x8_d_ssd1316_128x32_flip1_seq:
 312 0018 18       		.byte	24
 313 0019 15       		.byte	21
 314 001a A0       		.byte	-96
 315 001b 15       		.byte	21
 316 001c C8       		.byte	-56
 317 001d 19       		.byte	25
 318 001e FF       		.byte	-1
 319 001f 00       		.space	1
 320              		.type	u8x8_d_ssd1316_128x32_init_seq, %object
 321              		.size	u8x8_d_ssd1316_128x32_init_seq, 47
 322              	u8x8_d_ssd1316_128x32_init_seq:
 323 0020 18       		.byte	24
 324 0021 15       		.byte	21
 325 0022 AE       		.byte	-82
 326 0023 15       		.byte	21
 327 0024 40       		.byte	64
 328 0025 15       		.byte	21
 329 0026 81       		.byte	-127
 330 0027 16       		.byte	22
 331 0028 45       		.byte	69
 332 0029 15       		.byte	21
 333 002a A6       		.byte	-90
 334 002b 15       		.byte	21
 335 002c A8       		.byte	-88
 336 002d 16       		.byte	22
 337 002e 1F       		.byte	31
 338 002f 15       		.byte	21
 339 0030 A1       		.byte	-95
 340 0031 15       		.byte	21
 341 0032 C0       		.byte	-64
 342 0033 15       		.byte	21
 343 0034 D3       		.byte	-45
 344 0035 16       		.byte	22
 345 0036 00       		.byte	0
 346 0037 15       		.byte	21
 347 0038 D5       		.byte	-43
 348 0039 16       		.byte	22
 349 003a 80       		.byte	-128
 350 003b 15       		.byte	21
 351 003c D9       		.byte	-39
 352 003d 16       		.byte	22
 353 003e 22       		.byte	34
 354 003f 15       		.byte	21
 355 0040 DA       		.byte	-38
 356 0041 16       		.byte	22
 357 0042 12       		.byte	18
 358 0043 15       		.byte	21
 359 0044 DB       		.byte	-37
 360 0045 16       		.byte	22
 361 0046 20       		.byte	32
 362 0047 15       		.byte	21
ARM GAS  C:\Users\brian\AppData\Local\Temp\ccubeeSO.s 			page 12


 363 0048 8D       		.byte	-115
 364 0049 16       		.byte	22
 365 004a 15       		.byte	21
 366 004b 15       		.byte	21
 367 004c 2E       		.byte	46
 368 004d 19       		.byte	25
 369 004e FF       		.byte	-1
 370 004f 00       		.space	1
 371              		.type	u8x8_ssd1316_128x32_display_info, %object
 372              		.size	u8x8_ssd1316_128x32_display_info, 24
 373              	u8x8_ssd1316_128x32_display_info:
 374 0050 00       		.byte	0
 375 0051 01       		.byte	1
 376 0052 14       		.byte	20
 377 0053 0A       		.byte	10
 378 0054 64       		.byte	100
 379 0055 64       		.byte	100
 380 0056 32       		.byte	50
 381 0057 32       		.byte	50
 382 0058 00127A00 		.word	8000000
 383 005c 00       		.byte	0
 384 005d 04       		.byte	4
 385 005e 28       		.byte	40
 386 005f 96       		.byte	-106
 387 0060 10       		.byte	16
 388 0061 04       		.byte	4
 389 0062 00       		.byte	0
 390 0063 00       		.byte	0
 391 0064 8000     		.short	128
 392 0066 2000     		.short	32
 393              		.text
 394              	.Letext0:
 395              		.file 2 "c:\\program files (x86)\\cypress\\psoc creator\\4.4\\psoc creator\\import\\gnu\\arm\\5.4.
 396              		.file 3 "c:\\program files (x86)\\cypress\\psoc creator\\4.4\\psoc creator\\import\\gnu\\arm\\5.4.
 397              		.file 4 "..\\u8g2\\csrc\\u8x8.h"