ARM GAS  C:\Users\brian\AppData\Local\Temp\ccNdV11D.s 			page 1


   1              		.syntax unified
   2              		.cpu cortex-m3
   3              		.fpu softvfp
   4              		.eabi_attribute 20, 1
   5              		.eabi_attribute 21, 1
   6              		.eabi_attribute 23, 3
   7              		.eabi_attribute 24, 1
   8              		.eabi_attribute 25, 1
   9              		.eabi_attribute 26, 1
  10              		.eabi_attribute 30, 1
  11              		.eabi_attribute 34, 1
  12              		.eabi_attribute 18, 4
  13              		.thumb
  14              		.syntax unified
  15              		.file	"u8x8_d_uc1608.c"
  16              		.text
  17              	.Ltext0:
  18              		.cfi_sections	.debug_frame
  19              		.section	.text.u8x8_d_uc1608_common,"ax",%progbits
  20              		.align	2
  21              		.global	u8x8_d_uc1608_common
  22              		.thumb
  23              		.thumb_func
  24              		.type	u8x8_d_uc1608_common, %function
  25              	u8x8_d_uc1608_common:
  26              	.LFB0:
  27              		.file 1 "..\\u8g2\\csrc\\u8x8_d_uc1608.c"
   1:..\u8g2\csrc/u8x8_d_uc1608.c **** /*
   2:..\u8g2\csrc/u8x8_d_uc1608.c **** 
   3:..\u8g2\csrc/u8x8_d_uc1608.c ****   u8x8_d_uc1608.c
   4:..\u8g2\csrc/u8x8_d_uc1608.c ****   
   5:..\u8g2\csrc/u8x8_d_uc1608.c ****   Universal 8bit Graphics Library (https://github.com/olikraus/u8g2/)
   6:..\u8g2\csrc/u8x8_d_uc1608.c **** 
   7:..\u8g2\csrc/u8x8_d_uc1608.c ****   Copyright (c) 2016, olikraus@gmail.com
   8:..\u8g2\csrc/u8x8_d_uc1608.c ****   All rights reserved.
   9:..\u8g2\csrc/u8x8_d_uc1608.c **** 
  10:..\u8g2\csrc/u8x8_d_uc1608.c ****   Redistribution and use in source and binary forms, with or without modification, 
  11:..\u8g2\csrc/u8x8_d_uc1608.c ****   are permitted provided that the following conditions are met:
  12:..\u8g2\csrc/u8x8_d_uc1608.c **** 
  13:..\u8g2\csrc/u8x8_d_uc1608.c ****   * Redistributions of source code must retain the above copyright notice, this list 
  14:..\u8g2\csrc/u8x8_d_uc1608.c ****     of conditions and the following disclaimer.
  15:..\u8g2\csrc/u8x8_d_uc1608.c ****     
  16:..\u8g2\csrc/u8x8_d_uc1608.c ****   * Redistributions in binary form must reproduce the above copyright notice, this 
  17:..\u8g2\csrc/u8x8_d_uc1608.c ****     list of conditions and the following disclaimer in the documentation and/or other 
  18:..\u8g2\csrc/u8x8_d_uc1608.c ****     materials provided with the distribution.
  19:..\u8g2\csrc/u8x8_d_uc1608.c **** 
  20:..\u8g2\csrc/u8x8_d_uc1608.c ****   THIS SOFTWARE IS PROVIDED BY THE COPYRIGHT HOLDERS AND 
  21:..\u8g2\csrc/u8x8_d_uc1608.c ****   CONTRIBUTORS "AS IS" AND ANY EXPRESS OR IMPLIED WARRANTIES, 
  22:..\u8g2\csrc/u8x8_d_uc1608.c ****   INCLUDING, BUT NOT LIMITED TO, THE IMPLIED WARRANTIES OF 
  23:..\u8g2\csrc/u8x8_d_uc1608.c ****   MERCHANTABILITY AND FITNESS FOR A PARTICULAR PURPOSE ARE 
  24:..\u8g2\csrc/u8x8_d_uc1608.c ****   DISCLAIMED. IN NO EVENT SHALL THE COPYRIGHT HOLDER OR 
  25:..\u8g2\csrc/u8x8_d_uc1608.c ****   CONTRIBUTORS BE LIABLE FOR ANY DIRECT, INDIRECT, INCIDENTAL, 
  26:..\u8g2\csrc/u8x8_d_uc1608.c ****   SPECIAL, EXEMPLARY, OR CONSEQUENTIAL DAMAGES (INCLUDING, BUT 
  27:..\u8g2\csrc/u8x8_d_uc1608.c ****   NOT LIMITED TO, PROCUREMENT OF SUBSTITUTE GOODS OR SERVICES; 
  28:..\u8g2\csrc/u8x8_d_uc1608.c ****   LOSS OF USE, DATA, OR PROFITS; OR BUSINESS INTERRUPTION) HOWEVER 
  29:..\u8g2\csrc/u8x8_d_uc1608.c ****   CAUSED AND ON ANY THEORY OF LIABILITY, WHETHER IN CONTRACT, 
  30:..\u8g2\csrc/u8x8_d_uc1608.c ****   STRICT LIABILITY, OR TORT (INCLUDING NEGLIGENCE OR OTHERWISE) 
ARM GAS  C:\Users\brian\AppData\Local\Temp\ccNdV11D.s 			page 2


  31:..\u8g2\csrc/u8x8_d_uc1608.c ****   ARISING IN ANY WAY OUT OF THE USE OF THIS SOFTWARE, EVEN IF 
  32:..\u8g2\csrc/u8x8_d_uc1608.c ****   ADVISED OF THE POSSIBILITY OF SUCH DAMAGE.  
  33:..\u8g2\csrc/u8x8_d_uc1608.c **** 
  34:..\u8g2\csrc/u8x8_d_uc1608.c **** 
  35:..\u8g2\csrc/u8x8_d_uc1608.c ****   
  36:..\u8g2\csrc/u8x8_d_uc1608.c **** */
  37:..\u8g2\csrc/u8x8_d_uc1608.c **** #include "u8x8.h"
  38:..\u8g2\csrc/u8x8_d_uc1608.c **** 
  39:..\u8g2\csrc/u8x8_d_uc1608.c **** 
  40:..\u8g2\csrc/u8x8_d_uc1608.c **** 
  41:..\u8g2\csrc/u8x8_d_uc1608.c **** 
  42:..\u8g2\csrc/u8x8_d_uc1608.c **** 
  43:..\u8g2\csrc/u8x8_d_uc1608.c **** static const uint8_t u8x8_d_uc1608_powersave0_seq[] = {
  44:..\u8g2\csrc/u8x8_d_uc1608.c ****   U8X8_START_TRANSFER(),             	/* enable chip, delay is part of the transfer start */
  45:..\u8g2\csrc/u8x8_d_uc1608.c ****   U8X8_C(0x0af),		                /* display on */
  46:..\u8g2\csrc/u8x8_d_uc1608.c ****   U8X8_END_TRANSFER(),             	/* disable chip */
  47:..\u8g2\csrc/u8x8_d_uc1608.c ****   U8X8_END()             			/* end of sequence */
  48:..\u8g2\csrc/u8x8_d_uc1608.c **** };
  49:..\u8g2\csrc/u8x8_d_uc1608.c **** 
  50:..\u8g2\csrc/u8x8_d_uc1608.c **** static const uint8_t u8x8_d_uc1608_powersave1_seq[] = {
  51:..\u8g2\csrc/u8x8_d_uc1608.c ****   U8X8_START_TRANSFER(),             	/* enable chip, delay is part of the transfer start */
  52:..\u8g2\csrc/u8x8_d_uc1608.c ****   U8X8_C(0x0ae),		                /* display off, enter sleep mode */
  53:..\u8g2\csrc/u8x8_d_uc1608.c ****   U8X8_END_TRANSFER(),             	/* disable chip */
  54:..\u8g2\csrc/u8x8_d_uc1608.c ****   U8X8_END()             			/* end of sequence */
  55:..\u8g2\csrc/u8x8_d_uc1608.c **** };
  56:..\u8g2\csrc/u8x8_d_uc1608.c **** 
  57:..\u8g2\csrc/u8x8_d_uc1608.c **** static const uint8_t u8x8_d_uc1608_flip0_seq[] = {
  58:..\u8g2\csrc/u8x8_d_uc1608.c ****   U8X8_START_TRANSFER(),             	/* enable chip, delay is part of the transfer start */
  59:..\u8g2\csrc/u8x8_d_uc1608.c ****   U8X8_C(0x0c8),            			/* LCD Mapping */
  60:..\u8g2\csrc/u8x8_d_uc1608.c ****   U8X8_END_TRANSFER(),             	/* disable chip */
  61:..\u8g2\csrc/u8x8_d_uc1608.c ****   U8X8_END()             			/* end of sequence */
  62:..\u8g2\csrc/u8x8_d_uc1608.c **** };
  63:..\u8g2\csrc/u8x8_d_uc1608.c **** 
  64:..\u8g2\csrc/u8x8_d_uc1608.c **** static const uint8_t u8x8_d_uc1608_flip1_seq[] = {
  65:..\u8g2\csrc/u8x8_d_uc1608.c ****   U8X8_START_TRANSFER(),             	/* enable chip, delay is part of the transfer start */
  66:..\u8g2\csrc/u8x8_d_uc1608.c ****   U8X8_C(0x0c4),            			/* LCD Mapping */
  67:..\u8g2\csrc/u8x8_d_uc1608.c ****   U8X8_END_TRANSFER(),             	/* disable chip */
  68:..\u8g2\csrc/u8x8_d_uc1608.c ****   U8X8_END()             			/* end of sequence */
  69:..\u8g2\csrc/u8x8_d_uc1608.c **** };
  70:..\u8g2\csrc/u8x8_d_uc1608.c **** 
  71:..\u8g2\csrc/u8x8_d_uc1608.c **** 
  72:..\u8g2\csrc/u8x8_d_uc1608.c **** uint8_t u8x8_d_uc1608_common(u8x8_t *u8x8, uint8_t msg, uint8_t arg_int, void *arg_ptr)
  73:..\u8g2\csrc/u8x8_d_uc1608.c **** {
  28              		.loc 1 73 0
  29              		.cfi_startproc
  30              		@ args = 0, pretend = 0, frame = 0
  31              		@ frame_needed = 0, uses_anonymous_args = 0
  32              	.LVL0:
  33 0000 F8B5     		push	{r3, r4, r5, r6, r7, lr}
  34              		.cfi_def_cfa_offset 24
  35              		.cfi_offset 3, -24
  36              		.cfi_offset 4, -20
  37              		.cfi_offset 5, -16
  38              		.cfi_offset 6, -12
  39              		.cfi_offset 7, -8
  40              		.cfi_offset 14, -4
  41 0002 0546     		mov	r5, r0
ARM GAS  C:\Users\brian\AppData\Local\Temp\ccNdV11D.s 			page 3


  42 0004 1446     		mov	r4, r2
  43 0006 1F46     		mov	r7, r3
  74:..\u8g2\csrc/u8x8_d_uc1608.c ****   uint8_t x, y, c;
  75:..\u8g2\csrc/u8x8_d_uc1608.c ****   uint8_t *ptr;
  76:..\u8g2\csrc/u8x8_d_uc1608.c ****   switch(msg)
  44              		.loc 1 76 0
  45 0008 0B39     		subs	r1, r1, #11
  46              	.LVL1:
  47 000a 0429     		cmp	r1, #4
  48 000c 5ED8     		bhi	.L11
  49 000e DFE801F0 		tbb	[pc, r1]
  50              	.LVL2:
  51              	.L4:
  52 0012 30       		.byte	(.L3-.L4)/2
  53 0013 5D       		.byte	(.L11-.L4)/2
  54 0014 3B       		.byte	(.L5-.L4)/2
  55 0015 4E       		.byte	(.L6-.L4)/2
  56 0016 03       		.byte	(.L7-.L4)/2
  57 0017 00       		.p2align 1
  58              	.L7:
  77:..\u8g2\csrc/u8x8_d_uc1608.c ****   {
  78:..\u8g2\csrc/u8x8_d_uc1608.c ****     case U8X8_MSG_DISPLAY_DRAW_TILE:
  79:..\u8g2\csrc/u8x8_d_uc1608.c ****       u8x8_cad_StartTransfer(u8x8);
  59              		.loc 1 79 0
  60 0018 FFF7FEFF 		bl	u8x8_cad_StartTransfer
  61              	.LVL3:
  80:..\u8g2\csrc/u8x8_d_uc1608.c ****     
  81:..\u8g2\csrc/u8x8_d_uc1608.c ****       x = ((u8x8_tile_t *)arg_ptr)->x_pos;
  62              		.loc 1 81 0
  63 001c 7E79     		ldrb	r6, [r7, #5]	@ zero_extendqisi2
  64              	.LVL4:
  82:..\u8g2\csrc/u8x8_d_uc1608.c ****       x *= 8;
  65              		.loc 1 82 0
  66 001e F600     		lsls	r6, r6, #3
  67              	.LVL5:
  68 0020 F6B2     		uxtb	r6, r6
  69              	.LVL6:
  83:..\u8g2\csrc/u8x8_d_uc1608.c ****    
  84:..\u8g2\csrc/u8x8_d_uc1608.c ****       u8x8_cad_SendCmd(u8x8, 0x000 | ((x&15)));
  70              		.loc 1 84 0
  71 0022 06F00801 		and	r1, r6, #8
  72 0026 2846     		mov	r0, r5
  73 0028 FFF7FEFF 		bl	u8x8_cad_SendCmd
  74              	.LVL7:
  85:..\u8g2\csrc/u8x8_d_uc1608.c ****       u8x8_cad_SendCmd(u8x8, 0x010 | (x>>4) );
  75              		.loc 1 85 0
  76 002c 3109     		lsrs	r1, r6, #4
  77 002e 41F01001 		orr	r1, r1, #16
  78 0032 2846     		mov	r0, r5
  79 0034 FFF7FEFF 		bl	u8x8_cad_SendCmd
  80              	.LVL8:
  86:..\u8g2\csrc/u8x8_d_uc1608.c ****     
  87:..\u8g2\csrc/u8x8_d_uc1608.c ****       y = ((u8x8_tile_t *)arg_ptr)->y_pos;
  81              		.loc 1 87 0
  82 0038 B979     		ldrb	r1, [r7, #6]	@ zero_extendqisi2
  83              	.LVL9:
  88:..\u8g2\csrc/u8x8_d_uc1608.c ****       y += u8x8->x_offset;
ARM GAS  C:\Users\brian\AppData\Local\Temp\ccNdV11D.s 			page 4


  84              		.loc 1 88 0
  85 003a 95F82230 		ldrb	r3, [r5, #34]	@ zero_extendqisi2
  86 003e 1944     		add	r1, r1, r3
  87              	.LVL10:
  89:..\u8g2\csrc/u8x8_d_uc1608.c ****       u8x8_cad_SendCmd(u8x8, 0x0b0 | (y&15));
  88              		.loc 1 89 0
  89 0040 01F00F01 		and	r1, r1, #15
  90              	.LVL11:
  91 0044 41F0B001 		orr	r1, r1, #176
  92 0048 2846     		mov	r0, r5
  93 004a FFF7FEFF 		bl	u8x8_cad_SendCmd
  94              	.LVL12:
  90:..\u8g2\csrc/u8x8_d_uc1608.c ****     
  91:..\u8g2\csrc/u8x8_d_uc1608.c ****       c = ((u8x8_tile_t *)arg_ptr)->cnt;
  95              		.loc 1 91 0
  96 004e 3E79     		ldrb	r6, [r7, #4]	@ zero_extendqisi2
  97              	.LVL13:
  92:..\u8g2\csrc/u8x8_d_uc1608.c ****       c *= 8;
  98              		.loc 1 92 0
  99 0050 F600     		lsls	r6, r6, #3
 100              	.LVL14:
 101 0052 F6B2     		uxtb	r6, r6
 102              	.LVL15:
  93:..\u8g2\csrc/u8x8_d_uc1608.c ****       ptr = ((u8x8_tile_t *)arg_ptr)->tile_ptr;
 103              		.loc 1 93 0
 104 0054 3F68     		ldr	r7, [r7]
 105              	.LVL16:
 106              	.L8:
  94:..\u8g2\csrc/u8x8_d_uc1608.c ****       do
  95:..\u8g2\csrc/u8x8_d_uc1608.c ****       {
  96:..\u8g2\csrc/u8x8_d_uc1608.c **** 	u8x8_cad_SendData(u8x8, c, ptr);	/* note: SendData can not handle more than 255 bytes */
 107              		.loc 1 96 0 discriminator 1
 108 0056 3A46     		mov	r2, r7
 109 0058 3146     		mov	r1, r6
 110 005a 2846     		mov	r0, r5
 111 005c FFF7FEFF 		bl	u8x8_cad_SendData
 112              	.LVL17:
  97:..\u8g2\csrc/u8x8_d_uc1608.c **** 	arg_int--;
 113              		.loc 1 97 0 discriminator 1
 114 0060 621E     		subs	r2, r4, #1
 115              	.LVL18:
  98:..\u8g2\csrc/u8x8_d_uc1608.c ****       } while( arg_int > 0 );
 116              		.loc 1 98 0 discriminator 1
 117 0062 12F0FF04 		ands	r4, r2, #255
 118 0066 F6D1     		bne	.L8
  99:..\u8g2\csrc/u8x8_d_uc1608.c ****       
 100:..\u8g2\csrc/u8x8_d_uc1608.c ****       u8x8_cad_EndTransfer(u8x8);
 119              		.loc 1 100 0
 120 0068 2846     		mov	r0, r5
 121 006a FFF7FEFF 		bl	u8x8_cad_EndTransfer
 122              	.LVL19:
 101:..\u8g2\csrc/u8x8_d_uc1608.c ****       break;
 102:..\u8g2\csrc/u8x8_d_uc1608.c ****     /*	handled in the calling procedure 
 103:..\u8g2\csrc/u8x8_d_uc1608.c ****     case U8X8_MSG_DISPLAY_SETUP_MEMORY:
 104:..\u8g2\csrc/u8x8_d_uc1608.c ****       u8x8_d_helper_display_setup_memory(u8x8, &u8x8_uc1608_128x64_display_info);
 105:..\u8g2\csrc/u8x8_d_uc1608.c ****       break;
 106:..\u8g2\csrc/u8x8_d_uc1608.c ****     case U8X8_MSG_DISPLAY_INIT:
ARM GAS  C:\Users\brian\AppData\Local\Temp\ccNdV11D.s 			page 5


 107:..\u8g2\csrc/u8x8_d_uc1608.c ****       u8x8_d_helper_display_init(u8x8);
 108:..\u8g2\csrc/u8x8_d_uc1608.c ****       u8x8_cad_SendSequence(u8x8, u8x8_d_uc1701_dogs102_init_seq);
 109:..\u8g2\csrc/u8x8_d_uc1608.c ****       break;
 110:..\u8g2\csrc/u8x8_d_uc1608.c ****     */
 111:..\u8g2\csrc/u8x8_d_uc1608.c ****     case U8X8_MSG_DISPLAY_SET_POWER_SAVE:
 112:..\u8g2\csrc/u8x8_d_uc1608.c ****       if ( arg_int == 0 )
 113:..\u8g2\csrc/u8x8_d_uc1608.c **** 	u8x8_cad_SendSequence(u8x8, u8x8_d_uc1608_powersave0_seq);
 114:..\u8g2\csrc/u8x8_d_uc1608.c ****       else
 115:..\u8g2\csrc/u8x8_d_uc1608.c **** 	u8x8_cad_SendSequence(u8x8, u8x8_d_uc1608_powersave1_seq);
 116:..\u8g2\csrc/u8x8_d_uc1608.c ****       break;
 117:..\u8g2\csrc/u8x8_d_uc1608.c ****     case U8X8_MSG_DISPLAY_SET_FLIP_MODE:
 118:..\u8g2\csrc/u8x8_d_uc1608.c ****       if ( arg_int == 0 )
 119:..\u8g2\csrc/u8x8_d_uc1608.c ****       {
 120:..\u8g2\csrc/u8x8_d_uc1608.c **** 	u8x8_cad_SendSequence(u8x8, u8x8_d_uc1608_flip0_seq);
 121:..\u8g2\csrc/u8x8_d_uc1608.c **** 	u8x8->x_offset = u8x8->display_info->default_x_offset;
 122:..\u8g2\csrc/u8x8_d_uc1608.c ****       }
 123:..\u8g2\csrc/u8x8_d_uc1608.c ****       else
 124:..\u8g2\csrc/u8x8_d_uc1608.c ****       {
 125:..\u8g2\csrc/u8x8_d_uc1608.c **** 	u8x8_cad_SendSequence(u8x8, u8x8_d_uc1608_flip1_seq);
 126:..\u8g2\csrc/u8x8_d_uc1608.c **** 	u8x8->x_offset = u8x8->display_info->flipmode_x_offset;
 127:..\u8g2\csrc/u8x8_d_uc1608.c ****       }	
 128:..\u8g2\csrc/u8x8_d_uc1608.c ****       break;
 129:..\u8g2\csrc/u8x8_d_uc1608.c **** #ifdef U8X8_WITH_SET_CONTRAST
 130:..\u8g2\csrc/u8x8_d_uc1608.c ****     case U8X8_MSG_DISPLAY_SET_CONTRAST:
 131:..\u8g2\csrc/u8x8_d_uc1608.c ****       u8x8_cad_StartTransfer(u8x8);
 132:..\u8g2\csrc/u8x8_d_uc1608.c ****       u8x8_cad_SendCmd(u8x8, 0x081 );
 133:..\u8g2\csrc/u8x8_d_uc1608.c ****       u8x8_cad_SendArg(u8x8, arg_int  );	/* uc1608 has range from 0 to 255 */
 134:..\u8g2\csrc/u8x8_d_uc1608.c ****       u8x8_cad_EndTransfer(u8x8);
 135:..\u8g2\csrc/u8x8_d_uc1608.c ****       break;
 136:..\u8g2\csrc/u8x8_d_uc1608.c **** #endif
 137:..\u8g2\csrc/u8x8_d_uc1608.c ****     default:
 138:..\u8g2\csrc/u8x8_d_uc1608.c ****       return 0;
 139:..\u8g2\csrc/u8x8_d_uc1608.c ****   }
 140:..\u8g2\csrc/u8x8_d_uc1608.c ****   return 1;
 123              		.loc 1 140 0
 124 006e 0120     		movs	r0, #1
 101:..\u8g2\csrc/u8x8_d_uc1608.c ****       break;
 125              		.loc 1 101 0
 126 0070 F8BD     		pop	{r3, r4, r5, r6, r7, pc}
 127              	.LVL20:
 128              	.L3:
 112:..\u8g2\csrc/u8x8_d_uc1608.c **** 	u8x8_cad_SendSequence(u8x8, u8x8_d_uc1608_powersave0_seq);
 129              		.loc 1 112 0
 130 0072 22B9     		cbnz	r2, .L9
 113:..\u8g2\csrc/u8x8_d_uc1608.c ****       else
 131              		.loc 1 113 0
 132 0074 1649     		ldr	r1, .L13
 133 0076 FFF7FEFF 		bl	u8x8_cad_SendSequence
 134              	.LVL21:
 135              		.loc 1 140 0
 136 007a 0120     		movs	r0, #1
 137 007c F8BD     		pop	{r3, r4, r5, r6, r7, pc}
 138              	.LVL22:
 139              	.L9:
 115:..\u8g2\csrc/u8x8_d_uc1608.c ****       break;
 140              		.loc 1 115 0
 141 007e 1549     		ldr	r1, .L13+4
ARM GAS  C:\Users\brian\AppData\Local\Temp\ccNdV11D.s 			page 6


 142 0080 FFF7FEFF 		bl	u8x8_cad_SendSequence
 143              	.LVL23:
 144              		.loc 1 140 0
 145 0084 0120     		movs	r0, #1
 146 0086 F8BD     		pop	{r3, r4, r5, r6, r7, pc}
 147              	.LVL24:
 148              	.L5:
 118:..\u8g2\csrc/u8x8_d_uc1608.c ****       {
 149              		.loc 1 118 0
 150 0088 42B9     		cbnz	r2, .L10
 120:..\u8g2\csrc/u8x8_d_uc1608.c **** 	u8x8->x_offset = u8x8->display_info->default_x_offset;
 151              		.loc 1 120 0
 152 008a 1349     		ldr	r1, .L13+8
 153 008c FFF7FEFF 		bl	u8x8_cad_SendSequence
 154              	.LVL25:
 121:..\u8g2\csrc/u8x8_d_uc1608.c ****       }
 155              		.loc 1 121 0
 156 0090 2B68     		ldr	r3, [r5]
 157 0092 9B7C     		ldrb	r3, [r3, #18]	@ zero_extendqisi2
 158 0094 85F82230 		strb	r3, [r5, #34]
 159              		.loc 1 140 0
 160 0098 0120     		movs	r0, #1
 161 009a F8BD     		pop	{r3, r4, r5, r6, r7, pc}
 162              	.LVL26:
 163              	.L10:
 125:..\u8g2\csrc/u8x8_d_uc1608.c **** 	u8x8->x_offset = u8x8->display_info->flipmode_x_offset;
 164              		.loc 1 125 0
 165 009c 0F49     		ldr	r1, .L13+12
 166 009e FFF7FEFF 		bl	u8x8_cad_SendSequence
 167              	.LVL27:
 126:..\u8g2\csrc/u8x8_d_uc1608.c ****       }	
 168              		.loc 1 126 0
 169 00a2 2B68     		ldr	r3, [r5]
 170 00a4 DB7C     		ldrb	r3, [r3, #19]	@ zero_extendqisi2
 171 00a6 85F82230 		strb	r3, [r5, #34]
 172              		.loc 1 140 0
 173 00aa 0120     		movs	r0, #1
 174 00ac F8BD     		pop	{r3, r4, r5, r6, r7, pc}
 175              	.LVL28:
 176              	.L6:
 131:..\u8g2\csrc/u8x8_d_uc1608.c ****       u8x8_cad_SendCmd(u8x8, 0x081 );
 177              		.loc 1 131 0
 178 00ae FFF7FEFF 		bl	u8x8_cad_StartTransfer
 179              	.LVL29:
 132:..\u8g2\csrc/u8x8_d_uc1608.c ****       u8x8_cad_SendArg(u8x8, arg_int  );	/* uc1608 has range from 0 to 255 */
 180              		.loc 1 132 0
 181 00b2 8121     		movs	r1, #129
 182 00b4 2846     		mov	r0, r5
 183 00b6 FFF7FEFF 		bl	u8x8_cad_SendCmd
 184              	.LVL30:
 133:..\u8g2\csrc/u8x8_d_uc1608.c ****       u8x8_cad_EndTransfer(u8x8);
 185              		.loc 1 133 0
 186 00ba 2146     		mov	r1, r4
 187 00bc 2846     		mov	r0, r5
 188 00be FFF7FEFF 		bl	u8x8_cad_SendArg
 189              	.LVL31:
 134:..\u8g2\csrc/u8x8_d_uc1608.c ****       break;
ARM GAS  C:\Users\brian\AppData\Local\Temp\ccNdV11D.s 			page 7


 190              		.loc 1 134 0
 191 00c2 2846     		mov	r0, r5
 192 00c4 FFF7FEFF 		bl	u8x8_cad_EndTransfer
 193              	.LVL32:
 194              		.loc 1 140 0
 195 00c8 0120     		movs	r0, #1
 135:..\u8g2\csrc/u8x8_d_uc1608.c **** #endif
 196              		.loc 1 135 0
 197 00ca F8BD     		pop	{r3, r4, r5, r6, r7, pc}
 198              	.LVL33:
 199              	.L11:
 138:..\u8g2\csrc/u8x8_d_uc1608.c ****   }
 200              		.loc 1 138 0
 201 00cc 0020     		movs	r0, #0
 202              	.LVL34:
 141:..\u8g2\csrc/u8x8_d_uc1608.c **** }
 203              		.loc 1 141 0
 204 00ce F8BD     		pop	{r3, r4, r5, r6, r7, pc}
 205              	.LVL35:
 206              	.L14:
 207              		.align	2
 208              	.L13:
 209 00d0 00000000 		.word	.LANCHOR0
 210 00d4 08000000 		.word	.LANCHOR0+8
 211 00d8 10000000 		.word	.LANCHOR0+16
 212 00dc 18000000 		.word	.LANCHOR0+24
 213              		.cfi_endproc
 214              	.LFE0:
 215              		.size	u8x8_d_uc1608_common, .-u8x8_d_uc1608_common
 216              		.section	.text.u8x8_d_uc1608_erc24064,"ax",%progbits
 217              		.align	2
 218              		.global	u8x8_d_uc1608_erc24064
 219              		.thumb
 220              		.thumb_func
 221              		.type	u8x8_d_uc1608_erc24064, %function
 222              	u8x8_d_uc1608_erc24064:
 223              	.LFB1:
 142:..\u8g2\csrc/u8x8_d_uc1608.c **** 
 143:..\u8g2\csrc/u8x8_d_uc1608.c **** /*================================================*/
 144:..\u8g2\csrc/u8x8_d_uc1608.c **** /* ERC24064-1 */
 145:..\u8g2\csrc/u8x8_d_uc1608.c **** 
 146:..\u8g2\csrc/u8x8_d_uc1608.c **** /*
 147:..\u8g2\csrc/u8x8_d_uc1608.c ****   The UC1608 has only one high active chip select input.
 148:..\u8g2\csrc/u8x8_d_uc1608.c ****   UC1604, UC1610 and UC1611 have two chip select inputs.
 149:..\u8g2\csrc/u8x8_d_uc1608.c **** */
 150:..\u8g2\csrc/u8x8_d_uc1608.c **** 
 151:..\u8g2\csrc/u8x8_d_uc1608.c **** static const u8x8_display_info_t u8x8_uc1608_240x64_display_info =
 152:..\u8g2\csrc/u8x8_d_uc1608.c **** {
 153:..\u8g2\csrc/u8x8_d_uc1608.c ****   /* chip_enable_level = */ 1,	/* uc1608 has high active CS */
 154:..\u8g2\csrc/u8x8_d_uc1608.c ****   /* chip_disable_level = */ 0,
 155:..\u8g2\csrc/u8x8_d_uc1608.c ****   
 156:..\u8g2\csrc/u8x8_d_uc1608.c ****   /* post_chip_enable_wait_ns = */ 10,	/* uc1608 datasheet, page 39, actually 0 */
 157:..\u8g2\csrc/u8x8_d_uc1608.c ****   /* pre_chip_disable_wait_ns = */ 20,	/* uc1608 datasheet, page 39 */
 158:..\u8g2\csrc/u8x8_d_uc1608.c ****   /* reset_pulse_width_ms = */ 1, 	/* uc1608 datasheet, page 42 */
 159:..\u8g2\csrc/u8x8_d_uc1608.c ****   /* post_reset_wait_ms = */ 10, 	
 160:..\u8g2\csrc/u8x8_d_uc1608.c ****   /* sda_setup_time_ns = */ 30,		/* uc1608 datasheet, page 41 */
 161:..\u8g2\csrc/u8x8_d_uc1608.c ****   /* sck_pulse_width_ns = */ 65,	/* half of cycle time  */
ARM GAS  C:\Users\brian\AppData\Local\Temp\ccNdV11D.s 			page 8


 162:..\u8g2\csrc/u8x8_d_uc1608.c ****   /* sck_clock_hz = */ 8000000UL,	/* since Arduino 1.6.0, the SPI bus speed in Hz. Should be  10000
 163:..\u8g2\csrc/u8x8_d_uc1608.c ****   /* spi_mode = */ 0,		/* active high, rising edge */
 164:..\u8g2\csrc/u8x8_d_uc1608.c ****   /* i2c_bus_clock_100kHz = */ 4,
 165:..\u8g2\csrc/u8x8_d_uc1608.c ****   /* data_setup_time_ns = */ 30,	/* uc1608 datasheet, page 39 */
 166:..\u8g2\csrc/u8x8_d_uc1608.c ****   /* write_pulse_width_ns = */ 35,	/* uc1608 datasheet, page 39 */
 167:..\u8g2\csrc/u8x8_d_uc1608.c ****   /* tile_width = */ 30,		/* width of 30*8=240 pixel */
 168:..\u8g2\csrc/u8x8_d_uc1608.c ****   /* tile_hight = */ 8,
 169:..\u8g2\csrc/u8x8_d_uc1608.c ****   /* default_x_offset = */ 0,	/* reused as y page offset */
 170:..\u8g2\csrc/u8x8_d_uc1608.c ****   /* flipmode_x_offset = */ 4,	/* reused as y page offset */
 171:..\u8g2\csrc/u8x8_d_uc1608.c ****   /* pixel_width = */ 240,
 172:..\u8g2\csrc/u8x8_d_uc1608.c ****   /* pixel_height = */ 64
 173:..\u8g2\csrc/u8x8_d_uc1608.c **** };
 174:..\u8g2\csrc/u8x8_d_uc1608.c **** 
 175:..\u8g2\csrc/u8x8_d_uc1608.c **** static const uint8_t u8x8_d_uc1608_erc24064_init_seq[] = {
 176:..\u8g2\csrc/u8x8_d_uc1608.c ****     
 177:..\u8g2\csrc/u8x8_d_uc1608.c ****   U8X8_START_TRANSFER(),             	/* enable chip, delay is part of the transfer start */
 178:..\u8g2\csrc/u8x8_d_uc1608.c **** 
 179:..\u8g2\csrc/u8x8_d_uc1608.c ****   U8X8_C(0x0e2),            			/* soft reset */
 180:..\u8g2\csrc/u8x8_d_uc1608.c ****   U8X8_DLY(200),
 181:..\u8g2\csrc/u8x8_d_uc1608.c **** 
 182:..\u8g2\csrc/u8x8_d_uc1608.c ****   U8X8_C(0x023),            			/* Bit 0/1: Temp compenstation, Bit 2: Multiplex Rate 0=96, 1=128 */
 183:..\u8g2\csrc/u8x8_d_uc1608.c ****   //U8X8_C(0x027),            			/* Bit 0/1: Temp compenstation, Bit 2: Multiplex Rate 0=96, 1=128 
 184:..\u8g2\csrc/u8x8_d_uc1608.c **** 
 185:..\u8g2\csrc/u8x8_d_uc1608.c ****   U8X8_C(0x0c8),            			/* Map control, Bit 3: MY=1, Bit 2: MX=0, Bit 0: MSF =0 */
 186:..\u8g2\csrc/u8x8_d_uc1608.c ****   U8X8_C(0x0e8),            			/* LCD bias Bits 0/1: 00=10.7 01=10.3, 10=12.0, 11=12.7 */
 187:..\u8g2\csrc/u8x8_d_uc1608.c ****   
 188:..\u8g2\csrc/u8x8_d_uc1608.c ****   U8X8_C(0x02f),            			/* power on, Bit 2 PC2=1 (internal charge pump), Bits 0/1: cap of pa
 189:..\u8g2\csrc/u8x8_d_uc1608.c ****   U8X8_DLY(50),
 190:..\u8g2\csrc/u8x8_d_uc1608.c ****   
 191:..\u8g2\csrc/u8x8_d_uc1608.c ****   U8X8_C(0x040),            			/* set display start line to 0 */
 192:..\u8g2\csrc/u8x8_d_uc1608.c ****   U8X8_C(0x090),            			/* no fixed lines */
 193:..\u8g2\csrc/u8x8_d_uc1608.c ****   U8X8_C(0x089),            			/* RAM access control */
 194:..\u8g2\csrc/u8x8_d_uc1608.c ****   
 195:..\u8g2\csrc/u8x8_d_uc1608.c ****   U8X8_CA(0x081, 0x014),		/* set contrast, ERC24064-1 default: 0x040 */
 196:..\u8g2\csrc/u8x8_d_uc1608.c ****   
 197:..\u8g2\csrc/u8x8_d_uc1608.c ****   U8X8_C(0x000),		                /* column low nibble */
 198:..\u8g2\csrc/u8x8_d_uc1608.c ****   U8X8_C(0x010),		                /* column high nibble */  
 199:..\u8g2\csrc/u8x8_d_uc1608.c ****   U8X8_C(0x0b0),		                /* page adr  */
 200:..\u8g2\csrc/u8x8_d_uc1608.c ****   
 201:..\u8g2\csrc/u8x8_d_uc1608.c ****   
 202:..\u8g2\csrc/u8x8_d_uc1608.c ****   U8X8_END_TRANSFER(),             	/* disable chip */
 203:..\u8g2\csrc/u8x8_d_uc1608.c ****   U8X8_END()             			/* end of sequence */
 204:..\u8g2\csrc/u8x8_d_uc1608.c **** };
 205:..\u8g2\csrc/u8x8_d_uc1608.c **** 
 206:..\u8g2\csrc/u8x8_d_uc1608.c **** uint8_t u8x8_d_uc1608_erc24064(u8x8_t *u8x8, uint8_t msg, uint8_t arg_int, void *arg_ptr)
 207:..\u8g2\csrc/u8x8_d_uc1608.c **** {
 224              		.loc 1 207 0
 225              		.cfi_startproc
 226              		@ args = 0, pretend = 0, frame = 0
 227              		@ frame_needed = 0, uses_anonymous_args = 0
 228              	.LVL36:
 229 0000 38B5     		push	{r3, r4, r5, lr}
 230              		.cfi_def_cfa_offset 16
 231              		.cfi_offset 3, -16
 232              		.cfi_offset 4, -12
 233              		.cfi_offset 5, -8
 234              		.cfi_offset 14, -4
ARM GAS  C:\Users\brian\AppData\Local\Temp\ccNdV11D.s 			page 9


 235 0002 0546     		mov	r5, r0
 236 0004 0C46     		mov	r4, r1
 208:..\u8g2\csrc/u8x8_d_uc1608.c ****   /* call common procedure first and handle messages there */
 209:..\u8g2\csrc/u8x8_d_uc1608.c ****   if ( u8x8_d_uc1608_common(u8x8, msg, arg_int, arg_ptr) == 0 )
 237              		.loc 1 209 0
 238 0006 FFF7FEFF 		bl	u8x8_d_uc1608_common
 239              	.LVL37:
 240 000a A0B9     		cbnz	r0, .L19
 241 000c 0346     		mov	r3, r0
 210:..\u8g2\csrc/u8x8_d_uc1608.c ****   {
 211:..\u8g2\csrc/u8x8_d_uc1608.c ****     /* msg not handled, then try here */
 212:..\u8g2\csrc/u8x8_d_uc1608.c ****     switch(msg)
 242              		.loc 1 212 0
 243 000e 092C     		cmp	r4, #9
 244 0010 02D0     		beq	.L17
 245 0012 0A2C     		cmp	r4, #10
 246 0014 06D0     		beq	.L18
 247 0016 0FE0     		b	.L16
 248              	.L17:
 213:..\u8g2\csrc/u8x8_d_uc1608.c ****     {
 214:..\u8g2\csrc/u8x8_d_uc1608.c ****       case U8X8_MSG_DISPLAY_SETUP_MEMORY:
 215:..\u8g2\csrc/u8x8_d_uc1608.c **** 	u8x8_d_helper_display_setup_memory(u8x8, &u8x8_uc1608_240x64_display_info);
 249              		.loc 1 215 0
 250 0018 0849     		ldr	r1, .L21
 251 001a 2846     		mov	r0, r5
 252 001c FFF7FEFF 		bl	u8x8_d_helper_display_setup_memory
 253              	.LVL38:
 216:..\u8g2\csrc/u8x8_d_uc1608.c **** 	break;
 217:..\u8g2\csrc/u8x8_d_uc1608.c ****       case U8X8_MSG_DISPLAY_INIT:
 218:..\u8g2\csrc/u8x8_d_uc1608.c **** 	u8x8_d_helper_display_init(u8x8);
 219:..\u8g2\csrc/u8x8_d_uc1608.c **** 	u8x8_cad_SendSequence(u8x8, u8x8_d_uc1608_erc24064_init_seq);
 220:..\u8g2\csrc/u8x8_d_uc1608.c **** 	break;
 221:..\u8g2\csrc/u8x8_d_uc1608.c ****       default:
 222:..\u8g2\csrc/u8x8_d_uc1608.c **** 	return 0;		/* msg unknown */
 223:..\u8g2\csrc/u8x8_d_uc1608.c ****     }
 224:..\u8g2\csrc/u8x8_d_uc1608.c ****   }
 225:..\u8g2\csrc/u8x8_d_uc1608.c ****   return 1;
 254              		.loc 1 225 0
 255 0020 0123     		movs	r3, #1
 216:..\u8g2\csrc/u8x8_d_uc1608.c **** 	break;
 256              		.loc 1 216 0
 257 0022 09E0     		b	.L16
 258              	.L18:
 218:..\u8g2\csrc/u8x8_d_uc1608.c **** 	u8x8_cad_SendSequence(u8x8, u8x8_d_uc1608_erc24064_init_seq);
 259              		.loc 1 218 0
 260 0024 2846     		mov	r0, r5
 261 0026 FFF7FEFF 		bl	u8x8_d_helper_display_init
 262              	.LVL39:
 219:..\u8g2\csrc/u8x8_d_uc1608.c **** 	break;
 263              		.loc 1 219 0
 264 002a 0549     		ldr	r1, .L21+4
 265 002c 2846     		mov	r0, r5
 266 002e FFF7FEFF 		bl	u8x8_cad_SendSequence
 267              	.LVL40:
 268              		.loc 1 225 0
 269 0032 0123     		movs	r3, #1
 220:..\u8g2\csrc/u8x8_d_uc1608.c ****       default:
ARM GAS  C:\Users\brian\AppData\Local\Temp\ccNdV11D.s 			page 10


 270              		.loc 1 220 0
 271 0034 00E0     		b	.L16
 272              	.L19:
 273              		.loc 1 225 0
 274 0036 0123     		movs	r3, #1
 275              	.L16:
 226:..\u8g2\csrc/u8x8_d_uc1608.c **** }
 276              		.loc 1 226 0
 277 0038 1846     		mov	r0, r3
 278 003a 38BD     		pop	{r3, r4, r5, pc}
 279              	.LVL41:
 280              	.L22:
 281              		.align	2
 282              	.L21:
 283 003c 20000000 		.word	.LANCHOR0+32
 284 0040 38000000 		.word	.LANCHOR0+56
 285              		.cfi_endproc
 286              	.LFE1:
 287              		.size	u8x8_d_uc1608_erc24064, .-u8x8_d_uc1608_erc24064
 288              		.section	.text.u8x8_d_uc1608_240x128,"ax",%progbits
 289              		.align	2
 290              		.global	u8x8_d_uc1608_240x128
 291              		.thumb
 292              		.thumb_func
 293              		.type	u8x8_d_uc1608_240x128, %function
 294              	u8x8_d_uc1608_240x128:
 295              	.LFB2:
 227:..\u8g2\csrc/u8x8_d_uc1608.c **** 
 228:..\u8g2\csrc/u8x8_d_uc1608.c **** 
 229:..\u8g2\csrc/u8x8_d_uc1608.c **** /*================================================*/
 230:..\u8g2\csrc/u8x8_d_uc1608.c **** /* experimental implementation for the uc1608 240x128, not referenced in codebuild */
 231:..\u8g2\csrc/u8x8_d_uc1608.c **** 
 232:..\u8g2\csrc/u8x8_d_uc1608.c **** static const u8x8_display_info_t u8x8_uc1608_240x128_display_info =
 233:..\u8g2\csrc/u8x8_d_uc1608.c **** {
 234:..\u8g2\csrc/u8x8_d_uc1608.c ****   /* chip_enable_level = */ 1,	/* uc1608 has high active CS */
 235:..\u8g2\csrc/u8x8_d_uc1608.c ****   /* chip_disable_level = */ 0,
 236:..\u8g2\csrc/u8x8_d_uc1608.c ****   
 237:..\u8g2\csrc/u8x8_d_uc1608.c ****   /* post_chip_enable_wait_ns = */ 10,	/* uc1608 datasheet, page 39, actually 0 */
 238:..\u8g2\csrc/u8x8_d_uc1608.c ****   /* pre_chip_disable_wait_ns = */ 20,	/* uc1608 datasheet, page 39 */
 239:..\u8g2\csrc/u8x8_d_uc1608.c ****   /* reset_pulse_width_ms = */ 1, 	/* uc1608 datasheet, page 42 */
 240:..\u8g2\csrc/u8x8_d_uc1608.c ****   /* post_reset_wait_ms = */ 10, 	
 241:..\u8g2\csrc/u8x8_d_uc1608.c ****   /* sda_setup_time_ns = */ 30,		/* uc1608 datasheet, page 41 */
 242:..\u8g2\csrc/u8x8_d_uc1608.c ****   /* sck_pulse_width_ns = */ 65,	/* half of cycle time  */
 243:..\u8g2\csrc/u8x8_d_uc1608.c ****   /* sck_clock_hz = */ 8000000UL,	/* since Arduino 1.6.0, the SPI bus speed in Hz. Should be  10000
 244:..\u8g2\csrc/u8x8_d_uc1608.c ****   /* spi_mode = */ 0,		/* active high, rising edge */
 245:..\u8g2\csrc/u8x8_d_uc1608.c ****   /* i2c_bus_clock_100kHz = */ 4,
 246:..\u8g2\csrc/u8x8_d_uc1608.c ****   /* data_setup_time_ns = */ 30,	/* uc1608 datasheet, page 39 */
 247:..\u8g2\csrc/u8x8_d_uc1608.c ****   /* write_pulse_width_ns = */ 35,	/* uc1608 datasheet, page 39 */
 248:..\u8g2\csrc/u8x8_d_uc1608.c ****   /* tile_width = */ 30,		/* width of 30*8=240 pixel */
 249:..\u8g2\csrc/u8x8_d_uc1608.c ****   /* tile_hight = */ 16,
 250:..\u8g2\csrc/u8x8_d_uc1608.c ****   /* default_x_offset = */ 0,	/* reused as y page offset */
 251:..\u8g2\csrc/u8x8_d_uc1608.c ****   /* flipmode_x_offset = */ 0,	/* reused as y page offset */
 252:..\u8g2\csrc/u8x8_d_uc1608.c ****   /* pixel_width = */ 240,
 253:..\u8g2\csrc/u8x8_d_uc1608.c ****   /* pixel_height = */ 128
 254:..\u8g2\csrc/u8x8_d_uc1608.c **** };
 255:..\u8g2\csrc/u8x8_d_uc1608.c **** 
 256:..\u8g2\csrc/u8x8_d_uc1608.c **** static const uint8_t u8x8_d_uc1608_240x128_init_seq[] = {
ARM GAS  C:\Users\brian\AppData\Local\Temp\ccNdV11D.s 			page 11


 257:..\u8g2\csrc/u8x8_d_uc1608.c ****     
 258:..\u8g2\csrc/u8x8_d_uc1608.c ****   U8X8_START_TRANSFER(),             	/* enable chip, delay is part of the transfer start */
 259:..\u8g2\csrc/u8x8_d_uc1608.c **** 
 260:..\u8g2\csrc/u8x8_d_uc1608.c ****   U8X8_C(0x0e2),            			/* soft reset */
 261:..\u8g2\csrc/u8x8_d_uc1608.c ****   U8X8_DLY(200),
 262:..\u8g2\csrc/u8x8_d_uc1608.c **** 
 263:..\u8g2\csrc/u8x8_d_uc1608.c ****   //U8X8_C(0x023),            			/* Bit 0/1: Temp compenstation, Bit 2: Multiplex Rate 0=96, 1=128 
 264:..\u8g2\csrc/u8x8_d_uc1608.c ****   U8X8_C(0x026),            			/* Bit 0/1: Temp compenstation, Bit 2: Multiplex Rate 0=96, 1=128 */
 265:..\u8g2\csrc/u8x8_d_uc1608.c **** 
 266:..\u8g2\csrc/u8x8_d_uc1608.c ****   U8X8_C(0x0c8),            			/* Map control, Bit 3: MY=1, Bit 2: MX=0, Bit 0: MSF =0 */
 267:..\u8g2\csrc/u8x8_d_uc1608.c ****   U8X8_C(0x0ea),            			/* LCD bias Bits 0/1: 00=10.7 01=10.3, 10=12.0, 11=12.7 */
 268:..\u8g2\csrc/u8x8_d_uc1608.c **** 							/* maybe 0x0eb??? */
 269:..\u8g2\csrc/u8x8_d_uc1608.c ****   
 270:..\u8g2\csrc/u8x8_d_uc1608.c ****   U8X8_C(0x02f),            			/* power on, Bit 2 PC2=1 (internal charge pump), Bits 0/1: cap of pa
 271:..\u8g2\csrc/u8x8_d_uc1608.c ****   U8X8_DLY(50),
 272:..\u8g2\csrc/u8x8_d_uc1608.c ****   
 273:..\u8g2\csrc/u8x8_d_uc1608.c ****   U8X8_C(0x040),            			/* set display start line to 0 */
 274:..\u8g2\csrc/u8x8_d_uc1608.c ****   U8X8_C(0x090),            			/* no fixed lines */
 275:..\u8g2\csrc/u8x8_d_uc1608.c ****   U8X8_C(0x089),            			/* RAM access control */
 276:..\u8g2\csrc/u8x8_d_uc1608.c ****   
 277:..\u8g2\csrc/u8x8_d_uc1608.c ****   U8X8_CA(0x081, 0x072),		/* set contrast  */
 278:..\u8g2\csrc/u8x8_d_uc1608.c ****   
 279:..\u8g2\csrc/u8x8_d_uc1608.c ****   U8X8_C(0x000),		                /* column low nibble */
 280:..\u8g2\csrc/u8x8_d_uc1608.c ****   U8X8_C(0x010),		                /* column high nibble */  
 281:..\u8g2\csrc/u8x8_d_uc1608.c ****   U8X8_C(0x0b0),		                /* page adr  */
 282:..\u8g2\csrc/u8x8_d_uc1608.c ****   
 283:..\u8g2\csrc/u8x8_d_uc1608.c ****   
 284:..\u8g2\csrc/u8x8_d_uc1608.c ****   U8X8_END_TRANSFER(),             	/* disable chip */
 285:..\u8g2\csrc/u8x8_d_uc1608.c ****   U8X8_END()             			/* end of sequence */
 286:..\u8g2\csrc/u8x8_d_uc1608.c **** };
 287:..\u8g2\csrc/u8x8_d_uc1608.c **** 
 288:..\u8g2\csrc/u8x8_d_uc1608.c **** uint8_t u8x8_d_uc1608_240x128(u8x8_t *u8x8, uint8_t msg, uint8_t arg_int, void *arg_ptr)
 289:..\u8g2\csrc/u8x8_d_uc1608.c **** {
 296              		.loc 1 289 0
 297              		.cfi_startproc
 298              		@ args = 0, pretend = 0, frame = 0
 299              		@ frame_needed = 0, uses_anonymous_args = 0
 300              	.LVL42:
 301 0000 38B5     		push	{r3, r4, r5, lr}
 302              		.cfi_def_cfa_offset 16
 303              		.cfi_offset 3, -16
 304              		.cfi_offset 4, -12
 305              		.cfi_offset 5, -8
 306              		.cfi_offset 14, -4
 307 0002 0546     		mov	r5, r0
 308 0004 0C46     		mov	r4, r1
 290:..\u8g2\csrc/u8x8_d_uc1608.c ****   /* call common procedure first and handle messages there */
 291:..\u8g2\csrc/u8x8_d_uc1608.c ****   if ( u8x8_d_uc1608_common(u8x8, msg, arg_int, arg_ptr) == 0 )
 309              		.loc 1 291 0
 310 0006 FFF7FEFF 		bl	u8x8_d_uc1608_common
 311              	.LVL43:
 312 000a A0B9     		cbnz	r0, .L27
 313 000c 0346     		mov	r3, r0
 292:..\u8g2\csrc/u8x8_d_uc1608.c ****   {
 293:..\u8g2\csrc/u8x8_d_uc1608.c ****     /* msg not handled, then try here */
 294:..\u8g2\csrc/u8x8_d_uc1608.c ****     switch(msg)
 314              		.loc 1 294 0
ARM GAS  C:\Users\brian\AppData\Local\Temp\ccNdV11D.s 			page 12


 315 000e 092C     		cmp	r4, #9
 316 0010 02D0     		beq	.L25
 317 0012 0A2C     		cmp	r4, #10
 318 0014 06D0     		beq	.L26
 319 0016 0FE0     		b	.L24
 320              	.L25:
 295:..\u8g2\csrc/u8x8_d_uc1608.c ****     {
 296:..\u8g2\csrc/u8x8_d_uc1608.c ****       case U8X8_MSG_DISPLAY_SETUP_MEMORY:
 297:..\u8g2\csrc/u8x8_d_uc1608.c **** 	u8x8_d_helper_display_setup_memory(u8x8, &u8x8_uc1608_240x128_display_info);
 321              		.loc 1 297 0
 322 0018 0849     		ldr	r1, .L29
 323 001a 2846     		mov	r0, r5
 324 001c FFF7FEFF 		bl	u8x8_d_helper_display_setup_memory
 325              	.LVL44:
 298:..\u8g2\csrc/u8x8_d_uc1608.c **** 	break;
 299:..\u8g2\csrc/u8x8_d_uc1608.c ****       case U8X8_MSG_DISPLAY_INIT:
 300:..\u8g2\csrc/u8x8_d_uc1608.c **** 	u8x8_d_helper_display_init(u8x8);
 301:..\u8g2\csrc/u8x8_d_uc1608.c **** 	u8x8_cad_SendSequence(u8x8, u8x8_d_uc1608_240x128_init_seq);
 302:..\u8g2\csrc/u8x8_d_uc1608.c **** 	break;
 303:..\u8g2\csrc/u8x8_d_uc1608.c ****       default:
 304:..\u8g2\csrc/u8x8_d_uc1608.c **** 	return 0;		/* msg unknown */
 305:..\u8g2\csrc/u8x8_d_uc1608.c ****     }
 306:..\u8g2\csrc/u8x8_d_uc1608.c ****   }
 307:..\u8g2\csrc/u8x8_d_uc1608.c ****   return 1;
 326              		.loc 1 307 0
 327 0020 0123     		movs	r3, #1
 298:..\u8g2\csrc/u8x8_d_uc1608.c **** 	break;
 328              		.loc 1 298 0
 329 0022 09E0     		b	.L24
 330              	.L26:
 300:..\u8g2\csrc/u8x8_d_uc1608.c **** 	u8x8_cad_SendSequence(u8x8, u8x8_d_uc1608_240x128_init_seq);
 331              		.loc 1 300 0
 332 0024 2846     		mov	r0, r5
 333 0026 FFF7FEFF 		bl	u8x8_d_helper_display_init
 334              	.LVL45:
 301:..\u8g2\csrc/u8x8_d_uc1608.c **** 	break;
 335              		.loc 1 301 0
 336 002a 0549     		ldr	r1, .L29+4
 337 002c 2846     		mov	r0, r5
 338 002e FFF7FEFF 		bl	u8x8_cad_SendSequence
 339              	.LVL46:
 340              		.loc 1 307 0
 341 0032 0123     		movs	r3, #1
 302:..\u8g2\csrc/u8x8_d_uc1608.c ****       default:
 342              		.loc 1 302 0
 343 0034 00E0     		b	.L24
 344              	.L27:
 345              		.loc 1 307 0
 346 0036 0123     		movs	r3, #1
 347              	.L24:
 308:..\u8g2\csrc/u8x8_d_uc1608.c **** }
 348              		.loc 1 308 0
 349 0038 1846     		mov	r0, r3
 350 003a 38BD     		pop	{r3, r4, r5, pc}
 351              	.LVL47:
 352              	.L30:
 353              		.align	2
ARM GAS  C:\Users\brian\AppData\Local\Temp\ccNdV11D.s 			page 13


 354              	.L29:
 355 003c 5C000000 		.word	.LANCHOR0+92
 356 0040 74000000 		.word	.LANCHOR0+116
 357              		.cfi_endproc
 358              	.LFE2:
 359              		.size	u8x8_d_uc1608_240x128, .-u8x8_d_uc1608_240x128
 360              		.section	.text.u8x8_d_uc1608_erc240120,"ax",%progbits
 361              		.align	2
 362              		.global	u8x8_d_uc1608_erc240120
 363              		.thumb
 364              		.thumb_func
 365              		.type	u8x8_d_uc1608_erc240120, %function
 366              	u8x8_d_uc1608_erc240120:
 367              	.LFB3:
 309:..\u8g2\csrc/u8x8_d_uc1608.c **** 
 310:..\u8g2\csrc/u8x8_d_uc1608.c **** /*================================================*/
 311:..\u8g2\csrc/u8x8_d_uc1608.c **** /* experimental implementation for the uc1608 erc240x120 */
 312:..\u8g2\csrc/u8x8_d_uc1608.c **** 
 313:..\u8g2\csrc/u8x8_d_uc1608.c **** static const u8x8_display_info_t u8x8_uc1608_erc240120_display_info =
 314:..\u8g2\csrc/u8x8_d_uc1608.c **** {
 315:..\u8g2\csrc/u8x8_d_uc1608.c ****   /* chip_enable_level = */ 1,	/* uc1608 has high active CS */
 316:..\u8g2\csrc/u8x8_d_uc1608.c ****   /* chip_disable_level = */ 0,
 317:..\u8g2\csrc/u8x8_d_uc1608.c ****   
 318:..\u8g2\csrc/u8x8_d_uc1608.c ****   /* post_chip_enable_wait_ns = */ 10,	/* uc1608 datasheet, page 39, actually 0 */
 319:..\u8g2\csrc/u8x8_d_uc1608.c ****   /* pre_chip_disable_wait_ns = */ 20,	/* uc1608 datasheet, page 39 */
 320:..\u8g2\csrc/u8x8_d_uc1608.c ****   /* reset_pulse_width_ms = */ 1, 	/* uc1608 datasheet, page 42 */
 321:..\u8g2\csrc/u8x8_d_uc1608.c ****   /* post_reset_wait_ms = */ 10, 	
 322:..\u8g2\csrc/u8x8_d_uc1608.c ****   /* sda_setup_time_ns = */ 30,		/* uc1608 datasheet, page 41 */
 323:..\u8g2\csrc/u8x8_d_uc1608.c ****   /* sck_pulse_width_ns = */ 65,	/* half of cycle time  */
 324:..\u8g2\csrc/u8x8_d_uc1608.c ****   /* sck_clock_hz = */ 8000000UL,	/* since Arduino 1.6.0, the SPI bus speed in Hz. Should be  10000
 325:..\u8g2\csrc/u8x8_d_uc1608.c ****   /* spi_mode = */ 0,		/* active high, rising edge */
 326:..\u8g2\csrc/u8x8_d_uc1608.c ****   /* i2c_bus_clock_100kHz = */ 4,
 327:..\u8g2\csrc/u8x8_d_uc1608.c ****   /* data_setup_time_ns = */ 30,	/* uc1608 datasheet, page 39 */
 328:..\u8g2\csrc/u8x8_d_uc1608.c ****   /* write_pulse_width_ns = */ 35,	/* uc1608 datasheet, page 39 */
 329:..\u8g2\csrc/u8x8_d_uc1608.c ****   /* tile_width = */ 30,		/* width of 30*8=240 pixel */
 330:..\u8g2\csrc/u8x8_d_uc1608.c ****   /* tile_hight = */ 15,
 331:..\u8g2\csrc/u8x8_d_uc1608.c ****   /* default_x_offset = */ 1,	/* reused as y page offset */
 332:..\u8g2\csrc/u8x8_d_uc1608.c ****   /* flipmode_x_offset = */ 0,	/* reused as y page offset */
 333:..\u8g2\csrc/u8x8_d_uc1608.c ****   /* pixel_width = */ 240,
 334:..\u8g2\csrc/u8x8_d_uc1608.c ****   /* pixel_height = */ 120
 335:..\u8g2\csrc/u8x8_d_uc1608.c **** };
 336:..\u8g2\csrc/u8x8_d_uc1608.c **** 
 337:..\u8g2\csrc/u8x8_d_uc1608.c **** /* http://www.buydisplay.com/download/democode/ERC240120-1_DemoCode.txt */
 338:..\u8g2\csrc/u8x8_d_uc1608.c **** static const uint8_t u8x8_d_uc1608_erc240120_init_seq[] = {
 339:..\u8g2\csrc/u8x8_d_uc1608.c ****     
 340:..\u8g2\csrc/u8x8_d_uc1608.c ****   U8X8_START_TRANSFER(),             	/* enable chip, delay is part of the transfer start */
 341:..\u8g2\csrc/u8x8_d_uc1608.c **** 
 342:..\u8g2\csrc/u8x8_d_uc1608.c ****   U8X8_C(0x0e2),            			/* soft reset */
 343:..\u8g2\csrc/u8x8_d_uc1608.c ****   U8X8_DLY(200),
 344:..\u8g2\csrc/u8x8_d_uc1608.c **** 
 345:..\u8g2\csrc/u8x8_d_uc1608.c ****   //U8X8_C(0x023),            			/* Bit 0/1: Temp compenstation, Bit 2: Multiplex Rate 0=96, 1=128 
 346:..\u8g2\csrc/u8x8_d_uc1608.c ****   U8X8_C(0x026),            			/* Bit 0/1: Temp compenstation, Bit 2: Multiplex Rate 0=96, 1=128 */
 347:..\u8g2\csrc/u8x8_d_uc1608.c **** 
 348:..\u8g2\csrc/u8x8_d_uc1608.c ****   U8X8_C(0x0c8),            			/* Map control, Bit 3: MY=1, Bit 2: MX=0, Bit 0: MSF =0 */
 349:..\u8g2\csrc/u8x8_d_uc1608.c ****   U8X8_C(0x0ea),            			/* LCD bias Bits 0/1: 00=10.7 01=10.3, 10=12.0, 11=12.7 */
 350:..\u8g2\csrc/u8x8_d_uc1608.c **** 							/* according to DemoCode.txt */
 351:..\u8g2\csrc/u8x8_d_uc1608.c ****   
ARM GAS  C:\Users\brian\AppData\Local\Temp\ccNdV11D.s 			page 14


 352:..\u8g2\csrc/u8x8_d_uc1608.c ****   U8X8_C(0x02f),            			/* power on, Bit 2 PC2=1 (internal charge pump), Bits 0/1: cap of pa
 353:..\u8g2\csrc/u8x8_d_uc1608.c ****   U8X8_DLY(50),
 354:..\u8g2\csrc/u8x8_d_uc1608.c ****   
 355:..\u8g2\csrc/u8x8_d_uc1608.c ****   U8X8_C(0x040),            			/* set display start line to 0 */
 356:..\u8g2\csrc/u8x8_d_uc1608.c ****   U8X8_C(0x090),            			/* no fixed lines */
 357:..\u8g2\csrc/u8x8_d_uc1608.c ****   U8X8_C(0x089),            			/* RAM access control */
 358:..\u8g2\csrc/u8x8_d_uc1608.c ****   
 359:..\u8g2\csrc/u8x8_d_uc1608.c ****   //U8X8_CA(0x081, 46),			/* set contrast, 46 according to  DemoCode.txt */
 360:..\u8g2\csrc/u8x8_d_uc1608.c ****   U8X8_CA(0x081, 80),			/* */
 361:..\u8g2\csrc/u8x8_d_uc1608.c ****   
 362:..\u8g2\csrc/u8x8_d_uc1608.c ****   U8X8_C(0x000),		                /* column low nibble */
 363:..\u8g2\csrc/u8x8_d_uc1608.c ****   U8X8_C(0x010),		                /* column high nibble */  
 364:..\u8g2\csrc/u8x8_d_uc1608.c ****   U8X8_C(0x0b0),		                /* page adr  */
 365:..\u8g2\csrc/u8x8_d_uc1608.c ****   
 366:..\u8g2\csrc/u8x8_d_uc1608.c ****   
 367:..\u8g2\csrc/u8x8_d_uc1608.c ****   U8X8_END_TRANSFER(),             	/* disable chip */
 368:..\u8g2\csrc/u8x8_d_uc1608.c ****   U8X8_END()             			/* end of sequence */
 369:..\u8g2\csrc/u8x8_d_uc1608.c **** };
 370:..\u8g2\csrc/u8x8_d_uc1608.c **** 
 371:..\u8g2\csrc/u8x8_d_uc1608.c **** uint8_t u8x8_d_uc1608_erc240120(u8x8_t *u8x8, uint8_t msg, uint8_t arg_int, void *arg_ptr)
 372:..\u8g2\csrc/u8x8_d_uc1608.c **** {
 368              		.loc 1 372 0
 369              		.cfi_startproc
 370              		@ args = 0, pretend = 0, frame = 0
 371              		@ frame_needed = 0, uses_anonymous_args = 0
 372              	.LVL48:
 373 0000 38B5     		push	{r3, r4, r5, lr}
 374              		.cfi_def_cfa_offset 16
 375              		.cfi_offset 3, -16
 376              		.cfi_offset 4, -12
 377              		.cfi_offset 5, -8
 378              		.cfi_offset 14, -4
 379 0002 0546     		mov	r5, r0
 380 0004 0C46     		mov	r4, r1
 373:..\u8g2\csrc/u8x8_d_uc1608.c ****   /* call common procedure first and handle messages there */
 374:..\u8g2\csrc/u8x8_d_uc1608.c ****   if ( u8x8_d_uc1608_common(u8x8, msg, arg_int, arg_ptr) == 0 )
 381              		.loc 1 374 0
 382 0006 FFF7FEFF 		bl	u8x8_d_uc1608_common
 383              	.LVL49:
 384 000a A0B9     		cbnz	r0, .L35
 385 000c 0346     		mov	r3, r0
 375:..\u8g2\csrc/u8x8_d_uc1608.c ****   {
 376:..\u8g2\csrc/u8x8_d_uc1608.c ****     /* msg not handled, then try here */
 377:..\u8g2\csrc/u8x8_d_uc1608.c ****     switch(msg)
 386              		.loc 1 377 0
 387 000e 092C     		cmp	r4, #9
 388 0010 02D0     		beq	.L33
 389 0012 0A2C     		cmp	r4, #10
 390 0014 06D0     		beq	.L34
 391 0016 0FE0     		b	.L32
 392              	.L33:
 378:..\u8g2\csrc/u8x8_d_uc1608.c ****     {
 379:..\u8g2\csrc/u8x8_d_uc1608.c ****       case U8X8_MSG_DISPLAY_SETUP_MEMORY:
 380:..\u8g2\csrc/u8x8_d_uc1608.c **** 	u8x8_d_helper_display_setup_memory(u8x8, &u8x8_uc1608_erc240120_display_info);
 393              		.loc 1 380 0
 394 0018 0849     		ldr	r1, .L37
 395 001a 2846     		mov	r0, r5
ARM GAS  C:\Users\brian\AppData\Local\Temp\ccNdV11D.s 			page 15


 396 001c FFF7FEFF 		bl	u8x8_d_helper_display_setup_memory
 397              	.LVL50:
 381:..\u8g2\csrc/u8x8_d_uc1608.c **** 	break;
 382:..\u8g2\csrc/u8x8_d_uc1608.c ****       case U8X8_MSG_DISPLAY_INIT:
 383:..\u8g2\csrc/u8x8_d_uc1608.c **** 	u8x8_d_helper_display_init(u8x8);
 384:..\u8g2\csrc/u8x8_d_uc1608.c **** 	u8x8_cad_SendSequence(u8x8, u8x8_d_uc1608_erc240120_init_seq);
 385:..\u8g2\csrc/u8x8_d_uc1608.c **** 	break;
 386:..\u8g2\csrc/u8x8_d_uc1608.c ****       default:
 387:..\u8g2\csrc/u8x8_d_uc1608.c **** 	return 0;		/* msg unknown */
 388:..\u8g2\csrc/u8x8_d_uc1608.c ****     }
 389:..\u8g2\csrc/u8x8_d_uc1608.c ****   }
 390:..\u8g2\csrc/u8x8_d_uc1608.c ****   return 1;
 398              		.loc 1 390 0
 399 0020 0123     		movs	r3, #1
 381:..\u8g2\csrc/u8x8_d_uc1608.c **** 	break;
 400              		.loc 1 381 0
 401 0022 09E0     		b	.L32
 402              	.L34:
 383:..\u8g2\csrc/u8x8_d_uc1608.c **** 	u8x8_cad_SendSequence(u8x8, u8x8_d_uc1608_erc240120_init_seq);
 403              		.loc 1 383 0
 404 0024 2846     		mov	r0, r5
 405 0026 FFF7FEFF 		bl	u8x8_d_helper_display_init
 406              	.LVL51:
 384:..\u8g2\csrc/u8x8_d_uc1608.c **** 	break;
 407              		.loc 1 384 0
 408 002a 0549     		ldr	r1, .L37+4
 409 002c 2846     		mov	r0, r5
 410 002e FFF7FEFF 		bl	u8x8_cad_SendSequence
 411              	.LVL52:
 412              		.loc 1 390 0
 413 0032 0123     		movs	r3, #1
 385:..\u8g2\csrc/u8x8_d_uc1608.c ****       default:
 414              		.loc 1 385 0
 415 0034 00E0     		b	.L32
 416              	.L35:
 417              		.loc 1 390 0
 418 0036 0123     		movs	r3, #1
 419              	.L32:
 391:..\u8g2\csrc/u8x8_d_uc1608.c **** }
 420              		.loc 1 391 0
 421 0038 1846     		mov	r0, r3
 422 003a 38BD     		pop	{r3, r4, r5, pc}
 423              	.LVL53:
 424              	.L38:
 425              		.align	2
 426              	.L37:
 427 003c 98000000 		.word	.LANCHOR0+152
 428 0040 B0000000 		.word	.LANCHOR0+176
 429              		.cfi_endproc
 430              	.LFE3:
 431              		.size	u8x8_d_uc1608_erc240120, .-u8x8_d_uc1608_erc240120
 432              		.section	.text.u8x8_d_uc1608_dem240064,"ax",%progbits
 433              		.align	2
 434              		.global	u8x8_d_uc1608_dem240064
 435              		.thumb
 436              		.thumb_func
 437              		.type	u8x8_d_uc1608_dem240064, %function
ARM GAS  C:\Users\brian\AppData\Local\Temp\ccNdV11D.s 			page 16


 438              	u8x8_d_uc1608_dem240064:
 439              	.LFB4:
 392:..\u8g2\csrc/u8x8_d_uc1608.c **** 
 393:..\u8g2\csrc/u8x8_d_uc1608.c **** /*================================================*/
 394:..\u8g2\csrc/u8x8_d_uc1608.c **** /* DEM 240064, issue 1164 */
 395:..\u8g2\csrc/u8x8_d_uc1608.c **** 
 396:..\u8g2\csrc/u8x8_d_uc1608.c **** 
 397:..\u8g2\csrc/u8x8_d_uc1608.c **** static const u8x8_display_info_t u8x8_uc1608_dem240064_display_info =
 398:..\u8g2\csrc/u8x8_d_uc1608.c **** {
 399:..\u8g2\csrc/u8x8_d_uc1608.c ****   /* chip_enable_level = */ 1,	/* uc1608 has high active CS */
 400:..\u8g2\csrc/u8x8_d_uc1608.c ****   /* chip_disable_level = */ 0,
 401:..\u8g2\csrc/u8x8_d_uc1608.c ****   
 402:..\u8g2\csrc/u8x8_d_uc1608.c ****   /* post_chip_enable_wait_ns = */ 10,	/* uc1608 datasheet, page 39, actually 0 */
 403:..\u8g2\csrc/u8x8_d_uc1608.c ****   /* pre_chip_disable_wait_ns = */ 20,	/* uc1608 datasheet, page 39 */
 404:..\u8g2\csrc/u8x8_d_uc1608.c ****   /* reset_pulse_width_ms = */ 1, 	/* uc1608 datasheet, page 42 */
 405:..\u8g2\csrc/u8x8_d_uc1608.c ****   /* post_reset_wait_ms = */ 10, 	
 406:..\u8g2\csrc/u8x8_d_uc1608.c ****   /* sda_setup_time_ns = */ 30,		/* uc1608 datasheet, page 41 */
 407:..\u8g2\csrc/u8x8_d_uc1608.c ****   /* sck_pulse_width_ns = */ 65,	/* half of cycle time  */
 408:..\u8g2\csrc/u8x8_d_uc1608.c ****   /* sck_clock_hz = */ 8000000UL,	/* since Arduino 1.6.0, the SPI bus speed in Hz. Should be  10000
 409:..\u8g2\csrc/u8x8_d_uc1608.c ****   /* spi_mode = */ 0,		/* active high, rising edge */
 410:..\u8g2\csrc/u8x8_d_uc1608.c ****   /* i2c_bus_clock_100kHz = */ 4,
 411:..\u8g2\csrc/u8x8_d_uc1608.c ****   /* data_setup_time_ns = */ 30,	/* uc1608 datasheet, page 39 */
 412:..\u8g2\csrc/u8x8_d_uc1608.c ****   /* write_pulse_width_ns = */ 35,	/* uc1608 datasheet, page 39 */
 413:..\u8g2\csrc/u8x8_d_uc1608.c ****   /* tile_width = */ 30,		/* width of 30*8=240 pixel */
 414:..\u8g2\csrc/u8x8_d_uc1608.c ****   /* tile_hight = */ 8,
 415:..\u8g2\csrc/u8x8_d_uc1608.c ****   /* default_x_offset = */ 1,	/* reused as y page offset */
 416:..\u8g2\csrc/u8x8_d_uc1608.c ****   /* flipmode_x_offset = */ 0,	/* reused as y page offset */
 417:..\u8g2\csrc/u8x8_d_uc1608.c ****   /* pixel_width = */ 240,
 418:..\u8g2\csrc/u8x8_d_uc1608.c ****   /* pixel_height = */ 64
 419:..\u8g2\csrc/u8x8_d_uc1608.c **** };
 420:..\u8g2\csrc/u8x8_d_uc1608.c **** 
 421:..\u8g2\csrc/u8x8_d_uc1608.c **** /* http://www.buydisplay.com/download/democode/ERC240120-1_DemoCode.txt */
 422:..\u8g2\csrc/u8x8_d_uc1608.c **** static const uint8_t u8x8_d_uc1608_dem240064_init_seq[] = {
 423:..\u8g2\csrc/u8x8_d_uc1608.c ****     
 424:..\u8g2\csrc/u8x8_d_uc1608.c ****   U8X8_START_TRANSFER(),             	/* enable chip, delay is part of the transfer start */
 425:..\u8g2\csrc/u8x8_d_uc1608.c **** 
 426:..\u8g2\csrc/u8x8_d_uc1608.c ****   U8X8_C(0x0e2),            			/* soft reset */
 427:..\u8g2\csrc/u8x8_d_uc1608.c ****   U8X8_DLY(200),
 428:..\u8g2\csrc/u8x8_d_uc1608.c **** 
 429:..\u8g2\csrc/u8x8_d_uc1608.c ****   //U8X8_C(0x023),            			/* Bit 0/1: Temp compenstation, Bit 2: Multiplex Rate 0=96, 1=128 
 430:..\u8g2\csrc/u8x8_d_uc1608.c ****   U8X8_C(0x026),            			/* Bit 0/1: Temp compenstation, Bit 2: Multiplex Rate 0=96, 1=128 */
 431:..\u8g2\csrc/u8x8_d_uc1608.c **** 
 432:..\u8g2\csrc/u8x8_d_uc1608.c ****   U8X8_C(0x0c8),            			/* Map control, Bit 3: MY=1, Bit 2: MX=0, Bit 0: MSF =0 */
 433:..\u8g2\csrc/u8x8_d_uc1608.c ****   U8X8_C(0x0ea),            			/* LCD bias Bits 0/1: 00=10.7 01=10.3, 10=12.0, 11=12.7 */
 434:..\u8g2\csrc/u8x8_d_uc1608.c **** 							/* according to DemoCode.txt */
 435:..\u8g2\csrc/u8x8_d_uc1608.c ****   
 436:..\u8g2\csrc/u8x8_d_uc1608.c ****   U8X8_C(0x02f),            			/* power on, Bit 2 PC2=1 (internal charge pump), Bits 0/1: cap of pa
 437:..\u8g2\csrc/u8x8_d_uc1608.c ****   U8X8_DLY(50),
 438:..\u8g2\csrc/u8x8_d_uc1608.c ****   
 439:..\u8g2\csrc/u8x8_d_uc1608.c ****   U8X8_C(0x07f),            			/* set display start line*/
 440:..\u8g2\csrc/u8x8_d_uc1608.c ****   U8X8_C(0x094),            			/* fixed lines */
 441:..\u8g2\csrc/u8x8_d_uc1608.c ****   U8X8_C(0x089),            			/* RAM access control */
 442:..\u8g2\csrc/u8x8_d_uc1608.c ****   
 443:..\u8g2\csrc/u8x8_d_uc1608.c ****   U8X8_CA(0x081, 160),			/* issue 1164 */
 444:..\u8g2\csrc/u8x8_d_uc1608.c ****   
 445:..\u8g2\csrc/u8x8_d_uc1608.c ****   U8X8_C(0x000),		                /* column low nibble */
 446:..\u8g2\csrc/u8x8_d_uc1608.c ****   U8X8_C(0x010),		                /* column high nibble */  
ARM GAS  C:\Users\brian\AppData\Local\Temp\ccNdV11D.s 			page 17


 447:..\u8g2\csrc/u8x8_d_uc1608.c ****   U8X8_C(0x0b0),		                /* page adr  */
 448:..\u8g2\csrc/u8x8_d_uc1608.c ****   
 449:..\u8g2\csrc/u8x8_d_uc1608.c ****   
 450:..\u8g2\csrc/u8x8_d_uc1608.c ****   U8X8_END_TRANSFER(),             	/* disable chip */
 451:..\u8g2\csrc/u8x8_d_uc1608.c ****   U8X8_END()             			/* end of sequence */
 452:..\u8g2\csrc/u8x8_d_uc1608.c **** };
 453:..\u8g2\csrc/u8x8_d_uc1608.c **** 
 454:..\u8g2\csrc/u8x8_d_uc1608.c **** static const uint8_t u8x8_d_uc1608_dem240064_flip0_seq[] = {
 455:..\u8g2\csrc/u8x8_d_uc1608.c ****   U8X8_START_TRANSFER(),             	/* enable chip, delay is part of the transfer start */
 456:..\u8g2\csrc/u8x8_d_uc1608.c ****   U8X8_C(0x0c8),            			/* LCD Mapping */
 457:..\u8g2\csrc/u8x8_d_uc1608.c ****   U8X8_C(0x07f),            			/* set display start line*/
 458:..\u8g2\csrc/u8x8_d_uc1608.c ****   U8X8_C(0x094),            			/* fixed lines */
 459:..\u8g2\csrc/u8x8_d_uc1608.c ****   U8X8_END_TRANSFER(),             	/* disable chip */
 460:..\u8g2\csrc/u8x8_d_uc1608.c ****   U8X8_END()             			/* end of sequence */
 461:..\u8g2\csrc/u8x8_d_uc1608.c **** };
 462:..\u8g2\csrc/u8x8_d_uc1608.c **** 
 463:..\u8g2\csrc/u8x8_d_uc1608.c **** static const uint8_t u8x8_d_uc1608_dem240064_flip1_seq[] = {
 464:..\u8g2\csrc/u8x8_d_uc1608.c ****   U8X8_START_TRANSFER(),             	/* enable chip, delay is part of the transfer start */
 465:..\u8g2\csrc/u8x8_d_uc1608.c ****   U8X8_C(0x0c4),            			/* LCD Mapping */
 466:..\u8g2\csrc/u8x8_d_uc1608.c ****   U8X8_C(0x040),            			/* set display start line*/
 467:..\u8g2\csrc/u8x8_d_uc1608.c ****   U8X8_C(0x090),            			/* fixed lines */
 468:..\u8g2\csrc/u8x8_d_uc1608.c ****   U8X8_END_TRANSFER(),             	/* disable chip */
 469:..\u8g2\csrc/u8x8_d_uc1608.c ****   U8X8_END()             			/* end of sequence */
 470:..\u8g2\csrc/u8x8_d_uc1608.c **** };
 471:..\u8g2\csrc/u8x8_d_uc1608.c **** 
 472:..\u8g2\csrc/u8x8_d_uc1608.c **** 
 473:..\u8g2\csrc/u8x8_d_uc1608.c **** uint8_t u8x8_d_uc1608_dem240064(u8x8_t *u8x8, uint8_t msg, uint8_t arg_int, void *arg_ptr)
 474:..\u8g2\csrc/u8x8_d_uc1608.c **** {
 440              		.loc 1 474 0
 441              		.cfi_startproc
 442              		@ args = 0, pretend = 0, frame = 0
 443              		@ frame_needed = 0, uses_anonymous_args = 0
 444              	.LVL54:
 445 0000 38B5     		push	{r3, r4, r5, lr}
 446              		.cfi_def_cfa_offset 16
 447              		.cfi_offset 3, -16
 448              		.cfi_offset 4, -12
 449              		.cfi_offset 5, -8
 450              		.cfi_offset 14, -4
 451 0002 0446     		mov	r4, r0
 475:..\u8g2\csrc/u8x8_d_uc1608.c ****   
 476:..\u8g2\csrc/u8x8_d_uc1608.c ****   /* checking for the flip mode cmd first */
 477:..\u8g2\csrc/u8x8_d_uc1608.c ****   if ( msg == U8X8_MSG_DISPLAY_SET_FLIP_MODE )
 452              		.loc 1 477 0
 453 0004 0D29     		cmp	r1, #13
 454 0006 12D1     		bne	.L40
 478:..\u8g2\csrc/u8x8_d_uc1608.c ****   {
 479:..\u8g2\csrc/u8x8_d_uc1608.c ****       if ( arg_int == 0 )
 455              		.loc 1 479 0
 456 0008 42B9     		cbnz	r2, .L41
 480:..\u8g2\csrc/u8x8_d_uc1608.c ****       {
 481:..\u8g2\csrc/u8x8_d_uc1608.c **** 	u8x8_cad_SendSequence(u8x8, u8x8_d_uc1608_dem240064_flip0_seq);
 457              		.loc 1 481 0
 458 000a 1749     		ldr	r1, .L47
 459              	.LVL55:
 460 000c FFF7FEFF 		bl	u8x8_cad_SendSequence
 461              	.LVL56:
ARM GAS  C:\Users\brian\AppData\Local\Temp\ccNdV11D.s 			page 18


 482:..\u8g2\csrc/u8x8_d_uc1608.c **** 	u8x8->x_offset = u8x8->display_info->default_x_offset;
 462              		.loc 1 482 0
 463 0010 2368     		ldr	r3, [r4]
 464 0012 9B7C     		ldrb	r3, [r3, #18]	@ zero_extendqisi2
 465 0014 84F82230 		strb	r3, [r4, #34]
 483:..\u8g2\csrc/u8x8_d_uc1608.c ****       }
 484:..\u8g2\csrc/u8x8_d_uc1608.c ****       else
 485:..\u8g2\csrc/u8x8_d_uc1608.c ****       {
 486:..\u8g2\csrc/u8x8_d_uc1608.c **** 	u8x8_cad_SendSequence(u8x8, u8x8_d_uc1608_dem240064_flip1_seq);
 487:..\u8g2\csrc/u8x8_d_uc1608.c **** 	u8x8->x_offset = u8x8->display_info->flipmode_x_offset;
 488:..\u8g2\csrc/u8x8_d_uc1608.c ****       }	
 489:..\u8g2\csrc/u8x8_d_uc1608.c ****       return 1;
 466              		.loc 1 489 0
 467 0018 0123     		movs	r3, #1
 468 001a 22E0     		b	.L42
 469              	.LVL57:
 470              	.L41:
 486:..\u8g2\csrc/u8x8_d_uc1608.c **** 	u8x8->x_offset = u8x8->display_info->flipmode_x_offset;
 471              		.loc 1 486 0
 472 001c 1349     		ldr	r1, .L47+4
 473              	.LVL58:
 474 001e FFF7FEFF 		bl	u8x8_cad_SendSequence
 475              	.LVL59:
 487:..\u8g2\csrc/u8x8_d_uc1608.c ****       }	
 476              		.loc 1 487 0
 477 0022 2368     		ldr	r3, [r4]
 478 0024 DB7C     		ldrb	r3, [r3, #19]	@ zero_extendqisi2
 479 0026 84F82230 		strb	r3, [r4, #34]
 480              		.loc 1 489 0
 481 002a 0123     		movs	r3, #1
 482 002c 19E0     		b	.L42
 483              	.LVL60:
 484              	.L40:
 485 002e 0D46     		mov	r5, r1
 490:..\u8g2\csrc/u8x8_d_uc1608.c ****   }
 491:..\u8g2\csrc/u8x8_d_uc1608.c ****   /* call the common procedure, this now leads to the effect, that the flip code is executed again 
 492:..\u8g2\csrc/u8x8_d_uc1608.c ****   /* maybe we should paste the common code here to avoid this */
 493:..\u8g2\csrc/u8x8_d_uc1608.c ****   
 494:..\u8g2\csrc/u8x8_d_uc1608.c ****   
 495:..\u8g2\csrc/u8x8_d_uc1608.c ****   if ( u8x8_d_uc1608_common(u8x8, msg, arg_int, arg_ptr) == 0 )
 486              		.loc 1 495 0
 487 0030 FFF7FEFF 		bl	u8x8_d_uc1608_common
 488              	.LVL61:
 489 0034 0346     		mov	r3, r0
 490 0036 98B9     		cbnz	r0, .L45
 496:..\u8g2\csrc/u8x8_d_uc1608.c ****   {
 497:..\u8g2\csrc/u8x8_d_uc1608.c ****     /* msg not handled, then try here */
 498:..\u8g2\csrc/u8x8_d_uc1608.c ****     switch(msg)
 491              		.loc 1 498 0
 492 0038 092D     		cmp	r5, #9
 493 003a 02D0     		beq	.L43
 494 003c 0A2D     		cmp	r5, #10
 495 003e 06D0     		beq	.L44
 496 0040 0FE0     		b	.L42
 497              	.L43:
 499:..\u8g2\csrc/u8x8_d_uc1608.c ****     {
 500:..\u8g2\csrc/u8x8_d_uc1608.c ****       case U8X8_MSG_DISPLAY_SETUP_MEMORY:
ARM GAS  C:\Users\brian\AppData\Local\Temp\ccNdV11D.s 			page 19


 501:..\u8g2\csrc/u8x8_d_uc1608.c **** 	u8x8_d_helper_display_setup_memory(u8x8, &u8x8_uc1608_dem240064_display_info);
 498              		.loc 1 501 0
 499 0042 0B49     		ldr	r1, .L47+8
 500 0044 2046     		mov	r0, r4
 501 0046 FFF7FEFF 		bl	u8x8_d_helper_display_setup_memory
 502              	.LVL62:
 502:..\u8g2\csrc/u8x8_d_uc1608.c **** 	break;
 503:..\u8g2\csrc/u8x8_d_uc1608.c ****       case U8X8_MSG_DISPLAY_INIT:
 504:..\u8g2\csrc/u8x8_d_uc1608.c **** 	u8x8_d_helper_display_init(u8x8);
 505:..\u8g2\csrc/u8x8_d_uc1608.c **** 	u8x8_cad_SendSequence(u8x8, u8x8_d_uc1608_dem240064_init_seq);
 506:..\u8g2\csrc/u8x8_d_uc1608.c **** 	break;
 507:..\u8g2\csrc/u8x8_d_uc1608.c ****       default:
 508:..\u8g2\csrc/u8x8_d_uc1608.c **** 	return 0;		/* msg unknown */
 509:..\u8g2\csrc/u8x8_d_uc1608.c ****     }
 510:..\u8g2\csrc/u8x8_d_uc1608.c ****   }
 511:..\u8g2\csrc/u8x8_d_uc1608.c ****   return 1;
 503              		.loc 1 511 0
 504 004a 0123     		movs	r3, #1
 502:..\u8g2\csrc/u8x8_d_uc1608.c **** 	break;
 505              		.loc 1 502 0
 506 004c 09E0     		b	.L42
 507              	.L44:
 504:..\u8g2\csrc/u8x8_d_uc1608.c **** 	u8x8_cad_SendSequence(u8x8, u8x8_d_uc1608_dem240064_init_seq);
 508              		.loc 1 504 0
 509 004e 2046     		mov	r0, r4
 510 0050 FFF7FEFF 		bl	u8x8_d_helper_display_init
 511              	.LVL63:
 505:..\u8g2\csrc/u8x8_d_uc1608.c **** 	break;
 512              		.loc 1 505 0
 513 0054 0749     		ldr	r1, .L47+12
 514 0056 2046     		mov	r0, r4
 515 0058 FFF7FEFF 		bl	u8x8_cad_SendSequence
 516              	.LVL64:
 517              		.loc 1 511 0
 518 005c 0123     		movs	r3, #1
 506:..\u8g2\csrc/u8x8_d_uc1608.c ****       default:
 519              		.loc 1 506 0
 520 005e 00E0     		b	.L42
 521              	.L45:
 522              		.loc 1 511 0
 523 0060 0123     		movs	r3, #1
 524              	.L42:
 512:..\u8g2\csrc/u8x8_d_uc1608.c **** }
 525              		.loc 1 512 0
 526 0062 1846     		mov	r0, r3
 527 0064 38BD     		pop	{r3, r4, r5, pc}
 528              	.LVL65:
 529              	.L48:
 530 0066 00BF     		.align	2
 531              	.L47:
 532 0068 D4000000 		.word	.LANCHOR0+212
 533 006c E0000000 		.word	.LANCHOR0+224
 534 0070 EC000000 		.word	.LANCHOR0+236
 535 0074 04010000 		.word	.LANCHOR0+260
 536              		.cfi_endproc
 537              	.LFE4:
 538              		.size	u8x8_d_uc1608_dem240064, .-u8x8_d_uc1608_dem240064
ARM GAS  C:\Users\brian\AppData\Local\Temp\ccNdV11D.s 			page 20


 539              		.section	.rodata
 540              		.align	2
 541              		.set	.LANCHOR0,. + 0
 542              		.type	u8x8_d_uc1608_powersave0_seq, %object
 543              		.size	u8x8_d_uc1608_powersave0_seq, 5
 544              	u8x8_d_uc1608_powersave0_seq:
 545 0000 18       		.byte	24
 546 0001 15       		.byte	21
 547 0002 AF       		.byte	-81
 548 0003 19       		.byte	25
 549 0004 FF       		.byte	-1
 550 0005 000000   		.space	3
 551              		.type	u8x8_d_uc1608_powersave1_seq, %object
 552              		.size	u8x8_d_uc1608_powersave1_seq, 5
 553              	u8x8_d_uc1608_powersave1_seq:
 554 0008 18       		.byte	24
 555 0009 15       		.byte	21
 556 000a AE       		.byte	-82
 557 000b 19       		.byte	25
 558 000c FF       		.byte	-1
 559 000d 000000   		.space	3
 560              		.type	u8x8_d_uc1608_flip0_seq, %object
 561              		.size	u8x8_d_uc1608_flip0_seq, 5
 562              	u8x8_d_uc1608_flip0_seq:
 563 0010 18       		.byte	24
 564 0011 15       		.byte	21
 565 0012 C8       		.byte	-56
 566 0013 19       		.byte	25
 567 0014 FF       		.byte	-1
 568 0015 000000   		.space	3
 569              		.type	u8x8_d_uc1608_flip1_seq, %object
 570              		.size	u8x8_d_uc1608_flip1_seq, 5
 571              	u8x8_d_uc1608_flip1_seq:
 572 0018 18       		.byte	24
 573 0019 15       		.byte	21
 574 001a C4       		.byte	-60
 575 001b 19       		.byte	25
 576 001c FF       		.byte	-1
 577 001d 000000   		.space	3
 578              		.type	u8x8_uc1608_240x64_display_info, %object
 579              		.size	u8x8_uc1608_240x64_display_info, 24
 580              	u8x8_uc1608_240x64_display_info:
 581 0020 01       		.byte	1
 582 0021 00       		.byte	0
 583 0022 0A       		.byte	10
 584 0023 14       		.byte	20
 585 0024 01       		.byte	1
 586 0025 0A       		.byte	10
 587 0026 1E       		.byte	30
 588 0027 41       		.byte	65
 589 0028 00127A00 		.word	8000000
 590 002c 00       		.byte	0
 591 002d 04       		.byte	4
 592 002e 1E       		.byte	30
 593 002f 23       		.byte	35
 594 0030 1E       		.byte	30
 595 0031 08       		.byte	8
ARM GAS  C:\Users\brian\AppData\Local\Temp\ccNdV11D.s 			page 21


 596 0032 00       		.byte	0
 597 0033 04       		.byte	4
 598 0034 F000     		.short	240
 599 0036 4000     		.short	64
 600              		.type	u8x8_d_uc1608_erc24064_init_seq, %object
 601              		.size	u8x8_d_uc1608_erc24064_init_seq, 33
 602              	u8x8_d_uc1608_erc24064_init_seq:
 603 0038 18       		.byte	24
 604 0039 15       		.byte	21
 605 003a E2       		.byte	-30
 606 003b FE       		.byte	-2
 607 003c C8       		.byte	-56
 608 003d 15       		.byte	21
 609 003e 23       		.byte	35
 610 003f 15       		.byte	21
 611 0040 C8       		.byte	-56
 612 0041 15       		.byte	21
 613 0042 E8       		.byte	-24
 614 0043 15       		.byte	21
 615 0044 2F       		.byte	47
 616 0045 FE       		.byte	-2
 617 0046 32       		.byte	50
 618 0047 15       		.byte	21
 619 0048 40       		.byte	64
 620 0049 15       		.byte	21
 621 004a 90       		.byte	-112
 622 004b 15       		.byte	21
 623 004c 89       		.byte	-119
 624 004d 15       		.byte	21
 625 004e 81       		.byte	-127
 626 004f 16       		.byte	22
 627 0050 14       		.byte	20
 628 0051 15       		.byte	21
 629 0052 00       		.byte	0
 630 0053 15       		.byte	21
 631 0054 10       		.byte	16
 632 0055 15       		.byte	21
 633 0056 B0       		.byte	-80
 634 0057 19       		.byte	25
 635 0058 FF       		.byte	-1
 636 0059 000000   		.space	3
 637              		.type	u8x8_uc1608_240x128_display_info, %object
 638              		.size	u8x8_uc1608_240x128_display_info, 24
 639              	u8x8_uc1608_240x128_display_info:
 640 005c 01       		.byte	1
 641 005d 00       		.byte	0
 642 005e 0A       		.byte	10
 643 005f 14       		.byte	20
 644 0060 01       		.byte	1
 645 0061 0A       		.byte	10
 646 0062 1E       		.byte	30
 647 0063 41       		.byte	65
 648 0064 00127A00 		.word	8000000
 649 0068 00       		.byte	0
 650 0069 04       		.byte	4
 651 006a 1E       		.byte	30
 652 006b 23       		.byte	35
ARM GAS  C:\Users\brian\AppData\Local\Temp\ccNdV11D.s 			page 22


 653 006c 1E       		.byte	30
 654 006d 10       		.byte	16
 655 006e 00       		.byte	0
 656 006f 00       		.byte	0
 657 0070 F000     		.short	240
 658 0072 8000     		.short	128
 659              		.type	u8x8_d_uc1608_240x128_init_seq, %object
 660              		.size	u8x8_d_uc1608_240x128_init_seq, 33
 661              	u8x8_d_uc1608_240x128_init_seq:
 662 0074 18       		.byte	24
 663 0075 15       		.byte	21
 664 0076 E2       		.byte	-30
 665 0077 FE       		.byte	-2
 666 0078 C8       		.byte	-56
 667 0079 15       		.byte	21
 668 007a 26       		.byte	38
 669 007b 15       		.byte	21
 670 007c C8       		.byte	-56
 671 007d 15       		.byte	21
 672 007e EA       		.byte	-22
 673 007f 15       		.byte	21
 674 0080 2F       		.byte	47
 675 0081 FE       		.byte	-2
 676 0082 32       		.byte	50
 677 0083 15       		.byte	21
 678 0084 40       		.byte	64
 679 0085 15       		.byte	21
 680 0086 90       		.byte	-112
 681 0087 15       		.byte	21
 682 0088 89       		.byte	-119
 683 0089 15       		.byte	21
 684 008a 81       		.byte	-127
 685 008b 16       		.byte	22
 686 008c 72       		.byte	114
 687 008d 15       		.byte	21
 688 008e 00       		.byte	0
 689 008f 15       		.byte	21
 690 0090 10       		.byte	16
 691 0091 15       		.byte	21
 692 0092 B0       		.byte	-80
 693 0093 19       		.byte	25
 694 0094 FF       		.byte	-1
 695 0095 000000   		.space	3
 696              		.type	u8x8_uc1608_erc240120_display_info, %object
 697              		.size	u8x8_uc1608_erc240120_display_info, 24
 698              	u8x8_uc1608_erc240120_display_info:
 699 0098 01       		.byte	1
 700 0099 00       		.byte	0
 701 009a 0A       		.byte	10
 702 009b 14       		.byte	20
 703 009c 01       		.byte	1
 704 009d 0A       		.byte	10
 705 009e 1E       		.byte	30
 706 009f 41       		.byte	65
 707 00a0 00127A00 		.word	8000000
 708 00a4 00       		.byte	0
 709 00a5 04       		.byte	4
ARM GAS  C:\Users\brian\AppData\Local\Temp\ccNdV11D.s 			page 23


 710 00a6 1E       		.byte	30
 711 00a7 23       		.byte	35
 712 00a8 1E       		.byte	30
 713 00a9 0F       		.byte	15
 714 00aa 01       		.byte	1
 715 00ab 00       		.byte	0
 716 00ac F000     		.short	240
 717 00ae 7800     		.short	120
 718              		.type	u8x8_d_uc1608_erc240120_init_seq, %object
 719              		.size	u8x8_d_uc1608_erc240120_init_seq, 33
 720              	u8x8_d_uc1608_erc240120_init_seq:
 721 00b0 18       		.byte	24
 722 00b1 15       		.byte	21
 723 00b2 E2       		.byte	-30
 724 00b3 FE       		.byte	-2
 725 00b4 C8       		.byte	-56
 726 00b5 15       		.byte	21
 727 00b6 26       		.byte	38
 728 00b7 15       		.byte	21
 729 00b8 C8       		.byte	-56
 730 00b9 15       		.byte	21
 731 00ba EA       		.byte	-22
 732 00bb 15       		.byte	21
 733 00bc 2F       		.byte	47
 734 00bd FE       		.byte	-2
 735 00be 32       		.byte	50
 736 00bf 15       		.byte	21
 737 00c0 40       		.byte	64
 738 00c1 15       		.byte	21
 739 00c2 90       		.byte	-112
 740 00c3 15       		.byte	21
 741 00c4 89       		.byte	-119
 742 00c5 15       		.byte	21
 743 00c6 81       		.byte	-127
 744 00c7 16       		.byte	22
 745 00c8 50       		.byte	80
 746 00c9 15       		.byte	21
 747 00ca 00       		.byte	0
 748 00cb 15       		.byte	21
 749 00cc 10       		.byte	16
 750 00cd 15       		.byte	21
 751 00ce B0       		.byte	-80
 752 00cf 19       		.byte	25
 753 00d0 FF       		.byte	-1
 754 00d1 000000   		.space	3
 755              		.type	u8x8_d_uc1608_dem240064_flip0_seq, %object
 756              		.size	u8x8_d_uc1608_dem240064_flip0_seq, 9
 757              	u8x8_d_uc1608_dem240064_flip0_seq:
 758 00d4 18       		.byte	24
 759 00d5 15       		.byte	21
 760 00d6 C8       		.byte	-56
 761 00d7 15       		.byte	21
 762 00d8 7F       		.byte	127
 763 00d9 15       		.byte	21
 764 00da 94       		.byte	-108
 765 00db 19       		.byte	25
 766 00dc FF       		.byte	-1
ARM GAS  C:\Users\brian\AppData\Local\Temp\ccNdV11D.s 			page 24


 767 00dd 000000   		.space	3
 768              		.type	u8x8_d_uc1608_dem240064_flip1_seq, %object
 769              		.size	u8x8_d_uc1608_dem240064_flip1_seq, 9
 770              	u8x8_d_uc1608_dem240064_flip1_seq:
 771 00e0 18       		.byte	24
 772 00e1 15       		.byte	21
 773 00e2 C4       		.byte	-60
 774 00e3 15       		.byte	21
 775 00e4 40       		.byte	64
 776 00e5 15       		.byte	21
 777 00e6 90       		.byte	-112
 778 00e7 19       		.byte	25
 779 00e8 FF       		.byte	-1
 780 00e9 000000   		.space	3
 781              		.type	u8x8_uc1608_dem240064_display_info, %object
 782              		.size	u8x8_uc1608_dem240064_display_info, 24
 783              	u8x8_uc1608_dem240064_display_info:
 784 00ec 01       		.byte	1
 785 00ed 00       		.byte	0
 786 00ee 0A       		.byte	10
 787 00ef 14       		.byte	20
 788 00f0 01       		.byte	1
 789 00f1 0A       		.byte	10
 790 00f2 1E       		.byte	30
 791 00f3 41       		.byte	65
 792 00f4 00127A00 		.word	8000000
 793 00f8 00       		.byte	0
 794 00f9 04       		.byte	4
 795 00fa 1E       		.byte	30
 796 00fb 23       		.byte	35
 797 00fc 1E       		.byte	30
 798 00fd 08       		.byte	8
 799 00fe 01       		.byte	1
 800 00ff 00       		.byte	0
 801 0100 F000     		.short	240
 802 0102 4000     		.short	64
 803              		.type	u8x8_d_uc1608_dem240064_init_seq, %object
 804              		.size	u8x8_d_uc1608_dem240064_init_seq, 33
 805              	u8x8_d_uc1608_dem240064_init_seq:
 806 0104 18       		.byte	24
 807 0105 15       		.byte	21
 808 0106 E2       		.byte	-30
 809 0107 FE       		.byte	-2
 810 0108 C8       		.byte	-56
 811 0109 15       		.byte	21
 812 010a 26       		.byte	38
 813 010b 15       		.byte	21
 814 010c C8       		.byte	-56
 815 010d 15       		.byte	21
 816 010e EA       		.byte	-22
 817 010f 15       		.byte	21
 818 0110 2F       		.byte	47
 819 0111 FE       		.byte	-2
 820 0112 32       		.byte	50
 821 0113 15       		.byte	21
 822 0114 7F       		.byte	127
 823 0115 15       		.byte	21
ARM GAS  C:\Users\brian\AppData\Local\Temp\ccNdV11D.s 			page 25


 824 0116 94       		.byte	-108
 825 0117 15       		.byte	21
 826 0118 89       		.byte	-119
 827 0119 15       		.byte	21
 828 011a 81       		.byte	-127
 829 011b 16       		.byte	22
 830 011c A0       		.byte	-96
 831 011d 15       		.byte	21
 832 011e 00       		.byte	0
 833 011f 15       		.byte	21
 834 0120 10       		.byte	16
 835 0121 15       		.byte	21
 836 0122 B0       		.byte	-80
 837 0123 19       		.byte	25
 838 0124 FF       		.byte	-1
 839              		.text
 840              	.Letext0:
 841              		.file 2 "c:\\program files (x86)\\cypress\\psoc creator\\4.4\\psoc creator\\import\\gnu\\arm\\5.4.
 842              		.file 3 "c:\\program files (x86)\\cypress\\psoc creator\\4.4\\psoc creator\\import\\gnu\\arm\\5.4.
 843              		.file 4 "..\\u8g2\\csrc\\u8x8.h"