ARM GAS  C:\Users\brian\AppData\Local\Temp\ccxdXFUh.s 			page 1


   1              		.syntax unified
   2              		.cpu cortex-m3
   3              		.fpu softvfp
   4              		.eabi_attribute 20, 1
   5              		.eabi_attribute 21, 1
   6              		.eabi_attribute 23, 3
   7              		.eabi_attribute 24, 1
   8              		.eabi_attribute 25, 1
   9              		.eabi_attribute 26, 1
  10              		.eabi_attribute 30, 1
  11              		.eabi_attribute 34, 1
  12              		.eabi_attribute 18, 4
  13              		.thumb
  14              		.syntax unified
  15              		.file	"u8x8_d_t6963.c"
  16              		.text
  17              	.Ltext0:
  18              		.cfi_sections	.debug_frame
  19              		.section	.text.u8x8_d_t6963_common,"ax",%progbits
  20              		.align	2
  21              		.global	u8x8_d_t6963_common
  22              		.thumb
  23              		.thumb_func
  24              		.type	u8x8_d_t6963_common, %function
  25              	u8x8_d_t6963_common:
  26              	.LFB0:
  27              		.file 1 "..\\u8g2\\csrc\\u8x8_d_t6963.c"
   1:..\u8g2\csrc/u8x8_d_t6963.c **** /*
   2:..\u8g2\csrc/u8x8_d_t6963.c **** 
   3:..\u8g2\csrc/u8x8_d_t6963.c ****   u8x8_d_t6963.c
   4:..\u8g2\csrc/u8x8_d_t6963.c ****   
   5:..\u8g2\csrc/u8x8_d_t6963.c ****   Universal 8bit Graphics Library (https://github.com/olikraus/u8g2/)
   6:..\u8g2\csrc/u8x8_d_t6963.c **** 
   7:..\u8g2\csrc/u8x8_d_t6963.c ****   Copyright (c) 2016, olikraus@gmail.com
   8:..\u8g2\csrc/u8x8_d_t6963.c ****   All rights reserved.
   9:..\u8g2\csrc/u8x8_d_t6963.c **** 
  10:..\u8g2\csrc/u8x8_d_t6963.c ****   Redistribution and use in source and binary forms, with or without modification, 
  11:..\u8g2\csrc/u8x8_d_t6963.c ****   are permitted provided that the following conditions are met:
  12:..\u8g2\csrc/u8x8_d_t6963.c **** 
  13:..\u8g2\csrc/u8x8_d_t6963.c ****   * Redistributions of source code must retain the above copyright notice, this list 
  14:..\u8g2\csrc/u8x8_d_t6963.c ****     of conditions and the following disclaimer.
  15:..\u8g2\csrc/u8x8_d_t6963.c ****     
  16:..\u8g2\csrc/u8x8_d_t6963.c ****   * Redistributions in binary form must reproduce the above copyright notice, this 
  17:..\u8g2\csrc/u8x8_d_t6963.c ****     list of conditions and the following disclaimer in the documentation and/or other 
  18:..\u8g2\csrc/u8x8_d_t6963.c ****     materials provided with the distribution.
  19:..\u8g2\csrc/u8x8_d_t6963.c **** 
  20:..\u8g2\csrc/u8x8_d_t6963.c ****   THIS SOFTWARE IS PROVIDED BY THE COPYRIGHT HOLDERS AND 
  21:..\u8g2\csrc/u8x8_d_t6963.c ****   CONTRIBUTORS "AS IS" AND ANY EXPRESS OR IMPLIED WARRANTIES, 
  22:..\u8g2\csrc/u8x8_d_t6963.c ****   INCLUDING, BUT NOT LIMITED TO, THE IMPLIED WARRANTIES OF 
  23:..\u8g2\csrc/u8x8_d_t6963.c ****   MERCHANTABILITY AND FITNESS FOR A PARTICULAR PURPOSE ARE 
  24:..\u8g2\csrc/u8x8_d_t6963.c ****   DISCLAIMED. IN NO EVENT SHALL THE COPYRIGHT HOLDER OR 
  25:..\u8g2\csrc/u8x8_d_t6963.c ****   CONTRIBUTORS BE LIABLE FOR ANY DIRECT, INDIRECT, INCIDENTAL, 
  26:..\u8g2\csrc/u8x8_d_t6963.c ****   SPECIAL, EXEMPLARY, OR CONSEQUENTIAL DAMAGES (INCLUDING, BUT 
  27:..\u8g2\csrc/u8x8_d_t6963.c ****   NOT LIMITED TO, PROCUREMENT OF SUBSTITUTE GOODS OR SERVICES; 
  28:..\u8g2\csrc/u8x8_d_t6963.c ****   LOSS OF USE, DATA, OR PROFITS; OR BUSINESS INTERRUPTION) HOWEVER 
  29:..\u8g2\csrc/u8x8_d_t6963.c ****   CAUSED AND ON ANY THEORY OF LIABILITY, WHETHER IN CONTRACT, 
  30:..\u8g2\csrc/u8x8_d_t6963.c ****   STRICT LIABILITY, OR TORT (INCLUDING NEGLIGENCE OR OTHERWISE) 
ARM GAS  C:\Users\brian\AppData\Local\Temp\ccxdXFUh.s 			page 2


  31:..\u8g2\csrc/u8x8_d_t6963.c ****   ARISING IN ANY WAY OUT OF THE USE OF THIS SOFTWARE, EVEN IF 
  32:..\u8g2\csrc/u8x8_d_t6963.c ****   ADVISED OF THE POSSIBILITY OF SUCH DAMAGE.  
  33:..\u8g2\csrc/u8x8_d_t6963.c **** 
  34:..\u8g2\csrc/u8x8_d_t6963.c **** 
  35:..\u8g2\csrc/u8x8_d_t6963.c ****   The t6963 controller does not support hardware graphics flip.
  36:..\u8g2\csrc/u8x8_d_t6963.c ****   Contrast adjustment is done by an external resistor --> no support for contrast adjustment
  37:..\u8g2\csrc/u8x8_d_t6963.c ****   
  38:..\u8g2\csrc/u8x8_d_t6963.c ****   
  39:..\u8g2\csrc/u8x8_d_t6963.c **** */
  40:..\u8g2\csrc/u8x8_d_t6963.c **** #include "u8x8.h"
  41:..\u8g2\csrc/u8x8_d_t6963.c **** 
  42:..\u8g2\csrc/u8x8_d_t6963.c **** 
  43:..\u8g2\csrc/u8x8_d_t6963.c **** 
  44:..\u8g2\csrc/u8x8_d_t6963.c **** static const uint8_t u8x8_d_t6963_powersave0_seq[] = {
  45:..\u8g2\csrc/u8x8_d_t6963.c ****   U8X8_START_TRANSFER(),             	/* enable chip, delay is part of the transfer start */
  46:..\u8g2\csrc/u8x8_d_t6963.c ****   U8X8_C(0x098),                            /* mode register: Display Mode, Graphics on, Text off, 
  47:..\u8g2\csrc/u8x8_d_t6963.c ****   U8X8_END_TRANSFER(),             	/* disable chip */
  48:..\u8g2\csrc/u8x8_d_t6963.c ****   U8X8_END()             			/* end of sequence */
  49:..\u8g2\csrc/u8x8_d_t6963.c **** };
  50:..\u8g2\csrc/u8x8_d_t6963.c **** 
  51:..\u8g2\csrc/u8x8_d_t6963.c **** static const uint8_t u8x8_d_t6963_powersave1_seq[] = {
  52:..\u8g2\csrc/u8x8_d_t6963.c ****   U8X8_START_TRANSFER(),             	/* enable chip, delay is part of the transfer start */
  53:..\u8g2\csrc/u8x8_d_t6963.c ****   U8X8_C(0x090),                             /* All Off */
  54:..\u8g2\csrc/u8x8_d_t6963.c ****   U8X8_END_TRANSFER(),             	/* disable chip */
  55:..\u8g2\csrc/u8x8_d_t6963.c ****   U8X8_END()             			/* end of sequence */
  56:..\u8g2\csrc/u8x8_d_t6963.c **** };
  57:..\u8g2\csrc/u8x8_d_t6963.c **** 
  58:..\u8g2\csrc/u8x8_d_t6963.c **** 
  59:..\u8g2\csrc/u8x8_d_t6963.c **** uint8_t u8x8_d_t6963_common(u8x8_t *u8x8, uint8_t msg, uint8_t arg_int, void *arg_ptr)
  60:..\u8g2\csrc/u8x8_d_t6963.c **** {
  28              		.loc 1 60 0
  29              		.cfi_startproc
  30              		@ args = 0, pretend = 0, frame = 0
  31              		@ frame_needed = 0, uses_anonymous_args = 0
  32              	.LVL0:
  33 0000 2DE9F041 		push	{r4, r5, r6, r7, r8, lr}
  34              		.cfi_def_cfa_offset 24
  35              		.cfi_offset 4, -24
  36              		.cfi_offset 5, -20
  37              		.cfi_offset 6, -16
  38              		.cfi_offset 7, -12
  39              		.cfi_offset 8, -8
  40              		.cfi_offset 14, -4
  41 0004 0446     		mov	r4, r0
  61:..\u8g2\csrc/u8x8_d_t6963.c ****   uint8_t c, i;
  62:..\u8g2\csrc/u8x8_d_t6963.c ****   uint16_t y;
  63:..\u8g2\csrc/u8x8_d_t6963.c ****   uint8_t *ptr;
  64:..\u8g2\csrc/u8x8_d_t6963.c ****   switch(msg)
  42              		.loc 1 64 0
  43 0006 0B29     		cmp	r1, #11
  44 0008 03D0     		beq	.L3
  45 000a 1D46     		mov	r5, r3
  46 000c 0F29     		cmp	r1, #15
  47 000e 0DD0     		beq	.L4
  48 0010 42E0     		b	.L9
  49              	.L3:
  65:..\u8g2\csrc/u8x8_d_t6963.c ****   {
ARM GAS  C:\Users\brian\AppData\Local\Temp\ccxdXFUh.s 			page 3


  66:..\u8g2\csrc/u8x8_d_t6963.c ****     /* U8X8_MSG_DISPLAY_SETUP_MEMORY is handled by the calling function */
  67:..\u8g2\csrc/u8x8_d_t6963.c ****     /*
  68:..\u8g2\csrc/u8x8_d_t6963.c ****     case U8X8_MSG_DISPLAY_SETUP_MEMORY:
  69:..\u8g2\csrc/u8x8_d_t6963.c ****       break;
  70:..\u8g2\csrc/u8x8_d_t6963.c ****     case U8X8_MSG_DISPLAY_INIT:
  71:..\u8g2\csrc/u8x8_d_t6963.c ****       break;
  72:..\u8g2\csrc/u8x8_d_t6963.c ****     */
  73:..\u8g2\csrc/u8x8_d_t6963.c ****     case U8X8_MSG_DISPLAY_SET_POWER_SAVE:
  74:..\u8g2\csrc/u8x8_d_t6963.c ****       if ( arg_int == 0 )
  50              		.loc 1 74 0
  51 0012 2AB9     		cbnz	r2, .L5
  75:..\u8g2\csrc/u8x8_d_t6963.c **** 	u8x8_cad_SendSequence(u8x8, u8x8_d_t6963_powersave0_seq);
  52              		.loc 1 75 0
  53 0014 2249     		ldr	r1, .L11
  54              	.LVL1:
  55 0016 FFF7FEFF 		bl	u8x8_cad_SendSequence
  56              	.LVL2:
  76:..\u8g2\csrc/u8x8_d_t6963.c ****       else
  77:..\u8g2\csrc/u8x8_d_t6963.c **** 	u8x8_cad_SendSequence(u8x8, u8x8_d_t6963_powersave1_seq);
  78:..\u8g2\csrc/u8x8_d_t6963.c ****       break;
  79:..\u8g2\csrc/u8x8_d_t6963.c ****     case U8X8_MSG_DISPLAY_DRAW_TILE:
  80:..\u8g2\csrc/u8x8_d_t6963.c ****       y = (((u8x8_tile_t *)arg_ptr)->y_pos);
  81:..\u8g2\csrc/u8x8_d_t6963.c ****       y*=8;
  82:..\u8g2\csrc/u8x8_d_t6963.c ****       y*= u8x8->display_info->tile_width;
  83:..\u8g2\csrc/u8x8_d_t6963.c ****       /* x = ((u8x8_tile_t *)arg_ptr)->x_pos; x is ignored... no u8x8 support */
  84:..\u8g2\csrc/u8x8_d_t6963.c ****       //u8x8->gpio_and_delay_cb(u8x8, U8X8_MSG_DELAY_NANO, 200, NULL);	/* extra dely required */
  85:..\u8g2\csrc/u8x8_d_t6963.c ****       u8x8_cad_StartTransfer(u8x8);
  86:..\u8g2\csrc/u8x8_d_t6963.c ****       //u8x8->gpio_and_delay_cb(u8x8, U8X8_MSG_DELAY_NANO, 200, NULL);	/* extra dely required */
  87:..\u8g2\csrc/u8x8_d_t6963.c ****       /* 
  88:..\u8g2\csrc/u8x8_d_t6963.c **** 	Tile structure is reused here for the t6963, however u8x8 is not supported 
  89:..\u8g2\csrc/u8x8_d_t6963.c **** 	tile_ptr points to data which has cnt*8 bytes (same as SSD1306 tiles)
  90:..\u8g2\csrc/u8x8_d_t6963.c **** 	Buffer is expected to have 8 lines of code fitting to the t6963 internal memory
  91:..\u8g2\csrc/u8x8_d_t6963.c **** 	"cnt" includes the number of horizontal bytes. width is equal to cnt*8
  92:..\u8g2\csrc/u8x8_d_t6963.c **** 	
  93:..\u8g2\csrc/u8x8_d_t6963.c **** 	TODO: Consider arg_int, however arg_int is not used by u8g2
  94:..\u8g2\csrc/u8x8_d_t6963.c ****       */
  95:..\u8g2\csrc/u8x8_d_t6963.c ****       c = ((u8x8_tile_t *)arg_ptr)->cnt;	/* number of tiles */
  96:..\u8g2\csrc/u8x8_d_t6963.c ****       ptr = ((u8x8_tile_t *)arg_ptr)->tile_ptr;	/* data ptr to the tiles */
  97:..\u8g2\csrc/u8x8_d_t6963.c ****       for( i = 0; i < 8; i++ )
  98:..\u8g2\csrc/u8x8_d_t6963.c ****       {
  99:..\u8g2\csrc/u8x8_d_t6963.c **** 	u8x8_cad_SendArg(u8x8, y&255);
 100:..\u8g2\csrc/u8x8_d_t6963.c **** 	u8x8_cad_SendArg(u8x8, y>>8);
 101:..\u8g2\csrc/u8x8_d_t6963.c **** 	u8x8_cad_SendCmd(u8x8, 0x024 );	/* set adr */
 102:..\u8g2\csrc/u8x8_d_t6963.c **** 	u8x8_cad_SendCmd(u8x8, 0x0b0 );	/* auto write start */
 103:..\u8g2\csrc/u8x8_d_t6963.c **** 	
 104:..\u8g2\csrc/u8x8_d_t6963.c **** 	
 105:..\u8g2\csrc/u8x8_d_t6963.c **** 	//c = ((u8x8_tile_t *)arg_ptr)->cnt;	/* number of tiles */
 106:..\u8g2\csrc/u8x8_d_t6963.c **** 	u8x8_cad_SendData(u8x8, c, ptr);	/* note: SendData can not handle more than 255 bytes, send one li
 107:..\u8g2\csrc/u8x8_d_t6963.c **** 	
 108:..\u8g2\csrc/u8x8_d_t6963.c **** 	u8x8_cad_SendCmd(u8x8, 0x0b2 );	/* auto write reset */
 109:..\u8g2\csrc/u8x8_d_t6963.c **** 	ptr += u8x8->display_info->tile_width;
 110:..\u8g2\csrc/u8x8_d_t6963.c **** 	y += u8x8->display_info->tile_width;
 111:..\u8g2\csrc/u8x8_d_t6963.c ****       }
 112:..\u8g2\csrc/u8x8_d_t6963.c **** 
 113:..\u8g2\csrc/u8x8_d_t6963.c ****       u8x8_cad_EndTransfer(u8x8);
 114:..\u8g2\csrc/u8x8_d_t6963.c ****       //u8x8->gpio_and_delay_cb(u8x8, U8X8_MSG_DELAY_NANO, 200, NULL);	/* extra dely required */
 115:..\u8g2\csrc/u8x8_d_t6963.c **** 
ARM GAS  C:\Users\brian\AppData\Local\Temp\ccxdXFUh.s 			page 4


 116:..\u8g2\csrc/u8x8_d_t6963.c ****       break;
 117:..\u8g2\csrc/u8x8_d_t6963.c ****     default:
 118:..\u8g2\csrc/u8x8_d_t6963.c ****       return 0;
 119:..\u8g2\csrc/u8x8_d_t6963.c ****   }
 120:..\u8g2\csrc/u8x8_d_t6963.c ****   return 1;
  57              		.loc 1 120 0
  58 001a 0120     		movs	r0, #1
  59 001c BDE8F081 		pop	{r4, r5, r6, r7, r8, pc}
  60              	.LVL3:
  61              	.L5:
  77:..\u8g2\csrc/u8x8_d_t6963.c ****       break;
  62              		.loc 1 77 0
  63 0020 2049     		ldr	r1, .L11+4
  64              	.LVL4:
  65 0022 FFF7FEFF 		bl	u8x8_cad_SendSequence
  66              	.LVL5:
  67              		.loc 1 120 0
  68 0026 0120     		movs	r0, #1
  69 0028 BDE8F081 		pop	{r4, r5, r6, r7, r8, pc}
  70              	.LVL6:
  71              	.L4:
  80:..\u8g2\csrc/u8x8_d_t6963.c ****       y*=8;
  72              		.loc 1 80 0
  73 002c 9E79     		ldrb	r6, [r3, #6]	@ zero_extendqisi2
  74              	.LVL7:
  81:..\u8g2\csrc/u8x8_d_t6963.c ****       y*= u8x8->display_info->tile_width;
  75              		.loc 1 81 0
  76 002e F600     		lsls	r6, r6, #3
  77              	.LVL8:
  82:..\u8g2\csrc/u8x8_d_t6963.c ****       /* x = ((u8x8_tile_t *)arg_ptr)->x_pos; x is ignored... no u8x8 support */
  78              		.loc 1 82 0
  79 0030 0368     		ldr	r3, [r0]
  80              	.LVL9:
  81 0032 1B7C     		ldrb	r3, [r3, #16]	@ zero_extendqisi2
  82 0034 03FB06F3 		mul	r3, r3, r6
  83 0038 9EB2     		uxth	r6, r3
  84              	.LVL10:
  85:..\u8g2\csrc/u8x8_d_t6963.c ****       //u8x8->gpio_and_delay_cb(u8x8, U8X8_MSG_DELAY_NANO, 200, NULL);	/* extra dely required */
  85              		.loc 1 85 0
  86 003a FFF7FEFF 		bl	u8x8_cad_StartTransfer
  87              	.LVL11:
  95:..\u8g2\csrc/u8x8_d_t6963.c ****       ptr = ((u8x8_tile_t *)arg_ptr)->tile_ptr;	/* data ptr to the tiles */
  88              		.loc 1 95 0
  89 003e 95F80480 		ldrb	r8, [r5, #4]	@ zero_extendqisi2
  90              	.LVL12:
  96:..\u8g2\csrc/u8x8_d_t6963.c ****       for( i = 0; i < 8; i++ )
  91              		.loc 1 96 0
  92 0042 2F68     		ldr	r7, [r5]
  93              	.LVL13:
  97:..\u8g2\csrc/u8x8_d_t6963.c ****       {
  94              		.loc 1 97 0
  95 0044 0025     		movs	r5, #0
  96              	.LVL14:
  97 0046 1FE0     		b	.L6
  98              	.LVL15:
  99              	.L7:
  99:..\u8g2\csrc/u8x8_d_t6963.c **** 	u8x8_cad_SendArg(u8x8, y>>8);
ARM GAS  C:\Users\brian\AppData\Local\Temp\ccxdXFUh.s 			page 5


 100              		.loc 1 99 0 discriminator 3
 101 0048 F1B2     		uxtb	r1, r6
 102 004a 2046     		mov	r0, r4
 103 004c FFF7FEFF 		bl	u8x8_cad_SendArg
 104              	.LVL16:
 100:..\u8g2\csrc/u8x8_d_t6963.c **** 	u8x8_cad_SendCmd(u8x8, 0x024 );	/* set adr */
 105              		.loc 1 100 0 discriminator 3
 106 0050 310A     		lsrs	r1, r6, #8
 107 0052 2046     		mov	r0, r4
 108 0054 FFF7FEFF 		bl	u8x8_cad_SendArg
 109              	.LVL17:
 101:..\u8g2\csrc/u8x8_d_t6963.c **** 	u8x8_cad_SendCmd(u8x8, 0x0b0 );	/* auto write start */
 110              		.loc 1 101 0 discriminator 3
 111 0058 2421     		movs	r1, #36
 112 005a 2046     		mov	r0, r4
 113 005c FFF7FEFF 		bl	u8x8_cad_SendCmd
 114              	.LVL18:
 102:..\u8g2\csrc/u8x8_d_t6963.c **** 	
 115              		.loc 1 102 0 discriminator 3
 116 0060 B021     		movs	r1, #176
 117 0062 2046     		mov	r0, r4
 118 0064 FFF7FEFF 		bl	u8x8_cad_SendCmd
 119              	.LVL19:
 106:..\u8g2\csrc/u8x8_d_t6963.c **** 	
 120              		.loc 1 106 0 discriminator 3
 121 0068 3A46     		mov	r2, r7
 122 006a 4146     		mov	r1, r8
 123 006c 2046     		mov	r0, r4
 124 006e FFF7FEFF 		bl	u8x8_cad_SendData
 125              	.LVL20:
 108:..\u8g2\csrc/u8x8_d_t6963.c **** 	ptr += u8x8->display_info->tile_width;
 126              		.loc 1 108 0 discriminator 3
 127 0072 B221     		movs	r1, #178
 128 0074 2046     		mov	r0, r4
 129 0076 FFF7FEFF 		bl	u8x8_cad_SendCmd
 130              	.LVL21:
 109:..\u8g2\csrc/u8x8_d_t6963.c **** 	y += u8x8->display_info->tile_width;
 131              		.loc 1 109 0 discriminator 3
 132 007a 2368     		ldr	r3, [r4]
 133 007c 1B7C     		ldrb	r3, [r3, #16]	@ zero_extendqisi2
 134 007e 1F44     		add	r7, r7, r3
 135              	.LVL22:
 110:..\u8g2\csrc/u8x8_d_t6963.c ****       }
 136              		.loc 1 110 0 discriminator 3
 137 0080 3344     		add	r3, r3, r6
 138 0082 9EB2     		uxth	r6, r3
 139              	.LVL23:
  97:..\u8g2\csrc/u8x8_d_t6963.c ****       {
 140              		.loc 1 97 0 discriminator 3
 141 0084 0135     		adds	r5, r5, #1
 142              	.LVL24:
 143 0086 EDB2     		uxtb	r5, r5
 144              	.LVL25:
 145              	.L6:
  97:..\u8g2\csrc/u8x8_d_t6963.c ****       {
 146              		.loc 1 97 0 is_stmt 0 discriminator 1
 147 0088 072D     		cmp	r5, #7
ARM GAS  C:\Users\brian\AppData\Local\Temp\ccxdXFUh.s 			page 6


 148 008a DDD9     		bls	.L7
 113:..\u8g2\csrc/u8x8_d_t6963.c ****       //u8x8->gpio_and_delay_cb(u8x8, U8X8_MSG_DELAY_NANO, 200, NULL);	/* extra dely required */
 149              		.loc 1 113 0 is_stmt 1
 150 008c 2046     		mov	r0, r4
 151 008e FFF7FEFF 		bl	u8x8_cad_EndTransfer
 152              	.LVL26:
 153              		.loc 1 120 0
 154 0092 0120     		movs	r0, #1
 116:..\u8g2\csrc/u8x8_d_t6963.c ****     default:
 155              		.loc 1 116 0
 156 0094 BDE8F081 		pop	{r4, r5, r6, r7, r8, pc}
 157              	.LVL27:
 158              	.L9:
 118:..\u8g2\csrc/u8x8_d_t6963.c ****   }
 159              		.loc 1 118 0
 160 0098 0020     		movs	r0, #0
 161              	.LVL28:
 121:..\u8g2\csrc/u8x8_d_t6963.c **** }
 162              		.loc 1 121 0
 163 009a BDE8F081 		pop	{r4, r5, r6, r7, r8, pc}
 164              	.LVL29:
 165              	.L12:
 166 009e 00BF     		.align	2
 167              	.L11:
 168 00a0 00000000 		.word	.LANCHOR0
 169 00a4 08000000 		.word	.LANCHOR0+8
 170              		.cfi_endproc
 171              	.LFE0:
 172              		.size	u8x8_d_t6963_common, .-u8x8_d_t6963_common
 173              		.section	.text.u8x8_d_t6963_240x128,"ax",%progbits
 174              		.align	2
 175              		.global	u8x8_d_t6963_240x128
 176              		.thumb
 177              		.thumb_func
 178              		.type	u8x8_d_t6963_240x128, %function
 179              	u8x8_d_t6963_240x128:
 180              	.LFB1:
 122:..\u8g2\csrc/u8x8_d_t6963.c **** 
 123:..\u8g2\csrc/u8x8_d_t6963.c **** /*=============================================*/
 124:..\u8g2\csrc/u8x8_d_t6963.c **** 
 125:..\u8g2\csrc/u8x8_d_t6963.c **** 
 126:..\u8g2\csrc/u8x8_d_t6963.c **** static const u8x8_display_info_t u8x8_t6963_240x128_display_info =
 127:..\u8g2\csrc/u8x8_d_t6963.c **** {
 128:..\u8g2\csrc/u8x8_d_t6963.c ****   /* chip_enable_level = */ 0,
 129:..\u8g2\csrc/u8x8_d_t6963.c ****   /* chip_disable_level = */ 1,
 130:..\u8g2\csrc/u8x8_d_t6963.c ****   
 131:..\u8g2\csrc/u8x8_d_t6963.c ****   /* post_chip_enable_wait_ns = */ 110,	/* T6963 Datasheet p30 */
 132:..\u8g2\csrc/u8x8_d_t6963.c ****   /* pre_chip_disable_wait_ns = */ 100,	/* T6963 Datasheet p30 */
 133:..\u8g2\csrc/u8x8_d_t6963.c ****   /* reset_pulse_width_ms = */ 1, 
 134:..\u8g2\csrc/u8x8_d_t6963.c ****   /* post_reset_wait_ms = */ 6, 
 135:..\u8g2\csrc/u8x8_d_t6963.c ****   /* sda_setup_time_ns = */ 20,		
 136:..\u8g2\csrc/u8x8_d_t6963.c ****   /* sck_pulse_width_ns = */  140,	
 137:..\u8g2\csrc/u8x8_d_t6963.c ****   /* sck_clock_hz = */ 1000000UL,	/* since Arduino 1.6.0, the SPI bus speed in Hz. Should be  10000
 138:..\u8g2\csrc/u8x8_d_t6963.c ****   /* spi_mode = */ 0,		
 139:..\u8g2\csrc/u8x8_d_t6963.c ****   /* i2c_bus_clock_100kHz = */ 4,
 140:..\u8g2\csrc/u8x8_d_t6963.c ****   /* data_setup_time_ns = */ 80,
 141:..\u8g2\csrc/u8x8_d_t6963.c ****   /* write_pulse_width_ns = */ 80,
ARM GAS  C:\Users\brian\AppData\Local\Temp\ccxdXFUh.s 			page 7


 142:..\u8g2\csrc/u8x8_d_t6963.c ****   /* tile_width = */ 30,
 143:..\u8g2\csrc/u8x8_d_t6963.c ****   /* tile_hight = */ 16,
 144:..\u8g2\csrc/u8x8_d_t6963.c ****   /* default_x_offset = */ 0,
 145:..\u8g2\csrc/u8x8_d_t6963.c ****   /* flipmode_x_offset = */ 0,
 146:..\u8g2\csrc/u8x8_d_t6963.c ****   /* pixel_width = */ 240,
 147:..\u8g2\csrc/u8x8_d_t6963.c ****   /* pixel_height = */ 128
 148:..\u8g2\csrc/u8x8_d_t6963.c **** };
 149:..\u8g2\csrc/u8x8_d_t6963.c **** 
 150:..\u8g2\csrc/u8x8_d_t6963.c **** /* 240x128 */
 151:..\u8g2\csrc/u8x8_d_t6963.c **** static const uint8_t u8x8_d_t6963_240x128_init_seq[] = {
 152:..\u8g2\csrc/u8x8_d_t6963.c ****   U8X8_DLY(100),
 153:..\u8g2\csrc/u8x8_d_t6963.c ****   U8X8_START_TRANSFER(),             	/* enable chip, delay is part of the transfer start */
 154:..\u8g2\csrc/u8x8_d_t6963.c ****   U8X8_DLY(100),
 155:..\u8g2\csrc/u8x8_d_t6963.c ****   
 156:..\u8g2\csrc/u8x8_d_t6963.c ****   U8X8_AAC(0x00,0x00,0x021),	/* low, high, set cursor pos */
 157:..\u8g2\csrc/u8x8_d_t6963.c ****   U8X8_AAC(0x00,0x00,0x022),	/* low, high, set offset */
 158:..\u8g2\csrc/u8x8_d_t6963.c ****   U8X8_AAC(0x00,0x00,0x040),	/* low, high, set text home */
 159:..\u8g2\csrc/u8x8_d_t6963.c ****   U8X8_AAC(240/8,0x00,0x041),	/* low, high, set text columns */
 160:..\u8g2\csrc/u8x8_d_t6963.c ****   U8X8_AAC(0x00,0x00,0x042),	/* low, high, graphics home */  
 161:..\u8g2\csrc/u8x8_d_t6963.c ****   U8X8_AAC(240/8,0x00,0x043),	/* low, high, graphics columns */
 162:..\u8g2\csrc/u8x8_d_t6963.c ****   U8X8_DLY(2),					/* delay 2ms */
 163:..\u8g2\csrc/u8x8_d_t6963.c ****   // mode set
 164:..\u8g2\csrc/u8x8_d_t6963.c ****   // 0x080: Internal CG, OR Mode
 165:..\u8g2\csrc/u8x8_d_t6963.c ****   // 0x081: Internal CG, EXOR Mode
 166:..\u8g2\csrc/u8x8_d_t6963.c ****   // 0x083: Internal CG, AND Mode
 167:..\u8g2\csrc/u8x8_d_t6963.c ****   // 0x088: External CG, OR Mode
 168:..\u8g2\csrc/u8x8_d_t6963.c ****   // 0x089: External CG, EXOR Mode
 169:..\u8g2\csrc/u8x8_d_t6963.c ****   // 0x08B: External CG, AND Mode
 170:..\u8g2\csrc/u8x8_d_t6963.c ****   U8X8_C(0x080),            			/* mode register: OR Mode, Internal Character Mode */
 171:..\u8g2\csrc/u8x8_d_t6963.c ****   // display mode
 172:..\u8g2\csrc/u8x8_d_t6963.c ****   // 0x090: Display off
 173:..\u8g2\csrc/u8x8_d_t6963.c ****   // 0x094: Graphic off, text on, cursor off, blink off
 174:..\u8g2\csrc/u8x8_d_t6963.c ****   // 0x096: Graphic off, text on, cursor on, blink off
 175:..\u8g2\csrc/u8x8_d_t6963.c ****   // 0x097: Graphic off, text on, cursor on, blink on
 176:..\u8g2\csrc/u8x8_d_t6963.c ****   // 0x098: Graphic on, text off, cursor off, blink off
 177:..\u8g2\csrc/u8x8_d_t6963.c ****   // 0x09a: Graphic on, text off, cursor on, blink off
 178:..\u8g2\csrc/u8x8_d_t6963.c ****   // ...
 179:..\u8g2\csrc/u8x8_d_t6963.c ****   // 0x09c: Graphic on, text on, cursor off, blink off
 180:..\u8g2\csrc/u8x8_d_t6963.c ****   // 0x09f: Graphic on, text on, cursor on, blink on
 181:..\u8g2\csrc/u8x8_d_t6963.c ****   U8X8_C(0x090),                             /* All Off */
 182:..\u8g2\csrc/u8x8_d_t6963.c ****   U8X8_AAC(0x00,0x00,0x024),	/* low, high, set adr pointer */
 183:..\u8g2\csrc/u8x8_d_t6963.c ****   
 184:..\u8g2\csrc/u8x8_d_t6963.c ****   U8X8_DLY(100),
 185:..\u8g2\csrc/u8x8_d_t6963.c ****   U8X8_END_TRANSFER(),             	/* disable chip */
 186:..\u8g2\csrc/u8x8_d_t6963.c ****   U8X8_DLY(100),
 187:..\u8g2\csrc/u8x8_d_t6963.c **** };
 188:..\u8g2\csrc/u8x8_d_t6963.c **** 
 189:..\u8g2\csrc/u8x8_d_t6963.c **** uint8_t u8x8_d_t6963_240x128(u8x8_t *u8x8, uint8_t msg, uint8_t arg_int, void *arg_ptr)
 190:..\u8g2\csrc/u8x8_d_t6963.c **** {
 181              		.loc 1 190 0
 182              		.cfi_startproc
 183              		@ args = 0, pretend = 0, frame = 0
 184              		@ frame_needed = 0, uses_anonymous_args = 0
 185              	.LVL30:
 186 0000 10B5     		push	{r4, lr}
 187              		.cfi_def_cfa_offset 8
 188              		.cfi_offset 4, -8
ARM GAS  C:\Users\brian\AppData\Local\Temp\ccxdXFUh.s 			page 8


 189              		.cfi_offset 14, -4
 190 0002 0446     		mov	r4, r0
 191:..\u8g2\csrc/u8x8_d_t6963.c ****   switch(msg)
 191              		.loc 1 191 0
 192 0004 0929     		cmp	r1, #9
 193 0006 02D0     		beq	.L15
 194 0008 0A29     		cmp	r1, #10
 195 000a 05D0     		beq	.L16
 196 000c 0CE0     		b	.L18
 197              	.L15:
 192:..\u8g2\csrc/u8x8_d_t6963.c ****   {
 193:..\u8g2\csrc/u8x8_d_t6963.c ****     case U8X8_MSG_DISPLAY_SETUP_MEMORY:
 194:..\u8g2\csrc/u8x8_d_t6963.c ****       u8x8_d_helper_display_setup_memory(u8x8, &u8x8_t6963_240x128_display_info);
 198              		.loc 1 194 0
 199 000e 0849     		ldr	r1, .L20
 200              	.LVL31:
 201 0010 FFF7FEFF 		bl	u8x8_d_helper_display_setup_memory
 202              	.LVL32:
 195:..\u8g2\csrc/u8x8_d_t6963.c ****       break;
 196:..\u8g2\csrc/u8x8_d_t6963.c ****     case U8X8_MSG_DISPLAY_INIT:
 197:..\u8g2\csrc/u8x8_d_t6963.c ****       u8x8_d_helper_display_init(u8x8);
 198:..\u8g2\csrc/u8x8_d_t6963.c ****       u8x8_cad_SendSequence(u8x8, u8x8_d_t6963_240x128_init_seq);
 199:..\u8g2\csrc/u8x8_d_t6963.c ****       break;
 200:..\u8g2\csrc/u8x8_d_t6963.c ****     default:
 201:..\u8g2\csrc/u8x8_d_t6963.c ****       return u8x8_d_t6963_common(u8x8, msg, arg_int, arg_ptr);
 202:..\u8g2\csrc/u8x8_d_t6963.c ****   }
 203:..\u8g2\csrc/u8x8_d_t6963.c ****   return 1;
 203              		.loc 1 203 0
 204 0014 0120     		movs	r0, #1
 195:..\u8g2\csrc/u8x8_d_t6963.c ****       break;
 205              		.loc 1 195 0
 206 0016 10BD     		pop	{r4, pc}
 207              	.LVL33:
 208              	.L16:
 197:..\u8g2\csrc/u8x8_d_t6963.c ****       u8x8_cad_SendSequence(u8x8, u8x8_d_t6963_240x128_init_seq);
 209              		.loc 1 197 0
 210 0018 FFF7FEFF 		bl	u8x8_d_helper_display_init
 211              	.LVL34:
 198:..\u8g2\csrc/u8x8_d_t6963.c ****       break;
 212              		.loc 1 198 0
 213 001c 0549     		ldr	r1, .L20+4
 214 001e 2046     		mov	r0, r4
 215 0020 FFF7FEFF 		bl	u8x8_cad_SendSequence
 216              	.LVL35:
 217              		.loc 1 203 0
 218 0024 0120     		movs	r0, #1
 199:..\u8g2\csrc/u8x8_d_t6963.c ****     default:
 219              		.loc 1 199 0
 220 0026 10BD     		pop	{r4, pc}
 221              	.LVL36:
 222              	.L18:
 201:..\u8g2\csrc/u8x8_d_t6963.c ****   }
 223              		.loc 1 201 0
 224 0028 FFF7FEFF 		bl	u8x8_d_t6963_common
 225              	.LVL37:
 204:..\u8g2\csrc/u8x8_d_t6963.c **** }
 226              		.loc 1 204 0
ARM GAS  C:\Users\brian\AppData\Local\Temp\ccxdXFUh.s 			page 9


 227 002c 10BD     		pop	{r4, pc}
 228              	.LVL38:
 229              	.L21:
 230 002e 00BF     		.align	2
 231              	.L20:
 232 0030 10000000 		.word	.LANCHOR0+16
 233 0034 28000000 		.word	.LANCHOR0+40
 234              		.cfi_endproc
 235              	.LFE1:
 236              		.size	u8x8_d_t6963_240x128, .-u8x8_d_t6963_240x128
 237              		.section	.text.u8x8_d_t6963_240x64,"ax",%progbits
 238              		.align	2
 239              		.global	u8x8_d_t6963_240x64
 240              		.thumb
 241              		.thumb_func
 242              		.type	u8x8_d_t6963_240x64, %function
 243              	u8x8_d_t6963_240x64:
 244              	.LFB2:
 205:..\u8g2\csrc/u8x8_d_t6963.c **** 
 206:..\u8g2\csrc/u8x8_d_t6963.c **** 
 207:..\u8g2\csrc/u8x8_d_t6963.c **** 
 208:..\u8g2\csrc/u8x8_d_t6963.c **** /*=============================================*/
 209:..\u8g2\csrc/u8x8_d_t6963.c **** 
 210:..\u8g2\csrc/u8x8_d_t6963.c **** static const u8x8_display_info_t u8x8_t6963_240x64_display_info =
 211:..\u8g2\csrc/u8x8_d_t6963.c **** {
 212:..\u8g2\csrc/u8x8_d_t6963.c ****   /* chip_enable_level = */ 0,
 213:..\u8g2\csrc/u8x8_d_t6963.c ****   /* chip_disable_level = */ 1,
 214:..\u8g2\csrc/u8x8_d_t6963.c ****   
 215:..\u8g2\csrc/u8x8_d_t6963.c ****   /* post_chip_enable_wait_ns = */ 110,	/* T6963 Datasheet p30 */
 216:..\u8g2\csrc/u8x8_d_t6963.c ****   /* pre_chip_disable_wait_ns = */ 100,	/* T6963 Datasheet p30 */
 217:..\u8g2\csrc/u8x8_d_t6963.c ****   /* reset_pulse_width_ms = */ 1, 
 218:..\u8g2\csrc/u8x8_d_t6963.c ****   /* post_reset_wait_ms = */ 6, 
 219:..\u8g2\csrc/u8x8_d_t6963.c ****   /* sda_setup_time_ns = */ 20,		
 220:..\u8g2\csrc/u8x8_d_t6963.c ****   /* sck_pulse_width_ns = */  140,	
 221:..\u8g2\csrc/u8x8_d_t6963.c ****   /* sck_clock_hz = */ 1000000UL,	/* since Arduino 1.6.0, the SPI bus speed in Hz. Should be  10000
 222:..\u8g2\csrc/u8x8_d_t6963.c ****   /* spi_mode = */ 0,		
 223:..\u8g2\csrc/u8x8_d_t6963.c ****   /* i2c_bus_clock_100kHz = */ 4,
 224:..\u8g2\csrc/u8x8_d_t6963.c ****   /* data_setup_time_ns = */ 80,
 225:..\u8g2\csrc/u8x8_d_t6963.c ****   /* write_pulse_width_ns = */ 80,
 226:..\u8g2\csrc/u8x8_d_t6963.c ****   /* tile_width = */ 30,
 227:..\u8g2\csrc/u8x8_d_t6963.c ****   /* tile_hight = */ 8,
 228:..\u8g2\csrc/u8x8_d_t6963.c ****   /* default_x_offset = */ 0,
 229:..\u8g2\csrc/u8x8_d_t6963.c ****   /* flipmode_x_offset = */ 0,
 230:..\u8g2\csrc/u8x8_d_t6963.c ****   /* pixel_width = */ 240,
 231:..\u8g2\csrc/u8x8_d_t6963.c ****   /* pixel_height = */ 64
 232:..\u8g2\csrc/u8x8_d_t6963.c **** };
 233:..\u8g2\csrc/u8x8_d_t6963.c **** 
 234:..\u8g2\csrc/u8x8_d_t6963.c **** 
 235:..\u8g2\csrc/u8x8_d_t6963.c **** /* 240x64 */
 236:..\u8g2\csrc/u8x8_d_t6963.c **** static const uint8_t u8x8_d_t6963_240x64_init_seq[] = {
 237:..\u8g2\csrc/u8x8_d_t6963.c ****   U8X8_DLY(100),
 238:..\u8g2\csrc/u8x8_d_t6963.c ****   U8X8_START_TRANSFER(),             	/* enable chip, delay is part of the transfer start */
 239:..\u8g2\csrc/u8x8_d_t6963.c ****   U8X8_DLY(100),
 240:..\u8g2\csrc/u8x8_d_t6963.c ****   
 241:..\u8g2\csrc/u8x8_d_t6963.c ****   U8X8_AAC(0x00,0x00,0x021),	/* low, high, set cursor pos */
 242:..\u8g2\csrc/u8x8_d_t6963.c ****   U8X8_AAC(0x00,0x00,0x022),	/* low, high, set offset */
 243:..\u8g2\csrc/u8x8_d_t6963.c ****   U8X8_AAC(0x00,0x00,0x040),	/* low, high, set text home */
ARM GAS  C:\Users\brian\AppData\Local\Temp\ccxdXFUh.s 			page 10


 244:..\u8g2\csrc/u8x8_d_t6963.c ****   U8X8_AAC(240/8,0x00,0x041),	/* low, high, set text columns */
 245:..\u8g2\csrc/u8x8_d_t6963.c ****   U8X8_AAC(0x00,0x00,0x042),	/* low, high, graphics home */  
 246:..\u8g2\csrc/u8x8_d_t6963.c ****   U8X8_AAC(240/8,0x00,0x043),	/* low, high, graphics columns */
 247:..\u8g2\csrc/u8x8_d_t6963.c ****   U8X8_DLY(2),					/* delay 2ms */
 248:..\u8g2\csrc/u8x8_d_t6963.c ****   // mode set
 249:..\u8g2\csrc/u8x8_d_t6963.c ****   // 0x080: Internal CG, OR Mode
 250:..\u8g2\csrc/u8x8_d_t6963.c ****   // 0x081: Internal CG, EXOR Mode
 251:..\u8g2\csrc/u8x8_d_t6963.c ****   // 0x083: Internal CG, AND Mode
 252:..\u8g2\csrc/u8x8_d_t6963.c ****   // 0x088: External CG, OR Mode
 253:..\u8g2\csrc/u8x8_d_t6963.c ****   // 0x089: External CG, EXOR Mode
 254:..\u8g2\csrc/u8x8_d_t6963.c ****   // 0x08B: External CG, AND Mode
 255:..\u8g2\csrc/u8x8_d_t6963.c ****   U8X8_C(0x080),            			/* mode register: OR Mode, Internal Character Mode */
 256:..\u8g2\csrc/u8x8_d_t6963.c ****   // display mode
 257:..\u8g2\csrc/u8x8_d_t6963.c ****   // 0x090: Display off
 258:..\u8g2\csrc/u8x8_d_t6963.c ****   // 0x094: Graphic off, text on, cursor off, blink off
 259:..\u8g2\csrc/u8x8_d_t6963.c ****   // 0x096: Graphic off, text on, cursor on, blink off
 260:..\u8g2\csrc/u8x8_d_t6963.c ****   // 0x097: Graphic off, text on, cursor on, blink on
 261:..\u8g2\csrc/u8x8_d_t6963.c ****   // 0x098: Graphic on, text off, cursor off, blink off
 262:..\u8g2\csrc/u8x8_d_t6963.c ****   // 0x09a: Graphic on, text off, cursor on, blink off
 263:..\u8g2\csrc/u8x8_d_t6963.c ****   // ...
 264:..\u8g2\csrc/u8x8_d_t6963.c ****   // 0x09c: Graphic on, text on, cursor off, blink off
 265:..\u8g2\csrc/u8x8_d_t6963.c ****   // 0x09f: Graphic on, text on, cursor on, blink on
 266:..\u8g2\csrc/u8x8_d_t6963.c ****   U8X8_C(0x090),                             /* All Off */
 267:..\u8g2\csrc/u8x8_d_t6963.c ****   U8X8_AAC(0x00,0x00,0x024),	/* low, high, set adr pointer */
 268:..\u8g2\csrc/u8x8_d_t6963.c ****   
 269:..\u8g2\csrc/u8x8_d_t6963.c ****   U8X8_DLY(100),
 270:..\u8g2\csrc/u8x8_d_t6963.c ****   U8X8_END_TRANSFER(),             	/* disable chip */
 271:..\u8g2\csrc/u8x8_d_t6963.c ****   U8X8_DLY(100),
 272:..\u8g2\csrc/u8x8_d_t6963.c **** };
 273:..\u8g2\csrc/u8x8_d_t6963.c **** 
 274:..\u8g2\csrc/u8x8_d_t6963.c **** uint8_t u8x8_d_t6963_240x64(u8x8_t *u8x8, uint8_t msg, uint8_t arg_int, void *arg_ptr)
 275:..\u8g2\csrc/u8x8_d_t6963.c **** {
 245              		.loc 1 275 0
 246              		.cfi_startproc
 247              		@ args = 0, pretend = 0, frame = 0
 248              		@ frame_needed = 0, uses_anonymous_args = 0
 249              	.LVL39:
 250 0000 10B5     		push	{r4, lr}
 251              		.cfi_def_cfa_offset 8
 252              		.cfi_offset 4, -8
 253              		.cfi_offset 14, -4
 254 0002 0446     		mov	r4, r0
 276:..\u8g2\csrc/u8x8_d_t6963.c ****   switch(msg)
 255              		.loc 1 276 0
 256 0004 0929     		cmp	r1, #9
 257 0006 02D0     		beq	.L24
 258 0008 0A29     		cmp	r1, #10
 259 000a 05D0     		beq	.L25
 260 000c 0CE0     		b	.L27
 261              	.L24:
 277:..\u8g2\csrc/u8x8_d_t6963.c ****   {
 278:..\u8g2\csrc/u8x8_d_t6963.c ****     case U8X8_MSG_DISPLAY_SETUP_MEMORY:
 279:..\u8g2\csrc/u8x8_d_t6963.c ****       u8x8_d_helper_display_setup_memory(u8x8, &u8x8_t6963_240x64_display_info);
 262              		.loc 1 279 0
 263 000e 0849     		ldr	r1, .L29
 264              	.LVL40:
 265 0010 FFF7FEFF 		bl	u8x8_d_helper_display_setup_memory
ARM GAS  C:\Users\brian\AppData\Local\Temp\ccxdXFUh.s 			page 11


 266              	.LVL41:
 280:..\u8g2\csrc/u8x8_d_t6963.c ****       break;
 281:..\u8g2\csrc/u8x8_d_t6963.c ****     case U8X8_MSG_DISPLAY_INIT:
 282:..\u8g2\csrc/u8x8_d_t6963.c ****       u8x8_d_helper_display_init(u8x8);
 283:..\u8g2\csrc/u8x8_d_t6963.c ****       u8x8_cad_SendSequence(u8x8, u8x8_d_t6963_240x64_init_seq);
 284:..\u8g2\csrc/u8x8_d_t6963.c ****       break;
 285:..\u8g2\csrc/u8x8_d_t6963.c ****     default:
 286:..\u8g2\csrc/u8x8_d_t6963.c ****       return u8x8_d_t6963_common(u8x8, msg, arg_int, arg_ptr);
 287:..\u8g2\csrc/u8x8_d_t6963.c ****   }
 288:..\u8g2\csrc/u8x8_d_t6963.c ****   return 1;
 267              		.loc 1 288 0
 268 0014 0120     		movs	r0, #1
 280:..\u8g2\csrc/u8x8_d_t6963.c ****       break;
 269              		.loc 1 280 0
 270 0016 10BD     		pop	{r4, pc}
 271              	.LVL42:
 272              	.L25:
 282:..\u8g2\csrc/u8x8_d_t6963.c ****       u8x8_cad_SendSequence(u8x8, u8x8_d_t6963_240x64_init_seq);
 273              		.loc 1 282 0
 274 0018 FFF7FEFF 		bl	u8x8_d_helper_display_init
 275              	.LVL43:
 283:..\u8g2\csrc/u8x8_d_t6963.c ****       break;
 276              		.loc 1 283 0
 277 001c 0549     		ldr	r1, .L29+4
 278 001e 2046     		mov	r0, r4
 279 0020 FFF7FEFF 		bl	u8x8_cad_SendSequence
 280              	.LVL44:
 281              		.loc 1 288 0
 282 0024 0120     		movs	r0, #1
 284:..\u8g2\csrc/u8x8_d_t6963.c ****     default:
 283              		.loc 1 284 0
 284 0026 10BD     		pop	{r4, pc}
 285              	.LVL45:
 286              	.L27:
 286:..\u8g2\csrc/u8x8_d_t6963.c ****   }
 287              		.loc 1 286 0
 288 0028 FFF7FEFF 		bl	u8x8_d_t6963_common
 289              	.LVL46:
 289:..\u8g2\csrc/u8x8_d_t6963.c **** }
 290              		.loc 1 289 0
 291 002c 10BD     		pop	{r4, pc}
 292              	.LVL47:
 293              	.L30:
 294 002e 00BF     		.align	2
 295              	.L29:
 296 0030 64000000 		.word	.LANCHOR0+100
 297 0034 7C000000 		.word	.LANCHOR0+124
 298              		.cfi_endproc
 299              	.LFE2:
 300              		.size	u8x8_d_t6963_240x64, .-u8x8_d_t6963_240x64
 301              		.section	.text.u8x8_d_t6963_256x64,"ax",%progbits
 302              		.align	2
 303              		.global	u8x8_d_t6963_256x64
 304              		.thumb
 305              		.thumb_func
 306              		.type	u8x8_d_t6963_256x64, %function
 307              	u8x8_d_t6963_256x64:
ARM GAS  C:\Users\brian\AppData\Local\Temp\ccxdXFUh.s 			page 12


 308              	.LFB3:
 290:..\u8g2\csrc/u8x8_d_t6963.c **** 
 291:..\u8g2\csrc/u8x8_d_t6963.c **** 
 292:..\u8g2\csrc/u8x8_d_t6963.c **** 
 293:..\u8g2\csrc/u8x8_d_t6963.c **** /*=============================================*/
 294:..\u8g2\csrc/u8x8_d_t6963.c **** 
 295:..\u8g2\csrc/u8x8_d_t6963.c **** 
 296:..\u8g2\csrc/u8x8_d_t6963.c **** 
 297:..\u8g2\csrc/u8x8_d_t6963.c **** static const u8x8_display_info_t u8x8_t6963_256x64_display_info =
 298:..\u8g2\csrc/u8x8_d_t6963.c **** {
 299:..\u8g2\csrc/u8x8_d_t6963.c ****   /* chip_enable_level = */ 0,
 300:..\u8g2\csrc/u8x8_d_t6963.c ****   /* chip_disable_level = */ 1,
 301:..\u8g2\csrc/u8x8_d_t6963.c ****   
 302:..\u8g2\csrc/u8x8_d_t6963.c ****   /* post_chip_enable_wait_ns = */ 110,	/* T6963 Datasheet p30 */
 303:..\u8g2\csrc/u8x8_d_t6963.c ****   /* pre_chip_disable_wait_ns = */ 100,	/* T6963 Datasheet p30 */
 304:..\u8g2\csrc/u8x8_d_t6963.c ****   /* reset_pulse_width_ms = */ 1, 
 305:..\u8g2\csrc/u8x8_d_t6963.c ****   /* post_reset_wait_ms = */ 6, 
 306:..\u8g2\csrc/u8x8_d_t6963.c ****   /* sda_setup_time_ns = */ 20,		
 307:..\u8g2\csrc/u8x8_d_t6963.c ****   /* sck_pulse_width_ns = */  140,	
 308:..\u8g2\csrc/u8x8_d_t6963.c ****   /* sck_clock_hz = */ 1000000UL,	/* since Arduino 1.6.0, the SPI bus speed in Hz. Should be  10000
 309:..\u8g2\csrc/u8x8_d_t6963.c ****   /* spi_mode = */ 0,		
 310:..\u8g2\csrc/u8x8_d_t6963.c ****   /* i2c_bus_clock_100kHz = */ 4,
 311:..\u8g2\csrc/u8x8_d_t6963.c ****   /* data_setup_time_ns = */ 80,
 312:..\u8g2\csrc/u8x8_d_t6963.c ****   /* write_pulse_width_ns = */ 80,
 313:..\u8g2\csrc/u8x8_d_t6963.c ****   /* tile_width = */ 32,
 314:..\u8g2\csrc/u8x8_d_t6963.c ****   /* tile_hight = */ 8,
 315:..\u8g2\csrc/u8x8_d_t6963.c ****   /* default_x_offset = */ 0,
 316:..\u8g2\csrc/u8x8_d_t6963.c ****   /* flipmode_x_offset = */ 0,
 317:..\u8g2\csrc/u8x8_d_t6963.c ****   /* pixel_width = */ 256,
 318:..\u8g2\csrc/u8x8_d_t6963.c ****   /* pixel_height = */ 64
 319:..\u8g2\csrc/u8x8_d_t6963.c **** };
 320:..\u8g2\csrc/u8x8_d_t6963.c **** 
 321:..\u8g2\csrc/u8x8_d_t6963.c **** /* 256x64 */
 322:..\u8g2\csrc/u8x8_d_t6963.c **** static const uint8_t u8x8_d_t6963_256x64_init_seq[] = {
 323:..\u8g2\csrc/u8x8_d_t6963.c ****   U8X8_DLY(100),
 324:..\u8g2\csrc/u8x8_d_t6963.c ****   U8X8_START_TRANSFER(),             	/* enable chip, delay is part of the transfer start */
 325:..\u8g2\csrc/u8x8_d_t6963.c ****   U8X8_DLY(100),
 326:..\u8g2\csrc/u8x8_d_t6963.c ****   
 327:..\u8g2\csrc/u8x8_d_t6963.c ****   U8X8_AAC(0x00,0x00,0x021),	/* low, high, set cursor pos */
 328:..\u8g2\csrc/u8x8_d_t6963.c ****   U8X8_AAC(0x00,0x00,0x022),	/* low, high, set offset */
 329:..\u8g2\csrc/u8x8_d_t6963.c ****   U8X8_AAC(0x00,0x00,0x040),	/* low, high, set text home */
 330:..\u8g2\csrc/u8x8_d_t6963.c ****   U8X8_AAC(256/8,0x00,0x041),	/* low, high, set text columns */
 331:..\u8g2\csrc/u8x8_d_t6963.c ****   U8X8_AAC(0x00,0x00,0x042),	/* low, high, graphics home */  
 332:..\u8g2\csrc/u8x8_d_t6963.c ****   U8X8_AAC(256/8,0x00,0x043),	/* low, high, graphics columns */
 333:..\u8g2\csrc/u8x8_d_t6963.c ****   U8X8_DLY(2),					/* delay 2ms */
 334:..\u8g2\csrc/u8x8_d_t6963.c ****   // mode set
 335:..\u8g2\csrc/u8x8_d_t6963.c ****   // 0x080: Internal CG, OR Mode
 336:..\u8g2\csrc/u8x8_d_t6963.c ****   // 0x081: Internal CG, EXOR Mode
 337:..\u8g2\csrc/u8x8_d_t6963.c ****   // 0x083: Internal CG, AND Mode
 338:..\u8g2\csrc/u8x8_d_t6963.c ****   // 0x088: External CG, OR Mode
 339:..\u8g2\csrc/u8x8_d_t6963.c ****   // 0x089: External CG, EXOR Mode
 340:..\u8g2\csrc/u8x8_d_t6963.c ****   // 0x08B: External CG, AND Mode
 341:..\u8g2\csrc/u8x8_d_t6963.c ****   U8X8_C(0x080),            			/* mode register: OR Mode, Internal Character Mode */
 342:..\u8g2\csrc/u8x8_d_t6963.c ****   // display mode
 343:..\u8g2\csrc/u8x8_d_t6963.c ****   // 0x090: Display off
 344:..\u8g2\csrc/u8x8_d_t6963.c ****   // 0x094: Graphic off, text on, cursor off, blink off
 345:..\u8g2\csrc/u8x8_d_t6963.c ****   // 0x096: Graphic off, text on, cursor on, blink off
ARM GAS  C:\Users\brian\AppData\Local\Temp\ccxdXFUh.s 			page 13


 346:..\u8g2\csrc/u8x8_d_t6963.c ****   // 0x097: Graphic off, text on, cursor on, blink on
 347:..\u8g2\csrc/u8x8_d_t6963.c ****   // 0x098: Graphic on, text off, cursor off, blink off
 348:..\u8g2\csrc/u8x8_d_t6963.c ****   // 0x09a: Graphic on, text off, cursor on, blink off
 349:..\u8g2\csrc/u8x8_d_t6963.c ****   // ...
 350:..\u8g2\csrc/u8x8_d_t6963.c ****   // 0x09c: Graphic on, text on, cursor off, blink off
 351:..\u8g2\csrc/u8x8_d_t6963.c ****   // 0x09f: Graphic on, text on, cursor on, blink on
 352:..\u8g2\csrc/u8x8_d_t6963.c ****   U8X8_C(0x090),                             /* All Off */
 353:..\u8g2\csrc/u8x8_d_t6963.c ****   U8X8_AAC(0x00,0x00,0x024),	/* low, high, set adr pointer */
 354:..\u8g2\csrc/u8x8_d_t6963.c ****   
 355:..\u8g2\csrc/u8x8_d_t6963.c ****   U8X8_DLY(100),
 356:..\u8g2\csrc/u8x8_d_t6963.c ****   U8X8_END_TRANSFER(),             	/* disable chip */
 357:..\u8g2\csrc/u8x8_d_t6963.c ****   U8X8_DLY(100),
 358:..\u8g2\csrc/u8x8_d_t6963.c **** };
 359:..\u8g2\csrc/u8x8_d_t6963.c **** 
 360:..\u8g2\csrc/u8x8_d_t6963.c **** uint8_t u8x8_d_t6963_256x64(u8x8_t *u8x8, uint8_t msg, uint8_t arg_int, void *arg_ptr)
 361:..\u8g2\csrc/u8x8_d_t6963.c **** {
 309              		.loc 1 361 0
 310              		.cfi_startproc
 311              		@ args = 0, pretend = 0, frame = 0
 312              		@ frame_needed = 0, uses_anonymous_args = 0
 313              	.LVL48:
 314 0000 10B5     		push	{r4, lr}
 315              		.cfi_def_cfa_offset 8
 316              		.cfi_offset 4, -8
 317              		.cfi_offset 14, -4
 318 0002 0446     		mov	r4, r0
 362:..\u8g2\csrc/u8x8_d_t6963.c ****   switch(msg)
 319              		.loc 1 362 0
 320 0004 0929     		cmp	r1, #9
 321 0006 02D0     		beq	.L33
 322 0008 0A29     		cmp	r1, #10
 323 000a 05D0     		beq	.L34
 324 000c 0CE0     		b	.L36
 325              	.L33:
 363:..\u8g2\csrc/u8x8_d_t6963.c ****   {
 364:..\u8g2\csrc/u8x8_d_t6963.c ****     case U8X8_MSG_DISPLAY_SETUP_MEMORY:
 365:..\u8g2\csrc/u8x8_d_t6963.c ****       u8x8_d_helper_display_setup_memory(u8x8, &u8x8_t6963_256x64_display_info);
 326              		.loc 1 365 0
 327 000e 0849     		ldr	r1, .L38
 328              	.LVL49:
 329 0010 FFF7FEFF 		bl	u8x8_d_helper_display_setup_memory
 330              	.LVL50:
 366:..\u8g2\csrc/u8x8_d_t6963.c ****       break;
 367:..\u8g2\csrc/u8x8_d_t6963.c ****     case U8X8_MSG_DISPLAY_INIT:
 368:..\u8g2\csrc/u8x8_d_t6963.c ****       u8x8_d_helper_display_init(u8x8);
 369:..\u8g2\csrc/u8x8_d_t6963.c ****       u8x8_cad_SendSequence(u8x8, u8x8_d_t6963_256x64_init_seq);
 370:..\u8g2\csrc/u8x8_d_t6963.c ****       break;
 371:..\u8g2\csrc/u8x8_d_t6963.c ****     default:
 372:..\u8g2\csrc/u8x8_d_t6963.c ****       return u8x8_d_t6963_common(u8x8, msg, arg_int, arg_ptr);
 373:..\u8g2\csrc/u8x8_d_t6963.c ****   }
 374:..\u8g2\csrc/u8x8_d_t6963.c ****   return 1;
 331              		.loc 1 374 0
 332 0014 0120     		movs	r0, #1
 366:..\u8g2\csrc/u8x8_d_t6963.c ****       break;
 333              		.loc 1 366 0
 334 0016 10BD     		pop	{r4, pc}
 335              	.LVL51:
ARM GAS  C:\Users\brian\AppData\Local\Temp\ccxdXFUh.s 			page 14


 336              	.L34:
 368:..\u8g2\csrc/u8x8_d_t6963.c ****       u8x8_cad_SendSequence(u8x8, u8x8_d_t6963_256x64_init_seq);
 337              		.loc 1 368 0
 338 0018 FFF7FEFF 		bl	u8x8_d_helper_display_init
 339              	.LVL52:
 369:..\u8g2\csrc/u8x8_d_t6963.c ****       break;
 340              		.loc 1 369 0
 341 001c 0549     		ldr	r1, .L38+4
 342 001e 2046     		mov	r0, r4
 343 0020 FFF7FEFF 		bl	u8x8_cad_SendSequence
 344              	.LVL53:
 345              		.loc 1 374 0
 346 0024 0120     		movs	r0, #1
 370:..\u8g2\csrc/u8x8_d_t6963.c ****     default:
 347              		.loc 1 370 0
 348 0026 10BD     		pop	{r4, pc}
 349              	.LVL54:
 350              	.L36:
 372:..\u8g2\csrc/u8x8_d_t6963.c ****   }
 351              		.loc 1 372 0
 352 0028 FFF7FEFF 		bl	u8x8_d_t6963_common
 353              	.LVL55:
 375:..\u8g2\csrc/u8x8_d_t6963.c **** }
 354              		.loc 1 375 0
 355 002c 10BD     		pop	{r4, pc}
 356              	.LVL56:
 357              	.L39:
 358 002e 00BF     		.align	2
 359              	.L38:
 360 0030 B8000000 		.word	.LANCHOR0+184
 361 0034 D0000000 		.word	.LANCHOR0+208
 362              		.cfi_endproc
 363              	.LFE3:
 364              		.size	u8x8_d_t6963_256x64, .-u8x8_d_t6963_256x64
 365              		.section	.text.u8x8_d_t6963_128x64,"ax",%progbits
 366              		.align	2
 367              		.global	u8x8_d_t6963_128x64
 368              		.thumb
 369              		.thumb_func
 370              		.type	u8x8_d_t6963_128x64, %function
 371              	u8x8_d_t6963_128x64:
 372              	.LFB4:
 376:..\u8g2\csrc/u8x8_d_t6963.c **** 
 377:..\u8g2\csrc/u8x8_d_t6963.c **** 
 378:..\u8g2\csrc/u8x8_d_t6963.c **** /*=============================================*/
 379:..\u8g2\csrc/u8x8_d_t6963.c **** 
 380:..\u8g2\csrc/u8x8_d_t6963.c **** static const u8x8_display_info_t u8x8_t6963_128x64_display_info =
 381:..\u8g2\csrc/u8x8_d_t6963.c **** {
 382:..\u8g2\csrc/u8x8_d_t6963.c ****   /* chip_enable_level = */ 1,
 383:..\u8g2\csrc/u8x8_d_t6963.c ****   /* chip_disable_level = */ 0,
 384:..\u8g2\csrc/u8x8_d_t6963.c ****   
 385:..\u8g2\csrc/u8x8_d_t6963.c ****   /* post_chip_enable_wait_ns = */ 10,	/* T6963 Datasheet p30 */
 386:..\u8g2\csrc/u8x8_d_t6963.c ****   /* pre_chip_disable_wait_ns = */ 100,	/* T6963 Datasheet p30 */
 387:..\u8g2\csrc/u8x8_d_t6963.c ****   /* reset_pulse_width_ms = */ 1, 
 388:..\u8g2\csrc/u8x8_d_t6963.c ****   /* post_reset_wait_ms = */ 6, 
 389:..\u8g2\csrc/u8x8_d_t6963.c ****   /* sda_setup_time_ns = */ 20,		
 390:..\u8g2\csrc/u8x8_d_t6963.c ****   /* sck_pulse_width_ns = */  140,	
ARM GAS  C:\Users\brian\AppData\Local\Temp\ccxdXFUh.s 			page 15


 391:..\u8g2\csrc/u8x8_d_t6963.c ****   /* sck_clock_hz = */ 1000000UL,	/* since Arduino 1.6.0, the SPI bus speed in Hz. Should be  10000
 392:..\u8g2\csrc/u8x8_d_t6963.c ****   /* spi_mode = */ 0,		
 393:..\u8g2\csrc/u8x8_d_t6963.c ****   /* i2c_bus_clock_100kHz = */ 4,
 394:..\u8g2\csrc/u8x8_d_t6963.c ****   /* data_setup_time_ns = */ 80,
 395:..\u8g2\csrc/u8x8_d_t6963.c ****   /* write_pulse_width_ns = */ 80,
 396:..\u8g2\csrc/u8x8_d_t6963.c ****   /* tile_width = */ 16,
 397:..\u8g2\csrc/u8x8_d_t6963.c ****   /* tile_hight = */ 8,
 398:..\u8g2\csrc/u8x8_d_t6963.c ****   /* default_x_offset = */ 0,
 399:..\u8g2\csrc/u8x8_d_t6963.c ****   /* flipmode_x_offset = */ 0,
 400:..\u8g2\csrc/u8x8_d_t6963.c ****   /* pixel_width = */ 128,
 401:..\u8g2\csrc/u8x8_d_t6963.c ****   /* pixel_height = */ 64
 402:..\u8g2\csrc/u8x8_d_t6963.c **** };
 403:..\u8g2\csrc/u8x8_d_t6963.c **** 
 404:..\u8g2\csrc/u8x8_d_t6963.c **** /* 128x64 */
 405:..\u8g2\csrc/u8x8_d_t6963.c **** static const uint8_t u8x8_d_t6963_128x64_init_seq[] = {
 406:..\u8g2\csrc/u8x8_d_t6963.c ****   U8X8_DLY(100),
 407:..\u8g2\csrc/u8x8_d_t6963.c ****   U8X8_START_TRANSFER(),             	/* enable chip, delay is part of the transfer start */
 408:..\u8g2\csrc/u8x8_d_t6963.c ****   U8X8_DLY(100),
 409:..\u8g2\csrc/u8x8_d_t6963.c ****   
 410:..\u8g2\csrc/u8x8_d_t6963.c ****   U8X8_AAC(0x00,0x00,0x021),	/* low, high, set cursor pos */
 411:..\u8g2\csrc/u8x8_d_t6963.c ****   U8X8_AAC(0x00,0x00,0x022),	/* low, high, set offset */
 412:..\u8g2\csrc/u8x8_d_t6963.c ****   U8X8_AAC(0x00,0x00,0x040),	/* low, high, set text home */
 413:..\u8g2\csrc/u8x8_d_t6963.c ****   U8X8_AAC(128/8,0x00,0x041),	/* low, high, set text columns */
 414:..\u8g2\csrc/u8x8_d_t6963.c ****   U8X8_AAC(0x00,0x00,0x042),	/* low, high, graphics home */  
 415:..\u8g2\csrc/u8x8_d_t6963.c ****   U8X8_AAC(128/8,0x00,0x043),	/* low, high, graphics columns */
 416:..\u8g2\csrc/u8x8_d_t6963.c ****   U8X8_DLY(2),					/* delay 2ms */
 417:..\u8g2\csrc/u8x8_d_t6963.c ****   // mode set
 418:..\u8g2\csrc/u8x8_d_t6963.c ****   // 0x080: Internal CG, OR Mode
 419:..\u8g2\csrc/u8x8_d_t6963.c ****   // 0x081: Internal CG, EXOR Mode
 420:..\u8g2\csrc/u8x8_d_t6963.c ****   // 0x083: Internal CG, AND Mode
 421:..\u8g2\csrc/u8x8_d_t6963.c ****   // 0x088: External CG, OR Mode
 422:..\u8g2\csrc/u8x8_d_t6963.c ****   // 0x089: External CG, EXOR Mode
 423:..\u8g2\csrc/u8x8_d_t6963.c ****   // 0x08B: External CG, AND Mode
 424:..\u8g2\csrc/u8x8_d_t6963.c ****   U8X8_C(0x080),            			/* mode register: OR Mode, Internal Character Mode */
 425:..\u8g2\csrc/u8x8_d_t6963.c ****   // display mode
 426:..\u8g2\csrc/u8x8_d_t6963.c ****   // 0x090: Display off
 427:..\u8g2\csrc/u8x8_d_t6963.c ****   // 0x094: Graphic off, text on, cursor off, blink off
 428:..\u8g2\csrc/u8x8_d_t6963.c ****   // 0x096: Graphic off, text on, cursor on, blink off
 429:..\u8g2\csrc/u8x8_d_t6963.c ****   // 0x097: Graphic off, text on, cursor on, blink on
 430:..\u8g2\csrc/u8x8_d_t6963.c ****   // 0x098: Graphic on, text off, cursor off, blink off
 431:..\u8g2\csrc/u8x8_d_t6963.c ****   // 0x09a: Graphic on, text off, cursor on, blink off
 432:..\u8g2\csrc/u8x8_d_t6963.c ****   // ...
 433:..\u8g2\csrc/u8x8_d_t6963.c ****   // 0x09c: Graphic on, text on, cursor off, blink off
 434:..\u8g2\csrc/u8x8_d_t6963.c ****   // 0x09f: Graphic on, text on, cursor on, blink on
 435:..\u8g2\csrc/u8x8_d_t6963.c ****   U8X8_C(0x090),                             /* All Off */
 436:..\u8g2\csrc/u8x8_d_t6963.c ****   U8X8_AAC(0x00,0x00,0x024),	/* low, high, set adr pointer */
 437:..\u8g2\csrc/u8x8_d_t6963.c ****   
 438:..\u8g2\csrc/u8x8_d_t6963.c ****   U8X8_DLY(100),
 439:..\u8g2\csrc/u8x8_d_t6963.c ****   U8X8_END_TRANSFER(),             	/* disable chip */
 440:..\u8g2\csrc/u8x8_d_t6963.c ****   U8X8_DLY(100),
 441:..\u8g2\csrc/u8x8_d_t6963.c **** };
 442:..\u8g2\csrc/u8x8_d_t6963.c **** 
 443:..\u8g2\csrc/u8x8_d_t6963.c **** uint8_t u8x8_d_t6963_128x64(u8x8_t *u8x8, uint8_t msg, uint8_t arg_int, void *arg_ptr)
 444:..\u8g2\csrc/u8x8_d_t6963.c **** {
 373              		.loc 1 444 0
 374              		.cfi_startproc
 375              		@ args = 0, pretend = 0, frame = 0
ARM GAS  C:\Users\brian\AppData\Local\Temp\ccxdXFUh.s 			page 16


 376              		@ frame_needed = 0, uses_anonymous_args = 0
 377              	.LVL57:
 378 0000 10B5     		push	{r4, lr}
 379              		.cfi_def_cfa_offset 8
 380              		.cfi_offset 4, -8
 381              		.cfi_offset 14, -4
 382 0002 0446     		mov	r4, r0
 445:..\u8g2\csrc/u8x8_d_t6963.c ****   switch(msg)
 383              		.loc 1 445 0
 384 0004 0929     		cmp	r1, #9
 385 0006 02D0     		beq	.L42
 386 0008 0A29     		cmp	r1, #10
 387 000a 05D0     		beq	.L43
 388 000c 0CE0     		b	.L45
 389              	.L42:
 446:..\u8g2\csrc/u8x8_d_t6963.c ****   {
 447:..\u8g2\csrc/u8x8_d_t6963.c ****     case U8X8_MSG_DISPLAY_SETUP_MEMORY:
 448:..\u8g2\csrc/u8x8_d_t6963.c ****       u8x8_d_helper_display_setup_memory(u8x8, &u8x8_t6963_128x64_display_info);
 390              		.loc 1 448 0
 391 000e 0849     		ldr	r1, .L47
 392              	.LVL58:
 393 0010 FFF7FEFF 		bl	u8x8_d_helper_display_setup_memory
 394              	.LVL59:
 449:..\u8g2\csrc/u8x8_d_t6963.c ****       break;
 450:..\u8g2\csrc/u8x8_d_t6963.c ****     case U8X8_MSG_DISPLAY_INIT:
 451:..\u8g2\csrc/u8x8_d_t6963.c ****       u8x8_d_helper_display_init(u8x8);
 452:..\u8g2\csrc/u8x8_d_t6963.c ****       u8x8_cad_SendSequence(u8x8, u8x8_d_t6963_128x64_init_seq);
 453:..\u8g2\csrc/u8x8_d_t6963.c ****       break;
 454:..\u8g2\csrc/u8x8_d_t6963.c ****     default:
 455:..\u8g2\csrc/u8x8_d_t6963.c ****       return u8x8_d_t6963_common(u8x8, msg, arg_int, arg_ptr);
 456:..\u8g2\csrc/u8x8_d_t6963.c ****   }
 457:..\u8g2\csrc/u8x8_d_t6963.c ****   return 1;
 395              		.loc 1 457 0
 396 0014 0120     		movs	r0, #1
 449:..\u8g2\csrc/u8x8_d_t6963.c ****       break;
 397              		.loc 1 449 0
 398 0016 10BD     		pop	{r4, pc}
 399              	.LVL60:
 400              	.L43:
 451:..\u8g2\csrc/u8x8_d_t6963.c ****       u8x8_cad_SendSequence(u8x8, u8x8_d_t6963_128x64_init_seq);
 401              		.loc 1 451 0
 402 0018 FFF7FEFF 		bl	u8x8_d_helper_display_init
 403              	.LVL61:
 452:..\u8g2\csrc/u8x8_d_t6963.c ****       break;
 404              		.loc 1 452 0
 405 001c 0549     		ldr	r1, .L47+4
 406 001e 2046     		mov	r0, r4
 407 0020 FFF7FEFF 		bl	u8x8_cad_SendSequence
 408              	.LVL62:
 409              		.loc 1 457 0
 410 0024 0120     		movs	r0, #1
 453:..\u8g2\csrc/u8x8_d_t6963.c ****     default:
 411              		.loc 1 453 0
 412 0026 10BD     		pop	{r4, pc}
 413              	.LVL63:
 414              	.L45:
 455:..\u8g2\csrc/u8x8_d_t6963.c ****   }
ARM GAS  C:\Users\brian\AppData\Local\Temp\ccxdXFUh.s 			page 17


 415              		.loc 1 455 0
 416 0028 FFF7FEFF 		bl	u8x8_d_t6963_common
 417              	.LVL64:
 458:..\u8g2\csrc/u8x8_d_t6963.c **** }
 418              		.loc 1 458 0
 419 002c 10BD     		pop	{r4, pc}
 420              	.LVL65:
 421              	.L48:
 422 002e 00BF     		.align	2
 423              	.L47:
 424 0030 0C010000 		.word	.LANCHOR0+268
 425 0034 24010000 		.word	.LANCHOR0+292
 426              		.cfi_endproc
 427              	.LFE4:
 428              		.size	u8x8_d_t6963_128x64, .-u8x8_d_t6963_128x64
 429              		.section	.text.u8x8_d_t6963_160x80,"ax",%progbits
 430              		.align	2
 431              		.global	u8x8_d_t6963_160x80
 432              		.thumb
 433              		.thumb_func
 434              		.type	u8x8_d_t6963_160x80, %function
 435              	u8x8_d_t6963_160x80:
 436              	.LFB5:
 459:..\u8g2\csrc/u8x8_d_t6963.c **** 
 460:..\u8g2\csrc/u8x8_d_t6963.c **** /*=============================================*/
 461:..\u8g2\csrc/u8x8_d_t6963.c **** 
 462:..\u8g2\csrc/u8x8_d_t6963.c **** static const u8x8_display_info_t u8x8_t6963_160x80_display_info =
 463:..\u8g2\csrc/u8x8_d_t6963.c **** {
 464:..\u8g2\csrc/u8x8_d_t6963.c ****   /* chip_enable_level = */ 0,
 465:..\u8g2\csrc/u8x8_d_t6963.c ****   /* chip_disable_level = */ 1,
 466:..\u8g2\csrc/u8x8_d_t6963.c ****   
 467:..\u8g2\csrc/u8x8_d_t6963.c ****   /* post_chip_enable_wait_ns = */ 10,	/* T6963 Datasheet p30 */
 468:..\u8g2\csrc/u8x8_d_t6963.c ****   /* pre_chip_disable_wait_ns = */ 100,	/* T6963 Datasheet p30 */
 469:..\u8g2\csrc/u8x8_d_t6963.c ****   /* reset_pulse_width_ms = */ 1, 
 470:..\u8g2\csrc/u8x8_d_t6963.c ****   /* post_reset_wait_ms = */ 6, 
 471:..\u8g2\csrc/u8x8_d_t6963.c ****   /* sda_setup_time_ns = */ 20,		
 472:..\u8g2\csrc/u8x8_d_t6963.c ****   /* sck_pulse_width_ns = */  140,	
 473:..\u8g2\csrc/u8x8_d_t6963.c ****   /* sck_clock_hz = */ 1000000UL,	/* since Arduino 1.6.0, the SPI bus speed in Hz. Should be  10000
 474:..\u8g2\csrc/u8x8_d_t6963.c ****   /* spi_mode = */ 0,		
 475:..\u8g2\csrc/u8x8_d_t6963.c ****   /* i2c_bus_clock_100kHz = */ 4,
 476:..\u8g2\csrc/u8x8_d_t6963.c ****   /* data_setup_time_ns = */ 80,
 477:..\u8g2\csrc/u8x8_d_t6963.c ****   /* write_pulse_width_ns = */ 80,
 478:..\u8g2\csrc/u8x8_d_t6963.c ****   /* tile_width = */ 20,
 479:..\u8g2\csrc/u8x8_d_t6963.c ****   /* tile_hight = */ 10,
 480:..\u8g2\csrc/u8x8_d_t6963.c ****   /* default_x_offset = */ 0,
 481:..\u8g2\csrc/u8x8_d_t6963.c ****   /* flipmode_x_offset = */ 0,
 482:..\u8g2\csrc/u8x8_d_t6963.c ****   /* pixel_width = */ 160,
 483:..\u8g2\csrc/u8x8_d_t6963.c ****   /* pixel_height = */ 80
 484:..\u8g2\csrc/u8x8_d_t6963.c **** };
 485:..\u8g2\csrc/u8x8_d_t6963.c **** 
 486:..\u8g2\csrc/u8x8_d_t6963.c **** /* 128x64 */
 487:..\u8g2\csrc/u8x8_d_t6963.c **** static const uint8_t u8x8_d_t6963_160x80_init_seq[] = {
 488:..\u8g2\csrc/u8x8_d_t6963.c ****   U8X8_DLY(100),
 489:..\u8g2\csrc/u8x8_d_t6963.c ****   U8X8_START_TRANSFER(),             	/* enable chip, delay is part of the transfer start */
 490:..\u8g2\csrc/u8x8_d_t6963.c ****   U8X8_DLY(100),
 491:..\u8g2\csrc/u8x8_d_t6963.c ****   
 492:..\u8g2\csrc/u8x8_d_t6963.c ****   U8X8_AAC(0x00,0x00,0x021),	/* low, high, set cursor pos */
ARM GAS  C:\Users\brian\AppData\Local\Temp\ccxdXFUh.s 			page 18


 493:..\u8g2\csrc/u8x8_d_t6963.c ****   U8X8_AAC(0x00,0x00,0x022),	/* low, high, set offset */
 494:..\u8g2\csrc/u8x8_d_t6963.c ****   U8X8_AAC(0x00,0x00,0x040),	/* low, high, set text home */
 495:..\u8g2\csrc/u8x8_d_t6963.c ****   U8X8_AAC(160/8,0x00,0x041),	/* low, high, set text columns */
 496:..\u8g2\csrc/u8x8_d_t6963.c ****   U8X8_AAC(0x00,0x00,0x042),	/* low, high, graphics home */  
 497:..\u8g2\csrc/u8x8_d_t6963.c ****   U8X8_AAC(160/8,0x00,0x043),	/* low, high, graphics columns */
 498:..\u8g2\csrc/u8x8_d_t6963.c ****   U8X8_DLY(2),					/* delay 2ms */
 499:..\u8g2\csrc/u8x8_d_t6963.c ****   // mode set
 500:..\u8g2\csrc/u8x8_d_t6963.c ****   // 0x080: Internal CG, OR Mode
 501:..\u8g2\csrc/u8x8_d_t6963.c ****   // 0x081: Internal CG, EXOR Mode
 502:..\u8g2\csrc/u8x8_d_t6963.c ****   // 0x083: Internal CG, AND Mode
 503:..\u8g2\csrc/u8x8_d_t6963.c ****   // 0x088: External CG, OR Mode
 504:..\u8g2\csrc/u8x8_d_t6963.c ****   // 0x089: External CG, EXOR Mode
 505:..\u8g2\csrc/u8x8_d_t6963.c ****   // 0x08B: External CG, AND Mode
 506:..\u8g2\csrc/u8x8_d_t6963.c ****   U8X8_C(0x080),            			/* mode register: OR Mode, Internal Character Mode */
 507:..\u8g2\csrc/u8x8_d_t6963.c ****   // display mode
 508:..\u8g2\csrc/u8x8_d_t6963.c ****   // 0x090: Display off
 509:..\u8g2\csrc/u8x8_d_t6963.c ****   // 0x094: Graphic off, text on, cursor off, blink off
 510:..\u8g2\csrc/u8x8_d_t6963.c ****   // 0x096: Graphic off, text on, cursor on, blink off
 511:..\u8g2\csrc/u8x8_d_t6963.c ****   // 0x097: Graphic off, text on, cursor on, blink on
 512:..\u8g2\csrc/u8x8_d_t6963.c ****   // 0x098: Graphic on, text off, cursor off, blink off
 513:..\u8g2\csrc/u8x8_d_t6963.c ****   // 0x09a: Graphic on, text off, cursor on, blink off
 514:..\u8g2\csrc/u8x8_d_t6963.c ****   // ...
 515:..\u8g2\csrc/u8x8_d_t6963.c ****   // 0x09c: Graphic on, text on, cursor off, blink off
 516:..\u8g2\csrc/u8x8_d_t6963.c ****   // 0x09f: Graphic on, text on, cursor on, blink on
 517:..\u8g2\csrc/u8x8_d_t6963.c ****   U8X8_C(0x090),                             /* All Off */
 518:..\u8g2\csrc/u8x8_d_t6963.c ****   U8X8_AAC(0x00,0x00,0x024),	/* low, high, set adr pointer */
 519:..\u8g2\csrc/u8x8_d_t6963.c ****   
 520:..\u8g2\csrc/u8x8_d_t6963.c ****   U8X8_DLY(100),
 521:..\u8g2\csrc/u8x8_d_t6963.c ****   U8X8_END_TRANSFER(),             	/* disable chip */
 522:..\u8g2\csrc/u8x8_d_t6963.c ****   U8X8_DLY(100),
 523:..\u8g2\csrc/u8x8_d_t6963.c **** };
 524:..\u8g2\csrc/u8x8_d_t6963.c **** 
 525:..\u8g2\csrc/u8x8_d_t6963.c **** uint8_t u8x8_d_t6963_160x80(u8x8_t *u8x8, uint8_t msg, uint8_t arg_int, void *arg_ptr)
 526:..\u8g2\csrc/u8x8_d_t6963.c **** {
 437              		.loc 1 526 0
 438              		.cfi_startproc
 439              		@ args = 0, pretend = 0, frame = 0
 440              		@ frame_needed = 0, uses_anonymous_args = 0
 441              	.LVL66:
 442 0000 10B5     		push	{r4, lr}
 443              		.cfi_def_cfa_offset 8
 444              		.cfi_offset 4, -8
 445              		.cfi_offset 14, -4
 446 0002 0446     		mov	r4, r0
 527:..\u8g2\csrc/u8x8_d_t6963.c ****   switch(msg)
 447              		.loc 1 527 0
 448 0004 0929     		cmp	r1, #9
 449 0006 02D0     		beq	.L51
 450 0008 0A29     		cmp	r1, #10
 451 000a 05D0     		beq	.L52
 452 000c 0CE0     		b	.L54
 453              	.L51:
 528:..\u8g2\csrc/u8x8_d_t6963.c ****   {
 529:..\u8g2\csrc/u8x8_d_t6963.c ****     case U8X8_MSG_DISPLAY_SETUP_MEMORY:
 530:..\u8g2\csrc/u8x8_d_t6963.c ****       u8x8_d_helper_display_setup_memory(u8x8, &u8x8_t6963_160x80_display_info);
 454              		.loc 1 530 0
 455 000e 0849     		ldr	r1, .L56
ARM GAS  C:\Users\brian\AppData\Local\Temp\ccxdXFUh.s 			page 19


 456              	.LVL67:
 457 0010 FFF7FEFF 		bl	u8x8_d_helper_display_setup_memory
 458              	.LVL68:
 531:..\u8g2\csrc/u8x8_d_t6963.c ****       break;
 532:..\u8g2\csrc/u8x8_d_t6963.c ****     case U8X8_MSG_DISPLAY_INIT:
 533:..\u8g2\csrc/u8x8_d_t6963.c ****       u8x8_d_helper_display_init(u8x8);
 534:..\u8g2\csrc/u8x8_d_t6963.c ****       u8x8_cad_SendSequence(u8x8, u8x8_d_t6963_160x80_init_seq);
 535:..\u8g2\csrc/u8x8_d_t6963.c ****       break;
 536:..\u8g2\csrc/u8x8_d_t6963.c ****     default:
 537:..\u8g2\csrc/u8x8_d_t6963.c ****       return u8x8_d_t6963_common(u8x8, msg, arg_int, arg_ptr);
 538:..\u8g2\csrc/u8x8_d_t6963.c ****   }
 539:..\u8g2\csrc/u8x8_d_t6963.c ****   return 1;
 459              		.loc 1 539 0
 460 0014 0120     		movs	r0, #1
 531:..\u8g2\csrc/u8x8_d_t6963.c ****       break;
 461              		.loc 1 531 0
 462 0016 10BD     		pop	{r4, pc}
 463              	.LVL69:
 464              	.L52:
 533:..\u8g2\csrc/u8x8_d_t6963.c ****       u8x8_cad_SendSequence(u8x8, u8x8_d_t6963_160x80_init_seq);
 465              		.loc 1 533 0
 466 0018 FFF7FEFF 		bl	u8x8_d_helper_display_init
 467              	.LVL70:
 534:..\u8g2\csrc/u8x8_d_t6963.c ****       break;
 468              		.loc 1 534 0
 469 001c 0549     		ldr	r1, .L56+4
 470 001e 2046     		mov	r0, r4
 471 0020 FFF7FEFF 		bl	u8x8_cad_SendSequence
 472              	.LVL71:
 473              		.loc 1 539 0
 474 0024 0120     		movs	r0, #1
 535:..\u8g2\csrc/u8x8_d_t6963.c ****     default:
 475              		.loc 1 535 0
 476 0026 10BD     		pop	{r4, pc}
 477              	.LVL72:
 478              	.L54:
 537:..\u8g2\csrc/u8x8_d_t6963.c ****   }
 479              		.loc 1 537 0
 480 0028 FFF7FEFF 		bl	u8x8_d_t6963_common
 481              	.LVL73:
 540:..\u8g2\csrc/u8x8_d_t6963.c **** }
 482              		.loc 1 540 0
 483 002c 10BD     		pop	{r4, pc}
 484              	.LVL74:
 485              	.L57:
 486 002e 00BF     		.align	2
 487              	.L56:
 488 0030 60010000 		.word	.LANCHOR0+352
 489 0034 78010000 		.word	.LANCHOR0+376
 490              		.cfi_endproc
 491              	.LFE5:
 492              		.size	u8x8_d_t6963_160x80, .-u8x8_d_t6963_160x80
 493              		.section	.text.u8x8_d_t6963_128x64_alt,"ax",%progbits
 494              		.align	2
 495              		.global	u8x8_d_t6963_128x64_alt
 496              		.thumb
 497              		.thumb_func
ARM GAS  C:\Users\brian\AppData\Local\Temp\ccxdXFUh.s 			page 20


 498              		.type	u8x8_d_t6963_128x64_alt, %function
 499              	u8x8_d_t6963_128x64_alt:
 500              	.LFB6:
 541:..\u8g2\csrc/u8x8_d_t6963.c **** 
 542:..\u8g2\csrc/u8x8_d_t6963.c **** 
 543:..\u8g2\csrc/u8x8_d_t6963.c **** /* alternative version for the 128x64 t6963 display: use the 160x80 init sequence */
 544:..\u8g2\csrc/u8x8_d_t6963.c **** uint8_t u8x8_d_t6963_128x64_alt(u8x8_t *u8x8, uint8_t msg, uint8_t arg_int, void *arg_ptr)
 545:..\u8g2\csrc/u8x8_d_t6963.c **** {
 501              		.loc 1 545 0
 502              		.cfi_startproc
 503              		@ args = 0, pretend = 0, frame = 0
 504              		@ frame_needed = 0, uses_anonymous_args = 0
 505              	.LVL75:
 506 0000 10B5     		push	{r4, lr}
 507              		.cfi_def_cfa_offset 8
 508              		.cfi_offset 4, -8
 509              		.cfi_offset 14, -4
 510 0002 0446     		mov	r4, r0
 546:..\u8g2\csrc/u8x8_d_t6963.c ****   switch(msg)
 511              		.loc 1 546 0
 512 0004 0929     		cmp	r1, #9
 513 0006 02D0     		beq	.L60
 514 0008 0A29     		cmp	r1, #10
 515 000a 05D0     		beq	.L61
 516 000c 0CE0     		b	.L63
 517              	.L60:
 547:..\u8g2\csrc/u8x8_d_t6963.c ****   {
 548:..\u8g2\csrc/u8x8_d_t6963.c ****     case U8X8_MSG_DISPLAY_SETUP_MEMORY:
 549:..\u8g2\csrc/u8x8_d_t6963.c ****       u8x8_d_helper_display_setup_memory(u8x8, &u8x8_t6963_128x64_display_info);
 518              		.loc 1 549 0
 519 000e 0849     		ldr	r1, .L65
 520              	.LVL76:
 521 0010 FFF7FEFF 		bl	u8x8_d_helper_display_setup_memory
 522              	.LVL77:
 550:..\u8g2\csrc/u8x8_d_t6963.c ****       break;
 551:..\u8g2\csrc/u8x8_d_t6963.c ****     case U8X8_MSG_DISPLAY_INIT:
 552:..\u8g2\csrc/u8x8_d_t6963.c ****       u8x8_d_helper_display_init(u8x8);
 553:..\u8g2\csrc/u8x8_d_t6963.c ****       u8x8_cad_SendSequence(u8x8, u8x8_d_t6963_160x80_init_seq);
 554:..\u8g2\csrc/u8x8_d_t6963.c ****       break;
 555:..\u8g2\csrc/u8x8_d_t6963.c ****     default:
 556:..\u8g2\csrc/u8x8_d_t6963.c ****       return u8x8_d_t6963_common(u8x8, msg, arg_int, arg_ptr);
 557:..\u8g2\csrc/u8x8_d_t6963.c ****   }
 558:..\u8g2\csrc/u8x8_d_t6963.c ****   return 1;
 523              		.loc 1 558 0
 524 0014 0120     		movs	r0, #1
 550:..\u8g2\csrc/u8x8_d_t6963.c ****       break;
 525              		.loc 1 550 0
 526 0016 10BD     		pop	{r4, pc}
 527              	.LVL78:
 528              	.L61:
 552:..\u8g2\csrc/u8x8_d_t6963.c ****       u8x8_cad_SendSequence(u8x8, u8x8_d_t6963_160x80_init_seq);
 529              		.loc 1 552 0
 530 0018 FFF7FEFF 		bl	u8x8_d_helper_display_init
 531              	.LVL79:
 553:..\u8g2\csrc/u8x8_d_t6963.c ****       break;
 532              		.loc 1 553 0
 533 001c 0549     		ldr	r1, .L65+4
ARM GAS  C:\Users\brian\AppData\Local\Temp\ccxdXFUh.s 			page 21


 534 001e 2046     		mov	r0, r4
 535 0020 FFF7FEFF 		bl	u8x8_cad_SendSequence
 536              	.LVL80:
 537              		.loc 1 558 0
 538 0024 0120     		movs	r0, #1
 554:..\u8g2\csrc/u8x8_d_t6963.c ****     default:
 539              		.loc 1 554 0
 540 0026 10BD     		pop	{r4, pc}
 541              	.LVL81:
 542              	.L63:
 556:..\u8g2\csrc/u8x8_d_t6963.c ****   }
 543              		.loc 1 556 0
 544 0028 FFF7FEFF 		bl	u8x8_d_t6963_common
 545              	.LVL82:
 559:..\u8g2\csrc/u8x8_d_t6963.c **** }
 546              		.loc 1 559 0
 547 002c 10BD     		pop	{r4, pc}
 548              	.LVL83:
 549              	.L66:
 550 002e 00BF     		.align	2
 551              	.L65:
 552 0030 0C010000 		.word	.LANCHOR0+268
 553 0034 78010000 		.word	.LANCHOR0+376
 554              		.cfi_endproc
 555              	.LFE6:
 556              		.size	u8x8_d_t6963_128x64_alt, .-u8x8_d_t6963_128x64_alt
 557              		.section	.rodata
 558              		.align	2
 559              		.set	.LANCHOR0,. + 0
 560              		.type	u8x8_d_t6963_powersave0_seq, %object
 561              		.size	u8x8_d_t6963_powersave0_seq, 5
 562              	u8x8_d_t6963_powersave0_seq:
 563 0000 18       		.byte	24
 564 0001 15       		.byte	21
 565 0002 98       		.byte	-104
 566 0003 19       		.byte	25
 567 0004 FF       		.byte	-1
 568 0005 000000   		.space	3
 569              		.type	u8x8_d_t6963_powersave1_seq, %object
 570              		.size	u8x8_d_t6963_powersave1_seq, 5
 571              	u8x8_d_t6963_powersave1_seq:
 572 0008 18       		.byte	24
 573 0009 15       		.byte	21
 574 000a 90       		.byte	-112
 575 000b 19       		.byte	25
 576 000c FF       		.byte	-1
 577 000d 000000   		.space	3
 578              		.type	u8x8_t6963_240x128_display_info, %object
 579              		.size	u8x8_t6963_240x128_display_info, 24
 580              	u8x8_t6963_240x128_display_info:
 581 0010 00       		.byte	0
 582 0011 01       		.byte	1
 583 0012 6E       		.byte	110
 584 0013 64       		.byte	100
 585 0014 01       		.byte	1
 586 0015 06       		.byte	6
 587 0016 14       		.byte	20
ARM GAS  C:\Users\brian\AppData\Local\Temp\ccxdXFUh.s 			page 22


 588 0017 8C       		.byte	-116
 589 0018 40420F00 		.word	1000000
 590 001c 00       		.byte	0
 591 001d 04       		.byte	4
 592 001e 50       		.byte	80
 593 001f 50       		.byte	80
 594 0020 1E       		.byte	30
 595 0021 10       		.byte	16
 596 0022 00       		.byte	0
 597 0023 00       		.byte	0
 598 0024 F000     		.short	240
 599 0026 8000     		.short	128
 600              		.type	u8x8_d_t6963_240x128_init_seq, %object
 601              		.size	u8x8_d_t6963_240x128_init_seq, 58
 602              	u8x8_d_t6963_240x128_init_seq:
 603 0028 FE       		.byte	-2
 604 0029 64       		.byte	100
 605 002a 18       		.byte	24
 606 002b FE       		.byte	-2
 607 002c 64       		.byte	100
 608 002d 16       		.byte	22
 609 002e 00       		.byte	0
 610 002f 16       		.byte	22
 611 0030 00       		.byte	0
 612 0031 15       		.byte	21
 613 0032 21       		.byte	33
 614 0033 16       		.byte	22
 615 0034 00       		.byte	0
 616 0035 16       		.byte	22
 617 0036 00       		.byte	0
 618 0037 15       		.byte	21
 619 0038 22       		.byte	34
 620 0039 16       		.byte	22
 621 003a 00       		.byte	0
 622 003b 16       		.byte	22
 623 003c 00       		.byte	0
 624 003d 15       		.byte	21
 625 003e 40       		.byte	64
 626 003f 16       		.byte	22
 627 0040 1E       		.byte	30
 628 0041 16       		.byte	22
 629 0042 00       		.byte	0
 630 0043 15       		.byte	21
 631 0044 41       		.byte	65
 632 0045 16       		.byte	22
 633 0046 00       		.byte	0
 634 0047 16       		.byte	22
 635 0048 00       		.byte	0
 636 0049 15       		.byte	21
 637 004a 42       		.byte	66
 638 004b 16       		.byte	22
 639 004c 1E       		.byte	30
 640 004d 16       		.byte	22
 641 004e 00       		.byte	0
 642 004f 15       		.byte	21
 643 0050 43       		.byte	67
 644 0051 FE       		.byte	-2
ARM GAS  C:\Users\brian\AppData\Local\Temp\ccxdXFUh.s 			page 23


 645 0052 02       		.byte	2
 646 0053 15       		.byte	21
 647 0054 80       		.byte	-128
 648 0055 15       		.byte	21
 649 0056 90       		.byte	-112
 650 0057 16       		.byte	22
 651 0058 00       		.byte	0
 652 0059 16       		.byte	22
 653 005a 00       		.byte	0
 654 005b 15       		.byte	21
 655 005c 24       		.byte	36
 656 005d FE       		.byte	-2
 657 005e 64       		.byte	100
 658 005f 19       		.byte	25
 659 0060 FE       		.byte	-2
 660 0061 64       		.byte	100
 661 0062 0000     		.space	2
 662              		.type	u8x8_t6963_240x64_display_info, %object
 663              		.size	u8x8_t6963_240x64_display_info, 24
 664              	u8x8_t6963_240x64_display_info:
 665 0064 00       		.byte	0
 666 0065 01       		.byte	1
 667 0066 6E       		.byte	110
 668 0067 64       		.byte	100
 669 0068 01       		.byte	1
 670 0069 06       		.byte	6
 671 006a 14       		.byte	20
 672 006b 8C       		.byte	-116
 673 006c 40420F00 		.word	1000000
 674 0070 00       		.byte	0
 675 0071 04       		.byte	4
 676 0072 50       		.byte	80
 677 0073 50       		.byte	80
 678 0074 1E       		.byte	30
 679 0075 08       		.byte	8
 680 0076 00       		.byte	0
 681 0077 00       		.byte	0
 682 0078 F000     		.short	240
 683 007a 4000     		.short	64
 684              		.type	u8x8_d_t6963_240x64_init_seq, %object
 685              		.size	u8x8_d_t6963_240x64_init_seq, 58
 686              	u8x8_d_t6963_240x64_init_seq:
 687 007c FE       		.byte	-2
 688 007d 64       		.byte	100
 689 007e 18       		.byte	24
 690 007f FE       		.byte	-2
 691 0080 64       		.byte	100
 692 0081 16       		.byte	22
 693 0082 00       		.byte	0
 694 0083 16       		.byte	22
 695 0084 00       		.byte	0
 696 0085 15       		.byte	21
 697 0086 21       		.byte	33
 698 0087 16       		.byte	22
 699 0088 00       		.byte	0
 700 0089 16       		.byte	22
 701 008a 00       		.byte	0
ARM GAS  C:\Users\brian\AppData\Local\Temp\ccxdXFUh.s 			page 24


 702 008b 15       		.byte	21
 703 008c 22       		.byte	34
 704 008d 16       		.byte	22
 705 008e 00       		.byte	0
 706 008f 16       		.byte	22
 707 0090 00       		.byte	0
 708 0091 15       		.byte	21
 709 0092 40       		.byte	64
 710 0093 16       		.byte	22
 711 0094 1E       		.byte	30
 712 0095 16       		.byte	22
 713 0096 00       		.byte	0
 714 0097 15       		.byte	21
 715 0098 41       		.byte	65
 716 0099 16       		.byte	22
 717 009a 00       		.byte	0
 718 009b 16       		.byte	22
 719 009c 00       		.byte	0
 720 009d 15       		.byte	21
 721 009e 42       		.byte	66
 722 009f 16       		.byte	22
 723 00a0 1E       		.byte	30
 724 00a1 16       		.byte	22
 725 00a2 00       		.byte	0
 726 00a3 15       		.byte	21
 727 00a4 43       		.byte	67
 728 00a5 FE       		.byte	-2
 729 00a6 02       		.byte	2
 730 00a7 15       		.byte	21
 731 00a8 80       		.byte	-128
 732 00a9 15       		.byte	21
 733 00aa 90       		.byte	-112
 734 00ab 16       		.byte	22
 735 00ac 00       		.byte	0
 736 00ad 16       		.byte	22
 737 00ae 00       		.byte	0
 738 00af 15       		.byte	21
 739 00b0 24       		.byte	36
 740 00b1 FE       		.byte	-2
 741 00b2 64       		.byte	100
 742 00b3 19       		.byte	25
 743 00b4 FE       		.byte	-2
 744 00b5 64       		.byte	100
 745 00b6 0000     		.space	2
 746              		.type	u8x8_t6963_256x64_display_info, %object
 747              		.size	u8x8_t6963_256x64_display_info, 24
 748              	u8x8_t6963_256x64_display_info:
 749 00b8 00       		.byte	0
 750 00b9 01       		.byte	1
 751 00ba 6E       		.byte	110
 752 00bb 64       		.byte	100
 753 00bc 01       		.byte	1
 754 00bd 06       		.byte	6
 755 00be 14       		.byte	20
 756 00bf 8C       		.byte	-116
 757 00c0 40420F00 		.word	1000000
 758 00c4 00       		.byte	0
ARM GAS  C:\Users\brian\AppData\Local\Temp\ccxdXFUh.s 			page 25


 759 00c5 04       		.byte	4
 760 00c6 50       		.byte	80
 761 00c7 50       		.byte	80
 762 00c8 20       		.byte	32
 763 00c9 08       		.byte	8
 764 00ca 00       		.byte	0
 765 00cb 00       		.byte	0
 766 00cc 0001     		.short	256
 767 00ce 4000     		.short	64
 768              		.type	u8x8_d_t6963_256x64_init_seq, %object
 769              		.size	u8x8_d_t6963_256x64_init_seq, 58
 770              	u8x8_d_t6963_256x64_init_seq:
 771 00d0 FE       		.byte	-2
 772 00d1 64       		.byte	100
 773 00d2 18       		.byte	24
 774 00d3 FE       		.byte	-2
 775 00d4 64       		.byte	100
 776 00d5 16       		.byte	22
 777 00d6 00       		.byte	0
 778 00d7 16       		.byte	22
 779 00d8 00       		.byte	0
 780 00d9 15       		.byte	21
 781 00da 21       		.byte	33
 782 00db 16       		.byte	22
 783 00dc 00       		.byte	0
 784 00dd 16       		.byte	22
 785 00de 00       		.byte	0
 786 00df 15       		.byte	21
 787 00e0 22       		.byte	34
 788 00e1 16       		.byte	22
 789 00e2 00       		.byte	0
 790 00e3 16       		.byte	22
 791 00e4 00       		.byte	0
 792 00e5 15       		.byte	21
 793 00e6 40       		.byte	64
 794 00e7 16       		.byte	22
 795 00e8 20       		.byte	32
 796 00e9 16       		.byte	22
 797 00ea 00       		.byte	0
 798 00eb 15       		.byte	21
 799 00ec 41       		.byte	65
 800 00ed 16       		.byte	22
 801 00ee 00       		.byte	0
 802 00ef 16       		.byte	22
 803 00f0 00       		.byte	0
 804 00f1 15       		.byte	21
 805 00f2 42       		.byte	66
 806 00f3 16       		.byte	22
 807 00f4 20       		.byte	32
 808 00f5 16       		.byte	22
 809 00f6 00       		.byte	0
 810 00f7 15       		.byte	21
 811 00f8 43       		.byte	67
 812 00f9 FE       		.byte	-2
 813 00fa 02       		.byte	2
 814 00fb 15       		.byte	21
 815 00fc 80       		.byte	-128
ARM GAS  C:\Users\brian\AppData\Local\Temp\ccxdXFUh.s 			page 26


 816 00fd 15       		.byte	21
 817 00fe 90       		.byte	-112
 818 00ff 16       		.byte	22
 819 0100 00       		.byte	0
 820 0101 16       		.byte	22
 821 0102 00       		.byte	0
 822 0103 15       		.byte	21
 823 0104 24       		.byte	36
 824 0105 FE       		.byte	-2
 825 0106 64       		.byte	100
 826 0107 19       		.byte	25
 827 0108 FE       		.byte	-2
 828 0109 64       		.byte	100
 829 010a 0000     		.space	2
 830              		.type	u8x8_t6963_128x64_display_info, %object
 831              		.size	u8x8_t6963_128x64_display_info, 24
 832              	u8x8_t6963_128x64_display_info:
 833 010c 01       		.byte	1
 834 010d 00       		.byte	0
 835 010e 0A       		.byte	10
 836 010f 64       		.byte	100
 837 0110 01       		.byte	1
 838 0111 06       		.byte	6
 839 0112 14       		.byte	20
 840 0113 8C       		.byte	-116
 841 0114 40420F00 		.word	1000000
 842 0118 00       		.byte	0
 843 0119 04       		.byte	4
 844 011a 50       		.byte	80
 845 011b 50       		.byte	80
 846 011c 10       		.byte	16
 847 011d 08       		.byte	8
 848 011e 00       		.byte	0
 849 011f 00       		.byte	0
 850 0120 8000     		.short	128
 851 0122 4000     		.short	64
 852              		.type	u8x8_d_t6963_128x64_init_seq, %object
 853              		.size	u8x8_d_t6963_128x64_init_seq, 58
 854              	u8x8_d_t6963_128x64_init_seq:
 855 0124 FE       		.byte	-2
 856 0125 64       		.byte	100
 857 0126 18       		.byte	24
 858 0127 FE       		.byte	-2
 859 0128 64       		.byte	100
 860 0129 16       		.byte	22
 861 012a 00       		.byte	0
 862 012b 16       		.byte	22
 863 012c 00       		.byte	0
 864 012d 15       		.byte	21
 865 012e 21       		.byte	33
 866 012f 16       		.byte	22
 867 0130 00       		.byte	0
 868 0131 16       		.byte	22
 869 0132 00       		.byte	0
 870 0133 15       		.byte	21
 871 0134 22       		.byte	34
 872 0135 16       		.byte	22
ARM GAS  C:\Users\brian\AppData\Local\Temp\ccxdXFUh.s 			page 27


 873 0136 00       		.byte	0
 874 0137 16       		.byte	22
 875 0138 00       		.byte	0
 876 0139 15       		.byte	21
 877 013a 40       		.byte	64
 878 013b 16       		.byte	22
 879 013c 10       		.byte	16
 880 013d 16       		.byte	22
 881 013e 00       		.byte	0
 882 013f 15       		.byte	21
 883 0140 41       		.byte	65
 884 0141 16       		.byte	22
 885 0142 00       		.byte	0
 886 0143 16       		.byte	22
 887 0144 00       		.byte	0
 888 0145 15       		.byte	21
 889 0146 42       		.byte	66
 890 0147 16       		.byte	22
 891 0148 10       		.byte	16
 892 0149 16       		.byte	22
 893 014a 00       		.byte	0
 894 014b 15       		.byte	21
 895 014c 43       		.byte	67
 896 014d FE       		.byte	-2
 897 014e 02       		.byte	2
 898 014f 15       		.byte	21
 899 0150 80       		.byte	-128
 900 0151 15       		.byte	21
 901 0152 90       		.byte	-112
 902 0153 16       		.byte	22
 903 0154 00       		.byte	0
 904 0155 16       		.byte	22
 905 0156 00       		.byte	0
 906 0157 15       		.byte	21
 907 0158 24       		.byte	36
 908 0159 FE       		.byte	-2
 909 015a 64       		.byte	100
 910 015b 19       		.byte	25
 911 015c FE       		.byte	-2
 912 015d 64       		.byte	100
 913 015e 0000     		.space	2
 914              		.type	u8x8_t6963_160x80_display_info, %object
 915              		.size	u8x8_t6963_160x80_display_info, 24
 916              	u8x8_t6963_160x80_display_info:
 917 0160 00       		.byte	0
 918 0161 01       		.byte	1
 919 0162 0A       		.byte	10
 920 0163 64       		.byte	100
 921 0164 01       		.byte	1
 922 0165 06       		.byte	6
 923 0166 14       		.byte	20
 924 0167 8C       		.byte	-116
 925 0168 40420F00 		.word	1000000
 926 016c 00       		.byte	0
 927 016d 04       		.byte	4
 928 016e 50       		.byte	80
 929 016f 50       		.byte	80
ARM GAS  C:\Users\brian\AppData\Local\Temp\ccxdXFUh.s 			page 28


 930 0170 14       		.byte	20
 931 0171 0A       		.byte	10
 932 0172 00       		.byte	0
 933 0173 00       		.byte	0
 934 0174 A000     		.short	160
 935 0176 5000     		.short	80
 936              		.type	u8x8_d_t6963_160x80_init_seq, %object
 937              		.size	u8x8_d_t6963_160x80_init_seq, 58
 938              	u8x8_d_t6963_160x80_init_seq:
 939 0178 FE       		.byte	-2
 940 0179 64       		.byte	100
 941 017a 18       		.byte	24
 942 017b FE       		.byte	-2
 943 017c 64       		.byte	100
 944 017d 16       		.byte	22
 945 017e 00       		.byte	0
 946 017f 16       		.byte	22
 947 0180 00       		.byte	0
 948 0181 15       		.byte	21
 949 0182 21       		.byte	33
 950 0183 16       		.byte	22
 951 0184 00       		.byte	0
 952 0185 16       		.byte	22
 953 0186 00       		.byte	0
 954 0187 15       		.byte	21
 955 0188 22       		.byte	34
 956 0189 16       		.byte	22
 957 018a 00       		.byte	0
 958 018b 16       		.byte	22
 959 018c 00       		.byte	0
 960 018d 15       		.byte	21
 961 018e 40       		.byte	64
 962 018f 16       		.byte	22
 963 0190 14       		.byte	20
 964 0191 16       		.byte	22
 965 0192 00       		.byte	0
 966 0193 15       		.byte	21
 967 0194 41       		.byte	65
 968 0195 16       		.byte	22
 969 0196 00       		.byte	0
 970 0197 16       		.byte	22
 971 0198 00       		.byte	0
 972 0199 15       		.byte	21
 973 019a 42       		.byte	66
 974 019b 16       		.byte	22
 975 019c 14       		.byte	20
 976 019d 16       		.byte	22
 977 019e 00       		.byte	0
 978 019f 15       		.byte	21
 979 01a0 43       		.byte	67
 980 01a1 FE       		.byte	-2
 981 01a2 02       		.byte	2
 982 01a3 15       		.byte	21
 983 01a4 80       		.byte	-128
 984 01a5 15       		.byte	21
 985 01a6 90       		.byte	-112
 986 01a7 16       		.byte	22
ARM GAS  C:\Users\brian\AppData\Local\Temp\ccxdXFUh.s 			page 29


 987 01a8 00       		.byte	0
 988 01a9 16       		.byte	22
 989 01aa 00       		.byte	0
 990 01ab 15       		.byte	21
 991 01ac 24       		.byte	36
 992 01ad FE       		.byte	-2
 993 01ae 64       		.byte	100
 994 01af 19       		.byte	25
 995 01b0 FE       		.byte	-2
 996 01b1 64       		.byte	100
 997              		.text
 998              	.Letext0:
 999              		.file 2 "c:\\program files (x86)\\cypress\\psoc creator\\4.4\\psoc creator\\import\\gnu\\arm\\5.4.
 1000              		.file 3 "c:\\program files (x86)\\cypress\\psoc creator\\4.4\\psoc creator\\import\\gnu\\arm\\5.4.
 1001              		.file 4 "..\\u8g2\\csrc\\u8x8.h"