ARM GAS  C:\Users\brian\AppData\Local\Temp\cc4RiXXm.s 			page 1


   1              		.syntax unified
   2              		.cpu cortex-m3
   3              		.fpu softvfp
   4              		.eabi_attribute 20, 1
   5              		.eabi_attribute 21, 1
   6              		.eabi_attribute 23, 3
   7              		.eabi_attribute 24, 1
   8              		.eabi_attribute 25, 1
   9              		.eabi_attribute 26, 1
  10              		.eabi_attribute 30, 1
  11              		.eabi_attribute 34, 1
  12              		.eabi_attribute 18, 4
  13              		.thumb
  14              		.syntax unified
  15              		.file	"u8x8_d_ssd1306_128x32.c"
  16              		.text
  17              	.Ltext0:
  18              		.cfi_sections	.debug_frame
  19              		.section	.text.u8x8_d_ssd1306_128x32_generic,"ax",%progbits
  20              		.align	2
  21              		.thumb
  22              		.thumb_func
  23              		.type	u8x8_d_ssd1306_128x32_generic, %function
  24              	u8x8_d_ssd1306_128x32_generic:
  25              	.LFB0:
  26              		.file 1 "..\\u8g2\\csrc\\u8x8_d_ssd1306_128x32.c"
   1:..\u8g2\csrc/u8x8_d_ssd1306_128x32.c **** /*
   2:..\u8g2\csrc/u8x8_d_ssd1306_128x32.c **** 
   3:..\u8g2\csrc/u8x8_d_ssd1306_128x32.c ****   u8x8_d_ssd1306_128x32.c
   4:..\u8g2\csrc/u8x8_d_ssd1306_128x32.c **** 
   5:..\u8g2\csrc/u8x8_d_ssd1306_128x32.c ****   Universal 8bit Graphics Library (https://github.com/olikraus/u8g2/)
   6:..\u8g2\csrc/u8x8_d_ssd1306_128x32.c **** 
   7:..\u8g2\csrc/u8x8_d_ssd1306_128x32.c ****   Copyright (c) 2016, olikraus@gmail.com
   8:..\u8g2\csrc/u8x8_d_ssd1306_128x32.c ****   All rights reserved.
   9:..\u8g2\csrc/u8x8_d_ssd1306_128x32.c **** 
  10:..\u8g2\csrc/u8x8_d_ssd1306_128x32.c ****   Redistribution and use in source and binary forms, with or without modification, 
  11:..\u8g2\csrc/u8x8_d_ssd1306_128x32.c ****   are permitted provided that the following conditions are met:
  12:..\u8g2\csrc/u8x8_d_ssd1306_128x32.c **** 
  13:..\u8g2\csrc/u8x8_d_ssd1306_128x32.c ****   * Redistributions of source code must retain the above copyright notice, this list 
  14:..\u8g2\csrc/u8x8_d_ssd1306_128x32.c ****     of conditions and the following disclaimer.
  15:..\u8g2\csrc/u8x8_d_ssd1306_128x32.c ****     
  16:..\u8g2\csrc/u8x8_d_ssd1306_128x32.c ****   * Redistributions in binary form must reproduce the above copyright notice, this 
  17:..\u8g2\csrc/u8x8_d_ssd1306_128x32.c ****     list of conditions and the following disclaimer in the documentation and/or other 
  18:..\u8g2\csrc/u8x8_d_ssd1306_128x32.c ****     materials provided with the distribution.
  19:..\u8g2\csrc/u8x8_d_ssd1306_128x32.c **** 
  20:..\u8g2\csrc/u8x8_d_ssd1306_128x32.c ****   THIS SOFTWARE IS PROVIDED BY THE COPYRIGHT HOLDERS AND 
  21:..\u8g2\csrc/u8x8_d_ssd1306_128x32.c ****   CONTRIBUTORS "AS IS" AND ANY EXPRESS OR IMPLIED WARRANTIES, 
  22:..\u8g2\csrc/u8x8_d_ssd1306_128x32.c ****   INCLUDING, BUT NOT LIMITED TO, THE IMPLIED WARRANTIES OF 
  23:..\u8g2\csrc/u8x8_d_ssd1306_128x32.c ****   MERCHANTABILITY AND FITNESS FOR A PARTICULAR PURPOSE ARE 
  24:..\u8g2\csrc/u8x8_d_ssd1306_128x32.c ****   DISCLAIMED. IN NO EVENT SHALL THE COPYRIGHT HOLDER OR 
  25:..\u8g2\csrc/u8x8_d_ssd1306_128x32.c ****   CONTRIBUTORS BE LIABLE FOR ANY DIRECT, INDIRECT, INCIDENTAL, 
  26:..\u8g2\csrc/u8x8_d_ssd1306_128x32.c ****   SPECIAL, EXEMPLARY, OR CONSEQUENTIAL DAMAGES (INCLUDING, BUT 
  27:..\u8g2\csrc/u8x8_d_ssd1306_128x32.c ****   NOT LIMITED TO, PROCUREMENT OF SUBSTITUTE GOODS OR SERVICES; 
  28:..\u8g2\csrc/u8x8_d_ssd1306_128x32.c ****   LOSS OF USE, DATA, OR PROFITS; OR BUSINESS INTERRUPTION) HOWEVER 
  29:..\u8g2\csrc/u8x8_d_ssd1306_128x32.c ****   CAUSED AND ON ANY THEORY OF LIABILITY, WHETHER IN CONTRACT, 
  30:..\u8g2\csrc/u8x8_d_ssd1306_128x32.c ****   STRICT LIABILITY, OR TORT (INCLUDING NEGLIGENCE OR OTHERWISE) 
  31:..\u8g2\csrc/u8x8_d_ssd1306_128x32.c ****   ARISING IN ANY WAY OUT OF THE USE OF THIS SOFTWARE, EVEN IF 
ARM GAS  C:\Users\brian\AppData\Local\Temp\cc4RiXXm.s 			page 2


  32:..\u8g2\csrc/u8x8_d_ssd1306_128x32.c ****   ADVISED OF THE POSSIBILITY OF SUCH DAMAGE.  
  33:..\u8g2\csrc/u8x8_d_ssd1306_128x32.c ****   
  34:..\u8g2\csrc/u8x8_d_ssd1306_128x32.c **** */
  35:..\u8g2\csrc/u8x8_d_ssd1306_128x32.c **** 
  36:..\u8g2\csrc/u8x8_d_ssd1306_128x32.c **** 
  37:..\u8g2\csrc/u8x8_d_ssd1306_128x32.c **** #include "u8x8.h"
  38:..\u8g2\csrc/u8x8_d_ssd1306_128x32.c **** 
  39:..\u8g2\csrc/u8x8_d_ssd1306_128x32.c **** 
  40:..\u8g2\csrc/u8x8_d_ssd1306_128x32.c **** 
  41:..\u8g2\csrc/u8x8_d_ssd1306_128x32.c **** /* UG-2832HSWEG02 Datasheet, Section 4.4 */
  42:..\u8g2\csrc/u8x8_d_ssd1306_128x32.c **** static const uint8_t u8x8_d_ssd1306_128x32_univision_init_seq[] = {
  43:..\u8g2\csrc/u8x8_d_ssd1306_128x32.c ****     
  44:..\u8g2\csrc/u8x8_d_ssd1306_128x32.c ****   U8X8_START_TRANSFER(),             	/* enable chip, delay is part of the transfer start */
  45:..\u8g2\csrc/u8x8_d_ssd1306_128x32.c ****   
  46:..\u8g2\csrc/u8x8_d_ssd1306_128x32.c ****   
  47:..\u8g2\csrc/u8x8_d_ssd1306_128x32.c ****   U8X8_C(0x0ae),		                /* display off */
  48:..\u8g2\csrc/u8x8_d_ssd1306_128x32.c ****   U8X8_CA(0x0d5, 0x080),		/* clock divide ratio (0x00=1) and oscillator frequency (0x8) */
  49:..\u8g2\csrc/u8x8_d_ssd1306_128x32.c ****   U8X8_CA(0x0a8, 0x01f),		/* multiplex ratio */
  50:..\u8g2\csrc/u8x8_d_ssd1306_128x32.c ****   U8X8_CA(0x0d3, 0x000),		/* display offset */
  51:..\u8g2\csrc/u8x8_d_ssd1306_128x32.c ****   U8X8_C(0x040),		                /* set display start line to 0 */
  52:..\u8g2\csrc/u8x8_d_ssd1306_128x32.c ****   U8X8_CA(0x08d, 0x014),		/* [2] charge pump setting (p62): 0x014 enable, 0x010 disable */
  53:..\u8g2\csrc/u8x8_d_ssd1306_128x32.c ****   U8X8_CA(0x020, 0x000),		/* horizontal addressing mode */
  54:..\u8g2\csrc/u8x8_d_ssd1306_128x32.c ****   
  55:..\u8g2\csrc/u8x8_d_ssd1306_128x32.c ****   U8X8_C(0x0a1),				/* segment remap a0/a1*/
  56:..\u8g2\csrc/u8x8_d_ssd1306_128x32.c ****   U8X8_C(0x0c8),				/* c0: scan dir normal, c8: reverse */
  57:..\u8g2\csrc/u8x8_d_ssd1306_128x32.c ****   // Flipmode
  58:..\u8g2\csrc/u8x8_d_ssd1306_128x32.c ****   // U8X8_C(0x0a0),				/* segment remap a0/a1*/
  59:..\u8g2\csrc/u8x8_d_ssd1306_128x32.c ****   // U8X8_C(0x0c0),				/* c0: scan dir normal, c8: reverse */
  60:..\u8g2\csrc/u8x8_d_ssd1306_128x32.c ****   
  61:..\u8g2\csrc/u8x8_d_ssd1306_128x32.c ****   U8X8_CA(0x0da, 0x002),		/* com pin HW config, sequential com pin config (bit 4), disable left/rig
  62:..\u8g2\csrc/u8x8_d_ssd1306_128x32.c ****   U8X8_CA(0x081, 0x08f),		/* [2] set contrast control */
  63:..\u8g2\csrc/u8x8_d_ssd1306_128x32.c ****   U8X8_CA(0x0d9, 0x0f1),		/* [2] pre-charge period 0x022/f1*/
  64:..\u8g2\csrc/u8x8_d_ssd1306_128x32.c ****   U8X8_CA(0x0db, 0x040),		/* vcomh deselect level */
  65:..\u8g2\csrc/u8x8_d_ssd1306_128x32.c ****   
  66:..\u8g2\csrc/u8x8_d_ssd1306_128x32.c ****   U8X8_C(0x02e),				/* Deactivate scroll */ 
  67:..\u8g2\csrc/u8x8_d_ssd1306_128x32.c ****   U8X8_C(0x0a4),				/* output ram to display */
  68:..\u8g2\csrc/u8x8_d_ssd1306_128x32.c ****   U8X8_C(0x0a6),				/* none inverted normal display mode */
  69:..\u8g2\csrc/u8x8_d_ssd1306_128x32.c ****     
  70:..\u8g2\csrc/u8x8_d_ssd1306_128x32.c ****   U8X8_END_TRANSFER(),             	/* disable chip */
  71:..\u8g2\csrc/u8x8_d_ssd1306_128x32.c ****   U8X8_END()             			/* end of sequence */
  72:..\u8g2\csrc/u8x8_d_ssd1306_128x32.c **** };
  73:..\u8g2\csrc/u8x8_d_ssd1306_128x32.c **** 
  74:..\u8g2\csrc/u8x8_d_ssd1306_128x32.c **** static const uint8_t u8x8_d_ssd1306_128x32_univision_powersave0_seq[] = {
  75:..\u8g2\csrc/u8x8_d_ssd1306_128x32.c ****   U8X8_START_TRANSFER(),             	/* enable chip, delay is part of the transfer start */
  76:..\u8g2\csrc/u8x8_d_ssd1306_128x32.c ****   U8X8_C(0x0af),		                /* display on */
  77:..\u8g2\csrc/u8x8_d_ssd1306_128x32.c ****   U8X8_END_TRANSFER(),             	/* disable chip */
  78:..\u8g2\csrc/u8x8_d_ssd1306_128x32.c ****   U8X8_END()             			/* end of sequence */
  79:..\u8g2\csrc/u8x8_d_ssd1306_128x32.c **** };
  80:..\u8g2\csrc/u8x8_d_ssd1306_128x32.c **** 
  81:..\u8g2\csrc/u8x8_d_ssd1306_128x32.c **** static const uint8_t u8x8_d_ssd1306_128x32_univision_powersave1_seq[] = {
  82:..\u8g2\csrc/u8x8_d_ssd1306_128x32.c ****   U8X8_START_TRANSFER(),             	/* enable chip, delay is part of the transfer start */
  83:..\u8g2\csrc/u8x8_d_ssd1306_128x32.c ****   U8X8_C(0x0ae),		                /* display off */
  84:..\u8g2\csrc/u8x8_d_ssd1306_128x32.c ****   U8X8_END_TRANSFER(),             	/* disable chip */
  85:..\u8g2\csrc/u8x8_d_ssd1306_128x32.c ****   U8X8_END()             			/* end of sequence */
  86:..\u8g2\csrc/u8x8_d_ssd1306_128x32.c **** };
  87:..\u8g2\csrc/u8x8_d_ssd1306_128x32.c **** 
  88:..\u8g2\csrc/u8x8_d_ssd1306_128x32.c **** static const uint8_t u8x8_d_ssd1306_128x32_univision_flip0_seq[] = {
ARM GAS  C:\Users\brian\AppData\Local\Temp\cc4RiXXm.s 			page 3


  89:..\u8g2\csrc/u8x8_d_ssd1306_128x32.c ****   U8X8_START_TRANSFER(),             	/* enable chip, delay is part of the transfer start */
  90:..\u8g2\csrc/u8x8_d_ssd1306_128x32.c ****   U8X8_C(0x0a1),				/* segment remap a0/a1*/
  91:..\u8g2\csrc/u8x8_d_ssd1306_128x32.c ****   U8X8_C(0x0c8),				/* c0: scan dir normal, c8: reverse */
  92:..\u8g2\csrc/u8x8_d_ssd1306_128x32.c ****   U8X8_END_TRANSFER(),             	/* disable chip */
  93:..\u8g2\csrc/u8x8_d_ssd1306_128x32.c ****   U8X8_END()             			/* end of sequence */
  94:..\u8g2\csrc/u8x8_d_ssd1306_128x32.c **** };
  95:..\u8g2\csrc/u8x8_d_ssd1306_128x32.c **** 
  96:..\u8g2\csrc/u8x8_d_ssd1306_128x32.c **** static const uint8_t u8x8_d_ssd1306_128x32_univision_flip1_seq[] = {
  97:..\u8g2\csrc/u8x8_d_ssd1306_128x32.c ****   U8X8_START_TRANSFER(),             	/* enable chip, delay is part of the transfer start */
  98:..\u8g2\csrc/u8x8_d_ssd1306_128x32.c ****   U8X8_C(0x0a0),				/* segment remap a0/a1*/
  99:..\u8g2\csrc/u8x8_d_ssd1306_128x32.c ****   U8X8_C(0x0c0),				/* c0: scan dir normal, c8: reverse */
 100:..\u8g2\csrc/u8x8_d_ssd1306_128x32.c ****   U8X8_END_TRANSFER(),             	/* disable chip */
 101:..\u8g2\csrc/u8x8_d_ssd1306_128x32.c ****   U8X8_END()             			/* end of sequence */
 102:..\u8g2\csrc/u8x8_d_ssd1306_128x32.c **** };
 103:..\u8g2\csrc/u8x8_d_ssd1306_128x32.c **** 
 104:..\u8g2\csrc/u8x8_d_ssd1306_128x32.c **** 
 105:..\u8g2\csrc/u8x8_d_ssd1306_128x32.c **** static uint8_t u8x8_d_ssd1306_128x32_generic(u8x8_t *u8x8, uint8_t msg, uint8_t arg_int, void *arg_
 106:..\u8g2\csrc/u8x8_d_ssd1306_128x32.c **** {
  27              		.loc 1 106 0
  28              		.cfi_startproc
  29              		@ args = 0, pretend = 0, frame = 0
  30              		@ frame_needed = 0, uses_anonymous_args = 0
  31              	.LVL0:
  32 0000 F8B5     		push	{r3, r4, r5, r6, r7, lr}
  33              		.cfi_def_cfa_offset 24
  34              		.cfi_offset 3, -24
  35              		.cfi_offset 4, -20
  36              		.cfi_offset 5, -16
  37              		.cfi_offset 6, -12
  38              		.cfi_offset 7, -8
  39              		.cfi_offset 14, -4
  40 0002 0546     		mov	r5, r0
  41 0004 1446     		mov	r4, r2
  42 0006 1E46     		mov	r6, r3
 107:..\u8g2\csrc/u8x8_d_ssd1306_128x32.c ****   uint8_t x, c;
 108:..\u8g2\csrc/u8x8_d_ssd1306_128x32.c ****   uint8_t *ptr;
 109:..\u8g2\csrc/u8x8_d_ssd1306_128x32.c ****   switch(msg)
  43              		.loc 1 109 0
  44 0008 0A39     		subs	r1, r1, #10
  45              	.LVL1:
  46 000a 0529     		cmp	r1, #5
  47 000c 64D8     		bhi	.L12
  48 000e DFE801F0 		tbb	[pc, r1]
  49              	.LVL2:
  50              	.L4:
  51 0012 03       		.byte	(.L3-.L4)/2
  52 0013 0B       		.byte	(.L5-.L4)/2
  53 0014 63       		.byte	(.L12-.L4)/2
  54 0015 16       		.byte	(.L6-.L4)/2
  55 0016 29       		.byte	(.L7-.L4)/2
  56 0017 38       		.byte	(.L8-.L4)/2
  57              		.p2align 1
  58              	.L3:
 110:..\u8g2\csrc/u8x8_d_ssd1306_128x32.c ****   {
 111:..\u8g2\csrc/u8x8_d_ssd1306_128x32.c ****     /* handled by the calling function
 112:..\u8g2\csrc/u8x8_d_ssd1306_128x32.c ****     case U8X8_MSG_DISPLAY_SETUP_MEMORY:
 113:..\u8g2\csrc/u8x8_d_ssd1306_128x32.c ****       u8x8_d_helper_display_setup_memory(u8x8, &u8x8_ssd1306_128x32_univision_display_info);
ARM GAS  C:\Users\brian\AppData\Local\Temp\cc4RiXXm.s 			page 4


 114:..\u8g2\csrc/u8x8_d_ssd1306_128x32.c ****       break;
 115:..\u8g2\csrc/u8x8_d_ssd1306_128x32.c ****     */
 116:..\u8g2\csrc/u8x8_d_ssd1306_128x32.c ****     case U8X8_MSG_DISPLAY_INIT:
 117:..\u8g2\csrc/u8x8_d_ssd1306_128x32.c ****       u8x8_d_helper_display_init(u8x8);
  59              		.loc 1 117 0
  60 0018 FFF7FEFF 		bl	u8x8_d_helper_display_init
  61              	.LVL3:
 118:..\u8g2\csrc/u8x8_d_ssd1306_128x32.c ****       u8x8_cad_SendSequence(u8x8, u8x8_d_ssd1306_128x32_univision_init_seq);    
  62              		.loc 1 118 0
  63 001c 2F49     		ldr	r1, .L14
  64 001e 2846     		mov	r0, r5
  65 0020 FFF7FEFF 		bl	u8x8_cad_SendSequence
  66              	.LVL4:
 119:..\u8g2\csrc/u8x8_d_ssd1306_128x32.c ****       break;
 120:..\u8g2\csrc/u8x8_d_ssd1306_128x32.c ****     case U8X8_MSG_DISPLAY_SET_POWER_SAVE:
 121:..\u8g2\csrc/u8x8_d_ssd1306_128x32.c ****       if ( arg_int == 0 )
 122:..\u8g2\csrc/u8x8_d_ssd1306_128x32.c **** 	u8x8_cad_SendSequence(u8x8, u8x8_d_ssd1306_128x32_univision_powersave0_seq);
 123:..\u8g2\csrc/u8x8_d_ssd1306_128x32.c ****       else
 124:..\u8g2\csrc/u8x8_d_ssd1306_128x32.c **** 	u8x8_cad_SendSequence(u8x8, u8x8_d_ssd1306_128x32_univision_powersave1_seq);
 125:..\u8g2\csrc/u8x8_d_ssd1306_128x32.c ****       break;
 126:..\u8g2\csrc/u8x8_d_ssd1306_128x32.c ****     case U8X8_MSG_DISPLAY_SET_FLIP_MODE:
 127:..\u8g2\csrc/u8x8_d_ssd1306_128x32.c ****       if ( arg_int == 0 )
 128:..\u8g2\csrc/u8x8_d_ssd1306_128x32.c ****       {
 129:..\u8g2\csrc/u8x8_d_ssd1306_128x32.c **** 	u8x8_cad_SendSequence(u8x8, u8x8_d_ssd1306_128x32_univision_flip0_seq);
 130:..\u8g2\csrc/u8x8_d_ssd1306_128x32.c **** 	u8x8->x_offset = u8x8->display_info->default_x_offset;
 131:..\u8g2\csrc/u8x8_d_ssd1306_128x32.c ****       }
 132:..\u8g2\csrc/u8x8_d_ssd1306_128x32.c ****       else
 133:..\u8g2\csrc/u8x8_d_ssd1306_128x32.c ****       {
 134:..\u8g2\csrc/u8x8_d_ssd1306_128x32.c **** 	u8x8_cad_SendSequence(u8x8, u8x8_d_ssd1306_128x32_univision_flip1_seq);
 135:..\u8g2\csrc/u8x8_d_ssd1306_128x32.c **** 	u8x8->x_offset = u8x8->display_info->flipmode_x_offset;
 136:..\u8g2\csrc/u8x8_d_ssd1306_128x32.c ****       }
 137:..\u8g2\csrc/u8x8_d_ssd1306_128x32.c ****       break;
 138:..\u8g2\csrc/u8x8_d_ssd1306_128x32.c **** #ifdef U8X8_WITH_SET_CONTRAST
 139:..\u8g2\csrc/u8x8_d_ssd1306_128x32.c ****     case U8X8_MSG_DISPLAY_SET_CONTRAST:
 140:..\u8g2\csrc/u8x8_d_ssd1306_128x32.c ****       u8x8_cad_StartTransfer(u8x8);
 141:..\u8g2\csrc/u8x8_d_ssd1306_128x32.c ****       u8x8_cad_SendCmd(u8x8, 0x081 );
 142:..\u8g2\csrc/u8x8_d_ssd1306_128x32.c ****       u8x8_cad_SendArg(u8x8, arg_int );	/* ssd1306 has range from 0 to 255 */
 143:..\u8g2\csrc/u8x8_d_ssd1306_128x32.c ****       u8x8_cad_EndTransfer(u8x8);
 144:..\u8g2\csrc/u8x8_d_ssd1306_128x32.c ****       break;
 145:..\u8g2\csrc/u8x8_d_ssd1306_128x32.c **** #endif
 146:..\u8g2\csrc/u8x8_d_ssd1306_128x32.c ****     case U8X8_MSG_DISPLAY_DRAW_TILE:
 147:..\u8g2\csrc/u8x8_d_ssd1306_128x32.c ****       u8x8_cad_StartTransfer(u8x8);
 148:..\u8g2\csrc/u8x8_d_ssd1306_128x32.c ****       x = ((u8x8_tile_t *)arg_ptr)->x_pos;    
 149:..\u8g2\csrc/u8x8_d_ssd1306_128x32.c ****       x *= 8;
 150:..\u8g2\csrc/u8x8_d_ssd1306_128x32.c ****       x += u8x8->x_offset;
 151:..\u8g2\csrc/u8x8_d_ssd1306_128x32.c ****       u8x8_cad_SendCmd(u8x8, 0x010 | (x>>4) );
 152:..\u8g2\csrc/u8x8_d_ssd1306_128x32.c ****       u8x8_cad_SendCmd(u8x8, 0x000 | ((x&15)));
 153:..\u8g2\csrc/u8x8_d_ssd1306_128x32.c ****       u8x8_cad_SendCmd(u8x8, 0x0b0 | (((u8x8_tile_t *)arg_ptr)->y_pos));
 154:..\u8g2\csrc/u8x8_d_ssd1306_128x32.c ****       
 155:..\u8g2\csrc/u8x8_d_ssd1306_128x32.c ****       do
 156:..\u8g2\csrc/u8x8_d_ssd1306_128x32.c ****       {
 157:..\u8g2\csrc/u8x8_d_ssd1306_128x32.c **** 	c = ((u8x8_tile_t *)arg_ptr)->cnt;
 158:..\u8g2\csrc/u8x8_d_ssd1306_128x32.c **** 	ptr = ((u8x8_tile_t *)arg_ptr)->tile_ptr;
 159:..\u8g2\csrc/u8x8_d_ssd1306_128x32.c **** 	u8x8_cad_SendData(u8x8, c*8, ptr); 	/* note: SendData can not handle more than 255 bytes */
 160:..\u8g2\csrc/u8x8_d_ssd1306_128x32.c **** 	/*
 161:..\u8g2\csrc/u8x8_d_ssd1306_128x32.c **** 	do
 162:..\u8g2\csrc/u8x8_d_ssd1306_128x32.c **** 	{
ARM GAS  C:\Users\brian\AppData\Local\Temp\cc4RiXXm.s 			page 5


 163:..\u8g2\csrc/u8x8_d_ssd1306_128x32.c **** 	  u8x8_cad_SendData(u8x8, 8, ptr);
 164:..\u8g2\csrc/u8x8_d_ssd1306_128x32.c **** 	  ptr += 8;
 165:..\u8g2\csrc/u8x8_d_ssd1306_128x32.c **** 	  c--;
 166:..\u8g2\csrc/u8x8_d_ssd1306_128x32.c **** 	} while( c > 0 );
 167:..\u8g2\csrc/u8x8_d_ssd1306_128x32.c **** 	*/
 168:..\u8g2\csrc/u8x8_d_ssd1306_128x32.c **** 	arg_int--;
 169:..\u8g2\csrc/u8x8_d_ssd1306_128x32.c ****       } while( arg_int > 0 );
 170:..\u8g2\csrc/u8x8_d_ssd1306_128x32.c ****       
 171:..\u8g2\csrc/u8x8_d_ssd1306_128x32.c ****       u8x8_cad_EndTransfer(u8x8);
 172:..\u8g2\csrc/u8x8_d_ssd1306_128x32.c ****       break;
 173:..\u8g2\csrc/u8x8_d_ssd1306_128x32.c ****     default:
 174:..\u8g2\csrc/u8x8_d_ssd1306_128x32.c ****       return 0;
 175:..\u8g2\csrc/u8x8_d_ssd1306_128x32.c ****   }
 176:..\u8g2\csrc/u8x8_d_ssd1306_128x32.c ****   return 1;
  67              		.loc 1 176 0
  68 0024 0120     		movs	r0, #1
 119:..\u8g2\csrc/u8x8_d_ssd1306_128x32.c ****       break;
  69              		.loc 1 119 0
  70 0026 F8BD     		pop	{r3, r4, r5, r6, r7, pc}
  71              	.LVL5:
  72              	.L5:
 121:..\u8g2\csrc/u8x8_d_ssd1306_128x32.c **** 	u8x8_cad_SendSequence(u8x8, u8x8_d_ssd1306_128x32_univision_powersave0_seq);
  73              		.loc 1 121 0
  74 0028 22B9     		cbnz	r2, .L9
 122:..\u8g2\csrc/u8x8_d_ssd1306_128x32.c ****       else
  75              		.loc 1 122 0
  76 002a 2D49     		ldr	r1, .L14+4
  77 002c FFF7FEFF 		bl	u8x8_cad_SendSequence
  78              	.LVL6:
  79              		.loc 1 176 0
  80 0030 0120     		movs	r0, #1
  81 0032 F8BD     		pop	{r3, r4, r5, r6, r7, pc}
  82              	.LVL7:
  83              	.L9:
 124:..\u8g2\csrc/u8x8_d_ssd1306_128x32.c ****       break;
  84              		.loc 1 124 0
  85 0034 2B49     		ldr	r1, .L14+8
  86 0036 FFF7FEFF 		bl	u8x8_cad_SendSequence
  87              	.LVL8:
  88              		.loc 1 176 0
  89 003a 0120     		movs	r0, #1
  90 003c F8BD     		pop	{r3, r4, r5, r6, r7, pc}
  91              	.LVL9:
  92              	.L6:
 127:..\u8g2\csrc/u8x8_d_ssd1306_128x32.c ****       {
  93              		.loc 1 127 0
  94 003e 42B9     		cbnz	r2, .L10
 129:..\u8g2\csrc/u8x8_d_ssd1306_128x32.c **** 	u8x8->x_offset = u8x8->display_info->default_x_offset;
  95              		.loc 1 129 0
  96 0040 2949     		ldr	r1, .L14+12
  97 0042 FFF7FEFF 		bl	u8x8_cad_SendSequence
  98              	.LVL10:
 130:..\u8g2\csrc/u8x8_d_ssd1306_128x32.c ****       }
  99              		.loc 1 130 0
 100 0046 2B68     		ldr	r3, [r5]
 101 0048 9B7C     		ldrb	r3, [r3, #18]	@ zero_extendqisi2
 102 004a 85F82230 		strb	r3, [r5, #34]
ARM GAS  C:\Users\brian\AppData\Local\Temp\cc4RiXXm.s 			page 6


 103              		.loc 1 176 0
 104 004e 0120     		movs	r0, #1
 105 0050 F8BD     		pop	{r3, r4, r5, r6, r7, pc}
 106              	.LVL11:
 107              	.L10:
 134:..\u8g2\csrc/u8x8_d_ssd1306_128x32.c **** 	u8x8->x_offset = u8x8->display_info->flipmode_x_offset;
 108              		.loc 1 134 0
 109 0052 2649     		ldr	r1, .L14+16
 110 0054 FFF7FEFF 		bl	u8x8_cad_SendSequence
 111              	.LVL12:
 135:..\u8g2\csrc/u8x8_d_ssd1306_128x32.c ****       }
 112              		.loc 1 135 0
 113 0058 2B68     		ldr	r3, [r5]
 114 005a DB7C     		ldrb	r3, [r3, #19]	@ zero_extendqisi2
 115 005c 85F82230 		strb	r3, [r5, #34]
 116              		.loc 1 176 0
 117 0060 0120     		movs	r0, #1
 118 0062 F8BD     		pop	{r3, r4, r5, r6, r7, pc}
 119              	.LVL13:
 120              	.L7:
 140:..\u8g2\csrc/u8x8_d_ssd1306_128x32.c ****       u8x8_cad_SendCmd(u8x8, 0x081 );
 121              		.loc 1 140 0
 122 0064 FFF7FEFF 		bl	u8x8_cad_StartTransfer
 123              	.LVL14:
 141:..\u8g2\csrc/u8x8_d_ssd1306_128x32.c ****       u8x8_cad_SendArg(u8x8, arg_int );	/* ssd1306 has range from 0 to 255 */
 124              		.loc 1 141 0
 125 0068 8121     		movs	r1, #129
 126 006a 2846     		mov	r0, r5
 127 006c FFF7FEFF 		bl	u8x8_cad_SendCmd
 128              	.LVL15:
 142:..\u8g2\csrc/u8x8_d_ssd1306_128x32.c ****       u8x8_cad_EndTransfer(u8x8);
 129              		.loc 1 142 0
 130 0070 2146     		mov	r1, r4
 131 0072 2846     		mov	r0, r5
 132 0074 FFF7FEFF 		bl	u8x8_cad_SendArg
 133              	.LVL16:
 143:..\u8g2\csrc/u8x8_d_ssd1306_128x32.c ****       break;
 134              		.loc 1 143 0
 135 0078 2846     		mov	r0, r5
 136 007a FFF7FEFF 		bl	u8x8_cad_EndTransfer
 137              	.LVL17:
 138              		.loc 1 176 0
 139 007e 0120     		movs	r0, #1
 144:..\u8g2\csrc/u8x8_d_ssd1306_128x32.c **** #endif
 140              		.loc 1 144 0
 141 0080 F8BD     		pop	{r3, r4, r5, r6, r7, pc}
 142              	.LVL18:
 143              	.L8:
 147:..\u8g2\csrc/u8x8_d_ssd1306_128x32.c ****       x = ((u8x8_tile_t *)arg_ptr)->x_pos;    
 144              		.loc 1 147 0
 145 0082 FFF7FEFF 		bl	u8x8_cad_StartTransfer
 146              	.LVL19:
 148:..\u8g2\csrc/u8x8_d_ssd1306_128x32.c ****       x *= 8;
 147              		.loc 1 148 0
 148 0086 7779     		ldrb	r7, [r6, #5]	@ zero_extendqisi2
 149              	.LVL20:
 149:..\u8g2\csrc/u8x8_d_ssd1306_128x32.c ****       x += u8x8->x_offset;
ARM GAS  C:\Users\brian\AppData\Local\Temp\cc4RiXXm.s 			page 7


 150              		.loc 1 149 0
 151 0088 FF00     		lsls	r7, r7, #3
 152              	.LVL21:
 153 008a FFB2     		uxtb	r7, r7
 154              	.LVL22:
 150:..\u8g2\csrc/u8x8_d_ssd1306_128x32.c ****       u8x8_cad_SendCmd(u8x8, 0x010 | (x>>4) );
 155              		.loc 1 150 0
 156 008c 95F82230 		ldrb	r3, [r5, #34]	@ zero_extendqisi2
 157 0090 1F44     		add	r7, r7, r3
 158              	.LVL23:
 159 0092 FFB2     		uxtb	r7, r7
 160              	.LVL24:
 151:..\u8g2\csrc/u8x8_d_ssd1306_128x32.c ****       u8x8_cad_SendCmd(u8x8, 0x000 | ((x&15)));
 161              		.loc 1 151 0
 162 0094 3909     		lsrs	r1, r7, #4
 163 0096 41F01001 		orr	r1, r1, #16
 164 009a 2846     		mov	r0, r5
 165 009c FFF7FEFF 		bl	u8x8_cad_SendCmd
 166              	.LVL25:
 152:..\u8g2\csrc/u8x8_d_ssd1306_128x32.c ****       u8x8_cad_SendCmd(u8x8, 0x0b0 | (((u8x8_tile_t *)arg_ptr)->y_pos));
 167              		.loc 1 152 0
 168 00a0 07F00F01 		and	r1, r7, #15
 169 00a4 2846     		mov	r0, r5
 170 00a6 FFF7FEFF 		bl	u8x8_cad_SendCmd
 171              	.LVL26:
 153:..\u8g2\csrc/u8x8_d_ssd1306_128x32.c ****       
 172              		.loc 1 153 0
 173 00aa B179     		ldrb	r1, [r6, #6]	@ zero_extendqisi2
 174 00ac 41F0B001 		orr	r1, r1, #176
 175 00b0 2846     		mov	r0, r5
 176 00b2 FFF7FEFF 		bl	u8x8_cad_SendCmd
 177              	.LVL27:
 178              	.L11:
 157:..\u8g2\csrc/u8x8_d_ssd1306_128x32.c **** 	ptr = ((u8x8_tile_t *)arg_ptr)->tile_ptr;
 179              		.loc 1 157 0 discriminator 1
 180 00b6 3179     		ldrb	r1, [r6, #4]	@ zero_extendqisi2
 181              	.LVL28:
 159:..\u8g2\csrc/u8x8_d_ssd1306_128x32.c **** 	/*
 182              		.loc 1 159 0 discriminator 1
 183 00b8 C900     		lsls	r1, r1, #3
 184              	.LVL29:
 185 00ba 3268     		ldr	r2, [r6]
 186 00bc 01F0F801 		and	r1, r1, #248
 187 00c0 2846     		mov	r0, r5
 188 00c2 FFF7FEFF 		bl	u8x8_cad_SendData
 189              	.LVL30:
 168:..\u8g2\csrc/u8x8_d_ssd1306_128x32.c ****       } while( arg_int > 0 );
 190              		.loc 1 168 0 discriminator 1
 191 00c6 621E     		subs	r2, r4, #1
 192              	.LVL31:
 169:..\u8g2\csrc/u8x8_d_ssd1306_128x32.c ****       
 193              		.loc 1 169 0 discriminator 1
 194 00c8 12F0FF04 		ands	r4, r2, #255
 195 00cc F3D1     		bne	.L11
 171:..\u8g2\csrc/u8x8_d_ssd1306_128x32.c ****       break;
 196              		.loc 1 171 0
 197 00ce 2846     		mov	r0, r5
ARM GAS  C:\Users\brian\AppData\Local\Temp\cc4RiXXm.s 			page 8


 198 00d0 FFF7FEFF 		bl	u8x8_cad_EndTransfer
 199              	.LVL32:
 200              		.loc 1 176 0
 201 00d4 0120     		movs	r0, #1
 172:..\u8g2\csrc/u8x8_d_ssd1306_128x32.c ****     default:
 202              		.loc 1 172 0
 203 00d6 F8BD     		pop	{r3, r4, r5, r6, r7, pc}
 204              	.LVL33:
 205              	.L12:
 174:..\u8g2\csrc/u8x8_d_ssd1306_128x32.c ****   }
 206              		.loc 1 174 0
 207 00d8 0020     		movs	r0, #0
 208              	.LVL34:
 177:..\u8g2\csrc/u8x8_d_ssd1306_128x32.c **** }
 209              		.loc 1 177 0
 210 00da F8BD     		pop	{r3, r4, r5, r6, r7, pc}
 211              	.LVL35:
 212              	.L15:
 213              		.align	2
 214              	.L14:
 215 00dc 00000000 		.word	.LANCHOR0
 216 00e0 38000000 		.word	.LANCHOR0+56
 217 00e4 40000000 		.word	.LANCHOR0+64
 218 00e8 48000000 		.word	.LANCHOR0+72
 219 00ec 50000000 		.word	.LANCHOR0+80
 220              		.cfi_endproc
 221              	.LFE0:
 222              		.size	u8x8_d_ssd1306_128x32_generic, .-u8x8_d_ssd1306_128x32_generic
 223              		.section	.text.u8x8_d_ssd1306_128x32_univision,"ax",%progbits
 224              		.align	2
 225              		.global	u8x8_d_ssd1306_128x32_univision
 226              		.thumb
 227              		.thumb_func
 228              		.type	u8x8_d_ssd1306_128x32_univision, %function
 229              	u8x8_d_ssd1306_128x32_univision:
 230              	.LFB1:
 178:..\u8g2\csrc/u8x8_d_ssd1306_128x32.c **** 
 179:..\u8g2\csrc/u8x8_d_ssd1306_128x32.c **** 
 180:..\u8g2\csrc/u8x8_d_ssd1306_128x32.c **** static const u8x8_display_info_t u8x8_ssd1306_128x32_univision_display_info =
 181:..\u8g2\csrc/u8x8_d_ssd1306_128x32.c **** {
 182:..\u8g2\csrc/u8x8_d_ssd1306_128x32.c ****   /* chip_enable_level = */ 0,
 183:..\u8g2\csrc/u8x8_d_ssd1306_128x32.c ****   /* chip_disable_level = */ 1,
 184:..\u8g2\csrc/u8x8_d_ssd1306_128x32.c ****   
 185:..\u8g2\csrc/u8x8_d_ssd1306_128x32.c ****   /* post_chip_enable_wait_ns = */ 20,
 186:..\u8g2\csrc/u8x8_d_ssd1306_128x32.c ****   /* pre_chip_disable_wait_ns = */ 10,
 187:..\u8g2\csrc/u8x8_d_ssd1306_128x32.c ****   /* reset_pulse_width_ms = */ 100, 	/* SSD1306: 3 us */
 188:..\u8g2\csrc/u8x8_d_ssd1306_128x32.c ****   /* post_reset_wait_ms = */ 100, /* far east OLEDs need much longer setup time */
 189:..\u8g2\csrc/u8x8_d_ssd1306_128x32.c ****   /* sda_setup_time_ns = */ 50,		/* SSD1306: 15ns, but cycle time is 100ns, so use 100/2 */
 190:..\u8g2\csrc/u8x8_d_ssd1306_128x32.c ****   /* sck_pulse_width_ns = */ 50,	/* SSD1306: 20ns, but cycle time is 100ns, so use 100/2, AVR: belo
 191:..\u8g2\csrc/u8x8_d_ssd1306_128x32.c ****   /* sck_clock_hz = */ 8000000UL,	/* since Arduino 1.6.0, the SPI bus speed in Hz. Should be  10000
 192:..\u8g2\csrc/u8x8_d_ssd1306_128x32.c ****   /* spi_mode = */ 0,		/* active high, rising edge */
 193:..\u8g2\csrc/u8x8_d_ssd1306_128x32.c ****   /* i2c_bus_clock_100kHz = */ 4,
 194:..\u8g2\csrc/u8x8_d_ssd1306_128x32.c ****   /* data_setup_time_ns = */ 40,
 195:..\u8g2\csrc/u8x8_d_ssd1306_128x32.c ****   /* write_pulse_width_ns = */ 150,	/* SSD1306: cycle time is 300ns, so use 300/2 = 150 */
 196:..\u8g2\csrc/u8x8_d_ssd1306_128x32.c ****   /* tile_width = */ 16,
 197:..\u8g2\csrc/u8x8_d_ssd1306_128x32.c ****   /* tile_hight = */ 4,
 198:..\u8g2\csrc/u8x8_d_ssd1306_128x32.c ****   /* default_x_offset = */ 0,
ARM GAS  C:\Users\brian\AppData\Local\Temp\cc4RiXXm.s 			page 9


 199:..\u8g2\csrc/u8x8_d_ssd1306_128x32.c ****   /* flipmode_x_offset = */ 0,
 200:..\u8g2\csrc/u8x8_d_ssd1306_128x32.c ****   /* pixel_width = */ 128,
 201:..\u8g2\csrc/u8x8_d_ssd1306_128x32.c ****   /* pixel_height = */ 32
 202:..\u8g2\csrc/u8x8_d_ssd1306_128x32.c **** };
 203:..\u8g2\csrc/u8x8_d_ssd1306_128x32.c **** 
 204:..\u8g2\csrc/u8x8_d_ssd1306_128x32.c **** uint8_t u8x8_d_ssd1306_128x32_univision(u8x8_t *u8x8, uint8_t msg, uint8_t arg_int, void *arg_ptr)
 205:..\u8g2\csrc/u8x8_d_ssd1306_128x32.c **** {
 231              		.loc 1 205 0
 232              		.cfi_startproc
 233              		@ args = 0, pretend = 0, frame = 0
 234              		@ frame_needed = 0, uses_anonymous_args = 0
 235              	.LVL36:
 236 0000 08B5     		push	{r3, lr}
 237              		.cfi_def_cfa_offset 8
 238              		.cfi_offset 3, -8
 239              		.cfi_offset 14, -4
 206:..\u8g2\csrc/u8x8_d_ssd1306_128x32.c ****     if ( msg == U8X8_MSG_DISPLAY_SETUP_MEMORY )
 240              		.loc 1 206 0
 241 0002 0929     		cmp	r1, #9
 242 0004 04D1     		bne	.L17
 207:..\u8g2\csrc/u8x8_d_ssd1306_128x32.c ****     {
 208:..\u8g2\csrc/u8x8_d_ssd1306_128x32.c ****       u8x8_d_helper_display_setup_memory(u8x8, &u8x8_ssd1306_128x32_univision_display_info);
 243              		.loc 1 208 0
 244 0006 0449     		ldr	r1, .L20
 245              	.LVL37:
 246 0008 FFF7FEFF 		bl	u8x8_d_helper_display_setup_memory
 247              	.LVL38:
 209:..\u8g2\csrc/u8x8_d_ssd1306_128x32.c ****       return 1;
 248              		.loc 1 209 0
 249 000c 0120     		movs	r0, #1
 250 000e 08BD     		pop	{r3, pc}
 251              	.LVL39:
 252              	.L17:
 210:..\u8g2\csrc/u8x8_d_ssd1306_128x32.c ****     }
 211:..\u8g2\csrc/u8x8_d_ssd1306_128x32.c ****     return u8x8_d_ssd1306_128x32_generic(u8x8, msg, arg_int, arg_ptr);
 253              		.loc 1 211 0
 254 0010 FFF7FEFF 		bl	u8x8_d_ssd1306_128x32_generic
 255              	.LVL40:
 212:..\u8g2\csrc/u8x8_d_ssd1306_128x32.c **** }
 256              		.loc 1 212 0
 257 0014 08BD     		pop	{r3, pc}
 258              	.L21:
 259 0016 00BF     		.align	2
 260              	.L20:
 261 0018 58000000 		.word	.LANCHOR0+88
 262              		.cfi_endproc
 263              	.LFE1:
 264              		.size	u8x8_d_ssd1306_128x32_univision, .-u8x8_d_ssd1306_128x32_univision
 265              		.section	.text.u8x8_d_ssd1306_128x32_winstar,"ax",%progbits
 266              		.align	2
 267              		.global	u8x8_d_ssd1306_128x32_winstar
 268              		.thumb
 269              		.thumb_func
 270              		.type	u8x8_d_ssd1306_128x32_winstar, %function
 271              	u8x8_d_ssd1306_128x32_winstar:
 272              	.LFB2:
 213:..\u8g2\csrc/u8x8_d_ssd1306_128x32.c **** 
ARM GAS  C:\Users\brian\AppData\Local\Temp\cc4RiXXm.s 			page 10


 214:..\u8g2\csrc/u8x8_d_ssd1306_128x32.c **** /*=============================================*/
 215:..\u8g2\csrc/u8x8_d_ssd1306_128x32.c **** /* issue 756 */
 216:..\u8g2\csrc/u8x8_d_ssd1306_128x32.c **** 
 217:..\u8g2\csrc/u8x8_d_ssd1306_128x32.c **** #define	    ADDR_MODE	0 //0:horizontal, 1:vertical, 2:page
 218:..\u8g2\csrc/u8x8_d_ssd1306_128x32.c **** 
 219:..\u8g2\csrc/u8x8_d_ssd1306_128x32.c **** 
 220:..\u8g2\csrc/u8x8_d_ssd1306_128x32.c **** static const u8x8_display_info_t u8x8_ssd1306_128x32_winstar_display_info =
 221:..\u8g2\csrc/u8x8_d_ssd1306_128x32.c **** {
 222:..\u8g2\csrc/u8x8_d_ssd1306_128x32.c ****   /* chip_enable_level = */ 0,
 223:..\u8g2\csrc/u8x8_d_ssd1306_128x32.c ****   /* chip_disable_level = */ 1,
 224:..\u8g2\csrc/u8x8_d_ssd1306_128x32.c ****   
 225:..\u8g2\csrc/u8x8_d_ssd1306_128x32.c ****   /* post_chip_enable_wait_ns = */ 20,
 226:..\u8g2\csrc/u8x8_d_ssd1306_128x32.c ****   /* pre_chip_disable_wait_ns = */ 10,
 227:..\u8g2\csrc/u8x8_d_ssd1306_128x32.c ****   /* reset_pulse_width_ms = */ 100, 	/* SSD1306: 3 us */
 228:..\u8g2\csrc/u8x8_d_ssd1306_128x32.c ****   /* post_reset_wait_ms = */ 100, /* far east OLEDs need much longer setup time */
 229:..\u8g2\csrc/u8x8_d_ssd1306_128x32.c ****   /* sda_setup_time_ns = */ 50,		/* SSD1306: 15ns, but cycle time is 100ns, so use 100/2 */
 230:..\u8g2\csrc/u8x8_d_ssd1306_128x32.c ****   /* sck_pulse_width_ns = */ 50,	/* SSD1306: 20ns, but cycle time is 100ns, so use 100/2, AVR: belo
 231:..\u8g2\csrc/u8x8_d_ssd1306_128x32.c ****   /* sck_clock_hz = */ 8000000UL,	/* since Arduino 1.6.0, the SPI bus speed in Hz. Should be  10000
 232:..\u8g2\csrc/u8x8_d_ssd1306_128x32.c ****   /* spi_mode = */ 0,		/* active high, rising edge */
 233:..\u8g2\csrc/u8x8_d_ssd1306_128x32.c ****   /* i2c_bus_clock_100kHz = */ 4,
 234:..\u8g2\csrc/u8x8_d_ssd1306_128x32.c ****   /* data_setup_time_ns = */ 40,
 235:..\u8g2\csrc/u8x8_d_ssd1306_128x32.c ****   /* write_pulse_width_ns = */ 150,	/* SSD1306: cycle time is 300ns, so use 300/2 = 150 */
 236:..\u8g2\csrc/u8x8_d_ssd1306_128x32.c ****   /* tile_width = */ 16,
 237:..\u8g2\csrc/u8x8_d_ssd1306_128x32.c ****   /* tile_hight = */ 4,
 238:..\u8g2\csrc/u8x8_d_ssd1306_128x32.c ****   /* default_x_offset = */ 125,
 239:..\u8g2\csrc/u8x8_d_ssd1306_128x32.c ****   /* flipmode_x_offset = */ 125,
 240:..\u8g2\csrc/u8x8_d_ssd1306_128x32.c ****   /* pixel_width = */ 128,
 241:..\u8g2\csrc/u8x8_d_ssd1306_128x32.c ****   /* pixel_height = */ 32
 242:..\u8g2\csrc/u8x8_d_ssd1306_128x32.c **** };
 243:..\u8g2\csrc/u8x8_d_ssd1306_128x32.c **** 
 244:..\u8g2\csrc/u8x8_d_ssd1306_128x32.c **** uint8_t u8x8_d_ssd1306_128x32_winstar(u8x8_t *u8x8, uint8_t msg, uint8_t arg_int, void *arg_ptr)
 245:..\u8g2\csrc/u8x8_d_ssd1306_128x32.c **** {
 273              		.loc 1 245 0
 274              		.cfi_startproc
 275              		@ args = 0, pretend = 0, frame = 0
 276              		@ frame_needed = 0, uses_anonymous_args = 0
 277              	.LVL41:
 278 0000 08B5     		push	{r3, lr}
 279              		.cfi_def_cfa_offset 8
 280              		.cfi_offset 3, -8
 281              		.cfi_offset 14, -4
 246:..\u8g2\csrc/u8x8_d_ssd1306_128x32.c ****     if ( msg == U8X8_MSG_DISPLAY_SETUP_MEMORY )
 282              		.loc 1 246 0
 283 0002 0929     		cmp	r1, #9
 284 0004 04D1     		bne	.L23
 247:..\u8g2\csrc/u8x8_d_ssd1306_128x32.c ****     {
 248:..\u8g2\csrc/u8x8_d_ssd1306_128x32.c ****       u8x8_d_helper_display_setup_memory(u8x8, &u8x8_ssd1306_128x32_winstar_display_info);
 285              		.loc 1 248 0
 286 0006 0449     		ldr	r1, .L26
 287              	.LVL42:
 288 0008 FFF7FEFF 		bl	u8x8_d_helper_display_setup_memory
 289              	.LVL43:
 249:..\u8g2\csrc/u8x8_d_ssd1306_128x32.c ****       return 1;
 290              		.loc 1 249 0
 291 000c 0120     		movs	r0, #1
 292 000e 08BD     		pop	{r3, pc}
 293              	.LVL44:
ARM GAS  C:\Users\brian\AppData\Local\Temp\cc4RiXXm.s 			page 11


 294              	.L23:
 250:..\u8g2\csrc/u8x8_d_ssd1306_128x32.c ****     }
 251:..\u8g2\csrc/u8x8_d_ssd1306_128x32.c ****     return u8x8_d_ssd1306_128x32_generic(u8x8, msg, arg_int, arg_ptr);
 295              		.loc 1 251 0
 296 0010 FFF7FEFF 		bl	u8x8_d_ssd1306_128x32_generic
 297              	.LVL45:
 252:..\u8g2\csrc/u8x8_d_ssd1306_128x32.c **** }
 298              		.loc 1 252 0
 299 0014 08BD     		pop	{r3, pc}
 300              	.L27:
 301 0016 00BF     		.align	2
 302              	.L26:
 303 0018 70000000 		.word	.LANCHOR0+112
 304              		.cfi_endproc
 305              	.LFE2:
 306              		.size	u8x8_d_ssd1306_128x32_winstar, .-u8x8_d_ssd1306_128x32_winstar
 307              		.section	.text.u8x8_d_sh1106_128x32_visionox,"ax",%progbits
 308              		.align	2
 309              		.global	u8x8_d_sh1106_128x32_visionox
 310              		.thumb
 311              		.thumb_func
 312              		.type	u8x8_d_sh1106_128x32_visionox, %function
 313              	u8x8_d_sh1106_128x32_visionox:
 314              	.LFB3:
 253:..\u8g2\csrc/u8x8_d_ssd1306_128x32.c **** 
 254:..\u8g2\csrc/u8x8_d_ssd1306_128x32.c **** 
 255:..\u8g2\csrc/u8x8_d_ssd1306_128x32.c **** /*=============================================*/
 256:..\u8g2\csrc/u8x8_d_ssd1306_128x32.c **** /* visionox 132x32 OLED, https://github.com/olikraus/u8g2/issues/1250 */
 257:..\u8g2\csrc/u8x8_d_ssd1306_128x32.c **** 
 258:..\u8g2\csrc/u8x8_d_ssd1306_128x32.c **** 
 259:..\u8g2\csrc/u8x8_d_ssd1306_128x32.c **** static const uint8_t u8x8_d_sh1106_128x32_visionox_init_seq[] = {
 260:..\u8g2\csrc/u8x8_d_ssd1306_128x32.c ****     
 261:..\u8g2\csrc/u8x8_d_ssd1306_128x32.c ****   U8X8_START_TRANSFER(),             	/* enable chip, delay is part of the transfer start */
 262:..\u8g2\csrc/u8x8_d_ssd1306_128x32.c ****   
 263:..\u8g2\csrc/u8x8_d_ssd1306_128x32.c ****   U8X8_C(0xAE),
 264:..\u8g2\csrc/u8x8_d_ssd1306_128x32.c ****   U8X8_CA(0xD5, 0x91),
 265:..\u8g2\csrc/u8x8_d_ssd1306_128x32.c ****   U8X8_CA(0xA8, 0x1F),
 266:..\u8g2\csrc/u8x8_d_ssd1306_128x32.c ****   U8X8_CA(0xD3, 0x10),
 267:..\u8g2\csrc/u8x8_d_ssd1306_128x32.c ****   U8X8_C(0x40),
 268:..\u8g2\csrc/u8x8_d_ssd1306_128x32.c ****   U8X8_CA(0xAD, 0x8B),
 269:..\u8g2\csrc/u8x8_d_ssd1306_128x32.c ****   U8X8_C(0x33),
 270:..\u8g2\csrc/u8x8_d_ssd1306_128x32.c ****   U8X8_C(0xA1),
 271:..\u8g2\csrc/u8x8_d_ssd1306_128x32.c ****   U8X8_C(0xC8),
 272:..\u8g2\csrc/u8x8_d_ssd1306_128x32.c ****   U8X8_CA(0xDA, 0x12),
 273:..\u8g2\csrc/u8x8_d_ssd1306_128x32.c ****   U8X8_CA(0x81, 0xAF),
 274:..\u8g2\csrc/u8x8_d_ssd1306_128x32.c ****   U8X8_CA(0xD9, 0x1F),
 275:..\u8g2\csrc/u8x8_d_ssd1306_128x32.c ****   U8X8_CA(0xDB, 0x25),
 276:..\u8g2\csrc/u8x8_d_ssd1306_128x32.c ****   U8X8_C(0xA4),
 277:..\u8g2\csrc/u8x8_d_ssd1306_128x32.c ****   U8X8_C(0xA6),
 278:..\u8g2\csrc/u8x8_d_ssd1306_128x32.c ****     
 279:..\u8g2\csrc/u8x8_d_ssd1306_128x32.c ****   U8X8_END_TRANSFER(),             	/* disable chip */
 280:..\u8g2\csrc/u8x8_d_ssd1306_128x32.c ****   U8X8_END()             			/* end of sequence */
 281:..\u8g2\csrc/u8x8_d_ssd1306_128x32.c **** };
 282:..\u8g2\csrc/u8x8_d_ssd1306_128x32.c **** 
 283:..\u8g2\csrc/u8x8_d_ssd1306_128x32.c **** static const u8x8_display_info_t u8x8_d_sh1106_128x32_visionox_display_info =
 284:..\u8g2\csrc/u8x8_d_ssd1306_128x32.c **** {
 285:..\u8g2\csrc/u8x8_d_ssd1306_128x32.c ****   /* chip_enable_level = */ 0,
ARM GAS  C:\Users\brian\AppData\Local\Temp\cc4RiXXm.s 			page 12


 286:..\u8g2\csrc/u8x8_d_ssd1306_128x32.c ****   /* chip_disable_level = */ 1,
 287:..\u8g2\csrc/u8x8_d_ssd1306_128x32.c ****   
 288:..\u8g2\csrc/u8x8_d_ssd1306_128x32.c ****   /* post_chip_enable_wait_ns = */ 20,
 289:..\u8g2\csrc/u8x8_d_ssd1306_128x32.c ****   /* pre_chip_disable_wait_ns = */ 10,
 290:..\u8g2\csrc/u8x8_d_ssd1306_128x32.c ****   /* reset_pulse_width_ms = */ 100, 	/* SSD1306: 3 us */
 291:..\u8g2\csrc/u8x8_d_ssd1306_128x32.c ****   /* post_reset_wait_ms = */ 100, /* far east OLEDs need much longer setup time */
 292:..\u8g2\csrc/u8x8_d_ssd1306_128x32.c ****   /* sda_setup_time_ns = */ 50,		/* SSD1306: 15ns, but cycle time is 100ns, so use 100/2 */
 293:..\u8g2\csrc/u8x8_d_ssd1306_128x32.c ****   /* sck_pulse_width_ns = */ 50,	/* SSD1306: 20ns, but cycle time is 100ns, so use 100/2, AVR: belo
 294:..\u8g2\csrc/u8x8_d_ssd1306_128x32.c ****   /* sck_clock_hz = */ 4000000UL,	/* since Arduino 1.6.0, the SPI bus speed in Hz. Should be  10000
 295:..\u8g2\csrc/u8x8_d_ssd1306_128x32.c ****   /* spi_mode = */ 0,		/* active high, rising edge */
 296:..\u8g2\csrc/u8x8_d_ssd1306_128x32.c ****   /* i2c_bus_clock_100kHz = */ 4,
 297:..\u8g2\csrc/u8x8_d_ssd1306_128x32.c ****   /* data_setup_time_ns = */ 40,
 298:..\u8g2\csrc/u8x8_d_ssd1306_128x32.c ****   /* write_pulse_width_ns = */ 150,	/* SSD1306: cycle time is 300ns, so use 300/2 = 150 */
 299:..\u8g2\csrc/u8x8_d_ssd1306_128x32.c ****   /* tile_width = */ 16,
 300:..\u8g2\csrc/u8x8_d_ssd1306_128x32.c ****   /* tile_hight = */ 4,
 301:..\u8g2\csrc/u8x8_d_ssd1306_128x32.c ****   /* default_x_offset = */ 2,
 302:..\u8g2\csrc/u8x8_d_ssd1306_128x32.c ****   /* flipmode_x_offset = */ 2,
 303:..\u8g2\csrc/u8x8_d_ssd1306_128x32.c ****   /* pixel_width = */ 128,
 304:..\u8g2\csrc/u8x8_d_ssd1306_128x32.c ****   /* pixel_height = */ 32
 305:..\u8g2\csrc/u8x8_d_ssd1306_128x32.c **** };
 306:..\u8g2\csrc/u8x8_d_ssd1306_128x32.c **** 
 307:..\u8g2\csrc/u8x8_d_ssd1306_128x32.c **** 
 308:..\u8g2\csrc/u8x8_d_ssd1306_128x32.c **** uint8_t u8x8_d_sh1106_128x32_visionox(u8x8_t *u8x8, uint8_t msg, uint8_t arg_int, void *arg_ptr)
 309:..\u8g2\csrc/u8x8_d_ssd1306_128x32.c **** {
 315              		.loc 1 309 0
 316              		.cfi_startproc
 317              		@ args = 0, pretend = 0, frame = 0
 318              		@ frame_needed = 0, uses_anonymous_args = 0
 319              	.LVL46:
 320 0000 F8B5     		push	{r3, r4, r5, r6, r7, lr}
 321              		.cfi_def_cfa_offset 24
 322              		.cfi_offset 3, -24
 323              		.cfi_offset 4, -20
 324              		.cfi_offset 5, -16
 325              		.cfi_offset 6, -12
 326              		.cfi_offset 7, -8
 327              		.cfi_offset 14, -4
 328 0002 0546     		mov	r5, r0
 310:..\u8g2\csrc/u8x8_d_ssd1306_128x32.c ****     if ( msg == U8X8_MSG_DISPLAY_SETUP_MEMORY )
 329              		.loc 1 310 0
 330 0004 0929     		cmp	r1, #9
 331 0006 04D1     		bne	.L29
 311:..\u8g2\csrc/u8x8_d_ssd1306_128x32.c ****     {
 312:..\u8g2\csrc/u8x8_d_ssd1306_128x32.c ****       u8x8_d_helper_display_setup_memory(u8x8, &u8x8_d_sh1106_128x32_visionox_display_info);
 332              		.loc 1 312 0
 333 0008 0B49     		ldr	r1, .L33
 334              	.LVL47:
 335 000a FFF7FEFF 		bl	u8x8_d_helper_display_setup_memory
 336              	.LVL48:
 313:..\u8g2\csrc/u8x8_d_ssd1306_128x32.c ****       return 1;
 337              		.loc 1 313 0
 338 000e 0120     		movs	r0, #1
 339 0010 F8BD     		pop	{r3, r4, r5, r6, r7, pc}
 340              	.LVL49:
 341              	.L29:
 342 0012 0C46     		mov	r4, r1
 343 0014 1646     		mov	r6, r2
ARM GAS  C:\Users\brian\AppData\Local\Temp\cc4RiXXm.s 			page 13


 344 0016 1F46     		mov	r7, r3
 314:..\u8g2\csrc/u8x8_d_ssd1306_128x32.c ****     }
 315:..\u8g2\csrc/u8x8_d_ssd1306_128x32.c **** 
 316:..\u8g2\csrc/u8x8_d_ssd1306_128x32.c ****     if ( msg == U8X8_MSG_DISPLAY_INIT )
 345              		.loc 1 316 0
 346 0018 0A29     		cmp	r1, #10
 347 001a 05D1     		bne	.L31
 317:..\u8g2\csrc/u8x8_d_ssd1306_128x32.c ****     {
 318:..\u8g2\csrc/u8x8_d_ssd1306_128x32.c ****       u8x8_d_helper_display_init(u8x8);
 348              		.loc 1 318 0
 349 001c FFF7FEFF 		bl	u8x8_d_helper_display_init
 350              	.LVL50:
 319:..\u8g2\csrc/u8x8_d_ssd1306_128x32.c ****       u8x8_cad_SendSequence(u8x8, u8x8_d_sh1106_128x32_visionox_init_seq);    
 351              		.loc 1 319 0
 352 0020 0649     		ldr	r1, .L33+4
 353 0022 2846     		mov	r0, r5
 354 0024 FFF7FEFF 		bl	u8x8_cad_SendSequence
 355              	.LVL51:
 356              	.L31:
 320:..\u8g2\csrc/u8x8_d_ssd1306_128x32.c ****     }
 321:..\u8g2\csrc/u8x8_d_ssd1306_128x32.c ****     
 322:..\u8g2\csrc/u8x8_d_ssd1306_128x32.c ****     return u8x8_d_ssd1306_128x32_generic(u8x8, msg, arg_int, arg_ptr);
 357              		.loc 1 322 0
 358 0028 3B46     		mov	r3, r7
 359 002a 3246     		mov	r2, r6
 360 002c 2146     		mov	r1, r4
 361 002e 2846     		mov	r0, r5
 362 0030 FFF7FEFF 		bl	u8x8_d_ssd1306_128x32_generic
 363              	.LVL52:
 323:..\u8g2\csrc/u8x8_d_ssd1306_128x32.c **** }
 364              		.loc 1 323 0
 365 0034 F8BD     		pop	{r3, r4, r5, r6, r7, pc}
 366              	.LVL53:
 367              	.L34:
 368 0036 00BF     		.align	2
 369              	.L33:
 370 0038 88000000 		.word	.LANCHOR0+136
 371 003c A0000000 		.word	.LANCHOR0+160
 372              		.cfi_endproc
 373              	.LFE3:
 374              		.size	u8x8_d_sh1106_128x32_visionox, .-u8x8_d_sh1106_128x32_visionox
 375              		.section	.rodata
 376              		.align	2
 377              		.set	.LANCHOR0,. + 0
 378              		.type	u8x8_d_ssd1306_128x32_univision_init_seq, %object
 379              		.size	u8x8_d_ssd1306_128x32_univision_init_seq, 53
 380              	u8x8_d_ssd1306_128x32_univision_init_seq:
 381 0000 18       		.byte	24
 382 0001 15       		.byte	21
 383 0002 AE       		.byte	-82
 384 0003 15       		.byte	21
 385 0004 D5       		.byte	-43
 386 0005 16       		.byte	22
 387 0006 80       		.byte	-128
 388 0007 15       		.byte	21
 389 0008 A8       		.byte	-88
 390 0009 16       		.byte	22
ARM GAS  C:\Users\brian\AppData\Local\Temp\cc4RiXXm.s 			page 14


 391 000a 1F       		.byte	31
 392 000b 15       		.byte	21
 393 000c D3       		.byte	-45
 394 000d 16       		.byte	22
 395 000e 00       		.byte	0
 396 000f 15       		.byte	21
 397 0010 40       		.byte	64
 398 0011 15       		.byte	21
 399 0012 8D       		.byte	-115
 400 0013 16       		.byte	22
 401 0014 14       		.byte	20
 402 0015 15       		.byte	21
 403 0016 20       		.byte	32
 404 0017 16       		.byte	22
 405 0018 00       		.byte	0
 406 0019 15       		.byte	21
 407 001a A1       		.byte	-95
 408 001b 15       		.byte	21
 409 001c C8       		.byte	-56
 410 001d 15       		.byte	21
 411 001e DA       		.byte	-38
 412 001f 16       		.byte	22
 413 0020 02       		.byte	2
 414 0021 15       		.byte	21
 415 0022 81       		.byte	-127
 416 0023 16       		.byte	22
 417 0024 8F       		.byte	-113
 418 0025 15       		.byte	21
 419 0026 D9       		.byte	-39
 420 0027 16       		.byte	22
 421 0028 F1       		.byte	-15
 422 0029 15       		.byte	21
 423 002a DB       		.byte	-37
 424 002b 16       		.byte	22
 425 002c 40       		.byte	64
 426 002d 15       		.byte	21
 427 002e 2E       		.byte	46
 428 002f 15       		.byte	21
 429 0030 A4       		.byte	-92
 430 0031 15       		.byte	21
 431 0032 A6       		.byte	-90
 432 0033 19       		.byte	25
 433 0034 FF       		.byte	-1
 434 0035 000000   		.space	3
 435              		.type	u8x8_d_ssd1306_128x32_univision_powersave0_seq, %object
 436              		.size	u8x8_d_ssd1306_128x32_univision_powersave0_seq, 5
 437              	u8x8_d_ssd1306_128x32_univision_powersave0_seq:
 438 0038 18       		.byte	24
 439 0039 15       		.byte	21
 440 003a AF       		.byte	-81
 441 003b 19       		.byte	25
 442 003c FF       		.byte	-1
 443 003d 000000   		.space	3
 444              		.type	u8x8_d_ssd1306_128x32_univision_powersave1_seq, %object
 445              		.size	u8x8_d_ssd1306_128x32_univision_powersave1_seq, 5
 446              	u8x8_d_ssd1306_128x32_univision_powersave1_seq:
 447 0040 18       		.byte	24
ARM GAS  C:\Users\brian\AppData\Local\Temp\cc4RiXXm.s 			page 15


 448 0041 15       		.byte	21
 449 0042 AE       		.byte	-82
 450 0043 19       		.byte	25
 451 0044 FF       		.byte	-1
 452 0045 000000   		.space	3
 453              		.type	u8x8_d_ssd1306_128x32_univision_flip0_seq, %object
 454              		.size	u8x8_d_ssd1306_128x32_univision_flip0_seq, 7
 455              	u8x8_d_ssd1306_128x32_univision_flip0_seq:
 456 0048 18       		.byte	24
 457 0049 15       		.byte	21
 458 004a A1       		.byte	-95
 459 004b 15       		.byte	21
 460 004c C8       		.byte	-56
 461 004d 19       		.byte	25
 462 004e FF       		.byte	-1
 463 004f 00       		.space	1
 464              		.type	u8x8_d_ssd1306_128x32_univision_flip1_seq, %object
 465              		.size	u8x8_d_ssd1306_128x32_univision_flip1_seq, 7
 466              	u8x8_d_ssd1306_128x32_univision_flip1_seq:
 467 0050 18       		.byte	24
 468 0051 15       		.byte	21
 469 0052 A0       		.byte	-96
 470 0053 15       		.byte	21
 471 0054 C0       		.byte	-64
 472 0055 19       		.byte	25
 473 0056 FF       		.byte	-1
 474 0057 00       		.space	1
 475              		.type	u8x8_ssd1306_128x32_univision_display_info, %object
 476              		.size	u8x8_ssd1306_128x32_univision_display_info, 24
 477              	u8x8_ssd1306_128x32_univision_display_info:
 478 0058 00       		.byte	0
 479 0059 01       		.byte	1
 480 005a 14       		.byte	20
 481 005b 0A       		.byte	10
 482 005c 64       		.byte	100
 483 005d 64       		.byte	100
 484 005e 32       		.byte	50
 485 005f 32       		.byte	50
 486 0060 00127A00 		.word	8000000
 487 0064 00       		.byte	0
 488 0065 04       		.byte	4
 489 0066 28       		.byte	40
 490 0067 96       		.byte	-106
 491 0068 10       		.byte	16
 492 0069 04       		.byte	4
 493 006a 00       		.byte	0
 494 006b 00       		.byte	0
 495 006c 8000     		.short	128
 496 006e 2000     		.short	32
 497              		.type	u8x8_ssd1306_128x32_winstar_display_info, %object
 498              		.size	u8x8_ssd1306_128x32_winstar_display_info, 24
 499              	u8x8_ssd1306_128x32_winstar_display_info:
 500 0070 00       		.byte	0
 501 0071 01       		.byte	1
 502 0072 14       		.byte	20
 503 0073 0A       		.byte	10
 504 0074 64       		.byte	100
ARM GAS  C:\Users\brian\AppData\Local\Temp\cc4RiXXm.s 			page 16


 505 0075 64       		.byte	100
 506 0076 32       		.byte	50
 507 0077 32       		.byte	50
 508 0078 00127A00 		.word	8000000
 509 007c 00       		.byte	0
 510 007d 04       		.byte	4
 511 007e 28       		.byte	40
 512 007f 96       		.byte	-106
 513 0080 10       		.byte	16
 514 0081 04       		.byte	4
 515 0082 7D       		.byte	125
 516 0083 7D       		.byte	125
 517 0084 8000     		.short	128
 518 0086 2000     		.short	32
 519              		.type	u8x8_d_sh1106_128x32_visionox_display_info, %object
 520              		.size	u8x8_d_sh1106_128x32_visionox_display_info, 24
 521              	u8x8_d_sh1106_128x32_visionox_display_info:
 522 0088 00       		.byte	0
 523 0089 01       		.byte	1
 524 008a 14       		.byte	20
 525 008b 0A       		.byte	10
 526 008c 64       		.byte	100
 527 008d 64       		.byte	100
 528 008e 32       		.byte	50
 529 008f 32       		.byte	50
 530 0090 00093D00 		.word	4000000
 531 0094 00       		.byte	0
 532 0095 04       		.byte	4
 533 0096 28       		.byte	40
 534 0097 96       		.byte	-106
 535 0098 10       		.byte	16
 536 0099 04       		.byte	4
 537 009a 02       		.byte	2
 538 009b 02       		.byte	2
 539 009c 8000     		.short	128
 540 009e 2000     		.short	32
 541              		.type	u8x8_d_sh1106_128x32_visionox_init_seq, %object
 542              		.size	u8x8_d_sh1106_128x32_visionox_init_seq, 49
 543              	u8x8_d_sh1106_128x32_visionox_init_seq:
 544 00a0 18       		.byte	24
 545 00a1 15       		.byte	21
 546 00a2 AE       		.byte	-82
 547 00a3 15       		.byte	21
 548 00a4 D5       		.byte	-43
 549 00a5 16       		.byte	22
 550 00a6 91       		.byte	-111
 551 00a7 15       		.byte	21
 552 00a8 A8       		.byte	-88
 553 00a9 16       		.byte	22
 554 00aa 1F       		.byte	31
 555 00ab 15       		.byte	21
 556 00ac D3       		.byte	-45
 557 00ad 16       		.byte	22
 558 00ae 10       		.byte	16
 559 00af 15       		.byte	21
 560 00b0 40       		.byte	64
 561 00b1 15       		.byte	21
ARM GAS  C:\Users\brian\AppData\Local\Temp\cc4RiXXm.s 			page 17


 562 00b2 AD       		.byte	-83
 563 00b3 16       		.byte	22
 564 00b4 8B       		.byte	-117
 565 00b5 15       		.byte	21
 566 00b6 33       		.byte	51
 567 00b7 15       		.byte	21
 568 00b8 A1       		.byte	-95
 569 00b9 15       		.byte	21
 570 00ba C8       		.byte	-56
 571 00bb 15       		.byte	21
 572 00bc DA       		.byte	-38
 573 00bd 16       		.byte	22
 574 00be 12       		.byte	18
 575 00bf 15       		.byte	21
 576 00c0 81       		.byte	-127
 577 00c1 16       		.byte	22
 578 00c2 AF       		.byte	-81
 579 00c3 15       		.byte	21
 580 00c4 D9       		.byte	-39
 581 00c5 16       		.byte	22
 582 00c6 1F       		.byte	31
 583 00c7 15       		.byte	21
 584 00c8 DB       		.byte	-37
 585 00c9 16       		.byte	22
 586 00ca 25       		.byte	37
 587 00cb 15       		.byte	21
 588 00cc A4       		.byte	-92
 589 00cd 15       		.byte	21
 590 00ce A6       		.byte	-90
 591 00cf 19       		.byte	25
 592 00d0 FF       		.byte	-1
 593              		.text
 594              	.Letext0:
 595              		.file 2 "c:\\program files (x86)\\cypress\\psoc creator\\4.4\\psoc creator\\import\\gnu\\arm\\5.4.
 596              		.file 3 "c:\\program files (x86)\\cypress\\psoc creator\\4.4\\psoc creator\\import\\gnu\\arm\\5.4.
 597              		.file 4 "..\\u8g2\\csrc\\u8x8.h"