ARM GAS  C:\Users\brian\AppData\Local\Temp\ccA45ZYh.s 			page 1


   1              		.syntax unified
   2              		.cpu cortex-m3
   3              		.fpu softvfp
   4              		.eabi_attribute 20, 1
   5              		.eabi_attribute 21, 1
   6              		.eabi_attribute 23, 3
   7              		.eabi_attribute 24, 1
   8              		.eabi_attribute 25, 1
   9              		.eabi_attribute 26, 1
  10              		.eabi_attribute 30, 1
  11              		.eabi_attribute 34, 1
  12              		.eabi_attribute 18, 4
  13              		.thumb
  14              		.syntax unified
  15              		.file	"u8x8_d_ssd1322.c"
  16              		.text
  17              	.Ltext0:
  18              		.cfi_sections	.debug_frame
  19              		.section	.text.u8x8_ssd1322_8to32,"ax",%progbits
  20              		.align	2
  21              		.thumb
  22              		.thumb_func
  23              		.type	u8x8_ssd1322_8to32, %function
  24              	u8x8_ssd1322_8to32:
  25              	.LFB0:
  26              		.file 1 "..\\u8g2\\csrc\\u8x8_d_ssd1322.c"
   1:..\u8g2\csrc/u8x8_d_ssd1322.c **** /*
   2:..\u8g2\csrc/u8x8_d_ssd1322.c **** 
   3:..\u8g2\csrc/u8x8_d_ssd1322.c ****   u8x8_d_ssd1322.c
   4:..\u8g2\csrc/u8x8_d_ssd1322.c ****   
   5:..\u8g2\csrc/u8x8_d_ssd1322.c ****   Universal 8bit Graphics Library (https://github.com/olikraus/u8g2/)
   6:..\u8g2\csrc/u8x8_d_ssd1322.c **** 
   7:..\u8g2\csrc/u8x8_d_ssd1322.c ****   Copyright (c) 2016, olikraus@gmail.com
   8:..\u8g2\csrc/u8x8_d_ssd1322.c ****   All rights reserved.
   9:..\u8g2\csrc/u8x8_d_ssd1322.c **** 
  10:..\u8g2\csrc/u8x8_d_ssd1322.c ****   Redistribution and use in source and binary forms, with or without modification, 
  11:..\u8g2\csrc/u8x8_d_ssd1322.c ****   are permitted provided that the following conditions are met:
  12:..\u8g2\csrc/u8x8_d_ssd1322.c **** 
  13:..\u8g2\csrc/u8x8_d_ssd1322.c ****   * Redistributions of source code must retain the above copyright notice, this list 
  14:..\u8g2\csrc/u8x8_d_ssd1322.c ****     of conditions and the following disclaimer.
  15:..\u8g2\csrc/u8x8_d_ssd1322.c ****     
  16:..\u8g2\csrc/u8x8_d_ssd1322.c ****   * Redistributions in binary form must reproduce the above copyright notice, this 
  17:..\u8g2\csrc/u8x8_d_ssd1322.c ****     list of conditions and the following disclaimer in the documentation and/or other 
  18:..\u8g2\csrc/u8x8_d_ssd1322.c ****     materials provided with the distribution.
  19:..\u8g2\csrc/u8x8_d_ssd1322.c **** 
  20:..\u8g2\csrc/u8x8_d_ssd1322.c ****   THIS SOFTWARE IS PROVIDED BY THE COPYRIGHT HOLDERS AND 
  21:..\u8g2\csrc/u8x8_d_ssd1322.c ****   CONTRIBUTORS "AS IS" AND ANY EXPRESS OR IMPLIED WARRANTIES, 
  22:..\u8g2\csrc/u8x8_d_ssd1322.c ****   INCLUDING, BUT NOT LIMITED TO, THE IMPLIED WARRANTIES OF 
  23:..\u8g2\csrc/u8x8_d_ssd1322.c ****   MERCHANTABILITY AND FITNESS FOR A PARTICULAR PURPOSE ARE 
  24:..\u8g2\csrc/u8x8_d_ssd1322.c ****   DISCLAIMED. IN NO EVENT SHALL THE COPYRIGHT HOLDER OR 
  25:..\u8g2\csrc/u8x8_d_ssd1322.c ****   CONTRIBUTORS BE LIABLE FOR ANY DIRECT, INDIRECT, INCIDENTAL, 
  26:..\u8g2\csrc/u8x8_d_ssd1322.c ****   SPECIAL, EXEMPLARY, OR CONSEQUENTIAL DAMAGES (INCLUDING, BUT 
  27:..\u8g2\csrc/u8x8_d_ssd1322.c ****   NOT LIMITED TO, PROCUREMENT OF SUBSTITUTE GOODS OR SERVICES; 
  28:..\u8g2\csrc/u8x8_d_ssd1322.c ****   LOSS OF USE, DATA, OR PROFITS; OR BUSINESS INTERRUPTION) HOWEVER 
  29:..\u8g2\csrc/u8x8_d_ssd1322.c ****   CAUSED AND ON ANY THEORY OF LIABILITY, WHETHER IN CONTRACT, 
  30:..\u8g2\csrc/u8x8_d_ssd1322.c ****   STRICT LIABILITY, OR TORT (INCLUDING NEGLIGENCE OR OTHERWISE) 
  31:..\u8g2\csrc/u8x8_d_ssd1322.c ****   ARISING IN ANY WAY OUT OF THE USE OF THIS SOFTWARE, EVEN IF 
ARM GAS  C:\Users\brian\AppData\Local\Temp\ccA45ZYh.s 			page 2


  32:..\u8g2\csrc/u8x8_d_ssd1322.c ****   ADVISED OF THE POSSIBILITY OF SUCH DAMAGE.  
  33:..\u8g2\csrc/u8x8_d_ssd1322.c **** 
  34:..\u8g2\csrc/u8x8_d_ssd1322.c **** 
  35:..\u8g2\csrc/u8x8_d_ssd1322.c ****   SSD1322: 
  36:..\u8g2\csrc/u8x8_d_ssd1322.c ****     480 x 128 dot matrix
  37:..\u8g2\csrc/u8x8_d_ssd1322.c ****     16 gray scale
  38:..\u8g2\csrc/u8x8_d_ssd1322.c ****   
  39:..\u8g2\csrc/u8x8_d_ssd1322.c ****   
  40:..\u8g2\csrc/u8x8_d_ssd1322.c **** */
  41:..\u8g2\csrc/u8x8_d_ssd1322.c **** #include "u8x8.h"
  42:..\u8g2\csrc/u8x8_d_ssd1322.c **** 
  43:..\u8g2\csrc/u8x8_d_ssd1322.c **** 
  44:..\u8g2\csrc/u8x8_d_ssd1322.c **** 
  45:..\u8g2\csrc/u8x8_d_ssd1322.c **** 
  46:..\u8g2\csrc/u8x8_d_ssd1322.c **** static const uint8_t u8x8_d_ssd1322_powersave0_seq[] = {
  47:..\u8g2\csrc/u8x8_d_ssd1322.c ****   U8X8_START_TRANSFER(),             	/* enable chip, delay is part of the transfer start */
  48:..\u8g2\csrc/u8x8_d_ssd1322.c ****   U8X8_C(0x0af),		                /* ssd1322: display on */
  49:..\u8g2\csrc/u8x8_d_ssd1322.c ****   U8X8_END_TRANSFER(),             	/* disable chip */
  50:..\u8g2\csrc/u8x8_d_ssd1322.c ****   U8X8_END()             			/* end of sequence */
  51:..\u8g2\csrc/u8x8_d_ssd1322.c **** };
  52:..\u8g2\csrc/u8x8_d_ssd1322.c **** 
  53:..\u8g2\csrc/u8x8_d_ssd1322.c **** static const uint8_t u8x8_d_ssd1322_powersave1_seq[] = {
  54:..\u8g2\csrc/u8x8_d_ssd1322.c ****   U8X8_START_TRANSFER(),             	/* enable chip, delay is part of the transfer start */
  55:..\u8g2\csrc/u8x8_d_ssd1322.c ****   U8X8_C(0x0ae),		                /* ssd1322: display off */
  56:..\u8g2\csrc/u8x8_d_ssd1322.c ****   U8X8_END_TRANSFER(),             	/* disable chip */
  57:..\u8g2\csrc/u8x8_d_ssd1322.c ****   U8X8_END()             			/* end of sequence */
  58:..\u8g2\csrc/u8x8_d_ssd1322.c **** };
  59:..\u8g2\csrc/u8x8_d_ssd1322.c **** 
  60:..\u8g2\csrc/u8x8_d_ssd1322.c **** 
  61:..\u8g2\csrc/u8x8_d_ssd1322.c **** 
  62:..\u8g2\csrc/u8x8_d_ssd1322.c **** /* interpret b as a monochrome bit pattern, write value 15 for high bit and value 0 for a low bit *
  63:..\u8g2\csrc/u8x8_d_ssd1322.c **** /* topbit (msb) is sent last */
  64:..\u8g2\csrc/u8x8_d_ssd1322.c **** /* example: b = 0x083 will send 0xff, 0x00, 0x00, 0xf0 */
  65:..\u8g2\csrc/u8x8_d_ssd1322.c **** 
  66:..\u8g2\csrc/u8x8_d_ssd1322.c **** /* 4 Jan 2017: I think this procedure not required any more. Delete? */
  67:..\u8g2\csrc/u8x8_d_ssd1322.c **** /*
  68:..\u8g2\csrc/u8x8_d_ssd1322.c **** static uint8_t u8x8_write_byte_to_16gr_device(u8x8_t *u8x8, uint8_t b)
  69:..\u8g2\csrc/u8x8_d_ssd1322.c **** {
  70:..\u8g2\csrc/u8x8_d_ssd1322.c ****   static uint8_t buf[4];
  71:..\u8g2\csrc/u8x8_d_ssd1322.c ****   static uint8_t map[4] = { 0, 0x00f, 0x0f0, 0x0ff };
  72:..\u8g2\csrc/u8x8_d_ssd1322.c ****   buf [3] = map[b & 3];
  73:..\u8g2\csrc/u8x8_d_ssd1322.c ****   b>>=2;
  74:..\u8g2\csrc/u8x8_d_ssd1322.c ****   buf [2] = map[b & 3];
  75:..\u8g2\csrc/u8x8_d_ssd1322.c ****   b>>=2;
  76:..\u8g2\csrc/u8x8_d_ssd1322.c ****   buf [1] = map[b & 3];
  77:..\u8g2\csrc/u8x8_d_ssd1322.c ****   b>>=2;
  78:..\u8g2\csrc/u8x8_d_ssd1322.c ****   buf [0] = map[b & 3];
  79:..\u8g2\csrc/u8x8_d_ssd1322.c ****   return u8x8_cad_SendData(u8x8, 4, buf);
  80:..\u8g2\csrc/u8x8_d_ssd1322.c **** }
  81:..\u8g2\csrc/u8x8_d_ssd1322.c **** */
  82:..\u8g2\csrc/u8x8_d_ssd1322.c **** 
  83:..\u8g2\csrc/u8x8_d_ssd1322.c **** 
  84:..\u8g2\csrc/u8x8_d_ssd1322.c **** /*
  85:..\u8g2\csrc/u8x8_d_ssd1322.c ****   input:
  86:..\u8g2\csrc/u8x8_d_ssd1322.c ****     one tile (8 Bytes)
  87:..\u8g2\csrc/u8x8_d_ssd1322.c ****   output:
  88:..\u8g2\csrc/u8x8_d_ssd1322.c ****     Tile for SSD1325 (32 Bytes)
ARM GAS  C:\Users\brian\AppData\Local\Temp\ccA45ZYh.s 			page 3


  89:..\u8g2\csrc/u8x8_d_ssd1322.c **** */
  90:..\u8g2\csrc/u8x8_d_ssd1322.c **** 
  91:..\u8g2\csrc/u8x8_d_ssd1322.c **** static uint8_t u8x8_ssd1322_to32_dest_buf[32];
  92:..\u8g2\csrc/u8x8_d_ssd1322.c **** 
  93:..\u8g2\csrc/u8x8_d_ssd1322.c **** static uint8_t *u8x8_ssd1322_8to32(U8X8_UNUSED u8x8_t *u8x8, uint8_t *ptr)
  94:..\u8g2\csrc/u8x8_d_ssd1322.c **** {
  27              		.loc 1 94 0
  28              		.cfi_startproc
  29              		@ args = 0, pretend = 0, frame = 0
  30              		@ frame_needed = 0, uses_anonymous_args = 0
  31              		@ link register save eliminated.
  32              	.LVL0:
  33 0000 70B4     		push	{r4, r5, r6}
  34              		.cfi_def_cfa_offset 12
  35              		.cfi_offset 4, -12
  36              		.cfi_offset 5, -8
  37              		.cfi_offset 6, -4
  38              	.LVL1:
  95:..\u8g2\csrc/u8x8_d_ssd1322.c ****   uint8_t v;
  96:..\u8g2\csrc/u8x8_d_ssd1322.c ****   uint8_t a,b;
  97:..\u8g2\csrc/u8x8_d_ssd1322.c ****   uint8_t i, j;
  98:..\u8g2\csrc/u8x8_d_ssd1322.c ****   uint8_t *dest;
  99:..\u8g2\csrc/u8x8_d_ssd1322.c ****   
 100:..\u8g2\csrc/u8x8_d_ssd1322.c ****   for( j = 0; j < 4; j++ )
  39              		.loc 1 100 0
  40 0002 0026     		movs	r6, #0
  41 0004 1BE0     		b	.L2
  42              	.LVL2:
  43              	.L7:
 101:..\u8g2\csrc/u8x8_d_ssd1322.c ****   {
 102:..\u8g2\csrc/u8x8_d_ssd1322.c ****     dest = u8x8_ssd1322_to32_dest_buf;
 103:..\u8g2\csrc/u8x8_d_ssd1322.c ****     dest += j;
  44              		.loc 1 103 0
  45 0006 104D     		ldr	r5, .L10
  46 0008 3544     		add	r5, r5, r6
  47              	.LVL3:
 104:..\u8g2\csrc/u8x8_d_ssd1322.c ****     a =*ptr;
  48              		.loc 1 104 0
  49 000a 0878     		ldrb	r0, [r1]	@ zero_extendqisi2
  50              	.LVL4:
 105:..\u8g2\csrc/u8x8_d_ssd1322.c ****     ptr++;
 106:..\u8g2\csrc/u8x8_d_ssd1322.c ****     b = *ptr;
  51              		.loc 1 106 0
  52 000c 4A78     		ldrb	r2, [r1, #1]	@ zero_extendqisi2
  53              	.LVL5:
 107:..\u8g2\csrc/u8x8_d_ssd1322.c ****     ptr++;
  54              		.loc 1 107 0
  55 000e 0231     		adds	r1, r1, #2
  56              	.LVL6:
 108:..\u8g2\csrc/u8x8_d_ssd1322.c ****     for( i = 0; i < 8; i++ )
  57              		.loc 1 108 0
  58 0010 0023     		movs	r3, #0
  59 0012 10E0     		b	.L3
  60              	.LVL7:
  61              	.L6:
 109:..\u8g2\csrc/u8x8_d_ssd1322.c ****     {
 110:..\u8g2\csrc/u8x8_d_ssd1322.c ****       v = 0;
ARM GAS  C:\Users\brian\AppData\Local\Temp\ccA45ZYh.s 			page 4


 111:..\u8g2\csrc/u8x8_d_ssd1322.c ****       if ( a&1 ) v |= 0xf0;
  62              		.loc 1 111 0
  63 0014 10F0010F 		tst	r0, #1
  64 0018 01D1     		bne	.L8
 110:..\u8g2\csrc/u8x8_d_ssd1322.c ****       if ( a&1 ) v |= 0xf0;
  65              		.loc 1 110 0
  66 001a 0024     		movs	r4, #0
  67 001c 00E0     		b	.L4
  68              	.L8:
  69              		.loc 1 111 0
  70 001e F024     		movs	r4, #240
  71              	.L4:
  72              	.LVL8:
 112:..\u8g2\csrc/u8x8_d_ssd1322.c ****       if ( b&1 ) v |= 0x0f;
  73              		.loc 1 112 0
  74 0020 12F0010F 		tst	r2, #1
  75 0024 01D0     		beq	.L5
  76              		.loc 1 112 0 is_stmt 0 discriminator 1
  77 0026 44F00F04 		orr	r4, r4, #15
  78              	.LVL9:
  79              	.L5:
 113:..\u8g2\csrc/u8x8_d_ssd1322.c ****       *dest = v;
  80              		.loc 1 113 0 is_stmt 1 discriminator 2
  81 002a 05F8044B 		strb	r4, [r5], #4
  82              	.LVL10:
 114:..\u8g2\csrc/u8x8_d_ssd1322.c ****       dest+=4;
 115:..\u8g2\csrc/u8x8_d_ssd1322.c ****       a >>= 1;
  83              		.loc 1 115 0 discriminator 2
  84 002e 4008     		lsrs	r0, r0, #1
  85              	.LVL11:
 116:..\u8g2\csrc/u8x8_d_ssd1322.c ****       b >>= 1;
  86              		.loc 1 116 0 discriminator 2
  87 0030 5208     		lsrs	r2, r2, #1
  88              	.LVL12:
 108:..\u8g2\csrc/u8x8_d_ssd1322.c ****     {
  89              		.loc 1 108 0 discriminator 2
  90 0032 0133     		adds	r3, r3, #1
  91              	.LVL13:
  92 0034 DBB2     		uxtb	r3, r3
  93              	.LVL14:
  94              	.L3:
 108:..\u8g2\csrc/u8x8_d_ssd1322.c ****     {
  95              		.loc 1 108 0 is_stmt 0 discriminator 1
  96 0036 072B     		cmp	r3, #7
  97 0038 ECD9     		bls	.L6
 100:..\u8g2\csrc/u8x8_d_ssd1322.c ****   {
  98              		.loc 1 100 0 is_stmt 1 discriminator 2
  99 003a 0136     		adds	r6, r6, #1
 100              	.LVL15:
 101 003c F6B2     		uxtb	r6, r6
 102              	.LVL16:
 103              	.L2:
 100:..\u8g2\csrc/u8x8_d_ssd1322.c ****   {
 104              		.loc 1 100 0 is_stmt 0 discriminator 1
 105 003e 032E     		cmp	r6, #3
 106 0040 E1D9     		bls	.L7
 117:..\u8g2\csrc/u8x8_d_ssd1322.c ****     }
ARM GAS  C:\Users\brian\AppData\Local\Temp\ccA45ZYh.s 			page 5


 118:..\u8g2\csrc/u8x8_d_ssd1322.c ****   }
 119:..\u8g2\csrc/u8x8_d_ssd1322.c ****   
 120:..\u8g2\csrc/u8x8_d_ssd1322.c ****   return u8x8_ssd1322_to32_dest_buf;
 121:..\u8g2\csrc/u8x8_d_ssd1322.c **** }
 107              		.loc 1 121 0 is_stmt 1
 108 0042 0148     		ldr	r0, .L10
 109 0044 70BC     		pop	{r4, r5, r6}
 110              		.cfi_restore 6
 111              		.cfi_restore 5
 112              		.cfi_restore 4
 113              		.cfi_def_cfa_offset 0
 114              	.LVL17:
 115 0046 7047     		bx	lr
 116              	.L11:
 117              		.align	2
 118              	.L10:
 119 0048 00000000 		.word	.LANCHOR0
 120              		.cfi_endproc
 121              	.LFE0:
 122              		.size	u8x8_ssd1322_8to32, .-u8x8_ssd1322_8to32
 123              		.section	.text.u8x8_ssd1322_4to32,"ax",%progbits
 124              		.align	2
 125              		.thumb
 126              		.thumb_func
 127              		.type	u8x8_ssd1322_4to32, %function
 128              	u8x8_ssd1322_4to32:
 129              	.LFB1:
 122:..\u8g2\csrc/u8x8_d_ssd1322.c **** 
 123:..\u8g2\csrc/u8x8_d_ssd1322.c **** static uint8_t *u8x8_ssd1322_4to32(U8X8_UNUSED u8x8_t *u8x8, uint8_t *ptr)
 124:..\u8g2\csrc/u8x8_d_ssd1322.c **** {
 130              		.loc 1 124 0
 131              		.cfi_startproc
 132              		@ args = 0, pretend = 0, frame = 0
 133              		@ frame_needed = 0, uses_anonymous_args = 0
 134              		@ link register save eliminated.
 135              	.LVL18:
 136 0000 30B4     		push	{r4, r5}
 137              		.cfi_def_cfa_offset 8
 138              		.cfi_offset 4, -8
 139              		.cfi_offset 5, -4
 140              	.LVL19:
 125:..\u8g2\csrc/u8x8_d_ssd1322.c ****   uint8_t v;
 126:..\u8g2\csrc/u8x8_d_ssd1322.c ****   uint8_t a;
 127:..\u8g2\csrc/u8x8_d_ssd1322.c ****   uint8_t i, j;
 128:..\u8g2\csrc/u8x8_d_ssd1322.c ****   uint8_t *dest;
 129:..\u8g2\csrc/u8x8_d_ssd1322.c ****   
 130:..\u8g2\csrc/u8x8_d_ssd1322.c ****   for( j = 0; j < 4; j++ )
 141              		.loc 1 130 0
 142 0002 0025     		movs	r5, #0
 143 0004 14E0     		b	.L13
 144              	.LVL20:
 145              	.L17:
 131:..\u8g2\csrc/u8x8_d_ssd1322.c ****   {
 132:..\u8g2\csrc/u8x8_d_ssd1322.c ****     dest = u8x8_ssd1322_to32_dest_buf;
 133:..\u8g2\csrc/u8x8_d_ssd1322.c ****     dest += j;
 146              		.loc 1 133 0
 147 0006 0D48     		ldr	r0, .L20
ARM GAS  C:\Users\brian\AppData\Local\Temp\ccA45ZYh.s 			page 6


 148 0008 2844     		add	r0, r0, r5
 149              	.LVL21:
 134:..\u8g2\csrc/u8x8_d_ssd1322.c ****     a =*ptr;
 150              		.loc 1 134 0
 151 000a 11F8012B 		ldrb	r2, [r1], #1	@ zero_extendqisi2
 152              	.LVL22:
 135:..\u8g2\csrc/u8x8_d_ssd1322.c ****     ptr++;
 136:..\u8g2\csrc/u8x8_d_ssd1322.c ****     for( i = 0; i < 8; i++ )
 153              		.loc 1 136 0
 154 000e 0023     		movs	r3, #0
 155 0010 0AE0     		b	.L14
 156              	.LVL23:
 157              	.L16:
 137:..\u8g2\csrc/u8x8_d_ssd1322.c ****     {
 138:..\u8g2\csrc/u8x8_d_ssd1322.c ****       v = 0;
 139:..\u8g2\csrc/u8x8_d_ssd1322.c ****       if ( a&1 ) v = 0xff;
 158              		.loc 1 139 0
 159 0012 12F0010F 		tst	r2, #1
 160 0016 01D1     		bne	.L18
 138:..\u8g2\csrc/u8x8_d_ssd1322.c ****       if ( a&1 ) v = 0xff;
 161              		.loc 1 138 0
 162 0018 0024     		movs	r4, #0
 163 001a 00E0     		b	.L15
 164              	.L18:
 165              		.loc 1 139 0
 166 001c FF24     		movs	r4, #255
 167              	.L15:
 168              	.LVL24:
 140:..\u8g2\csrc/u8x8_d_ssd1322.c ****       *dest = v;
 169              		.loc 1 140 0 discriminator 2
 170 001e 00F8044B 		strb	r4, [r0], #4
 171              	.LVL25:
 141:..\u8g2\csrc/u8x8_d_ssd1322.c ****       dest+=4;
 142:..\u8g2\csrc/u8x8_d_ssd1322.c ****       a >>= 1;
 172              		.loc 1 142 0 discriminator 2
 173 0022 5208     		lsrs	r2, r2, #1
 174              	.LVL26:
 136:..\u8g2\csrc/u8x8_d_ssd1322.c ****     {
 175              		.loc 1 136 0 discriminator 2
 176 0024 0133     		adds	r3, r3, #1
 177              	.LVL27:
 178 0026 DBB2     		uxtb	r3, r3
 179              	.LVL28:
 180              	.L14:
 136:..\u8g2\csrc/u8x8_d_ssd1322.c ****     {
 181              		.loc 1 136 0 is_stmt 0 discriminator 1
 182 0028 072B     		cmp	r3, #7
 183 002a F2D9     		bls	.L16
 130:..\u8g2\csrc/u8x8_d_ssd1322.c ****   {
 184              		.loc 1 130 0 is_stmt 1 discriminator 2
 185 002c 0135     		adds	r5, r5, #1
 186              	.LVL29:
 187 002e EDB2     		uxtb	r5, r5
 188              	.LVL30:
 189              	.L13:
 130:..\u8g2\csrc/u8x8_d_ssd1322.c ****   {
 190              		.loc 1 130 0 is_stmt 0 discriminator 1
ARM GAS  C:\Users\brian\AppData\Local\Temp\ccA45ZYh.s 			page 7


 191 0030 032D     		cmp	r5, #3
 192 0032 E8D9     		bls	.L17
 143:..\u8g2\csrc/u8x8_d_ssd1322.c ****     }
 144:..\u8g2\csrc/u8x8_d_ssd1322.c ****   }
 145:..\u8g2\csrc/u8x8_d_ssd1322.c ****   
 146:..\u8g2\csrc/u8x8_d_ssd1322.c ****   return u8x8_ssd1322_to32_dest_buf;
 147:..\u8g2\csrc/u8x8_d_ssd1322.c **** }
 193              		.loc 1 147 0 is_stmt 1
 194 0034 0148     		ldr	r0, .L20
 195 0036 30BC     		pop	{r4, r5}
 196              		.cfi_restore 5
 197              		.cfi_restore 4
 198              		.cfi_def_cfa_offset 0
 199              	.LVL31:
 200 0038 7047     		bx	lr
 201              	.L21:
 202 003a 00BF     		.align	2
 203              	.L20:
 204 003c 00000000 		.word	.LANCHOR0
 205              		.cfi_endproc
 206              	.LFE1:
 207              		.size	u8x8_ssd1322_4to32, .-u8x8_ssd1322_4to32
 208              		.section	.text.u8x8_d_ssd1322_common,"ax",%progbits
 209              		.align	2
 210              		.global	u8x8_d_ssd1322_common
 211              		.thumb
 212              		.thumb_func
 213              		.type	u8x8_d_ssd1322_common, %function
 214              	u8x8_d_ssd1322_common:
 215              	.LFB2:
 148:..\u8g2\csrc/u8x8_d_ssd1322.c **** 
 149:..\u8g2\csrc/u8x8_d_ssd1322.c **** 
 150:..\u8g2\csrc/u8x8_d_ssd1322.c **** uint8_t u8x8_d_ssd1322_common(u8x8_t *u8x8, uint8_t msg, uint8_t arg_int, void *arg_ptr)
 151:..\u8g2\csrc/u8x8_d_ssd1322.c **** {
 216              		.loc 1 151 0
 217              		.cfi_startproc
 218              		@ args = 0, pretend = 0, frame = 0
 219              		@ frame_needed = 0, uses_anonymous_args = 0
 220              	.LVL32:
 221 0000 2DE9F843 		push	{r3, r4, r5, r6, r7, r8, r9, lr}
 222              		.cfi_def_cfa_offset 32
 223              		.cfi_offset 3, -32
 224              		.cfi_offset 4, -28
 225              		.cfi_offset 5, -24
 226              		.cfi_offset 6, -20
 227              		.cfi_offset 7, -16
 228              		.cfi_offset 8, -12
 229              		.cfi_offset 9, -8
 230              		.cfi_offset 14, -4
 231 0004 0446     		mov	r4, r0
 232 0006 9046     		mov	r8, r2
 152:..\u8g2\csrc/u8x8_d_ssd1322.c ****   uint8_t x; 
 153:..\u8g2\csrc/u8x8_d_ssd1322.c ****   uint8_t y, c;
 154:..\u8g2\csrc/u8x8_d_ssd1322.c ****   uint8_t *ptr;
 155:..\u8g2\csrc/u8x8_d_ssd1322.c ****   switch(msg)
 233              		.loc 1 155 0
 234 0008 0E29     		cmp	r1, #14
ARM GAS  C:\Users\brian\AppData\Local\Temp\ccA45ZYh.s 			page 8


 235 000a 11D0     		beq	.L24
 236 000c 9946     		mov	r9, r3
 237 000e 0F29     		cmp	r1, #15
 238 0010 1ED0     		beq	.L25
 239 0012 0B29     		cmp	r1, #11
 240 0014 67D1     		bne	.L31
 156:..\u8g2\csrc/u8x8_d_ssd1322.c ****   {
 157:..\u8g2\csrc/u8x8_d_ssd1322.c ****     /* U8X8_MSG_DISPLAY_SETUP_MEMORY is handled by the calling function */
 158:..\u8g2\csrc/u8x8_d_ssd1322.c ****     /*
 159:..\u8g2\csrc/u8x8_d_ssd1322.c ****     case U8X8_MSG_DISPLAY_SETUP_MEMORY:
 160:..\u8g2\csrc/u8x8_d_ssd1322.c ****       break;
 161:..\u8g2\csrc/u8x8_d_ssd1322.c ****     case U8X8_MSG_DISPLAY_INIT:
 162:..\u8g2\csrc/u8x8_d_ssd1322.c ****       u8x8_d_helper_display_init(u8x8);
 163:..\u8g2\csrc/u8x8_d_ssd1322.c ****       u8x8_cad_SendSequence(u8x8, u8x8_d_ssd1322_256x64_init_seq);
 164:..\u8g2\csrc/u8x8_d_ssd1322.c ****       break;
 165:..\u8g2\csrc/u8x8_d_ssd1322.c ****     */
 166:..\u8g2\csrc/u8x8_d_ssd1322.c ****     case U8X8_MSG_DISPLAY_SET_POWER_SAVE:
 167:..\u8g2\csrc/u8x8_d_ssd1322.c ****       if ( arg_int == 0 )
 241              		.loc 1 167 0
 242 0016 2AB9     		cbnz	r2, .L27
 168:..\u8g2\csrc/u8x8_d_ssd1322.c **** 	u8x8_cad_SendSequence(u8x8, u8x8_d_ssd1322_powersave0_seq);
 243              		.loc 1 168 0
 244 0018 3449     		ldr	r1, .L33
 245              	.LVL33:
 246 001a FFF7FEFF 		bl	u8x8_cad_SendSequence
 247              	.LVL34:
 169:..\u8g2\csrc/u8x8_d_ssd1322.c ****       else
 170:..\u8g2\csrc/u8x8_d_ssd1322.c **** 	u8x8_cad_SendSequence(u8x8, u8x8_d_ssd1322_powersave1_seq);
 171:..\u8g2\csrc/u8x8_d_ssd1322.c ****       break;
 172:..\u8g2\csrc/u8x8_d_ssd1322.c **** #ifdef U8X8_WITH_SET_CONTRAST
 173:..\u8g2\csrc/u8x8_d_ssd1322.c ****     case U8X8_MSG_DISPLAY_SET_CONTRAST:
 174:..\u8g2\csrc/u8x8_d_ssd1322.c ****       u8x8_cad_StartTransfer(u8x8);
 175:..\u8g2\csrc/u8x8_d_ssd1322.c ****       u8x8_cad_SendCmd(u8x8, 0x0C1 );
 176:..\u8g2\csrc/u8x8_d_ssd1322.c ****       u8x8_cad_SendArg(u8x8, arg_int );	/* ssd1322 has range from 0 to 255 */
 177:..\u8g2\csrc/u8x8_d_ssd1322.c ****       u8x8_cad_EndTransfer(u8x8);
 178:..\u8g2\csrc/u8x8_d_ssd1322.c ****       break;
 179:..\u8g2\csrc/u8x8_d_ssd1322.c **** #endif
 180:..\u8g2\csrc/u8x8_d_ssd1322.c ****     case U8X8_MSG_DISPLAY_DRAW_TILE:
 181:..\u8g2\csrc/u8x8_d_ssd1322.c ****       u8x8_cad_StartTransfer(u8x8);
 182:..\u8g2\csrc/u8x8_d_ssd1322.c ****       x = ((u8x8_tile_t *)arg_ptr)->x_pos;    
 183:..\u8g2\csrc/u8x8_d_ssd1322.c ****       x *= 2;		// only every 4th col can be addressed
 184:..\u8g2\csrc/u8x8_d_ssd1322.c ****       x += u8x8->x_offset;		
 185:..\u8g2\csrc/u8x8_d_ssd1322.c ****     
 186:..\u8g2\csrc/u8x8_d_ssd1322.c ****       y = (((u8x8_tile_t *)arg_ptr)->y_pos);
 187:..\u8g2\csrc/u8x8_d_ssd1322.c ****       y *= 8;
 188:..\u8g2\csrc/u8x8_d_ssd1322.c ****     
 189:..\u8g2\csrc/u8x8_d_ssd1322.c ****       
 190:..\u8g2\csrc/u8x8_d_ssd1322.c ****       u8x8_cad_SendCmd(u8x8, 0x075 );	/* set row address, moved out of the loop (issue 302) */
 191:..\u8g2\csrc/u8x8_d_ssd1322.c ****       u8x8_cad_SendArg(u8x8, y);
 192:..\u8g2\csrc/u8x8_d_ssd1322.c ****       u8x8_cad_SendArg(u8x8, y+7);
 193:..\u8g2\csrc/u8x8_d_ssd1322.c ****       
 194:..\u8g2\csrc/u8x8_d_ssd1322.c ****       do
 195:..\u8g2\csrc/u8x8_d_ssd1322.c ****       {
 196:..\u8g2\csrc/u8x8_d_ssd1322.c **** 	c = ((u8x8_tile_t *)arg_ptr)->cnt;
 197:..\u8g2\csrc/u8x8_d_ssd1322.c **** 	ptr = ((u8x8_tile_t *)arg_ptr)->tile_ptr;
 198:..\u8g2\csrc/u8x8_d_ssd1322.c **** 
 199:..\u8g2\csrc/u8x8_d_ssd1322.c **** 	do
ARM GAS  C:\Users\brian\AppData\Local\Temp\ccA45ZYh.s 			page 9


 200:..\u8g2\csrc/u8x8_d_ssd1322.c **** 	{
 201:..\u8g2\csrc/u8x8_d_ssd1322.c **** 	  u8x8_cad_SendCmd(u8x8, 0x015 );	/* set column address */
 202:..\u8g2\csrc/u8x8_d_ssd1322.c **** 	  u8x8_cad_SendArg(u8x8, x );	/* start */
 203:..\u8g2\csrc/u8x8_d_ssd1322.c **** 	  u8x8_cad_SendArg(u8x8, x+1 );	/* end */
 204:..\u8g2\csrc/u8x8_d_ssd1322.c **** 
 205:..\u8g2\csrc/u8x8_d_ssd1322.c **** 	  u8x8_cad_SendCmd(u8x8, 0x05c );	/* write to ram */
 206:..\u8g2\csrc/u8x8_d_ssd1322.c **** 	  
 207:..\u8g2\csrc/u8x8_d_ssd1322.c **** 	  u8x8_cad_SendData(u8x8, 32, u8x8_ssd1322_8to32(u8x8, ptr));
 208:..\u8g2\csrc/u8x8_d_ssd1322.c **** 	  
 209:..\u8g2\csrc/u8x8_d_ssd1322.c **** 	  ptr += 8;
 210:..\u8g2\csrc/u8x8_d_ssd1322.c **** 	  x += 2;
 211:..\u8g2\csrc/u8x8_d_ssd1322.c **** 	  c--;
 212:..\u8g2\csrc/u8x8_d_ssd1322.c **** 	} while( c > 0 );
 213:..\u8g2\csrc/u8x8_d_ssd1322.c **** 	
 214:..\u8g2\csrc/u8x8_d_ssd1322.c **** 	//x += 2;
 215:..\u8g2\csrc/u8x8_d_ssd1322.c **** 	arg_int--;
 216:..\u8g2\csrc/u8x8_d_ssd1322.c ****       } while( arg_int > 0 );
 217:..\u8g2\csrc/u8x8_d_ssd1322.c ****       
 218:..\u8g2\csrc/u8x8_d_ssd1322.c ****       u8x8_cad_EndTransfer(u8x8);
 219:..\u8g2\csrc/u8x8_d_ssd1322.c ****       break;
 220:..\u8g2\csrc/u8x8_d_ssd1322.c ****     default:
 221:..\u8g2\csrc/u8x8_d_ssd1322.c ****       return 0;
 222:..\u8g2\csrc/u8x8_d_ssd1322.c ****   }
 223:..\u8g2\csrc/u8x8_d_ssd1322.c ****   return 1;
 248              		.loc 1 223 0
 249 001e 0120     		movs	r0, #1
 250 0020 BDE8F883 		pop	{r3, r4, r5, r6, r7, r8, r9, pc}
 251              	.LVL35:
 252              	.L27:
 170:..\u8g2\csrc/u8x8_d_ssd1322.c ****       break;
 253              		.loc 1 170 0
 254 0024 3249     		ldr	r1, .L33+4
 255              	.LVL36:
 256 0026 FFF7FEFF 		bl	u8x8_cad_SendSequence
 257              	.LVL37:
 258              		.loc 1 223 0
 259 002a 0120     		movs	r0, #1
 260 002c BDE8F883 		pop	{r3, r4, r5, r6, r7, r8, r9, pc}
 261              	.LVL38:
 262              	.L24:
 174:..\u8g2\csrc/u8x8_d_ssd1322.c ****       u8x8_cad_SendCmd(u8x8, 0x0C1 );
 263              		.loc 1 174 0
 264 0030 FFF7FEFF 		bl	u8x8_cad_StartTransfer
 265              	.LVL39:
 175:..\u8g2\csrc/u8x8_d_ssd1322.c ****       u8x8_cad_SendArg(u8x8, arg_int );	/* ssd1322 has range from 0 to 255 */
 266              		.loc 1 175 0
 267 0034 C121     		movs	r1, #193
 268 0036 2046     		mov	r0, r4
 269 0038 FFF7FEFF 		bl	u8x8_cad_SendCmd
 270              	.LVL40:
 176:..\u8g2\csrc/u8x8_d_ssd1322.c ****       u8x8_cad_EndTransfer(u8x8);
 271              		.loc 1 176 0
 272 003c 4146     		mov	r1, r8
 273 003e 2046     		mov	r0, r4
 274 0040 FFF7FEFF 		bl	u8x8_cad_SendArg
 275              	.LVL41:
 177:..\u8g2\csrc/u8x8_d_ssd1322.c ****       break;
ARM GAS  C:\Users\brian\AppData\Local\Temp\ccA45ZYh.s 			page 10


 276              		.loc 1 177 0
 277 0044 2046     		mov	r0, r4
 278 0046 FFF7FEFF 		bl	u8x8_cad_EndTransfer
 279              	.LVL42:
 280              		.loc 1 223 0
 281 004a 0120     		movs	r0, #1
 178:..\u8g2\csrc/u8x8_d_ssd1322.c **** #endif
 282              		.loc 1 178 0
 283 004c BDE8F883 		pop	{r3, r4, r5, r6, r7, r8, r9, pc}
 284              	.LVL43:
 285              	.L25:
 181:..\u8g2\csrc/u8x8_d_ssd1322.c ****       x = ((u8x8_tile_t *)arg_ptr)->x_pos;    
 286              		.loc 1 181 0
 287 0050 FFF7FEFF 		bl	u8x8_cad_StartTransfer
 288              	.LVL44:
 182:..\u8g2\csrc/u8x8_d_ssd1322.c ****       x *= 2;		// only every 4th col can be addressed
 289              		.loc 1 182 0
 290 0054 99F80530 		ldrb	r3, [r9, #5]	@ zero_extendqisi2
 291              	.LVL45:
 183:..\u8g2\csrc/u8x8_d_ssd1322.c ****       x += u8x8->x_offset;		
 292              		.loc 1 183 0
 293 0058 5B00     		lsls	r3, r3, #1
 294              	.LVL46:
 295 005a DBB2     		uxtb	r3, r3
 296              	.LVL47:
 184:..\u8g2\csrc/u8x8_d_ssd1322.c ****     
 297              		.loc 1 184 0
 298 005c 94F82250 		ldrb	r5, [r4, #34]	@ zero_extendqisi2
 299 0060 2B44     		add	r3, r3, r5
 300              	.LVL48:
 301 0062 DDB2     		uxtb	r5, r3
 302              	.LVL49:
 186:..\u8g2\csrc/u8x8_d_ssd1322.c ****       y *= 8;
 303              		.loc 1 186 0
 304 0064 99F80660 		ldrb	r6, [r9, #6]	@ zero_extendqisi2
 305              	.LVL50:
 187:..\u8g2\csrc/u8x8_d_ssd1322.c ****     
 306              		.loc 1 187 0
 307 0068 F600     		lsls	r6, r6, #3
 308              	.LVL51:
 309 006a F6B2     		uxtb	r6, r6
 310              	.LVL52:
 190:..\u8g2\csrc/u8x8_d_ssd1322.c ****       u8x8_cad_SendArg(u8x8, y);
 311              		.loc 1 190 0
 312 006c 7521     		movs	r1, #117
 313 006e 2046     		mov	r0, r4
 314 0070 FFF7FEFF 		bl	u8x8_cad_SendCmd
 315              	.LVL53:
 191:..\u8g2\csrc/u8x8_d_ssd1322.c ****       u8x8_cad_SendArg(u8x8, y+7);
 316              		.loc 1 191 0
 317 0074 3146     		mov	r1, r6
 318 0076 2046     		mov	r0, r4
 319 0078 FFF7FEFF 		bl	u8x8_cad_SendArg
 320              	.LVL54:
 192:..\u8g2\csrc/u8x8_d_ssd1322.c ****       
 321              		.loc 1 192 0
 322 007c F11D     		adds	r1, r6, #7
ARM GAS  C:\Users\brian\AppData\Local\Temp\ccA45ZYh.s 			page 11


 323 007e C9B2     		uxtb	r1, r1
 324 0080 2046     		mov	r0, r4
 325 0082 FFF7FEFF 		bl	u8x8_cad_SendArg
 326              	.LVL55:
 327              	.L29:
 196:..\u8g2\csrc/u8x8_d_ssd1322.c **** 	ptr = ((u8x8_tile_t *)arg_ptr)->tile_ptr;
 328              		.loc 1 196 0
 329 0086 99F80460 		ldrb	r6, [r9, #4]	@ zero_extendqisi2
 330              	.LVL56:
 197:..\u8g2\csrc/u8x8_d_ssd1322.c **** 
 331              		.loc 1 197 0
 332 008a D9F80070 		ldr	r7, [r9]
 333              	.LVL57:
 334              	.L28:
 201:..\u8g2\csrc/u8x8_d_ssd1322.c **** 	  u8x8_cad_SendArg(u8x8, x );	/* start */
 335              		.loc 1 201 0 discriminator 1
 336 008e 1521     		movs	r1, #21
 337 0090 2046     		mov	r0, r4
 338 0092 FFF7FEFF 		bl	u8x8_cad_SendCmd
 339              	.LVL58:
 202:..\u8g2\csrc/u8x8_d_ssd1322.c **** 	  u8x8_cad_SendArg(u8x8, x+1 );	/* end */
 340              		.loc 1 202 0 discriminator 1
 341 0096 2946     		mov	r1, r5
 342 0098 2046     		mov	r0, r4
 343 009a FFF7FEFF 		bl	u8x8_cad_SendArg
 344              	.LVL59:
 203:..\u8g2\csrc/u8x8_d_ssd1322.c **** 
 345              		.loc 1 203 0 discriminator 1
 346 009e 691C     		adds	r1, r5, #1
 347 00a0 C9B2     		uxtb	r1, r1
 348 00a2 2046     		mov	r0, r4
 349 00a4 FFF7FEFF 		bl	u8x8_cad_SendArg
 350              	.LVL60:
 205:..\u8g2\csrc/u8x8_d_ssd1322.c **** 	  
 351              		.loc 1 205 0 discriminator 1
 352 00a8 5C21     		movs	r1, #92
 353 00aa 2046     		mov	r0, r4
 354 00ac FFF7FEFF 		bl	u8x8_cad_SendCmd
 355              	.LVL61:
 207:..\u8g2\csrc/u8x8_d_ssd1322.c **** 	  
 356              		.loc 1 207 0 discriminator 1
 357 00b0 3946     		mov	r1, r7
 358 00b2 2046     		mov	r0, r4
 359 00b4 FFF7FEFF 		bl	u8x8_ssd1322_8to32
 360              	.LVL62:
 361 00b8 0246     		mov	r2, r0
 362 00ba 2021     		movs	r1, #32
 363 00bc 2046     		mov	r0, r4
 364 00be FFF7FEFF 		bl	u8x8_cad_SendData
 365              	.LVL63:
 209:..\u8g2\csrc/u8x8_d_ssd1322.c **** 	  x += 2;
 366              		.loc 1 209 0 discriminator 1
 367 00c2 0837     		adds	r7, r7, #8
 368              	.LVL64:
 210:..\u8g2\csrc/u8x8_d_ssd1322.c **** 	  c--;
 369              		.loc 1 210 0 discriminator 1
 370 00c4 0235     		adds	r5, r5, #2
ARM GAS  C:\Users\brian\AppData\Local\Temp\ccA45ZYh.s 			page 12


 371              	.LVL65:
 372 00c6 EDB2     		uxtb	r5, r5
 373              	.LVL66:
 211:..\u8g2\csrc/u8x8_d_ssd1322.c **** 	} while( c > 0 );
 374              		.loc 1 211 0 discriminator 1
 375 00c8 731E     		subs	r3, r6, #1
 376              	.LVL67:
 212:..\u8g2\csrc/u8x8_d_ssd1322.c **** 	
 377              		.loc 1 212 0 discriminator 1
 378 00ca 13F0FF06 		ands	r6, r3, #255
 379 00ce DED1     		bne	.L28
 215:..\u8g2\csrc/u8x8_d_ssd1322.c ****       } while( arg_int > 0 );
 380              		.loc 1 215 0
 381 00d0 08F1FF38 		add	r8, r8, #-1
 382              	.LVL68:
 216:..\u8g2\csrc/u8x8_d_ssd1322.c ****       
 383              		.loc 1 216 0
 384 00d4 18F0FF08 		ands	r8, r8, #255
 385              	.LVL69:
 386 00d8 D5D1     		bne	.L29
 218:..\u8g2\csrc/u8x8_d_ssd1322.c ****       break;
 387              		.loc 1 218 0
 388 00da 2046     		mov	r0, r4
 389 00dc FFF7FEFF 		bl	u8x8_cad_EndTransfer
 390              	.LVL70:
 391              		.loc 1 223 0
 392 00e0 0120     		movs	r0, #1
 219:..\u8g2\csrc/u8x8_d_ssd1322.c ****     default:
 393              		.loc 1 219 0
 394 00e2 BDE8F883 		pop	{r3, r4, r5, r6, r7, r8, r9, pc}
 395              	.LVL71:
 396              	.L31:
 221:..\u8g2\csrc/u8x8_d_ssd1322.c ****   }
 397              		.loc 1 221 0
 398 00e6 0020     		movs	r0, #0
 399              	.LVL72:
 224:..\u8g2\csrc/u8x8_d_ssd1322.c **** }
 400              		.loc 1 224 0
 401 00e8 BDE8F883 		pop	{r3, r4, r5, r6, r7, r8, r9, pc}
 402              	.LVL73:
 403              	.L34:
 404              		.align	2
 405              	.L33:
 406 00ec 00000000 		.word	.LANCHOR1
 407 00f0 08000000 		.word	.LANCHOR1+8
 408              		.cfi_endproc
 409              	.LFE2:
 410              		.size	u8x8_d_ssd1322_common, .-u8x8_d_ssd1322_common
 411              		.section	.text.u8x8_d_ssd1322_nhd_256x64,"ax",%progbits
 412              		.align	2
 413              		.global	u8x8_d_ssd1322_nhd_256x64
 414              		.thumb
 415              		.thumb_func
 416              		.type	u8x8_d_ssd1322_nhd_256x64, %function
 417              	u8x8_d_ssd1322_nhd_256x64:
 418              	.LFB3:
 225:..\u8g2\csrc/u8x8_d_ssd1322.c **** 
ARM GAS  C:\Users\brian\AppData\Local\Temp\ccA45ZYh.s 			page 13


 226:..\u8g2\csrc/u8x8_d_ssd1322.c **** /*=========================================================*/
 227:..\u8g2\csrc/u8x8_d_ssd1322.c **** 
 228:..\u8g2\csrc/u8x8_d_ssd1322.c **** static const uint8_t u8x8_d_ssd1322_256x64_flip0_seq[] = {
 229:..\u8g2\csrc/u8x8_d_ssd1322.c ****   U8X8_START_TRANSFER(),             	/* enable chip, delay is part of the transfer start */
 230:..\u8g2\csrc/u8x8_d_ssd1322.c ****   U8X8_CAA(0x0a0, 0x006, 0x011),		/* remap */
 231:..\u8g2\csrc/u8x8_d_ssd1322.c ****   U8X8_END_TRANSFER(),             	/* disable chip */
 232:..\u8g2\csrc/u8x8_d_ssd1322.c ****   U8X8_END()             			/* end of sequence */
 233:..\u8g2\csrc/u8x8_d_ssd1322.c **** };
 234:..\u8g2\csrc/u8x8_d_ssd1322.c **** 
 235:..\u8g2\csrc/u8x8_d_ssd1322.c **** static const uint8_t u8x8_d_ssd1322_256x64_flip1_seq[] = {
 236:..\u8g2\csrc/u8x8_d_ssd1322.c ****   U8X8_START_TRANSFER(),             	/* enable chip, delay is part of the transfer start */
 237:..\u8g2\csrc/u8x8_d_ssd1322.c ****   U8X8_CAA(0x0a0, 0x014, 0x011),		/* remap */
 238:..\u8g2\csrc/u8x8_d_ssd1322.c ****   U8X8_END_TRANSFER(),             	/* disable chip */
 239:..\u8g2\csrc/u8x8_d_ssd1322.c ****   U8X8_END()             			/* end of sequence */
 240:..\u8g2\csrc/u8x8_d_ssd1322.c **** };
 241:..\u8g2\csrc/u8x8_d_ssd1322.c **** 
 242:..\u8g2\csrc/u8x8_d_ssd1322.c **** static const u8x8_display_info_t u8x8_ssd1322_256x64_display_info =
 243:..\u8g2\csrc/u8x8_d_ssd1322.c **** {
 244:..\u8g2\csrc/u8x8_d_ssd1322.c ****   /* chip_enable_level = */ 0,
 245:..\u8g2\csrc/u8x8_d_ssd1322.c ****   /* chip_disable_level = */ 1,
 246:..\u8g2\csrc/u8x8_d_ssd1322.c ****   
 247:..\u8g2\csrc/u8x8_d_ssd1322.c ****   /* post_chip_enable_wait_ns = */ 20,
 248:..\u8g2\csrc/u8x8_d_ssd1322.c ****   /* pre_chip_disable_wait_ns = */ 10,
 249:..\u8g2\csrc/u8x8_d_ssd1322.c ****   /* reset_pulse_width_ms = */ 100, 	/* SSD1322: 2 us */
 250:..\u8g2\csrc/u8x8_d_ssd1322.c ****   /* post_reset_wait_ms = */ 100, /* far east OLEDs need much longer setup time */
 251:..\u8g2\csrc/u8x8_d_ssd1322.c ****   /* sda_setup_time_ns = */ 50,		/* SSD1322: 15ns, but cycle time is 100ns, so use 100/2 */
 252:..\u8g2\csrc/u8x8_d_ssd1322.c ****   /* sck_pulse_width_ns = */ 50,	/* SSD1322: 20ns, but cycle time is 100ns, so use 100/2, AVR: belo
 253:..\u8g2\csrc/u8x8_d_ssd1322.c ****   /* sck_clock_hz = */ 10000000UL,	/* since Arduino 1.6.0, the SPI bus speed in Hz. Should be  1000
 254:..\u8g2\csrc/u8x8_d_ssd1322.c ****   /* spi_mode = */ 0,		/* active high, rising edge */
 255:..\u8g2\csrc/u8x8_d_ssd1322.c ****   /* i2c_bus_clock_100kHz = */ 4,
 256:..\u8g2\csrc/u8x8_d_ssd1322.c ****   /* data_setup_time_ns = */ 10,
 257:..\u8g2\csrc/u8x8_d_ssd1322.c ****   /* write_pulse_width_ns = */ 150,	/* SSD1322: cycle time is 300ns, so use 300/2 = 150 */
 258:..\u8g2\csrc/u8x8_d_ssd1322.c ****   /* tile_width = */ 32,		/* 256 pixel, so we require 32 bytes for this */
 259:..\u8g2\csrc/u8x8_d_ssd1322.c ****   /* tile_hight = */ 8,
 260:..\u8g2\csrc/u8x8_d_ssd1322.c ****   /* default_x_offset = */ 0x01c,	/* this is the byte offset (there are two pixel per byte with 4 b
 261:..\u8g2\csrc/u8x8_d_ssd1322.c ****   /* flipmode_x_offset = */ 0x01c,
 262:..\u8g2\csrc/u8x8_d_ssd1322.c ****   /* pixel_width = */ 256,
 263:..\u8g2\csrc/u8x8_d_ssd1322.c ****   /* pixel_height = */ 64
 264:..\u8g2\csrc/u8x8_d_ssd1322.c **** };
 265:..\u8g2\csrc/u8x8_d_ssd1322.c **** 
 266:..\u8g2\csrc/u8x8_d_ssd1322.c **** 
 267:..\u8g2\csrc/u8x8_d_ssd1322.c **** static const uint8_t u8x8_d_ssd1322_256x64_init_seq[] = {
 268:..\u8g2\csrc/u8x8_d_ssd1322.c ****     
 269:..\u8g2\csrc/u8x8_d_ssd1322.c ****   U8X8_DLY(1),
 270:..\u8g2\csrc/u8x8_d_ssd1322.c ****   U8X8_START_TRANSFER(),             	/* enable chip, delay is part of the transfer start */
 271:..\u8g2\csrc/u8x8_d_ssd1322.c ****   U8X8_DLY(1),
 272:..\u8g2\csrc/u8x8_d_ssd1322.c ****   
 273:..\u8g2\csrc/u8x8_d_ssd1322.c ****   U8X8_CA(0xfd, 0x12),            	/* unlock */
 274:..\u8g2\csrc/u8x8_d_ssd1322.c ****   U8X8_C(0xae),		                /* display off */
 275:..\u8g2\csrc/u8x8_d_ssd1322.c ****   U8X8_CA(0xb3, 0x91),			/* set display clock divide ratio/oscillator frequency (set clock as 80 fr
 276:..\u8g2\csrc/u8x8_d_ssd1322.c ****   U8X8_CA(0xca, 0x3f),			/* multiplex ratio 1/64 Duty (0x0F~0x3F) */  
 277:..\u8g2\csrc/u8x8_d_ssd1322.c ****   U8X8_CA(0xa2, 0x00),			/* display offset, shift mapping ram counter */  
 278:..\u8g2\csrc/u8x8_d_ssd1322.c ****   U8X8_CA(0xa1, 0x00),			/* display start line */  
 279:..\u8g2\csrc/u8x8_d_ssd1322.c ****   //U8X8_CAA(0xa0, 0x14, 0x11),	/* Set Re-Map / Dual COM Line Mode */  
 280:..\u8g2\csrc/u8x8_d_ssd1322.c ****   U8X8_CAA(0xa0, 0x06, 0x011),	/* Set Re-Map / Dual COM Line Mode */  
 281:..\u8g2\csrc/u8x8_d_ssd1322.c ****   U8X8_CA(0xab, 0x01),			/* Enable Internal VDD Regulator */  
 282:..\u8g2\csrc/u8x8_d_ssd1322.c ****   U8X8_CAA(0xb4, 0xa0, 0x005|0x0fd),	/* Display Enhancement A */  
ARM GAS  C:\Users\brian\AppData\Local\Temp\ccA45ZYh.s 			page 14


 283:..\u8g2\csrc/u8x8_d_ssd1322.c ****   U8X8_CA(0xc1, 0x9f),			/* contrast */  
 284:..\u8g2\csrc/u8x8_d_ssd1322.c ****   U8X8_CA(0xc7, 0x0f),			/* Set Scale Factor of Segment Output Current Control */  
 285:..\u8g2\csrc/u8x8_d_ssd1322.c ****   U8X8_C(0xb9),		                /* linear grayscale */
 286:..\u8g2\csrc/u8x8_d_ssd1322.c ****   U8X8_CA(0xb1, 0xe2),			/* Phase 1 (Reset) & Phase 2 (Pre-Charge) Period Adjustment */  
 287:..\u8g2\csrc/u8x8_d_ssd1322.c ****   U8X8_CAA(0xd1, 0x082|0x020, 0x020),	/* Display Enhancement B */  
 288:..\u8g2\csrc/u8x8_d_ssd1322.c ****   U8X8_CA(0xbb, 0x1f),			/* precharge  voltage */  
 289:..\u8g2\csrc/u8x8_d_ssd1322.c ****   U8X8_CA(0xb6, 0x08),			/* precharge  period */  
 290:..\u8g2\csrc/u8x8_d_ssd1322.c ****   U8X8_CA(0xbe, 0x07),			/* vcomh */  
 291:..\u8g2\csrc/u8x8_d_ssd1322.c ****   U8X8_C(0xa6),		                /* normal display */
 292:..\u8g2\csrc/u8x8_d_ssd1322.c ****   U8X8_C(0xa9),		                /* exit partial display */
 293:..\u8g2\csrc/u8x8_d_ssd1322.c **** 
 294:..\u8g2\csrc/u8x8_d_ssd1322.c **** 
 295:..\u8g2\csrc/u8x8_d_ssd1322.c ****   U8X8_DLY(1),					/* delay 2ms */
 296:..\u8g2\csrc/u8x8_d_ssd1322.c **** 
 297:..\u8g2\csrc/u8x8_d_ssd1322.c ****   
 298:..\u8g2\csrc/u8x8_d_ssd1322.c ****   U8X8_END_TRANSFER(),             	/* disable chip */
 299:..\u8g2\csrc/u8x8_d_ssd1322.c ****   U8X8_END()             			/* end of sequence */
 300:..\u8g2\csrc/u8x8_d_ssd1322.c **** };
 301:..\u8g2\csrc/u8x8_d_ssd1322.c **** 
 302:..\u8g2\csrc/u8x8_d_ssd1322.c **** 
 303:..\u8g2\csrc/u8x8_d_ssd1322.c **** uint8_t u8x8_d_ssd1322_nhd_256x64(u8x8_t *u8x8, uint8_t msg, uint8_t arg_int, void *arg_ptr)
 304:..\u8g2\csrc/u8x8_d_ssd1322.c **** {
 419              		.loc 1 304 0
 420              		.cfi_startproc
 421              		@ args = 0, pretend = 0, frame = 0
 422              		@ frame_needed = 0, uses_anonymous_args = 0
 423              	.LVL74:
 424 0000 10B5     		push	{r4, lr}
 425              		.cfi_def_cfa_offset 8
 426              		.cfi_offset 4, -8
 427              		.cfi_offset 14, -4
 428 0002 0446     		mov	r4, r0
 305:..\u8g2\csrc/u8x8_d_ssd1322.c ****   switch(msg)
 429              		.loc 1 305 0
 430 0004 0A29     		cmp	r1, #10
 431 0006 08D0     		beq	.L37
 432 0008 0D29     		cmp	r1, #13
 433 000a 0ED0     		beq	.L38
 434 000c 0929     		cmp	r1, #9
 435 000e 1FD1     		bne	.L42
 306:..\u8g2\csrc/u8x8_d_ssd1322.c ****   {
 307:..\u8g2\csrc/u8x8_d_ssd1322.c ****     case U8X8_MSG_DISPLAY_SETUP_MEMORY:
 308:..\u8g2\csrc/u8x8_d_ssd1322.c ****       u8x8_d_helper_display_setup_memory(u8x8, &u8x8_ssd1322_256x64_display_info);
 436              		.loc 1 308 0
 437 0010 1149     		ldr	r1, .L44
 438              	.LVL75:
 439 0012 FFF7FEFF 		bl	u8x8_d_helper_display_setup_memory
 440              	.LVL76:
 309:..\u8g2\csrc/u8x8_d_ssd1322.c ****       break;
 310:..\u8g2\csrc/u8x8_d_ssd1322.c ****     case U8X8_MSG_DISPLAY_INIT:
 311:..\u8g2\csrc/u8x8_d_ssd1322.c ****       u8x8_d_helper_display_init(u8x8);
 312:..\u8g2\csrc/u8x8_d_ssd1322.c ****       u8x8_cad_SendSequence(u8x8, u8x8_d_ssd1322_256x64_init_seq);
 313:..\u8g2\csrc/u8x8_d_ssd1322.c ****       break;
 314:..\u8g2\csrc/u8x8_d_ssd1322.c ****     case U8X8_MSG_DISPLAY_SET_FLIP_MODE:
 315:..\u8g2\csrc/u8x8_d_ssd1322.c ****       if ( arg_int == 0 )
 316:..\u8g2\csrc/u8x8_d_ssd1322.c ****       {
 317:..\u8g2\csrc/u8x8_d_ssd1322.c **** 	u8x8_cad_SendSequence(u8x8, u8x8_d_ssd1322_256x64_flip0_seq);
ARM GAS  C:\Users\brian\AppData\Local\Temp\ccA45ZYh.s 			page 15


 318:..\u8g2\csrc/u8x8_d_ssd1322.c **** 	u8x8->x_offset = u8x8->display_info->default_x_offset;
 319:..\u8g2\csrc/u8x8_d_ssd1322.c ****       }
 320:..\u8g2\csrc/u8x8_d_ssd1322.c ****       else
 321:..\u8g2\csrc/u8x8_d_ssd1322.c ****       {
 322:..\u8g2\csrc/u8x8_d_ssd1322.c **** 	u8x8_cad_SendSequence(u8x8, u8x8_d_ssd1322_256x64_flip1_seq);
 323:..\u8g2\csrc/u8x8_d_ssd1322.c **** 	u8x8->x_offset = u8x8->display_info->flipmode_x_offset;
 324:..\u8g2\csrc/u8x8_d_ssd1322.c ****       }
 325:..\u8g2\csrc/u8x8_d_ssd1322.c ****       break;
 326:..\u8g2\csrc/u8x8_d_ssd1322.c ****     
 327:..\u8g2\csrc/u8x8_d_ssd1322.c ****     default:
 328:..\u8g2\csrc/u8x8_d_ssd1322.c ****       return u8x8_d_ssd1322_common(u8x8, msg, arg_int, arg_ptr);
 329:..\u8g2\csrc/u8x8_d_ssd1322.c ****   }
 330:..\u8g2\csrc/u8x8_d_ssd1322.c ****   return 1;
 441              		.loc 1 330 0
 442 0016 0120     		movs	r0, #1
 309:..\u8g2\csrc/u8x8_d_ssd1322.c ****       break;
 443              		.loc 1 309 0
 444 0018 10BD     		pop	{r4, pc}
 445              	.LVL77:
 446              	.L37:
 311:..\u8g2\csrc/u8x8_d_ssd1322.c ****       u8x8_cad_SendSequence(u8x8, u8x8_d_ssd1322_256x64_init_seq);
 447              		.loc 1 311 0
 448 001a FFF7FEFF 		bl	u8x8_d_helper_display_init
 449              	.LVL78:
 312:..\u8g2\csrc/u8x8_d_ssd1322.c ****       break;
 450              		.loc 1 312 0
 451 001e 0F49     		ldr	r1, .L44+4
 452 0020 2046     		mov	r0, r4
 453 0022 FFF7FEFF 		bl	u8x8_cad_SendSequence
 454              	.LVL79:
 455              		.loc 1 330 0
 456 0026 0120     		movs	r0, #1
 313:..\u8g2\csrc/u8x8_d_ssd1322.c ****     case U8X8_MSG_DISPLAY_SET_FLIP_MODE:
 457              		.loc 1 313 0
 458 0028 10BD     		pop	{r4, pc}
 459              	.LVL80:
 460              	.L38:
 315:..\u8g2\csrc/u8x8_d_ssd1322.c ****       {
 461              		.loc 1 315 0
 462 002a 42B9     		cbnz	r2, .L41
 317:..\u8g2\csrc/u8x8_d_ssd1322.c **** 	u8x8->x_offset = u8x8->display_info->default_x_offset;
 463              		.loc 1 317 0
 464 002c 0C49     		ldr	r1, .L44+8
 465              	.LVL81:
 466 002e FFF7FEFF 		bl	u8x8_cad_SendSequence
 467              	.LVL82:
 318:..\u8g2\csrc/u8x8_d_ssd1322.c ****       }
 468              		.loc 1 318 0
 469 0032 2368     		ldr	r3, [r4]
 470 0034 9B7C     		ldrb	r3, [r3, #18]	@ zero_extendqisi2
 471 0036 84F82230 		strb	r3, [r4, #34]
 472              		.loc 1 330 0
 473 003a 0120     		movs	r0, #1
 474 003c 10BD     		pop	{r4, pc}
 475              	.LVL83:
 476              	.L41:
 322:..\u8g2\csrc/u8x8_d_ssd1322.c **** 	u8x8->x_offset = u8x8->display_info->flipmode_x_offset;
ARM GAS  C:\Users\brian\AppData\Local\Temp\ccA45ZYh.s 			page 16


 477              		.loc 1 322 0
 478 003e 0949     		ldr	r1, .L44+12
 479              	.LVL84:
 480 0040 FFF7FEFF 		bl	u8x8_cad_SendSequence
 481              	.LVL85:
 323:..\u8g2\csrc/u8x8_d_ssd1322.c ****       }
 482              		.loc 1 323 0
 483 0044 2368     		ldr	r3, [r4]
 484 0046 DB7C     		ldrb	r3, [r3, #19]	@ zero_extendqisi2
 485 0048 84F82230 		strb	r3, [r4, #34]
 486              		.loc 1 330 0
 487 004c 0120     		movs	r0, #1
 488 004e 10BD     		pop	{r4, pc}
 489              	.LVL86:
 490              	.L42:
 328:..\u8g2\csrc/u8x8_d_ssd1322.c ****   }
 491              		.loc 1 328 0
 492 0050 FFF7FEFF 		bl	u8x8_d_ssd1322_common
 493              	.LVL87:
 331:..\u8g2\csrc/u8x8_d_ssd1322.c **** }
 494              		.loc 1 331 0
 495 0054 10BD     		pop	{r4, pc}
 496              	.LVL88:
 497              	.L45:
 498 0056 00BF     		.align	2
 499              	.L44:
 500 0058 10000000 		.word	.LANCHOR1+16
 501 005c 28000000 		.word	.LANCHOR1+40
 502 0060 7C000000 		.word	.LANCHOR1+124
 503 0064 88000000 		.word	.LANCHOR1+136
 504              		.cfi_endproc
 505              	.LFE3:
 506              		.size	u8x8_d_ssd1322_nhd_256x64, .-u8x8_d_ssd1322_nhd_256x64
 507              		.section	.text.u8x8_d_ssd1322_common2,"ax",%progbits
 508              		.align	2
 509              		.global	u8x8_d_ssd1322_common2
 510              		.thumb
 511              		.thumb_func
 512              		.type	u8x8_d_ssd1322_common2, %function
 513              	u8x8_d_ssd1322_common2:
 514              	.LFB4:
 332:..\u8g2\csrc/u8x8_d_ssd1322.c **** 
 333:..\u8g2\csrc/u8x8_d_ssd1322.c **** /*=========================================================*/
 334:..\u8g2\csrc/u8x8_d_ssd1322.c **** /* 
 335:..\u8g2\csrc/u8x8_d_ssd1322.c ****   NHD-2.7-12864WDW3-M 
 336:..\u8g2\csrc/u8x8_d_ssd1322.c ****   http://www.newhavendisplay.com/nhd2712864wdw3m-p-9546.html
 337:..\u8g2\csrc/u8x8_d_ssd1322.c ****   http://www.newhavendisplay.com/specs/NHD-2.7-12864WDW3-M.pdf
 338:..\u8g2\csrc/u8x8_d_ssd1322.c **** 
 339:..\u8g2\csrc/u8x8_d_ssd1322.c ****   It looks like that only every second pixel is connected to the OLED
 340:..\u8g2\csrc/u8x8_d_ssd1322.c **** */
 341:..\u8g2\csrc/u8x8_d_ssd1322.c **** 
 342:..\u8g2\csrc/u8x8_d_ssd1322.c **** uint8_t u8x8_d_ssd1322_common2(u8x8_t *u8x8, uint8_t msg, uint8_t arg_int, void *arg_ptr)
 343:..\u8g2\csrc/u8x8_d_ssd1322.c **** {
 515              		.loc 1 343 0
 516              		.cfi_startproc
 517              		@ args = 0, pretend = 0, frame = 0
 518              		@ frame_needed = 0, uses_anonymous_args = 0
ARM GAS  C:\Users\brian\AppData\Local\Temp\ccA45ZYh.s 			page 17


 519              	.LVL89:
 520 0000 2DE9F84F 		push	{r3, r4, r5, r6, r7, r8, r9, r10, fp, lr}
 521              		.cfi_def_cfa_offset 40
 522              		.cfi_offset 3, -40
 523              		.cfi_offset 4, -36
 524              		.cfi_offset 5, -32
 525              		.cfi_offset 6, -28
 526              		.cfi_offset 7, -24
 527              		.cfi_offset 8, -20
 528              		.cfi_offset 9, -16
 529              		.cfi_offset 10, -12
 530              		.cfi_offset 11, -8
 531              		.cfi_offset 14, -4
 532 0004 0446     		mov	r4, r0
 533 0006 9246     		mov	r10, r2
 344:..\u8g2\csrc/u8x8_d_ssd1322.c ****   uint8_t x; 
 345:..\u8g2\csrc/u8x8_d_ssd1322.c ****   uint8_t y, c;
 346:..\u8g2\csrc/u8x8_d_ssd1322.c ****   uint8_t *ptr;
 347:..\u8g2\csrc/u8x8_d_ssd1322.c ****   switch(msg)
 534              		.loc 1 347 0
 535 0008 0E29     		cmp	r1, #14
 536 000a 12D0     		beq	.L48
 537 000c 9B46     		mov	fp, r3
 538 000e 0F29     		cmp	r1, #15
 539 0010 1FD0     		beq	.L49
 540 0012 0B29     		cmp	r1, #11
 541 0014 40F08A80 		bne	.L55
 348:..\u8g2\csrc/u8x8_d_ssd1322.c ****   {
 349:..\u8g2\csrc/u8x8_d_ssd1322.c ****     /* U8X8_MSG_DISPLAY_SETUP_MEMORY is handled by the calling function */
 350:..\u8g2\csrc/u8x8_d_ssd1322.c ****     /*
 351:..\u8g2\csrc/u8x8_d_ssd1322.c ****     case U8X8_MSG_DISPLAY_SETUP_MEMORY:
 352:..\u8g2\csrc/u8x8_d_ssd1322.c ****       break;
 353:..\u8g2\csrc/u8x8_d_ssd1322.c ****     case U8X8_MSG_DISPLAY_INIT:
 354:..\u8g2\csrc/u8x8_d_ssd1322.c ****       u8x8_d_helper_display_init(u8x8);
 355:..\u8g2\csrc/u8x8_d_ssd1322.c ****       u8x8_cad_SendSequence(u8x8, u8x8_d_ssd1322_256x64_init_seq);
 356:..\u8g2\csrc/u8x8_d_ssd1322.c ****       break;
 357:..\u8g2\csrc/u8x8_d_ssd1322.c ****     */
 358:..\u8g2\csrc/u8x8_d_ssd1322.c ****     case U8X8_MSG_DISPLAY_SET_POWER_SAVE:
 359:..\u8g2\csrc/u8x8_d_ssd1322.c ****       if ( arg_int == 0 )
 542              		.loc 1 359 0
 543 0018 2AB9     		cbnz	r2, .L51
 360:..\u8g2\csrc/u8x8_d_ssd1322.c **** 	u8x8_cad_SendSequence(u8x8, u8x8_d_ssd1322_powersave0_seq);
 544              		.loc 1 360 0
 545 001a 4649     		ldr	r1, .L57
 546              	.LVL90:
 547 001c FFF7FEFF 		bl	u8x8_cad_SendSequence
 548              	.LVL91:
 361:..\u8g2\csrc/u8x8_d_ssd1322.c ****       else
 362:..\u8g2\csrc/u8x8_d_ssd1322.c **** 	u8x8_cad_SendSequence(u8x8, u8x8_d_ssd1322_powersave1_seq);
 363:..\u8g2\csrc/u8x8_d_ssd1322.c ****       break;
 364:..\u8g2\csrc/u8x8_d_ssd1322.c **** #ifdef U8X8_WITH_SET_CONTRAST
 365:..\u8g2\csrc/u8x8_d_ssd1322.c ****     case U8X8_MSG_DISPLAY_SET_CONTRAST:
 366:..\u8g2\csrc/u8x8_d_ssd1322.c ****       u8x8_cad_StartTransfer(u8x8);
 367:..\u8g2\csrc/u8x8_d_ssd1322.c ****       u8x8_cad_SendCmd(u8x8, 0x0C1 );
 368:..\u8g2\csrc/u8x8_d_ssd1322.c ****       u8x8_cad_SendArg(u8x8, arg_int );	/* ssd1322 has range from 0 to 255 */
 369:..\u8g2\csrc/u8x8_d_ssd1322.c ****       u8x8_cad_EndTransfer(u8x8);
 370:..\u8g2\csrc/u8x8_d_ssd1322.c ****       break;
ARM GAS  C:\Users\brian\AppData\Local\Temp\ccA45ZYh.s 			page 18


 371:..\u8g2\csrc/u8x8_d_ssd1322.c **** #endif
 372:..\u8g2\csrc/u8x8_d_ssd1322.c ****     case U8X8_MSG_DISPLAY_DRAW_TILE:
 373:..\u8g2\csrc/u8x8_d_ssd1322.c ****       u8x8_cad_StartTransfer(u8x8);
 374:..\u8g2\csrc/u8x8_d_ssd1322.c ****       x = ((u8x8_tile_t *)arg_ptr)->x_pos;    
 375:..\u8g2\csrc/u8x8_d_ssd1322.c ****       x *= 2;		// only every 4th col can be addressed
 376:..\u8g2\csrc/u8x8_d_ssd1322.c ****       x *= 2;		// only every second pixel is used in the 128x64 NHD OLED 
 377:..\u8g2\csrc/u8x8_d_ssd1322.c ****     
 378:..\u8g2\csrc/u8x8_d_ssd1322.c ****       x += u8x8->x_offset;
 379:..\u8g2\csrc/u8x8_d_ssd1322.c ****     
 380:..\u8g2\csrc/u8x8_d_ssd1322.c ****       y = (((u8x8_tile_t *)arg_ptr)->y_pos);
 381:..\u8g2\csrc/u8x8_d_ssd1322.c ****       y *= 8;
 382:..\u8g2\csrc/u8x8_d_ssd1322.c ****           
 383:..\u8g2\csrc/u8x8_d_ssd1322.c ****       u8x8_cad_SendCmd(u8x8, 0x075 );	/* set row address, moved out of the loop (issue 302) */
 384:..\u8g2\csrc/u8x8_d_ssd1322.c ****       u8x8_cad_SendArg(u8x8, y);
 385:..\u8g2\csrc/u8x8_d_ssd1322.c ****       u8x8_cad_SendArg(u8x8, y+7);
 386:..\u8g2\csrc/u8x8_d_ssd1322.c ****       
 387:..\u8g2\csrc/u8x8_d_ssd1322.c ****       do
 388:..\u8g2\csrc/u8x8_d_ssd1322.c ****       {
 389:..\u8g2\csrc/u8x8_d_ssd1322.c **** 	c = ((u8x8_tile_t *)arg_ptr)->cnt;
 390:..\u8g2\csrc/u8x8_d_ssd1322.c **** 	ptr = ((u8x8_tile_t *)arg_ptr)->tile_ptr;
 391:..\u8g2\csrc/u8x8_d_ssd1322.c **** 
 392:..\u8g2\csrc/u8x8_d_ssd1322.c **** 	do
 393:..\u8g2\csrc/u8x8_d_ssd1322.c **** 	{
 394:..\u8g2\csrc/u8x8_d_ssd1322.c **** 	  u8x8_cad_SendCmd(u8x8, 0x015 );	/* set column address */
 395:..\u8g2\csrc/u8x8_d_ssd1322.c **** 	  u8x8_cad_SendArg(u8x8, x );	/* start */
 396:..\u8g2\csrc/u8x8_d_ssd1322.c **** 	  u8x8_cad_SendArg(u8x8, x+1 );	/* end */
 397:..\u8g2\csrc/u8x8_d_ssd1322.c **** 	  u8x8_cad_SendCmd(u8x8, 0x05c );	/* write to ram */	  
 398:..\u8g2\csrc/u8x8_d_ssd1322.c **** 	  u8x8_cad_SendData(u8x8, 32, u8x8_ssd1322_4to32(u8x8, ptr));	  
 399:..\u8g2\csrc/u8x8_d_ssd1322.c **** 	  ptr += 4;
 400:..\u8g2\csrc/u8x8_d_ssd1322.c **** 	  x += 2;
 401:..\u8g2\csrc/u8x8_d_ssd1322.c **** 	  
 402:..\u8g2\csrc/u8x8_d_ssd1322.c **** 	  u8x8_cad_SendCmd(u8x8, 0x015 );	/* set column address */
 403:..\u8g2\csrc/u8x8_d_ssd1322.c **** 	  u8x8_cad_SendArg(u8x8, x );	/* start */
 404:..\u8g2\csrc/u8x8_d_ssd1322.c **** 	  u8x8_cad_SendArg(u8x8, x+1 );	/* end */
 405:..\u8g2\csrc/u8x8_d_ssd1322.c **** 	  u8x8_cad_SendCmd(u8x8, 0x05c );	/* write to ram */	  
 406:..\u8g2\csrc/u8x8_d_ssd1322.c **** 	  u8x8_cad_SendData(u8x8, 32, u8x8_ssd1322_4to32(u8x8, ptr));	  
 407:..\u8g2\csrc/u8x8_d_ssd1322.c **** 	  ptr += 4;
 408:..\u8g2\csrc/u8x8_d_ssd1322.c **** 	  x += 2;
 409:..\u8g2\csrc/u8x8_d_ssd1322.c **** 	  
 410:..\u8g2\csrc/u8x8_d_ssd1322.c **** 	  c--;
 411:..\u8g2\csrc/u8x8_d_ssd1322.c **** 	} while( c > 0 );
 412:..\u8g2\csrc/u8x8_d_ssd1322.c **** 	
 413:..\u8g2\csrc/u8x8_d_ssd1322.c **** 	//x += 2;
 414:..\u8g2\csrc/u8x8_d_ssd1322.c **** 	arg_int--;
 415:..\u8g2\csrc/u8x8_d_ssd1322.c ****       } while( arg_int > 0 );
 416:..\u8g2\csrc/u8x8_d_ssd1322.c ****       
 417:..\u8g2\csrc/u8x8_d_ssd1322.c ****       u8x8_cad_EndTransfer(u8x8);
 418:..\u8g2\csrc/u8x8_d_ssd1322.c ****       break;
 419:..\u8g2\csrc/u8x8_d_ssd1322.c ****     default:
 420:..\u8g2\csrc/u8x8_d_ssd1322.c ****       return 0;
 421:..\u8g2\csrc/u8x8_d_ssd1322.c ****   }
 422:..\u8g2\csrc/u8x8_d_ssd1322.c ****   return 1;
 549              		.loc 1 422 0
 550 0020 0120     		movs	r0, #1
 551 0022 BDE8F88F 		pop	{r3, r4, r5, r6, r7, r8, r9, r10, fp, pc}
 552              	.LVL92:
 553              	.L51:
ARM GAS  C:\Users\brian\AppData\Local\Temp\ccA45ZYh.s 			page 19


 362:..\u8g2\csrc/u8x8_d_ssd1322.c ****       break;
 554              		.loc 1 362 0
 555 0026 4449     		ldr	r1, .L57+4
 556              	.LVL93:
 557 0028 FFF7FEFF 		bl	u8x8_cad_SendSequence
 558              	.LVL94:
 559              		.loc 1 422 0
 560 002c 0120     		movs	r0, #1
 561 002e BDE8F88F 		pop	{r3, r4, r5, r6, r7, r8, r9, r10, fp, pc}
 562              	.LVL95:
 563              	.L48:
 366:..\u8g2\csrc/u8x8_d_ssd1322.c ****       u8x8_cad_SendCmd(u8x8, 0x0C1 );
 564              		.loc 1 366 0
 565 0032 FFF7FEFF 		bl	u8x8_cad_StartTransfer
 566              	.LVL96:
 367:..\u8g2\csrc/u8x8_d_ssd1322.c ****       u8x8_cad_SendArg(u8x8, arg_int );	/* ssd1322 has range from 0 to 255 */
 567              		.loc 1 367 0
 568 0036 C121     		movs	r1, #193
 569 0038 2046     		mov	r0, r4
 570 003a FFF7FEFF 		bl	u8x8_cad_SendCmd
 571              	.LVL97:
 368:..\u8g2\csrc/u8x8_d_ssd1322.c ****       u8x8_cad_EndTransfer(u8x8);
 572              		.loc 1 368 0
 573 003e 5146     		mov	r1, r10
 574 0040 2046     		mov	r0, r4
 575 0042 FFF7FEFF 		bl	u8x8_cad_SendArg
 576              	.LVL98:
 369:..\u8g2\csrc/u8x8_d_ssd1322.c ****       break;
 577              		.loc 1 369 0
 578 0046 2046     		mov	r0, r4
 579 0048 FFF7FEFF 		bl	u8x8_cad_EndTransfer
 580              	.LVL99:
 581              		.loc 1 422 0
 582 004c 0120     		movs	r0, #1
 370:..\u8g2\csrc/u8x8_d_ssd1322.c **** #endif
 583              		.loc 1 370 0
 584 004e BDE8F88F 		pop	{r3, r4, r5, r6, r7, r8, r9, r10, fp, pc}
 585              	.LVL100:
 586              	.L49:
 373:..\u8g2\csrc/u8x8_d_ssd1322.c ****       x = ((u8x8_tile_t *)arg_ptr)->x_pos;    
 587              		.loc 1 373 0
 588 0052 FFF7FEFF 		bl	u8x8_cad_StartTransfer
 589              	.LVL101:
 374:..\u8g2\csrc/u8x8_d_ssd1322.c ****       x *= 2;		// only every 4th col can be addressed
 590              		.loc 1 374 0
 591 0056 9BF80530 		ldrb	r3, [fp, #5]	@ zero_extendqisi2
 592              	.LVL102:
 375:..\u8g2\csrc/u8x8_d_ssd1322.c ****       x *= 2;		// only every second pixel is used in the 128x64 NHD OLED 
 593              		.loc 1 375 0
 594 005a 5B00     		lsls	r3, r3, #1
 595              	.LVL103:
 596 005c DBB2     		uxtb	r3, r3
 597              	.LVL104:
 376:..\u8g2\csrc/u8x8_d_ssd1322.c ****     
 598              		.loc 1 376 0
 599 005e 5B00     		lsls	r3, r3, #1
 600              	.LVL105:
ARM GAS  C:\Users\brian\AppData\Local\Temp\ccA45ZYh.s 			page 20


 601 0060 DBB2     		uxtb	r3, r3
 602              	.LVL106:
 378:..\u8g2\csrc/u8x8_d_ssd1322.c ****     
 603              		.loc 1 378 0
 604 0062 94F82250 		ldrb	r5, [r4, #34]	@ zero_extendqisi2
 605 0066 2B44     		add	r3, r3, r5
 606              	.LVL107:
 607 0068 DDB2     		uxtb	r5, r3
 608              	.LVL108:
 380:..\u8g2\csrc/u8x8_d_ssd1322.c ****       y *= 8;
 609              		.loc 1 380 0
 610 006a 9BF80660 		ldrb	r6, [fp, #6]	@ zero_extendqisi2
 611              	.LVL109:
 381:..\u8g2\csrc/u8x8_d_ssd1322.c ****           
 612              		.loc 1 381 0
 613 006e F600     		lsls	r6, r6, #3
 614              	.LVL110:
 615 0070 F6B2     		uxtb	r6, r6
 616              	.LVL111:
 383:..\u8g2\csrc/u8x8_d_ssd1322.c ****       u8x8_cad_SendArg(u8x8, y);
 617              		.loc 1 383 0
 618 0072 7521     		movs	r1, #117
 619 0074 2046     		mov	r0, r4
 620 0076 FFF7FEFF 		bl	u8x8_cad_SendCmd
 621              	.LVL112:
 384:..\u8g2\csrc/u8x8_d_ssd1322.c ****       u8x8_cad_SendArg(u8x8, y+7);
 622              		.loc 1 384 0
 623 007a 3146     		mov	r1, r6
 624 007c 2046     		mov	r0, r4
 625 007e FFF7FEFF 		bl	u8x8_cad_SendArg
 626              	.LVL113:
 385:..\u8g2\csrc/u8x8_d_ssd1322.c ****       
 627              		.loc 1 385 0
 628 0082 F11D     		adds	r1, r6, #7
 629 0084 C9B2     		uxtb	r1, r1
 630 0086 2046     		mov	r0, r4
 631 0088 FFF7FEFF 		bl	u8x8_cad_SendArg
 632              	.LVL114:
 633              	.L53:
 389:..\u8g2\csrc/u8x8_d_ssd1322.c **** 	ptr = ((u8x8_tile_t *)arg_ptr)->tile_ptr;
 634              		.loc 1 389 0
 635 008c 9BF80460 		ldrb	r6, [fp, #4]	@ zero_extendqisi2
 636              	.LVL115:
 390:..\u8g2\csrc/u8x8_d_ssd1322.c **** 
 637              		.loc 1 390 0
 638 0090 DBF80070 		ldr	r7, [fp]
 639              	.LVL116:
 640              	.L52:
 394:..\u8g2\csrc/u8x8_d_ssd1322.c **** 	  u8x8_cad_SendArg(u8x8, x );	/* start */
 641              		.loc 1 394 0 discriminator 1
 642 0094 1521     		movs	r1, #21
 643 0096 2046     		mov	r0, r4
 644 0098 FFF7FEFF 		bl	u8x8_cad_SendCmd
 645              	.LVL117:
 395:..\u8g2\csrc/u8x8_d_ssd1322.c **** 	  u8x8_cad_SendArg(u8x8, x+1 );	/* end */
 646              		.loc 1 395 0 discriminator 1
 647 009c 2946     		mov	r1, r5
ARM GAS  C:\Users\brian\AppData\Local\Temp\ccA45ZYh.s 			page 21


 648 009e 2046     		mov	r0, r4
 649 00a0 FFF7FEFF 		bl	u8x8_cad_SendArg
 650              	.LVL118:
 396:..\u8g2\csrc/u8x8_d_ssd1322.c **** 	  u8x8_cad_SendCmd(u8x8, 0x05c );	/* write to ram */	  
 651              		.loc 1 396 0 discriminator 1
 652 00a4 691C     		adds	r1, r5, #1
 653 00a6 C9B2     		uxtb	r1, r1
 654 00a8 2046     		mov	r0, r4
 655 00aa FFF7FEFF 		bl	u8x8_cad_SendArg
 656              	.LVL119:
 397:..\u8g2\csrc/u8x8_d_ssd1322.c **** 	  u8x8_cad_SendData(u8x8, 32, u8x8_ssd1322_4to32(u8x8, ptr));	  
 657              		.loc 1 397 0 discriminator 1
 658 00ae 5C21     		movs	r1, #92
 659 00b0 2046     		mov	r0, r4
 660 00b2 FFF7FEFF 		bl	u8x8_cad_SendCmd
 661              	.LVL120:
 398:..\u8g2\csrc/u8x8_d_ssd1322.c **** 	  ptr += 4;
 662              		.loc 1 398 0 discriminator 1
 663 00b6 3946     		mov	r1, r7
 664 00b8 2046     		mov	r0, r4
 665 00ba FFF7FEFF 		bl	u8x8_ssd1322_4to32
 666              	.LVL121:
 667 00be 0246     		mov	r2, r0
 668 00c0 2021     		movs	r1, #32
 669 00c2 2046     		mov	r0, r4
 670 00c4 FFF7FEFF 		bl	u8x8_cad_SendData
 671              	.LVL122:
 399:..\u8g2\csrc/u8x8_d_ssd1322.c **** 	  x += 2;
 672              		.loc 1 399 0 discriminator 1
 673 00c8 07F10409 		add	r9, r7, #4
 674              	.LVL123:
 400:..\u8g2\csrc/u8x8_d_ssd1322.c **** 	  
 675              		.loc 1 400 0 discriminator 1
 676 00cc 05F10208 		add	r8, r5, #2
 677 00d0 5FFA88F8 		uxtb	r8, r8
 678              	.LVL124:
 402:..\u8g2\csrc/u8x8_d_ssd1322.c **** 	  u8x8_cad_SendArg(u8x8, x );	/* start */
 679              		.loc 1 402 0 discriminator 1
 680 00d4 1521     		movs	r1, #21
 681 00d6 2046     		mov	r0, r4
 682 00d8 FFF7FEFF 		bl	u8x8_cad_SendCmd
 683              	.LVL125:
 403:..\u8g2\csrc/u8x8_d_ssd1322.c **** 	  u8x8_cad_SendArg(u8x8, x+1 );	/* end */
 684              		.loc 1 403 0 discriminator 1
 685 00dc 4146     		mov	r1, r8
 686 00de 2046     		mov	r0, r4
 687 00e0 FFF7FEFF 		bl	u8x8_cad_SendArg
 688              	.LVL126:
 404:..\u8g2\csrc/u8x8_d_ssd1322.c **** 	  u8x8_cad_SendCmd(u8x8, 0x05c );	/* write to ram */	  
 689              		.loc 1 404 0 discriminator 1
 690 00e4 E91C     		adds	r1, r5, #3
 691 00e6 C9B2     		uxtb	r1, r1
 692 00e8 2046     		mov	r0, r4
 693 00ea FFF7FEFF 		bl	u8x8_cad_SendArg
 694              	.LVL127:
 405:..\u8g2\csrc/u8x8_d_ssd1322.c **** 	  u8x8_cad_SendData(u8x8, 32, u8x8_ssd1322_4to32(u8x8, ptr));	  
 695              		.loc 1 405 0 discriminator 1
ARM GAS  C:\Users\brian\AppData\Local\Temp\ccA45ZYh.s 			page 22


 696 00ee 5C21     		movs	r1, #92
 697 00f0 2046     		mov	r0, r4
 698 00f2 FFF7FEFF 		bl	u8x8_cad_SendCmd
 699              	.LVL128:
 406:..\u8g2\csrc/u8x8_d_ssd1322.c **** 	  ptr += 4;
 700              		.loc 1 406 0 discriminator 1
 701 00f6 4946     		mov	r1, r9
 702 00f8 2046     		mov	r0, r4
 703 00fa FFF7FEFF 		bl	u8x8_ssd1322_4to32
 704              	.LVL129:
 705 00fe 0246     		mov	r2, r0
 706 0100 2021     		movs	r1, #32
 707 0102 2046     		mov	r0, r4
 708 0104 FFF7FEFF 		bl	u8x8_cad_SendData
 709              	.LVL130:
 407:..\u8g2\csrc/u8x8_d_ssd1322.c **** 	  x += 2;
 710              		.loc 1 407 0 discriminator 1
 711 0108 0837     		adds	r7, r7, #8
 712              	.LVL131:
 408:..\u8g2\csrc/u8x8_d_ssd1322.c **** 	  
 713              		.loc 1 408 0 discriminator 1
 714 010a 0435     		adds	r5, r5, #4
 715 010c EDB2     		uxtb	r5, r5
 716              	.LVL132:
 410:..\u8g2\csrc/u8x8_d_ssd1322.c **** 	} while( c > 0 );
 717              		.loc 1 410 0 discriminator 1
 718 010e 013E     		subs	r6, r6, #1
 719              	.LVL133:
 411:..\u8g2\csrc/u8x8_d_ssd1322.c **** 	
 720              		.loc 1 411 0 discriminator 1
 721 0110 16F0FF06 		ands	r6, r6, #255
 722              	.LVL134:
 723 0114 BED1     		bne	.L52
 414:..\u8g2\csrc/u8x8_d_ssd1322.c ****       } while( arg_int > 0 );
 724              		.loc 1 414 0
 725 0116 0AF1FF3A 		add	r10, r10, #-1
 726              	.LVL135:
 415:..\u8g2\csrc/u8x8_d_ssd1322.c ****       
 727              		.loc 1 415 0
 728 011a 1AF0FF0A 		ands	r10, r10, #255
 729              	.LVL136:
 730 011e B5D1     		bne	.L53
 417:..\u8g2\csrc/u8x8_d_ssd1322.c ****       break;
 731              		.loc 1 417 0
 732 0120 2046     		mov	r0, r4
 733 0122 FFF7FEFF 		bl	u8x8_cad_EndTransfer
 734              	.LVL137:
 735              		.loc 1 422 0
 736 0126 0120     		movs	r0, #1
 418:..\u8g2\csrc/u8x8_d_ssd1322.c ****     default:
 737              		.loc 1 418 0
 738 0128 BDE8F88F 		pop	{r3, r4, r5, r6, r7, r8, r9, r10, fp, pc}
 739              	.LVL138:
 740              	.L55:
 420:..\u8g2\csrc/u8x8_d_ssd1322.c ****   }
 741              		.loc 1 420 0
 742 012c 0020     		movs	r0, #0
ARM GAS  C:\Users\brian\AppData\Local\Temp\ccA45ZYh.s 			page 23


 743              	.LVL139:
 423:..\u8g2\csrc/u8x8_d_ssd1322.c **** }
 744              		.loc 1 423 0
 745 012e BDE8F88F 		pop	{r3, r4, r5, r6, r7, r8, r9, r10, fp, pc}
 746              	.LVL140:
 747              	.L58:
 748 0132 00BF     		.align	2
 749              	.L57:
 750 0134 00000000 		.word	.LANCHOR1
 751 0138 08000000 		.word	.LANCHOR1+8
 752              		.cfi_endproc
 753              	.LFE4:
 754              		.size	u8x8_d_ssd1322_common2, .-u8x8_d_ssd1322_common2
 755              		.section	.text.u8x8_d_ssd1322_nhd_128x64,"ax",%progbits
 756              		.align	2
 757              		.global	u8x8_d_ssd1322_nhd_128x64
 758              		.thumb
 759              		.thumb_func
 760              		.type	u8x8_d_ssd1322_nhd_128x64, %function
 761              	u8x8_d_ssd1322_nhd_128x64:
 762              	.LFB5:
 424:..\u8g2\csrc/u8x8_d_ssd1322.c **** 
 425:..\u8g2\csrc/u8x8_d_ssd1322.c **** 
 426:..\u8g2\csrc/u8x8_d_ssd1322.c **** static const uint8_t u8x8_d_ssd1322_128x64_flip0_seq[] = {
 427:..\u8g2\csrc/u8x8_d_ssd1322.c ****   U8X8_START_TRANSFER(),             	/* enable chip, delay is part of the transfer start */
 428:..\u8g2\csrc/u8x8_d_ssd1322.c ****   U8X8_CAA(0x0a0, 0x016, 0x011),		/* remap */
 429:..\u8g2\csrc/u8x8_d_ssd1322.c ****   U8X8_END_TRANSFER(),             	/* disable chip */
 430:..\u8g2\csrc/u8x8_d_ssd1322.c ****   U8X8_END()             			/* end of sequence */
 431:..\u8g2\csrc/u8x8_d_ssd1322.c **** };
 432:..\u8g2\csrc/u8x8_d_ssd1322.c **** 
 433:..\u8g2\csrc/u8x8_d_ssd1322.c **** static const uint8_t u8x8_d_ssd1322_128x64_flip1_seq[] = {
 434:..\u8g2\csrc/u8x8_d_ssd1322.c ****   U8X8_START_TRANSFER(),             	/* enable chip, delay is part of the transfer start */
 435:..\u8g2\csrc/u8x8_d_ssd1322.c ****   U8X8_CAA(0x0a0, 0x004, 0x011),		/* remap */
 436:..\u8g2\csrc/u8x8_d_ssd1322.c ****   U8X8_END_TRANSFER(),             	/* disable chip */
 437:..\u8g2\csrc/u8x8_d_ssd1322.c ****   U8X8_END()             			/* end of sequence */
 438:..\u8g2\csrc/u8x8_d_ssd1322.c **** };
 439:..\u8g2\csrc/u8x8_d_ssd1322.c **** 
 440:..\u8g2\csrc/u8x8_d_ssd1322.c **** static const u8x8_display_info_t u8x8_ssd1322_128x64_display_info =
 441:..\u8g2\csrc/u8x8_d_ssd1322.c **** {
 442:..\u8g2\csrc/u8x8_d_ssd1322.c ****   /* chip_enable_level = */ 0,
 443:..\u8g2\csrc/u8x8_d_ssd1322.c ****   /* chip_disable_level = */ 1,
 444:..\u8g2\csrc/u8x8_d_ssd1322.c ****   
 445:..\u8g2\csrc/u8x8_d_ssd1322.c ****   /* post_chip_enable_wait_ns = */ 20,
 446:..\u8g2\csrc/u8x8_d_ssd1322.c ****   /* pre_chip_disable_wait_ns = */ 10,
 447:..\u8g2\csrc/u8x8_d_ssd1322.c ****   /* reset_pulse_width_ms = */ 100, 	/* SSD1322: 2 us */
 448:..\u8g2\csrc/u8x8_d_ssd1322.c ****   /* post_reset_wait_ms = */ 100, /* far east OLEDs need much longer setup time */
 449:..\u8g2\csrc/u8x8_d_ssd1322.c ****   /* sda_setup_time_ns = */ 50,		/* SSD1322: 15ns, but cycle time is 100ns, so use 100/2 */
 450:..\u8g2\csrc/u8x8_d_ssd1322.c ****   /* sck_pulse_width_ns = */ 50,	/* SSD1322: 20ns, but cycle time is 100ns, so use 100/2, AVR: belo
 451:..\u8g2\csrc/u8x8_d_ssd1322.c ****   /* sck_clock_hz = */ 10000000UL,	/* since Arduino 1.6.0, the SPI bus speed in Hz. Should be  1000
 452:..\u8g2\csrc/u8x8_d_ssd1322.c ****   /* spi_mode = */ 0,		/* active high, rising edge */
 453:..\u8g2\csrc/u8x8_d_ssd1322.c ****   /* i2c_bus_clock_100kHz = */ 4,
 454:..\u8g2\csrc/u8x8_d_ssd1322.c ****   /* data_setup_time_ns = */ 10,
 455:..\u8g2\csrc/u8x8_d_ssd1322.c ****   /* write_pulse_width_ns = */ 150,	/* SSD1322: cycle time is 300ns, so use 300/2 = 150 */
 456:..\u8g2\csrc/u8x8_d_ssd1322.c ****   /* tile_width = */ 16,		/* 128 pixel */
 457:..\u8g2\csrc/u8x8_d_ssd1322.c ****   /* tile_hight = */ 8,
 458:..\u8g2\csrc/u8x8_d_ssd1322.c ****   /* default_x_offset = */ 28,	/* this is the byte offset (there are two pixel per byte with 4 bit 
 459:..\u8g2\csrc/u8x8_d_ssd1322.c ****   /* flipmode_x_offset = */ 28,
ARM GAS  C:\Users\brian\AppData\Local\Temp\ccA45ZYh.s 			page 24


 460:..\u8g2\csrc/u8x8_d_ssd1322.c ****   /* pixel_width = */ 128,
 461:..\u8g2\csrc/u8x8_d_ssd1322.c ****   /* pixel_height = */ 64
 462:..\u8g2\csrc/u8x8_d_ssd1322.c **** };
 463:..\u8g2\csrc/u8x8_d_ssd1322.c **** 
 464:..\u8g2\csrc/u8x8_d_ssd1322.c **** 
 465:..\u8g2\csrc/u8x8_d_ssd1322.c **** static const uint8_t u8x8_d_ssd1322_128x64_init_seq[] = {
 466:..\u8g2\csrc/u8x8_d_ssd1322.c ****     
 467:..\u8g2\csrc/u8x8_d_ssd1322.c ****   U8X8_DLY(1),
 468:..\u8g2\csrc/u8x8_d_ssd1322.c ****   U8X8_START_TRANSFER(),             	/* enable chip, delay is part of the transfer start */
 469:..\u8g2\csrc/u8x8_d_ssd1322.c ****   U8X8_DLY(1),
 470:..\u8g2\csrc/u8x8_d_ssd1322.c ****   
 471:..\u8g2\csrc/u8x8_d_ssd1322.c ****   U8X8_CA(0xfd, 0x12),            	/* unlock */
 472:..\u8g2\csrc/u8x8_d_ssd1322.c ****   U8X8_C(0xae),		                /* display off */
 473:..\u8g2\csrc/u8x8_d_ssd1322.c ****   U8X8_CA(0xb3, 0x91),			/* set display clock divide ratio/oscillator frequency (set clock as 80 fr
 474:..\u8g2\csrc/u8x8_d_ssd1322.c ****   U8X8_CA(0xca, 0x3f),			/* multiplex ratio 1/64 Duty (0x0F~0x3F) */  
 475:..\u8g2\csrc/u8x8_d_ssd1322.c ****   U8X8_CA(0xa2, 0x00),			/* display offset, shift mapping ram counter */  
 476:..\u8g2\csrc/u8x8_d_ssd1322.c **** 
 477:..\u8g2\csrc/u8x8_d_ssd1322.c ****   U8X8_CA(0xa1, 0x00),			/* display start line */  
 478:..\u8g2\csrc/u8x8_d_ssd1322.c ****   U8X8_CA(0xab, 0x01),			/* Enable Internal VDD Regulator */  
 479:..\u8g2\csrc/u8x8_d_ssd1322.c ****   //U8X8_CAA(0xa0, 0x14, 0x11),	/* Set Re-Map / Dual COM Line Mode */  
 480:..\u8g2\csrc/u8x8_d_ssd1322.c ****   //U8X8_CAA(0xa0, 0x06, 0x011),	/* Set Re-Map / Dual COM Line Mode */  
 481:..\u8g2\csrc/u8x8_d_ssd1322.c ****   U8X8_CAA(0xa0, 0x16, 0x011),	/* Set Re-Map / Dual COM Line Mode (NHD-2.7-12864WDW3-M datasheet) *
 482:..\u8g2\csrc/u8x8_d_ssd1322.c ****   U8X8_CA(0xc7, 0x0f),			/* Set Scale Factor of Segment Output Current Control */  
 483:..\u8g2\csrc/u8x8_d_ssd1322.c ****   U8X8_CA(0xc1, 0x9f),			/* contrast */  
 484:..\u8g2\csrc/u8x8_d_ssd1322.c ****   //U8X8_CA(0xb1, 0xe2),			/* Phase 1 (Reset) & Phase 2 (Pre-Charge) Period Adjustment */  
 485:..\u8g2\csrc/u8x8_d_ssd1322.c ****   U8X8_CA(0xb1, 0xf2),			/* Phase 1 (Reset) & Phase 2 (Pre-Charge) Period Adjustment (NHD-2.7-12864
 486:..\u8g2\csrc/u8x8_d_ssd1322.c ****   U8X8_CA(0xbb, 0x1f),			/* precharge  voltage */    
 487:..\u8g2\csrc/u8x8_d_ssd1322.c ****   //U8X8_CAA(0xb4, 0xa0, 0x005|0x0fd),	/* Display Enhancement A */  
 488:..\u8g2\csrc/u8x8_d_ssd1322.c ****   U8X8_CAA(0xb4, 0xa0, 0x0fd),	/* Display Enhancement A (NHD-2.7-12864WDW3-M datasheet) */  
 489:..\u8g2\csrc/u8x8_d_ssd1322.c ****   U8X8_CA(0xbe, 0x04),			/* vcomh (NHD-2.7-12864WDW3-M datasheet) */  
 490:..\u8g2\csrc/u8x8_d_ssd1322.c ****   U8X8_C(0xb9),		                /* linear grayscale */
 491:..\u8g2\csrc/u8x8_d_ssd1322.c ****   //U8X8_CAA(0xd1, 0x082|0x020, 0x020),	/* Display Enhancement B */  
 492:..\u8g2\csrc/u8x8_d_ssd1322.c ****   //U8X8_CA(0xb6, 0x08),			/* precharge  period */  
 493:..\u8g2\csrc/u8x8_d_ssd1322.c ****   U8X8_C(0xa6),		                /* normal display */
 494:..\u8g2\csrc/u8x8_d_ssd1322.c ****   U8X8_C(0xa9),		                /* exit partial display */
 495:..\u8g2\csrc/u8x8_d_ssd1322.c **** 
 496:..\u8g2\csrc/u8x8_d_ssd1322.c **** 
 497:..\u8g2\csrc/u8x8_d_ssd1322.c ****   U8X8_DLY(1),					/* delay 2ms */
 498:..\u8g2\csrc/u8x8_d_ssd1322.c **** 
 499:..\u8g2\csrc/u8x8_d_ssd1322.c ****   
 500:..\u8g2\csrc/u8x8_d_ssd1322.c ****   U8X8_END_TRANSFER(),             	/* disable chip */
 501:..\u8g2\csrc/u8x8_d_ssd1322.c ****   U8X8_END()             			/* end of sequence */
 502:..\u8g2\csrc/u8x8_d_ssd1322.c **** };
 503:..\u8g2\csrc/u8x8_d_ssd1322.c **** 
 504:..\u8g2\csrc/u8x8_d_ssd1322.c **** uint8_t u8x8_d_ssd1322_nhd_128x64(u8x8_t *u8x8, uint8_t msg, uint8_t arg_int, void *arg_ptr)
 505:..\u8g2\csrc/u8x8_d_ssd1322.c **** {
 763              		.loc 1 505 0
 764              		.cfi_startproc
 765              		@ args = 0, pretend = 0, frame = 0
 766              		@ frame_needed = 0, uses_anonymous_args = 0
 767              	.LVL141:
 768 0000 10B5     		push	{r4, lr}
 769              		.cfi_def_cfa_offset 8
 770              		.cfi_offset 4, -8
 771              		.cfi_offset 14, -4
 772 0002 0446     		mov	r4, r0
 506:..\u8g2\csrc/u8x8_d_ssd1322.c ****   switch(msg)
ARM GAS  C:\Users\brian\AppData\Local\Temp\ccA45ZYh.s 			page 25


 773              		.loc 1 506 0
 774 0004 0A29     		cmp	r1, #10
 775 0006 08D0     		beq	.L61
 776 0008 0D29     		cmp	r1, #13
 777 000a 0ED0     		beq	.L62
 778 000c 0929     		cmp	r1, #9
 779 000e 1FD1     		bne	.L66
 507:..\u8g2\csrc/u8x8_d_ssd1322.c ****   {
 508:..\u8g2\csrc/u8x8_d_ssd1322.c ****     case U8X8_MSG_DISPLAY_SETUP_MEMORY:
 509:..\u8g2\csrc/u8x8_d_ssd1322.c ****       u8x8_d_helper_display_setup_memory(u8x8, &u8x8_ssd1322_128x64_display_info);
 780              		.loc 1 509 0
 781 0010 1149     		ldr	r1, .L68
 782              	.LVL142:
 783 0012 FFF7FEFF 		bl	u8x8_d_helper_display_setup_memory
 784              	.LVL143:
 510:..\u8g2\csrc/u8x8_d_ssd1322.c ****       break;
 511:..\u8g2\csrc/u8x8_d_ssd1322.c ****     case U8X8_MSG_DISPLAY_INIT:
 512:..\u8g2\csrc/u8x8_d_ssd1322.c ****       u8x8_d_helper_display_init(u8x8);
 513:..\u8g2\csrc/u8x8_d_ssd1322.c ****       u8x8_cad_SendSequence(u8x8, u8x8_d_ssd1322_128x64_init_seq);
 514:..\u8g2\csrc/u8x8_d_ssd1322.c ****       break;
 515:..\u8g2\csrc/u8x8_d_ssd1322.c ****     case U8X8_MSG_DISPLAY_SET_FLIP_MODE:
 516:..\u8g2\csrc/u8x8_d_ssd1322.c ****       if ( arg_int == 0 )
 517:..\u8g2\csrc/u8x8_d_ssd1322.c ****       {
 518:..\u8g2\csrc/u8x8_d_ssd1322.c **** 	u8x8_cad_SendSequence(u8x8, u8x8_d_ssd1322_128x64_flip0_seq);
 519:..\u8g2\csrc/u8x8_d_ssd1322.c **** 	u8x8->x_offset = u8x8->display_info->default_x_offset;
 520:..\u8g2\csrc/u8x8_d_ssd1322.c ****       }
 521:..\u8g2\csrc/u8x8_d_ssd1322.c ****       else
 522:..\u8g2\csrc/u8x8_d_ssd1322.c ****       {
 523:..\u8g2\csrc/u8x8_d_ssd1322.c **** 	u8x8_cad_SendSequence(u8x8, u8x8_d_ssd1322_128x64_flip1_seq);
 524:..\u8g2\csrc/u8x8_d_ssd1322.c **** 	u8x8->x_offset = u8x8->display_info->flipmode_x_offset;
 525:..\u8g2\csrc/u8x8_d_ssd1322.c ****       }
 526:..\u8g2\csrc/u8x8_d_ssd1322.c ****       break;
 527:..\u8g2\csrc/u8x8_d_ssd1322.c ****     
 528:..\u8g2\csrc/u8x8_d_ssd1322.c ****     default:
 529:..\u8g2\csrc/u8x8_d_ssd1322.c ****       return u8x8_d_ssd1322_common2(u8x8, msg, arg_int, arg_ptr);
 530:..\u8g2\csrc/u8x8_d_ssd1322.c ****   }
 531:..\u8g2\csrc/u8x8_d_ssd1322.c ****   return 1;
 785              		.loc 1 531 0
 786 0016 0120     		movs	r0, #1
 510:..\u8g2\csrc/u8x8_d_ssd1322.c ****       break;
 787              		.loc 1 510 0
 788 0018 10BD     		pop	{r4, pc}
 789              	.LVL144:
 790              	.L61:
 512:..\u8g2\csrc/u8x8_d_ssd1322.c ****       u8x8_cad_SendSequence(u8x8, u8x8_d_ssd1322_128x64_init_seq);
 791              		.loc 1 512 0
 792 001a FFF7FEFF 		bl	u8x8_d_helper_display_init
 793              	.LVL145:
 513:..\u8g2\csrc/u8x8_d_ssd1322.c ****       break;
 794              		.loc 1 513 0
 795 001e 0F49     		ldr	r1, .L68+4
 796 0020 2046     		mov	r0, r4
 797 0022 FFF7FEFF 		bl	u8x8_cad_SendSequence
 798              	.LVL146:
 799              		.loc 1 531 0
 800 0026 0120     		movs	r0, #1
 514:..\u8g2\csrc/u8x8_d_ssd1322.c ****     case U8X8_MSG_DISPLAY_SET_FLIP_MODE:
ARM GAS  C:\Users\brian\AppData\Local\Temp\ccA45ZYh.s 			page 26


 801              		.loc 1 514 0
 802 0028 10BD     		pop	{r4, pc}
 803              	.LVL147:
 804              	.L62:
 516:..\u8g2\csrc/u8x8_d_ssd1322.c ****       {
 805              		.loc 1 516 0
 806 002a 42B9     		cbnz	r2, .L65
 518:..\u8g2\csrc/u8x8_d_ssd1322.c **** 	u8x8->x_offset = u8x8->display_info->default_x_offset;
 807              		.loc 1 518 0
 808 002c 0C49     		ldr	r1, .L68+8
 809              	.LVL148:
 810 002e FFF7FEFF 		bl	u8x8_cad_SendSequence
 811              	.LVL149:
 519:..\u8g2\csrc/u8x8_d_ssd1322.c ****       }
 812              		.loc 1 519 0
 813 0032 2368     		ldr	r3, [r4]
 814 0034 9B7C     		ldrb	r3, [r3, #18]	@ zero_extendqisi2
 815 0036 84F82230 		strb	r3, [r4, #34]
 816              		.loc 1 531 0
 817 003a 0120     		movs	r0, #1
 818 003c 10BD     		pop	{r4, pc}
 819              	.LVL150:
 820              	.L65:
 523:..\u8g2\csrc/u8x8_d_ssd1322.c **** 	u8x8->x_offset = u8x8->display_info->flipmode_x_offset;
 821              		.loc 1 523 0
 822 003e 0949     		ldr	r1, .L68+12
 823              	.LVL151:
 824 0040 FFF7FEFF 		bl	u8x8_cad_SendSequence
 825              	.LVL152:
 524:..\u8g2\csrc/u8x8_d_ssd1322.c ****       }
 826              		.loc 1 524 0
 827 0044 2368     		ldr	r3, [r4]
 828 0046 DB7C     		ldrb	r3, [r3, #19]	@ zero_extendqisi2
 829 0048 84F82230 		strb	r3, [r4, #34]
 830              		.loc 1 531 0
 831 004c 0120     		movs	r0, #1
 832 004e 10BD     		pop	{r4, pc}
 833              	.LVL153:
 834              	.L66:
 529:..\u8g2\csrc/u8x8_d_ssd1322.c ****   }
 835              		.loc 1 529 0
 836 0050 FFF7FEFF 		bl	u8x8_d_ssd1322_common2
 837              	.LVL154:
 532:..\u8g2\csrc/u8x8_d_ssd1322.c **** }
 838              		.loc 1 532 0
 839 0054 10BD     		pop	{r4, pc}
 840              	.LVL155:
 841              	.L69:
 842 0056 00BF     		.align	2
 843              	.L68:
 844 0058 94000000 		.word	.LANCHOR1+148
 845 005c AC000000 		.word	.LANCHOR1+172
 846 0060 F8000000 		.word	.LANCHOR1+248
 847 0064 04010000 		.word	.LANCHOR1+260
 848              		.cfi_endproc
 849              	.LFE5:
 850              		.size	u8x8_d_ssd1322_nhd_128x64, .-u8x8_d_ssd1322_nhd_128x64
ARM GAS  C:\Users\brian\AppData\Local\Temp\ccA45ZYh.s 			page 27


 851              		.section	.rodata
 852              		.align	2
 853              		.set	.LANCHOR1,. + 0
 854              		.type	u8x8_d_ssd1322_powersave0_seq, %object
 855              		.size	u8x8_d_ssd1322_powersave0_seq, 5
 856              	u8x8_d_ssd1322_powersave0_seq:
 857 0000 18       		.byte	24
 858 0001 15       		.byte	21
 859 0002 AF       		.byte	-81
 860 0003 19       		.byte	25
 861 0004 FF       		.byte	-1
 862 0005 000000   		.space	3
 863              		.type	u8x8_d_ssd1322_powersave1_seq, %object
 864              		.size	u8x8_d_ssd1322_powersave1_seq, 5
 865              	u8x8_d_ssd1322_powersave1_seq:
 866 0008 18       		.byte	24
 867 0009 15       		.byte	21
 868 000a AE       		.byte	-82
 869 000b 19       		.byte	25
 870 000c FF       		.byte	-1
 871 000d 000000   		.space	3
 872              		.type	u8x8_ssd1322_256x64_display_info, %object
 873              		.size	u8x8_ssd1322_256x64_display_info, 24
 874              	u8x8_ssd1322_256x64_display_info:
 875 0010 00       		.byte	0
 876 0011 01       		.byte	1
 877 0012 14       		.byte	20
 878 0013 0A       		.byte	10
 879 0014 64       		.byte	100
 880 0015 64       		.byte	100
 881 0016 32       		.byte	50
 882 0017 32       		.byte	50
 883 0018 80969800 		.word	10000000
 884 001c 00       		.byte	0
 885 001d 04       		.byte	4
 886 001e 0A       		.byte	10
 887 001f 96       		.byte	-106
 888 0020 20       		.byte	32
 889 0021 08       		.byte	8
 890 0022 1C       		.byte	28
 891 0023 1C       		.byte	28
 892 0024 0001     		.short	256
 893 0026 4000     		.short	64
 894              		.type	u8x8_d_ssd1322_256x64_init_seq, %object
 895              		.size	u8x8_d_ssd1322_256x64_init_seq, 83
 896              	u8x8_d_ssd1322_256x64_init_seq:
 897 0028 FE       		.byte	-2
 898 0029 01       		.byte	1
 899 002a 18       		.byte	24
 900 002b FE       		.byte	-2
 901 002c 01       		.byte	1
 902 002d 15       		.byte	21
 903 002e FD       		.byte	-3
 904 002f 16       		.byte	22
 905 0030 12       		.byte	18
 906 0031 15       		.byte	21
 907 0032 AE       		.byte	-82
ARM GAS  C:\Users\brian\AppData\Local\Temp\ccA45ZYh.s 			page 28


 908 0033 15       		.byte	21
 909 0034 B3       		.byte	-77
 910 0035 16       		.byte	22
 911 0036 91       		.byte	-111
 912 0037 15       		.byte	21
 913 0038 CA       		.byte	-54
 914 0039 16       		.byte	22
 915 003a 3F       		.byte	63
 916 003b 15       		.byte	21
 917 003c A2       		.byte	-94
 918 003d 16       		.byte	22
 919 003e 00       		.byte	0
 920 003f 15       		.byte	21
 921 0040 A1       		.byte	-95
 922 0041 16       		.byte	22
 923 0042 00       		.byte	0
 924 0043 15       		.byte	21
 925 0044 A0       		.byte	-96
 926 0045 16       		.byte	22
 927 0046 06       		.byte	6
 928 0047 16       		.byte	22
 929 0048 11       		.byte	17
 930 0049 15       		.byte	21
 931 004a AB       		.byte	-85
 932 004b 16       		.byte	22
 933 004c 01       		.byte	1
 934 004d 15       		.byte	21
 935 004e B4       		.byte	-76
 936 004f 16       		.byte	22
 937 0050 A0       		.byte	-96
 938 0051 16       		.byte	22
 939 0052 FD       		.byte	-3
 940 0053 15       		.byte	21
 941 0054 C1       		.byte	-63
 942 0055 16       		.byte	22
 943 0056 9F       		.byte	-97
 944 0057 15       		.byte	21
 945 0058 C7       		.byte	-57
 946 0059 16       		.byte	22
 947 005a 0F       		.byte	15
 948 005b 15       		.byte	21
 949 005c B9       		.byte	-71
 950 005d 15       		.byte	21
 951 005e B1       		.byte	-79
 952 005f 16       		.byte	22
 953 0060 E2       		.byte	-30
 954 0061 15       		.byte	21
 955 0062 D1       		.byte	-47
 956 0063 16       		.byte	22
 957 0064 A2       		.byte	-94
 958 0065 16       		.byte	22
 959 0066 20       		.byte	32
 960 0067 15       		.byte	21
 961 0068 BB       		.byte	-69
 962 0069 16       		.byte	22
 963 006a 1F       		.byte	31
 964 006b 15       		.byte	21
ARM GAS  C:\Users\brian\AppData\Local\Temp\ccA45ZYh.s 			page 29


 965 006c B6       		.byte	-74
 966 006d 16       		.byte	22
 967 006e 08       		.byte	8
 968 006f 15       		.byte	21
 969 0070 BE       		.byte	-66
 970 0071 16       		.byte	22
 971 0072 07       		.byte	7
 972 0073 15       		.byte	21
 973 0074 A6       		.byte	-90
 974 0075 15       		.byte	21
 975 0076 A9       		.byte	-87
 976 0077 FE       		.byte	-2
 977 0078 01       		.byte	1
 978 0079 19       		.byte	25
 979 007a FF       		.byte	-1
 980 007b 00       		.space	1
 981              		.type	u8x8_d_ssd1322_256x64_flip0_seq, %object
 982              		.size	u8x8_d_ssd1322_256x64_flip0_seq, 9
 983              	u8x8_d_ssd1322_256x64_flip0_seq:
 984 007c 18       		.byte	24
 985 007d 15       		.byte	21
 986 007e A0       		.byte	-96
 987 007f 16       		.byte	22
 988 0080 06       		.byte	6
 989 0081 16       		.byte	22
 990 0082 11       		.byte	17
 991 0083 19       		.byte	25
 992 0084 FF       		.byte	-1
 993 0085 000000   		.space	3
 994              		.type	u8x8_d_ssd1322_256x64_flip1_seq, %object
 995              		.size	u8x8_d_ssd1322_256x64_flip1_seq, 9
 996              	u8x8_d_ssd1322_256x64_flip1_seq:
 997 0088 18       		.byte	24
 998 0089 15       		.byte	21
 999 008a A0       		.byte	-96
 1000 008b 16       		.byte	22
 1001 008c 14       		.byte	20
 1002 008d 16       		.byte	22
 1003 008e 11       		.byte	17
 1004 008f 19       		.byte	25
 1005 0090 FF       		.byte	-1
 1006 0091 000000   		.space	3
 1007              		.type	u8x8_ssd1322_128x64_display_info, %object
 1008              		.size	u8x8_ssd1322_128x64_display_info, 24
 1009              	u8x8_ssd1322_128x64_display_info:
 1010 0094 00       		.byte	0
 1011 0095 01       		.byte	1
 1012 0096 14       		.byte	20
 1013 0097 0A       		.byte	10
 1014 0098 64       		.byte	100
 1015 0099 64       		.byte	100
 1016 009a 32       		.byte	50
 1017 009b 32       		.byte	50
 1018 009c 80969800 		.word	10000000
 1019 00a0 00       		.byte	0
 1020 00a1 04       		.byte	4
 1021 00a2 0A       		.byte	10
ARM GAS  C:\Users\brian\AppData\Local\Temp\ccA45ZYh.s 			page 30


 1022 00a3 96       		.byte	-106
 1023 00a4 10       		.byte	16
 1024 00a5 08       		.byte	8
 1025 00a6 1C       		.byte	28
 1026 00a7 1C       		.byte	28
 1027 00a8 8000     		.short	128
 1028 00aa 4000     		.short	64
 1029              		.type	u8x8_d_ssd1322_128x64_init_seq, %object
 1030              		.size	u8x8_d_ssd1322_128x64_init_seq, 73
 1031              	u8x8_d_ssd1322_128x64_init_seq:
 1032 00ac FE       		.byte	-2
 1033 00ad 01       		.byte	1
 1034 00ae 18       		.byte	24
 1035 00af FE       		.byte	-2
 1036 00b0 01       		.byte	1
 1037 00b1 15       		.byte	21
 1038 00b2 FD       		.byte	-3
 1039 00b3 16       		.byte	22
 1040 00b4 12       		.byte	18
 1041 00b5 15       		.byte	21
 1042 00b6 AE       		.byte	-82
 1043 00b7 15       		.byte	21
 1044 00b8 B3       		.byte	-77
 1045 00b9 16       		.byte	22
 1046 00ba 91       		.byte	-111
 1047 00bb 15       		.byte	21
 1048 00bc CA       		.byte	-54
 1049 00bd 16       		.byte	22
 1050 00be 3F       		.byte	63
 1051 00bf 15       		.byte	21
 1052 00c0 A2       		.byte	-94
 1053 00c1 16       		.byte	22
 1054 00c2 00       		.byte	0
 1055 00c3 15       		.byte	21
 1056 00c4 A1       		.byte	-95
 1057 00c5 16       		.byte	22
 1058 00c6 00       		.byte	0
 1059 00c7 15       		.byte	21
 1060 00c8 AB       		.byte	-85
 1061 00c9 16       		.byte	22
 1062 00ca 01       		.byte	1
 1063 00cb 15       		.byte	21
 1064 00cc A0       		.byte	-96
 1065 00cd 16       		.byte	22
 1066 00ce 16       		.byte	22
 1067 00cf 16       		.byte	22
 1068 00d0 11       		.byte	17
 1069 00d1 15       		.byte	21
 1070 00d2 C7       		.byte	-57
 1071 00d3 16       		.byte	22
 1072 00d4 0F       		.byte	15
 1073 00d5 15       		.byte	21
 1074 00d6 C1       		.byte	-63
 1075 00d7 16       		.byte	22
 1076 00d8 9F       		.byte	-97
 1077 00d9 15       		.byte	21
 1078 00da B1       		.byte	-79
ARM GAS  C:\Users\brian\AppData\Local\Temp\ccA45ZYh.s 			page 31


 1079 00db 16       		.byte	22
 1080 00dc F2       		.byte	-14
 1081 00dd 15       		.byte	21
 1082 00de BB       		.byte	-69
 1083 00df 16       		.byte	22
 1084 00e0 1F       		.byte	31
 1085 00e1 15       		.byte	21
 1086 00e2 B4       		.byte	-76
 1087 00e3 16       		.byte	22
 1088 00e4 A0       		.byte	-96
 1089 00e5 16       		.byte	22
 1090 00e6 FD       		.byte	-3
 1091 00e7 15       		.byte	21
 1092 00e8 BE       		.byte	-66
 1093 00e9 16       		.byte	22
 1094 00ea 04       		.byte	4
 1095 00eb 15       		.byte	21
 1096 00ec B9       		.byte	-71
 1097 00ed 15       		.byte	21
 1098 00ee A6       		.byte	-90
 1099 00ef 15       		.byte	21
 1100 00f0 A9       		.byte	-87
 1101 00f1 FE       		.byte	-2
 1102 00f2 01       		.byte	1
 1103 00f3 19       		.byte	25
 1104 00f4 FF       		.byte	-1
 1105 00f5 000000   		.space	3
 1106              		.type	u8x8_d_ssd1322_128x64_flip0_seq, %object
 1107              		.size	u8x8_d_ssd1322_128x64_flip0_seq, 9
 1108              	u8x8_d_ssd1322_128x64_flip0_seq:
 1109 00f8 18       		.byte	24
 1110 00f9 15       		.byte	21
 1111 00fa A0       		.byte	-96
 1112 00fb 16       		.byte	22
 1113 00fc 16       		.byte	22
 1114 00fd 16       		.byte	22
 1115 00fe 11       		.byte	17
 1116 00ff 19       		.byte	25
 1117 0100 FF       		.byte	-1
 1118 0101 000000   		.space	3
 1119              		.type	u8x8_d_ssd1322_128x64_flip1_seq, %object
 1120              		.size	u8x8_d_ssd1322_128x64_flip1_seq, 9
 1121              	u8x8_d_ssd1322_128x64_flip1_seq:
 1122 0104 18       		.byte	24
 1123 0105 15       		.byte	21
 1124 0106 A0       		.byte	-96
 1125 0107 16       		.byte	22
 1126 0108 04       		.byte	4
 1127 0109 16       		.byte	22
 1128 010a 11       		.byte	17
 1129 010b 19       		.byte	25
 1130 010c FF       		.byte	-1
 1131              		.bss
 1132              		.align	2
 1133              		.set	.LANCHOR0,. + 0
 1134              		.type	u8x8_ssd1322_to32_dest_buf, %object
 1135              		.size	u8x8_ssd1322_to32_dest_buf, 32
ARM GAS  C:\Users\brian\AppData\Local\Temp\ccA45ZYh.s 			page 32


 1136              	u8x8_ssd1322_to32_dest_buf:
 1137 0000 00000000 		.space	32
 1137      00000000 
 1137      00000000 
 1137      00000000 
 1137      00000000 
 1138              		.text
 1139              	.Letext0:
 1140              		.file 2 "c:\\program files (x86)\\cypress\\psoc creator\\4.4\\psoc creator\\import\\gnu\\arm\\5.4.
 1141              		.file 3 "c:\\program files (x86)\\cypress\\psoc creator\\4.4\\psoc creator\\import\\gnu\\arm\\5.4.
 1142              		.file 4 "..\\u8g2\\csrc\\u8x8.h"