ARM GAS  C:\Users\brian\AppData\Local\Temp\cczRIA0V.s 			page 1


   1              		.syntax unified
   2              		.cpu cortex-m3
   3              		.fpu softvfp
   4              		.eabi_attribute 20, 1
   5              		.eabi_attribute 21, 1
   6              		.eabi_attribute 23, 3
   7              		.eabi_attribute 24, 1
   8              		.eabi_attribute 25, 1
   9              		.eabi_attribute 26, 1
  10              		.eabi_attribute 30, 1
  11              		.eabi_attribute 34, 1
  12              		.eabi_attribute 18, 4
  13              		.thumb
  14              		.syntax unified
  15              		.file	"u8x8_selection_list.c"
  16              		.text
  17              	.Ltext0:
  18              		.cfi_sections	.debug_frame
  19              		.section	.text.u8x8_sl_string_line_cb,"ax",%progbits
  20              		.align	2
  21              		.global	u8x8_sl_string_line_cb
  22              		.thumb
  23              		.thumb_func
  24              		.type	u8x8_sl_string_line_cb, %function
  25              	u8x8_sl_string_line_cb:
  26              	.LFB3:
  27              		.file 1 "..\\u8g2\\csrc\\u8x8_selection_list.c"
   1:..\u8g2\csrc/u8x8_selection_list.c **** /*
   2:..\u8g2\csrc/u8x8_selection_list.c **** 
   3:..\u8g2\csrc/u8x8_selection_list.c ****   u8x8_selection_list.c
   4:..\u8g2\csrc/u8x8_selection_list.c ****   
   5:..\u8g2\csrc/u8x8_selection_list.c ****   selection list with scroll option
   6:..\u8g2\csrc/u8x8_selection_list.c ****   
   7:..\u8g2\csrc/u8x8_selection_list.c ****   Universal 8bit Graphics Library (https://github.com/olikraus/u8g2/)
   8:..\u8g2\csrc/u8x8_selection_list.c **** 
   9:..\u8g2\csrc/u8x8_selection_list.c ****   Copyright (c) 2016, olikraus@gmail.com
  10:..\u8g2\csrc/u8x8_selection_list.c ****   All rights reserved.
  11:..\u8g2\csrc/u8x8_selection_list.c **** 
  12:..\u8g2\csrc/u8x8_selection_list.c ****   Redistribution and use in source and binary forms, with or without modification, 
  13:..\u8g2\csrc/u8x8_selection_list.c ****   are permitted provided that the following conditions are met:
  14:..\u8g2\csrc/u8x8_selection_list.c **** 
  15:..\u8g2\csrc/u8x8_selection_list.c ****   * Redistributions of source code must retain the above copyright notice, this list 
  16:..\u8g2\csrc/u8x8_selection_list.c ****     of conditions and the following disclaimer.
  17:..\u8g2\csrc/u8x8_selection_list.c ****     
  18:..\u8g2\csrc/u8x8_selection_list.c ****   * Redistributions in binary form must reproduce the above copyright notice, this 
  19:..\u8g2\csrc/u8x8_selection_list.c ****     list of conditions and the following disclaimer in the documentation and/or other 
  20:..\u8g2\csrc/u8x8_selection_list.c ****     materials provided with the distribution.
  21:..\u8g2\csrc/u8x8_selection_list.c **** 
  22:..\u8g2\csrc/u8x8_selection_list.c ****   THIS SOFTWARE IS PROVIDED BY THE COPYRIGHT HOLDERS AND 
  23:..\u8g2\csrc/u8x8_selection_list.c ****   CONTRIBUTORS "AS IS" AND ANY EXPRESS OR IMPLIED WARRANTIES, 
  24:..\u8g2\csrc/u8x8_selection_list.c ****   INCLUDING, BUT NOT LIMITED TO, THE IMPLIED WARRANTIES OF 
  25:..\u8g2\csrc/u8x8_selection_list.c ****   MERCHANTABILITY AND FITNESS FOR A PARTICULAR PURPOSE ARE 
  26:..\u8g2\csrc/u8x8_selection_list.c ****   DISCLAIMED. IN NO EVENT SHALL THE COPYRIGHT HOLDER OR 
  27:..\u8g2\csrc/u8x8_selection_list.c ****   CONTRIBUTORS BE LIABLE FOR ANY DIRECT, INDIRECT, INCIDENTAL, 
  28:..\u8g2\csrc/u8x8_selection_list.c ****   SPECIAL, EXEMPLARY, OR CONSEQUENTIAL DAMAGES (INCLUDING, BUT 
  29:..\u8g2\csrc/u8x8_selection_list.c ****   NOT LIMITED TO, PROCUREMENT OF SUBSTITUTE GOODS OR SERVICES; 
  30:..\u8g2\csrc/u8x8_selection_list.c ****   LOSS OF USE, DATA, OR PROFITS; OR BUSINESS INTERRUPTION) HOWEVER 
ARM GAS  C:\Users\brian\AppData\Local\Temp\cczRIA0V.s 			page 2


  31:..\u8g2\csrc/u8x8_selection_list.c ****   CAUSED AND ON ANY THEORY OF LIABILITY, WHETHER IN CONTRACT, 
  32:..\u8g2\csrc/u8x8_selection_list.c ****   STRICT LIABILITY, OR TORT (INCLUDING NEGLIGENCE OR OTHERWISE) 
  33:..\u8g2\csrc/u8x8_selection_list.c ****   ARISING IN ANY WAY OUT OF THE USE OF THIS SOFTWARE, EVEN IF 
  34:..\u8g2\csrc/u8x8_selection_list.c ****   ADVISED OF THE POSSIBILITY OF SUCH DAMAGE.  
  35:..\u8g2\csrc/u8x8_selection_list.c ****   
  36:..\u8g2\csrc/u8x8_selection_list.c **** */
  37:..\u8g2\csrc/u8x8_selection_list.c **** 
  38:..\u8g2\csrc/u8x8_selection_list.c **** #include "u8x8.h"
  39:..\u8g2\csrc/u8x8_selection_list.c **** 
  40:..\u8g2\csrc/u8x8_selection_list.c **** /*
  41:..\u8g2\csrc/u8x8_selection_list.c ****   increase the cursor position
  42:..\u8g2\csrc/u8x8_selection_list.c **** */
  43:..\u8g2\csrc/u8x8_selection_list.c **** void u8sl_Next(u8sl_t *u8sl)
  44:..\u8g2\csrc/u8x8_selection_list.c **** {
  45:..\u8g2\csrc/u8x8_selection_list.c ****   u8sl->current_pos++;
  46:..\u8g2\csrc/u8x8_selection_list.c ****   if ( u8sl->current_pos >= u8sl->total )
  47:..\u8g2\csrc/u8x8_selection_list.c ****   {
  48:..\u8g2\csrc/u8x8_selection_list.c ****     u8sl->current_pos = 0;
  49:..\u8g2\csrc/u8x8_selection_list.c ****     u8sl->first_pos = 0;
  50:..\u8g2\csrc/u8x8_selection_list.c ****   }
  51:..\u8g2\csrc/u8x8_selection_list.c ****   else
  52:..\u8g2\csrc/u8x8_selection_list.c ****   {
  53:..\u8g2\csrc/u8x8_selection_list.c ****     if ( u8sl->first_pos + u8sl->visible <= u8sl->current_pos + 1 )
  54:..\u8g2\csrc/u8x8_selection_list.c ****     {
  55:..\u8g2\csrc/u8x8_selection_list.c ****       u8sl->first_pos = u8sl->current_pos - u8sl->visible + 1;
  56:..\u8g2\csrc/u8x8_selection_list.c ****     }
  57:..\u8g2\csrc/u8x8_selection_list.c ****   }
  58:..\u8g2\csrc/u8x8_selection_list.c **** }
  59:..\u8g2\csrc/u8x8_selection_list.c **** 
  60:..\u8g2\csrc/u8x8_selection_list.c **** void u8sl_Prev(u8sl_t *u8sl)
  61:..\u8g2\csrc/u8x8_selection_list.c **** {
  62:..\u8g2\csrc/u8x8_selection_list.c ****   if ( u8sl->current_pos == 0 )
  63:..\u8g2\csrc/u8x8_selection_list.c ****   {
  64:..\u8g2\csrc/u8x8_selection_list.c ****     u8sl->current_pos = u8sl->total - 1;
  65:..\u8g2\csrc/u8x8_selection_list.c ****     u8sl->first_pos = 0;
  66:..\u8g2\csrc/u8x8_selection_list.c ****     if ( u8sl->total > u8sl->visible )
  67:..\u8g2\csrc/u8x8_selection_list.c ****       u8sl->first_pos = u8sl->total - u8sl->visible;
  68:..\u8g2\csrc/u8x8_selection_list.c ****   }
  69:..\u8g2\csrc/u8x8_selection_list.c ****   else
  70:..\u8g2\csrc/u8x8_selection_list.c ****   {
  71:..\u8g2\csrc/u8x8_selection_list.c ****     u8sl->current_pos--;
  72:..\u8g2\csrc/u8x8_selection_list.c ****     if ( u8sl->first_pos > u8sl->current_pos )
  73:..\u8g2\csrc/u8x8_selection_list.c ****       u8sl->first_pos = u8sl->current_pos;
  74:..\u8g2\csrc/u8x8_selection_list.c ****   }
  75:..\u8g2\csrc/u8x8_selection_list.c **** }
  76:..\u8g2\csrc/u8x8_selection_list.c **** 
  77:..\u8g2\csrc/u8x8_selection_list.c **** void u8x8_DrawSelectionList(u8x8_t *u8x8, u8sl_t *u8sl, u8x8_sl_cb sl_cb, const void *aux)
  78:..\u8g2\csrc/u8x8_selection_list.c **** {
  79:..\u8g2\csrc/u8x8_selection_list.c ****   uint8_t i;
  80:..\u8g2\csrc/u8x8_selection_list.c ****   for( i = 0; i < u8sl->visible; i++ )
  81:..\u8g2\csrc/u8x8_selection_list.c ****   {
  82:..\u8g2\csrc/u8x8_selection_list.c ****     sl_cb(u8x8, u8sl, i+u8sl->first_pos, aux);
  83:..\u8g2\csrc/u8x8_selection_list.c ****   }
  84:..\u8g2\csrc/u8x8_selection_list.c **** }
  85:..\u8g2\csrc/u8x8_selection_list.c **** 
  86:..\u8g2\csrc/u8x8_selection_list.c **** /* selection list with string line */
  87:..\u8g2\csrc/u8x8_selection_list.c **** void u8x8_sl_string_line_cb(u8x8_t *u8x8, u8sl_t *u8sl, uint8_t idx, const void *aux)
ARM GAS  C:\Users\brian\AppData\Local\Temp\cczRIA0V.s 			page 3


  88:..\u8g2\csrc/u8x8_selection_list.c **** {
  28              		.loc 1 88 0
  29              		.cfi_startproc
  30              		@ args = 0, pretend = 0, frame = 0
  31              		@ frame_needed = 0, uses_anonymous_args = 0
  32              	.LVL0:
  33 0000 70B5     		push	{r4, r5, r6, lr}
  34              		.cfi_def_cfa_offset 16
  35              		.cfi_offset 4, -16
  36              		.cfi_offset 5, -12
  37              		.cfi_offset 6, -8
  38              		.cfi_offset 14, -4
  39 0002 82B0     		sub	sp, sp, #8
  40              		.cfi_def_cfa_offset 24
  41 0004 0546     		mov	r5, r0
  42 0006 0E46     		mov	r6, r1
  89:..\u8g2\csrc/u8x8_selection_list.c ****   const char *s;
  90:..\u8g2\csrc/u8x8_selection_list.c ****   uint8_t row;
  91:..\u8g2\csrc/u8x8_selection_list.c ****   /* calculate offset from display upper border */
  92:..\u8g2\csrc/u8x8_selection_list.c ****   row = u8sl->y;
  43              		.loc 1 92 0
  44 0008 4C79     		ldrb	r4, [r1, #5]	@ zero_extendqisi2
  45              	.LVL1:
  93:..\u8g2\csrc/u8x8_selection_list.c ****   
  94:..\u8g2\csrc/u8x8_selection_list.c ****   /* calculate target pos */
  95:..\u8g2\csrc/u8x8_selection_list.c ****   row += idx;
  46              		.loc 1 95 0
  47 000a 1444     		add	r4, r4, r2
  48              	.LVL2:
  49 000c E4B2     		uxtb	r4, r4
  50              	.LVL3:
  96:..\u8g2\csrc/u8x8_selection_list.c ****   row -= u8sl->first_pos;
  51              		.loc 1 96 0
  52 000e 8978     		ldrb	r1, [r1, #2]	@ zero_extendqisi2
  53              	.LVL4:
  54 0010 641A     		subs	r4, r4, r1
  55              	.LVL5:
  56 0012 E4B2     		uxtb	r4, r4
  57              	.LVL6:
  97:..\u8g2\csrc/u8x8_selection_list.c ****   
  98:..\u8g2\csrc/u8x8_selection_list.c ****   /* check whether this is the current cursor line */
  99:..\u8g2\csrc/u8x8_selection_list.c ****   if ( idx == u8sl->current_pos )
  58              		.loc 1 99 0
  59 0014 F178     		ldrb	r1, [r6, #3]	@ zero_extendqisi2
  60 0016 8A42     		cmp	r2, r1
  61 0018 03D1     		bne	.L2
 100:..\u8g2\csrc/u8x8_selection_list.c ****     u8x8_SetInverseFont(u8x8, 1);
  62              		.loc 1 100 0
  63 001a 0121     		movs	r1, #1
  64 001c 80F82310 		strb	r1, [r0, #35]
  65 0020 02E0     		b	.L3
  66              	.L2:
 101:..\u8g2\csrc/u8x8_selection_list.c ****   else
 102:..\u8g2\csrc/u8x8_selection_list.c ****     u8x8_SetInverseFont(u8x8, 0);
  67              		.loc 1 102 0
  68 0022 0021     		movs	r1, #0
  69 0024 80F82310 		strb	r1, [r0, #35]
ARM GAS  C:\Users\brian\AppData\Local\Temp\cczRIA0V.s 			page 4


  70              	.L3:
 103:..\u8g2\csrc/u8x8_selection_list.c ****   
 104:..\u8g2\csrc/u8x8_selection_list.c ****   /* get the line from the array */
 105:..\u8g2\csrc/u8x8_selection_list.c ****   s = u8x8_GetStringLineStart(idx, (const char *)aux);
  71              		.loc 1 105 0
  72 0028 1946     		mov	r1, r3
  73 002a 1046     		mov	r0, r2
  74              	.LVL7:
  75 002c FFF7FEFF 		bl	u8x8_GetStringLineStart
  76              	.LVL8:
 106:..\u8g2\csrc/u8x8_selection_list.c ****   
 107:..\u8g2\csrc/u8x8_selection_list.c ****   /* draw the line */
 108:..\u8g2\csrc/u8x8_selection_list.c ****   if ( s == NULL )
  77              		.loc 1 108 0
  78 0030 0246     		mov	r2, r0
  79 0032 00B9     		cbnz	r0, .L4
 109:..\u8g2\csrc/u8x8_selection_list.c ****     s = "";
  80              		.loc 1 109 0
  81 0034 064A     		ldr	r2, .L7
  82              	.L4:
  83              	.LVL9:
 110:..\u8g2\csrc/u8x8_selection_list.c ****   u8x8_DrawUTF8Line(u8x8, u8sl->x, row, u8x8_GetCols(u8x8), s);  
  84              		.loc 1 110 0
  85 0036 2B68     		ldr	r3, [r5]
  86 0038 1B7C     		ldrb	r3, [r3, #16]	@ zero_extendqisi2
  87 003a 3179     		ldrb	r1, [r6, #4]	@ zero_extendqisi2
  88 003c 0092     		str	r2, [sp]
  89 003e 2246     		mov	r2, r4
  90              	.LVL10:
  91 0040 2846     		mov	r0, r5
  92 0042 FFF7FEFF 		bl	u8x8_DrawUTF8Line
  93              	.LVL11:
 111:..\u8g2\csrc/u8x8_selection_list.c ****   u8x8_SetInverseFont(u8x8, 0);
  94              		.loc 1 111 0
  95 0046 0023     		movs	r3, #0
  96 0048 85F82330 		strb	r3, [r5, #35]
 112:..\u8g2\csrc/u8x8_selection_list.c **** }
  97              		.loc 1 112 0
  98 004c 02B0     		add	sp, sp, #8
  99              		.cfi_def_cfa_offset 16
 100              		@ sp needed
 101 004e 70BD     		pop	{r4, r5, r6, pc}
 102              	.LVL12:
 103              	.L8:
 104              		.align	2
 105              	.L7:
 106 0050 00000000 		.word	.LC0
 107              		.cfi_endproc
 108              	.LFE3:
 109              		.size	u8x8_sl_string_line_cb, .-u8x8_sl_string_line_cb
 110              		.section	.text.u8sl_Next,"ax",%progbits
 111              		.align	2
 112              		.global	u8sl_Next
 113              		.thumb
 114              		.thumb_func
 115              		.type	u8sl_Next, %function
 116              	u8sl_Next:
ARM GAS  C:\Users\brian\AppData\Local\Temp\cczRIA0V.s 			page 5


 117              	.LFB0:
  44:..\u8g2\csrc/u8x8_selection_list.c ****   u8sl->current_pos++;
 118              		.loc 1 44 0
 119              		.cfi_startproc
 120              		@ args = 0, pretend = 0, frame = 0
 121              		@ frame_needed = 0, uses_anonymous_args = 0
 122              		@ link register save eliminated.
 123              	.LVL13:
  45:..\u8g2\csrc/u8x8_selection_list.c ****   if ( u8sl->current_pos >= u8sl->total )
 124              		.loc 1 45 0
 125 0000 C378     		ldrb	r3, [r0, #3]	@ zero_extendqisi2
 126 0002 0133     		adds	r3, r3, #1
 127 0004 DBB2     		uxtb	r3, r3
 128 0006 C370     		strb	r3, [r0, #3]
  46:..\u8g2\csrc/u8x8_selection_list.c ****   {
 129              		.loc 1 46 0
 130 0008 4278     		ldrb	r2, [r0, #1]	@ zero_extendqisi2
 131 000a 9342     		cmp	r3, r2
 132 000c 03D3     		bcc	.L10
  48:..\u8g2\csrc/u8x8_selection_list.c ****     u8sl->first_pos = 0;
 133              		.loc 1 48 0
 134 000e 0023     		movs	r3, #0
 135 0010 C370     		strb	r3, [r0, #3]
  49:..\u8g2\csrc/u8x8_selection_list.c ****   }
 136              		.loc 1 49 0
 137 0012 8370     		strb	r3, [r0, #2]
 138 0014 7047     		bx	lr
 139              	.L10:
  44:..\u8g2\csrc/u8x8_selection_list.c ****   u8sl->current_pos++;
 140              		.loc 1 44 0
 141 0016 10B4     		push	{r4}
 142              		.cfi_def_cfa_offset 4
 143              		.cfi_offset 4, -4
  53:..\u8g2\csrc/u8x8_selection_list.c ****     {
 144              		.loc 1 53 0
 145 0018 8278     		ldrb	r2, [r0, #2]	@ zero_extendqisi2
 146 001a 0178     		ldrb	r1, [r0]	@ zero_extendqisi2
 147 001c 0A44     		add	r2, r2, r1
 148 001e 5C1C     		adds	r4, r3, #1
 149 0020 A242     		cmp	r2, r4
 150 0022 02DC     		bgt	.L9
  55:..\u8g2\csrc/u8x8_selection_list.c ****     }
 151              		.loc 1 55 0
 152 0024 5B1A     		subs	r3, r3, r1
 153 0026 0133     		adds	r3, r3, #1
 154 0028 8370     		strb	r3, [r0, #2]
 155              	.L9:
  58:..\u8g2\csrc/u8x8_selection_list.c **** 
 156              		.loc 1 58 0
 157 002a 10BC     		pop	{r4}
 158              		.cfi_restore 4
 159              		.cfi_def_cfa_offset 0
 160 002c 7047     		bx	lr
 161              		.cfi_endproc
 162              	.LFE0:
 163              		.size	u8sl_Next, .-u8sl_Next
 164 002e 00BF     		.section	.text.u8sl_Prev,"ax",%progbits
ARM GAS  C:\Users\brian\AppData\Local\Temp\cczRIA0V.s 			page 6


 165              		.align	2
 166              		.global	u8sl_Prev
 167              		.thumb
 168              		.thumb_func
 169              		.type	u8sl_Prev, %function
 170              	u8sl_Prev:
 171              	.LFB1:
  61:..\u8g2\csrc/u8x8_selection_list.c ****   if ( u8sl->current_pos == 0 )
 172              		.loc 1 61 0
 173              		.cfi_startproc
 174              		@ args = 0, pretend = 0, frame = 0
 175              		@ frame_needed = 0, uses_anonymous_args = 0
 176              		@ link register save eliminated.
 177              	.LVL14:
  62:..\u8g2\csrc/u8x8_selection_list.c ****   {
 178              		.loc 1 62 0
 179 0000 C378     		ldrb	r3, [r0, #3]	@ zero_extendqisi2
 180 0002 53B9     		cbnz	r3, .L14
  64:..\u8g2\csrc/u8x8_selection_list.c ****     u8sl->first_pos = 0;
 181              		.loc 1 64 0
 182 0004 4378     		ldrb	r3, [r0, #1]	@ zero_extendqisi2
 183 0006 5A1E     		subs	r2, r3, #1
 184 0008 C270     		strb	r2, [r0, #3]
  65:..\u8g2\csrc/u8x8_selection_list.c ****     if ( u8sl->total > u8sl->visible )
 185              		.loc 1 65 0
 186 000a 0022     		movs	r2, #0
 187 000c 8270     		strb	r2, [r0, #2]
  66:..\u8g2\csrc/u8x8_selection_list.c ****       u8sl->first_pos = u8sl->total - u8sl->visible;
 188              		.loc 1 66 0
 189 000e 0278     		ldrb	r2, [r0]	@ zero_extendqisi2
 190 0010 9342     		cmp	r3, r2
 191 0012 09D9     		bls	.L13
  67:..\u8g2\csrc/u8x8_selection_list.c ****   }
 192              		.loc 1 67 0
 193 0014 9B1A     		subs	r3, r3, r2
 194 0016 8370     		strb	r3, [r0, #2]
 195 0018 7047     		bx	lr
 196              	.L14:
  71:..\u8g2\csrc/u8x8_selection_list.c ****     if ( u8sl->first_pos > u8sl->current_pos )
 197              		.loc 1 71 0
 198 001a 013B     		subs	r3, r3, #1
 199 001c DBB2     		uxtb	r3, r3
 200 001e C370     		strb	r3, [r0, #3]
  72:..\u8g2\csrc/u8x8_selection_list.c ****       u8sl->first_pos = u8sl->current_pos;
 201              		.loc 1 72 0
 202 0020 8278     		ldrb	r2, [r0, #2]	@ zero_extendqisi2
 203 0022 9342     		cmp	r3, r2
 204 0024 00D2     		bcs	.L13
  73:..\u8g2\csrc/u8x8_selection_list.c ****   }
 205              		.loc 1 73 0
 206 0026 8370     		strb	r3, [r0, #2]
 207              	.L13:
 208 0028 7047     		bx	lr
 209              		.cfi_endproc
 210              	.LFE1:
 211              		.size	u8sl_Prev, .-u8sl_Prev
 212 002a 00BF     		.section	.text.u8x8_DrawSelectionList,"ax",%progbits
ARM GAS  C:\Users\brian\AppData\Local\Temp\cczRIA0V.s 			page 7


 213              		.align	2
 214              		.global	u8x8_DrawSelectionList
 215              		.thumb
 216              		.thumb_func
 217              		.type	u8x8_DrawSelectionList, %function
 218              	u8x8_DrawSelectionList:
 219              	.LFB2:
  78:..\u8g2\csrc/u8x8_selection_list.c ****   uint8_t i;
 220              		.loc 1 78 0
 221              		.cfi_startproc
 222              		@ args = 0, pretend = 0, frame = 0
 223              		@ frame_needed = 0, uses_anonymous_args = 0
 224              	.LVL15:
 225 0000 2DE9F041 		push	{r4, r5, r6, r7, r8, lr}
 226              		.cfi_def_cfa_offset 24
 227              		.cfi_offset 4, -24
 228              		.cfi_offset 5, -20
 229              		.cfi_offset 6, -16
 230              		.cfi_offset 7, -12
 231              		.cfi_offset 8, -8
 232              		.cfi_offset 14, -4
 233 0004 8046     		mov	r8, r0
 234 0006 0D46     		mov	r5, r1
 235 0008 1746     		mov	r7, r2
 236 000a 1E46     		mov	r6, r3
 237              	.LVL16:
  80:..\u8g2\csrc/u8x8_selection_list.c ****   {
 238              		.loc 1 80 0
 239 000c 0024     		movs	r4, #0
 240 000e 08E0     		b	.L17
 241              	.LVL17:
 242              	.L18:
  82:..\u8g2\csrc/u8x8_selection_list.c ****   }
 243              		.loc 1 82 0 discriminator 3
 244 0010 AA78     		ldrb	r2, [r5, #2]	@ zero_extendqisi2
 245 0012 2244     		add	r2, r2, r4
 246 0014 3346     		mov	r3, r6
 247 0016 D2B2     		uxtb	r2, r2
 248 0018 2946     		mov	r1, r5
 249 001a 4046     		mov	r0, r8
 250 001c B847     		blx	r7
 251              	.LVL18:
  80:..\u8g2\csrc/u8x8_selection_list.c ****   {
 252              		.loc 1 80 0 discriminator 3
 253 001e 0134     		adds	r4, r4, #1
 254              	.LVL19:
 255 0020 E4B2     		uxtb	r4, r4
 256              	.LVL20:
 257              	.L17:
  80:..\u8g2\csrc/u8x8_selection_list.c ****   {
 258              		.loc 1 80 0 is_stmt 0 discriminator 1
 259 0022 2B78     		ldrb	r3, [r5]	@ zero_extendqisi2
 260 0024 9C42     		cmp	r4, r3
 261 0026 F3D3     		bcc	.L18
  84:..\u8g2\csrc/u8x8_selection_list.c **** 
 262              		.loc 1 84 0 is_stmt 1
 263 0028 BDE8F081 		pop	{r4, r5, r6, r7, r8, pc}
ARM GAS  C:\Users\brian\AppData\Local\Temp\cczRIA0V.s 			page 8


 264              		.cfi_endproc
 265              	.LFE2:
 266              		.size	u8x8_DrawSelectionList, .-u8x8_DrawSelectionList
 267              		.section	.text.u8x8_UserInterfaceSelectionList,"ax",%progbits
 268              		.align	2
 269              		.global	u8x8_UserInterfaceSelectionList
 270              		.thumb
 271              		.thumb_func
 272              		.type	u8x8_UserInterfaceSelectionList, %function
 273              	u8x8_UserInterfaceSelectionList:
 274              	.LFB4:
 113:..\u8g2\csrc/u8x8_selection_list.c **** 
 114:..\u8g2\csrc/u8x8_selection_list.c **** /*
 115:..\u8g2\csrc/u8x8_selection_list.c ****   title: 		NULL for no title, valid str for title line. Can contain mutliple lines, separated by '\
 116:..\u8g2\csrc/u8x8_selection_list.c ****   start_pos: 	default position for the cursor (starts with 1)
 117:..\u8g2\csrc/u8x8_selection_list.c ****   sl:			string list (list of strings separated by \n)
 118:..\u8g2\csrc/u8x8_selection_list.c ****   returns 0 if user has pressed the home key
 119:..\u8g2\csrc/u8x8_selection_list.c ****   returns the selected line+1 if user has pressed the select key (e.g. 1 for the first line)
 120:..\u8g2\csrc/u8x8_selection_list.c **** */
 121:..\u8g2\csrc/u8x8_selection_list.c **** uint8_t u8x8_UserInterfaceSelectionList(u8x8_t *u8x8, const char *title, uint8_t start_pos, const c
 122:..\u8g2\csrc/u8x8_selection_list.c **** {
 275              		.loc 1 122 0
 276              		.cfi_startproc
 277              		@ args = 0, pretend = 0, frame = 8
 278              		@ frame_needed = 0, uses_anonymous_args = 0
 279              	.LVL21:
 280 0000 F0B5     		push	{r4, r5, r6, r7, lr}
 281              		.cfi_def_cfa_offset 20
 282              		.cfi_offset 4, -20
 283              		.cfi_offset 5, -16
 284              		.cfi_offset 6, -12
 285              		.cfi_offset 7, -8
 286              		.cfi_offset 14, -4
 287 0002 85B0     		sub	sp, sp, #20
 288              		.cfi_def_cfa_offset 40
 289 0004 0446     		mov	r4, r0
 290 0006 0F46     		mov	r7, r1
 291 0008 1D46     		mov	r5, r3
 123:..\u8g2\csrc/u8x8_selection_list.c ****   u8sl_t u8sl;
 124:..\u8g2\csrc/u8x8_selection_list.c ****   uint8_t event;
 125:..\u8g2\csrc/u8x8_selection_list.c ****   uint8_t title_lines;
 126:..\u8g2\csrc/u8x8_selection_list.c ****   
 127:..\u8g2\csrc/u8x8_selection_list.c ****   if ( start_pos > 0 )
 292              		.loc 1 127 0
 293 000a 1646     		mov	r6, r2
 294 000c 0AB1     		cbz	r2, .L21
 128:..\u8g2\csrc/u8x8_selection_list.c ****     start_pos--;
 295              		.loc 1 128 0
 296 000e 561E     		subs	r6, r2, #1
 297 0010 F6B2     		uxtb	r6, r6
 298              	.LVL22:
 299              	.L21:
 129:..\u8g2\csrc/u8x8_selection_list.c ****   
 130:..\u8g2\csrc/u8x8_selection_list.c ****   u8sl.visible = u8x8_GetRows(u8x8);
 300              		.loc 1 130 0
 301 0012 2368     		ldr	r3, [r4]
 302              	.LVL23:
ARM GAS  C:\Users\brian\AppData\Local\Temp\cczRIA0V.s 			page 9


 303 0014 5B7C     		ldrb	r3, [r3, #17]	@ zero_extendqisi2
 304 0016 8DF80830 		strb	r3, [sp, #8]
 131:..\u8g2\csrc/u8x8_selection_list.c ****   u8sl.total = u8x8_GetStringLineCnt(sl);
 305              		.loc 1 131 0
 306 001a 2846     		mov	r0, r5
 307              	.LVL24:
 308 001c FFF7FEFF 		bl	u8x8_GetStringLineCnt
 309              	.LVL25:
 310 0020 8DF80900 		strb	r0, [sp, #9]
 132:..\u8g2\csrc/u8x8_selection_list.c ****   u8sl.first_pos = 0;
 311              		.loc 1 132 0
 312 0024 0023     		movs	r3, #0
 313 0026 8DF80A30 		strb	r3, [sp, #10]
 133:..\u8g2\csrc/u8x8_selection_list.c ****   u8sl.current_pos = start_pos;
 314              		.loc 1 133 0
 315 002a 8DF80B60 		strb	r6, [sp, #11]
 134:..\u8g2\csrc/u8x8_selection_list.c ****   u8sl.x = 0;
 316              		.loc 1 134 0
 317 002e 8DF80C30 		strb	r3, [sp, #12]
 135:..\u8g2\csrc/u8x8_selection_list.c ****   u8sl.y = 0;
 318              		.loc 1 135 0
 319 0032 8DF80D30 		strb	r3, [sp, #13]
 136:..\u8g2\csrc/u8x8_selection_list.c ****   
 137:..\u8g2\csrc/u8x8_selection_list.c **** 
 138:..\u8g2\csrc/u8x8_selection_list.c ****   //u8x8_ClearDisplay(u8x8);   /* not required because all is 100% filled */
 139:..\u8g2\csrc/u8x8_selection_list.c ****   u8x8_SetInverseFont(u8x8, 0);
 320              		.loc 1 139 0
 321 0036 84F82330 		strb	r3, [r4, #35]
 140:..\u8g2\csrc/u8x8_selection_list.c ****   
 141:..\u8g2\csrc/u8x8_selection_list.c ****   if ( title != NULL )
 322              		.loc 1 141 0
 323 003a 8FB1     		cbz	r7, .L22
 142:..\u8g2\csrc/u8x8_selection_list.c ****   {
 143:..\u8g2\csrc/u8x8_selection_list.c ****     title_lines = u8x8_DrawUTF8Lines(u8x8, u8sl.x, u8sl.y, u8x8_GetCols(u8x8), title);
 324              		.loc 1 143 0
 325 003c 2368     		ldr	r3, [r4]
 326 003e 1B7C     		ldrb	r3, [r3, #16]	@ zero_extendqisi2
 327 0040 0097     		str	r7, [sp]
 328 0042 0022     		movs	r2, #0
 329 0044 1146     		mov	r1, r2
 330 0046 2046     		mov	r0, r4
 331 0048 FFF7FEFF 		bl	u8x8_DrawUTF8Lines
 332              	.LVL26:
 144:..\u8g2\csrc/u8x8_selection_list.c ****     u8sl.y+=title_lines;
 333              		.loc 1 144 0
 334 004c 9DF80D30 		ldrb	r3, [sp, #13]	@ zero_extendqisi2
 335 0050 0344     		add	r3, r3, r0
 336 0052 8DF80D30 		strb	r3, [sp, #13]
 145:..\u8g2\csrc/u8x8_selection_list.c ****     u8sl.visible-=title_lines;
 337              		.loc 1 145 0
 338 0056 9DF80830 		ldrb	r3, [sp, #8]	@ zero_extendqisi2
 339 005a 181A     		subs	r0, r3, r0
 340              	.LVL27:
 341 005c 8DF80800 		strb	r0, [sp, #8]
 342              	.L22:
 146:..\u8g2\csrc/u8x8_selection_list.c ****   }
 147:..\u8g2\csrc/u8x8_selection_list.c ****   
ARM GAS  C:\Users\brian\AppData\Local\Temp\cczRIA0V.s 			page 10


 148:..\u8g2\csrc/u8x8_selection_list.c ****   if ( u8sl.current_pos >= u8sl.total )
 343              		.loc 1 148 0
 344 0060 9DF80B20 		ldrb	r2, [sp, #11]	@ zero_extendqisi2
 345 0064 9DF80930 		ldrb	r3, [sp, #9]	@ zero_extendqisi2
 346 0068 9A42     		cmp	r2, r3
 347 006a 02D3     		bcc	.L23
 149:..\u8g2\csrc/u8x8_selection_list.c ****     u8sl.current_pos = u8sl.total-1;
 348              		.loc 1 149 0
 349 006c 013B     		subs	r3, r3, #1
 350 006e 8DF80B30 		strb	r3, [sp, #11]
 351              	.L23:
 150:..\u8g2\csrc/u8x8_selection_list.c **** 
 151:..\u8g2\csrc/u8x8_selection_list.c ****   
 152:..\u8g2\csrc/u8x8_selection_list.c ****   u8x8_DrawSelectionList(u8x8, &u8sl, u8x8_sl_string_line_cb, sl);
 352              		.loc 1 152 0
 353 0072 2B46     		mov	r3, r5
 354 0074 174A     		ldr	r2, .L33
 355 0076 02A9     		add	r1, sp, #8
 356 0078 2046     		mov	r0, r4
 357 007a FFF7FEFF 		bl	u8x8_DrawSelectionList
 358              	.LVL28:
 359              	.L24:
 153:..\u8g2\csrc/u8x8_selection_list.c **** 
 154:..\u8g2\csrc/u8x8_selection_list.c ****   for(;;)
 155:..\u8g2\csrc/u8x8_selection_list.c ****   {
 156:..\u8g2\csrc/u8x8_selection_list.c ****     event = u8x8_GetMenuEvent(u8x8);
 360              		.loc 1 156 0
 361 007e 2046     		mov	r0, r4
 362 0080 FFF7FEFF 		bl	u8x8_GetMenuEvent
 363              	.LVL29:
 157:..\u8g2\csrc/u8x8_selection_list.c ****     if ( event == U8X8_MSG_GPIO_MENU_SELECT )
 364              		.loc 1 157 0
 365 0084 5028     		cmp	r0, #80
 366 0086 04D1     		bne	.L25
 158:..\u8g2\csrc/u8x8_selection_list.c ****       return u8sl.current_pos+1;
 367              		.loc 1 158 0
 368 0088 9DF80B00 		ldrb	r0, [sp, #11]	@ zero_extendqisi2
 369              	.LVL30:
 370 008c 0130     		adds	r0, r0, #1
 371 008e C0B2     		uxtb	r0, r0
 372 0090 1EE0     		b	.L26
 373              	.LVL31:
 374              	.L25:
 159:..\u8g2\csrc/u8x8_selection_list.c ****     else if ( event == U8X8_MSG_GPIO_MENU_HOME )
 375              		.loc 1 159 0
 376 0092 5328     		cmp	r0, #83
 377 0094 1BD0     		beq	.L31
 160:..\u8g2\csrc/u8x8_selection_list.c ****       return 0;
 161:..\u8g2\csrc/u8x8_selection_list.c ****     else if ( event == U8X8_MSG_GPIO_MENU_NEXT || event == U8X8_MSG_GPIO_MENU_DOWN )
 378              		.loc 1 161 0
 379 0096 5128     		cmp	r0, #81
 380 0098 01D0     		beq	.L27
 381              		.loc 1 161 0 is_stmt 0 discriminator 1
 382 009a 5528     		cmp	r0, #85
 383 009c 09D1     		bne	.L28
 384              	.L27:
 162:..\u8g2\csrc/u8x8_selection_list.c ****     {
ARM GAS  C:\Users\brian\AppData\Local\Temp\cczRIA0V.s 			page 11


 163:..\u8g2\csrc/u8x8_selection_list.c ****       u8sl_Next(&u8sl);
 385              		.loc 1 163 0 is_stmt 1
 386 009e 02A8     		add	r0, sp, #8
 387              	.LVL32:
 388 00a0 FFF7FEFF 		bl	u8sl_Next
 389              	.LVL33:
 164:..\u8g2\csrc/u8x8_selection_list.c ****       u8x8_DrawSelectionList(u8x8, &u8sl, u8x8_sl_string_line_cb, sl);      
 390              		.loc 1 164 0
 391 00a4 2B46     		mov	r3, r5
 392 00a6 0B4A     		ldr	r2, .L33
 393 00a8 02A9     		add	r1, sp, #8
 394 00aa 2046     		mov	r0, r4
 395 00ac FFF7FEFF 		bl	u8x8_DrawSelectionList
 396              	.LVL34:
 397 00b0 E5E7     		b	.L24
 398              	.LVL35:
 399              	.L28:
 165:..\u8g2\csrc/u8x8_selection_list.c ****     }
 166:..\u8g2\csrc/u8x8_selection_list.c ****     else if ( event == U8X8_MSG_GPIO_MENU_PREV || event == U8X8_MSG_GPIO_MENU_UP  )
 400              		.loc 1 166 0
 401 00b2 5228     		cmp	r0, #82
 402 00b4 01D0     		beq	.L30
 403              		.loc 1 166 0 is_stmt 0 discriminator 1
 404 00b6 5428     		cmp	r0, #84
 405 00b8 E1D1     		bne	.L24
 406              	.L30:
 167:..\u8g2\csrc/u8x8_selection_list.c ****     {
 168:..\u8g2\csrc/u8x8_selection_list.c ****       u8sl_Prev(&u8sl);
 407              		.loc 1 168 0 is_stmt 1
 408 00ba 02A8     		add	r0, sp, #8
 409              	.LVL36:
 410 00bc FFF7FEFF 		bl	u8sl_Prev
 411              	.LVL37:
 169:..\u8g2\csrc/u8x8_selection_list.c ****       u8x8_DrawSelectionList(u8x8, &u8sl, u8x8_sl_string_line_cb, sl);      
 412              		.loc 1 169 0
 413 00c0 2B46     		mov	r3, r5
 414 00c2 044A     		ldr	r2, .L33
 415 00c4 02A9     		add	r1, sp, #8
 416 00c6 2046     		mov	r0, r4
 417 00c8 FFF7FEFF 		bl	u8x8_DrawSelectionList
 418              	.LVL38:
 419 00cc D7E7     		b	.L24
 420              	.LVL39:
 421              	.L31:
 160:..\u8g2\csrc/u8x8_selection_list.c ****     else if ( event == U8X8_MSG_GPIO_MENU_NEXT || event == U8X8_MSG_GPIO_MENU_DOWN )
 422              		.loc 1 160 0
 423 00ce 0020     		movs	r0, #0
 424              	.LVL40:
 425              	.L26:
 170:..\u8g2\csrc/u8x8_selection_list.c ****     }
 171:..\u8g2\csrc/u8x8_selection_list.c ****   }
 172:..\u8g2\csrc/u8x8_selection_list.c **** }
 426              		.loc 1 172 0
 427 00d0 05B0     		add	sp, sp, #20
 428              		.cfi_def_cfa_offset 20
 429              		@ sp needed
 430 00d2 F0BD     		pop	{r4, r5, r6, r7, pc}
ARM GAS  C:\Users\brian\AppData\Local\Temp\cczRIA0V.s 			page 12


 431              	.LVL41:
 432              	.L34:
 433              		.align	2
 434              	.L33:
 435 00d4 00000000 		.word	u8x8_sl_string_line_cb
 436              		.cfi_endproc
 437              	.LFE4:
 438              		.size	u8x8_UserInterfaceSelectionList, .-u8x8_UserInterfaceSelectionList
 439              		.section	.rodata.str1.4,"aMS",%progbits,1
 440              		.align	2
 441              	.LC0:
 442 0000 00       		.ascii	"\000"
 443              		.text
 444              	.Letext0:
 445              		.file 2 "c:\\program files (x86)\\cypress\\psoc creator\\4.4\\psoc creator\\import\\gnu\\arm\\5.4.
 446              		.file 3 "c:\\program files (x86)\\cypress\\psoc creator\\4.4\\psoc creator\\import\\gnu\\arm\\5.4.
 447              		.file 4 "..\\u8g2\\csrc\\u8x8.h"