ARM GAS  C:\Users\brian\AppData\Local\Temp\cchgViH2.s 			page 1


   1              		.syntax unified
   2              		.cpu cortex-m3
   3              		.fpu softvfp
   4              		.eabi_attribute 20, 1
   5              		.eabi_attribute 21, 1
   6              		.eabi_attribute 23, 3
   7              		.eabi_attribute 24, 1
   8              		.eabi_attribute 25, 1
   9              		.eabi_attribute 26, 1
  10              		.eabi_attribute 30, 1
  11              		.eabi_attribute 34, 1
  12              		.eabi_attribute 18, 4
  13              		.thumb
  14              		.syntax unified
  15              		.file	"u8x8_setup.c"
  16              		.text
  17              	.Ltext0:
  18              		.cfi_sections	.debug_frame
  19              		.section	.text.u8x8_dummy_cb,"ax",%progbits
  20              		.align	2
  21              		.global	u8x8_dummy_cb
  22              		.thumb
  23              		.thumb_func
  24              		.type	u8x8_dummy_cb, %function
  25              	u8x8_dummy_cb:
  26              	.LFB0:
  27              		.file 1 "..\\u8g2\\csrc\\u8x8_setup.c"
   1:..\u8g2\csrc/u8x8_setup.c **** /*
   2:..\u8g2\csrc/u8x8_setup.c **** 
   3:..\u8g2\csrc/u8x8_setup.c ****   u8x8_setup.c
   4:..\u8g2\csrc/u8x8_setup.c **** 
   5:..\u8g2\csrc/u8x8_setup.c ****   Universal 8bit Graphics Library (https://github.com/olikraus/u8g2/)
   6:..\u8g2\csrc/u8x8_setup.c **** 
   7:..\u8g2\csrc/u8x8_setup.c ****   Copyright (c) 2016, olikraus@gmail.com
   8:..\u8g2\csrc/u8x8_setup.c ****   All rights reserved.
   9:..\u8g2\csrc/u8x8_setup.c **** 
  10:..\u8g2\csrc/u8x8_setup.c ****   Redistribution and use in source and binary forms, with or without modification, 
  11:..\u8g2\csrc/u8x8_setup.c ****   are permitted provided that the following conditions are met:
  12:..\u8g2\csrc/u8x8_setup.c **** 
  13:..\u8g2\csrc/u8x8_setup.c ****   * Redistributions of source code must retain the above copyright notice, this list 
  14:..\u8g2\csrc/u8x8_setup.c ****     of conditions and the following disclaimer.
  15:..\u8g2\csrc/u8x8_setup.c ****     
  16:..\u8g2\csrc/u8x8_setup.c ****   * Redistributions in binary form must reproduce the above copyright notice, this 
  17:..\u8g2\csrc/u8x8_setup.c ****     list of conditions and the following disclaimer in the documentation and/or other 
  18:..\u8g2\csrc/u8x8_setup.c ****     materials provided with the distribution.
  19:..\u8g2\csrc/u8x8_setup.c **** 
  20:..\u8g2\csrc/u8x8_setup.c ****   THIS SOFTWARE IS PROVIDED BY THE COPYRIGHT HOLDERS AND 
  21:..\u8g2\csrc/u8x8_setup.c ****   CONTRIBUTORS "AS IS" AND ANY EXPRESS OR IMPLIED WARRANTIES, 
  22:..\u8g2\csrc/u8x8_setup.c ****   INCLUDING, BUT NOT LIMITED TO, THE IMPLIED WARRANTIES OF 
  23:..\u8g2\csrc/u8x8_setup.c ****   MERCHANTABILITY AND FITNESS FOR A PARTICULAR PURPOSE ARE 
  24:..\u8g2\csrc/u8x8_setup.c ****   DISCLAIMED. IN NO EVENT SHALL THE COPYRIGHT HOLDER OR 
  25:..\u8g2\csrc/u8x8_setup.c ****   CONTRIBUTORS BE LIABLE FOR ANY DIRECT, INDIRECT, INCIDENTAL, 
  26:..\u8g2\csrc/u8x8_setup.c ****   SPECIAL, EXEMPLARY, OR CONSEQUENTIAL DAMAGES (INCLUDING, BUT 
  27:..\u8g2\csrc/u8x8_setup.c ****   NOT LIMITED TO, PROCUREMENT OF SUBSTITUTE GOODS OR SERVICES; 
  28:..\u8g2\csrc/u8x8_setup.c ****   LOSS OF USE, DATA, OR PROFITS; OR BUSINESS INTERRUPTION) HOWEVER 
  29:..\u8g2\csrc/u8x8_setup.c ****   CAUSED AND ON ANY THEORY OF LIABILITY, WHETHER IN CONTRACT, 
  30:..\u8g2\csrc/u8x8_setup.c ****   STRICT LIABILITY, OR TORT (INCLUDING NEGLIGENCE OR OTHERWISE) 
ARM GAS  C:\Users\brian\AppData\Local\Temp\cchgViH2.s 			page 2


  31:..\u8g2\csrc/u8x8_setup.c ****   ARISING IN ANY WAY OUT OF THE USE OF THIS SOFTWARE, EVEN IF 
  32:..\u8g2\csrc/u8x8_setup.c ****   ADVISED OF THE POSSIBILITY OF SUCH DAMAGE.  
  33:..\u8g2\csrc/u8x8_setup.c **** 
  34:..\u8g2\csrc/u8x8_setup.c **** */
  35:..\u8g2\csrc/u8x8_setup.c **** 
  36:..\u8g2\csrc/u8x8_setup.c **** 
  37:..\u8g2\csrc/u8x8_setup.c **** #include "u8x8.h"
  38:..\u8g2\csrc/u8x8_setup.c **** 
  39:..\u8g2\csrc/u8x8_setup.c **** /* universal dummy callback, which will be default for all callbacks */
  40:..\u8g2\csrc/u8x8_setup.c **** uint8_t u8x8_dummy_cb(U8X8_UNUSED u8x8_t *u8x8, U8X8_UNUSED uint8_t msg, U8X8_UNUSED uint8_t arg_in
  41:..\u8g2\csrc/u8x8_setup.c **** {
  28              		.loc 1 41 0
  29              		.cfi_startproc
  30              		@ args = 0, pretend = 0, frame = 0
  31              		@ frame_needed = 0, uses_anonymous_args = 0
  32              		@ link register save eliminated.
  33              	.LVL0:
  42:..\u8g2\csrc/u8x8_setup.c ****   /* the dummy callback will not handle any message and will fail for all messages */
  43:..\u8g2\csrc/u8x8_setup.c ****   return 0;
  44:..\u8g2\csrc/u8x8_setup.c **** }
  34              		.loc 1 44 0
  35 0000 0020     		movs	r0, #0
  36              	.LVL1:
  37 0002 7047     		bx	lr
  38              		.cfi_endproc
  39              	.LFE0:
  40              		.size	u8x8_dummy_cb, .-u8x8_dummy_cb
  41              		.section	.text.u8x8_d_null_cb,"ax",%progbits
  42              		.align	2
  43              		.global	u8x8_d_null_cb
  44              		.thumb
  45              		.thumb_func
  46              		.type	u8x8_d_null_cb, %function
  47              	u8x8_d_null_cb:
  48              	.LFB1:
  45:..\u8g2\csrc/u8x8_setup.c **** 
  46:..\u8g2\csrc/u8x8_setup.c **** 
  47:..\u8g2\csrc/u8x8_setup.c **** static const u8x8_display_info_t u8x8_null_display_info =
  48:..\u8g2\csrc/u8x8_setup.c **** {
  49:..\u8g2\csrc/u8x8_setup.c ****   /* chip_enable_level = */ 0,
  50:..\u8g2\csrc/u8x8_setup.c ****   /* chip_disable_level = */ 1,
  51:..\u8g2\csrc/u8x8_setup.c ****   
  52:..\u8g2\csrc/u8x8_setup.c ****   /* post_chip_enable_wait_ns = */ 0,
  53:..\u8g2\csrc/u8x8_setup.c ****   /* pre_chip_disable_wait_ns = */ 0,
  54:..\u8g2\csrc/u8x8_setup.c ****   /* reset_pulse_width_ms = */ 0, 
  55:..\u8g2\csrc/u8x8_setup.c ****   /* post_reset_wait_ms = */ 0, 
  56:..\u8g2\csrc/u8x8_setup.c ****   /* sda_setup_time_ns = */ 0,		
  57:..\u8g2\csrc/u8x8_setup.c ****   /* sck_pulse_width_ns = */ 0,	/* half of cycle time (100ns according to datasheet), AVR: below 70
  58:..\u8g2\csrc/u8x8_setup.c ****   /* sck_clock_hz = */ 4000000UL,	/* since Arduino 1.6.0, the SPI bus speed in Hz. Should be  10000
  59:..\u8g2\csrc/u8x8_setup.c ****   /* spi_mode = */ 0,		/* active high, rising edge */
  60:..\u8g2\csrc/u8x8_setup.c ****   /* i2c_bus_clock_100kHz = */ 4,
  61:..\u8g2\csrc/u8x8_setup.c ****   /* data_setup_time_ns = */ 0,
  62:..\u8g2\csrc/u8x8_setup.c ****   /* write_pulse_width_ns = */ 0,
  63:..\u8g2\csrc/u8x8_setup.c ****   /* tile_width = */ 1,		/* 8x8 */
  64:..\u8g2\csrc/u8x8_setup.c ****   /* tile_hight = */ 1,
  65:..\u8g2\csrc/u8x8_setup.c ****   /* default_x_offset = */ 0,
  66:..\u8g2\csrc/u8x8_setup.c ****   /* flipmode_x_offset = */ 0,
ARM GAS  C:\Users\brian\AppData\Local\Temp\cchgViH2.s 			page 3


  67:..\u8g2\csrc/u8x8_setup.c ****   /* pixel_width = */ 8,
  68:..\u8g2\csrc/u8x8_setup.c ****   /* pixel_height = */ 8
  69:..\u8g2\csrc/u8x8_setup.c **** };
  70:..\u8g2\csrc/u8x8_setup.c **** 
  71:..\u8g2\csrc/u8x8_setup.c **** 
  72:..\u8g2\csrc/u8x8_setup.c **** /* a special null device */
  73:..\u8g2\csrc/u8x8_setup.c **** uint8_t u8x8_d_null_cb(u8x8_t *u8x8, uint8_t msg, U8X8_UNUSED uint8_t arg_int, U8X8_UNUSED void *ar
  74:..\u8g2\csrc/u8x8_setup.c **** {
  49              		.loc 1 74 0
  50              		.cfi_startproc
  51              		@ args = 0, pretend = 0, frame = 0
  52              		@ frame_needed = 0, uses_anonymous_args = 0
  53              	.LVL2:
  54 0000 08B5     		push	{r3, lr}
  55              		.cfi_def_cfa_offset 8
  56              		.cfi_offset 3, -8
  57              		.cfi_offset 14, -4
  75:..\u8g2\csrc/u8x8_setup.c ****   switch(msg)
  58              		.loc 1 75 0
  59 0002 0929     		cmp	r1, #9
  60 0004 02D0     		beq	.L4
  61 0006 0A29     		cmp	r1, #10
  62 0008 04D0     		beq	.L5
  63 000a 05E0     		b	.L3
  64              	.L4:
  76:..\u8g2\csrc/u8x8_setup.c ****   {
  77:..\u8g2\csrc/u8x8_setup.c ****     case U8X8_MSG_DISPLAY_SETUP_MEMORY:
  78:..\u8g2\csrc/u8x8_setup.c ****       u8x8_d_helper_display_setup_memory(u8x8, &u8x8_null_display_info);
  65              		.loc 1 78 0
  66 000c 0349     		ldr	r1, .L7
  67              	.LVL3:
  68 000e FFF7FEFF 		bl	u8x8_d_helper_display_setup_memory
  69              	.LVL4:
  79:..\u8g2\csrc/u8x8_setup.c ****       break;
  70              		.loc 1 79 0
  71 0012 01E0     		b	.L3
  72              	.LVL5:
  73              	.L5:
  80:..\u8g2\csrc/u8x8_setup.c ****     case U8X8_MSG_DISPLAY_INIT:
  81:..\u8g2\csrc/u8x8_setup.c ****       u8x8_d_helper_display_init(u8x8);
  74              		.loc 1 81 0
  75 0014 FFF7FEFF 		bl	u8x8_d_helper_display_init
  76              	.LVL6:
  77              	.L3:
  82:..\u8g2\csrc/u8x8_setup.c ****       break;
  83:..\u8g2\csrc/u8x8_setup.c ****   }
  84:..\u8g2\csrc/u8x8_setup.c ****   /* the null device callback will succeed for all messages */
  85:..\u8g2\csrc/u8x8_setup.c ****   return 1;
  86:..\u8g2\csrc/u8x8_setup.c **** }
  78              		.loc 1 86 0
  79 0018 0120     		movs	r0, #1
  80 001a 08BD     		pop	{r3, pc}
  81              	.L8:
  82              		.align	2
  83              	.L7:
  84 001c 00000000 		.word	.LANCHOR0
  85              		.cfi_endproc
ARM GAS  C:\Users\brian\AppData\Local\Temp\cchgViH2.s 			page 4


  86              	.LFE1:
  87              		.size	u8x8_d_null_cb, .-u8x8_d_null_cb
  88              		.section	.text.u8x8_SetupDefaults,"ax",%progbits
  89              		.align	2
  90              		.global	u8x8_SetupDefaults
  91              		.thumb
  92              		.thumb_func
  93              		.type	u8x8_SetupDefaults, %function
  94              	u8x8_SetupDefaults:
  95              	.LFB2:
  87:..\u8g2\csrc/u8x8_setup.c **** 
  88:..\u8g2\csrc/u8x8_setup.c **** 
  89:..\u8g2\csrc/u8x8_setup.c **** /*
  90:..\u8g2\csrc/u8x8_setup.c ****   Description:
  91:..\u8g2\csrc/u8x8_setup.c ****     Setup u8x8
  92:..\u8g2\csrc/u8x8_setup.c ****   Args:
  93:..\u8g2\csrc/u8x8_setup.c ****     u8x8	An empty u8x8 structure
  94:..\u8g2\csrc/u8x8_setup.c **** */
  95:..\u8g2\csrc/u8x8_setup.c **** void u8x8_SetupDefaults(u8x8_t *u8x8)
  96:..\u8g2\csrc/u8x8_setup.c **** {
  96              		.loc 1 96 0
  97              		.cfi_startproc
  98              		@ args = 0, pretend = 0, frame = 0
  99              		@ frame_needed = 0, uses_anonymous_args = 0
 100              		@ link register save eliminated.
 101              	.LVL7:
  97:..\u8g2\csrc/u8x8_setup.c ****     u8x8->display_info = NULL;
 102              		.loc 1 97 0
 103 0000 0023     		movs	r3, #0
 104 0002 0360     		str	r3, [r0]
  98:..\u8g2\csrc/u8x8_setup.c ****     u8x8->display_cb = u8x8_dummy_cb;
 105              		.loc 1 98 0
 106 0004 074A     		ldr	r2, .L10
 107 0006 8260     		str	r2, [r0, #8]
  99:..\u8g2\csrc/u8x8_setup.c ****     u8x8->cad_cb = u8x8_dummy_cb;
 108              		.loc 1 99 0
 109 0008 C260     		str	r2, [r0, #12]
 100:..\u8g2\csrc/u8x8_setup.c ****     u8x8->byte_cb = u8x8_dummy_cb;
 110              		.loc 1 100 0
 111 000a 0261     		str	r2, [r0, #16]
 101:..\u8g2\csrc/u8x8_setup.c ****     u8x8->gpio_and_delay_cb = u8x8_dummy_cb;
 112              		.loc 1 101 0
 113 000c 4261     		str	r2, [r0, #20]
 102:..\u8g2\csrc/u8x8_setup.c ****     u8x8->is_font_inverse_mode = 0;
 114              		.loc 1 102 0
 115 000e 80F82330 		strb	r3, [r0, #35]
 103:..\u8g2\csrc/u8x8_setup.c ****     //u8x8->device_address = 0;
 104:..\u8g2\csrc/u8x8_setup.c ****     u8x8->utf8_state = 0;		/* also reset by u8x8_utf8_init */
 116              		.loc 1 104 0
 117 0012 80F82630 		strb	r3, [r0, #38]
 105:..\u8g2\csrc/u8x8_setup.c ****     u8x8->bus_clock = 0;		/* issue 769 */
 118              		.loc 1 105 0
 119 0016 8361     		str	r3, [r0, #24]
 106:..\u8g2\csrc/u8x8_setup.c ****     u8x8->i2c_address = 255;
 120              		.loc 1 106 0
 121 0018 FF23     		movs	r3, #255
 122 001a 80F82430 		strb	r3, [r0, #36]
ARM GAS  C:\Users\brian\AppData\Local\Temp\cchgViH2.s 			page 5


 107:..\u8g2\csrc/u8x8_setup.c ****     u8x8->debounce_default_pin_state = 255;	/* assume all low active buttons */
 123              		.loc 1 107 0
 124 001e 80F82830 		strb	r3, [r0, #40]
 125 0022 7047     		bx	lr
 126              	.L11:
 127              		.align	2
 128              	.L10:
 129 0024 00000000 		.word	u8x8_dummy_cb
 130              		.cfi_endproc
 131              	.LFE2:
 132              		.size	u8x8_SetupDefaults, .-u8x8_SetupDefaults
 133              		.section	.text.u8x8_Setup,"ax",%progbits
 134              		.align	2
 135              		.global	u8x8_Setup
 136              		.thumb
 137              		.thumb_func
 138              		.type	u8x8_Setup, %function
 139              	u8x8_Setup:
 140              	.LFB3:
 108:..\u8g2\csrc/u8x8_setup.c ****   
 109:..\u8g2\csrc/u8x8_setup.c **** #ifdef U8X8_USE_PINS 
 110:..\u8g2\csrc/u8x8_setup.c ****   {
 111:..\u8g2\csrc/u8x8_setup.c ****     uint8_t i;
 112:..\u8g2\csrc/u8x8_setup.c ****     for( i = 0; i < U8X8_PIN_CNT; i++ )
 113:..\u8g2\csrc/u8x8_setup.c ****       u8x8->pins[i] = U8X8_PIN_NONE;
 114:..\u8g2\csrc/u8x8_setup.c ****   }
 115:..\u8g2\csrc/u8x8_setup.c **** #endif
 116:..\u8g2\csrc/u8x8_setup.c **** }
 117:..\u8g2\csrc/u8x8_setup.c **** 
 118:..\u8g2\csrc/u8x8_setup.c **** 
 119:..\u8g2\csrc/u8x8_setup.c **** /*
 120:..\u8g2\csrc/u8x8_setup.c ****   Description:
 121:..\u8g2\csrc/u8x8_setup.c ****     Setup u8x8 and assign the callback function. The dummy 
 122:..\u8g2\csrc/u8x8_setup.c ****     callback "u8x8_dummy_cb" can be used, if no callback is required.
 123:..\u8g2\csrc/u8x8_setup.c ****     This setup will not communicate with the display itself.
 124:..\u8g2\csrc/u8x8_setup.c ****     Use u8x8_InitDisplay() to send the startup code to the Display.
 125:..\u8g2\csrc/u8x8_setup.c ****   Args:
 126:..\u8g2\csrc/u8x8_setup.c ****     u8x8				An empty u8x8 structure
 127:..\u8g2\csrc/u8x8_setup.c ****     display_cb			Display/controller specific callback function
 128:..\u8g2\csrc/u8x8_setup.c ****     cad_cb				Display controller specific communication callback function
 129:..\u8g2\csrc/u8x8_setup.c ****     byte_cb			Display controller/communication specific callback funtion
 130:..\u8g2\csrc/u8x8_setup.c ****     gpio_and_delay_cb	Environment specific callback function
 131:..\u8g2\csrc/u8x8_setup.c **** 
 132:..\u8g2\csrc/u8x8_setup.c **** */
 133:..\u8g2\csrc/u8x8_setup.c **** void u8x8_Setup(u8x8_t *u8x8, u8x8_msg_cb display_cb, u8x8_msg_cb cad_cb, u8x8_msg_cb byte_cb, u8x8
 134:..\u8g2\csrc/u8x8_setup.c **** {
 141              		.loc 1 134 0
 142              		.cfi_startproc
 143              		@ args = 4, pretend = 0, frame = 0
 144              		@ frame_needed = 0, uses_anonymous_args = 0
 145              	.LVL8:
 146 0000 F8B5     		push	{r3, r4, r5, r6, r7, lr}
 147              		.cfi_def_cfa_offset 24
 148              		.cfi_offset 3, -24
 149              		.cfi_offset 4, -20
 150              		.cfi_offset 5, -16
 151              		.cfi_offset 6, -12
ARM GAS  C:\Users\brian\AppData\Local\Temp\cchgViH2.s 			page 6


 152              		.cfi_offset 7, -8
 153              		.cfi_offset 14, -4
 154 0002 0446     		mov	r4, r0
 155 0004 0F46     		mov	r7, r1
 156 0006 1646     		mov	r6, r2
 157 0008 1D46     		mov	r5, r3
 135:..\u8g2\csrc/u8x8_setup.c ****   /* setup defaults and reset pins to U8X8_PIN_NONE */
 136:..\u8g2\csrc/u8x8_setup.c ****   u8x8_SetupDefaults(u8x8);
 158              		.loc 1 136 0
 159 000a FFF7FEFF 		bl	u8x8_SetupDefaults
 160              	.LVL9:
 137:..\u8g2\csrc/u8x8_setup.c **** 
 138:..\u8g2\csrc/u8x8_setup.c ****   /* setup specific callbacks */
 139:..\u8g2\csrc/u8x8_setup.c ****   u8x8->display_cb = display_cb;
 161              		.loc 1 139 0
 162 000e A760     		str	r7, [r4, #8]
 140:..\u8g2\csrc/u8x8_setup.c ****   u8x8->cad_cb = cad_cb;
 163              		.loc 1 140 0
 164 0010 E660     		str	r6, [r4, #12]
 141:..\u8g2\csrc/u8x8_setup.c ****   u8x8->byte_cb = byte_cb;
 165              		.loc 1 141 0
 166 0012 2561     		str	r5, [r4, #16]
 142:..\u8g2\csrc/u8x8_setup.c ****   u8x8->gpio_and_delay_cb = gpio_and_delay_cb;
 167              		.loc 1 142 0
 168 0014 069B     		ldr	r3, [sp, #24]
 169 0016 6361     		str	r3, [r4, #20]
 143:..\u8g2\csrc/u8x8_setup.c **** 
 144:..\u8g2\csrc/u8x8_setup.c ****   /* setup display info */
 145:..\u8g2\csrc/u8x8_setup.c ****   u8x8_SetupMemory(u8x8);
 170              		.loc 1 145 0
 171 0018 2046     		mov	r0, r4
 172 001a FFF7FEFF 		bl	u8x8_SetupMemory
 173              	.LVL10:
 174 001e F8BD     		pop	{r3, r4, r5, r6, r7, pc}
 175              		.cfi_endproc
 176              	.LFE3:
 177              		.size	u8x8_Setup, .-u8x8_Setup
 178              		.section	.rodata
 179              		.align	2
 180              		.set	.LANCHOR0,. + 0
 181              		.type	u8x8_null_display_info, %object
 182              		.size	u8x8_null_display_info, 24
 183              	u8x8_null_display_info:
 184 0000 00       		.byte	0
 185 0001 01       		.byte	1
 186 0002 00       		.byte	0
 187 0003 00       		.byte	0
 188 0004 00       		.byte	0
 189 0005 00       		.byte	0
 190 0006 00       		.byte	0
 191 0007 00       		.byte	0
 192 0008 00093D00 		.word	4000000
 193 000c 00       		.byte	0
 194 000d 04       		.byte	4
 195 000e 00       		.byte	0
 196 000f 00       		.byte	0
 197 0010 01       		.byte	1
ARM GAS  C:\Users\brian\AppData\Local\Temp\cchgViH2.s 			page 7


 198 0011 01       		.byte	1
 199 0012 00       		.byte	0
 200 0013 00       		.byte	0
 201 0014 0800     		.short	8
 202 0016 0800     		.short	8
 203              		.text
 204              	.Letext0:
 205              		.file 2 "c:\\program files (x86)\\cypress\\psoc creator\\4.4\\psoc creator\\import\\gnu\\arm\\5.4.
 206              		.file 3 "c:\\program files (x86)\\cypress\\psoc creator\\4.4\\psoc creator\\import\\gnu\\arm\\5.4.
 207              		.file 4 "..\\u8g2\\csrc\\u8x8.h"