ARM GAS  C:\Users\brian\AppData\Local\Temp\cc2Kbm4j.s 			page 1


   1              		.syntax unified
   2              		.cpu cortex-m3
   3              		.fpu softvfp
   4              		.eabi_attribute 20, 1
   5              		.eabi_attribute 21, 1
   6              		.eabi_attribute 23, 3
   7              		.eabi_attribute 24, 1
   8              		.eabi_attribute 25, 1
   9              		.eabi_attribute 26, 1
  10              		.eabi_attribute 30, 1
  11              		.eabi_attribute 34, 1
  12              		.eabi_attribute 18, 4
  13              		.thumb
  14              		.syntax unified
  15              		.file	"u8x8_byte.c"
  16              		.text
  17              	.Ltext0:
  18              		.cfi_sections	.debug_frame
  19              		.section	.text.i2c_delay,"ax",%progbits
  20              		.align	2
  21              		.thumb
  22              		.thumb_func
  23              		.type	i2c_delay, %function
  24              	i2c_delay:
  25              	.LFB13:
  26              		.file 1 "..\\u8g2\\csrc\\u8x8_byte.c"
   1:..\u8g2\csrc/u8x8_byte.c **** /*
   2:..\u8g2\csrc/u8x8_byte.c **** 
   3:..\u8g2\csrc/u8x8_byte.c ****   u8x8_byte.c 
   4:..\u8g2\csrc/u8x8_byte.c ****   
   5:..\u8g2\csrc/u8x8_byte.c ****   Universal 8bit Graphics Library (https://github.com/olikraus/u8g2/)
   6:..\u8g2\csrc/u8x8_byte.c **** 
   7:..\u8g2\csrc/u8x8_byte.c ****   Copyright (c) 2016, olikraus@gmail.com
   8:..\u8g2\csrc/u8x8_byte.c ****   All rights reserved.
   9:..\u8g2\csrc/u8x8_byte.c **** 
  10:..\u8g2\csrc/u8x8_byte.c ****   Redistribution and use in source and binary forms, with or without modification, 
  11:..\u8g2\csrc/u8x8_byte.c ****   are permitted provided that the following conditions are met:
  12:..\u8g2\csrc/u8x8_byte.c **** 
  13:..\u8g2\csrc/u8x8_byte.c ****   * Redistributions of source code must retain the above copyright notice, this list 
  14:..\u8g2\csrc/u8x8_byte.c ****     of conditions and the following disclaimer.
  15:..\u8g2\csrc/u8x8_byte.c ****     
  16:..\u8g2\csrc/u8x8_byte.c ****   * Redistributions in binary form must reproduce the above copyright notice, this 
  17:..\u8g2\csrc/u8x8_byte.c ****     list of conditions and the following disclaimer in the documentation and/or other 
  18:..\u8g2\csrc/u8x8_byte.c ****     materials provided with the distribution.
  19:..\u8g2\csrc/u8x8_byte.c **** 
  20:..\u8g2\csrc/u8x8_byte.c ****   THIS SOFTWARE IS PROVIDED BY THE COPYRIGHT HOLDERS AND 
  21:..\u8g2\csrc/u8x8_byte.c ****   CONTRIBUTORS "AS IS" AND ANY EXPRESS OR IMPLIED WARRANTIES, 
  22:..\u8g2\csrc/u8x8_byte.c ****   INCLUDING, BUT NOT LIMITED TO, THE IMPLIED WARRANTIES OF 
  23:..\u8g2\csrc/u8x8_byte.c ****   MERCHANTABILITY AND FITNESS FOR A PARTICULAR PURPOSE ARE 
  24:..\u8g2\csrc/u8x8_byte.c ****   DISCLAIMED. IN NO EVENT SHALL THE COPYRIGHT HOLDER OR 
  25:..\u8g2\csrc/u8x8_byte.c ****   CONTRIBUTORS BE LIABLE FOR ANY DIRECT, INDIRECT, INCIDENTAL, 
  26:..\u8g2\csrc/u8x8_byte.c ****   SPECIAL, EXEMPLARY, OR CONSEQUENTIAL DAMAGES (INCLUDING, BUT 
  27:..\u8g2\csrc/u8x8_byte.c ****   NOT LIMITED TO, PROCUREMENT OF SUBSTITUTE GOODS OR SERVICES; 
  28:..\u8g2\csrc/u8x8_byte.c ****   LOSS OF USE, DATA, OR PROFITS; OR BUSINESS INTERRUPTION) HOWEVER 
  29:..\u8g2\csrc/u8x8_byte.c ****   CAUSED AND ON ANY THEORY OF LIABILITY, WHETHER IN CONTRACT, 
  30:..\u8g2\csrc/u8x8_byte.c ****   STRICT LIABILITY, OR TORT (INCLUDING NEGLIGENCE OR OTHERWISE) 
  31:..\u8g2\csrc/u8x8_byte.c ****   ARISING IN ANY WAY OUT OF THE USE OF THIS SOFTWARE, EVEN IF 
ARM GAS  C:\Users\brian\AppData\Local\Temp\cc2Kbm4j.s 			page 2


  32:..\u8g2\csrc/u8x8_byte.c ****   ADVISED OF THE POSSIBILITY OF SUCH DAMAGE.  
  33:..\u8g2\csrc/u8x8_byte.c ****   
  34:..\u8g2\csrc/u8x8_byte.c ****   
  35:..\u8g2\csrc/u8x8_byte.c **** */
  36:..\u8g2\csrc/u8x8_byte.c **** 
  37:..\u8g2\csrc/u8x8_byte.c **** #include "u8x8.h"
  38:..\u8g2\csrc/u8x8_byte.c **** 
  39:..\u8g2\csrc/u8x8_byte.c **** uint8_t u8x8_byte_SetDC(u8x8_t *u8x8, uint8_t dc)
  40:..\u8g2\csrc/u8x8_byte.c **** {
  41:..\u8g2\csrc/u8x8_byte.c ****   return u8x8->byte_cb(u8x8, U8X8_MSG_BYTE_SET_DC, dc, NULL);
  42:..\u8g2\csrc/u8x8_byte.c **** }
  43:..\u8g2\csrc/u8x8_byte.c **** 
  44:..\u8g2\csrc/u8x8_byte.c **** uint8_t u8x8_byte_SendBytes(u8x8_t *u8x8, uint8_t cnt, uint8_t *data)
  45:..\u8g2\csrc/u8x8_byte.c **** {
  46:..\u8g2\csrc/u8x8_byte.c ****   return u8x8->byte_cb(u8x8, U8X8_MSG_BYTE_SEND, cnt, (void *)data);
  47:..\u8g2\csrc/u8x8_byte.c **** }
  48:..\u8g2\csrc/u8x8_byte.c **** 
  49:..\u8g2\csrc/u8x8_byte.c **** uint8_t u8x8_byte_SendByte(u8x8_t *u8x8, uint8_t byte)
  50:..\u8g2\csrc/u8x8_byte.c **** {
  51:..\u8g2\csrc/u8x8_byte.c ****   return u8x8_byte_SendBytes(u8x8, 1, &byte);
  52:..\u8g2\csrc/u8x8_byte.c **** }
  53:..\u8g2\csrc/u8x8_byte.c **** 
  54:..\u8g2\csrc/u8x8_byte.c **** uint8_t u8x8_byte_StartTransfer(u8x8_t *u8x8)
  55:..\u8g2\csrc/u8x8_byte.c **** {
  56:..\u8g2\csrc/u8x8_byte.c ****   return u8x8->byte_cb(u8x8, U8X8_MSG_BYTE_START_TRANSFER, 0, NULL);
  57:..\u8g2\csrc/u8x8_byte.c **** }
  58:..\u8g2\csrc/u8x8_byte.c **** 
  59:..\u8g2\csrc/u8x8_byte.c **** uint8_t u8x8_byte_EndTransfer(u8x8_t *u8x8)
  60:..\u8g2\csrc/u8x8_byte.c **** {
  61:..\u8g2\csrc/u8x8_byte.c ****   return u8x8->byte_cb(u8x8, U8X8_MSG_BYTE_END_TRANSFER, 0, NULL);
  62:..\u8g2\csrc/u8x8_byte.c **** }
  63:..\u8g2\csrc/u8x8_byte.c **** 
  64:..\u8g2\csrc/u8x8_byte.c **** /*=========================================*/
  65:..\u8g2\csrc/u8x8_byte.c **** 
  66:..\u8g2\csrc/u8x8_byte.c **** uint8_t u8x8_byte_empty(U8X8_UNUSED u8x8_t *u8x8, uint8_t msg, U8X8_UNUSED uint8_t arg_int, U8X8_UN
  67:..\u8g2\csrc/u8x8_byte.c **** {
  68:..\u8g2\csrc/u8x8_byte.c ****   switch(msg)
  69:..\u8g2\csrc/u8x8_byte.c ****   {
  70:..\u8g2\csrc/u8x8_byte.c ****     case U8X8_MSG_BYTE_SEND:
  71:..\u8g2\csrc/u8x8_byte.c ****     case U8X8_MSG_BYTE_INIT:
  72:..\u8g2\csrc/u8x8_byte.c ****     case U8X8_MSG_BYTE_SET_DC:
  73:..\u8g2\csrc/u8x8_byte.c ****     case U8X8_MSG_BYTE_START_TRANSFER:
  74:..\u8g2\csrc/u8x8_byte.c ****     case U8X8_MSG_BYTE_END_TRANSFER:
  75:..\u8g2\csrc/u8x8_byte.c ****       break;	/* do nothing */
  76:..\u8g2\csrc/u8x8_byte.c ****   }
  77:..\u8g2\csrc/u8x8_byte.c ****   return 1;	/* always succeed */
  78:..\u8g2\csrc/u8x8_byte.c **** }
  79:..\u8g2\csrc/u8x8_byte.c **** 
  80:..\u8g2\csrc/u8x8_byte.c **** 
  81:..\u8g2\csrc/u8x8_byte.c **** /*=========================================*/
  82:..\u8g2\csrc/u8x8_byte.c **** 
  83:..\u8g2\csrc/u8x8_byte.c **** 
  84:..\u8g2\csrc/u8x8_byte.c **** /*
  85:..\u8g2\csrc/u8x8_byte.c ****   Uses:
  86:..\u8g2\csrc/u8x8_byte.c ****     u8x8->display_info->sda_setup_time_ns
  87:..\u8g2\csrc/u8x8_byte.c ****     u8x8->display_info->sck_pulse_width_ns
  88:..\u8g2\csrc/u8x8_byte.c ****     u8x8->display_info->spi_mode
ARM GAS  C:\Users\brian\AppData\Local\Temp\cc2Kbm4j.s 			page 3


  89:..\u8g2\csrc/u8x8_byte.c ****     u8x8->display_info->chip_disable_level
  90:..\u8g2\csrc/u8x8_byte.c ****     u8x8->display_info->chip_enable_level
  91:..\u8g2\csrc/u8x8_byte.c ****     u8x8->display_info->post_chip_enable_wait_ns
  92:..\u8g2\csrc/u8x8_byte.c ****     u8x8->display_info->pre_chip_disable_wait_ns
  93:..\u8g2\csrc/u8x8_byte.c ****   Calls to GPIO and DELAY:
  94:..\u8g2\csrc/u8x8_byte.c ****     U8X8_MSG_DELAY_NANO
  95:..\u8g2\csrc/u8x8_byte.c ****     U8X8_MSG_GPIO_DC
  96:..\u8g2\csrc/u8x8_byte.c ****     U8X8_MSG_GPIO_CS
  97:..\u8g2\csrc/u8x8_byte.c ****     U8X8_MSG_GPIO_CLOCK
  98:..\u8g2\csrc/u8x8_byte.c ****     U8X8_MSG_GPIO_DATA
  99:..\u8g2\csrc/u8x8_byte.c ****   Handles:
 100:..\u8g2\csrc/u8x8_byte.c ****     U8X8_MSG_BYTE_INIT
 101:..\u8g2\csrc/u8x8_byte.c ****     U8X8_MSG_BYTE_SEND
 102:..\u8g2\csrc/u8x8_byte.c ****     U8X8_MSG_BYTE_SET_DC
 103:..\u8g2\csrc/u8x8_byte.c ****     U8X8_MSG_BYTE_START_TRANSFER
 104:..\u8g2\csrc/u8x8_byte.c ****     U8X8_MSG_BYTE_END_TRANSFER
 105:..\u8g2\csrc/u8x8_byte.c **** */
 106:..\u8g2\csrc/u8x8_byte.c **** 
 107:..\u8g2\csrc/u8x8_byte.c **** uint8_t u8x8_byte_4wire_sw_spi(u8x8_t *u8x8, uint8_t msg, uint8_t arg_int, void *arg_ptr)
 108:..\u8g2\csrc/u8x8_byte.c **** {
 109:..\u8g2\csrc/u8x8_byte.c ****   uint8_t i, b;
 110:..\u8g2\csrc/u8x8_byte.c ****   uint8_t *data;
 111:..\u8g2\csrc/u8x8_byte.c ****   uint8_t takeover_edge = u8x8_GetSPIClockPhase(u8x8);
 112:..\u8g2\csrc/u8x8_byte.c ****   uint8_t not_takeover_edge = 1 - takeover_edge;
 113:..\u8g2\csrc/u8x8_byte.c ****  
 114:..\u8g2\csrc/u8x8_byte.c ****   switch(msg)
 115:..\u8g2\csrc/u8x8_byte.c ****   {
 116:..\u8g2\csrc/u8x8_byte.c ****     case U8X8_MSG_BYTE_SEND:
 117:..\u8g2\csrc/u8x8_byte.c ****       data = (uint8_t *)arg_ptr;
 118:..\u8g2\csrc/u8x8_byte.c ****       while( arg_int > 0 )
 119:..\u8g2\csrc/u8x8_byte.c ****       {
 120:..\u8g2\csrc/u8x8_byte.c **** 	b = *data;
 121:..\u8g2\csrc/u8x8_byte.c **** 	data++;
 122:..\u8g2\csrc/u8x8_byte.c **** 	arg_int--;
 123:..\u8g2\csrc/u8x8_byte.c **** 	for( i = 0; i < 8; i++ )
 124:..\u8g2\csrc/u8x8_byte.c **** 	{
 125:..\u8g2\csrc/u8x8_byte.c **** 	  if ( b & 128 )
 126:..\u8g2\csrc/u8x8_byte.c **** 	    u8x8_gpio_SetSPIData(u8x8, 1);
 127:..\u8g2\csrc/u8x8_byte.c **** 	  else
 128:..\u8g2\csrc/u8x8_byte.c **** 	    u8x8_gpio_SetSPIData(u8x8, 0);
 129:..\u8g2\csrc/u8x8_byte.c **** 	  b <<= 1;
 130:..\u8g2\csrc/u8x8_byte.c **** 	  
 131:..\u8g2\csrc/u8x8_byte.c **** 	  u8x8_gpio_SetSPIClock(u8x8, not_takeover_edge);
 132:..\u8g2\csrc/u8x8_byte.c **** 	  u8x8_gpio_Delay(u8x8, U8X8_MSG_DELAY_NANO, u8x8->display_info->sda_setup_time_ns);
 133:..\u8g2\csrc/u8x8_byte.c **** 	  u8x8_gpio_SetSPIClock(u8x8, takeover_edge);
 134:..\u8g2\csrc/u8x8_byte.c **** 	  u8x8_gpio_Delay(u8x8, U8X8_MSG_DELAY_NANO, u8x8->display_info->sck_pulse_width_ns);
 135:..\u8g2\csrc/u8x8_byte.c **** 	}    
 136:..\u8g2\csrc/u8x8_byte.c ****       }
 137:..\u8g2\csrc/u8x8_byte.c ****       break;
 138:..\u8g2\csrc/u8x8_byte.c ****       
 139:..\u8g2\csrc/u8x8_byte.c ****     case U8X8_MSG_BYTE_INIT:
 140:..\u8g2\csrc/u8x8_byte.c ****       /* disable chipselect */
 141:..\u8g2\csrc/u8x8_byte.c ****       u8x8_gpio_SetCS(u8x8, u8x8->display_info->chip_disable_level);
 142:..\u8g2\csrc/u8x8_byte.c ****       /* no wait required here */
 143:..\u8g2\csrc/u8x8_byte.c ****       
 144:..\u8g2\csrc/u8x8_byte.c ****       /* for SPI: setup correct level of the clock signal */
 145:..\u8g2\csrc/u8x8_byte.c ****       u8x8_gpio_SetSPIClock(u8x8, u8x8_GetSPIClockPhase(u8x8));
ARM GAS  C:\Users\brian\AppData\Local\Temp\cc2Kbm4j.s 			page 4


 146:..\u8g2\csrc/u8x8_byte.c ****       break;
 147:..\u8g2\csrc/u8x8_byte.c ****     case U8X8_MSG_BYTE_SET_DC:
 148:..\u8g2\csrc/u8x8_byte.c ****       u8x8_gpio_SetDC(u8x8, arg_int);
 149:..\u8g2\csrc/u8x8_byte.c ****       break;
 150:..\u8g2\csrc/u8x8_byte.c ****     case U8X8_MSG_BYTE_START_TRANSFER:
 151:..\u8g2\csrc/u8x8_byte.c ****       u8x8_gpio_SetCS(u8x8, u8x8->display_info->chip_enable_level);  
 152:..\u8g2\csrc/u8x8_byte.c ****       u8x8->gpio_and_delay_cb(u8x8, U8X8_MSG_DELAY_NANO, u8x8->display_info->post_chip_enable_wait_
 153:..\u8g2\csrc/u8x8_byte.c ****       break;
 154:..\u8g2\csrc/u8x8_byte.c ****     case U8X8_MSG_BYTE_END_TRANSFER:
 155:..\u8g2\csrc/u8x8_byte.c ****       u8x8->gpio_and_delay_cb(u8x8, U8X8_MSG_DELAY_NANO, u8x8->display_info->pre_chip_disable_wait_
 156:..\u8g2\csrc/u8x8_byte.c ****       u8x8_gpio_SetCS(u8x8, u8x8->display_info->chip_disable_level);
 157:..\u8g2\csrc/u8x8_byte.c ****       break;
 158:..\u8g2\csrc/u8x8_byte.c ****     default:
 159:..\u8g2\csrc/u8x8_byte.c ****       return 0;
 160:..\u8g2\csrc/u8x8_byte.c ****   }
 161:..\u8g2\csrc/u8x8_byte.c ****   return 1;
 162:..\u8g2\csrc/u8x8_byte.c **** }
 163:..\u8g2\csrc/u8x8_byte.c **** 
 164:..\u8g2\csrc/u8x8_byte.c **** /*=========================================*/
 165:..\u8g2\csrc/u8x8_byte.c **** 
 166:..\u8g2\csrc/u8x8_byte.c **** uint8_t u8x8_byte_8bit_6800mode(u8x8_t *u8x8, uint8_t msg, uint8_t arg_int, void *arg_ptr)
 167:..\u8g2\csrc/u8x8_byte.c **** {
 168:..\u8g2\csrc/u8x8_byte.c ****   uint8_t i, b;
 169:..\u8g2\csrc/u8x8_byte.c ****   uint8_t *data;
 170:..\u8g2\csrc/u8x8_byte.c ****  
 171:..\u8g2\csrc/u8x8_byte.c ****   switch(msg)
 172:..\u8g2\csrc/u8x8_byte.c ****   {
 173:..\u8g2\csrc/u8x8_byte.c ****     case U8X8_MSG_BYTE_SEND:
 174:..\u8g2\csrc/u8x8_byte.c ****       data = (uint8_t *)arg_ptr;
 175:..\u8g2\csrc/u8x8_byte.c ****       while( arg_int > 0 )
 176:..\u8g2\csrc/u8x8_byte.c ****       {
 177:..\u8g2\csrc/u8x8_byte.c **** 	b = *data;
 178:..\u8g2\csrc/u8x8_byte.c **** 	data++;
 179:..\u8g2\csrc/u8x8_byte.c **** 	arg_int--;
 180:..\u8g2\csrc/u8x8_byte.c **** 	for( i = U8X8_MSG_GPIO_D0; i <= U8X8_MSG_GPIO_D7; i++ )
 181:..\u8g2\csrc/u8x8_byte.c **** 	{
 182:..\u8g2\csrc/u8x8_byte.c **** 	  u8x8_gpio_call(u8x8, i, b&1);
 183:..\u8g2\csrc/u8x8_byte.c **** 	  b >>= 1;
 184:..\u8g2\csrc/u8x8_byte.c **** 	}    
 185:..\u8g2\csrc/u8x8_byte.c **** 	
 186:..\u8g2\csrc/u8x8_byte.c **** 	u8x8_gpio_Delay(u8x8, U8X8_MSG_DELAY_NANO, u8x8->display_info->data_setup_time_ns);
 187:..\u8g2\csrc/u8x8_byte.c **** 	u8x8_gpio_call(u8x8, U8X8_MSG_GPIO_E, 1);
 188:..\u8g2\csrc/u8x8_byte.c **** 	u8x8_gpio_Delay(u8x8, U8X8_MSG_DELAY_NANO, u8x8->display_info->write_pulse_width_ns);
 189:..\u8g2\csrc/u8x8_byte.c **** 	u8x8_gpio_call(u8x8, U8X8_MSG_GPIO_E, 0);
 190:..\u8g2\csrc/u8x8_byte.c ****       }
 191:..\u8g2\csrc/u8x8_byte.c ****       break;
 192:..\u8g2\csrc/u8x8_byte.c ****       
 193:..\u8g2\csrc/u8x8_byte.c ****     case U8X8_MSG_BYTE_INIT:
 194:..\u8g2\csrc/u8x8_byte.c ****       /* disable chipselect */
 195:..\u8g2\csrc/u8x8_byte.c ****       u8x8_gpio_SetCS(u8x8, u8x8->display_info->chip_disable_level);    
 196:..\u8g2\csrc/u8x8_byte.c ****       /* ensure that the enable signal is high */
 197:..\u8g2\csrc/u8x8_byte.c ****       u8x8_gpio_call(u8x8, U8X8_MSG_GPIO_E, 0);
 198:..\u8g2\csrc/u8x8_byte.c ****       break;
 199:..\u8g2\csrc/u8x8_byte.c ****     case U8X8_MSG_BYTE_SET_DC:
 200:..\u8g2\csrc/u8x8_byte.c ****       u8x8_gpio_SetDC(u8x8, arg_int);
 201:..\u8g2\csrc/u8x8_byte.c ****       break;
 202:..\u8g2\csrc/u8x8_byte.c ****     case U8X8_MSG_BYTE_START_TRANSFER:
ARM GAS  C:\Users\brian\AppData\Local\Temp\cc2Kbm4j.s 			page 5


 203:..\u8g2\csrc/u8x8_byte.c ****       u8x8_gpio_SetCS(u8x8, u8x8->display_info->chip_enable_level);  
 204:..\u8g2\csrc/u8x8_byte.c ****       u8x8->gpio_and_delay_cb(u8x8, U8X8_MSG_DELAY_NANO, u8x8->display_info->post_chip_enable_wait_
 205:..\u8g2\csrc/u8x8_byte.c ****       break;
 206:..\u8g2\csrc/u8x8_byte.c ****     case U8X8_MSG_BYTE_END_TRANSFER:
 207:..\u8g2\csrc/u8x8_byte.c ****       u8x8->gpio_and_delay_cb(u8x8, U8X8_MSG_DELAY_NANO, u8x8->display_info->pre_chip_disable_wait_
 208:..\u8g2\csrc/u8x8_byte.c ****       u8x8_gpio_SetCS(u8x8, u8x8->display_info->chip_disable_level);
 209:..\u8g2\csrc/u8x8_byte.c ****       break;
 210:..\u8g2\csrc/u8x8_byte.c ****     default:
 211:..\u8g2\csrc/u8x8_byte.c ****       return 0;
 212:..\u8g2\csrc/u8x8_byte.c ****   }
 213:..\u8g2\csrc/u8x8_byte.c ****   return 1;
 214:..\u8g2\csrc/u8x8_byte.c **** }
 215:..\u8g2\csrc/u8x8_byte.c **** 
 216:..\u8g2\csrc/u8x8_byte.c **** uint8_t u8x8_byte_8bit_8080mode(u8x8_t *u8x8, uint8_t msg, uint8_t arg_int, void *arg_ptr)
 217:..\u8g2\csrc/u8x8_byte.c **** {
 218:..\u8g2\csrc/u8x8_byte.c ****   uint8_t i, b;
 219:..\u8g2\csrc/u8x8_byte.c ****   uint8_t *data;
 220:..\u8g2\csrc/u8x8_byte.c ****  
 221:..\u8g2\csrc/u8x8_byte.c ****   switch(msg)
 222:..\u8g2\csrc/u8x8_byte.c ****   {
 223:..\u8g2\csrc/u8x8_byte.c ****     case U8X8_MSG_BYTE_SEND:
 224:..\u8g2\csrc/u8x8_byte.c ****       data = (uint8_t *)arg_ptr;
 225:..\u8g2\csrc/u8x8_byte.c ****       while( arg_int > 0 )
 226:..\u8g2\csrc/u8x8_byte.c ****       {
 227:..\u8g2\csrc/u8x8_byte.c **** 	b = *data;
 228:..\u8g2\csrc/u8x8_byte.c **** 	data++;
 229:..\u8g2\csrc/u8x8_byte.c **** 	arg_int--;
 230:..\u8g2\csrc/u8x8_byte.c **** 	for( i = U8X8_MSG_GPIO_D0; i <= U8X8_MSG_GPIO_D7; i++ )
 231:..\u8g2\csrc/u8x8_byte.c **** 	{
 232:..\u8g2\csrc/u8x8_byte.c **** 	  u8x8_gpio_call(u8x8, i, b&1);
 233:..\u8g2\csrc/u8x8_byte.c **** 	  b >>= 1;
 234:..\u8g2\csrc/u8x8_byte.c **** 	}    
 235:..\u8g2\csrc/u8x8_byte.c **** 	
 236:..\u8g2\csrc/u8x8_byte.c **** 	u8x8_gpio_Delay(u8x8, U8X8_MSG_DELAY_NANO, u8x8->display_info->data_setup_time_ns);
 237:..\u8g2\csrc/u8x8_byte.c **** 	u8x8_gpio_call(u8x8, U8X8_MSG_GPIO_E, 0);
 238:..\u8g2\csrc/u8x8_byte.c **** 	u8x8_gpio_Delay(u8x8, U8X8_MSG_DELAY_NANO, u8x8->display_info->write_pulse_width_ns);
 239:..\u8g2\csrc/u8x8_byte.c **** 	u8x8_gpio_call(u8x8, U8X8_MSG_GPIO_E, 1);
 240:..\u8g2\csrc/u8x8_byte.c ****       }
 241:..\u8g2\csrc/u8x8_byte.c ****       break;
 242:..\u8g2\csrc/u8x8_byte.c ****       
 243:..\u8g2\csrc/u8x8_byte.c ****     case U8X8_MSG_BYTE_INIT:
 244:..\u8g2\csrc/u8x8_byte.c ****       /* disable chipselect */
 245:..\u8g2\csrc/u8x8_byte.c ****       u8x8_gpio_SetCS(u8x8, u8x8->display_info->chip_disable_level);    
 246:..\u8g2\csrc/u8x8_byte.c ****       /* ensure that the enable signal is high */
 247:..\u8g2\csrc/u8x8_byte.c ****       u8x8_gpio_call(u8x8, U8X8_MSG_GPIO_E, 1);
 248:..\u8g2\csrc/u8x8_byte.c ****       break;
 249:..\u8g2\csrc/u8x8_byte.c ****     case U8X8_MSG_BYTE_SET_DC:
 250:..\u8g2\csrc/u8x8_byte.c ****       u8x8_gpio_SetDC(u8x8, arg_int);
 251:..\u8g2\csrc/u8x8_byte.c ****       break;
 252:..\u8g2\csrc/u8x8_byte.c ****     case U8X8_MSG_BYTE_START_TRANSFER:
 253:..\u8g2\csrc/u8x8_byte.c ****       u8x8_gpio_SetCS(u8x8, u8x8->display_info->chip_enable_level);  
 254:..\u8g2\csrc/u8x8_byte.c ****       u8x8->gpio_and_delay_cb(u8x8, U8X8_MSG_DELAY_NANO, u8x8->display_info->post_chip_enable_wait_
 255:..\u8g2\csrc/u8x8_byte.c ****       break;
 256:..\u8g2\csrc/u8x8_byte.c ****     case U8X8_MSG_BYTE_END_TRANSFER:
 257:..\u8g2\csrc/u8x8_byte.c ****       u8x8->gpio_and_delay_cb(u8x8, U8X8_MSG_DELAY_NANO, u8x8->display_info->pre_chip_disable_wait_
 258:..\u8g2\csrc/u8x8_byte.c ****       u8x8_gpio_SetCS(u8x8, u8x8->display_info->chip_disable_level);
 259:..\u8g2\csrc/u8x8_byte.c ****       break;
ARM GAS  C:\Users\brian\AppData\Local\Temp\cc2Kbm4j.s 			page 6


 260:..\u8g2\csrc/u8x8_byte.c ****     default:
 261:..\u8g2\csrc/u8x8_byte.c ****       return 0;
 262:..\u8g2\csrc/u8x8_byte.c ****   }
 263:..\u8g2\csrc/u8x8_byte.c ****   return 1;
 264:..\u8g2\csrc/u8x8_byte.c **** }
 265:..\u8g2\csrc/u8x8_byte.c **** 
 266:..\u8g2\csrc/u8x8_byte.c **** /*=========================================*/
 267:..\u8g2\csrc/u8x8_byte.c **** 
 268:..\u8g2\csrc/u8x8_byte.c **** uint8_t u8x8_byte_3wire_sw_spi(u8x8_t *u8x8, uint8_t msg, uint8_t arg_int, void *arg_ptr)
 269:..\u8g2\csrc/u8x8_byte.c **** {
 270:..\u8g2\csrc/u8x8_byte.c ****   uint8_t i;
 271:..\u8g2\csrc/u8x8_byte.c ****   uint8_t *data;
 272:..\u8g2\csrc/u8x8_byte.c ****   uint8_t takeover_edge = u8x8_GetSPIClockPhase(u8x8);
 273:..\u8g2\csrc/u8x8_byte.c ****   uint8_t not_takeover_edge = 1 - takeover_edge;
 274:..\u8g2\csrc/u8x8_byte.c ****   uint16_t b;
 275:..\u8g2\csrc/u8x8_byte.c ****   static uint8_t last_dc;
 276:..\u8g2\csrc/u8x8_byte.c ****  
 277:..\u8g2\csrc/u8x8_byte.c ****   switch(msg)
 278:..\u8g2\csrc/u8x8_byte.c ****   {
 279:..\u8g2\csrc/u8x8_byte.c ****     case U8X8_MSG_BYTE_SEND:
 280:..\u8g2\csrc/u8x8_byte.c ****       data = (uint8_t *)arg_ptr;
 281:..\u8g2\csrc/u8x8_byte.c ****       while( arg_int > 0 )
 282:..\u8g2\csrc/u8x8_byte.c ****       {
 283:..\u8g2\csrc/u8x8_byte.c **** 	b = *data;
 284:..\u8g2\csrc/u8x8_byte.c **** 	if ( last_dc != 0 )
 285:..\u8g2\csrc/u8x8_byte.c **** 	  b |= 256;
 286:..\u8g2\csrc/u8x8_byte.c **** 	data++;
 287:..\u8g2\csrc/u8x8_byte.c **** 	arg_int--;
 288:..\u8g2\csrc/u8x8_byte.c **** 	for( i = 0; i < 9; i++ )
 289:..\u8g2\csrc/u8x8_byte.c **** 	{
 290:..\u8g2\csrc/u8x8_byte.c **** 	  if ( b & 256 )
 291:..\u8g2\csrc/u8x8_byte.c **** 	    u8x8_gpio_SetSPIData(u8x8, 1);
 292:..\u8g2\csrc/u8x8_byte.c **** 	  else
 293:..\u8g2\csrc/u8x8_byte.c **** 	    u8x8_gpio_SetSPIData(u8x8, 0);
 294:..\u8g2\csrc/u8x8_byte.c **** 	  b <<= 1;
 295:..\u8g2\csrc/u8x8_byte.c **** 	  
 296:..\u8g2\csrc/u8x8_byte.c **** 	  u8x8_gpio_SetSPIClock(u8x8, not_takeover_edge);
 297:..\u8g2\csrc/u8x8_byte.c **** 	  u8x8_gpio_Delay(u8x8, U8X8_MSG_DELAY_NANO, u8x8->display_info->sda_setup_time_ns);
 298:..\u8g2\csrc/u8x8_byte.c **** 	  u8x8_gpio_SetSPIClock(u8x8, takeover_edge);
 299:..\u8g2\csrc/u8x8_byte.c **** 	  u8x8_gpio_Delay(u8x8, U8X8_MSG_DELAY_NANO, u8x8->display_info->sck_pulse_width_ns);
 300:..\u8g2\csrc/u8x8_byte.c **** 	}    
 301:..\u8g2\csrc/u8x8_byte.c ****       }
 302:..\u8g2\csrc/u8x8_byte.c ****       break;
 303:..\u8g2\csrc/u8x8_byte.c ****       
 304:..\u8g2\csrc/u8x8_byte.c ****     case U8X8_MSG_BYTE_INIT:
 305:..\u8g2\csrc/u8x8_byte.c ****       /* disable chipselect */
 306:..\u8g2\csrc/u8x8_byte.c ****       u8x8_gpio_SetCS(u8x8, u8x8->display_info->chip_disable_level);
 307:..\u8g2\csrc/u8x8_byte.c ****       /* no wait required here */
 308:..\u8g2\csrc/u8x8_byte.c ****       
 309:..\u8g2\csrc/u8x8_byte.c ****       /* for SPI: setup correct level of the clock signal */
 310:..\u8g2\csrc/u8x8_byte.c ****       u8x8_gpio_SetSPIClock(u8x8, u8x8_GetSPIClockPhase(u8x8));
 311:..\u8g2\csrc/u8x8_byte.c ****       break;
 312:..\u8g2\csrc/u8x8_byte.c ****     case U8X8_MSG_BYTE_SET_DC:
 313:..\u8g2\csrc/u8x8_byte.c ****       last_dc = arg_int;
 314:..\u8g2\csrc/u8x8_byte.c ****       break;
 315:..\u8g2\csrc/u8x8_byte.c ****     case U8X8_MSG_BYTE_START_TRANSFER:
 316:..\u8g2\csrc/u8x8_byte.c ****       u8x8_gpio_SetCS(u8x8, u8x8->display_info->chip_enable_level);  
ARM GAS  C:\Users\brian\AppData\Local\Temp\cc2Kbm4j.s 			page 7


 317:..\u8g2\csrc/u8x8_byte.c ****       u8x8->gpio_and_delay_cb(u8x8, U8X8_MSG_DELAY_NANO, u8x8->display_info->post_chip_enable_wait_
 318:..\u8g2\csrc/u8x8_byte.c ****       break;
 319:..\u8g2\csrc/u8x8_byte.c ****     case U8X8_MSG_BYTE_END_TRANSFER:
 320:..\u8g2\csrc/u8x8_byte.c ****       u8x8->gpio_and_delay_cb(u8x8, U8X8_MSG_DELAY_NANO, u8x8->display_info->pre_chip_disable_wait_
 321:..\u8g2\csrc/u8x8_byte.c ****       u8x8_gpio_SetCS(u8x8, u8x8->display_info->chip_disable_level);
 322:..\u8g2\csrc/u8x8_byte.c ****       break;
 323:..\u8g2\csrc/u8x8_byte.c ****     default:
 324:..\u8g2\csrc/u8x8_byte.c ****       return 0;
 325:..\u8g2\csrc/u8x8_byte.c ****   }
 326:..\u8g2\csrc/u8x8_byte.c ****   return 1;
 327:..\u8g2\csrc/u8x8_byte.c **** }
 328:..\u8g2\csrc/u8x8_byte.c **** 
 329:..\u8g2\csrc/u8x8_byte.c **** /*=========================================*/
 330:..\u8g2\csrc/u8x8_byte.c **** 
 331:..\u8g2\csrc/u8x8_byte.c **** void u8x8_byte_set_ks0108_cs(u8x8_t *u8x8, uint8_t arg)
 332:..\u8g2\csrc/u8x8_byte.c **** {
 333:..\u8g2\csrc/u8x8_byte.c ****   u8x8_gpio_SetCS(u8x8, arg&1);
 334:..\u8g2\csrc/u8x8_byte.c ****   arg = arg >> 1;
 335:..\u8g2\csrc/u8x8_byte.c ****   u8x8_gpio_call(u8x8, U8X8_MSG_GPIO_CS1, arg&1);
 336:..\u8g2\csrc/u8x8_byte.c ****   arg = arg >> 1;
 337:..\u8g2\csrc/u8x8_byte.c ****   u8x8_gpio_call(u8x8, U8X8_MSG_GPIO_CS2, arg&1);
 338:..\u8g2\csrc/u8x8_byte.c **** }
 339:..\u8g2\csrc/u8x8_byte.c **** 
 340:..\u8g2\csrc/u8x8_byte.c **** /* 6800 mode */
 341:..\u8g2\csrc/u8x8_byte.c **** uint8_t u8x8_byte_ks0108(u8x8_t *u8x8, uint8_t msg, uint8_t arg_int, void *arg_ptr)
 342:..\u8g2\csrc/u8x8_byte.c **** {
 343:..\u8g2\csrc/u8x8_byte.c ****   uint8_t i, b;
 344:..\u8g2\csrc/u8x8_byte.c ****   uint8_t *data;
 345:..\u8g2\csrc/u8x8_byte.c ****  
 346:..\u8g2\csrc/u8x8_byte.c ****   switch(msg)
 347:..\u8g2\csrc/u8x8_byte.c ****   {
 348:..\u8g2\csrc/u8x8_byte.c ****     case U8X8_MSG_BYTE_SEND:
 349:..\u8g2\csrc/u8x8_byte.c ****       data = (uint8_t *)arg_ptr;
 350:..\u8g2\csrc/u8x8_byte.c ****       while( arg_int > 0 )
 351:..\u8g2\csrc/u8x8_byte.c ****       {
 352:..\u8g2\csrc/u8x8_byte.c **** 	b = *data;
 353:..\u8g2\csrc/u8x8_byte.c **** 	data++;
 354:..\u8g2\csrc/u8x8_byte.c **** 	arg_int--;
 355:..\u8g2\csrc/u8x8_byte.c **** 	for( i = U8X8_MSG_GPIO_D0; i <= U8X8_MSG_GPIO_D7; i++ )
 356:..\u8g2\csrc/u8x8_byte.c **** 	{
 357:..\u8g2\csrc/u8x8_byte.c **** 	  u8x8_gpio_call(u8x8, i, b&1);
 358:..\u8g2\csrc/u8x8_byte.c **** 	  b >>= 1;
 359:..\u8g2\csrc/u8x8_byte.c **** 	}    
 360:..\u8g2\csrc/u8x8_byte.c **** 	
 361:..\u8g2\csrc/u8x8_byte.c **** 	u8x8_gpio_Delay(u8x8, U8X8_MSG_DELAY_NANO, u8x8->display_info->data_setup_time_ns);
 362:..\u8g2\csrc/u8x8_byte.c **** 	u8x8_gpio_call(u8x8, U8X8_MSG_GPIO_E, 1);
 363:..\u8g2\csrc/u8x8_byte.c **** 	u8x8_gpio_Delay(u8x8, U8X8_MSG_DELAY_NANO, u8x8->display_info->write_pulse_width_ns);
 364:..\u8g2\csrc/u8x8_byte.c **** 	u8x8_gpio_call(u8x8, U8X8_MSG_GPIO_E, 0);
 365:..\u8g2\csrc/u8x8_byte.c ****       }
 366:..\u8g2\csrc/u8x8_byte.c ****       break;
 367:..\u8g2\csrc/u8x8_byte.c ****       
 368:..\u8g2\csrc/u8x8_byte.c ****     case U8X8_MSG_BYTE_INIT:
 369:..\u8g2\csrc/u8x8_byte.c ****       /* disable chipselect */
 370:..\u8g2\csrc/u8x8_byte.c ****       u8x8_gpio_SetCS(u8x8, u8x8->display_info->chip_disable_level);    
 371:..\u8g2\csrc/u8x8_byte.c ****       /* ensure that the enable signal is low */
 372:..\u8g2\csrc/u8x8_byte.c ****       u8x8_gpio_call(u8x8, U8X8_MSG_GPIO_E, 0);
 373:..\u8g2\csrc/u8x8_byte.c ****       break;
ARM GAS  C:\Users\brian\AppData\Local\Temp\cc2Kbm4j.s 			page 8


 374:..\u8g2\csrc/u8x8_byte.c ****     case U8X8_MSG_BYTE_SET_DC:
 375:..\u8g2\csrc/u8x8_byte.c ****       u8x8_gpio_SetDC(u8x8, arg_int);
 376:..\u8g2\csrc/u8x8_byte.c ****       break;
 377:..\u8g2\csrc/u8x8_byte.c ****     case U8X8_MSG_BYTE_START_TRANSFER:
 378:..\u8g2\csrc/u8x8_byte.c ****       /* expects 3 bits in arg_int for the chip select lines */ 
 379:..\u8g2\csrc/u8x8_byte.c ****       u8x8_byte_set_ks0108_cs(u8x8, arg_int);
 380:..\u8g2\csrc/u8x8_byte.c ****       u8x8->gpio_and_delay_cb(u8x8, U8X8_MSG_DELAY_NANO, u8x8->display_info->post_chip_enable_wait_
 381:..\u8g2\csrc/u8x8_byte.c ****       break;
 382:..\u8g2\csrc/u8x8_byte.c ****     case U8X8_MSG_BYTE_END_TRANSFER:
 383:..\u8g2\csrc/u8x8_byte.c ****       u8x8->gpio_and_delay_cb(u8x8, U8X8_MSG_DELAY_NANO, u8x8->display_info->pre_chip_disable_wait_
 384:..\u8g2\csrc/u8x8_byte.c ****       u8x8_byte_set_ks0108_cs(u8x8, arg_int);
 385:..\u8g2\csrc/u8x8_byte.c ****       break;
 386:..\u8g2\csrc/u8x8_byte.c ****     default:
 387:..\u8g2\csrc/u8x8_byte.c ****       return 0;
 388:..\u8g2\csrc/u8x8_byte.c ****   }
 389:..\u8g2\csrc/u8x8_byte.c ****   return 1;
 390:..\u8g2\csrc/u8x8_byte.c **** }
 391:..\u8g2\csrc/u8x8_byte.c **** 
 392:..\u8g2\csrc/u8x8_byte.c **** 
 393:..\u8g2\csrc/u8x8_byte.c **** /* sed1520 or sbn1661 
 394:..\u8g2\csrc/u8x8_byte.c ****   U8X8_MSG_GPIO_E --> E1
 395:..\u8g2\csrc/u8x8_byte.c ****   U8X8_MSG_GPIO_CS --> E2
 396:..\u8g2\csrc/u8x8_byte.c **** */
 397:..\u8g2\csrc/u8x8_byte.c **** uint8_t u8x8_byte_sed1520(u8x8_t *u8x8, uint8_t msg, uint8_t arg_int, void *arg_ptr)
 398:..\u8g2\csrc/u8x8_byte.c **** {
 399:..\u8g2\csrc/u8x8_byte.c ****   uint8_t i, b;
 400:..\u8g2\csrc/u8x8_byte.c ****   uint8_t *data;
 401:..\u8g2\csrc/u8x8_byte.c ****   static uint8_t enable_pin;
 402:..\u8g2\csrc/u8x8_byte.c ****  
 403:..\u8g2\csrc/u8x8_byte.c ****   switch(msg)
 404:..\u8g2\csrc/u8x8_byte.c ****   {
 405:..\u8g2\csrc/u8x8_byte.c ****     case U8X8_MSG_BYTE_SEND:
 406:..\u8g2\csrc/u8x8_byte.c ****       data = (uint8_t *)arg_ptr;
 407:..\u8g2\csrc/u8x8_byte.c ****       while( arg_int > 0 )
 408:..\u8g2\csrc/u8x8_byte.c ****       {
 409:..\u8g2\csrc/u8x8_byte.c **** 	b = *data;
 410:..\u8g2\csrc/u8x8_byte.c **** 	data++;
 411:..\u8g2\csrc/u8x8_byte.c **** 	arg_int--;
 412:..\u8g2\csrc/u8x8_byte.c **** 	for( i = U8X8_MSG_GPIO_D0; i <= U8X8_MSG_GPIO_D7; i++ )
 413:..\u8g2\csrc/u8x8_byte.c **** 	{
 414:..\u8g2\csrc/u8x8_byte.c **** 	  u8x8_gpio_call(u8x8, i, b&1);
 415:..\u8g2\csrc/u8x8_byte.c **** 	  b >>= 1;
 416:..\u8g2\csrc/u8x8_byte.c **** 	}    
 417:..\u8g2\csrc/u8x8_byte.c **** 	
 418:..\u8g2\csrc/u8x8_byte.c **** 	u8x8_gpio_Delay(u8x8, U8X8_MSG_DELAY_NANO, u8x8->display_info->data_setup_time_ns);
 419:..\u8g2\csrc/u8x8_byte.c **** 	u8x8_gpio_call(u8x8, enable_pin, 1);
 420:..\u8g2\csrc/u8x8_byte.c **** 	u8x8_gpio_Delay(u8x8, U8X8_MSG_DELAY_NANO, 200);		/* KS0108 requires 450 ns, use 200 here */
 421:..\u8g2\csrc/u8x8_byte.c **** 	u8x8_gpio_Delay(u8x8, U8X8_MSG_DELAY_NANO, u8x8->display_info->write_pulse_width_ns);  /* expect 2
 422:..\u8g2\csrc/u8x8_byte.c **** 	u8x8_gpio_call(u8x8, enable_pin, 0);
 423:..\u8g2\csrc/u8x8_byte.c ****       }
 424:..\u8g2\csrc/u8x8_byte.c ****       break;
 425:..\u8g2\csrc/u8x8_byte.c ****       
 426:..\u8g2\csrc/u8x8_byte.c ****     case U8X8_MSG_BYTE_INIT:
 427:..\u8g2\csrc/u8x8_byte.c ****       /* disable chipselect */
 428:..\u8g2\csrc/u8x8_byte.c ****       u8x8_gpio_SetCS(u8x8, u8x8->display_info->chip_disable_level);    
 429:..\u8g2\csrc/u8x8_byte.c ****       /* ensure that the enable signals are low */
 430:..\u8g2\csrc/u8x8_byte.c ****       u8x8_gpio_call(u8x8, U8X8_MSG_GPIO_E, 0);
ARM GAS  C:\Users\brian\AppData\Local\Temp\cc2Kbm4j.s 			page 9


 431:..\u8g2\csrc/u8x8_byte.c ****       u8x8_gpio_call(u8x8, U8X8_MSG_GPIO_CS, 0);
 432:..\u8g2\csrc/u8x8_byte.c ****       enable_pin = U8X8_MSG_GPIO_E;
 433:..\u8g2\csrc/u8x8_byte.c ****       break;
 434:..\u8g2\csrc/u8x8_byte.c ****     case U8X8_MSG_BYTE_SET_DC:
 435:..\u8g2\csrc/u8x8_byte.c ****       u8x8_gpio_SetDC(u8x8, arg_int);
 436:..\u8g2\csrc/u8x8_byte.c ****       break;
 437:..\u8g2\csrc/u8x8_byte.c ****     case U8X8_MSG_BYTE_START_TRANSFER:
 438:..\u8g2\csrc/u8x8_byte.c ****       /* cs lines are not supported for the SED1520/SBN1661 */
 439:..\u8g2\csrc/u8x8_byte.c ****       /* instead, this will select the E1 or E2 line */ 
 440:..\u8g2\csrc/u8x8_byte.c ****       enable_pin = U8X8_MSG_GPIO_E;
 441:..\u8g2\csrc/u8x8_byte.c ****       if ( arg_int != 0 )
 442:..\u8g2\csrc/u8x8_byte.c **** 	enable_pin = U8X8_MSG_GPIO_CS;
 443:..\u8g2\csrc/u8x8_byte.c ****       break;
 444:..\u8g2\csrc/u8x8_byte.c ****     case U8X8_MSG_BYTE_END_TRANSFER:
 445:..\u8g2\csrc/u8x8_byte.c ****       break;
 446:..\u8g2\csrc/u8x8_byte.c ****     default:
 447:..\u8g2\csrc/u8x8_byte.c ****       return 0;
 448:..\u8g2\csrc/u8x8_byte.c ****   }
 449:..\u8g2\csrc/u8x8_byte.c ****   return 1;
 450:..\u8g2\csrc/u8x8_byte.c **** }
 451:..\u8g2\csrc/u8x8_byte.c **** 
 452:..\u8g2\csrc/u8x8_byte.c **** /*=========================================*/
 453:..\u8g2\csrc/u8x8_byte.c **** 
 454:..\u8g2\csrc/u8x8_byte.c **** 
 455:..\u8g2\csrc/u8x8_byte.c **** /*
 456:..\u8g2\csrc/u8x8_byte.c ****   software i2c,
 457:..\u8g2\csrc/u8x8_byte.c ****   ignores ACK response (which is anyway not provided by some displays)
 458:..\u8g2\csrc/u8x8_byte.c ****   also does not allow reading from the device
 459:..\u8g2\csrc/u8x8_byte.c **** */
 460:..\u8g2\csrc/u8x8_byte.c **** static void i2c_delay(u8x8_t *u8x8) U8X8_NOINLINE;
 461:..\u8g2\csrc/u8x8_byte.c **** static void i2c_delay(u8x8_t *u8x8)
 462:..\u8g2\csrc/u8x8_byte.c **** {
  27              		.loc 1 462 0
  28              		.cfi_startproc
  29              		@ args = 0, pretend = 0, frame = 0
  30              		@ frame_needed = 0, uses_anonymous_args = 0
  31              	.LVL0:
  32 0000 08B5     		push	{r3, lr}
  33              		.cfi_def_cfa_offset 8
  34              		.cfi_offset 3, -8
  35              		.cfi_offset 14, -4
 463:..\u8g2\csrc/u8x8_byte.c ****   //u8x8_gpio_Delay(u8x8, U8X8_MSG_DELAY_10MICRO, u8x8->display_info->i2c_bus_clock_100kHz);
 464:..\u8g2\csrc/u8x8_byte.c ****   u8x8_gpio_Delay(u8x8, U8X8_MSG_DELAY_I2C, u8x8->display_info->i2c_bus_clock_100kHz);
  36              		.loc 1 464 0
  37 0002 0368     		ldr	r3, [r0]
  38 0004 5A7B     		ldrb	r2, [r3, #13]	@ zero_extendqisi2
  39 0006 2D21     		movs	r1, #45
  40 0008 FFF7FEFF 		bl	u8x8_gpio_call
  41              	.LVL1:
  42 000c 08BD     		pop	{r3, pc}
  43              		.cfi_endproc
  44              	.LFE13:
  45              		.size	i2c_delay, .-i2c_delay
  46 000e 00BF     		.section	.text.i2c_init,"ax",%progbits
  47              		.align	2
  48              		.thumb
  49              		.thumb_func
ARM GAS  C:\Users\brian\AppData\Local\Temp\cc2Kbm4j.s 			page 10


  50              		.type	i2c_init, %function
  51              	i2c_init:
  52              	.LFB14:
 465:..\u8g2\csrc/u8x8_byte.c **** }
 466:..\u8g2\csrc/u8x8_byte.c **** 
 467:..\u8g2\csrc/u8x8_byte.c **** static void i2c_init(u8x8_t *u8x8)
 468:..\u8g2\csrc/u8x8_byte.c **** {
  53              		.loc 1 468 0
  54              		.cfi_startproc
  55              		@ args = 0, pretend = 0, frame = 0
  56              		@ frame_needed = 0, uses_anonymous_args = 0
  57              	.LVL2:
  58 0000 10B5     		push	{r4, lr}
  59              		.cfi_def_cfa_offset 8
  60              		.cfi_offset 4, -8
  61              		.cfi_offset 14, -4
  62 0002 0446     		mov	r4, r0
 469:..\u8g2\csrc/u8x8_byte.c ****   u8x8_gpio_SetI2CClock(u8x8, 1);
  63              		.loc 1 469 0
  64 0004 0122     		movs	r2, #1
  65 0006 4C21     		movs	r1, #76
  66 0008 FFF7FEFF 		bl	u8x8_gpio_call
  67              	.LVL3:
 470:..\u8g2\csrc/u8x8_byte.c ****   u8x8_gpio_SetI2CData(u8x8, 1);
  68              		.loc 1 470 0
  69 000c 0122     		movs	r2, #1
  70 000e 4D21     		movs	r1, #77
  71 0010 2046     		mov	r0, r4
  72 0012 FFF7FEFF 		bl	u8x8_gpio_call
  73              	.LVL4:
 471:..\u8g2\csrc/u8x8_byte.c ****   
 472:..\u8g2\csrc/u8x8_byte.c ****   i2c_delay(u8x8);
  74              		.loc 1 472 0
  75 0016 2046     		mov	r0, r4
  76 0018 FFF7FEFF 		bl	i2c_delay
  77              	.LVL5:
  78 001c 10BD     		pop	{r4, pc}
  79              		.cfi_endproc
  80              	.LFE14:
  81              		.size	i2c_init, .-i2c_init
  82 001e 00BF     		.section	.text.i2c_read_scl_and_delay,"ax",%progbits
  83              		.align	2
  84              		.thumb
  85              		.thumb_func
  86              		.type	i2c_read_scl_and_delay, %function
  87              	i2c_read_scl_and_delay:
  88              	.LFB15:
 473:..\u8g2\csrc/u8x8_byte.c **** }
 474:..\u8g2\csrc/u8x8_byte.c **** 
 475:..\u8g2\csrc/u8x8_byte.c **** /* actually, the scl line is not observed, so this procedure does not return a value */
 476:..\u8g2\csrc/u8x8_byte.c **** 
 477:..\u8g2\csrc/u8x8_byte.c **** static void i2c_read_scl_and_delay(u8x8_t *u8x8)
 478:..\u8g2\csrc/u8x8_byte.c **** {
  89              		.loc 1 478 0
  90              		.cfi_startproc
  91              		@ args = 0, pretend = 0, frame = 0
  92              		@ frame_needed = 0, uses_anonymous_args = 0
ARM GAS  C:\Users\brian\AppData\Local\Temp\cc2Kbm4j.s 			page 11


  93              	.LVL6:
  94 0000 10B5     		push	{r4, lr}
  95              		.cfi_def_cfa_offset 8
  96              		.cfi_offset 4, -8
  97              		.cfi_offset 14, -4
  98 0002 0446     		mov	r4, r0
 479:..\u8g2\csrc/u8x8_byte.c ****   /* set as input (line will be high) */
 480:..\u8g2\csrc/u8x8_byte.c ****   u8x8_gpio_SetI2CClock(u8x8, 1);
  99              		.loc 1 480 0
 100 0004 0122     		movs	r2, #1
 101 0006 4C21     		movs	r1, #76
 102 0008 FFF7FEFF 		bl	u8x8_gpio_call
 103              	.LVL7:
 481:..\u8g2\csrc/u8x8_byte.c **** 
 482:..\u8g2\csrc/u8x8_byte.c ****   i2c_delay(u8x8);
 104              		.loc 1 482 0
 105 000c 2046     		mov	r0, r4
 106 000e FFF7FEFF 		bl	i2c_delay
 107              	.LVL8:
 108 0012 10BD     		pop	{r4, pc}
 109              		.cfi_endproc
 110              	.LFE15:
 111              		.size	i2c_read_scl_and_delay, .-i2c_read_scl_and_delay
 112              		.section	.text.i2c_read_sda,"ax",%progbits
 113              		.align	2
 114              		.thumb
 115              		.thumb_func
 116              		.type	i2c_read_sda, %function
 117              	i2c_read_sda:
 118              	.LFB17:
 483:..\u8g2\csrc/u8x8_byte.c **** }
 484:..\u8g2\csrc/u8x8_byte.c **** 
 485:..\u8g2\csrc/u8x8_byte.c **** static void i2c_clear_scl(u8x8_t *u8x8)
 486:..\u8g2\csrc/u8x8_byte.c **** {
 487:..\u8g2\csrc/u8x8_byte.c ****   u8x8_gpio_SetI2CClock(u8x8, 0);
 488:..\u8g2\csrc/u8x8_byte.c **** }
 489:..\u8g2\csrc/u8x8_byte.c **** 
 490:..\u8g2\csrc/u8x8_byte.c **** static void i2c_read_sda(u8x8_t *u8x8)
 491:..\u8g2\csrc/u8x8_byte.c **** {
 119              		.loc 1 491 0
 120              		.cfi_startproc
 121              		@ args = 0, pretend = 0, frame = 0
 122              		@ frame_needed = 0, uses_anonymous_args = 0
 123              	.LVL9:
 124 0000 08B5     		push	{r3, lr}
 125              		.cfi_def_cfa_offset 8
 126              		.cfi_offset 3, -8
 127              		.cfi_offset 14, -4
 492:..\u8g2\csrc/u8x8_byte.c ****   /* set as input (line will be high) */
 493:..\u8g2\csrc/u8x8_byte.c ****   u8x8_gpio_SetI2CData(u8x8, 1);
 128              		.loc 1 493 0
 129 0002 0122     		movs	r2, #1
 130 0004 4D21     		movs	r1, #77
 131 0006 FFF7FEFF 		bl	u8x8_gpio_call
 132              	.LVL10:
 133 000a 08BD     		pop	{r3, pc}
 134              		.cfi_endproc
ARM GAS  C:\Users\brian\AppData\Local\Temp\cc2Kbm4j.s 			page 12


 135              	.LFE17:
 136              		.size	i2c_read_sda, .-i2c_read_sda
 137              		.section	.text.i2c_clear_sda,"ax",%progbits
 138              		.align	2
 139              		.thumb
 140              		.thumb_func
 141              		.type	i2c_clear_sda, %function
 142              	i2c_clear_sda:
 143              	.LFB18:
 494:..\u8g2\csrc/u8x8_byte.c **** }
 495:..\u8g2\csrc/u8x8_byte.c **** 
 496:..\u8g2\csrc/u8x8_byte.c **** static void i2c_clear_sda(u8x8_t *u8x8)
 497:..\u8g2\csrc/u8x8_byte.c **** {
 144              		.loc 1 497 0
 145              		.cfi_startproc
 146              		@ args = 0, pretend = 0, frame = 0
 147              		@ frame_needed = 0, uses_anonymous_args = 0
 148              	.LVL11:
 149 0000 08B5     		push	{r3, lr}
 150              		.cfi_def_cfa_offset 8
 151              		.cfi_offset 3, -8
 152              		.cfi_offset 14, -4
 498:..\u8g2\csrc/u8x8_byte.c ****   /* set open collector and drive low */
 499:..\u8g2\csrc/u8x8_byte.c ****   u8x8_gpio_SetI2CData(u8x8, 0);
 153              		.loc 1 499 0
 154 0002 0022     		movs	r2, #0
 155 0004 4D21     		movs	r1, #77
 156 0006 FFF7FEFF 		bl	u8x8_gpio_call
 157              	.LVL12:
 158 000a 08BD     		pop	{r3, pc}
 159              		.cfi_endproc
 160              	.LFE18:
 161              		.size	i2c_clear_sda, .-i2c_clear_sda
 162              		.section	.text.i2c_stop,"ax",%progbits
 163              		.align	2
 164              		.thumb
 165              		.thumb_func
 166              		.type	i2c_stop, %function
 167              	i2c_stop:
 168              	.LFB20:
 500:..\u8g2\csrc/u8x8_byte.c **** }
 501:..\u8g2\csrc/u8x8_byte.c **** 
 502:..\u8g2\csrc/u8x8_byte.c **** static void i2c_start(u8x8_t *u8x8)
 503:..\u8g2\csrc/u8x8_byte.c **** {
 504:..\u8g2\csrc/u8x8_byte.c ****   if ( u8x8->i2c_started != 0 )
 505:..\u8g2\csrc/u8x8_byte.c ****   {
 506:..\u8g2\csrc/u8x8_byte.c ****     /* if already started: do restart */
 507:..\u8g2\csrc/u8x8_byte.c ****     i2c_read_sda(u8x8);     /* SDA = 1 */
 508:..\u8g2\csrc/u8x8_byte.c ****     i2c_delay(u8x8);
 509:..\u8g2\csrc/u8x8_byte.c ****     i2c_read_scl_and_delay(u8x8);
 510:..\u8g2\csrc/u8x8_byte.c ****   }
 511:..\u8g2\csrc/u8x8_byte.c ****   i2c_read_sda(u8x8);
 512:..\u8g2\csrc/u8x8_byte.c ****   /* send the start condition, both lines go from 1 to 0 */
 513:..\u8g2\csrc/u8x8_byte.c ****   i2c_clear_sda(u8x8);
 514:..\u8g2\csrc/u8x8_byte.c ****   i2c_delay(u8x8);
 515:..\u8g2\csrc/u8x8_byte.c ****   i2c_clear_scl(u8x8);
 516:..\u8g2\csrc/u8x8_byte.c ****   u8x8->i2c_started = 1;
ARM GAS  C:\Users\brian\AppData\Local\Temp\cc2Kbm4j.s 			page 13


 517:..\u8g2\csrc/u8x8_byte.c **** }
 518:..\u8g2\csrc/u8x8_byte.c **** 
 519:..\u8g2\csrc/u8x8_byte.c **** 
 520:..\u8g2\csrc/u8x8_byte.c **** static void i2c_stop(u8x8_t *u8x8)
 521:..\u8g2\csrc/u8x8_byte.c **** {
 169              		.loc 1 521 0
 170              		.cfi_startproc
 171              		@ args = 0, pretend = 0, frame = 0
 172              		@ frame_needed = 0, uses_anonymous_args = 0
 173              	.LVL13:
 174 0000 10B5     		push	{r4, lr}
 175              		.cfi_def_cfa_offset 8
 176              		.cfi_offset 4, -8
 177              		.cfi_offset 14, -4
 178 0002 0446     		mov	r4, r0
 522:..\u8g2\csrc/u8x8_byte.c ****   /* set SDA to 0 */
 523:..\u8g2\csrc/u8x8_byte.c ****   i2c_clear_sda(u8x8);  
 179              		.loc 1 523 0
 180 0004 FFF7FEFF 		bl	i2c_clear_sda
 181              	.LVL14:
 524:..\u8g2\csrc/u8x8_byte.c ****   i2c_delay(u8x8);
 182              		.loc 1 524 0
 183 0008 2046     		mov	r0, r4
 184 000a FFF7FEFF 		bl	i2c_delay
 185              	.LVL15:
 525:..\u8g2\csrc/u8x8_byte.c ****  
 526:..\u8g2\csrc/u8x8_byte.c ****   /* now release all lines */
 527:..\u8g2\csrc/u8x8_byte.c ****   i2c_read_scl_and_delay(u8x8);
 186              		.loc 1 527 0
 187 000e 2046     		mov	r0, r4
 188 0010 FFF7FEFF 		bl	i2c_read_scl_and_delay
 189              	.LVL16:
 528:..\u8g2\csrc/u8x8_byte.c ****  
 529:..\u8g2\csrc/u8x8_byte.c ****   /* set SDA to 1 */
 530:..\u8g2\csrc/u8x8_byte.c ****   i2c_read_sda(u8x8);
 190              		.loc 1 530 0
 191 0014 2046     		mov	r0, r4
 192 0016 FFF7FEFF 		bl	i2c_read_sda
 193              	.LVL17:
 531:..\u8g2\csrc/u8x8_byte.c ****   i2c_delay(u8x8);
 194              		.loc 1 531 0
 195 001a 2046     		mov	r0, r4
 196 001c FFF7FEFF 		bl	i2c_delay
 197              	.LVL18:
 532:..\u8g2\csrc/u8x8_byte.c ****   u8x8->i2c_started = 0;
 198              		.loc 1 532 0
 199 0020 0023     		movs	r3, #0
 200 0022 84F82530 		strb	r3, [r4, #37]
 201 0026 10BD     		pop	{r4, pc}
 202              		.cfi_endproc
 203              	.LFE20:
 204              		.size	i2c_stop, .-i2c_stop
 205              		.section	.text.i2c_clear_scl,"ax",%progbits
 206              		.align	2
 207              		.thumb
 208              		.thumb_func
 209              		.type	i2c_clear_scl, %function
ARM GAS  C:\Users\brian\AppData\Local\Temp\cc2Kbm4j.s 			page 14


 210              	i2c_clear_scl:
 211              	.LFB16:
 486:..\u8g2\csrc/u8x8_byte.c ****   u8x8_gpio_SetI2CClock(u8x8, 0);
 212              		.loc 1 486 0
 213              		.cfi_startproc
 214              		@ args = 0, pretend = 0, frame = 0
 215              		@ frame_needed = 0, uses_anonymous_args = 0
 216              	.LVL19:
 217 0000 08B5     		push	{r3, lr}
 218              		.cfi_def_cfa_offset 8
 219              		.cfi_offset 3, -8
 220              		.cfi_offset 14, -4
 487:..\u8g2\csrc/u8x8_byte.c **** }
 221              		.loc 1 487 0
 222 0002 0022     		movs	r2, #0
 223 0004 4C21     		movs	r1, #76
 224 0006 FFF7FEFF 		bl	u8x8_gpio_call
 225              	.LVL20:
 226 000a 08BD     		pop	{r3, pc}
 227              		.cfi_endproc
 228              	.LFE16:
 229              		.size	i2c_clear_scl, .-i2c_clear_scl
 230              		.section	.text.i2c_start,"ax",%progbits
 231              		.align	2
 232              		.thumb
 233              		.thumb_func
 234              		.type	i2c_start, %function
 235              	i2c_start:
 236              	.LFB19:
 503:..\u8g2\csrc/u8x8_byte.c ****   if ( u8x8->i2c_started != 0 )
 237              		.loc 1 503 0
 238              		.cfi_startproc
 239              		@ args = 0, pretend = 0, frame = 0
 240              		@ frame_needed = 0, uses_anonymous_args = 0
 241              	.LVL21:
 242 0000 10B5     		push	{r4, lr}
 243              		.cfi_def_cfa_offset 8
 244              		.cfi_offset 4, -8
 245              		.cfi_offset 14, -4
 246 0002 0446     		mov	r4, r0
 504:..\u8g2\csrc/u8x8_byte.c ****   {
 247              		.loc 1 504 0
 248 0004 90F82530 		ldrb	r3, [r0, #37]	@ zero_extendqisi2
 249 0008 3BB1     		cbz	r3, .L16
 507:..\u8g2\csrc/u8x8_byte.c ****     i2c_delay(u8x8);
 250              		.loc 1 507 0
 251 000a FFF7FEFF 		bl	i2c_read_sda
 252              	.LVL22:
 508:..\u8g2\csrc/u8x8_byte.c ****     i2c_read_scl_and_delay(u8x8);
 253              		.loc 1 508 0
 254 000e 2046     		mov	r0, r4
 255 0010 FFF7FEFF 		bl	i2c_delay
 256              	.LVL23:
 509:..\u8g2\csrc/u8x8_byte.c ****   }
 257              		.loc 1 509 0
 258 0014 2046     		mov	r0, r4
 259 0016 FFF7FEFF 		bl	i2c_read_scl_and_delay
ARM GAS  C:\Users\brian\AppData\Local\Temp\cc2Kbm4j.s 			page 15


 260              	.LVL24:
 261              	.L16:
 511:..\u8g2\csrc/u8x8_byte.c ****   /* send the start condition, both lines go from 1 to 0 */
 262              		.loc 1 511 0
 263 001a 2046     		mov	r0, r4
 264 001c FFF7FEFF 		bl	i2c_read_sda
 265              	.LVL25:
 513:..\u8g2\csrc/u8x8_byte.c ****   i2c_delay(u8x8);
 266              		.loc 1 513 0
 267 0020 2046     		mov	r0, r4
 268 0022 FFF7FEFF 		bl	i2c_clear_sda
 269              	.LVL26:
 514:..\u8g2\csrc/u8x8_byte.c ****   i2c_clear_scl(u8x8);
 270              		.loc 1 514 0
 271 0026 2046     		mov	r0, r4
 272 0028 FFF7FEFF 		bl	i2c_delay
 273              	.LVL27:
 515:..\u8g2\csrc/u8x8_byte.c ****   u8x8->i2c_started = 1;
 274              		.loc 1 515 0
 275 002c 2046     		mov	r0, r4
 276 002e FFF7FEFF 		bl	i2c_clear_scl
 277              	.LVL28:
 516:..\u8g2\csrc/u8x8_byte.c **** }
 278              		.loc 1 516 0
 279 0032 0123     		movs	r3, #1
 280 0034 84F82530 		strb	r3, [r4, #37]
 281 0038 10BD     		pop	{r4, pc}
 282              		.cfi_endproc
 283              	.LFE19:
 284              		.size	i2c_start, .-i2c_start
 285 003a 00BF     		.section	.text.i2c_write_bit,"ax",%progbits
 286              		.align	2
 287              		.thumb
 288              		.thumb_func
 289              		.type	i2c_write_bit, %function
 290              	i2c_write_bit:
 291              	.LFB21:
 533:..\u8g2\csrc/u8x8_byte.c **** }
 534:..\u8g2\csrc/u8x8_byte.c **** 
 535:..\u8g2\csrc/u8x8_byte.c **** static void i2c_write_bit(u8x8_t *u8x8, uint8_t val)
 536:..\u8g2\csrc/u8x8_byte.c **** {
 292              		.loc 1 536 0
 293              		.cfi_startproc
 294              		@ args = 0, pretend = 0, frame = 0
 295              		@ frame_needed = 0, uses_anonymous_args = 0
 296              	.LVL29:
 297 0000 10B5     		push	{r4, lr}
 298              		.cfi_def_cfa_offset 8
 299              		.cfi_offset 4, -8
 300              		.cfi_offset 14, -4
 301 0002 0446     		mov	r4, r0
 537:..\u8g2\csrc/u8x8_byte.c ****   if (val)
 302              		.loc 1 537 0
 303 0004 11B1     		cbz	r1, .L19
 538:..\u8g2\csrc/u8x8_byte.c ****     i2c_read_sda(u8x8);
 304              		.loc 1 538 0
 305 0006 FFF7FEFF 		bl	i2c_read_sda
ARM GAS  C:\Users\brian\AppData\Local\Temp\cc2Kbm4j.s 			page 16


 306              	.LVL30:
 307 000a 01E0     		b	.L20
 308              	.LVL31:
 309              	.L19:
 539:..\u8g2\csrc/u8x8_byte.c ****   else
 540:..\u8g2\csrc/u8x8_byte.c ****     i2c_clear_sda(u8x8);
 310              		.loc 1 540 0
 311 000c FFF7FEFF 		bl	i2c_clear_sda
 312              	.LVL32:
 313              	.L20:
 541:..\u8g2\csrc/u8x8_byte.c ****  
 542:..\u8g2\csrc/u8x8_byte.c ****   i2c_delay(u8x8);
 314              		.loc 1 542 0
 315 0010 2046     		mov	r0, r4
 316 0012 FFF7FEFF 		bl	i2c_delay
 317              	.LVL33:
 543:..\u8g2\csrc/u8x8_byte.c ****   i2c_read_scl_and_delay(u8x8);
 318              		.loc 1 543 0
 319 0016 2046     		mov	r0, r4
 320 0018 FFF7FEFF 		bl	i2c_read_scl_and_delay
 321              	.LVL34:
 544:..\u8g2\csrc/u8x8_byte.c ****   i2c_clear_scl(u8x8);
 322              		.loc 1 544 0
 323 001c 2046     		mov	r0, r4
 324 001e FFF7FEFF 		bl	i2c_clear_scl
 325              	.LVL35:
 326 0022 10BD     		pop	{r4, pc}
 327              		.cfi_endproc
 328              	.LFE21:
 329              		.size	i2c_write_bit, .-i2c_write_bit
 330              		.section	.text.i2c_read_bit,"ax",%progbits
 331              		.align	2
 332              		.thumb
 333              		.thumb_func
 334              		.type	i2c_read_bit, %function
 335              	i2c_read_bit:
 336              	.LFB22:
 545:..\u8g2\csrc/u8x8_byte.c **** }
 546:..\u8g2\csrc/u8x8_byte.c **** 
 547:..\u8g2\csrc/u8x8_byte.c **** static void i2c_read_bit(u8x8_t *u8x8)
 548:..\u8g2\csrc/u8x8_byte.c **** {
 337              		.loc 1 548 0
 338              		.cfi_startproc
 339              		@ args = 0, pretend = 0, frame = 0
 340              		@ frame_needed = 0, uses_anonymous_args = 0
 341              	.LVL36:
 342 0000 10B5     		push	{r4, lr}
 343              		.cfi_def_cfa_offset 8
 344              		.cfi_offset 4, -8
 345              		.cfi_offset 14, -4
 346 0002 0446     		mov	r4, r0
 549:..\u8g2\csrc/u8x8_byte.c ****   //uint8_t val;
 550:..\u8g2\csrc/u8x8_byte.c ****   /* do not drive SDA */
 551:..\u8g2\csrc/u8x8_byte.c ****   i2c_read_sda(u8x8);
 347              		.loc 1 551 0
 348 0004 FFF7FEFF 		bl	i2c_read_sda
 349              	.LVL37:
ARM GAS  C:\Users\brian\AppData\Local\Temp\cc2Kbm4j.s 			page 17


 552:..\u8g2\csrc/u8x8_byte.c ****   i2c_delay(u8x8);
 350              		.loc 1 552 0
 351 0008 2046     		mov	r0, r4
 352 000a FFF7FEFF 		bl	i2c_delay
 353              	.LVL38:
 553:..\u8g2\csrc/u8x8_byte.c ****   i2c_read_scl_and_delay(u8x8);
 354              		.loc 1 553 0
 355 000e 2046     		mov	r0, r4
 356 0010 FFF7FEFF 		bl	i2c_read_scl_and_delay
 357              	.LVL39:
 554:..\u8g2\csrc/u8x8_byte.c ****   i2c_read_sda(u8x8);
 358              		.loc 1 554 0
 359 0014 2046     		mov	r0, r4
 360 0016 FFF7FEFF 		bl	i2c_read_sda
 361              	.LVL40:
 555:..\u8g2\csrc/u8x8_byte.c ****   i2c_delay(u8x8);
 362              		.loc 1 555 0
 363 001a 2046     		mov	r0, r4
 364 001c FFF7FEFF 		bl	i2c_delay
 365              	.LVL41:
 556:..\u8g2\csrc/u8x8_byte.c ****   i2c_clear_scl(u8x8);
 366              		.loc 1 556 0
 367 0020 2046     		mov	r0, r4
 368 0022 FFF7FEFF 		bl	i2c_clear_scl
 369              	.LVL42:
 370 0026 10BD     		pop	{r4, pc}
 371              		.cfi_endproc
 372              	.LFE22:
 373              		.size	i2c_read_bit, .-i2c_read_bit
 374              		.section	.text.i2c_write_byte,"ax",%progbits
 375              		.align	2
 376              		.thumb
 377              		.thumb_func
 378              		.type	i2c_write_byte, %function
 379              	i2c_write_byte:
 380              	.LFB23:
 557:..\u8g2\csrc/u8x8_byte.c ****   //return val;
 558:..\u8g2\csrc/u8x8_byte.c **** }
 559:..\u8g2\csrc/u8x8_byte.c **** 
 560:..\u8g2\csrc/u8x8_byte.c **** static void i2c_write_byte(u8x8_t *u8x8, uint8_t b)
 561:..\u8g2\csrc/u8x8_byte.c **** {
 381              		.loc 1 561 0
 382              		.cfi_startproc
 383              		@ args = 0, pretend = 0, frame = 0
 384              		@ frame_needed = 0, uses_anonymous_args = 0
 385              	.LVL43:
 386 0000 38B5     		push	{r3, r4, r5, lr}
 387              		.cfi_def_cfa_offset 16
 388              		.cfi_offset 3, -16
 389              		.cfi_offset 4, -12
 390              		.cfi_offset 5, -8
 391              		.cfi_offset 14, -4
 392 0002 0446     		mov	r4, r0
 393 0004 0D46     		mov	r5, r1
 562:..\u8g2\csrc/u8x8_byte.c ****   i2c_write_bit(u8x8, b & 128);
 394              		.loc 1 562 0
 395 0006 01F08001 		and	r1, r1, #128
ARM GAS  C:\Users\brian\AppData\Local\Temp\cc2Kbm4j.s 			page 18


 396              	.LVL44:
 397 000a FFF7FEFF 		bl	i2c_write_bit
 398              	.LVL45:
 563:..\u8g2\csrc/u8x8_byte.c ****   i2c_write_bit(u8x8, b & 64);
 399              		.loc 1 563 0
 400 000e 05F04001 		and	r1, r5, #64
 401 0012 2046     		mov	r0, r4
 402 0014 FFF7FEFF 		bl	i2c_write_bit
 403              	.LVL46:
 564:..\u8g2\csrc/u8x8_byte.c ****   i2c_write_bit(u8x8, b & 32);
 404              		.loc 1 564 0
 405 0018 05F02001 		and	r1, r5, #32
 406 001c 2046     		mov	r0, r4
 407 001e FFF7FEFF 		bl	i2c_write_bit
 408              	.LVL47:
 565:..\u8g2\csrc/u8x8_byte.c ****   i2c_write_bit(u8x8, b & 16);
 409              		.loc 1 565 0
 410 0022 05F01001 		and	r1, r5, #16
 411 0026 2046     		mov	r0, r4
 412 0028 FFF7FEFF 		bl	i2c_write_bit
 413              	.LVL48:
 566:..\u8g2\csrc/u8x8_byte.c ****   i2c_write_bit(u8x8, b & 8);
 414              		.loc 1 566 0
 415 002c 05F00801 		and	r1, r5, #8
 416 0030 2046     		mov	r0, r4
 417 0032 FFF7FEFF 		bl	i2c_write_bit
 418              	.LVL49:
 567:..\u8g2\csrc/u8x8_byte.c ****   i2c_write_bit(u8x8, b & 4);
 419              		.loc 1 567 0
 420 0036 05F00401 		and	r1, r5, #4
 421 003a 2046     		mov	r0, r4
 422 003c FFF7FEFF 		bl	i2c_write_bit
 423              	.LVL50:
 568:..\u8g2\csrc/u8x8_byte.c ****   i2c_write_bit(u8x8, b & 2);
 424              		.loc 1 568 0
 425 0040 05F00201 		and	r1, r5, #2
 426 0044 2046     		mov	r0, r4
 427 0046 FFF7FEFF 		bl	i2c_write_bit
 428              	.LVL51:
 569:..\u8g2\csrc/u8x8_byte.c ****   i2c_write_bit(u8x8, b & 1);
 429              		.loc 1 569 0
 430 004a 05F00101 		and	r1, r5, #1
 431 004e 2046     		mov	r0, r4
 432 0050 FFF7FEFF 		bl	i2c_write_bit
 433              	.LVL52:
 570:..\u8g2\csrc/u8x8_byte.c ****     
 571:..\u8g2\csrc/u8x8_byte.c ****   /* read ack from client */
 572:..\u8g2\csrc/u8x8_byte.c ****   /* 0: ack was given by client */
 573:..\u8g2\csrc/u8x8_byte.c ****   /* 1: nothing happend during ack cycle */  
 574:..\u8g2\csrc/u8x8_byte.c ****   i2c_read_bit(u8x8);
 434              		.loc 1 574 0
 435 0054 2046     		mov	r0, r4
 436 0056 FFF7FEFF 		bl	i2c_read_bit
 437              	.LVL53:
 438 005a 38BD     		pop	{r3, r4, r5, pc}
 439              		.cfi_endproc
 440              	.LFE23:
ARM GAS  C:\Users\brian\AppData\Local\Temp\cc2Kbm4j.s 			page 19


 441              		.size	i2c_write_byte, .-i2c_write_byte
 442              		.section	.text.u8x8_byte_SetDC,"ax",%progbits
 443              		.align	2
 444              		.global	u8x8_byte_SetDC
 445              		.thumb
 446              		.thumb_func
 447              		.type	u8x8_byte_SetDC, %function
 448              	u8x8_byte_SetDC:
 449              	.LFB0:
  40:..\u8g2\csrc/u8x8_byte.c ****   return u8x8->byte_cb(u8x8, U8X8_MSG_BYTE_SET_DC, dc, NULL);
 450              		.loc 1 40 0
 451              		.cfi_startproc
 452              		@ args = 0, pretend = 0, frame = 0
 453              		@ frame_needed = 0, uses_anonymous_args = 0
 454              	.LVL54:
 455 0000 10B5     		push	{r4, lr}
 456              		.cfi_def_cfa_offset 8
 457              		.cfi_offset 4, -8
 458              		.cfi_offset 14, -4
  41:..\u8g2\csrc/u8x8_byte.c **** }
 459              		.loc 1 41 0
 460 0002 0469     		ldr	r4, [r0, #16]
 461 0004 0023     		movs	r3, #0
 462 0006 0A46     		mov	r2, r1
 463 0008 2021     		movs	r1, #32
 464              	.LVL55:
 465 000a A047     		blx	r4
 466              	.LVL56:
  42:..\u8g2\csrc/u8x8_byte.c **** 
 467              		.loc 1 42 0
 468 000c 10BD     		pop	{r4, pc}
 469              		.cfi_endproc
 470              	.LFE0:
 471              		.size	u8x8_byte_SetDC, .-u8x8_byte_SetDC
 472 000e 00BF     		.section	.text.u8x8_byte_SendBytes,"ax",%progbits
 473              		.align	2
 474              		.global	u8x8_byte_SendBytes
 475              		.thumb
 476              		.thumb_func
 477              		.type	u8x8_byte_SendBytes, %function
 478              	u8x8_byte_SendBytes:
 479              	.LFB1:
  45:..\u8g2\csrc/u8x8_byte.c ****   return u8x8->byte_cb(u8x8, U8X8_MSG_BYTE_SEND, cnt, (void *)data);
 480              		.loc 1 45 0
 481              		.cfi_startproc
 482              		@ args = 0, pretend = 0, frame = 0
 483              		@ frame_needed = 0, uses_anonymous_args = 0
 484              	.LVL57:
 485 0000 10B5     		push	{r4, lr}
 486              		.cfi_def_cfa_offset 8
 487              		.cfi_offset 4, -8
 488              		.cfi_offset 14, -4
  46:..\u8g2\csrc/u8x8_byte.c **** }
 489              		.loc 1 46 0
 490 0002 0469     		ldr	r4, [r0, #16]
 491 0004 1346     		mov	r3, r2
 492 0006 0A46     		mov	r2, r1
ARM GAS  C:\Users\brian\AppData\Local\Temp\cc2Kbm4j.s 			page 20


 493              	.LVL58:
 494 0008 1721     		movs	r1, #23
 495              	.LVL59:
 496 000a A047     		blx	r4
 497              	.LVL60:
  47:..\u8g2\csrc/u8x8_byte.c **** 
 498              		.loc 1 47 0
 499 000c 10BD     		pop	{r4, pc}
 500              		.cfi_endproc
 501              	.LFE1:
 502              		.size	u8x8_byte_SendBytes, .-u8x8_byte_SendBytes
 503 000e 00BF     		.section	.text.u8x8_byte_SendByte,"ax",%progbits
 504              		.align	2
 505              		.global	u8x8_byte_SendByte
 506              		.thumb
 507              		.thumb_func
 508              		.type	u8x8_byte_SendByte, %function
 509              	u8x8_byte_SendByte:
 510              	.LFB2:
  50:..\u8g2\csrc/u8x8_byte.c ****   return u8x8_byte_SendBytes(u8x8, 1, &byte);
 511              		.loc 1 50 0
 512              		.cfi_startproc
 513              		@ args = 0, pretend = 0, frame = 8
 514              		@ frame_needed = 0, uses_anonymous_args = 0
 515              	.LVL61:
 516 0000 00B5     		push	{lr}
 517              		.cfi_def_cfa_offset 4
 518              		.cfi_offset 14, -4
 519 0002 83B0     		sub	sp, sp, #12
 520              		.cfi_def_cfa_offset 16
 521 0004 02AA     		add	r2, sp, #8
 522 0006 02F8011D 		strb	r1, [r2, #-1]!
  51:..\u8g2\csrc/u8x8_byte.c **** }
 523              		.loc 1 51 0
 524 000a 0121     		movs	r1, #1
 525              	.LVL62:
 526 000c FFF7FEFF 		bl	u8x8_byte_SendBytes
 527              	.LVL63:
  52:..\u8g2\csrc/u8x8_byte.c **** 
 528              		.loc 1 52 0
 529 0010 03B0     		add	sp, sp, #12
 530              		.cfi_def_cfa_offset 4
 531              		@ sp needed
 532 0012 5DF804FB 		ldr	pc, [sp], #4
 533              		.cfi_endproc
 534              	.LFE2:
 535              		.size	u8x8_byte_SendByte, .-u8x8_byte_SendByte
 536 0016 00BF     		.section	.text.u8x8_byte_StartTransfer,"ax",%progbits
 537              		.align	2
 538              		.global	u8x8_byte_StartTransfer
 539              		.thumb
 540              		.thumb_func
 541              		.type	u8x8_byte_StartTransfer, %function
 542              	u8x8_byte_StartTransfer:
 543              	.LFB3:
  55:..\u8g2\csrc/u8x8_byte.c ****   return u8x8->byte_cb(u8x8, U8X8_MSG_BYTE_START_TRANSFER, 0, NULL);
 544              		.loc 1 55 0
ARM GAS  C:\Users\brian\AppData\Local\Temp\cc2Kbm4j.s 			page 21


 545              		.cfi_startproc
 546              		@ args = 0, pretend = 0, frame = 0
 547              		@ frame_needed = 0, uses_anonymous_args = 0
 548              	.LVL64:
 549 0000 10B5     		push	{r4, lr}
 550              		.cfi_def_cfa_offset 8
 551              		.cfi_offset 4, -8
 552              		.cfi_offset 14, -4
  56:..\u8g2\csrc/u8x8_byte.c **** }
 553              		.loc 1 56 0
 554 0002 0469     		ldr	r4, [r0, #16]
 555 0004 0023     		movs	r3, #0
 556 0006 1A46     		mov	r2, r3
 557 0008 1821     		movs	r1, #24
 558 000a A047     		blx	r4
 559              	.LVL65:
  57:..\u8g2\csrc/u8x8_byte.c **** 
 560              		.loc 1 57 0
 561 000c 10BD     		pop	{r4, pc}
 562              		.cfi_endproc
 563              	.LFE3:
 564              		.size	u8x8_byte_StartTransfer, .-u8x8_byte_StartTransfer
 565 000e 00BF     		.section	.text.u8x8_byte_EndTransfer,"ax",%progbits
 566              		.align	2
 567              		.global	u8x8_byte_EndTransfer
 568              		.thumb
 569              		.thumb_func
 570              		.type	u8x8_byte_EndTransfer, %function
 571              	u8x8_byte_EndTransfer:
 572              	.LFB4:
  60:..\u8g2\csrc/u8x8_byte.c ****   return u8x8->byte_cb(u8x8, U8X8_MSG_BYTE_END_TRANSFER, 0, NULL);
 573              		.loc 1 60 0
 574              		.cfi_startproc
 575              		@ args = 0, pretend = 0, frame = 0
 576              		@ frame_needed = 0, uses_anonymous_args = 0
 577              	.LVL66:
 578 0000 10B5     		push	{r4, lr}
 579              		.cfi_def_cfa_offset 8
 580              		.cfi_offset 4, -8
 581              		.cfi_offset 14, -4
  61:..\u8g2\csrc/u8x8_byte.c **** }
 582              		.loc 1 61 0
 583 0002 0469     		ldr	r4, [r0, #16]
 584 0004 0023     		movs	r3, #0
 585 0006 1A46     		mov	r2, r3
 586 0008 1921     		movs	r1, #25
 587 000a A047     		blx	r4
 588              	.LVL67:
  62:..\u8g2\csrc/u8x8_byte.c **** 
 589              		.loc 1 62 0
 590 000c 10BD     		pop	{r4, pc}
 591              		.cfi_endproc
 592              	.LFE4:
 593              		.size	u8x8_byte_EndTransfer, .-u8x8_byte_EndTransfer
 594 000e 00BF     		.section	.text.u8x8_byte_empty,"ax",%progbits
 595              		.align	2
 596              		.global	u8x8_byte_empty
ARM GAS  C:\Users\brian\AppData\Local\Temp\cc2Kbm4j.s 			page 22


 597              		.thumb
 598              		.thumb_func
 599              		.type	u8x8_byte_empty, %function
 600              	u8x8_byte_empty:
 601              	.LFB5:
  67:..\u8g2\csrc/u8x8_byte.c ****   switch(msg)
 602              		.loc 1 67 0
 603              		.cfi_startproc
 604              		@ args = 0, pretend = 0, frame = 0
 605              		@ frame_needed = 0, uses_anonymous_args = 0
 606              		@ link register save eliminated.
 607              	.LVL68:
  78:..\u8g2\csrc/u8x8_byte.c **** 
 608              		.loc 1 78 0
 609 0000 0120     		movs	r0, #1
 610              	.LVL69:
 611 0002 7047     		bx	lr
 612              		.cfi_endproc
 613              	.LFE5:
 614              		.size	u8x8_byte_empty, .-u8x8_byte_empty
 615              		.section	.text.u8x8_byte_4wire_sw_spi,"ax",%progbits
 616              		.align	2
 617              		.global	u8x8_byte_4wire_sw_spi
 618              		.thumb
 619              		.thumb_func
 620              		.type	u8x8_byte_4wire_sw_spi, %function
 621              	u8x8_byte_4wire_sw_spi:
 622              	.LFB6:
 108:..\u8g2\csrc/u8x8_byte.c ****   uint8_t i, b;
 623              		.loc 1 108 0
 624              		.cfi_startproc
 625              		@ args = 0, pretend = 0, frame = 0
 626              		@ frame_needed = 0, uses_anonymous_args = 0
 627              	.LVL70:
 628 0000 2DE9F047 		push	{r4, r5, r6, r7, r8, r9, r10, lr}
 629              		.cfi_def_cfa_offset 32
 630              		.cfi_offset 4, -32
 631              		.cfi_offset 5, -28
 632              		.cfi_offset 6, -24
 633              		.cfi_offset 7, -20
 634              		.cfi_offset 8, -16
 635              		.cfi_offset 9, -12
 636              		.cfi_offset 10, -8
 637              		.cfi_offset 14, -4
 638 0004 0446     		mov	r4, r0
 639 0006 9146     		mov	r9, r2
 640 0008 9A46     		mov	r10, r3
 111:..\u8g2\csrc/u8x8_byte.c ****   uint8_t not_takeover_edge = 1 - takeover_edge;
 641              		.loc 1 111 0
 642 000a 0268     		ldr	r2, [r0]
 643              	.LVL71:
 644 000c 177B     		ldrb	r7, [r2, #12]	@ zero_extendqisi2
 645 000e 07F00107 		and	r7, r7, #1
 646              	.LVL72:
 112:..\u8g2\csrc/u8x8_byte.c ****  
 647              		.loc 1 112 0
 648 0012 87F00108 		eor	r8, r7, #1
ARM GAS  C:\Users\brian\AppData\Local\Temp\cc2Kbm4j.s 			page 23


 649              	.LVL73:
 114:..\u8g2\csrc/u8x8_byte.c ****   {
 650              		.loc 1 114 0
 651 0016 1439     		subs	r1, r1, #20
 652              	.LVL74:
 653 0018 0C29     		cmp	r1, #12
 654 001a 72D8     		bhi	.L50
 655 001c DFE801F0 		tbb	[pc, r1]
 656              	.LVL75:
 657              	.L40:
 658 0020 3F       		.byte	(.L39-.L40)/2
 659 0021 71       		.byte	(.L50-.L40)/2
 660 0022 71       		.byte	(.L50-.L40)/2
 661 0023 39       		.byte	(.L41-.L40)/2
 662 0024 55       		.byte	(.L42-.L40)/2
 663 0025 63       		.byte	(.L43-.L40)/2
 664 0026 71       		.byte	(.L50-.L40)/2
 665 0027 71       		.byte	(.L50-.L40)/2
 666 0028 71       		.byte	(.L50-.L40)/2
 667 0029 71       		.byte	(.L50-.L40)/2
 668 002a 71       		.byte	(.L50-.L40)/2
 669 002b 71       		.byte	(.L50-.L40)/2
 670 002c 4E       		.byte	(.L44-.L40)/2
 671 002d 00       		.p2align 1
 672              	.L49:
 120:..\u8g2\csrc/u8x8_byte.c **** 	data++;
 673              		.loc 1 120 0
 674 002e 1AF8016B 		ldrb	r6, [r10], #1	@ zero_extendqisi2
 675              	.LVL76:
 122:..\u8g2\csrc/u8x8_byte.c **** 	for( i = 0; i < 8; i++ )
 676              		.loc 1 122 0
 677 0032 09F1FF39 		add	r9, r9, #-1
 678              	.LVL77:
 679 0036 5FFA89F9 		uxtb	r9, r9
 680              	.LVL78:
 123:..\u8g2\csrc/u8x8_byte.c **** 	{
 681              		.loc 1 123 0
 682 003a 0025     		movs	r5, #0
 683 003c 27E0     		b	.L45
 684              	.LVL79:
 685              	.L48:
 125:..\u8g2\csrc/u8x8_byte.c **** 	    u8x8_gpio_SetSPIData(u8x8, 1);
 686              		.loc 1 125 0
 687 003e 16F0800F 		tst	r6, #128
 688 0042 05D0     		beq	.L46
 126:..\u8g2\csrc/u8x8_byte.c **** 	  else
 689              		.loc 1 126 0
 690 0044 0122     		movs	r2, #1
 691 0046 4121     		movs	r1, #65
 692 0048 2046     		mov	r0, r4
 693 004a FFF7FEFF 		bl	u8x8_gpio_call
 694              	.LVL80:
 695 004e 04E0     		b	.L47
 696              	.L46:
 128:..\u8g2\csrc/u8x8_byte.c **** 	  b <<= 1;
 697              		.loc 1 128 0
 698 0050 0022     		movs	r2, #0
ARM GAS  C:\Users\brian\AppData\Local\Temp\cc2Kbm4j.s 			page 24


 699 0052 4121     		movs	r1, #65
 700 0054 2046     		mov	r0, r4
 701 0056 FFF7FEFF 		bl	u8x8_gpio_call
 702              	.LVL81:
 703              	.L47:
 129:..\u8g2\csrc/u8x8_byte.c **** 	  
 704              		.loc 1 129 0 discriminator 2
 705 005a 7600     		lsls	r6, r6, #1
 706              	.LVL82:
 707 005c F6B2     		uxtb	r6, r6
 708              	.LVL83:
 131:..\u8g2\csrc/u8x8_byte.c **** 	  u8x8_gpio_Delay(u8x8, U8X8_MSG_DELAY_NANO, u8x8->display_info->sda_setup_time_ns);
 709              		.loc 1 131 0 discriminator 2
 710 005e 4246     		mov	r2, r8
 711 0060 4021     		movs	r1, #64
 712 0062 2046     		mov	r0, r4
 713 0064 FFF7FEFF 		bl	u8x8_gpio_call
 714              	.LVL84:
 132:..\u8g2\csrc/u8x8_byte.c **** 	  u8x8_gpio_SetSPIClock(u8x8, takeover_edge);
 715              		.loc 1 132 0 discriminator 2
 716 0068 2368     		ldr	r3, [r4]
 717 006a 9A79     		ldrb	r2, [r3, #6]	@ zero_extendqisi2
 718 006c 2C21     		movs	r1, #44
 719 006e 2046     		mov	r0, r4
 720 0070 FFF7FEFF 		bl	u8x8_gpio_call
 721              	.LVL85:
 133:..\u8g2\csrc/u8x8_byte.c **** 	  u8x8_gpio_Delay(u8x8, U8X8_MSG_DELAY_NANO, u8x8->display_info->sck_pulse_width_ns);
 722              		.loc 1 133 0 discriminator 2
 723 0074 3A46     		mov	r2, r7
 724 0076 4021     		movs	r1, #64
 725 0078 2046     		mov	r0, r4
 726 007a FFF7FEFF 		bl	u8x8_gpio_call
 727              	.LVL86:
 134:..\u8g2\csrc/u8x8_byte.c **** 	}    
 728              		.loc 1 134 0 discriminator 2
 729 007e 2368     		ldr	r3, [r4]
 730 0080 DA79     		ldrb	r2, [r3, #7]	@ zero_extendqisi2
 731 0082 2C21     		movs	r1, #44
 732 0084 2046     		mov	r0, r4
 733 0086 FFF7FEFF 		bl	u8x8_gpio_call
 734              	.LVL87:
 123:..\u8g2\csrc/u8x8_byte.c **** 	{
 735              		.loc 1 123 0 discriminator 2
 736 008a 0135     		adds	r5, r5, #1
 737              	.LVL88:
 738 008c EDB2     		uxtb	r5, r5
 739              	.LVL89:
 740              	.L45:
 123:..\u8g2\csrc/u8x8_byte.c **** 	{
 741              		.loc 1 123 0 is_stmt 0 discriminator 1
 742 008e 072D     		cmp	r5, #7
 743 0090 D5D9     		bls	.L48
 744              	.LVL90:
 745              	.L41:
 118:..\u8g2\csrc/u8x8_byte.c ****       {
 746              		.loc 1 118 0 is_stmt 1
 747 0092 B9F1000F 		cmp	r9, #0
ARM GAS  C:\Users\brian\AppData\Local\Temp\cc2Kbm4j.s 			page 25


 748 0096 CAD1     		bne	.L49
 161:..\u8g2\csrc/u8x8_byte.c **** }
 749              		.loc 1 161 0
 750 0098 0120     		movs	r0, #1
 751 009a BDE8F087 		pop	{r4, r5, r6, r7, r8, r9, r10, pc}
 752              	.LVL91:
 753              	.L39:
 141:..\u8g2\csrc/u8x8_byte.c ****       /* no wait required here */
 754              		.loc 1 141 0
 755 009e 5278     		ldrb	r2, [r2, #1]	@ zero_extendqisi2
 756 00a0 4921     		movs	r1, #73
 757 00a2 FFF7FEFF 		bl	u8x8_gpio_call
 758              	.LVL92:
 145:..\u8g2\csrc/u8x8_byte.c ****       break;
 759              		.loc 1 145 0
 760 00a6 2368     		ldr	r3, [r4]
 761 00a8 1A7B     		ldrb	r2, [r3, #12]	@ zero_extendqisi2
 762 00aa 02F00102 		and	r2, r2, #1
 763 00ae 4021     		movs	r1, #64
 764 00b0 2046     		mov	r0, r4
 765 00b2 FFF7FEFF 		bl	u8x8_gpio_call
 766              	.LVL93:
 161:..\u8g2\csrc/u8x8_byte.c **** }
 767              		.loc 1 161 0
 768 00b6 0120     		movs	r0, #1
 146:..\u8g2\csrc/u8x8_byte.c ****     case U8X8_MSG_BYTE_SET_DC:
 769              		.loc 1 146 0
 770 00b8 BDE8F087 		pop	{r4, r5, r6, r7, r8, r9, r10, pc}
 771              	.LVL94:
 772              	.L44:
 148:..\u8g2\csrc/u8x8_byte.c ****       break;
 773              		.loc 1 148 0
 774 00bc 4A46     		mov	r2, r9
 775 00be 4A21     		movs	r1, #74
 776 00c0 FFF7FEFF 		bl	u8x8_gpio_call
 777              	.LVL95:
 161:..\u8g2\csrc/u8x8_byte.c **** }
 778              		.loc 1 161 0
 779 00c4 0120     		movs	r0, #1
 149:..\u8g2\csrc/u8x8_byte.c ****     case U8X8_MSG_BYTE_START_TRANSFER:
 780              		.loc 1 149 0
 781 00c6 BDE8F087 		pop	{r4, r5, r6, r7, r8, r9, r10, pc}
 782              	.LVL96:
 783              	.L42:
 151:..\u8g2\csrc/u8x8_byte.c ****       u8x8->gpio_and_delay_cb(u8x8, U8X8_MSG_DELAY_NANO, u8x8->display_info->post_chip_enable_wait_
 784              		.loc 1 151 0
 785 00ca 1278     		ldrb	r2, [r2]	@ zero_extendqisi2
 786 00cc 4921     		movs	r1, #73
 787 00ce FFF7FEFF 		bl	u8x8_gpio_call
 788              	.LVL97:
 152:..\u8g2\csrc/u8x8_byte.c ****       break;
 789              		.loc 1 152 0
 790 00d2 6569     		ldr	r5, [r4, #20]
 791 00d4 2268     		ldr	r2, [r4]
 792 00d6 0023     		movs	r3, #0
 793 00d8 9278     		ldrb	r2, [r2, #2]	@ zero_extendqisi2
 794 00da 2C21     		movs	r1, #44
ARM GAS  C:\Users\brian\AppData\Local\Temp\cc2Kbm4j.s 			page 26


 795 00dc 2046     		mov	r0, r4
 796 00de A847     		blx	r5
 797              	.LVL98:
 161:..\u8g2\csrc/u8x8_byte.c **** }
 798              		.loc 1 161 0
 799 00e0 0120     		movs	r0, #1
 153:..\u8g2\csrc/u8x8_byte.c ****     case U8X8_MSG_BYTE_END_TRANSFER:
 800              		.loc 1 153 0
 801 00e2 BDE8F087 		pop	{r4, r5, r6, r7, r8, r9, r10, pc}
 802              	.LVL99:
 803              	.L43:
 155:..\u8g2\csrc/u8x8_byte.c ****       u8x8_gpio_SetCS(u8x8, u8x8->display_info->chip_disable_level);
 804              		.loc 1 155 0
 805 00e6 4569     		ldr	r5, [r0, #20]
 806 00e8 0023     		movs	r3, #0
 807 00ea D278     		ldrb	r2, [r2, #3]	@ zero_extendqisi2
 808 00ec 2C21     		movs	r1, #44
 809 00ee A847     		blx	r5
 810              	.LVL100:
 156:..\u8g2\csrc/u8x8_byte.c ****       break;
 811              		.loc 1 156 0
 812 00f0 2368     		ldr	r3, [r4]
 813 00f2 5A78     		ldrb	r2, [r3, #1]	@ zero_extendqisi2
 814 00f4 4921     		movs	r1, #73
 815 00f6 2046     		mov	r0, r4
 816 00f8 FFF7FEFF 		bl	u8x8_gpio_call
 817              	.LVL101:
 161:..\u8g2\csrc/u8x8_byte.c **** }
 818              		.loc 1 161 0
 819 00fc 0120     		movs	r0, #1
 157:..\u8g2\csrc/u8x8_byte.c ****     default:
 820              		.loc 1 157 0
 821 00fe BDE8F087 		pop	{r4, r5, r6, r7, r8, r9, r10, pc}
 822              	.LVL102:
 823              	.L50:
 159:..\u8g2\csrc/u8x8_byte.c ****   }
 824              		.loc 1 159 0
 825 0102 0020     		movs	r0, #0
 826              	.LVL103:
 162:..\u8g2\csrc/u8x8_byte.c **** 
 827              		.loc 1 162 0
 828 0104 BDE8F087 		pop	{r4, r5, r6, r7, r8, r9, r10, pc}
 829              		.cfi_endproc
 830              	.LFE6:
 831              		.size	u8x8_byte_4wire_sw_spi, .-u8x8_byte_4wire_sw_spi
 832              		.section	.text.u8x8_byte_8bit_6800mode,"ax",%progbits
 833              		.align	2
 834              		.global	u8x8_byte_8bit_6800mode
 835              		.thumb
 836              		.thumb_func
 837              		.type	u8x8_byte_8bit_6800mode, %function
 838              	u8x8_byte_8bit_6800mode:
 839              	.LFB7:
 167:..\u8g2\csrc/u8x8_byte.c ****   uint8_t i, b;
 840              		.loc 1 167 0
 841              		.cfi_startproc
 842              		@ args = 0, pretend = 0, frame = 0
ARM GAS  C:\Users\brian\AppData\Local\Temp\cc2Kbm4j.s 			page 27


 843              		@ frame_needed = 0, uses_anonymous_args = 0
 844              	.LVL104:
 845 0000 2DE9F041 		push	{r4, r5, r6, r7, r8, lr}
 846              		.cfi_def_cfa_offset 24
 847              		.cfi_offset 4, -24
 848              		.cfi_offset 5, -20
 849              		.cfi_offset 6, -16
 850              		.cfi_offset 7, -12
 851              		.cfi_offset 8, -8
 852              		.cfi_offset 14, -4
 853 0004 0646     		mov	r6, r0
 854 0006 1746     		mov	r7, r2
 855 0008 9846     		mov	r8, r3
 171:..\u8g2\csrc/u8x8_byte.c ****   {
 856              		.loc 1 171 0
 857 000a 1439     		subs	r1, r1, #20
 858              	.LVL105:
 859 000c 0C29     		cmp	r1, #12
 860 000e 65D8     		bhi	.L63
 861 0010 DFE801F0 		tbb	[pc, r1]
 862              	.LVL106:
 863              	.L55:
 864 0014 33       		.byte	(.L54-.L55)/2
 865 0015 64       		.byte	(.L63-.L55)/2
 866 0016 64       		.byte	(.L63-.L55)/2
 867 0017 2E       		.byte	(.L56-.L55)/2
 868 0018 46       		.byte	(.L57-.L55)/2
 869 0019 55       		.byte	(.L58-.L55)/2
 870 001a 64       		.byte	(.L63-.L55)/2
 871 001b 64       		.byte	(.L63-.L55)/2
 872 001c 64       		.byte	(.L63-.L55)/2
 873 001d 64       		.byte	(.L63-.L55)/2
 874 001e 64       		.byte	(.L63-.L55)/2
 875 001f 64       		.byte	(.L63-.L55)/2
 876 0020 40       		.byte	(.L59-.L55)/2
 877 0021 00       		.p2align 1
 878              	.L62:
 177:..\u8g2\csrc/u8x8_byte.c **** 	data++;
 879              		.loc 1 177 0
 880 0022 18F8015B 		ldrb	r5, [r8], #1	@ zero_extendqisi2
 881              	.LVL107:
 179:..\u8g2\csrc/u8x8_byte.c **** 	for( i = U8X8_MSG_GPIO_D0; i <= U8X8_MSG_GPIO_D7; i++ )
 882              		.loc 1 179 0
 883 0026 013F     		subs	r7, r7, #1
 884              	.LVL108:
 885 0028 FFB2     		uxtb	r7, r7
 886              	.LVL109:
 180:..\u8g2\csrc/u8x8_byte.c **** 	{
 887              		.loc 1 180 0
 888 002a 4024     		movs	r4, #64
 889 002c 08E0     		b	.L60
 890              	.LVL110:
 891              	.L61:
 182:..\u8g2\csrc/u8x8_byte.c **** 	  b >>= 1;
 892              		.loc 1 182 0 discriminator 3
 893 002e 05F00102 		and	r2, r5, #1
 894 0032 2146     		mov	r1, r4
ARM GAS  C:\Users\brian\AppData\Local\Temp\cc2Kbm4j.s 			page 28


 895 0034 3046     		mov	r0, r6
 896 0036 FFF7FEFF 		bl	u8x8_gpio_call
 897              	.LVL111:
 183:..\u8g2\csrc/u8x8_byte.c **** 	}    
 898              		.loc 1 183 0 discriminator 3
 899 003a 6D08     		lsrs	r5, r5, #1
 900              	.LVL112:
 180:..\u8g2\csrc/u8x8_byte.c **** 	{
 901              		.loc 1 180 0 discriminator 3
 902 003c 0134     		adds	r4, r4, #1
 903              	.LVL113:
 904 003e E4B2     		uxtb	r4, r4
 905              	.LVL114:
 906              	.L60:
 180:..\u8g2\csrc/u8x8_byte.c **** 	{
 907              		.loc 1 180 0 is_stmt 0 discriminator 1
 908 0040 472C     		cmp	r4, #71
 909 0042 F4D9     		bls	.L61
 186:..\u8g2\csrc/u8x8_byte.c **** 	u8x8_gpio_call(u8x8, U8X8_MSG_GPIO_E, 1);
 910              		.loc 1 186 0 is_stmt 1
 911 0044 3368     		ldr	r3, [r6]
 912 0046 9A7B     		ldrb	r2, [r3, #14]	@ zero_extendqisi2
 913 0048 2C21     		movs	r1, #44
 914 004a 3046     		mov	r0, r6
 915 004c FFF7FEFF 		bl	u8x8_gpio_call
 916              	.LVL115:
 187:..\u8g2\csrc/u8x8_byte.c **** 	u8x8_gpio_Delay(u8x8, U8X8_MSG_DELAY_NANO, u8x8->display_info->write_pulse_width_ns);
 917              		.loc 1 187 0
 918 0050 0122     		movs	r2, #1
 919 0052 4821     		movs	r1, #72
 920 0054 3046     		mov	r0, r6
 921 0056 FFF7FEFF 		bl	u8x8_gpio_call
 922              	.LVL116:
 188:..\u8g2\csrc/u8x8_byte.c **** 	u8x8_gpio_call(u8x8, U8X8_MSG_GPIO_E, 0);
 923              		.loc 1 188 0
 924 005a 3368     		ldr	r3, [r6]
 925 005c DA7B     		ldrb	r2, [r3, #15]	@ zero_extendqisi2
 926 005e 2C21     		movs	r1, #44
 927 0060 3046     		mov	r0, r6
 928 0062 FFF7FEFF 		bl	u8x8_gpio_call
 929              	.LVL117:
 189:..\u8g2\csrc/u8x8_byte.c ****       }
 930              		.loc 1 189 0
 931 0066 0022     		movs	r2, #0
 932 0068 4821     		movs	r1, #72
 933 006a 3046     		mov	r0, r6
 934 006c FFF7FEFF 		bl	u8x8_gpio_call
 935              	.LVL118:
 936              	.L56:
 175:..\u8g2\csrc/u8x8_byte.c ****       {
 937              		.loc 1 175 0
 938 0070 002F     		cmp	r7, #0
 939 0072 D6D1     		bne	.L62
 213:..\u8g2\csrc/u8x8_byte.c **** }
 940              		.loc 1 213 0
 941 0074 0120     		movs	r0, #1
 942 0076 BDE8F081 		pop	{r4, r5, r6, r7, r8, pc}
ARM GAS  C:\Users\brian\AppData\Local\Temp\cc2Kbm4j.s 			page 29


 943              	.LVL119:
 944              	.L54:
 195:..\u8g2\csrc/u8x8_byte.c ****       /* ensure that the enable signal is high */
 945              		.loc 1 195 0
 946 007a 0368     		ldr	r3, [r0]
 947 007c 5A78     		ldrb	r2, [r3, #1]	@ zero_extendqisi2
 948              	.LVL120:
 949 007e 4921     		movs	r1, #73
 950 0080 FFF7FEFF 		bl	u8x8_gpio_call
 951              	.LVL121:
 197:..\u8g2\csrc/u8x8_byte.c ****       break;
 952              		.loc 1 197 0
 953 0084 0022     		movs	r2, #0
 954 0086 4821     		movs	r1, #72
 955 0088 3046     		mov	r0, r6
 956 008a FFF7FEFF 		bl	u8x8_gpio_call
 957              	.LVL122:
 213:..\u8g2\csrc/u8x8_byte.c **** }
 958              		.loc 1 213 0
 959 008e 0120     		movs	r0, #1
 198:..\u8g2\csrc/u8x8_byte.c ****     case U8X8_MSG_BYTE_SET_DC:
 960              		.loc 1 198 0
 961 0090 BDE8F081 		pop	{r4, r5, r6, r7, r8, pc}
 962              	.LVL123:
 963              	.L59:
 200:..\u8g2\csrc/u8x8_byte.c ****       break;
 964              		.loc 1 200 0
 965 0094 4A21     		movs	r1, #74
 966 0096 FFF7FEFF 		bl	u8x8_gpio_call
 967              	.LVL124:
 213:..\u8g2\csrc/u8x8_byte.c **** }
 968              		.loc 1 213 0
 969 009a 0120     		movs	r0, #1
 201:..\u8g2\csrc/u8x8_byte.c ****     case U8X8_MSG_BYTE_START_TRANSFER:
 970              		.loc 1 201 0
 971 009c BDE8F081 		pop	{r4, r5, r6, r7, r8, pc}
 972              	.LVL125:
 973              	.L57:
 203:..\u8g2\csrc/u8x8_byte.c ****       u8x8->gpio_and_delay_cb(u8x8, U8X8_MSG_DELAY_NANO, u8x8->display_info->post_chip_enable_wait_
 974              		.loc 1 203 0
 975 00a0 0368     		ldr	r3, [r0]
 976 00a2 1A78     		ldrb	r2, [r3]	@ zero_extendqisi2
 977              	.LVL126:
 978 00a4 4921     		movs	r1, #73
 979 00a6 FFF7FEFF 		bl	u8x8_gpio_call
 980              	.LVL127:
 204:..\u8g2\csrc/u8x8_byte.c ****       break;
 981              		.loc 1 204 0
 982 00aa 7469     		ldr	r4, [r6, #20]
 983 00ac 3268     		ldr	r2, [r6]
 984 00ae 0023     		movs	r3, #0
 985 00b0 9278     		ldrb	r2, [r2, #2]	@ zero_extendqisi2
 986 00b2 2C21     		movs	r1, #44
 987 00b4 3046     		mov	r0, r6
 988 00b6 A047     		blx	r4
 989              	.LVL128:
 213:..\u8g2\csrc/u8x8_byte.c **** }
ARM GAS  C:\Users\brian\AppData\Local\Temp\cc2Kbm4j.s 			page 30


 990              		.loc 1 213 0
 991 00b8 0120     		movs	r0, #1
 205:..\u8g2\csrc/u8x8_byte.c ****     case U8X8_MSG_BYTE_END_TRANSFER:
 992              		.loc 1 205 0
 993 00ba BDE8F081 		pop	{r4, r5, r6, r7, r8, pc}
 994              	.LVL129:
 995              	.L58:
 207:..\u8g2\csrc/u8x8_byte.c ****       u8x8_gpio_SetCS(u8x8, u8x8->display_info->chip_disable_level);
 996              		.loc 1 207 0
 997 00be 4469     		ldr	r4, [r0, #20]
 998 00c0 0268     		ldr	r2, [r0]
 999              	.LVL130:
 1000 00c2 0023     		movs	r3, #0
 1001 00c4 D278     		ldrb	r2, [r2, #3]	@ zero_extendqisi2
 1002 00c6 2C21     		movs	r1, #44
 1003 00c8 A047     		blx	r4
 1004              	.LVL131:
 208:..\u8g2\csrc/u8x8_byte.c ****       break;
 1005              		.loc 1 208 0
 1006 00ca 3368     		ldr	r3, [r6]
 1007 00cc 5A78     		ldrb	r2, [r3, #1]	@ zero_extendqisi2
 1008 00ce 4921     		movs	r1, #73
 1009 00d0 3046     		mov	r0, r6
 1010 00d2 FFF7FEFF 		bl	u8x8_gpio_call
 1011              	.LVL132:
 213:..\u8g2\csrc/u8x8_byte.c **** }
 1012              		.loc 1 213 0
 1013 00d6 0120     		movs	r0, #1
 209:..\u8g2\csrc/u8x8_byte.c ****     default:
 1014              		.loc 1 209 0
 1015 00d8 BDE8F081 		pop	{r4, r5, r6, r7, r8, pc}
 1016              	.LVL133:
 1017              	.L63:
 211:..\u8g2\csrc/u8x8_byte.c ****   }
 1018              		.loc 1 211 0
 1019 00dc 0020     		movs	r0, #0
 1020              	.LVL134:
 214:..\u8g2\csrc/u8x8_byte.c **** 
 1021              		.loc 1 214 0
 1022 00de BDE8F081 		pop	{r4, r5, r6, r7, r8, pc}
 1023              		.cfi_endproc
 1024              	.LFE7:
 1025              		.size	u8x8_byte_8bit_6800mode, .-u8x8_byte_8bit_6800mode
 1026 00e2 00BF     		.section	.text.u8x8_byte_8bit_8080mode,"ax",%progbits
 1027              		.align	2
 1028              		.global	u8x8_byte_8bit_8080mode
 1029              		.thumb
 1030              		.thumb_func
 1031              		.type	u8x8_byte_8bit_8080mode, %function
 1032              	u8x8_byte_8bit_8080mode:
 1033              	.LFB8:
 217:..\u8g2\csrc/u8x8_byte.c ****   uint8_t i, b;
 1034              		.loc 1 217 0
 1035              		.cfi_startproc
 1036              		@ args = 0, pretend = 0, frame = 0
 1037              		@ frame_needed = 0, uses_anonymous_args = 0
 1038              	.LVL135:
ARM GAS  C:\Users\brian\AppData\Local\Temp\cc2Kbm4j.s 			page 31


 1039 0000 2DE9F041 		push	{r4, r5, r6, r7, r8, lr}
 1040              		.cfi_def_cfa_offset 24
 1041              		.cfi_offset 4, -24
 1042              		.cfi_offset 5, -20
 1043              		.cfi_offset 6, -16
 1044              		.cfi_offset 7, -12
 1045              		.cfi_offset 8, -8
 1046              		.cfi_offset 14, -4
 1047 0004 0646     		mov	r6, r0
 1048 0006 1746     		mov	r7, r2
 1049 0008 9846     		mov	r8, r3
 221:..\u8g2\csrc/u8x8_byte.c ****   {
 1050              		.loc 1 221 0
 1051 000a 1439     		subs	r1, r1, #20
 1052              	.LVL136:
 1053 000c 0C29     		cmp	r1, #12
 1054 000e 65D8     		bhi	.L76
 1055 0010 DFE801F0 		tbb	[pc, r1]
 1056              	.LVL137:
 1057              	.L68:
 1058 0014 33       		.byte	(.L67-.L68)/2
 1059 0015 64       		.byte	(.L76-.L68)/2
 1060 0016 64       		.byte	(.L76-.L68)/2
 1061 0017 2E       		.byte	(.L69-.L68)/2
 1062 0018 46       		.byte	(.L70-.L68)/2
 1063 0019 55       		.byte	(.L71-.L68)/2
 1064 001a 64       		.byte	(.L76-.L68)/2
 1065 001b 64       		.byte	(.L76-.L68)/2
 1066 001c 64       		.byte	(.L76-.L68)/2
 1067 001d 64       		.byte	(.L76-.L68)/2
 1068 001e 64       		.byte	(.L76-.L68)/2
 1069 001f 64       		.byte	(.L76-.L68)/2
 1070 0020 40       		.byte	(.L72-.L68)/2
 1071 0021 00       		.p2align 1
 1072              	.L75:
 227:..\u8g2\csrc/u8x8_byte.c **** 	data++;
 1073              		.loc 1 227 0
 1074 0022 18F8015B 		ldrb	r5, [r8], #1	@ zero_extendqisi2
 1075              	.LVL138:
 229:..\u8g2\csrc/u8x8_byte.c **** 	for( i = U8X8_MSG_GPIO_D0; i <= U8X8_MSG_GPIO_D7; i++ )
 1076              		.loc 1 229 0
 1077 0026 013F     		subs	r7, r7, #1
 1078              	.LVL139:
 1079 0028 FFB2     		uxtb	r7, r7
 1080              	.LVL140:
 230:..\u8g2\csrc/u8x8_byte.c **** 	{
 1081              		.loc 1 230 0
 1082 002a 4024     		movs	r4, #64
 1083 002c 08E0     		b	.L73
 1084              	.LVL141:
 1085              	.L74:
 232:..\u8g2\csrc/u8x8_byte.c **** 	  b >>= 1;
 1086              		.loc 1 232 0 discriminator 3
 1087 002e 05F00102 		and	r2, r5, #1
 1088 0032 2146     		mov	r1, r4
 1089 0034 3046     		mov	r0, r6
 1090 0036 FFF7FEFF 		bl	u8x8_gpio_call
ARM GAS  C:\Users\brian\AppData\Local\Temp\cc2Kbm4j.s 			page 32


 1091              	.LVL142:
 233:..\u8g2\csrc/u8x8_byte.c **** 	}    
 1092              		.loc 1 233 0 discriminator 3
 1093 003a 6D08     		lsrs	r5, r5, #1
 1094              	.LVL143:
 230:..\u8g2\csrc/u8x8_byte.c **** 	{
 1095              		.loc 1 230 0 discriminator 3
 1096 003c 0134     		adds	r4, r4, #1
 1097              	.LVL144:
 1098 003e E4B2     		uxtb	r4, r4
 1099              	.LVL145:
 1100              	.L73:
 230:..\u8g2\csrc/u8x8_byte.c **** 	{
 1101              		.loc 1 230 0 is_stmt 0 discriminator 1
 1102 0040 472C     		cmp	r4, #71
 1103 0042 F4D9     		bls	.L74
 236:..\u8g2\csrc/u8x8_byte.c **** 	u8x8_gpio_call(u8x8, U8X8_MSG_GPIO_E, 0);
 1104              		.loc 1 236 0 is_stmt 1
 1105 0044 3368     		ldr	r3, [r6]
 1106 0046 9A7B     		ldrb	r2, [r3, #14]	@ zero_extendqisi2
 1107 0048 2C21     		movs	r1, #44
 1108 004a 3046     		mov	r0, r6
 1109 004c FFF7FEFF 		bl	u8x8_gpio_call
 1110              	.LVL146:
 237:..\u8g2\csrc/u8x8_byte.c **** 	u8x8_gpio_Delay(u8x8, U8X8_MSG_DELAY_NANO, u8x8->display_info->write_pulse_width_ns);
 1111              		.loc 1 237 0
 1112 0050 0022     		movs	r2, #0
 1113 0052 4821     		movs	r1, #72
 1114 0054 3046     		mov	r0, r6
 1115 0056 FFF7FEFF 		bl	u8x8_gpio_call
 1116              	.LVL147:
 238:..\u8g2\csrc/u8x8_byte.c **** 	u8x8_gpio_call(u8x8, U8X8_MSG_GPIO_E, 1);
 1117              		.loc 1 238 0
 1118 005a 3368     		ldr	r3, [r6]
 1119 005c DA7B     		ldrb	r2, [r3, #15]	@ zero_extendqisi2
 1120 005e 2C21     		movs	r1, #44
 1121 0060 3046     		mov	r0, r6
 1122 0062 FFF7FEFF 		bl	u8x8_gpio_call
 1123              	.LVL148:
 239:..\u8g2\csrc/u8x8_byte.c ****       }
 1124              		.loc 1 239 0
 1125 0066 0122     		movs	r2, #1
 1126 0068 4821     		movs	r1, #72
 1127 006a 3046     		mov	r0, r6
 1128 006c FFF7FEFF 		bl	u8x8_gpio_call
 1129              	.LVL149:
 1130              	.L69:
 225:..\u8g2\csrc/u8x8_byte.c ****       {
 1131              		.loc 1 225 0
 1132 0070 002F     		cmp	r7, #0
 1133 0072 D6D1     		bne	.L75
 263:..\u8g2\csrc/u8x8_byte.c **** }
 1134              		.loc 1 263 0
 1135 0074 0120     		movs	r0, #1
 1136 0076 BDE8F081 		pop	{r4, r5, r6, r7, r8, pc}
 1137              	.LVL150:
 1138              	.L67:
ARM GAS  C:\Users\brian\AppData\Local\Temp\cc2Kbm4j.s 			page 33


 245:..\u8g2\csrc/u8x8_byte.c ****       /* ensure that the enable signal is high */
 1139              		.loc 1 245 0
 1140 007a 0368     		ldr	r3, [r0]
 1141 007c 5A78     		ldrb	r2, [r3, #1]	@ zero_extendqisi2
 1142              	.LVL151:
 1143 007e 4921     		movs	r1, #73
 1144 0080 FFF7FEFF 		bl	u8x8_gpio_call
 1145              	.LVL152:
 247:..\u8g2\csrc/u8x8_byte.c ****       break;
 1146              		.loc 1 247 0
 1147 0084 0122     		movs	r2, #1
 1148 0086 4821     		movs	r1, #72
 1149 0088 3046     		mov	r0, r6
 1150 008a FFF7FEFF 		bl	u8x8_gpio_call
 1151              	.LVL153:
 263:..\u8g2\csrc/u8x8_byte.c **** }
 1152              		.loc 1 263 0
 1153 008e 0120     		movs	r0, #1
 248:..\u8g2\csrc/u8x8_byte.c ****     case U8X8_MSG_BYTE_SET_DC:
 1154              		.loc 1 248 0
 1155 0090 BDE8F081 		pop	{r4, r5, r6, r7, r8, pc}
 1156              	.LVL154:
 1157              	.L72:
 250:..\u8g2\csrc/u8x8_byte.c ****       break;
 1158              		.loc 1 250 0
 1159 0094 4A21     		movs	r1, #74
 1160 0096 FFF7FEFF 		bl	u8x8_gpio_call
 1161              	.LVL155:
 263:..\u8g2\csrc/u8x8_byte.c **** }
 1162              		.loc 1 263 0
 1163 009a 0120     		movs	r0, #1
 251:..\u8g2\csrc/u8x8_byte.c ****     case U8X8_MSG_BYTE_START_TRANSFER:
 1164              		.loc 1 251 0
 1165 009c BDE8F081 		pop	{r4, r5, r6, r7, r8, pc}
 1166              	.LVL156:
 1167              	.L70:
 253:..\u8g2\csrc/u8x8_byte.c ****       u8x8->gpio_and_delay_cb(u8x8, U8X8_MSG_DELAY_NANO, u8x8->display_info->post_chip_enable_wait_
 1168              		.loc 1 253 0
 1169 00a0 0368     		ldr	r3, [r0]
 1170 00a2 1A78     		ldrb	r2, [r3]	@ zero_extendqisi2
 1171              	.LVL157:
 1172 00a4 4921     		movs	r1, #73
 1173 00a6 FFF7FEFF 		bl	u8x8_gpio_call
 1174              	.LVL158:
 254:..\u8g2\csrc/u8x8_byte.c ****       break;
 1175              		.loc 1 254 0
 1176 00aa 7469     		ldr	r4, [r6, #20]
 1177 00ac 3268     		ldr	r2, [r6]
 1178 00ae 0023     		movs	r3, #0
 1179 00b0 9278     		ldrb	r2, [r2, #2]	@ zero_extendqisi2
 1180 00b2 2C21     		movs	r1, #44
 1181 00b4 3046     		mov	r0, r6
 1182 00b6 A047     		blx	r4
 1183              	.LVL159:
 263:..\u8g2\csrc/u8x8_byte.c **** }
 1184              		.loc 1 263 0
 1185 00b8 0120     		movs	r0, #1
ARM GAS  C:\Users\brian\AppData\Local\Temp\cc2Kbm4j.s 			page 34


 255:..\u8g2\csrc/u8x8_byte.c ****     case U8X8_MSG_BYTE_END_TRANSFER:
 1186              		.loc 1 255 0
 1187 00ba BDE8F081 		pop	{r4, r5, r6, r7, r8, pc}
 1188              	.LVL160:
 1189              	.L71:
 257:..\u8g2\csrc/u8x8_byte.c ****       u8x8_gpio_SetCS(u8x8, u8x8->display_info->chip_disable_level);
 1190              		.loc 1 257 0
 1191 00be 4469     		ldr	r4, [r0, #20]
 1192 00c0 0268     		ldr	r2, [r0]
 1193              	.LVL161:
 1194 00c2 0023     		movs	r3, #0
 1195 00c4 D278     		ldrb	r2, [r2, #3]	@ zero_extendqisi2
 1196 00c6 2C21     		movs	r1, #44
 1197 00c8 A047     		blx	r4
 1198              	.LVL162:
 258:..\u8g2\csrc/u8x8_byte.c ****       break;
 1199              		.loc 1 258 0
 1200 00ca 3368     		ldr	r3, [r6]
 1201 00cc 5A78     		ldrb	r2, [r3, #1]	@ zero_extendqisi2
 1202 00ce 4921     		movs	r1, #73
 1203 00d0 3046     		mov	r0, r6
 1204 00d2 FFF7FEFF 		bl	u8x8_gpio_call
 1205              	.LVL163:
 263:..\u8g2\csrc/u8x8_byte.c **** }
 1206              		.loc 1 263 0
 1207 00d6 0120     		movs	r0, #1
 259:..\u8g2\csrc/u8x8_byte.c ****     default:
 1208              		.loc 1 259 0
 1209 00d8 BDE8F081 		pop	{r4, r5, r6, r7, r8, pc}
 1210              	.LVL164:
 1211              	.L76:
 261:..\u8g2\csrc/u8x8_byte.c ****   }
 1212              		.loc 1 261 0
 1213 00dc 0020     		movs	r0, #0
 1214              	.LVL165:
 264:..\u8g2\csrc/u8x8_byte.c **** 
 1215              		.loc 1 264 0
 1216 00de BDE8F081 		pop	{r4, r5, r6, r7, r8, pc}
 1217              		.cfi_endproc
 1218              	.LFE8:
 1219              		.size	u8x8_byte_8bit_8080mode, .-u8x8_byte_8bit_8080mode
 1220 00e2 00BF     		.section	.text.u8x8_byte_3wire_sw_spi,"ax",%progbits
 1221              		.align	2
 1222              		.global	u8x8_byte_3wire_sw_spi
 1223              		.thumb
 1224              		.thumb_func
 1225              		.type	u8x8_byte_3wire_sw_spi, %function
 1226              	u8x8_byte_3wire_sw_spi:
 1227              	.LFB9:
 269:..\u8g2\csrc/u8x8_byte.c ****   uint8_t i;
 1228              		.loc 1 269 0
 1229              		.cfi_startproc
 1230              		@ args = 0, pretend = 0, frame = 0
 1231              		@ frame_needed = 0, uses_anonymous_args = 0
 1232              	.LVL166:
 1233 0000 2DE9F047 		push	{r4, r5, r6, r7, r8, r9, r10, lr}
 1234              		.cfi_def_cfa_offset 32
ARM GAS  C:\Users\brian\AppData\Local\Temp\cc2Kbm4j.s 			page 35


 1235              		.cfi_offset 4, -32
 1236              		.cfi_offset 5, -28
 1237              		.cfi_offset 6, -24
 1238              		.cfi_offset 7, -20
 1239              		.cfi_offset 8, -16
 1240              		.cfi_offset 9, -12
 1241              		.cfi_offset 10, -8
 1242              		.cfi_offset 14, -4
 1243 0004 0446     		mov	r4, r0
 1244 0006 9146     		mov	r9, r2
 1245 0008 9A46     		mov	r10, r3
 272:..\u8g2\csrc/u8x8_byte.c ****   uint8_t not_takeover_edge = 1 - takeover_edge;
 1246              		.loc 1 272 0
 1247 000a 0268     		ldr	r2, [r0]
 1248              	.LVL167:
 1249 000c 177B     		ldrb	r7, [r2, #12]	@ zero_extendqisi2
 1250 000e 07F00107 		and	r7, r7, #1
 1251              	.LVL168:
 273:..\u8g2\csrc/u8x8_byte.c ****   uint16_t b;
 1252              		.loc 1 273 0
 1253 0012 87F00108 		eor	r8, r7, #1
 1254              	.LVL169:
 277:..\u8g2\csrc/u8x8_byte.c ****   {
 1255              		.loc 1 277 0
 1256 0016 1439     		subs	r1, r1, #20
 1257              	.LVL170:
 1258 0018 0C29     		cmp	r1, #12
 1259 001a 79D8     		bhi	.L92
 1260 001c DFE801F0 		tbb	[pc, r1]
 1261              	.LVL171:
 1262              	.L81:
 1263 0020 47       		.byte	(.L80-.L81)/2
 1264 0021 78       		.byte	(.L92-.L81)/2
 1265 0022 78       		.byte	(.L92-.L81)/2
 1266 0023 41       		.byte	(.L82-.L81)/2
 1267 0024 5C       		.byte	(.L83-.L81)/2
 1268 0025 6A       		.byte	(.L84-.L81)/2
 1269 0026 78       		.byte	(.L92-.L81)/2
 1270 0027 78       		.byte	(.L92-.L81)/2
 1271 0028 78       		.byte	(.L92-.L81)/2
 1272 0029 78       		.byte	(.L92-.L81)/2
 1273 002a 78       		.byte	(.L92-.L81)/2
 1274 002b 78       		.byte	(.L92-.L81)/2
 1275 002c 56       		.byte	(.L85-.L81)/2
 1276 002d 00       		.p2align 1
 1277              	.L91:
 283:..\u8g2\csrc/u8x8_byte.c **** 	if ( last_dc != 0 )
 1278              		.loc 1 283 0
 1279 002e 9AF80060 		ldrb	r6, [r10]	@ zero_extendqisi2
 1280              	.LVL172:
 284:..\u8g2\csrc/u8x8_byte.c **** 	  b |= 256;
 1281              		.loc 1 284 0
 1282 0032 394B     		ldr	r3, .L94
 1283 0034 1B78     		ldrb	r3, [r3]	@ zero_extendqisi2
 1284 0036 0BB1     		cbz	r3, .L86
 285:..\u8g2\csrc/u8x8_byte.c **** 	data++;
 1285              		.loc 1 285 0
ARM GAS  C:\Users\brian\AppData\Local\Temp\cc2Kbm4j.s 			page 36


 1286 0038 46F48076 		orr	r6, r6, #256
 1287              	.LVL173:
 1288              	.L86:
 286:..\u8g2\csrc/u8x8_byte.c **** 	arg_int--;
 1289              		.loc 1 286 0
 1290 003c 0AF1010A 		add	r10, r10, #1
 1291              	.LVL174:
 287:..\u8g2\csrc/u8x8_byte.c **** 	for( i = 0; i < 9; i++ )
 1292              		.loc 1 287 0
 1293 0040 09F1FF39 		add	r9, r9, #-1
 1294              	.LVL175:
 1295 0044 5FFA89F9 		uxtb	r9, r9
 1296              	.LVL176:
 288:..\u8g2\csrc/u8x8_byte.c **** 	{
 1297              		.loc 1 288 0
 1298 0048 0025     		movs	r5, #0
 1299 004a 28E0     		b	.L87
 1300              	.LVL177:
 1301              	.L90:
 290:..\u8g2\csrc/u8x8_byte.c **** 	    u8x8_gpio_SetSPIData(u8x8, 1);
 1302              		.loc 1 290 0
 1303 004c 06F48073 		and	r3, r6, #256
 1304 0050 9BB2     		uxth	r3, r3
 1305 0052 2BB1     		cbz	r3, .L88
 291:..\u8g2\csrc/u8x8_byte.c **** 	  else
 1306              		.loc 1 291 0
 1307 0054 0122     		movs	r2, #1
 1308 0056 4121     		movs	r1, #65
 1309 0058 2046     		mov	r0, r4
 1310 005a FFF7FEFF 		bl	u8x8_gpio_call
 1311              	.LVL178:
 1312 005e 04E0     		b	.L89
 1313              	.L88:
 293:..\u8g2\csrc/u8x8_byte.c **** 	  b <<= 1;
 1314              		.loc 1 293 0
 1315 0060 0022     		movs	r2, #0
 1316 0062 4121     		movs	r1, #65
 1317 0064 2046     		mov	r0, r4
 1318 0066 FFF7FEFF 		bl	u8x8_gpio_call
 1319              	.LVL179:
 1320              	.L89:
 294:..\u8g2\csrc/u8x8_byte.c **** 	  
 1321              		.loc 1 294 0 discriminator 2
 1322 006a 7600     		lsls	r6, r6, #1
 1323              	.LVL180:
 1324 006c B6B2     		uxth	r6, r6
 1325              	.LVL181:
 296:..\u8g2\csrc/u8x8_byte.c **** 	  u8x8_gpio_Delay(u8x8, U8X8_MSG_DELAY_NANO, u8x8->display_info->sda_setup_time_ns);
 1326              		.loc 1 296 0 discriminator 2
 1327 006e 4246     		mov	r2, r8
 1328 0070 4021     		movs	r1, #64
 1329 0072 2046     		mov	r0, r4
 1330 0074 FFF7FEFF 		bl	u8x8_gpio_call
 1331              	.LVL182:
 297:..\u8g2\csrc/u8x8_byte.c **** 	  u8x8_gpio_SetSPIClock(u8x8, takeover_edge);
 1332              		.loc 1 297 0 discriminator 2
 1333 0078 2368     		ldr	r3, [r4]
ARM GAS  C:\Users\brian\AppData\Local\Temp\cc2Kbm4j.s 			page 37


 1334 007a 9A79     		ldrb	r2, [r3, #6]	@ zero_extendqisi2
 1335 007c 2C21     		movs	r1, #44
 1336 007e 2046     		mov	r0, r4
 1337 0080 FFF7FEFF 		bl	u8x8_gpio_call
 1338              	.LVL183:
 298:..\u8g2\csrc/u8x8_byte.c **** 	  u8x8_gpio_Delay(u8x8, U8X8_MSG_DELAY_NANO, u8x8->display_info->sck_pulse_width_ns);
 1339              		.loc 1 298 0 discriminator 2
 1340 0084 3A46     		mov	r2, r7
 1341 0086 4021     		movs	r1, #64
 1342 0088 2046     		mov	r0, r4
 1343 008a FFF7FEFF 		bl	u8x8_gpio_call
 1344              	.LVL184:
 299:..\u8g2\csrc/u8x8_byte.c **** 	}    
 1345              		.loc 1 299 0 discriminator 2
 1346 008e 2368     		ldr	r3, [r4]
 1347 0090 DA79     		ldrb	r2, [r3, #7]	@ zero_extendqisi2
 1348 0092 2C21     		movs	r1, #44
 1349 0094 2046     		mov	r0, r4
 1350 0096 FFF7FEFF 		bl	u8x8_gpio_call
 1351              	.LVL185:
 288:..\u8g2\csrc/u8x8_byte.c **** 	{
 1352              		.loc 1 288 0 discriminator 2
 1353 009a 0135     		adds	r5, r5, #1
 1354              	.LVL186:
 1355 009c EDB2     		uxtb	r5, r5
 1356              	.LVL187:
 1357              	.L87:
 288:..\u8g2\csrc/u8x8_byte.c **** 	{
 1358              		.loc 1 288 0 is_stmt 0 discriminator 1
 1359 009e 082D     		cmp	r5, #8
 1360 00a0 D4D9     		bls	.L90
 1361              	.LVL188:
 1362              	.L82:
 281:..\u8g2\csrc/u8x8_byte.c ****       {
 1363              		.loc 1 281 0 is_stmt 1
 1364 00a2 B9F1000F 		cmp	r9, #0
 1365 00a6 C2D1     		bne	.L91
 326:..\u8g2\csrc/u8x8_byte.c **** }
 1366              		.loc 1 326 0
 1367 00a8 0120     		movs	r0, #1
 1368 00aa BDE8F087 		pop	{r4, r5, r6, r7, r8, r9, r10, pc}
 1369              	.LVL189:
 1370              	.L80:
 306:..\u8g2\csrc/u8x8_byte.c ****       /* no wait required here */
 1371              		.loc 1 306 0
 1372 00ae 5278     		ldrb	r2, [r2, #1]	@ zero_extendqisi2
 1373 00b0 4921     		movs	r1, #73
 1374 00b2 FFF7FEFF 		bl	u8x8_gpio_call
 1375              	.LVL190:
 310:..\u8g2\csrc/u8x8_byte.c ****       break;
 1376              		.loc 1 310 0
 1377 00b6 2368     		ldr	r3, [r4]
 1378 00b8 1A7B     		ldrb	r2, [r3, #12]	@ zero_extendqisi2
 1379 00ba 02F00102 		and	r2, r2, #1
 1380 00be 4021     		movs	r1, #64
 1381 00c0 2046     		mov	r0, r4
 1382 00c2 FFF7FEFF 		bl	u8x8_gpio_call
ARM GAS  C:\Users\brian\AppData\Local\Temp\cc2Kbm4j.s 			page 38


 1383              	.LVL191:
 326:..\u8g2\csrc/u8x8_byte.c **** }
 1384              		.loc 1 326 0
 1385 00c6 0120     		movs	r0, #1
 311:..\u8g2\csrc/u8x8_byte.c ****     case U8X8_MSG_BYTE_SET_DC:
 1386              		.loc 1 311 0
 1387 00c8 BDE8F087 		pop	{r4, r5, r6, r7, r8, r9, r10, pc}
 1388              	.LVL192:
 1389              	.L85:
 313:..\u8g2\csrc/u8x8_byte.c ****       break;
 1390              		.loc 1 313 0
 1391 00cc 124B     		ldr	r3, .L94
 1392 00ce 83F80090 		strb	r9, [r3]
 326:..\u8g2\csrc/u8x8_byte.c **** }
 1393              		.loc 1 326 0
 1394 00d2 0120     		movs	r0, #1
 1395              	.LVL193:
 314:..\u8g2\csrc/u8x8_byte.c ****     case U8X8_MSG_BYTE_START_TRANSFER:
 1396              		.loc 1 314 0
 1397 00d4 BDE8F087 		pop	{r4, r5, r6, r7, r8, r9, r10, pc}
 1398              	.LVL194:
 1399              	.L83:
 316:..\u8g2\csrc/u8x8_byte.c ****       u8x8->gpio_and_delay_cb(u8x8, U8X8_MSG_DELAY_NANO, u8x8->display_info->post_chip_enable_wait_
 1400              		.loc 1 316 0
 1401 00d8 1278     		ldrb	r2, [r2]	@ zero_extendqisi2
 1402 00da 4921     		movs	r1, #73
 1403 00dc FFF7FEFF 		bl	u8x8_gpio_call
 1404              	.LVL195:
 317:..\u8g2\csrc/u8x8_byte.c ****       break;
 1405              		.loc 1 317 0
 1406 00e0 6569     		ldr	r5, [r4, #20]
 1407 00e2 2268     		ldr	r2, [r4]
 1408 00e4 0023     		movs	r3, #0
 1409 00e6 9278     		ldrb	r2, [r2, #2]	@ zero_extendqisi2
 1410 00e8 2C21     		movs	r1, #44
 1411 00ea 2046     		mov	r0, r4
 1412 00ec A847     		blx	r5
 1413              	.LVL196:
 326:..\u8g2\csrc/u8x8_byte.c **** }
 1414              		.loc 1 326 0
 1415 00ee 0120     		movs	r0, #1
 318:..\u8g2\csrc/u8x8_byte.c ****     case U8X8_MSG_BYTE_END_TRANSFER:
 1416              		.loc 1 318 0
 1417 00f0 BDE8F087 		pop	{r4, r5, r6, r7, r8, r9, r10, pc}
 1418              	.LVL197:
 1419              	.L84:
 320:..\u8g2\csrc/u8x8_byte.c ****       u8x8_gpio_SetCS(u8x8, u8x8->display_info->chip_disable_level);
 1420              		.loc 1 320 0
 1421 00f4 4569     		ldr	r5, [r0, #20]
 1422 00f6 0023     		movs	r3, #0
 1423 00f8 D278     		ldrb	r2, [r2, #3]	@ zero_extendqisi2
 1424 00fa 2C21     		movs	r1, #44
 1425 00fc A847     		blx	r5
 1426              	.LVL198:
 321:..\u8g2\csrc/u8x8_byte.c ****       break;
 1427              		.loc 1 321 0
 1428 00fe 2368     		ldr	r3, [r4]
ARM GAS  C:\Users\brian\AppData\Local\Temp\cc2Kbm4j.s 			page 39


 1429 0100 5A78     		ldrb	r2, [r3, #1]	@ zero_extendqisi2
 1430 0102 4921     		movs	r1, #73
 1431 0104 2046     		mov	r0, r4
 1432 0106 FFF7FEFF 		bl	u8x8_gpio_call
 1433              	.LVL199:
 326:..\u8g2\csrc/u8x8_byte.c **** }
 1434              		.loc 1 326 0
 1435 010a 0120     		movs	r0, #1
 322:..\u8g2\csrc/u8x8_byte.c ****     default:
 1436              		.loc 1 322 0
 1437 010c BDE8F087 		pop	{r4, r5, r6, r7, r8, r9, r10, pc}
 1438              	.LVL200:
 1439              	.L92:
 324:..\u8g2\csrc/u8x8_byte.c ****   }
 1440              		.loc 1 324 0
 1441 0110 0020     		movs	r0, #0
 1442              	.LVL201:
 327:..\u8g2\csrc/u8x8_byte.c **** 
 1443              		.loc 1 327 0
 1444 0112 BDE8F087 		pop	{r4, r5, r6, r7, r8, r9, r10, pc}
 1445              	.LVL202:
 1446              	.L95:
 1447 0116 00BF     		.align	2
 1448              	.L94:
 1449 0118 00000000 		.word	.LANCHOR0
 1450              		.cfi_endproc
 1451              	.LFE9:
 1452              		.size	u8x8_byte_3wire_sw_spi, .-u8x8_byte_3wire_sw_spi
 1453              		.section	.text.u8x8_byte_set_ks0108_cs,"ax",%progbits
 1454              		.align	2
 1455              		.global	u8x8_byte_set_ks0108_cs
 1456              		.thumb
 1457              		.thumb_func
 1458              		.type	u8x8_byte_set_ks0108_cs, %function
 1459              	u8x8_byte_set_ks0108_cs:
 1460              	.LFB10:
 332:..\u8g2\csrc/u8x8_byte.c ****   u8x8_gpio_SetCS(u8x8, arg&1);
 1461              		.loc 1 332 0
 1462              		.cfi_startproc
 1463              		@ args = 0, pretend = 0, frame = 0
 1464              		@ frame_needed = 0, uses_anonymous_args = 0
 1465              	.LVL203:
 1466 0000 38B5     		push	{r3, r4, r5, lr}
 1467              		.cfi_def_cfa_offset 16
 1468              		.cfi_offset 3, -16
 1469              		.cfi_offset 4, -12
 1470              		.cfi_offset 5, -8
 1471              		.cfi_offset 14, -4
 1472 0002 0546     		mov	r5, r0
 1473 0004 0C46     		mov	r4, r1
 333:..\u8g2\csrc/u8x8_byte.c ****   arg = arg >> 1;
 1474              		.loc 1 333 0
 1475 0006 01F00102 		and	r2, r1, #1
 1476 000a 4921     		movs	r1, #73
 1477              	.LVL204:
 1478 000c FFF7FEFF 		bl	u8x8_gpio_call
 1479              	.LVL205:
ARM GAS  C:\Users\brian\AppData\Local\Temp\cc2Kbm4j.s 			page 40


 334:..\u8g2\csrc/u8x8_byte.c ****   u8x8_gpio_call(u8x8, U8X8_MSG_GPIO_CS1, arg&1);
 1480              		.loc 1 334 0
 1481 0010 6408     		lsrs	r4, r4, #1
 1482              	.LVL206:
 335:..\u8g2\csrc/u8x8_byte.c ****   arg = arg >> 1;
 1483              		.loc 1 335 0
 1484 0012 04F00102 		and	r2, r4, #1
 1485 0016 4E21     		movs	r1, #78
 1486 0018 2846     		mov	r0, r5
 1487 001a FFF7FEFF 		bl	u8x8_gpio_call
 1488              	.LVL207:
 337:..\u8g2\csrc/u8x8_byte.c **** }
 1489              		.loc 1 337 0
 1490 001e C4F34002 		ubfx	r2, r4, #1, #1
 1491 0022 4F21     		movs	r1, #79
 1492 0024 2846     		mov	r0, r5
 1493 0026 FFF7FEFF 		bl	u8x8_gpio_call
 1494              	.LVL208:
 1495 002a 38BD     		pop	{r3, r4, r5, pc}
 1496              		.cfi_endproc
 1497              	.LFE10:
 1498              		.size	u8x8_byte_set_ks0108_cs, .-u8x8_byte_set_ks0108_cs
 1499              		.section	.text.u8x8_byte_ks0108,"ax",%progbits
 1500              		.align	2
 1501              		.global	u8x8_byte_ks0108
 1502              		.thumb
 1503              		.thumb_func
 1504              		.type	u8x8_byte_ks0108, %function
 1505              	u8x8_byte_ks0108:
 1506              	.LFB11:
 342:..\u8g2\csrc/u8x8_byte.c ****   uint8_t i, b;
 1507              		.loc 1 342 0
 1508              		.cfi_startproc
 1509              		@ args = 0, pretend = 0, frame = 0
 1510              		@ frame_needed = 0, uses_anonymous_args = 0
 1511              	.LVL209:
 1512 0000 2DE9F041 		push	{r4, r5, r6, r7, r8, lr}
 1513              		.cfi_def_cfa_offset 24
 1514              		.cfi_offset 4, -24
 1515              		.cfi_offset 5, -20
 1516              		.cfi_offset 6, -16
 1517              		.cfi_offset 7, -12
 1518              		.cfi_offset 8, -8
 1519              		.cfi_offset 14, -4
 1520 0004 0646     		mov	r6, r0
 1521 0006 1746     		mov	r7, r2
 1522 0008 9846     		mov	r8, r3
 346:..\u8g2\csrc/u8x8_byte.c ****   {
 1523              		.loc 1 346 0
 1524 000a 1439     		subs	r1, r1, #20
 1525              	.LVL210:
 1526 000c 0C29     		cmp	r1, #12
 1527 000e 61D8     		bhi	.L109
 1528 0010 DFE801F0 		tbb	[pc, r1]
 1529              	.LVL211:
 1530              	.L101:
 1531 0014 33       		.byte	(.L100-.L101)/2
ARM GAS  C:\Users\brian\AppData\Local\Temp\cc2Kbm4j.s 			page 41


 1532 0015 60       		.byte	(.L109-.L101)/2
 1533 0016 60       		.byte	(.L109-.L101)/2
 1534 0017 2E       		.byte	(.L102-.L101)/2
 1535 0018 46       		.byte	(.L103-.L101)/2
 1536 0019 53       		.byte	(.L104-.L101)/2
 1537 001a 60       		.byte	(.L109-.L101)/2
 1538 001b 60       		.byte	(.L109-.L101)/2
 1539 001c 60       		.byte	(.L109-.L101)/2
 1540 001d 60       		.byte	(.L109-.L101)/2
 1541 001e 60       		.byte	(.L109-.L101)/2
 1542 001f 60       		.byte	(.L109-.L101)/2
 1543 0020 40       		.byte	(.L105-.L101)/2
 1544 0021 00       		.p2align 1
 1545              	.L108:
 352:..\u8g2\csrc/u8x8_byte.c **** 	data++;
 1546              		.loc 1 352 0
 1547 0022 18F8015B 		ldrb	r5, [r8], #1	@ zero_extendqisi2
 1548              	.LVL212:
 354:..\u8g2\csrc/u8x8_byte.c **** 	for( i = U8X8_MSG_GPIO_D0; i <= U8X8_MSG_GPIO_D7; i++ )
 1549              		.loc 1 354 0
 1550 0026 013F     		subs	r7, r7, #1
 1551              	.LVL213:
 1552 0028 FFB2     		uxtb	r7, r7
 1553              	.LVL214:
 355:..\u8g2\csrc/u8x8_byte.c **** 	{
 1554              		.loc 1 355 0
 1555 002a 4024     		movs	r4, #64
 1556 002c 08E0     		b	.L106
 1557              	.LVL215:
 1558              	.L107:
 357:..\u8g2\csrc/u8x8_byte.c **** 	  b >>= 1;
 1559              		.loc 1 357 0 discriminator 3
 1560 002e 05F00102 		and	r2, r5, #1
 1561 0032 2146     		mov	r1, r4
 1562 0034 3046     		mov	r0, r6
 1563 0036 FFF7FEFF 		bl	u8x8_gpio_call
 1564              	.LVL216:
 358:..\u8g2\csrc/u8x8_byte.c **** 	}    
 1565              		.loc 1 358 0 discriminator 3
 1566 003a 6D08     		lsrs	r5, r5, #1
 1567              	.LVL217:
 355:..\u8g2\csrc/u8x8_byte.c **** 	{
 1568              		.loc 1 355 0 discriminator 3
 1569 003c 0134     		adds	r4, r4, #1
 1570              	.LVL218:
 1571 003e E4B2     		uxtb	r4, r4
 1572              	.LVL219:
 1573              	.L106:
 355:..\u8g2\csrc/u8x8_byte.c **** 	{
 1574              		.loc 1 355 0 is_stmt 0 discriminator 1
 1575 0040 472C     		cmp	r4, #71
 1576 0042 F4D9     		bls	.L107
 361:..\u8g2\csrc/u8x8_byte.c **** 	u8x8_gpio_call(u8x8, U8X8_MSG_GPIO_E, 1);
 1577              		.loc 1 361 0 is_stmt 1
 1578 0044 3368     		ldr	r3, [r6]
 1579 0046 9A7B     		ldrb	r2, [r3, #14]	@ zero_extendqisi2
 1580 0048 2C21     		movs	r1, #44
ARM GAS  C:\Users\brian\AppData\Local\Temp\cc2Kbm4j.s 			page 42


 1581 004a 3046     		mov	r0, r6
 1582 004c FFF7FEFF 		bl	u8x8_gpio_call
 1583              	.LVL220:
 362:..\u8g2\csrc/u8x8_byte.c **** 	u8x8_gpio_Delay(u8x8, U8X8_MSG_DELAY_NANO, u8x8->display_info->write_pulse_width_ns);
 1584              		.loc 1 362 0
 1585 0050 0122     		movs	r2, #1
 1586 0052 4821     		movs	r1, #72
 1587 0054 3046     		mov	r0, r6
 1588 0056 FFF7FEFF 		bl	u8x8_gpio_call
 1589              	.LVL221:
 363:..\u8g2\csrc/u8x8_byte.c **** 	u8x8_gpio_call(u8x8, U8X8_MSG_GPIO_E, 0);
 1590              		.loc 1 363 0
 1591 005a 3368     		ldr	r3, [r6]
 1592 005c DA7B     		ldrb	r2, [r3, #15]	@ zero_extendqisi2
 1593 005e 2C21     		movs	r1, #44
 1594 0060 3046     		mov	r0, r6
 1595 0062 FFF7FEFF 		bl	u8x8_gpio_call
 1596              	.LVL222:
 364:..\u8g2\csrc/u8x8_byte.c ****       }
 1597              		.loc 1 364 0
 1598 0066 0022     		movs	r2, #0
 1599 0068 4821     		movs	r1, #72
 1600 006a 3046     		mov	r0, r6
 1601 006c FFF7FEFF 		bl	u8x8_gpio_call
 1602              	.LVL223:
 1603              	.L102:
 350:..\u8g2\csrc/u8x8_byte.c ****       {
 1604              		.loc 1 350 0
 1605 0070 002F     		cmp	r7, #0
 1606 0072 D6D1     		bne	.L108
 389:..\u8g2\csrc/u8x8_byte.c **** }
 1607              		.loc 1 389 0
 1608 0074 0120     		movs	r0, #1
 1609 0076 BDE8F081 		pop	{r4, r5, r6, r7, r8, pc}
 1610              	.LVL224:
 1611              	.L100:
 370:..\u8g2\csrc/u8x8_byte.c ****       /* ensure that the enable signal is low */
 1612              		.loc 1 370 0
 1613 007a 0368     		ldr	r3, [r0]
 1614 007c 5A78     		ldrb	r2, [r3, #1]	@ zero_extendqisi2
 1615              	.LVL225:
 1616 007e 4921     		movs	r1, #73
 1617 0080 FFF7FEFF 		bl	u8x8_gpio_call
 1618              	.LVL226:
 372:..\u8g2\csrc/u8x8_byte.c ****       break;
 1619              		.loc 1 372 0
 1620 0084 0022     		movs	r2, #0
 1621 0086 4821     		movs	r1, #72
 1622 0088 3046     		mov	r0, r6
 1623 008a FFF7FEFF 		bl	u8x8_gpio_call
 1624              	.LVL227:
 389:..\u8g2\csrc/u8x8_byte.c **** }
 1625              		.loc 1 389 0
 1626 008e 0120     		movs	r0, #1
 373:..\u8g2\csrc/u8x8_byte.c ****     case U8X8_MSG_BYTE_SET_DC:
 1627              		.loc 1 373 0
 1628 0090 BDE8F081 		pop	{r4, r5, r6, r7, r8, pc}
ARM GAS  C:\Users\brian\AppData\Local\Temp\cc2Kbm4j.s 			page 43


 1629              	.LVL228:
 1630              	.L105:
 375:..\u8g2\csrc/u8x8_byte.c ****       break;
 1631              		.loc 1 375 0
 1632 0094 4A21     		movs	r1, #74
 1633 0096 FFF7FEFF 		bl	u8x8_gpio_call
 1634              	.LVL229:
 389:..\u8g2\csrc/u8x8_byte.c **** }
 1635              		.loc 1 389 0
 1636 009a 0120     		movs	r0, #1
 376:..\u8g2\csrc/u8x8_byte.c ****     case U8X8_MSG_BYTE_START_TRANSFER:
 1637              		.loc 1 376 0
 1638 009c BDE8F081 		pop	{r4, r5, r6, r7, r8, pc}
 1639              	.LVL230:
 1640              	.L103:
 379:..\u8g2\csrc/u8x8_byte.c ****       u8x8->gpio_and_delay_cb(u8x8, U8X8_MSG_DELAY_NANO, u8x8->display_info->post_chip_enable_wait_
 1641              		.loc 1 379 0
 1642 00a0 1146     		mov	r1, r2
 1643 00a2 FFF7FEFF 		bl	u8x8_byte_set_ks0108_cs
 1644              	.LVL231:
 380:..\u8g2\csrc/u8x8_byte.c ****       break;
 1645              		.loc 1 380 0
 1646 00a6 7469     		ldr	r4, [r6, #20]
 1647 00a8 3268     		ldr	r2, [r6]
 1648 00aa 0023     		movs	r3, #0
 1649 00ac 9278     		ldrb	r2, [r2, #2]	@ zero_extendqisi2
 1650 00ae 2C21     		movs	r1, #44
 1651 00b0 3046     		mov	r0, r6
 1652 00b2 A047     		blx	r4
 1653              	.LVL232:
 389:..\u8g2\csrc/u8x8_byte.c **** }
 1654              		.loc 1 389 0
 1655 00b4 0120     		movs	r0, #1
 381:..\u8g2\csrc/u8x8_byte.c ****     case U8X8_MSG_BYTE_END_TRANSFER:
 1656              		.loc 1 381 0
 1657 00b6 BDE8F081 		pop	{r4, r5, r6, r7, r8, pc}
 1658              	.LVL233:
 1659              	.L104:
 383:..\u8g2\csrc/u8x8_byte.c ****       u8x8_byte_set_ks0108_cs(u8x8, arg_int);
 1660              		.loc 1 383 0
 1661 00ba 4469     		ldr	r4, [r0, #20]
 1662 00bc 0268     		ldr	r2, [r0]
 1663              	.LVL234:
 1664 00be 0023     		movs	r3, #0
 1665 00c0 D278     		ldrb	r2, [r2, #3]	@ zero_extendqisi2
 1666 00c2 2C21     		movs	r1, #44
 1667 00c4 A047     		blx	r4
 1668              	.LVL235:
 384:..\u8g2\csrc/u8x8_byte.c ****       break;
 1669              		.loc 1 384 0
 1670 00c6 3946     		mov	r1, r7
 1671 00c8 3046     		mov	r0, r6
 1672 00ca FFF7FEFF 		bl	u8x8_byte_set_ks0108_cs
 1673              	.LVL236:
 389:..\u8g2\csrc/u8x8_byte.c **** }
 1674              		.loc 1 389 0
 1675 00ce 0120     		movs	r0, #1
ARM GAS  C:\Users\brian\AppData\Local\Temp\cc2Kbm4j.s 			page 44


 385:..\u8g2\csrc/u8x8_byte.c ****     default:
 1676              		.loc 1 385 0
 1677 00d0 BDE8F081 		pop	{r4, r5, r6, r7, r8, pc}
 1678              	.LVL237:
 1679              	.L109:
 387:..\u8g2\csrc/u8x8_byte.c ****   }
 1680              		.loc 1 387 0
 1681 00d4 0020     		movs	r0, #0
 1682              	.LVL238:
 390:..\u8g2\csrc/u8x8_byte.c **** 
 1683              		.loc 1 390 0
 1684 00d6 BDE8F081 		pop	{r4, r5, r6, r7, r8, pc}
 1685              		.cfi_endproc
 1686              	.LFE11:
 1687              		.size	u8x8_byte_ks0108, .-u8x8_byte_ks0108
 1688 00da 00BF     		.section	.text.u8x8_byte_sed1520,"ax",%progbits
 1689              		.align	2
 1690              		.global	u8x8_byte_sed1520
 1691              		.thumb
 1692              		.thumb_func
 1693              		.type	u8x8_byte_sed1520, %function
 1694              	u8x8_byte_sed1520:
 1695              	.LFB12:
 398:..\u8g2\csrc/u8x8_byte.c ****   uint8_t i, b;
 1696              		.loc 1 398 0
 1697              		.cfi_startproc
 1698              		@ args = 0, pretend = 0, frame = 0
 1699              		@ frame_needed = 0, uses_anonymous_args = 0
 1700              	.LVL239:
 1701 0000 2DE9F041 		push	{r4, r5, r6, r7, r8, lr}
 1702              		.cfi_def_cfa_offset 24
 1703              		.cfi_offset 4, -24
 1704              		.cfi_offset 5, -20
 1705              		.cfi_offset 6, -16
 1706              		.cfi_offset 7, -12
 1707              		.cfi_offset 8, -8
 1708              		.cfi_offset 14, -4
 1709 0004 0646     		mov	r6, r0
 1710 0006 1746     		mov	r7, r2
 1711 0008 9846     		mov	r8, r3
 403:..\u8g2\csrc/u8x8_byte.c ****   {
 1712              		.loc 1 403 0
 1713 000a 1439     		subs	r1, r1, #20
 1714              	.LVL240:
 1715 000c 0C29     		cmp	r1, #12
 1716 000e 08D8     		bhi	.L112
 1717 0010 DFE801F0 		tbb	[pc, r1]
 1718              	.LVL241:
 1719              	.L114:
 1720 0014 3C       		.byte	(.L113-.L114)/2
 1721 0015 07       		.byte	(.L112-.L114)/2
 1722 0016 07       		.byte	(.L112-.L114)/2
 1723 0017 37       		.byte	(.L115-.L114)/2
 1724 0018 57       		.byte	(.L116-.L114)/2
 1725 0019 60       		.byte	(.L122-.L114)/2
 1726 001a 07       		.byte	(.L112-.L114)/2
 1727 001b 07       		.byte	(.L112-.L114)/2
ARM GAS  C:\Users\brian\AppData\Local\Temp\cc2Kbm4j.s 			page 45


 1728 001c 07       		.byte	(.L112-.L114)/2
 1729 001d 07       		.byte	(.L112-.L114)/2
 1730 001e 07       		.byte	(.L112-.L114)/2
 1731 001f 07       		.byte	(.L112-.L114)/2
 1732 0020 51       		.byte	(.L118-.L114)/2
 1733 0021 00       		.p2align 1
 1734              	.L112:
 447:..\u8g2\csrc/u8x8_byte.c ****   }
 1735              		.loc 1 447 0
 1736 0022 0020     		movs	r0, #0
 1737              	.LVL242:
 1738 0024 BDE8F081 		pop	{r4, r5, r6, r7, r8, pc}
 1739              	.LVL243:
 1740              	.L121:
 409:..\u8g2\csrc/u8x8_byte.c **** 	data++;
 1741              		.loc 1 409 0
 1742 0028 18F8015B 		ldrb	r5, [r8], #1	@ zero_extendqisi2
 1743              	.LVL244:
 411:..\u8g2\csrc/u8x8_byte.c **** 	for( i = U8X8_MSG_GPIO_D0; i <= U8X8_MSG_GPIO_D7; i++ )
 1744              		.loc 1 411 0
 1745 002c 013F     		subs	r7, r7, #1
 1746              	.LVL245:
 1747 002e FFB2     		uxtb	r7, r7
 1748              	.LVL246:
 412:..\u8g2\csrc/u8x8_byte.c **** 	{
 1749              		.loc 1 412 0
 1750 0030 4024     		movs	r4, #64
 1751 0032 08E0     		b	.L119
 1752              	.LVL247:
 1753              	.L120:
 414:..\u8g2\csrc/u8x8_byte.c **** 	  b >>= 1;
 1754              		.loc 1 414 0 discriminator 3
 1755 0034 05F00102 		and	r2, r5, #1
 1756 0038 2146     		mov	r1, r4
 1757 003a 3046     		mov	r0, r6
 1758 003c FFF7FEFF 		bl	u8x8_gpio_call
 1759              	.LVL248:
 415:..\u8g2\csrc/u8x8_byte.c **** 	}    
 1760              		.loc 1 415 0 discriminator 3
 1761 0040 6D08     		lsrs	r5, r5, #1
 1762              	.LVL249:
 412:..\u8g2\csrc/u8x8_byte.c **** 	{
 1763              		.loc 1 412 0 discriminator 3
 1764 0042 0134     		adds	r4, r4, #1
 1765              	.LVL250:
 1766 0044 E4B2     		uxtb	r4, r4
 1767              	.LVL251:
 1768              	.L119:
 412:..\u8g2\csrc/u8x8_byte.c **** 	{
 1769              		.loc 1 412 0 is_stmt 0 discriminator 1
 1770 0046 472C     		cmp	r4, #71
 1771 0048 F4D9     		bls	.L120
 418:..\u8g2\csrc/u8x8_byte.c **** 	u8x8_gpio_call(u8x8, enable_pin, 1);
 1772              		.loc 1 418 0 is_stmt 1
 1773 004a 3368     		ldr	r3, [r6]
 1774 004c 9A7B     		ldrb	r2, [r3, #14]	@ zero_extendqisi2
 1775 004e 2C21     		movs	r1, #44
ARM GAS  C:\Users\brian\AppData\Local\Temp\cc2Kbm4j.s 			page 46


 1776 0050 3046     		mov	r0, r6
 1777 0052 FFF7FEFF 		bl	u8x8_gpio_call
 1778              	.LVL252:
 419:..\u8g2\csrc/u8x8_byte.c **** 	u8x8_gpio_Delay(u8x8, U8X8_MSG_DELAY_NANO, 200);		/* KS0108 requires 450 ns, use 200 here */
 1779              		.loc 1 419 0
 1780 0056 224C     		ldr	r4, .L125
 1781              	.LVL253:
 1782 0058 0122     		movs	r2, #1
 1783 005a 6178     		ldrb	r1, [r4, #1]	@ zero_extendqisi2
 1784 005c 3046     		mov	r0, r6
 1785 005e FFF7FEFF 		bl	u8x8_gpio_call
 1786              	.LVL254:
 420:..\u8g2\csrc/u8x8_byte.c **** 	u8x8_gpio_Delay(u8x8, U8X8_MSG_DELAY_NANO, u8x8->display_info->write_pulse_width_ns);  /* expect 2
 1787              		.loc 1 420 0
 1788 0062 C822     		movs	r2, #200
 1789 0064 2C21     		movs	r1, #44
 1790 0066 3046     		mov	r0, r6
 1791 0068 FFF7FEFF 		bl	u8x8_gpio_call
 1792              	.LVL255:
 421:..\u8g2\csrc/u8x8_byte.c **** 	u8x8_gpio_call(u8x8, enable_pin, 0);
 1793              		.loc 1 421 0
 1794 006c 3368     		ldr	r3, [r6]
 1795 006e DA7B     		ldrb	r2, [r3, #15]	@ zero_extendqisi2
 1796 0070 2C21     		movs	r1, #44
 1797 0072 3046     		mov	r0, r6
 1798 0074 FFF7FEFF 		bl	u8x8_gpio_call
 1799              	.LVL256:
 422:..\u8g2\csrc/u8x8_byte.c ****       }
 1800              		.loc 1 422 0
 1801 0078 0022     		movs	r2, #0
 1802 007a 6178     		ldrb	r1, [r4, #1]	@ zero_extendqisi2
 1803 007c 3046     		mov	r0, r6
 1804 007e FFF7FEFF 		bl	u8x8_gpio_call
 1805              	.LVL257:
 1806              	.L115:
 407:..\u8g2\csrc/u8x8_byte.c ****       {
 1807              		.loc 1 407 0
 1808 0082 002F     		cmp	r7, #0
 1809 0084 D0D1     		bne	.L121
 449:..\u8g2\csrc/u8x8_byte.c **** }
 1810              		.loc 1 449 0
 1811 0086 0120     		movs	r0, #1
 1812 0088 BDE8F081 		pop	{r4, r5, r6, r7, r8, pc}
 1813              	.LVL258:
 1814              	.L113:
 428:..\u8g2\csrc/u8x8_byte.c ****       /* ensure that the enable signals are low */
 1815              		.loc 1 428 0
 1816 008c 0368     		ldr	r3, [r0]
 1817 008e 5A78     		ldrb	r2, [r3, #1]	@ zero_extendqisi2
 1818              	.LVL259:
 1819 0090 4921     		movs	r1, #73
 1820 0092 FFF7FEFF 		bl	u8x8_gpio_call
 1821              	.LVL260:
 430:..\u8g2\csrc/u8x8_byte.c ****       u8x8_gpio_call(u8x8, U8X8_MSG_GPIO_CS, 0);
 1822              		.loc 1 430 0
 1823 0096 0022     		movs	r2, #0
 1824 0098 4821     		movs	r1, #72
ARM GAS  C:\Users\brian\AppData\Local\Temp\cc2Kbm4j.s 			page 47


 1825 009a 3046     		mov	r0, r6
 1826 009c FFF7FEFF 		bl	u8x8_gpio_call
 1827              	.LVL261:
 431:..\u8g2\csrc/u8x8_byte.c ****       enable_pin = U8X8_MSG_GPIO_E;
 1828              		.loc 1 431 0
 1829 00a0 0022     		movs	r2, #0
 1830 00a2 4921     		movs	r1, #73
 1831 00a4 3046     		mov	r0, r6
 1832 00a6 FFF7FEFF 		bl	u8x8_gpio_call
 1833              	.LVL262:
 432:..\u8g2\csrc/u8x8_byte.c ****       break;
 1834              		.loc 1 432 0
 1835 00aa 4822     		movs	r2, #72
 1836 00ac 0C4B     		ldr	r3, .L125
 1837 00ae 5A70     		strb	r2, [r3, #1]
 449:..\u8g2\csrc/u8x8_byte.c **** }
 1838              		.loc 1 449 0
 1839 00b0 0120     		movs	r0, #1
 433:..\u8g2\csrc/u8x8_byte.c ****     case U8X8_MSG_BYTE_SET_DC:
 1840              		.loc 1 433 0
 1841 00b2 BDE8F081 		pop	{r4, r5, r6, r7, r8, pc}
 1842              	.LVL263:
 1843              	.L118:
 435:..\u8g2\csrc/u8x8_byte.c ****       break;
 1844              		.loc 1 435 0
 1845 00b6 4A21     		movs	r1, #74
 1846 00b8 FFF7FEFF 		bl	u8x8_gpio_call
 1847              	.LVL264:
 449:..\u8g2\csrc/u8x8_byte.c **** }
 1848              		.loc 1 449 0
 1849 00bc 0120     		movs	r0, #1
 436:..\u8g2\csrc/u8x8_byte.c ****     case U8X8_MSG_BYTE_START_TRANSFER:
 1850              		.loc 1 436 0
 1851 00be BDE8F081 		pop	{r4, r5, r6, r7, r8, pc}
 1852              	.LVL265:
 1853              	.L116:
 440:..\u8g2\csrc/u8x8_byte.c ****       if ( arg_int != 0 )
 1854              		.loc 1 440 0
 1855 00c2 4822     		movs	r2, #72
 1856              	.LVL266:
 1857 00c4 064B     		ldr	r3, .L125
 1858 00c6 5A70     		strb	r2, [r3, #1]
 441:..\u8g2\csrc/u8x8_byte.c **** 	enable_pin = U8X8_MSG_GPIO_CS;
 1859              		.loc 1 441 0
 1860 00c8 3FB1     		cbz	r7, .L123
 442:..\u8g2\csrc/u8x8_byte.c ****       break;
 1861              		.loc 1 442 0
 1862 00ca 4922     		movs	r2, #73
 1863 00cc 5A70     		strb	r2, [r3, #1]
 449:..\u8g2\csrc/u8x8_byte.c **** }
 1864              		.loc 1 449 0
 1865 00ce 0120     		movs	r0, #1
 1866              	.LVL267:
 1867 00d0 BDE8F081 		pop	{r4, r5, r6, r7, r8, pc}
 1868              	.LVL268:
 1869              	.L122:
 1870 00d4 0120     		movs	r0, #1
ARM GAS  C:\Users\brian\AppData\Local\Temp\cc2Kbm4j.s 			page 48


 1871              	.LVL269:
 1872 00d6 BDE8F081 		pop	{r4, r5, r6, r7, r8, pc}
 1873              	.LVL270:
 1874              	.L123:
 1875 00da 0120     		movs	r0, #1
 1876              	.LVL271:
 450:..\u8g2\csrc/u8x8_byte.c **** 
 1877              		.loc 1 450 0
 1878 00dc BDE8F081 		pop	{r4, r5, r6, r7, r8, pc}
 1879              	.LVL272:
 1880              	.L126:
 1881              		.align	2
 1882              	.L125:
 1883 00e0 00000000 		.word	.LANCHOR0
 1884              		.cfi_endproc
 1885              	.LFE12:
 1886              		.size	u8x8_byte_sed1520, .-u8x8_byte_sed1520
 1887              		.section	.text.u8x8_byte_sw_i2c,"ax",%progbits
 1888              		.align	2
 1889              		.global	u8x8_byte_sw_i2c
 1890              		.thumb
 1891              		.thumb_func
 1892              		.type	u8x8_byte_sw_i2c, %function
 1893              	u8x8_byte_sw_i2c:
 1894              	.LFB24:
 575:..\u8g2\csrc/u8x8_byte.c **** }
 576:..\u8g2\csrc/u8x8_byte.c **** 
 577:..\u8g2\csrc/u8x8_byte.c **** uint8_t u8x8_byte_sw_i2c(u8x8_t *u8x8, uint8_t msg, uint8_t arg_int, void *arg_ptr)
 578:..\u8g2\csrc/u8x8_byte.c **** {
 1895              		.loc 1 578 0
 1896              		.cfi_startproc
 1897              		@ args = 0, pretend = 0, frame = 0
 1898              		@ frame_needed = 0, uses_anonymous_args = 0
 1899              	.LVL273:
 1900 0000 70B5     		push	{r4, r5, r6, lr}
 1901              		.cfi_def_cfa_offset 16
 1902              		.cfi_offset 4, -16
 1903              		.cfi_offset 5, -12
 1904              		.cfi_offset 6, -8
 1905              		.cfi_offset 14, -4
 1906 0002 0646     		mov	r6, r0
 1907 0004 1446     		mov	r4, r2
 1908 0006 1D46     		mov	r5, r3
 579:..\u8g2\csrc/u8x8_byte.c ****   uint8_t *data;
 580:..\u8g2\csrc/u8x8_byte.c **** 
 581:..\u8g2\csrc/u8x8_byte.c ****   switch(msg)
 1909              		.loc 1 581 0
 1910 0008 1439     		subs	r1, r1, #20
 1911              	.LVL274:
 1912 000a 0C29     		cmp	r1, #12
 1913 000c 08D8     		bhi	.L128
 1914 000e DFE801F0 		tbb	[pc, r1]
 1915              	.LVL275:
 1916              	.L130:
 1917 0012 14       		.byte	(.L129-.L130)/2
 1918 0013 07       		.byte	(.L128-.L130)/2
 1919 0014 07       		.byte	(.L128-.L130)/2
ARM GAS  C:\Users\brian\AppData\Local\Temp\cc2Kbm4j.s 			page 49


 1920 0015 10       		.byte	(.L131-.L130)/2
 1921 0016 18       		.byte	(.L132-.L130)/2
 1922 0017 21       		.byte	(.L133-.L130)/2
 1923 0018 07       		.byte	(.L128-.L130)/2
 1924 0019 07       		.byte	(.L128-.L130)/2
 1925 001a 07       		.byte	(.L128-.L130)/2
 1926 001b 07       		.byte	(.L128-.L130)/2
 1927 001c 07       		.byte	(.L128-.L130)/2
 1928 001d 07       		.byte	(.L128-.L130)/2
 1929 001e 25       		.byte	(.L136-.L130)/2
 1930 001f 00       		.p2align 1
 1931              	.L128:
 582:..\u8g2\csrc/u8x8_byte.c ****   {
 583:..\u8g2\csrc/u8x8_byte.c ****     case U8X8_MSG_BYTE_SEND:
 584:..\u8g2\csrc/u8x8_byte.c ****       data = (uint8_t *)arg_ptr;
 585:..\u8g2\csrc/u8x8_byte.c ****     
 586:..\u8g2\csrc/u8x8_byte.c ****       while( arg_int > 0 )
 587:..\u8g2\csrc/u8x8_byte.c ****       {
 588:..\u8g2\csrc/u8x8_byte.c **** 	i2c_write_byte(u8x8, *data);
 589:..\u8g2\csrc/u8x8_byte.c **** 	data++;
 590:..\u8g2\csrc/u8x8_byte.c **** 	arg_int--;
 591:..\u8g2\csrc/u8x8_byte.c ****       }
 592:..\u8g2\csrc/u8x8_byte.c ****       
 593:..\u8g2\csrc/u8x8_byte.c ****       break;
 594:..\u8g2\csrc/u8x8_byte.c ****       
 595:..\u8g2\csrc/u8x8_byte.c ****     case U8X8_MSG_BYTE_INIT:
 596:..\u8g2\csrc/u8x8_byte.c ****       i2c_init(u8x8);
 597:..\u8g2\csrc/u8x8_byte.c ****       break;
 598:..\u8g2\csrc/u8x8_byte.c ****     case U8X8_MSG_BYTE_SET_DC:
 599:..\u8g2\csrc/u8x8_byte.c ****       break;
 600:..\u8g2\csrc/u8x8_byte.c ****     case U8X8_MSG_BYTE_START_TRANSFER:
 601:..\u8g2\csrc/u8x8_byte.c ****       i2c_start(u8x8);
 602:..\u8g2\csrc/u8x8_byte.c ****       i2c_write_byte(u8x8, u8x8_GetI2CAddress(u8x8));
 603:..\u8g2\csrc/u8x8_byte.c ****       //i2c_write_byte(u8x8, 0x078);
 604:..\u8g2\csrc/u8x8_byte.c ****       break;
 605:..\u8g2\csrc/u8x8_byte.c ****     case U8X8_MSG_BYTE_END_TRANSFER:
 606:..\u8g2\csrc/u8x8_byte.c ****       i2c_stop(u8x8);
 607:..\u8g2\csrc/u8x8_byte.c ****       break;
 608:..\u8g2\csrc/u8x8_byte.c ****     default:
 609:..\u8g2\csrc/u8x8_byte.c ****       return 0;
 1932              		.loc 1 609 0
 1933 0020 0020     		movs	r0, #0
 1934              	.LVL276:
 1935 0022 70BD     		pop	{r4, r5, r6, pc}
 1936              	.LVL277:
 1937              	.L135:
 588:..\u8g2\csrc/u8x8_byte.c **** 	data++;
 1938              		.loc 1 588 0
 1939 0024 15F8011B 		ldrb	r1, [r5], #1	@ zero_extendqisi2
 1940              	.LVL278:
 1941 0028 3046     		mov	r0, r6
 1942 002a FFF7FEFF 		bl	i2c_write_byte
 1943              	.LVL279:
 590:..\u8g2\csrc/u8x8_byte.c ****       }
 1944              		.loc 1 590 0
 1945 002e 013C     		subs	r4, r4, #1
 1946              	.LVL280:
ARM GAS  C:\Users\brian\AppData\Local\Temp\cc2Kbm4j.s 			page 50


 1947 0030 E4B2     		uxtb	r4, r4
 1948              	.LVL281:
 1949              	.L131:
 586:..\u8g2\csrc/u8x8_byte.c ****       {
 1950              		.loc 1 586 0
 1951 0032 002C     		cmp	r4, #0
 1952 0034 F6D1     		bne	.L135
 610:..\u8g2\csrc/u8x8_byte.c ****   }
 611:..\u8g2\csrc/u8x8_byte.c ****   return 1;
 1953              		.loc 1 611 0
 1954 0036 0120     		movs	r0, #1
 1955 0038 70BD     		pop	{r4, r5, r6, pc}
 1956              	.LVL282:
 1957              	.L129:
 596:..\u8g2\csrc/u8x8_byte.c ****       break;
 1958              		.loc 1 596 0
 1959 003a FFF7FEFF 		bl	i2c_init
 1960              	.LVL283:
 1961              		.loc 1 611 0
 1962 003e 0120     		movs	r0, #1
 597:..\u8g2\csrc/u8x8_byte.c ****     case U8X8_MSG_BYTE_SET_DC:
 1963              		.loc 1 597 0
 1964 0040 70BD     		pop	{r4, r5, r6, pc}
 1965              	.LVL284:
 1966              	.L132:
 601:..\u8g2\csrc/u8x8_byte.c ****       i2c_write_byte(u8x8, u8x8_GetI2CAddress(u8x8));
 1967              		.loc 1 601 0
 1968 0042 FFF7FEFF 		bl	i2c_start
 1969              	.LVL285:
 602:..\u8g2\csrc/u8x8_byte.c ****       //i2c_write_byte(u8x8, 0x078);
 1970              		.loc 1 602 0
 1971 0046 96F82410 		ldrb	r1, [r6, #36]	@ zero_extendqisi2
 1972 004a 3046     		mov	r0, r6
 1973 004c FFF7FEFF 		bl	i2c_write_byte
 1974              	.LVL286:
 1975              		.loc 1 611 0
 1976 0050 0120     		movs	r0, #1
 604:..\u8g2\csrc/u8x8_byte.c ****     case U8X8_MSG_BYTE_END_TRANSFER:
 1977              		.loc 1 604 0
 1978 0052 70BD     		pop	{r4, r5, r6, pc}
 1979              	.LVL287:
 1980              	.L133:
 606:..\u8g2\csrc/u8x8_byte.c ****       break;
 1981              		.loc 1 606 0
 1982 0054 FFF7FEFF 		bl	i2c_stop
 1983              	.LVL288:
 1984              		.loc 1 611 0
 1985 0058 0120     		movs	r0, #1
 607:..\u8g2\csrc/u8x8_byte.c ****     default:
 1986              		.loc 1 607 0
 1987 005a 70BD     		pop	{r4, r5, r6, pc}
 1988              	.LVL289:
 1989              	.L136:
 1990              		.loc 1 611 0
 1991 005c 0120     		movs	r0, #1
 1992              	.LVL290:
 612:..\u8g2\csrc/u8x8_byte.c **** }
ARM GAS  C:\Users\brian\AppData\Local\Temp\cc2Kbm4j.s 			page 51


 1993              		.loc 1 612 0
 1994 005e 70BD     		pop	{r4, r5, r6, pc}
 1995              		.cfi_endproc
 1996              	.LFE24:
 1997              		.size	u8x8_byte_sw_i2c, .-u8x8_byte_sw_i2c
 1998              		.bss
 1999              		.set	.LANCHOR0,. + 0
 2000              		.type	last_dc.5789, %object
 2001              		.size	last_dc.5789, 1
 2002              	last_dc.5789:
 2003 0000 00       		.space	1
 2004              		.type	enable_pin.5838, %object
 2005              		.size	enable_pin.5838, 1
 2006              	enable_pin.5838:
 2007 0001 00       		.space	1
 2008              		.text
 2009              	.Letext0:
 2010              		.file 2 "c:\\program files (x86)\\cypress\\psoc creator\\4.4\\psoc creator\\import\\gnu\\arm\\5.4.
 2011              		.file 3 "c:\\program files (x86)\\cypress\\psoc creator\\4.4\\psoc creator\\import\\gnu\\arm\\5.4.
 2012              		.file 4 "..\\u8g2\\csrc\\u8x8.h"