ARM GAS  C:\Users\brian\AppData\Local\Temp\ccDVzQIu.s 			page 1


   1              		.syntax unified
   2              		.cpu cortex-m3
   3              		.fpu softvfp
   4              		.eabi_attribute 20, 1
   5              		.eabi_attribute 21, 1
   6              		.eabi_attribute 23, 3
   7              		.eabi_attribute 24, 1
   8              		.eabi_attribute 25, 1
   9              		.eabi_attribute 26, 1
  10              		.eabi_attribute 30, 1
  11              		.eabi_attribute 34, 1
  12              		.eabi_attribute 18, 4
  13              		.thumb
  14              		.syntax unified
  15              		.file	"u8x8_d_ssd1327.c"
  16              		.text
  17              	.Ltext0:
  18              		.cfi_sections	.debug_frame
  19              		.section	.text.u8x8_ssd1327_8to32,"ax",%progbits
  20              		.align	2
  21              		.thumb
  22              		.thumb_func
  23              		.type	u8x8_ssd1327_8to32, %function
  24              	u8x8_ssd1327_8to32:
  25              	.LFB0:
  26              		.file 1 "..\\u8g2\\csrc\\u8x8_d_ssd1327.c"
   1:..\u8g2\csrc/u8x8_d_ssd1327.c **** /*
   2:..\u8g2\csrc/u8x8_d_ssd1327.c **** 
   3:..\u8g2\csrc/u8x8_d_ssd1327.c ****   u8x8_d_ssd1327.c
   4:..\u8g2\csrc/u8x8_d_ssd1327.c **** 
   5:..\u8g2\csrc/u8x8_d_ssd1327.c ****   Universal 8bit Graphics Library (https://github.com/olikraus/u8g2/)
   6:..\u8g2\csrc/u8x8_d_ssd1327.c **** 
   7:..\u8g2\csrc/u8x8_d_ssd1327.c ****   Copyright (c) 2016, olikraus@gmail.com
   8:..\u8g2\csrc/u8x8_d_ssd1327.c ****   All rights reserved.
   9:..\u8g2\csrc/u8x8_d_ssd1327.c **** 
  10:..\u8g2\csrc/u8x8_d_ssd1327.c ****   Redistribution and use in source and binary forms, with or without modification, 
  11:..\u8g2\csrc/u8x8_d_ssd1327.c ****   are permitted provided that the following conditions are met:
  12:..\u8g2\csrc/u8x8_d_ssd1327.c **** 
  13:..\u8g2\csrc/u8x8_d_ssd1327.c ****   * Redistributions of source code must retain the above copyright notice, this list 
  14:..\u8g2\csrc/u8x8_d_ssd1327.c ****     of conditions and the following disclaimer.
  15:..\u8g2\csrc/u8x8_d_ssd1327.c ****     
  16:..\u8g2\csrc/u8x8_d_ssd1327.c ****   * Redistributions in binary form must reproduce the above copyright notice, this 
  17:..\u8g2\csrc/u8x8_d_ssd1327.c ****     list of conditions and the following disclaimer in the documentation and/or other 
  18:..\u8g2\csrc/u8x8_d_ssd1327.c ****     materials provided with the distribution.
  19:..\u8g2\csrc/u8x8_d_ssd1327.c **** 
  20:..\u8g2\csrc/u8x8_d_ssd1327.c ****   THIS SOFTWARE IS PROVIDED BY THE COPYRIGHT HOLDERS AND 
  21:..\u8g2\csrc/u8x8_d_ssd1327.c ****   CONTRIBUTORS "AS IS" AND ANY EXPRESS OR IMPLIED WARRANTIES, 
  22:..\u8g2\csrc/u8x8_d_ssd1327.c ****   INCLUDING, BUT NOT LIMITED TO, THE IMPLIED WARRANTIES OF 
  23:..\u8g2\csrc/u8x8_d_ssd1327.c ****   MERCHANTABILITY AND FITNESS FOR A PARTICULAR PURPOSE ARE 
  24:..\u8g2\csrc/u8x8_d_ssd1327.c ****   DISCLAIMED. IN NO EVENT SHALL THE COPYRIGHT HOLDER OR 
  25:..\u8g2\csrc/u8x8_d_ssd1327.c ****   CONTRIBUTORS BE LIABLE FOR ANY DIRECT, INDIRECT, INCIDENTAL, 
  26:..\u8g2\csrc/u8x8_d_ssd1327.c ****   SPECIAL, EXEMPLARY, OR CONSEQUENTIAL DAMAGES (INCLUDING, BUT 
  27:..\u8g2\csrc/u8x8_d_ssd1327.c ****   NOT LIMITED TO, PROCUREMENT OF SUBSTITUTE GOODS OR SERVICES; 
  28:..\u8g2\csrc/u8x8_d_ssd1327.c ****   LOSS OF USE, DATA, OR PROFITS; OR BUSINESS INTERRUPTION) HOWEVER 
  29:..\u8g2\csrc/u8x8_d_ssd1327.c ****   CAUSED AND ON ANY THEORY OF LIABILITY, WHETHER IN CONTRACT, 
  30:..\u8g2\csrc/u8x8_d_ssd1327.c ****   STRICT LIABILITY, OR TORT (INCLUDING NEGLIGENCE OR OTHERWISE) 
  31:..\u8g2\csrc/u8x8_d_ssd1327.c ****   ARISING IN ANY WAY OUT OF THE USE OF THIS SOFTWARE, EVEN IF 
ARM GAS  C:\Users\brian\AppData\Local\Temp\ccDVzQIu.s 			page 2


  32:..\u8g2\csrc/u8x8_d_ssd1327.c ****   ADVISED OF THE POSSIBILITY OF SUCH DAMAGE.  
  33:..\u8g2\csrc/u8x8_d_ssd1327.c ****   
  34:..\u8g2\csrc/u8x8_d_ssd1327.c **** */
  35:..\u8g2\csrc/u8x8_d_ssd1327.c **** 
  36:..\u8g2\csrc/u8x8_d_ssd1327.c **** 
  37:..\u8g2\csrc/u8x8_d_ssd1327.c **** #include "u8x8.h"
  38:..\u8g2\csrc/u8x8_d_ssd1327.c **** 
  39:..\u8g2\csrc/u8x8_d_ssd1327.c **** 
  40:..\u8g2\csrc/u8x8_d_ssd1327.c **** static const uint8_t u8x8_d_ssd1327_96x96_powersave0_seq[] = {
  41:..\u8g2\csrc/u8x8_d_ssd1327.c ****   U8X8_START_TRANSFER(),             	/* enable chip, delay is part of the transfer start */
  42:..\u8g2\csrc/u8x8_d_ssd1327.c ****   U8X8_C(0x0af),		                /* display on */
  43:..\u8g2\csrc/u8x8_d_ssd1327.c ****   U8X8_END_TRANSFER(),             	/* disable chip */
  44:..\u8g2\csrc/u8x8_d_ssd1327.c ****   U8X8_END()             			/* end of sequence */
  45:..\u8g2\csrc/u8x8_d_ssd1327.c **** };
  46:..\u8g2\csrc/u8x8_d_ssd1327.c **** 
  47:..\u8g2\csrc/u8x8_d_ssd1327.c **** static const uint8_t u8x8_d_ssd1327_96x96_powersave1_seq[] = {
  48:..\u8g2\csrc/u8x8_d_ssd1327.c ****   U8X8_START_TRANSFER(),             	/* enable chip, delay is part of the transfer start */
  49:..\u8g2\csrc/u8x8_d_ssd1327.c ****   U8X8_C(0x0ae),		                /* display off */
  50:..\u8g2\csrc/u8x8_d_ssd1327.c ****   U8X8_END_TRANSFER(),             	/* disable chip */
  51:..\u8g2\csrc/u8x8_d_ssd1327.c ****   U8X8_END()             			/* end of sequence */
  52:..\u8g2\csrc/u8x8_d_ssd1327.c **** };
  53:..\u8g2\csrc/u8x8_d_ssd1327.c **** 
  54:..\u8g2\csrc/u8x8_d_ssd1327.c **** 
  55:..\u8g2\csrc/u8x8_d_ssd1327.c **** static const uint8_t u8x8_d_ssd1327_seeed_96x96_flip0_seq[] = {
  56:..\u8g2\csrc/u8x8_d_ssd1327.c ****   U8X8_START_TRANSFER(),             	/* enable chip, delay is part of the transfer start */
  57:..\u8g2\csrc/u8x8_d_ssd1327.c ****   U8X8_CA(0x0a2, 0x020),		/* display offset, shift mapping ram counter */
  58:..\u8g2\csrc/u8x8_d_ssd1327.c ****   U8X8_CA(0x0a0, 0x051),		/* remap configuration */
  59:..\u8g2\csrc/u8x8_d_ssd1327.c ****   U8X8_END_TRANSFER(),             	/* disable chip */
  60:..\u8g2\csrc/u8x8_d_ssd1327.c ****   U8X8_END()             			/* end of sequence */
  61:..\u8g2\csrc/u8x8_d_ssd1327.c **** };
  62:..\u8g2\csrc/u8x8_d_ssd1327.c **** 
  63:..\u8g2\csrc/u8x8_d_ssd1327.c **** static const uint8_t u8x8_d_ssd1327_seeed_96x96_flip1_seq[] = {
  64:..\u8g2\csrc/u8x8_d_ssd1327.c ****   U8X8_START_TRANSFER(),             	/* enable chip, delay is part of the transfer start */
  65:..\u8g2\csrc/u8x8_d_ssd1327.c ****   U8X8_CA(0x0a2, 0x060),		/* display offset, shift mapping ram counter */
  66:..\u8g2\csrc/u8x8_d_ssd1327.c ****   U8X8_CA(0x0a0, 0x042),		/* remap configuration */
  67:..\u8g2\csrc/u8x8_d_ssd1327.c ****   U8X8_END_TRANSFER(),             	/* disable chip */
  68:..\u8g2\csrc/u8x8_d_ssd1327.c ****   U8X8_END()             			/* end of sequence */
  69:..\u8g2\csrc/u8x8_d_ssd1327.c **** };
  70:..\u8g2\csrc/u8x8_d_ssd1327.c **** 
  71:..\u8g2\csrc/u8x8_d_ssd1327.c **** 
  72:..\u8g2\csrc/u8x8_d_ssd1327.c **** static const uint8_t u8x8_d_ssd1327_winstar_96x64_flip0_seq[] = {
  73:..\u8g2\csrc/u8x8_d_ssd1327.c ****   U8X8_START_TRANSFER(),             	/* enable chip, delay is part of the transfer start */  
  74:..\u8g2\csrc/u8x8_d_ssd1327.c ****   U8X8_CA(0x0a0, 0x042),		/* remap configuration */
  75:..\u8g2\csrc/u8x8_d_ssd1327.c ****   U8X8_CA(0x0a2, 0x000),		/* display offset, shift mapping ram counter */
  76:..\u8g2\csrc/u8x8_d_ssd1327.c ****   U8X8_END_TRANSFER(),             	/* disable chip */
  77:..\u8g2\csrc/u8x8_d_ssd1327.c ****   U8X8_END()             			/* end of sequence */
  78:..\u8g2\csrc/u8x8_d_ssd1327.c **** };
  79:..\u8g2\csrc/u8x8_d_ssd1327.c **** 
  80:..\u8g2\csrc/u8x8_d_ssd1327.c **** static const uint8_t u8x8_d_ssd1327_winstar_96x64_flip1_seq[] = {
  81:..\u8g2\csrc/u8x8_d_ssd1327.c ****   U8X8_START_TRANSFER(),             	/* enable chip, delay is part of the transfer start */
  82:..\u8g2\csrc/u8x8_d_ssd1327.c ****   U8X8_CA(0x0a0, 0x051),		/* remap configuration */
  83:..\u8g2\csrc/u8x8_d_ssd1327.c ****   U8X8_CA(0x0a2, 0x040),		/* display offset, shift mapping ram counter */
  84:..\u8g2\csrc/u8x8_d_ssd1327.c ****   U8X8_END_TRANSFER(),             	/* disable chip */
  85:..\u8g2\csrc/u8x8_d_ssd1327.c ****   U8X8_END()             			/* end of sequence */
  86:..\u8g2\csrc/u8x8_d_ssd1327.c **** };
  87:..\u8g2\csrc/u8x8_d_ssd1327.c **** 
  88:..\u8g2\csrc/u8x8_d_ssd1327.c **** /*
ARM GAS  C:\Users\brian\AppData\Local\Temp\ccDVzQIu.s 			page 3


  89:..\u8g2\csrc/u8x8_d_ssd1327.c ****   input:
  90:..\u8g2\csrc/u8x8_d_ssd1327.c ****     one tile (8 Bytes)
  91:..\u8g2\csrc/u8x8_d_ssd1327.c ****   output:
  92:..\u8g2\csrc/u8x8_d_ssd1327.c ****     Tile for ssd1327 (32 Bytes)
  93:..\u8g2\csrc/u8x8_d_ssd1327.c **** */
  94:..\u8g2\csrc/u8x8_d_ssd1327.c **** 
  95:..\u8g2\csrc/u8x8_d_ssd1327.c **** static uint8_t u8x8_ssd1327_8to32_dest_buf[32];
  96:..\u8g2\csrc/u8x8_d_ssd1327.c **** 
  97:..\u8g2\csrc/u8x8_d_ssd1327.c **** static uint8_t *u8x8_ssd1327_8to32(U8X8_UNUSED u8x8_t *u8x8, uint8_t *ptr)
  98:..\u8g2\csrc/u8x8_d_ssd1327.c **** {
  27              		.loc 1 98 0
  28              		.cfi_startproc
  29              		@ args = 0, pretend = 0, frame = 0
  30              		@ frame_needed = 0, uses_anonymous_args = 0
  31              		@ link register save eliminated.
  32              	.LVL0:
  33 0000 70B4     		push	{r4, r5, r6}
  34              		.cfi_def_cfa_offset 12
  35              		.cfi_offset 4, -12
  36              		.cfi_offset 5, -8
  37              		.cfi_offset 6, -4
  38              	.LVL1:
  99:..\u8g2\csrc/u8x8_d_ssd1327.c ****   uint8_t v;
 100:..\u8g2\csrc/u8x8_d_ssd1327.c ****   uint8_t a,b;
 101:..\u8g2\csrc/u8x8_d_ssd1327.c ****   uint8_t i, j;
 102:..\u8g2\csrc/u8x8_d_ssd1327.c ****   uint8_t *dest;
 103:..\u8g2\csrc/u8x8_d_ssd1327.c ****   
 104:..\u8g2\csrc/u8x8_d_ssd1327.c ****   for( j = 0; j < 4; j++ )
  39              		.loc 1 104 0
  40 0002 0026     		movs	r6, #0
  41 0004 1BE0     		b	.L2
  42              	.LVL2:
  43              	.L7:
 105:..\u8g2\csrc/u8x8_d_ssd1327.c ****   {
 106:..\u8g2\csrc/u8x8_d_ssd1327.c ****     dest = u8x8_ssd1327_8to32_dest_buf;
 107:..\u8g2\csrc/u8x8_d_ssd1327.c ****     dest += j;
  44              		.loc 1 107 0
  45 0006 104D     		ldr	r5, .L10
  46 0008 3544     		add	r5, r5, r6
  47              	.LVL3:
 108:..\u8g2\csrc/u8x8_d_ssd1327.c ****     a =*ptr;
  48              		.loc 1 108 0
  49 000a 0878     		ldrb	r0, [r1]	@ zero_extendqisi2
  50              	.LVL4:
 109:..\u8g2\csrc/u8x8_d_ssd1327.c ****     ptr++;
 110:..\u8g2\csrc/u8x8_d_ssd1327.c ****     b = *ptr;
  51              		.loc 1 110 0
  52 000c 4A78     		ldrb	r2, [r1, #1]	@ zero_extendqisi2
  53              	.LVL5:
 111:..\u8g2\csrc/u8x8_d_ssd1327.c ****     ptr++;
  54              		.loc 1 111 0
  55 000e 0231     		adds	r1, r1, #2
  56              	.LVL6:
 112:..\u8g2\csrc/u8x8_d_ssd1327.c ****     for( i = 0; i < 8; i++ )
  57              		.loc 1 112 0
  58 0010 0023     		movs	r3, #0
  59 0012 10E0     		b	.L3
ARM GAS  C:\Users\brian\AppData\Local\Temp\ccDVzQIu.s 			page 4


  60              	.LVL7:
  61              	.L6:
 113:..\u8g2\csrc/u8x8_d_ssd1327.c ****     {
 114:..\u8g2\csrc/u8x8_d_ssd1327.c ****       v = 0;
 115:..\u8g2\csrc/u8x8_d_ssd1327.c ****       if ( a&1 ) v |= 0xf0;
  62              		.loc 1 115 0
  63 0014 10F0010F 		tst	r0, #1
  64 0018 01D1     		bne	.L8
 114:..\u8g2\csrc/u8x8_d_ssd1327.c ****       if ( a&1 ) v |= 0xf0;
  65              		.loc 1 114 0
  66 001a 0024     		movs	r4, #0
  67 001c 00E0     		b	.L4
  68              	.L8:
  69              		.loc 1 115 0
  70 001e F024     		movs	r4, #240
  71              	.L4:
  72              	.LVL8:
 116:..\u8g2\csrc/u8x8_d_ssd1327.c ****       if ( b&1 ) v |= 0x0f;
  73              		.loc 1 116 0
  74 0020 12F0010F 		tst	r2, #1
  75 0024 01D0     		beq	.L5
  76              		.loc 1 116 0 is_stmt 0 discriminator 1
  77 0026 44F00F04 		orr	r4, r4, #15
  78              	.LVL9:
  79              	.L5:
 117:..\u8g2\csrc/u8x8_d_ssd1327.c ****       *dest = v;
  80              		.loc 1 117 0 is_stmt 1 discriminator 2
  81 002a 05F8044B 		strb	r4, [r5], #4
  82              	.LVL10:
 118:..\u8g2\csrc/u8x8_d_ssd1327.c ****       dest+=4;
 119:..\u8g2\csrc/u8x8_d_ssd1327.c ****       a >>= 1;
  83              		.loc 1 119 0 discriminator 2
  84 002e 4008     		lsrs	r0, r0, #1
  85              	.LVL11:
 120:..\u8g2\csrc/u8x8_d_ssd1327.c ****       b >>= 1;
  86              		.loc 1 120 0 discriminator 2
  87 0030 5208     		lsrs	r2, r2, #1
  88              	.LVL12:
 112:..\u8g2\csrc/u8x8_d_ssd1327.c ****     {
  89              		.loc 1 112 0 discriminator 2
  90 0032 0133     		adds	r3, r3, #1
  91              	.LVL13:
  92 0034 DBB2     		uxtb	r3, r3
  93              	.LVL14:
  94              	.L3:
 112:..\u8g2\csrc/u8x8_d_ssd1327.c ****     {
  95              		.loc 1 112 0 is_stmt 0 discriminator 1
  96 0036 072B     		cmp	r3, #7
  97 0038 ECD9     		bls	.L6
 104:..\u8g2\csrc/u8x8_d_ssd1327.c ****   {
  98              		.loc 1 104 0 is_stmt 1 discriminator 2
  99 003a 0136     		adds	r6, r6, #1
 100              	.LVL15:
 101 003c F6B2     		uxtb	r6, r6
 102              	.LVL16:
 103              	.L2:
 104:..\u8g2\csrc/u8x8_d_ssd1327.c ****   {
ARM GAS  C:\Users\brian\AppData\Local\Temp\ccDVzQIu.s 			page 5


 104              		.loc 1 104 0 is_stmt 0 discriminator 1
 105 003e 032E     		cmp	r6, #3
 106 0040 E1D9     		bls	.L7
 121:..\u8g2\csrc/u8x8_d_ssd1327.c ****     }
 122:..\u8g2\csrc/u8x8_d_ssd1327.c ****   }
 123:..\u8g2\csrc/u8x8_d_ssd1327.c ****   
 124:..\u8g2\csrc/u8x8_d_ssd1327.c ****   return u8x8_ssd1327_8to32_dest_buf;
 125:..\u8g2\csrc/u8x8_d_ssd1327.c **** }
 107              		.loc 1 125 0 is_stmt 1
 108 0042 0148     		ldr	r0, .L10
 109 0044 70BC     		pop	{r4, r5, r6}
 110              		.cfi_restore 6
 111              		.cfi_restore 5
 112              		.cfi_restore 4
 113              		.cfi_def_cfa_offset 0
 114              	.LVL17:
 115 0046 7047     		bx	lr
 116              	.L11:
 117              		.align	2
 118              	.L10:
 119 0048 00000000 		.word	.LANCHOR0
 120              		.cfi_endproc
 121              	.LFE0:
 122              		.size	u8x8_ssd1327_8to32, .-u8x8_ssd1327_8to32
 123              		.section	.text.u8x8_d_ssd1327_96x96_generic,"ax",%progbits
 124              		.align	2
 125              		.thumb
 126              		.thumb_func
 127              		.type	u8x8_d_ssd1327_96x96_generic, %function
 128              	u8x8_d_ssd1327_96x96_generic:
 129              	.LFB1:
 126:..\u8g2\csrc/u8x8_d_ssd1327.c **** 
 127:..\u8g2\csrc/u8x8_d_ssd1327.c **** 
 128:..\u8g2\csrc/u8x8_d_ssd1327.c **** 
 129:..\u8g2\csrc/u8x8_d_ssd1327.c **** 
 130:..\u8g2\csrc/u8x8_d_ssd1327.c **** static uint8_t u8x8_d_ssd1327_96x96_generic(u8x8_t *u8x8, uint8_t msg, uint8_t arg_int, void *arg_p
 131:..\u8g2\csrc/u8x8_d_ssd1327.c **** {
 130              		.loc 1 131 0
 131              		.cfi_startproc
 132              		@ args = 0, pretend = 0, frame = 0
 133              		@ frame_needed = 0, uses_anonymous_args = 0
 134              	.LVL18:
 135 0000 2DE9F843 		push	{r3, r4, r5, r6, r7, r8, r9, lr}
 136              		.cfi_def_cfa_offset 32
 137              		.cfi_offset 3, -32
 138              		.cfi_offset 4, -28
 139              		.cfi_offset 5, -24
 140              		.cfi_offset 6, -20
 141              		.cfi_offset 7, -16
 142              		.cfi_offset 8, -12
 143              		.cfi_offset 9, -8
 144              		.cfi_offset 14, -4
 145 0004 0646     		mov	r6, r0
 146 0006 9046     		mov	r8, r2
 132:..\u8g2\csrc/u8x8_d_ssd1327.c ****   uint8_t x, y, c;
 133:..\u8g2\csrc/u8x8_d_ssd1327.c ****   uint8_t *ptr;
 134:..\u8g2\csrc/u8x8_d_ssd1327.c ****   switch(msg)
ARM GAS  C:\Users\brian\AppData\Local\Temp\ccDVzQIu.s 			page 6


 147              		.loc 1 134 0
 148 0008 0E29     		cmp	r1, #14
 149 000a 11D0     		beq	.L14
 150 000c 9946     		mov	r9, r3
 151 000e 0F29     		cmp	r1, #15
 152 0010 1ED0     		beq	.L15
 153 0012 0B29     		cmp	r1, #11
 154 0014 64D1     		bne	.L21
 135:..\u8g2\csrc/u8x8_d_ssd1327.c ****   {
 136:..\u8g2\csrc/u8x8_d_ssd1327.c ****     /* handled by the calling function
 137:..\u8g2\csrc/u8x8_d_ssd1327.c ****     case U8X8_MSG_DISPLAY_SETUP_MEMORY:
 138:..\u8g2\csrc/u8x8_d_ssd1327.c ****       u8x8_d_helper_display_setup_memory(u8x8, &u8x8_ssd1327_96x96_display_info);
 139:..\u8g2\csrc/u8x8_d_ssd1327.c ****       break;
 140:..\u8g2\csrc/u8x8_d_ssd1327.c ****     */
 141:..\u8g2\csrc/u8x8_d_ssd1327.c ****     /* handled by the calling function
 142:..\u8g2\csrc/u8x8_d_ssd1327.c ****     case U8X8_MSG_DISPLAY_INIT:
 143:..\u8g2\csrc/u8x8_d_ssd1327.c ****       u8x8_d_helper_display_init(u8x8);
 144:..\u8g2\csrc/u8x8_d_ssd1327.c ****       u8x8_cad_SendSequence(u8x8, u8x8_d_ssd1327_96x96_init_seq);    
 145:..\u8g2\csrc/u8x8_d_ssd1327.c ****       break;
 146:..\u8g2\csrc/u8x8_d_ssd1327.c ****     */
 147:..\u8g2\csrc/u8x8_d_ssd1327.c ****     case U8X8_MSG_DISPLAY_SET_POWER_SAVE:
 148:..\u8g2\csrc/u8x8_d_ssd1327.c ****       if ( arg_int == 0 )
 155              		.loc 1 148 0
 156 0016 2AB9     		cbnz	r2, .L17
 149:..\u8g2\csrc/u8x8_d_ssd1327.c **** 	u8x8_cad_SendSequence(u8x8, u8x8_d_ssd1327_96x96_powersave0_seq);
 157              		.loc 1 149 0
 158 0018 3349     		ldr	r1, .L23
 159              	.LVL19:
 160 001a FFF7FEFF 		bl	u8x8_cad_SendSequence
 161              	.LVL20:
 150:..\u8g2\csrc/u8x8_d_ssd1327.c ****       else
 151:..\u8g2\csrc/u8x8_d_ssd1327.c **** 	u8x8_cad_SendSequence(u8x8, u8x8_d_ssd1327_96x96_powersave1_seq);
 152:..\u8g2\csrc/u8x8_d_ssd1327.c ****       break;
 153:..\u8g2\csrc/u8x8_d_ssd1327.c **** #ifdef U8X8_WITH_SET_CONTRAST
 154:..\u8g2\csrc/u8x8_d_ssd1327.c ****     case U8X8_MSG_DISPLAY_SET_CONTRAST:
 155:..\u8g2\csrc/u8x8_d_ssd1327.c ****       u8x8_cad_StartTransfer(u8x8);
 156:..\u8g2\csrc/u8x8_d_ssd1327.c ****       u8x8_cad_SendCmd(u8x8, 0x081 );
 157:..\u8g2\csrc/u8x8_d_ssd1327.c ****       u8x8_cad_SendArg(u8x8, arg_int );	/* ssd1327 has range from 0 to 255 */
 158:..\u8g2\csrc/u8x8_d_ssd1327.c ****       u8x8_cad_EndTransfer(u8x8);
 159:..\u8g2\csrc/u8x8_d_ssd1327.c ****       break;
 160:..\u8g2\csrc/u8x8_d_ssd1327.c **** #endif
 161:..\u8g2\csrc/u8x8_d_ssd1327.c ****     case U8X8_MSG_DISPLAY_DRAW_TILE:
 162:..\u8g2\csrc/u8x8_d_ssd1327.c ****       u8x8_cad_StartTransfer(u8x8);
 163:..\u8g2\csrc/u8x8_d_ssd1327.c ****       x = ((u8x8_tile_t *)arg_ptr)->x_pos;    
 164:..\u8g2\csrc/u8x8_d_ssd1327.c ****       x *= 4;
 165:..\u8g2\csrc/u8x8_d_ssd1327.c ****       x+=u8x8->x_offset/2;
 166:..\u8g2\csrc/u8x8_d_ssd1327.c ****     
 167:..\u8g2\csrc/u8x8_d_ssd1327.c ****       y = (((u8x8_tile_t *)arg_ptr)->y_pos);
 168:..\u8g2\csrc/u8x8_d_ssd1327.c ****       y *= 8;
 169:..\u8g2\csrc/u8x8_d_ssd1327.c ****     
 170:..\u8g2\csrc/u8x8_d_ssd1327.c ****       u8x8_cad_SendCmd(u8x8, 0x075 );	/* set row address, moved out of the loop (issue 302) */
 171:..\u8g2\csrc/u8x8_d_ssd1327.c ****       u8x8_cad_SendArg(u8x8, y);
 172:..\u8g2\csrc/u8x8_d_ssd1327.c ****       u8x8_cad_SendArg(u8x8, y+7);
 173:..\u8g2\csrc/u8x8_d_ssd1327.c **** 	  
 174:..\u8g2\csrc/u8x8_d_ssd1327.c ****       
 175:..\u8g2\csrc/u8x8_d_ssd1327.c ****       do
 176:..\u8g2\csrc/u8x8_d_ssd1327.c ****       {
ARM GAS  C:\Users\brian\AppData\Local\Temp\ccDVzQIu.s 			page 7


 177:..\u8g2\csrc/u8x8_d_ssd1327.c **** 	c = ((u8x8_tile_t *)arg_ptr)->cnt;
 178:..\u8g2\csrc/u8x8_d_ssd1327.c **** 	ptr = ((u8x8_tile_t *)arg_ptr)->tile_ptr;
 179:..\u8g2\csrc/u8x8_d_ssd1327.c **** 
 180:..\u8g2\csrc/u8x8_d_ssd1327.c **** 	do
 181:..\u8g2\csrc/u8x8_d_ssd1327.c **** 	{
 182:..\u8g2\csrc/u8x8_d_ssd1327.c **** 	  u8x8_cad_SendCmd(u8x8, 0x015 );	/* set column address */
 183:..\u8g2\csrc/u8x8_d_ssd1327.c **** 	  u8x8_cad_SendArg(u8x8, x );	/* start */
 184:..\u8g2\csrc/u8x8_d_ssd1327.c **** 	  u8x8_cad_SendArg(u8x8, x+3 );	/* end */
 185:..\u8g2\csrc/u8x8_d_ssd1327.c **** 
 186:..\u8g2\csrc/u8x8_d_ssd1327.c **** 	  
 187:..\u8g2\csrc/u8x8_d_ssd1327.c **** 	  u8x8_cad_SendData(u8x8, 32, u8x8_ssd1327_8to32(u8x8, ptr));
 188:..\u8g2\csrc/u8x8_d_ssd1327.c **** 	  ptr += 8;
 189:..\u8g2\csrc/u8x8_d_ssd1327.c **** 	  x += 4;
 190:..\u8g2\csrc/u8x8_d_ssd1327.c **** 	  c--;
 191:..\u8g2\csrc/u8x8_d_ssd1327.c **** 	} while( c > 0 );
 192:..\u8g2\csrc/u8x8_d_ssd1327.c **** 	
 193:..\u8g2\csrc/u8x8_d_ssd1327.c **** 	//x += 4;
 194:..\u8g2\csrc/u8x8_d_ssd1327.c **** 	arg_int--;
 195:..\u8g2\csrc/u8x8_d_ssd1327.c ****       } while( arg_int > 0 );
 196:..\u8g2\csrc/u8x8_d_ssd1327.c ****       
 197:..\u8g2\csrc/u8x8_d_ssd1327.c ****       u8x8_cad_EndTransfer(u8x8);
 198:..\u8g2\csrc/u8x8_d_ssd1327.c ****       break;
 199:..\u8g2\csrc/u8x8_d_ssd1327.c ****     default:
 200:..\u8g2\csrc/u8x8_d_ssd1327.c ****       return 0;
 201:..\u8g2\csrc/u8x8_d_ssd1327.c ****   }
 202:..\u8g2\csrc/u8x8_d_ssd1327.c ****   return 1;
 162              		.loc 1 202 0
 163 001e 0120     		movs	r0, #1
 164 0020 BDE8F883 		pop	{r3, r4, r5, r6, r7, r8, r9, pc}
 165              	.LVL21:
 166              	.L17:
 151:..\u8g2\csrc/u8x8_d_ssd1327.c ****       break;
 167              		.loc 1 151 0
 168 0024 3149     		ldr	r1, .L23+4
 169              	.LVL22:
 170 0026 FFF7FEFF 		bl	u8x8_cad_SendSequence
 171              	.LVL23:
 172              		.loc 1 202 0
 173 002a 0120     		movs	r0, #1
 174 002c BDE8F883 		pop	{r3, r4, r5, r6, r7, r8, r9, pc}
 175              	.LVL24:
 176              	.L14:
 155:..\u8g2\csrc/u8x8_d_ssd1327.c ****       u8x8_cad_SendCmd(u8x8, 0x081 );
 177              		.loc 1 155 0
 178 0030 FFF7FEFF 		bl	u8x8_cad_StartTransfer
 179              	.LVL25:
 156:..\u8g2\csrc/u8x8_d_ssd1327.c ****       u8x8_cad_SendArg(u8x8, arg_int );	/* ssd1327 has range from 0 to 255 */
 180              		.loc 1 156 0
 181 0034 8121     		movs	r1, #129
 182 0036 3046     		mov	r0, r6
 183 0038 FFF7FEFF 		bl	u8x8_cad_SendCmd
 184              	.LVL26:
 157:..\u8g2\csrc/u8x8_d_ssd1327.c ****       u8x8_cad_EndTransfer(u8x8);
 185              		.loc 1 157 0
 186 003c 4146     		mov	r1, r8
 187 003e 3046     		mov	r0, r6
 188 0040 FFF7FEFF 		bl	u8x8_cad_SendArg
ARM GAS  C:\Users\brian\AppData\Local\Temp\ccDVzQIu.s 			page 8


 189              	.LVL27:
 158:..\u8g2\csrc/u8x8_d_ssd1327.c ****       break;
 190              		.loc 1 158 0
 191 0044 3046     		mov	r0, r6
 192 0046 FFF7FEFF 		bl	u8x8_cad_EndTransfer
 193              	.LVL28:
 194              		.loc 1 202 0
 195 004a 0120     		movs	r0, #1
 159:..\u8g2\csrc/u8x8_d_ssd1327.c **** #endif
 196              		.loc 1 159 0
 197 004c BDE8F883 		pop	{r3, r4, r5, r6, r7, r8, r9, pc}
 198              	.LVL29:
 199              	.L15:
 162:..\u8g2\csrc/u8x8_d_ssd1327.c ****       x = ((u8x8_tile_t *)arg_ptr)->x_pos;    
 200              		.loc 1 162 0
 201 0050 FFF7FEFF 		bl	u8x8_cad_StartTransfer
 202              	.LVL30:
 163:..\u8g2\csrc/u8x8_d_ssd1327.c ****       x *= 4;
 203              		.loc 1 163 0
 204 0054 99F80530 		ldrb	r3, [r9, #5]	@ zero_extendqisi2
 205              	.LVL31:
 164:..\u8g2\csrc/u8x8_d_ssd1327.c ****       x+=u8x8->x_offset/2;
 206              		.loc 1 164 0
 207 0058 9B00     		lsls	r3, r3, #2
 208              	.LVL32:
 209 005a DBB2     		uxtb	r3, r3
 210              	.LVL33:
 165:..\u8g2\csrc/u8x8_d_ssd1327.c ****     
 211              		.loc 1 165 0
 212 005c 96F82240 		ldrb	r4, [r6, #34]	@ zero_extendqisi2
 213 0060 03EB5404 		add	r4, r3, r4, lsr #1
 214 0064 E4B2     		uxtb	r4, r4
 215              	.LVL34:
 167:..\u8g2\csrc/u8x8_d_ssd1327.c ****       y *= 8;
 216              		.loc 1 167 0
 217 0066 99F80650 		ldrb	r5, [r9, #6]	@ zero_extendqisi2
 218              	.LVL35:
 168:..\u8g2\csrc/u8x8_d_ssd1327.c ****     
 219              		.loc 1 168 0
 220 006a ED00     		lsls	r5, r5, #3
 221              	.LVL36:
 222 006c EDB2     		uxtb	r5, r5
 223              	.LVL37:
 170:..\u8g2\csrc/u8x8_d_ssd1327.c ****       u8x8_cad_SendArg(u8x8, y);
 224              		.loc 1 170 0
 225 006e 7521     		movs	r1, #117
 226 0070 3046     		mov	r0, r6
 227 0072 FFF7FEFF 		bl	u8x8_cad_SendCmd
 228              	.LVL38:
 171:..\u8g2\csrc/u8x8_d_ssd1327.c ****       u8x8_cad_SendArg(u8x8, y+7);
 229              		.loc 1 171 0
 230 0076 2946     		mov	r1, r5
 231 0078 3046     		mov	r0, r6
 232 007a FFF7FEFF 		bl	u8x8_cad_SendArg
 233              	.LVL39:
 172:..\u8g2\csrc/u8x8_d_ssd1327.c **** 	  
 234              		.loc 1 172 0
ARM GAS  C:\Users\brian\AppData\Local\Temp\ccDVzQIu.s 			page 9


 235 007e E91D     		adds	r1, r5, #7
 236 0080 C9B2     		uxtb	r1, r1
 237 0082 3046     		mov	r0, r6
 238 0084 FFF7FEFF 		bl	u8x8_cad_SendArg
 239              	.LVL40:
 240              	.L19:
 177:..\u8g2\csrc/u8x8_d_ssd1327.c **** 	ptr = ((u8x8_tile_t *)arg_ptr)->tile_ptr;
 241              		.loc 1 177 0
 242 0088 99F80450 		ldrb	r5, [r9, #4]	@ zero_extendqisi2
 243              	.LVL41:
 178:..\u8g2\csrc/u8x8_d_ssd1327.c **** 
 244              		.loc 1 178 0
 245 008c D9F80070 		ldr	r7, [r9]
 246              	.LVL42:
 247              	.L18:
 182:..\u8g2\csrc/u8x8_d_ssd1327.c **** 	  u8x8_cad_SendArg(u8x8, x );	/* start */
 248              		.loc 1 182 0 discriminator 1
 249 0090 1521     		movs	r1, #21
 250 0092 3046     		mov	r0, r6
 251 0094 FFF7FEFF 		bl	u8x8_cad_SendCmd
 252              	.LVL43:
 183:..\u8g2\csrc/u8x8_d_ssd1327.c **** 	  u8x8_cad_SendArg(u8x8, x+3 );	/* end */
 253              		.loc 1 183 0 discriminator 1
 254 0098 2146     		mov	r1, r4
 255 009a 3046     		mov	r0, r6
 256 009c FFF7FEFF 		bl	u8x8_cad_SendArg
 257              	.LVL44:
 184:..\u8g2\csrc/u8x8_d_ssd1327.c **** 
 258              		.loc 1 184 0 discriminator 1
 259 00a0 E11C     		adds	r1, r4, #3
 260 00a2 C9B2     		uxtb	r1, r1
 261 00a4 3046     		mov	r0, r6
 262 00a6 FFF7FEFF 		bl	u8x8_cad_SendArg
 263              	.LVL45:
 187:..\u8g2\csrc/u8x8_d_ssd1327.c **** 	  ptr += 8;
 264              		.loc 1 187 0 discriminator 1
 265 00aa 3946     		mov	r1, r7
 266 00ac 3046     		mov	r0, r6
 267 00ae FFF7FEFF 		bl	u8x8_ssd1327_8to32
 268              	.LVL46:
 269 00b2 0246     		mov	r2, r0
 270 00b4 2021     		movs	r1, #32
 271 00b6 3046     		mov	r0, r6
 272 00b8 FFF7FEFF 		bl	u8x8_cad_SendData
 273              	.LVL47:
 188:..\u8g2\csrc/u8x8_d_ssd1327.c **** 	  x += 4;
 274              		.loc 1 188 0 discriminator 1
 275 00bc 0837     		adds	r7, r7, #8
 276              	.LVL48:
 189:..\u8g2\csrc/u8x8_d_ssd1327.c **** 	  c--;
 277              		.loc 1 189 0 discriminator 1
 278 00be 0434     		adds	r4, r4, #4
 279              	.LVL49:
 280 00c0 E4B2     		uxtb	r4, r4
 281              	.LVL50:
 190:..\u8g2\csrc/u8x8_d_ssd1327.c **** 	} while( c > 0 );
 282              		.loc 1 190 0 discriminator 1
ARM GAS  C:\Users\brian\AppData\Local\Temp\ccDVzQIu.s 			page 10


 283 00c2 6B1E     		subs	r3, r5, #1
 284              	.LVL51:
 191:..\u8g2\csrc/u8x8_d_ssd1327.c **** 	
 285              		.loc 1 191 0 discriminator 1
 286 00c4 13F0FF05 		ands	r5, r3, #255
 287 00c8 E2D1     		bne	.L18
 194:..\u8g2\csrc/u8x8_d_ssd1327.c ****       } while( arg_int > 0 );
 288              		.loc 1 194 0
 289 00ca 08F1FF38 		add	r8, r8, #-1
 290              	.LVL52:
 195:..\u8g2\csrc/u8x8_d_ssd1327.c ****       
 291              		.loc 1 195 0
 292 00ce 18F0FF08 		ands	r8, r8, #255
 293              	.LVL53:
 294 00d2 D9D1     		bne	.L19
 197:..\u8g2\csrc/u8x8_d_ssd1327.c ****       break;
 295              		.loc 1 197 0
 296 00d4 3046     		mov	r0, r6
 297 00d6 FFF7FEFF 		bl	u8x8_cad_EndTransfer
 298              	.LVL54:
 299              		.loc 1 202 0
 300 00da 0120     		movs	r0, #1
 198:..\u8g2\csrc/u8x8_d_ssd1327.c ****     default:
 301              		.loc 1 198 0
 302 00dc BDE8F883 		pop	{r3, r4, r5, r6, r7, r8, r9, pc}
 303              	.LVL55:
 304              	.L21:
 200:..\u8g2\csrc/u8x8_d_ssd1327.c ****   }
 305              		.loc 1 200 0
 306 00e0 0020     		movs	r0, #0
 307              	.LVL56:
 203:..\u8g2\csrc/u8x8_d_ssd1327.c **** }
 308              		.loc 1 203 0
 309 00e2 BDE8F883 		pop	{r3, r4, r5, r6, r7, r8, r9, pc}
 310              	.LVL57:
 311              	.L24:
 312 00e6 00BF     		.align	2
 313              	.L23:
 314 00e8 00000000 		.word	.LANCHOR1
 315 00ec 08000000 		.word	.LANCHOR1+8
 316              		.cfi_endproc
 317              	.LFE1:
 318              		.size	u8x8_d_ssd1327_96x96_generic, .-u8x8_d_ssd1327_96x96_generic
 319              		.section	.text.u8x8_d_ssd1327_ws_96x64,"ax",%progbits
 320              		.align	2
 321              		.global	u8x8_d_ssd1327_ws_96x64
 322              		.thumb
 323              		.thumb_func
 324              		.type	u8x8_d_ssd1327_ws_96x64, %function
 325              	u8x8_d_ssd1327_ws_96x64:
 326              	.LFB2:
 204:..\u8g2\csrc/u8x8_d_ssd1327.c **** 
 205:..\u8g2\csrc/u8x8_d_ssd1327.c **** /*=============================================*/
 206:..\u8g2\csrc/u8x8_d_ssd1327.c **** /*
 207:..\u8g2\csrc/u8x8_d_ssd1327.c ****   Winstar WEA009664B 96x64 OLED Display, 1.1 inch OLED
 208:..\u8g2\csrc/u8x8_d_ssd1327.c ****   https://www.winstar.com.tw/products/oled-module/graphic-oled-display/96x64-oled.html
 209:..\u8g2\csrc/u8x8_d_ssd1327.c **** 
ARM GAS  C:\Users\brian\AppData\Local\Temp\ccDVzQIu.s 			page 11


 210:..\u8g2\csrc/u8x8_d_ssd1327.c ****   https://github.com/olikraus/u8g2/issues/1050
 211:..\u8g2\csrc/u8x8_d_ssd1327.c **** */
 212:..\u8g2\csrc/u8x8_d_ssd1327.c **** 
 213:..\u8g2\csrc/u8x8_d_ssd1327.c **** static const u8x8_display_info_t u8x8_ssd1327_winstar_96x64_display_info =
 214:..\u8g2\csrc/u8x8_d_ssd1327.c **** {
 215:..\u8g2\csrc/u8x8_d_ssd1327.c ****   /* chip_enable_level = */ 0,
 216:..\u8g2\csrc/u8x8_d_ssd1327.c ****   /* chip_disable_level = */ 1,
 217:..\u8g2\csrc/u8x8_d_ssd1327.c ****   
 218:..\u8g2\csrc/u8x8_d_ssd1327.c ****   /* post_chip_enable_wait_ns = */ 20,
 219:..\u8g2\csrc/u8x8_d_ssd1327.c ****   /* pre_chip_disable_wait_ns = */ 10,
 220:..\u8g2\csrc/u8x8_d_ssd1327.c ****   /* reset_pulse_width_ms = */ 100, 	
 221:..\u8g2\csrc/u8x8_d_ssd1327.c ****   /* post_reset_wait_ms = */ 100, 		/**/
 222:..\u8g2\csrc/u8x8_d_ssd1327.c ****   /* sda_setup_time_ns = */ 100,		/* */
 223:..\u8g2\csrc/u8x8_d_ssd1327.c ****   /* sck_pulse_width_ns = */ 100,	/*  */
 224:..\u8g2\csrc/u8x8_d_ssd1327.c ****   /* sck_clock_hz = */ 4000000UL,	/* since Arduino 1.6.0, the SPI bus speed in Hz. Should be  10000
 225:..\u8g2\csrc/u8x8_d_ssd1327.c ****   /* spi_mode = */ 0,		/* active high, rising edge */
 226:..\u8g2\csrc/u8x8_d_ssd1327.c ****   /* i2c_bus_clock_100kHz = */ 1,	/* use 1 instead of 4, because the SSD1327 seems to be very slow 
 227:..\u8g2\csrc/u8x8_d_ssd1327.c ****   /* data_setup_time_ns = */ 40,
 228:..\u8g2\csrc/u8x8_d_ssd1327.c ****   /* write_pulse_width_ns = */ 60,	
 229:..\u8g2\csrc/u8x8_d_ssd1327.c ****   /* tile_width = */ 12,
 230:..\u8g2\csrc/u8x8_d_ssd1327.c ****   /* tile_hight = */ 8,
 231:..\u8g2\csrc/u8x8_d_ssd1327.c ****   /* default_x_offset = */ 16,		/* changed to 16, issue 1050 */
 232:..\u8g2\csrc/u8x8_d_ssd1327.c ****   /* flipmode_x_offset = */ 16,		/* changed to 16, issue 1050 */
 233:..\u8g2\csrc/u8x8_d_ssd1327.c ****   /* pixel_width = */ 96,
 234:..\u8g2\csrc/u8x8_d_ssd1327.c ****   /* pixel_height = */ 64
 235:..\u8g2\csrc/u8x8_d_ssd1327.c **** };
 236:..\u8g2\csrc/u8x8_d_ssd1327.c **** 
 237:..\u8g2\csrc/u8x8_d_ssd1327.c **** /*
 238:..\u8g2\csrc/u8x8_d_ssd1327.c **** 	Write_Cmd(0xAE);	//Set Display Off     OK
 239:..\u8g2\csrc/u8x8_d_ssd1327.c **** 	Write_Cmd(0x81);	//Contrast Level  OK
 240:..\u8g2\csrc/u8x8_d_ssd1327.c ****   	Write_Cmd(0xdF);	//			VALUE WRONG????
 241:..\u8g2\csrc/u8x8_d_ssd1327.c **** 	Write_Cmd(0xD9);	//Pre-charge Period
 242:..\u8g2\csrc/u8x8_d_ssd1327.c ****   	Write_Cmd(0x00);
 243:..\u8g2\csrc/u8x8_d_ssd1327.c **** 	Write_Cmd(0xA0);	//Set Re-map		OK
 244:..\u8g2\csrc/u8x8_d_ssd1327.c **** 	Write_Cmd(0x42);	//Default Setting	OK
 245:..\u8g2\csrc/u8x8_d_ssd1327.c **** 	Write_Cmd(0xA1);	//Set Display Start Line	OK
 246:..\u8g2\csrc/u8x8_d_ssd1327.c **** 	Write_Cmd(0x00);						OK
 247:..\u8g2\csrc/u8x8_d_ssd1327.c **** 	Write_Cmd(0xA2);	//Set Display Offset		OK
 248:..\u8g2\csrc/u8x8_d_ssd1327.c **** 	Write_Cmd(0x00);						OK
 249:..\u8g2\csrc/u8x8_d_ssd1327.c **** 	Write_Cmd(0xA4);	//Set Display Mode		OK
 250:..\u8g2\csrc/u8x8_d_ssd1327.c **** 	Write_Cmd(0xA8);	//Set Multiplex Ratio     	OK
 251:..\u8g2\csrc/u8x8_d_ssd1327.c **** 	Write_Cmd(0x63);	//Multiplex			OK
 252:..\u8g2\csrc/u8x8_d_ssd1327.c **** 	Write_Cmd(0xAB);	//Set Function SelectionA OK
 253:..\u8g2\csrc/u8x8_d_ssd1327.c **** 	Write_Cmd(0x01);						OK
 254:..\u8g2\csrc/u8x8_d_ssd1327.c **** 	Write_Cmd(0xB1);	//Set Phase Length		OK
 255:..\u8g2\csrc/u8x8_d_ssd1327.c **** 	Write_Cmd(0x47);						OK
 256:..\u8g2\csrc/u8x8_d_ssd1327.c **** 	Write_Cmd(0xB3);	//Set Display Clock Divide Ratio/Oscillator Frequency	OK
 257:..\u8g2\csrc/u8x8_d_ssd1327.c **** 	Write_Cmd(0x00);						OK
 258:..\u8g2\csrc/u8x8_d_ssd1327.c **** 	Write_Cmd(0xBC);	//Set Prechange Voltage	OK
 259:..\u8g2\csrc/u8x8_d_ssd1327.c **** 	Write_Cmd(0x07);						OK
 260:..\u8g2\csrc/u8x8_d_ssd1327.c **** 	Write_Cmd(0xBE);	//Set VCOMH Voltage	OK
 261:..\u8g2\csrc/u8x8_d_ssd1327.c **** 	Write_Cmd(0x07);						OK
 262:..\u8g2\csrc/u8x8_d_ssd1327.c **** 	Write_Cmd(0xB6);	//Set Second Pre-charge period	OK
 263:..\u8g2\csrc/u8x8_d_ssd1327.c **** 	Write_Cmd(0x04);								OK
 264:..\u8g2\csrc/u8x8_d_ssd1327.c **** 	Write_Cmd(0xD5);	//Set Function selection B		OK
 265:..\u8g2\csrc/u8x8_d_ssd1327.c **** 	Write_Cmd(0x62);								OK
 266:..\u8g2\csrc/u8x8_d_ssd1327.c **** 	Write_Cmd(0xAF);	//Set Display On
ARM GAS  C:\Users\brian\AppData\Local\Temp\ccDVzQIu.s 			page 12


 267:..\u8g2\csrc/u8x8_d_ssd1327.c **** 
 268:..\u8g2\csrc/u8x8_d_ssd1327.c **** */
 269:..\u8g2\csrc/u8x8_d_ssd1327.c **** 
 270:..\u8g2\csrc/u8x8_d_ssd1327.c **** static const uint8_t u8x8_d_ssd1327_winstar_96x64_init_seq[] = {
 271:..\u8g2\csrc/u8x8_d_ssd1327.c ****     
 272:..\u8g2\csrc/u8x8_d_ssd1327.c ****   U8X8_START_TRANSFER(),             	/* enable chip, delay is part of the transfer start */
 273:..\u8g2\csrc/u8x8_d_ssd1327.c ****   
 274:..\u8g2\csrc/u8x8_d_ssd1327.c ****   U8X8_CA(0x0fd, 0x012),		/* unlock display, usually not required because the display is unlocked a
 275:..\u8g2\csrc/u8x8_d_ssd1327.c ****   U8X8_C(0x0ae),		                /* display off */
 276:..\u8g2\csrc/u8x8_d_ssd1327.c ****   
 277:..\u8g2\csrc/u8x8_d_ssd1327.c ****   U8X8_CA(0x0d9, 0x000),		/* Pre-charge Period ??? */
 278:..\u8g2\csrc/u8x8_d_ssd1327.c ****   
 279:..\u8g2\csrc/u8x8_d_ssd1327.c ****   U8X8_CA(0x0a0, 0x042),		/* remap configuration */
 280:..\u8g2\csrc/u8x8_d_ssd1327.c ****   U8X8_CA(0x0a1, 0x000),		/* display start line */  
 281:..\u8g2\csrc/u8x8_d_ssd1327.c ****   U8X8_CA(0x0a2, 0x000),		/* display offset, shift mapping ram counter */
 282:..\u8g2\csrc/u8x8_d_ssd1327.c ****   
 283:..\u8g2\csrc/u8x8_d_ssd1327.c ****   U8X8_CA(0x0a8, 0x063),		/* multiplex ratio: 63* 1/64 duty */ /* changed to hex, issue 1050 */
 284:..\u8g2\csrc/u8x8_d_ssd1327.c ****   
 285:..\u8g2\csrc/u8x8_d_ssd1327.c ****   U8X8_CA(0x0ab, 0x001),		/* Enable internal VDD regulator (RESET) */
 286:..\u8g2\csrc/u8x8_d_ssd1327.c ****   U8X8_CA(0x081, 0x053),		/* contrast, brightness, 0..128 */
 287:..\u8g2\csrc/u8x8_d_ssd1327.c ****   
 288:..\u8g2\csrc/u8x8_d_ssd1327.c ****   U8X8_CA(0x0b1, 0x047),                    /* phase length */  
 289:..\u8g2\csrc/u8x8_d_ssd1327.c ****   //U8X8_CA(0x0b3, 0x001),		/* set display clock divide ratio/oscillator frequency  */			
 290:..\u8g2\csrc/u8x8_d_ssd1327.c ****   U8X8_CA(0x0b3, 0x000),		/* set display clock divide ratio/oscillator frequency  */			
 291:..\u8g2\csrc/u8x8_d_ssd1327.c ****   
 292:..\u8g2\csrc/u8x8_d_ssd1327.c ****   U8X8_C(0x0b9),				/* use linear lookup table */
 293:..\u8g2\csrc/u8x8_d_ssd1327.c **** 
 294:..\u8g2\csrc/u8x8_d_ssd1327.c ****   U8X8_CA(0x0bc, 0x007),                    /* pre-charge voltage level */
 295:..\u8g2\csrc/u8x8_d_ssd1327.c ****   U8X8_CA(0x0be, 0x007),                     /* VCOMH voltage */
 296:..\u8g2\csrc/u8x8_d_ssd1327.c ****   U8X8_CA(0x0b6, 0x004),		/* second precharge */
 297:..\u8g2\csrc/u8x8_d_ssd1327.c ****   U8X8_CA(0x0d5, 0x062),		/* enable second precharge, internal vsl (bit0 = 0) */
 298:..\u8g2\csrc/u8x8_d_ssd1327.c ****   
 299:..\u8g2\csrc/u8x8_d_ssd1327.c ****   U8X8_C(0x0a4),				/* normal display mode */
 300:..\u8g2\csrc/u8x8_d_ssd1327.c ****     
 301:..\u8g2\csrc/u8x8_d_ssd1327.c ****   U8X8_END_TRANSFER(),             	/* disable chip */
 302:..\u8g2\csrc/u8x8_d_ssd1327.c ****   U8X8_END()             			/* end of sequence */
 303:..\u8g2\csrc/u8x8_d_ssd1327.c **** };
 304:..\u8g2\csrc/u8x8_d_ssd1327.c **** 
 305:..\u8g2\csrc/u8x8_d_ssd1327.c **** uint8_t u8x8_d_ssd1327_ws_96x64(u8x8_t *u8x8, uint8_t msg, uint8_t arg_int, void *arg_ptr)
 306:..\u8g2\csrc/u8x8_d_ssd1327.c **** {
 327              		.loc 1 306 0
 328              		.cfi_startproc
 329              		@ args = 0, pretend = 0, frame = 0
 330              		@ frame_needed = 0, uses_anonymous_args = 0
 331              	.LVL58:
 332 0000 70B5     		push	{r4, r5, r6, lr}
 333              		.cfi_def_cfa_offset 16
 334              		.cfi_offset 4, -16
 335              		.cfi_offset 5, -12
 336              		.cfi_offset 6, -8
 337              		.cfi_offset 14, -4
 338 0002 0546     		mov	r5, r0
 339 0004 0C46     		mov	r4, r1
 340 0006 1646     		mov	r6, r2
 307:..\u8g2\csrc/u8x8_d_ssd1327.c ****   if ( u8x8_d_ssd1327_96x96_generic(u8x8, msg, arg_int, arg_ptr) != 0 )
 341              		.loc 1 307 0
 342 0008 FFF7FEFF 		bl	u8x8_d_ssd1327_96x96_generic
ARM GAS  C:\Users\brian\AppData\Local\Temp\ccDVzQIu.s 			page 13


 343              	.LVL59:
 344 000c 50BB     		cbnz	r0, .L30
 345 000e 0346     		mov	r3, r0
 308:..\u8g2\csrc/u8x8_d_ssd1327.c ****     return 1;
 309:..\u8g2\csrc/u8x8_d_ssd1327.c ****   if ( msg == U8X8_MSG_DISPLAY_SETUP_MEMORY )
 346              		.loc 1 309 0
 347 0010 092C     		cmp	r4, #9
 348 0012 05D1     		bne	.L27
 310:..\u8g2\csrc/u8x8_d_ssd1327.c ****   {
 311:..\u8g2\csrc/u8x8_d_ssd1327.c ****     u8x8_d_helper_display_setup_memory(u8x8, &u8x8_ssd1327_winstar_96x64_display_info);
 349              		.loc 1 311 0
 350 0014 1549     		ldr	r1, .L32
 351 0016 2846     		mov	r0, r5
 352 0018 FFF7FEFF 		bl	u8x8_d_helper_display_setup_memory
 353              	.LVL60:
 312:..\u8g2\csrc/u8x8_d_ssd1327.c ****     return 1;
 354              		.loc 1 312 0
 355 001c 0123     		movs	r3, #1
 356 001e 22E0     		b	.L26
 357              	.L27:
 313:..\u8g2\csrc/u8x8_d_ssd1327.c ****   }
 314:..\u8g2\csrc/u8x8_d_ssd1327.c ****   else if ( msg == U8X8_MSG_DISPLAY_INIT )
 358              		.loc 1 314 0
 359 0020 0A2C     		cmp	r4, #10
 360 0022 08D1     		bne	.L28
 315:..\u8g2\csrc/u8x8_d_ssd1327.c ****   {
 316:..\u8g2\csrc/u8x8_d_ssd1327.c ****     u8x8_d_helper_display_init(u8x8);
 361              		.loc 1 316 0
 362 0024 2846     		mov	r0, r5
 363 0026 FFF7FEFF 		bl	u8x8_d_helper_display_init
 364              	.LVL61:
 317:..\u8g2\csrc/u8x8_d_ssd1327.c ****     u8x8_cad_SendSequence(u8x8, u8x8_d_ssd1327_winstar_96x64_init_seq);    
 365              		.loc 1 317 0
 366 002a 1149     		ldr	r1, .L32+4
 367 002c 2846     		mov	r0, r5
 368 002e FFF7FEFF 		bl	u8x8_cad_SendSequence
 369              	.LVL62:
 318:..\u8g2\csrc/u8x8_d_ssd1327.c ****     return 1;
 370              		.loc 1 318 0
 371 0032 0123     		movs	r3, #1
 372 0034 17E0     		b	.L26
 373              	.L28:
 319:..\u8g2\csrc/u8x8_d_ssd1327.c ****   }
 320:..\u8g2\csrc/u8x8_d_ssd1327.c ****   else if  ( msg == U8X8_MSG_DISPLAY_SET_FLIP_MODE )
 374              		.loc 1 320 0
 375 0036 0D2C     		cmp	r4, #13
 376 0038 15D1     		bne	.L26
 321:..\u8g2\csrc/u8x8_d_ssd1327.c ****   {
 322:..\u8g2\csrc/u8x8_d_ssd1327.c ****     if ( arg_int == 0 )
 377              		.loc 1 322 0
 378 003a 4EB9     		cbnz	r6, .L29
 323:..\u8g2\csrc/u8x8_d_ssd1327.c ****     {
 324:..\u8g2\csrc/u8x8_d_ssd1327.c ****       u8x8_cad_SendSequence(u8x8, u8x8_d_ssd1327_winstar_96x64_flip0_seq);
 379              		.loc 1 324 0
 380 003c 0D49     		ldr	r1, .L32+8
 381 003e 2846     		mov	r0, r5
 382 0040 FFF7FEFF 		bl	u8x8_cad_SendSequence
ARM GAS  C:\Users\brian\AppData\Local\Temp\ccDVzQIu.s 			page 14


 383              	.LVL63:
 325:..\u8g2\csrc/u8x8_d_ssd1327.c ****       u8x8->x_offset = u8x8->display_info->default_x_offset;
 384              		.loc 1 325 0
 385 0044 2B68     		ldr	r3, [r5]
 386 0046 9B7C     		ldrb	r3, [r3, #18]	@ zero_extendqisi2
 387 0048 85F82230 		strb	r3, [r5, #34]
 326:..\u8g2\csrc/u8x8_d_ssd1327.c ****     }
 327:..\u8g2\csrc/u8x8_d_ssd1327.c ****     else
 328:..\u8g2\csrc/u8x8_d_ssd1327.c ****     {
 329:..\u8g2\csrc/u8x8_d_ssd1327.c ****       u8x8_cad_SendSequence(u8x8, u8x8_d_ssd1327_winstar_96x64_flip1_seq);
 330:..\u8g2\csrc/u8x8_d_ssd1327.c ****       u8x8->x_offset = u8x8->display_info->flipmode_x_offset;
 331:..\u8g2\csrc/u8x8_d_ssd1327.c ****     }
 332:..\u8g2\csrc/u8x8_d_ssd1327.c ****     return 1;
 388              		.loc 1 332 0
 389 004c 0123     		movs	r3, #1
 390 004e 0AE0     		b	.L26
 391              	.L29:
 329:..\u8g2\csrc/u8x8_d_ssd1327.c ****       u8x8->x_offset = u8x8->display_info->flipmode_x_offset;
 392              		.loc 1 329 0
 393 0050 0949     		ldr	r1, .L32+12
 394 0052 2846     		mov	r0, r5
 395 0054 FFF7FEFF 		bl	u8x8_cad_SendSequence
 396              	.LVL64:
 330:..\u8g2\csrc/u8x8_d_ssd1327.c ****     }
 397              		.loc 1 330 0
 398 0058 2B68     		ldr	r3, [r5]
 399 005a DB7C     		ldrb	r3, [r3, #19]	@ zero_extendqisi2
 400 005c 85F82230 		strb	r3, [r5, #34]
 401              		.loc 1 332 0
 402 0060 0123     		movs	r3, #1
 403 0062 00E0     		b	.L26
 404              	.L30:
 308:..\u8g2\csrc/u8x8_d_ssd1327.c ****   if ( msg == U8X8_MSG_DISPLAY_SETUP_MEMORY )
 405              		.loc 1 308 0
 406 0064 0123     		movs	r3, #1
 407              	.L26:
 333:..\u8g2\csrc/u8x8_d_ssd1327.c ****   }
 334:..\u8g2\csrc/u8x8_d_ssd1327.c ****   return 0;
 335:..\u8g2\csrc/u8x8_d_ssd1327.c **** }
 408              		.loc 1 335 0
 409 0066 1846     		mov	r0, r3
 410 0068 70BD     		pop	{r4, r5, r6, pc}
 411              	.LVL65:
 412              	.L33:
 413 006a 00BF     		.align	2
 414              	.L32:
 415 006c 10000000 		.word	.LANCHOR1+16
 416 0070 28000000 		.word	.LANCHOR1+40
 417 0074 6C000000 		.word	.LANCHOR1+108
 418 0078 78000000 		.word	.LANCHOR1+120
 419              		.cfi_endproc
 420              	.LFE2:
 421              		.size	u8x8_d_ssd1327_ws_96x64, .-u8x8_d_ssd1327_ws_96x64
 422              		.section	.text.u8x8_d_ssd1327_seeed_96x96,"ax",%progbits
 423              		.align	2
 424              		.global	u8x8_d_ssd1327_seeed_96x96
 425              		.thumb
ARM GAS  C:\Users\brian\AppData\Local\Temp\ccDVzQIu.s 			page 15


 426              		.thumb_func
 427              		.type	u8x8_d_ssd1327_seeed_96x96, %function
 428              	u8x8_d_ssd1327_seeed_96x96:
 429              	.LFB3:
 336:..\u8g2\csrc/u8x8_d_ssd1327.c **** 
 337:..\u8g2\csrc/u8x8_d_ssd1327.c **** 
 338:..\u8g2\csrc/u8x8_d_ssd1327.c **** /*=============================================*/
 339:..\u8g2\csrc/u8x8_d_ssd1327.c **** /*  Seeedstudio Grove OLED 96x96 */
 340:..\u8g2\csrc/u8x8_d_ssd1327.c **** 
 341:..\u8g2\csrc/u8x8_d_ssd1327.c **** static const u8x8_display_info_t u8x8_ssd1327_96x96_display_info =
 342:..\u8g2\csrc/u8x8_d_ssd1327.c **** {
 343:..\u8g2\csrc/u8x8_d_ssd1327.c ****   /* chip_enable_level = */ 0,
 344:..\u8g2\csrc/u8x8_d_ssd1327.c ****   /* chip_disable_level = */ 1,
 345:..\u8g2\csrc/u8x8_d_ssd1327.c ****   
 346:..\u8g2\csrc/u8x8_d_ssd1327.c ****   /* post_chip_enable_wait_ns = */ 20,
 347:..\u8g2\csrc/u8x8_d_ssd1327.c ****   /* pre_chip_disable_wait_ns = */ 10,
 348:..\u8g2\csrc/u8x8_d_ssd1327.c ****   /* reset_pulse_width_ms = */ 100, 	
 349:..\u8g2\csrc/u8x8_d_ssd1327.c ****   /* post_reset_wait_ms = */ 100, 		/**/
 350:..\u8g2\csrc/u8x8_d_ssd1327.c ****   /* sda_setup_time_ns = */ 100,		/* */
 351:..\u8g2\csrc/u8x8_d_ssd1327.c ****   /* sck_pulse_width_ns = */ 100,	/*  */
 352:..\u8g2\csrc/u8x8_d_ssd1327.c ****   /* sck_clock_hz = */ 4000000UL,	/* since Arduino 1.6.0, the SPI bus speed in Hz. Should be  10000
 353:..\u8g2\csrc/u8x8_d_ssd1327.c ****   /* spi_mode = */ 0,		/* active high, rising edge */
 354:..\u8g2\csrc/u8x8_d_ssd1327.c ****   /* i2c_bus_clock_100kHz = */ 1,	/* use 1 instead of 4, because the SSD1327 seems to be very slow 
 355:..\u8g2\csrc/u8x8_d_ssd1327.c ****   /* data_setup_time_ns = */ 40,
 356:..\u8g2\csrc/u8x8_d_ssd1327.c ****   /* write_pulse_width_ns = */ 60,	
 357:..\u8g2\csrc/u8x8_d_ssd1327.c ****   /* tile_width = */ 12,
 358:..\u8g2\csrc/u8x8_d_ssd1327.c ****   /* tile_hight = */ 12,
 359:..\u8g2\csrc/u8x8_d_ssd1327.c ****   /* default_x_offset = */ 16,
 360:..\u8g2\csrc/u8x8_d_ssd1327.c ****   /* flipmode_x_offset = */ 16,		
 361:..\u8g2\csrc/u8x8_d_ssd1327.c ****   /* pixel_width = */ 96,
 362:..\u8g2\csrc/u8x8_d_ssd1327.c ****   /* pixel_height = */ 96
 363:..\u8g2\csrc/u8x8_d_ssd1327.c **** };
 364:..\u8g2\csrc/u8x8_d_ssd1327.c **** 
 365:..\u8g2\csrc/u8x8_d_ssd1327.c **** /*  https://github.com/SeeedDocument/Grove_OLED_1.12/raw/master/resources/LY120-096096.pdf */
 366:..\u8g2\csrc/u8x8_d_ssd1327.c **** /*  http://www.seeedstudio.com/wiki/index.php?title=Twig_-_OLED_96x96 */
 367:..\u8g2\csrc/u8x8_d_ssd1327.c **** /* values from u8glib */
 368:..\u8g2\csrc/u8x8_d_ssd1327.c **** /*
 369:..\u8g2\csrc/u8x8_d_ssd1327.c ****   Re-map setting in Graphic Display Data RAM, command 0x0a0
 370:..\u8g2\csrc/u8x8_d_ssd1327.c ****     Bit 0: Column Address Re-map
 371:..\u8g2\csrc/u8x8_d_ssd1327.c ****     Bit 1: Nibble Re-map
 372:..\u8g2\csrc/u8x8_d_ssd1327.c ****     Bit 2: Horizontal/Vertical Address Increment
 373:..\u8g2\csrc/u8x8_d_ssd1327.c ****     Bit 3: Not used, must be 0
 374:..\u8g2\csrc/u8x8_d_ssd1327.c ****     
 375:..\u8g2\csrc/u8x8_d_ssd1327.c ****     Bit 4: COM Re-map
 376:..\u8g2\csrc/u8x8_d_ssd1327.c ****     Bit 5: Not used, must be 0
 377:..\u8g2\csrc/u8x8_d_ssd1327.c ****     Bit 6: COM Split Odd Even
 378:..\u8g2\csrc/u8x8_d_ssd1327.c ****     Bit 7: Not used, must be 0
 379:..\u8g2\csrc/u8x8_d_ssd1327.c **** */
 380:..\u8g2\csrc/u8x8_d_ssd1327.c **** 
 381:..\u8g2\csrc/u8x8_d_ssd1327.c **** 
 382:..\u8g2\csrc/u8x8_d_ssd1327.c **** static const uint8_t u8x8_d_ssd1327_96x96_init_seq[] = {
 383:..\u8g2\csrc/u8x8_d_ssd1327.c ****     
 384:..\u8g2\csrc/u8x8_d_ssd1327.c ****   U8X8_START_TRANSFER(),             	/* enable chip, delay is part of the transfer start */
 385:..\u8g2\csrc/u8x8_d_ssd1327.c ****   
 386:..\u8g2\csrc/u8x8_d_ssd1327.c ****   U8X8_CA(0x0fd, 0x012),		/* unlock display, usually not required because the display is unlocked a
 387:..\u8g2\csrc/u8x8_d_ssd1327.c ****   U8X8_C(0x0ae),		                /* display off */
 388:..\u8g2\csrc/u8x8_d_ssd1327.c ****   //U8X8_CA(0x0a8, 0x03f),		/* multiplex ratio: 0x03f * 1/64 duty */
ARM GAS  C:\Users\brian\AppData\Local\Temp\ccDVzQIu.s 			page 16


 389:..\u8g2\csrc/u8x8_d_ssd1327.c ****   U8X8_CA(0x0a8, 0x05f),		/* multiplex ratio: 0x05f * 1/64 duty */
 390:..\u8g2\csrc/u8x8_d_ssd1327.c ****   U8X8_CA(0x0a1, 0x000),		/* display start line */
 391:..\u8g2\csrc/u8x8_d_ssd1327.c ****   //U8X8_CA(0x0a2, 0x04c),		/* display offset, shift mapping ram counter */
 392:..\u8g2\csrc/u8x8_d_ssd1327.c ****   
 393:..\u8g2\csrc/u8x8_d_ssd1327.c ****   U8X8_CA(0x0a2, 0x020),		/* display offset, shift mapping ram counter */
 394:..\u8g2\csrc/u8x8_d_ssd1327.c ****   U8X8_CA(0x0a0, 0x051),		/* remap configuration */
 395:..\u8g2\csrc/u8x8_d_ssd1327.c ****   
 396:..\u8g2\csrc/u8x8_d_ssd1327.c ****   
 397:..\u8g2\csrc/u8x8_d_ssd1327.c ****   U8X8_CA(0x0ab, 0x001),		/* Enable internal VDD regulator (RESET) */
 398:..\u8g2\csrc/u8x8_d_ssd1327.c ****   //U8X8_CA(0x081, 0x070),		/* contrast, brightness, 0..128 */
 399:..\u8g2\csrc/u8x8_d_ssd1327.c ****   U8X8_CA(0x081, 0x053),		/* contrast, brightness, 0..128 */
 400:..\u8g2\csrc/u8x8_d_ssd1327.c ****   //U8X8_CA(0x0b1, 0x055),                    /* phase length */
 401:..\u8g2\csrc/u8x8_d_ssd1327.c ****   U8X8_CA(0x0b1, 0x051),                    /* phase length */  
 402:..\u8g2\csrc/u8x8_d_ssd1327.c ****   //U8X8_CA(0x0b3, 0x091),		/* set display clock divide ratio/oscillator frequency (set clock as 13
 403:..\u8g2\csrc/u8x8_d_ssd1327.c ****   U8X8_CA(0x0b3, 0x001),		/* set display clock divide ratio/oscillator frequency  */			
 404:..\u8g2\csrc/u8x8_d_ssd1327.c ****   
 405:..\u8g2\csrc/u8x8_d_ssd1327.c ****   //? U8X8_CA(0x0ad, 0x002),		/* master configuration: disable embedded DC-DC, enable internal VCOM
 406:..\u8g2\csrc/u8x8_d_ssd1327.c ****   //? U8X8_C(0x086),				/* full current range (0x084, 0x085, 0x086) */
 407:..\u8g2\csrc/u8x8_d_ssd1327.c ****   
 408:..\u8g2\csrc/u8x8_d_ssd1327.c ****   U8X8_C(0x0b9),				/* use linear lookup table */
 409:..\u8g2\csrc/u8x8_d_ssd1327.c **** 
 410:..\u8g2\csrc/u8x8_d_ssd1327.c ****   //U8X8_CA(0x0bc, 0x010),                    /* pre-charge voltage level */
 411:..\u8g2\csrc/u8x8_d_ssd1327.c ****   U8X8_CA(0x0bc, 0x008),                    /* pre-charge voltage level */
 412:..\u8g2\csrc/u8x8_d_ssd1327.c ****   //U8X8_CA(0x0be, 0x01c),                     /* VCOMH voltage */
 413:..\u8g2\csrc/u8x8_d_ssd1327.c ****   U8X8_CA(0x0be, 0x007),                     /* VCOMH voltage */
 414:..\u8g2\csrc/u8x8_d_ssd1327.c ****   U8X8_CA(0x0b6, 0x001),		/* second precharge */
 415:..\u8g2\csrc/u8x8_d_ssd1327.c ****   U8X8_CA(0x0d5, 0x062),		/* enable second precharge, internal vsl (bit0 = 0) */
 416:..\u8g2\csrc/u8x8_d_ssd1327.c **** 
 417:..\u8g2\csrc/u8x8_d_ssd1327.c **** 
 418:..\u8g2\csrc/u8x8_d_ssd1327.c ****   
 419:..\u8g2\csrc/u8x8_d_ssd1327.c ****   U8X8_C(0x0a4),				/* normal display mode */
 420:..\u8g2\csrc/u8x8_d_ssd1327.c ****     
 421:..\u8g2\csrc/u8x8_d_ssd1327.c ****   U8X8_END_TRANSFER(),             	/* disable chip */
 422:..\u8g2\csrc/u8x8_d_ssd1327.c ****   U8X8_END()             			/* end of sequence */
 423:..\u8g2\csrc/u8x8_d_ssd1327.c **** };
 424:..\u8g2\csrc/u8x8_d_ssd1327.c **** 
 425:..\u8g2\csrc/u8x8_d_ssd1327.c **** 
 426:..\u8g2\csrc/u8x8_d_ssd1327.c **** 
 427:..\u8g2\csrc/u8x8_d_ssd1327.c **** 
 428:..\u8g2\csrc/u8x8_d_ssd1327.c **** uint8_t u8x8_d_ssd1327_seeed_96x96(u8x8_t *u8x8, uint8_t msg, uint8_t arg_int, void *arg_ptr)
 429:..\u8g2\csrc/u8x8_d_ssd1327.c **** {
 430              		.loc 1 429 0
 431              		.cfi_startproc
 432              		@ args = 0, pretend = 0, frame = 0
 433              		@ frame_needed = 0, uses_anonymous_args = 0
 434              	.LVL66:
 435 0000 70B5     		push	{r4, r5, r6, lr}
 436              		.cfi_def_cfa_offset 16
 437              		.cfi_offset 4, -16
 438              		.cfi_offset 5, -12
 439              		.cfi_offset 6, -8
 440              		.cfi_offset 14, -4
 441 0002 0546     		mov	r5, r0
 442 0004 0C46     		mov	r4, r1
 443 0006 1646     		mov	r6, r2
 430:..\u8g2\csrc/u8x8_d_ssd1327.c ****   if ( u8x8_d_ssd1327_96x96_generic(u8x8, msg, arg_int, arg_ptr) != 0 )
 444              		.loc 1 430 0
ARM GAS  C:\Users\brian\AppData\Local\Temp\ccDVzQIu.s 			page 17


 445 0008 FFF7FEFF 		bl	u8x8_d_ssd1327_96x96_generic
 446              	.LVL67:
 447 000c 50BB     		cbnz	r0, .L39
 448 000e 0346     		mov	r3, r0
 431:..\u8g2\csrc/u8x8_d_ssd1327.c ****     return 1;
 432:..\u8g2\csrc/u8x8_d_ssd1327.c ****   if ( msg == U8X8_MSG_DISPLAY_SETUP_MEMORY )
 449              		.loc 1 432 0
 450 0010 092C     		cmp	r4, #9
 451 0012 05D1     		bne	.L36
 433:..\u8g2\csrc/u8x8_d_ssd1327.c ****   {
 434:..\u8g2\csrc/u8x8_d_ssd1327.c ****     u8x8_d_helper_display_setup_memory(u8x8, &u8x8_ssd1327_96x96_display_info);
 452              		.loc 1 434 0
 453 0014 1549     		ldr	r1, .L41
 454 0016 2846     		mov	r0, r5
 455 0018 FFF7FEFF 		bl	u8x8_d_helper_display_setup_memory
 456              	.LVL68:
 435:..\u8g2\csrc/u8x8_d_ssd1327.c ****     return 1;
 457              		.loc 1 435 0
 458 001c 0123     		movs	r3, #1
 459 001e 22E0     		b	.L35
 460              	.L36:
 436:..\u8g2\csrc/u8x8_d_ssd1327.c ****   }
 437:..\u8g2\csrc/u8x8_d_ssd1327.c ****   else if ( msg == U8X8_MSG_DISPLAY_INIT )
 461              		.loc 1 437 0
 462 0020 0A2C     		cmp	r4, #10
 463 0022 08D1     		bne	.L37
 438:..\u8g2\csrc/u8x8_d_ssd1327.c ****   {
 439:..\u8g2\csrc/u8x8_d_ssd1327.c ****     u8x8_d_helper_display_init(u8x8);
 464              		.loc 1 439 0
 465 0024 2846     		mov	r0, r5
 466 0026 FFF7FEFF 		bl	u8x8_d_helper_display_init
 467              	.LVL69:
 440:..\u8g2\csrc/u8x8_d_ssd1327.c ****     u8x8_cad_SendSequence(u8x8, u8x8_d_ssd1327_96x96_init_seq);    
 468              		.loc 1 440 0
 469 002a 1149     		ldr	r1, .L41+4
 470 002c 2846     		mov	r0, r5
 471 002e FFF7FEFF 		bl	u8x8_cad_SendSequence
 472              	.LVL70:
 441:..\u8g2\csrc/u8x8_d_ssd1327.c ****     return 1;
 473              		.loc 1 441 0
 474 0032 0123     		movs	r3, #1
 475 0034 17E0     		b	.L35
 476              	.L37:
 442:..\u8g2\csrc/u8x8_d_ssd1327.c ****   }
 443:..\u8g2\csrc/u8x8_d_ssd1327.c ****   else if  ( msg == U8X8_MSG_DISPLAY_SET_FLIP_MODE )
 477              		.loc 1 443 0
 478 0036 0D2C     		cmp	r4, #13
 479 0038 15D1     		bne	.L35
 444:..\u8g2\csrc/u8x8_d_ssd1327.c ****   {
 445:..\u8g2\csrc/u8x8_d_ssd1327.c ****     if ( arg_int == 0 )
 480              		.loc 1 445 0
 481 003a 4EB9     		cbnz	r6, .L38
 446:..\u8g2\csrc/u8x8_d_ssd1327.c ****     {
 447:..\u8g2\csrc/u8x8_d_ssd1327.c ****       u8x8_cad_SendSequence(u8x8, u8x8_d_ssd1327_seeed_96x96_flip0_seq);
 482              		.loc 1 447 0
 483 003c 0D49     		ldr	r1, .L41+8
 484 003e 2846     		mov	r0, r5
ARM GAS  C:\Users\brian\AppData\Local\Temp\ccDVzQIu.s 			page 18


 485 0040 FFF7FEFF 		bl	u8x8_cad_SendSequence
 486              	.LVL71:
 448:..\u8g2\csrc/u8x8_d_ssd1327.c ****       u8x8->x_offset = u8x8->display_info->default_x_offset;
 487              		.loc 1 448 0
 488 0044 2B68     		ldr	r3, [r5]
 489 0046 9B7C     		ldrb	r3, [r3, #18]	@ zero_extendqisi2
 490 0048 85F82230 		strb	r3, [r5, #34]
 449:..\u8g2\csrc/u8x8_d_ssd1327.c ****     }
 450:..\u8g2\csrc/u8x8_d_ssd1327.c ****     else
 451:..\u8g2\csrc/u8x8_d_ssd1327.c ****     {
 452:..\u8g2\csrc/u8x8_d_ssd1327.c ****       u8x8_cad_SendSequence(u8x8, u8x8_d_ssd1327_seeed_96x96_flip1_seq);
 453:..\u8g2\csrc/u8x8_d_ssd1327.c ****       u8x8->x_offset = u8x8->display_info->flipmode_x_offset;
 454:..\u8g2\csrc/u8x8_d_ssd1327.c ****     }
 455:..\u8g2\csrc/u8x8_d_ssd1327.c ****     return 1;
 491              		.loc 1 455 0
 492 004c 0123     		movs	r3, #1
 493 004e 0AE0     		b	.L35
 494              	.L38:
 452:..\u8g2\csrc/u8x8_d_ssd1327.c ****       u8x8->x_offset = u8x8->display_info->flipmode_x_offset;
 495              		.loc 1 452 0
 496 0050 0949     		ldr	r1, .L41+12
 497 0052 2846     		mov	r0, r5
 498 0054 FFF7FEFF 		bl	u8x8_cad_SendSequence
 499              	.LVL72:
 453:..\u8g2\csrc/u8x8_d_ssd1327.c ****     }
 500              		.loc 1 453 0
 501 0058 2B68     		ldr	r3, [r5]
 502 005a DB7C     		ldrb	r3, [r3, #19]	@ zero_extendqisi2
 503 005c 85F82230 		strb	r3, [r5, #34]
 504              		.loc 1 455 0
 505 0060 0123     		movs	r3, #1
 506 0062 00E0     		b	.L35
 507              	.L39:
 431:..\u8g2\csrc/u8x8_d_ssd1327.c ****   if ( msg == U8X8_MSG_DISPLAY_SETUP_MEMORY )
 508              		.loc 1 431 0
 509 0064 0123     		movs	r3, #1
 510              	.L35:
 456:..\u8g2\csrc/u8x8_d_ssd1327.c ****   }
 457:..\u8g2\csrc/u8x8_d_ssd1327.c ****   return 0;
 458:..\u8g2\csrc/u8x8_d_ssd1327.c **** }
 511              		.loc 1 458 0
 512 0066 1846     		mov	r0, r3
 513 0068 70BD     		pop	{r4, r5, r6, pc}
 514              	.LVL73:
 515              	.L42:
 516 006a 00BF     		.align	2
 517              	.L41:
 518 006c 84000000 		.word	.LANCHOR1+132
 519 0070 9C000000 		.word	.LANCHOR1+156
 520 0074 DC000000 		.word	.LANCHOR1+220
 521 0078 E8000000 		.word	.LANCHOR1+232
 522              		.cfi_endproc
 523              	.LFE3:
 524              		.size	u8x8_d_ssd1327_seeed_96x96, .-u8x8_d_ssd1327_seeed_96x96
 525              		.section	.text.u8x8_d_ssd1327_ea_w128128,"ax",%progbits
 526              		.align	2
 527              		.global	u8x8_d_ssd1327_ea_w128128
ARM GAS  C:\Users\brian\AppData\Local\Temp\ccDVzQIu.s 			page 19


 528              		.thumb
 529              		.thumb_func
 530              		.type	u8x8_d_ssd1327_ea_w128128, %function
 531              	u8x8_d_ssd1327_ea_w128128:
 532              	.LFB4:
 459:..\u8g2\csrc/u8x8_d_ssd1327.c **** 
 460:..\u8g2\csrc/u8x8_d_ssd1327.c **** /*=============================================*/
 461:..\u8g2\csrc/u8x8_d_ssd1327.c **** /*  EA W128128 round OLED 128x128 */
 462:..\u8g2\csrc/u8x8_d_ssd1327.c **** /* issue #641 */
 463:..\u8g2\csrc/u8x8_d_ssd1327.c **** /* https://www.lcd-module.de/fileadmin/eng/pdf/grafik/W128128-XR.pdf */
 464:..\u8g2\csrc/u8x8_d_ssd1327.c **** 
 465:..\u8g2\csrc/u8x8_d_ssd1327.c **** static const u8x8_display_info_t u8x8_ssd1327_ea_w128128_display_info =
 466:..\u8g2\csrc/u8x8_d_ssd1327.c **** {
 467:..\u8g2\csrc/u8x8_d_ssd1327.c ****   /* chip_enable_level = */ 0,
 468:..\u8g2\csrc/u8x8_d_ssd1327.c ****   /* chip_disable_level = */ 1,
 469:..\u8g2\csrc/u8x8_d_ssd1327.c ****   
 470:..\u8g2\csrc/u8x8_d_ssd1327.c ****   /* post_chip_enable_wait_ns = */ 20,
 471:..\u8g2\csrc/u8x8_d_ssd1327.c ****   /* pre_chip_disable_wait_ns = */ 10,
 472:..\u8g2\csrc/u8x8_d_ssd1327.c ****   /* reset_pulse_width_ms = */ 100, 	
 473:..\u8g2\csrc/u8x8_d_ssd1327.c ****   /* post_reset_wait_ms = */ 100, 		/**/
 474:..\u8g2\csrc/u8x8_d_ssd1327.c ****   /* sda_setup_time_ns = */ 100,		/* */
 475:..\u8g2\csrc/u8x8_d_ssd1327.c ****   /* sck_pulse_width_ns = */ 100,	/*  */
 476:..\u8g2\csrc/u8x8_d_ssd1327.c ****   /* sck_clock_hz = */ 4000000UL,	/* since Arduino 1.6.0, the SPI bus speed in Hz. Should be  10000
 477:..\u8g2\csrc/u8x8_d_ssd1327.c ****   /* spi_mode = */ 0,		/* active high, rising edge */
 478:..\u8g2\csrc/u8x8_d_ssd1327.c ****   /* i2c_bus_clock_100kHz = */ 1,	/* use 1 instead of 4, because the SSD1327 seems to be very slow 
 479:..\u8g2\csrc/u8x8_d_ssd1327.c ****   /* data_setup_time_ns = */ 40,
 480:..\u8g2\csrc/u8x8_d_ssd1327.c ****   /* write_pulse_width_ns = */ 60,	
 481:..\u8g2\csrc/u8x8_d_ssd1327.c ****   /* tile_width = */ 16,
 482:..\u8g2\csrc/u8x8_d_ssd1327.c ****   /* tile_hight = */ 16,
 483:..\u8g2\csrc/u8x8_d_ssd1327.c ****   /* default_x_offset = */ 0,
 484:..\u8g2\csrc/u8x8_d_ssd1327.c ****   /* flipmode_x_offset = */ 0,		
 485:..\u8g2\csrc/u8x8_d_ssd1327.c ****   /* pixel_width = */ 128,
 486:..\u8g2\csrc/u8x8_d_ssd1327.c ****   /* pixel_height = */ 128
 487:..\u8g2\csrc/u8x8_d_ssd1327.c **** };
 488:..\u8g2\csrc/u8x8_d_ssd1327.c **** 
 489:..\u8g2\csrc/u8x8_d_ssd1327.c **** /* this is a copy of the init sequence for the seeed 96x96 oled */
 490:..\u8g2\csrc/u8x8_d_ssd1327.c **** static const uint8_t u8x8_d_ssd1327_ea_w128128_init_seq[] = {
 491:..\u8g2\csrc/u8x8_d_ssd1327.c ****     
 492:..\u8g2\csrc/u8x8_d_ssd1327.c ****   U8X8_START_TRANSFER(),             	/* enable chip, delay is part of the transfer start */
 493:..\u8g2\csrc/u8x8_d_ssd1327.c ****   
 494:..\u8g2\csrc/u8x8_d_ssd1327.c ****   U8X8_CA(0x0fd, 0x012),		/* unlock display, usually not required because the display is unlocked a
 495:..\u8g2\csrc/u8x8_d_ssd1327.c ****   U8X8_C(0x0ae),		                /* display off */
 496:..\u8g2\csrc/u8x8_d_ssd1327.c ****   //U8X8_CA(0x0a8, 0x03f),		/* multiplex ratio: 0x03f * 1/64 duty */
 497:..\u8g2\csrc/u8x8_d_ssd1327.c ****   U8X8_CA(0x0a8, 0x05f),		/* multiplex ratio: 0x05f * 1/64 duty */
 498:..\u8g2\csrc/u8x8_d_ssd1327.c ****   U8X8_CA(0x0a1, 0x000),		/* display start line */
 499:..\u8g2\csrc/u8x8_d_ssd1327.c ****   //U8X8_CA(0x0a2, 0x04c),		/* display offset, shift mapping ram counter */
 500:..\u8g2\csrc/u8x8_d_ssd1327.c ****   
 501:..\u8g2\csrc/u8x8_d_ssd1327.c ****   U8X8_CA(0x0a2, 0x010),		/* display offset, shift mapping ram counter */
 502:..\u8g2\csrc/u8x8_d_ssd1327.c ****   U8X8_CA(0x0a0, 0x051),		/* remap configuration */
 503:..\u8g2\csrc/u8x8_d_ssd1327.c ****   
 504:..\u8g2\csrc/u8x8_d_ssd1327.c ****   
 505:..\u8g2\csrc/u8x8_d_ssd1327.c ****   U8X8_CA(0x0ab, 0x001),		/* Enable internal VDD regulator (RESET) */
 506:..\u8g2\csrc/u8x8_d_ssd1327.c ****   //U8X8_CA(0x081, 0x070),		/* contrast, brightness, 0..128 */
 507:..\u8g2\csrc/u8x8_d_ssd1327.c ****   U8X8_CA(0x081, 0x053),		/* contrast, brightness, 0..128 */
 508:..\u8g2\csrc/u8x8_d_ssd1327.c ****   //U8X8_CA(0x0b1, 0x055),                    /* phase length */
 509:..\u8g2\csrc/u8x8_d_ssd1327.c ****   U8X8_CA(0x0b1, 0x051),                    /* phase length */  
 510:..\u8g2\csrc/u8x8_d_ssd1327.c ****   //U8X8_CA(0x0b3, 0x091),		/* set display clock divide ratio/oscillator frequency (set clock as 13
ARM GAS  C:\Users\brian\AppData\Local\Temp\ccDVzQIu.s 			page 20


 511:..\u8g2\csrc/u8x8_d_ssd1327.c ****   U8X8_CA(0x0b3, 0x001),		/* set display clock divide ratio/oscillator frequency  */			
 512:..\u8g2\csrc/u8x8_d_ssd1327.c ****   
 513:..\u8g2\csrc/u8x8_d_ssd1327.c ****   //? U8X8_CA(0x0ad, 0x002),		/* master configuration: disable embedded DC-DC, enable internal VCOM
 514:..\u8g2\csrc/u8x8_d_ssd1327.c ****   //? U8X8_C(0x086),				/* full current range (0x084, 0x085, 0x086) */
 515:..\u8g2\csrc/u8x8_d_ssd1327.c ****   
 516:..\u8g2\csrc/u8x8_d_ssd1327.c ****   U8X8_C(0x0b9),				/* use linear lookup table */
 517:..\u8g2\csrc/u8x8_d_ssd1327.c **** 
 518:..\u8g2\csrc/u8x8_d_ssd1327.c ****   //U8X8_CA(0x0bc, 0x010),                    /* pre-charge voltage level */
 519:..\u8g2\csrc/u8x8_d_ssd1327.c ****   U8X8_CA(0x0bc, 0x008),                    /* pre-charge voltage level */
 520:..\u8g2\csrc/u8x8_d_ssd1327.c ****   //U8X8_CA(0x0be, 0x01c),                     /* VCOMH voltage */
 521:..\u8g2\csrc/u8x8_d_ssd1327.c ****   U8X8_CA(0x0be, 0x007),                     /* VCOMH voltage */
 522:..\u8g2\csrc/u8x8_d_ssd1327.c ****   U8X8_CA(0x0b6, 0x001),		/* second precharge */
 523:..\u8g2\csrc/u8x8_d_ssd1327.c ****   U8X8_CA(0x0d5, 0x062),		/* enable second precharge, internal vsl (bit0 = 0) */
 524:..\u8g2\csrc/u8x8_d_ssd1327.c ****   
 525:..\u8g2\csrc/u8x8_d_ssd1327.c ****   U8X8_C(0x0a4),				/* normal display mode */
 526:..\u8g2\csrc/u8x8_d_ssd1327.c ****     
 527:..\u8g2\csrc/u8x8_d_ssd1327.c ****   U8X8_END_TRANSFER(),             	/* disable chip */
 528:..\u8g2\csrc/u8x8_d_ssd1327.c ****   U8X8_END()             			/* end of sequence */
 529:..\u8g2\csrc/u8x8_d_ssd1327.c **** };
 530:..\u8g2\csrc/u8x8_d_ssd1327.c **** 
 531:..\u8g2\csrc/u8x8_d_ssd1327.c **** 
 532:..\u8g2\csrc/u8x8_d_ssd1327.c **** 
 533:..\u8g2\csrc/u8x8_d_ssd1327.c **** static const uint8_t u8x8_d_ssd1327_ea_w128128_flip0_seq[] = {
 534:..\u8g2\csrc/u8x8_d_ssd1327.c ****   U8X8_START_TRANSFER(),             	/* enable chip, delay is part of the transfer start */
 535:..\u8g2\csrc/u8x8_d_ssd1327.c ****   U8X8_CA(0x0a2, 0x000),		/* display offset, shift mapping ram counter */
 536:..\u8g2\csrc/u8x8_d_ssd1327.c ****   U8X8_CA(0x0a0, 0x051),		/* remap configuration */
 537:..\u8g2\csrc/u8x8_d_ssd1327.c ****   U8X8_END_TRANSFER(),             	/* disable chip */
 538:..\u8g2\csrc/u8x8_d_ssd1327.c ****   U8X8_END()             			/* end of sequence */
 539:..\u8g2\csrc/u8x8_d_ssd1327.c **** };
 540:..\u8g2\csrc/u8x8_d_ssd1327.c **** 
 541:..\u8g2\csrc/u8x8_d_ssd1327.c **** static const uint8_t u8x8_d_ssd1327_ea_w128128_flip1_seq[] = {
 542:..\u8g2\csrc/u8x8_d_ssd1327.c ****   U8X8_START_TRANSFER(),             	/* enable chip, delay is part of the transfer start */
 543:..\u8g2\csrc/u8x8_d_ssd1327.c ****   U8X8_CA(0x0a2, 0x000),		/* display offset, shift mapping ram counter */
 544:..\u8g2\csrc/u8x8_d_ssd1327.c ****   U8X8_CA(0x0a0, 0x042),		/* remap configuration */
 545:..\u8g2\csrc/u8x8_d_ssd1327.c ****   U8X8_END_TRANSFER(),             	/* disable chip */
 546:..\u8g2\csrc/u8x8_d_ssd1327.c ****   U8X8_END()             			/* end of sequence */
 547:..\u8g2\csrc/u8x8_d_ssd1327.c **** };
 548:..\u8g2\csrc/u8x8_d_ssd1327.c **** 
 549:..\u8g2\csrc/u8x8_d_ssd1327.c **** uint8_t u8x8_d_ssd1327_ea_w128128(u8x8_t *u8x8, uint8_t msg, uint8_t arg_int, void *arg_ptr)
 550:..\u8g2\csrc/u8x8_d_ssd1327.c **** {
 533              		.loc 1 550 0
 534              		.cfi_startproc
 535              		@ args = 0, pretend = 0, frame = 0
 536              		@ frame_needed = 0, uses_anonymous_args = 0
 537              	.LVL74:
 538 0000 70B5     		push	{r4, r5, r6, lr}
 539              		.cfi_def_cfa_offset 16
 540              		.cfi_offset 4, -16
 541              		.cfi_offset 5, -12
 542              		.cfi_offset 6, -8
 543              		.cfi_offset 14, -4
 544 0002 0546     		mov	r5, r0
 545 0004 0C46     		mov	r4, r1
 546 0006 1646     		mov	r6, r2
 551:..\u8g2\csrc/u8x8_d_ssd1327.c ****   if ( u8x8_d_ssd1327_96x96_generic(u8x8, msg, arg_int, arg_ptr) != 0 )
 547              		.loc 1 551 0
 548 0008 FFF7FEFF 		bl	u8x8_d_ssd1327_96x96_generic
ARM GAS  C:\Users\brian\AppData\Local\Temp\ccDVzQIu.s 			page 21


 549              	.LVL75:
 550 000c 50BB     		cbnz	r0, .L48
 551 000e 0346     		mov	r3, r0
 552:..\u8g2\csrc/u8x8_d_ssd1327.c ****     return 1;
 553:..\u8g2\csrc/u8x8_d_ssd1327.c ****   if ( msg == U8X8_MSG_DISPLAY_SETUP_MEMORY )
 552              		.loc 1 553 0
 553 0010 092C     		cmp	r4, #9
 554 0012 05D1     		bne	.L45
 554:..\u8g2\csrc/u8x8_d_ssd1327.c ****   {
 555:..\u8g2\csrc/u8x8_d_ssd1327.c ****     u8x8_d_helper_display_setup_memory(u8x8, &u8x8_ssd1327_ea_w128128_display_info);
 555              		.loc 1 555 0
 556 0014 1549     		ldr	r1, .L50
 557 0016 2846     		mov	r0, r5
 558 0018 FFF7FEFF 		bl	u8x8_d_helper_display_setup_memory
 559              	.LVL76:
 556:..\u8g2\csrc/u8x8_d_ssd1327.c ****     return 1;
 560              		.loc 1 556 0
 561 001c 0123     		movs	r3, #1
 562 001e 22E0     		b	.L44
 563              	.L45:
 557:..\u8g2\csrc/u8x8_d_ssd1327.c ****   }
 558:..\u8g2\csrc/u8x8_d_ssd1327.c ****   else if ( msg == U8X8_MSG_DISPLAY_INIT )
 564              		.loc 1 558 0
 565 0020 0A2C     		cmp	r4, #10
 566 0022 08D1     		bne	.L46
 559:..\u8g2\csrc/u8x8_d_ssd1327.c ****   {
 560:..\u8g2\csrc/u8x8_d_ssd1327.c ****     u8x8_d_helper_display_init(u8x8);
 567              		.loc 1 560 0
 568 0024 2846     		mov	r0, r5
 569 0026 FFF7FEFF 		bl	u8x8_d_helper_display_init
 570              	.LVL77:
 561:..\u8g2\csrc/u8x8_d_ssd1327.c ****     u8x8_cad_SendSequence(u8x8, u8x8_d_ssd1327_ea_w128128_init_seq);    
 571              		.loc 1 561 0
 572 002a 1149     		ldr	r1, .L50+4
 573 002c 2846     		mov	r0, r5
 574 002e FFF7FEFF 		bl	u8x8_cad_SendSequence
 575              	.LVL78:
 562:..\u8g2\csrc/u8x8_d_ssd1327.c ****     return 1;
 576              		.loc 1 562 0
 577 0032 0123     		movs	r3, #1
 578 0034 17E0     		b	.L44
 579              	.L46:
 563:..\u8g2\csrc/u8x8_d_ssd1327.c ****   }
 564:..\u8g2\csrc/u8x8_d_ssd1327.c ****   else if  ( msg == U8X8_MSG_DISPLAY_SET_FLIP_MODE )
 580              		.loc 1 564 0
 581 0036 0D2C     		cmp	r4, #13
 582 0038 15D1     		bne	.L44
 565:..\u8g2\csrc/u8x8_d_ssd1327.c ****   {
 566:..\u8g2\csrc/u8x8_d_ssd1327.c ****     if ( arg_int == 0 )
 583              		.loc 1 566 0
 584 003a 4EB9     		cbnz	r6, .L47
 567:..\u8g2\csrc/u8x8_d_ssd1327.c ****     {
 568:..\u8g2\csrc/u8x8_d_ssd1327.c ****       u8x8_cad_SendSequence(u8x8, u8x8_d_ssd1327_ea_w128128_flip0_seq);
 585              		.loc 1 568 0
 586 003c 0D49     		ldr	r1, .L50+8
 587 003e 2846     		mov	r0, r5
 588 0040 FFF7FEFF 		bl	u8x8_cad_SendSequence
ARM GAS  C:\Users\brian\AppData\Local\Temp\ccDVzQIu.s 			page 22


 589              	.LVL79:
 569:..\u8g2\csrc/u8x8_d_ssd1327.c ****       u8x8->x_offset = u8x8->display_info->default_x_offset;
 590              		.loc 1 569 0
 591 0044 2B68     		ldr	r3, [r5]
 592 0046 9B7C     		ldrb	r3, [r3, #18]	@ zero_extendqisi2
 593 0048 85F82230 		strb	r3, [r5, #34]
 570:..\u8g2\csrc/u8x8_d_ssd1327.c ****     }
 571:..\u8g2\csrc/u8x8_d_ssd1327.c ****     else
 572:..\u8g2\csrc/u8x8_d_ssd1327.c ****     {
 573:..\u8g2\csrc/u8x8_d_ssd1327.c ****       u8x8_cad_SendSequence(u8x8, u8x8_d_ssd1327_ea_w128128_flip1_seq);
 574:..\u8g2\csrc/u8x8_d_ssd1327.c ****       u8x8->x_offset = u8x8->display_info->flipmode_x_offset;
 575:..\u8g2\csrc/u8x8_d_ssd1327.c ****     }
 576:..\u8g2\csrc/u8x8_d_ssd1327.c ****     return 1;
 594              		.loc 1 576 0
 595 004c 0123     		movs	r3, #1
 596 004e 0AE0     		b	.L44
 597              	.L47:
 573:..\u8g2\csrc/u8x8_d_ssd1327.c ****       u8x8->x_offset = u8x8->display_info->flipmode_x_offset;
 598              		.loc 1 573 0
 599 0050 0949     		ldr	r1, .L50+12
 600 0052 2846     		mov	r0, r5
 601 0054 FFF7FEFF 		bl	u8x8_cad_SendSequence
 602              	.LVL80:
 574:..\u8g2\csrc/u8x8_d_ssd1327.c ****     }
 603              		.loc 1 574 0
 604 0058 2B68     		ldr	r3, [r5]
 605 005a DB7C     		ldrb	r3, [r3, #19]	@ zero_extendqisi2
 606 005c 85F82230 		strb	r3, [r5, #34]
 607              		.loc 1 576 0
 608 0060 0123     		movs	r3, #1
 609 0062 00E0     		b	.L44
 610              	.L48:
 552:..\u8g2\csrc/u8x8_d_ssd1327.c ****   if ( msg == U8X8_MSG_DISPLAY_SETUP_MEMORY )
 611              		.loc 1 552 0
 612 0064 0123     		movs	r3, #1
 613              	.L44:
 577:..\u8g2\csrc/u8x8_d_ssd1327.c ****   }
 578:..\u8g2\csrc/u8x8_d_ssd1327.c ****   return 0;
 579:..\u8g2\csrc/u8x8_d_ssd1327.c **** }
 614              		.loc 1 579 0
 615 0066 1846     		mov	r0, r3
 616 0068 70BD     		pop	{r4, r5, r6, pc}
 617              	.LVL81:
 618              	.L51:
 619 006a 00BF     		.align	2
 620              	.L50:
 621 006c F4000000 		.word	.LANCHOR1+244
 622 0070 0C010000 		.word	.LANCHOR1+268
 623 0074 4C010000 		.word	.LANCHOR1+332
 624 0078 58010000 		.word	.LANCHOR1+344
 625              		.cfi_endproc
 626              	.LFE4:
 627              		.size	u8x8_d_ssd1327_ea_w128128, .-u8x8_d_ssd1327_ea_w128128
 628              		.section	.text.u8x8_d_ssd1327_midas_128x128,"ax",%progbits
 629              		.align	2
 630              		.global	u8x8_d_ssd1327_midas_128x128
 631              		.thumb
ARM GAS  C:\Users\brian\AppData\Local\Temp\ccDVzQIu.s 			page 23


 632              		.thumb_func
 633              		.type	u8x8_d_ssd1327_midas_128x128, %function
 634              	u8x8_d_ssd1327_midas_128x128:
 635              	.LFB5:
 580:..\u8g2\csrc/u8x8_d_ssd1327.c **** 
 581:..\u8g2\csrc/u8x8_d_ssd1327.c **** /*=============================================*/
 582:..\u8g2\csrc/u8x8_d_ssd1327.c **** /*  MIDAS MCOT128128C1V-YM 128x128 Module */
 583:..\u8g2\csrc/u8x8_d_ssd1327.c **** 
 584:..\u8g2\csrc/u8x8_d_ssd1327.c **** 
 585:..\u8g2\csrc/u8x8_d_ssd1327.c **** static const u8x8_display_info_t u8x8_ssd1327_128x128_display_info =
 586:..\u8g2\csrc/u8x8_d_ssd1327.c **** {
 587:..\u8g2\csrc/u8x8_d_ssd1327.c ****   /* chip_enable_level = */ 0,
 588:..\u8g2\csrc/u8x8_d_ssd1327.c ****   /* chip_disable_level = */ 1,
 589:..\u8g2\csrc/u8x8_d_ssd1327.c ****   
 590:..\u8g2\csrc/u8x8_d_ssd1327.c ****   /* post_chip_enable_wait_ns = */ 20,
 591:..\u8g2\csrc/u8x8_d_ssd1327.c ****   /* pre_chip_disable_wait_ns = */ 10,
 592:..\u8g2\csrc/u8x8_d_ssd1327.c ****   /* reset_pulse_width_ms = */ 100, 	
 593:..\u8g2\csrc/u8x8_d_ssd1327.c ****   /* post_reset_wait_ms = */ 100, 		/**/
 594:..\u8g2\csrc/u8x8_d_ssd1327.c ****   /* sda_setup_time_ns = */ 100,		/* */
 595:..\u8g2\csrc/u8x8_d_ssd1327.c ****   /* sck_pulse_width_ns = */ 100,	/*  */
 596:..\u8g2\csrc/u8x8_d_ssd1327.c ****   /* sck_clock_hz = */ 4000000UL,	/* since Arduino 1.6.0, the SPI bus speed in Hz. Should be  10000
 597:..\u8g2\csrc/u8x8_d_ssd1327.c ****   /* spi_mode = */ 0,		/* active high, rising edge */
 598:..\u8g2\csrc/u8x8_d_ssd1327.c ****   /* i2c_bus_clock_100kHz = */ 1,	/* use 1 instead of 4, because the SSD1327 seems to be very slow,
 599:..\u8g2\csrc/u8x8_d_ssd1327.c ****   /* data_setup_time_ns = */ 40,
 600:..\u8g2\csrc/u8x8_d_ssd1327.c ****   /* write_pulse_width_ns = */ 60,	
 601:..\u8g2\csrc/u8x8_d_ssd1327.c ****   /* tile_width = */ 16,
 602:..\u8g2\csrc/u8x8_d_ssd1327.c ****   /* tile_hight = */ 16,
 603:..\u8g2\csrc/u8x8_d_ssd1327.c ****   /* default_x_offset = */ 0,
 604:..\u8g2\csrc/u8x8_d_ssd1327.c ****   /* flipmode_x_offset = */ 0,		
 605:..\u8g2\csrc/u8x8_d_ssd1327.c ****   /* pixel_width = */ 128,
 606:..\u8g2\csrc/u8x8_d_ssd1327.c ****   /* pixel_height = */ 128
 607:..\u8g2\csrc/u8x8_d_ssd1327.c **** };
 608:..\u8g2\csrc/u8x8_d_ssd1327.c **** 
 609:..\u8g2\csrc/u8x8_d_ssd1327.c **** /*  https://github.com/SeeedDocument/Grove_OLED_1.12/raw/master/resources/LY120-096096.pdf */
 610:..\u8g2\csrc/u8x8_d_ssd1327.c **** /*  http://www.seeedstudio.com/wiki/index.php?title=Twig_-_OLED_96x96 */
 611:..\u8g2\csrc/u8x8_d_ssd1327.c **** /* values from u8glib */
 612:..\u8g2\csrc/u8x8_d_ssd1327.c **** /*
 613:..\u8g2\csrc/u8x8_d_ssd1327.c ****   Re-map setting in Graphic Display Data RAM, command 0x0a0
 614:..\u8g2\csrc/u8x8_d_ssd1327.c ****     Bit 0: Column Address Re-map
 615:..\u8g2\csrc/u8x8_d_ssd1327.c ****     Bit 1: Nibble Re-map
 616:..\u8g2\csrc/u8x8_d_ssd1327.c ****     Bit 2: Horizontal/Vertical Address Increment
 617:..\u8g2\csrc/u8x8_d_ssd1327.c ****     Bit 3: Not used, must be 0
 618:..\u8g2\csrc/u8x8_d_ssd1327.c ****     
 619:..\u8g2\csrc/u8x8_d_ssd1327.c ****     Bit 4: COM Re-map
 620:..\u8g2\csrc/u8x8_d_ssd1327.c ****     Bit 5: Not used, must be 0
 621:..\u8g2\csrc/u8x8_d_ssd1327.c ****     Bit 6: COM Split Odd Even
 622:..\u8g2\csrc/u8x8_d_ssd1327.c ****     Bit 7: Not used, must be 0
 623:..\u8g2\csrc/u8x8_d_ssd1327.c **** */
 624:..\u8g2\csrc/u8x8_d_ssd1327.c **** 
 625:..\u8g2\csrc/u8x8_d_ssd1327.c **** 
 626:..\u8g2\csrc/u8x8_d_ssd1327.c **** static const uint8_t u8x8_d_ssd1327_128x128_init_seq[] = {
 627:..\u8g2\csrc/u8x8_d_ssd1327.c ****     
 628:..\u8g2\csrc/u8x8_d_ssd1327.c ****   U8X8_START_TRANSFER(),             	/* enable chip, delay is part of the transfer start */
 629:..\u8g2\csrc/u8x8_d_ssd1327.c **** 
 630:..\u8g2\csrc/u8x8_d_ssd1327.c **** 	
 631:..\u8g2\csrc/u8x8_d_ssd1327.c ****   U8X8_CA(0x0fd, 0x012),		/* unlock display, usually not required because the display is unlocked a
 632:..\u8g2\csrc/u8x8_d_ssd1327.c ****   U8X8_C(0x0ae),		                /* display off */
ARM GAS  C:\Users\brian\AppData\Local\Temp\ccDVzQIu.s 			page 24


 633:..\u8g2\csrc/u8x8_d_ssd1327.c ****   //U8X8_CA(0x0a8, 0x03f),		/* multiplex ratio: 0x03f * 1/64 duty */
 634:..\u8g2\csrc/u8x8_d_ssd1327.c ****   //U8X8_CA(0x0a8, 0x05f),		/* multiplex ratio: 0x05f * 1/64 duty */
 635:..\u8g2\csrc/u8x8_d_ssd1327.c ****   U8X8_CA(0x0a8, 0x07f),       		 /* multiplex ratio: 0x05f * 1/128duty */
 636:..\u8g2\csrc/u8x8_d_ssd1327.c ****   U8X8_CA(0x0a1, 0x000),		/* display start line */
 637:..\u8g2\csrc/u8x8_d_ssd1327.c ****   //U8X8_CA(0x0a2, 0x04c),		/* display offset, shift mapping ram counter */
 638:..\u8g2\csrc/u8x8_d_ssd1327.c ****   
 639:..\u8g2\csrc/u8x8_d_ssd1327.c ****   U8X8_CA(0x0a2, 0x000),		/* display offset, shift mapping ram counter */
 640:..\u8g2\csrc/u8x8_d_ssd1327.c ****   U8X8_CA(0x0a0, 0x051),		/* remap configuration */
 641:..\u8g2\csrc/u8x8_d_ssd1327.c ****   
 642:..\u8g2\csrc/u8x8_d_ssd1327.c ****   
 643:..\u8g2\csrc/u8x8_d_ssd1327.c ****   U8X8_CA(0x0ab, 0x001),		/* Enable internal VDD regulator (RESET) */
 644:..\u8g2\csrc/u8x8_d_ssd1327.c ****   //U8X8_CA(0x081, 0x070),		/* contrast, brightness, 0..128 */
 645:..\u8g2\csrc/u8x8_d_ssd1327.c ****   U8X8_CA(0x081, 0x053),		/* contrast, brightness, 0..128 */
 646:..\u8g2\csrc/u8x8_d_ssd1327.c ****   //U8X8_CA(0x0b1, 0x055),                    /* phase length */
 647:..\u8g2\csrc/u8x8_d_ssd1327.c ****   U8X8_CA(0x0b1, 0x051),                    /* phase length */  
 648:..\u8g2\csrc/u8x8_d_ssd1327.c ****   //U8X8_CA(0x0b3, 0x091),		/* set display clock divide ratio/oscillator frequency (set clock as 13
 649:..\u8g2\csrc/u8x8_d_ssd1327.c ****   U8X8_CA(0x0b3, 0x001),		/* set display clock divide ratio/oscillator frequency  */			
 650:..\u8g2\csrc/u8x8_d_ssd1327.c ****   
 651:..\u8g2\csrc/u8x8_d_ssd1327.c ****   //? U8X8_CA(0x0ad, 0x002),		/* master configuration: disable embedded DC-DC, enable internal VCOM
 652:..\u8g2\csrc/u8x8_d_ssd1327.c ****   //? U8X8_C(0x086),				/* full current range (0x084, 0x085, 0x086) */
 653:..\u8g2\csrc/u8x8_d_ssd1327.c ****   
 654:..\u8g2\csrc/u8x8_d_ssd1327.c ****   U8X8_C(0x0b9),				/* use linear lookup table */
 655:..\u8g2\csrc/u8x8_d_ssd1327.c **** 
 656:..\u8g2\csrc/u8x8_d_ssd1327.c ****   //U8X8_CA(0x0bc, 0x010),                    /* pre-charge voltage level */
 657:..\u8g2\csrc/u8x8_d_ssd1327.c ****   U8X8_CA(0x0bc, 0x008),                    /* pre-charge voltage level */
 658:..\u8g2\csrc/u8x8_d_ssd1327.c ****   //U8X8_CA(0x0be, 0x01c),                     /* VCOMH voltage */
 659:..\u8g2\csrc/u8x8_d_ssd1327.c ****   U8X8_CA(0x0be, 0x007),                     /* VCOMH voltage */
 660:..\u8g2\csrc/u8x8_d_ssd1327.c ****   U8X8_CA(0x0b6, 0x001),		/* second precharge */
 661:..\u8g2\csrc/u8x8_d_ssd1327.c ****   U8X8_CA(0x0d5, 0x062),		/* enable second precharge, internal vsl (bit0 = 0) */
 662:..\u8g2\csrc/u8x8_d_ssd1327.c **** 
 663:..\u8g2\csrc/u8x8_d_ssd1327.c **** 
 664:..\u8g2\csrc/u8x8_d_ssd1327.c ****   
 665:..\u8g2\csrc/u8x8_d_ssd1327.c ****   U8X8_C(0x0a4),				/* normal display mode */
 666:..\u8g2\csrc/u8x8_d_ssd1327.c ****     
 667:..\u8g2\csrc/u8x8_d_ssd1327.c ****   U8X8_END_TRANSFER(),             	/* disable chip */
 668:..\u8g2\csrc/u8x8_d_ssd1327.c ****   U8X8_END()             			/* end of sequence */
 669:..\u8g2\csrc/u8x8_d_ssd1327.c **** };
 670:..\u8g2\csrc/u8x8_d_ssd1327.c **** 
 671:..\u8g2\csrc/u8x8_d_ssd1327.c **** 
 672:..\u8g2\csrc/u8x8_d_ssd1327.c **** static const uint8_t u8x8_d_ssd1327_128x128_flip0_seq[] = {
 673:..\u8g2\csrc/u8x8_d_ssd1327.c ****   U8X8_START_TRANSFER(),             	/* enable chip, delay is part of the transfer start */
 674:..\u8g2\csrc/u8x8_d_ssd1327.c ****   U8X8_CA(0x0a2, 0x000),		/* display offset, shift mapping ram counter */
 675:..\u8g2\csrc/u8x8_d_ssd1327.c ****   U8X8_CA(0x0a0, 0x051),		/* remap configuration */
 676:..\u8g2\csrc/u8x8_d_ssd1327.c ****   U8X8_END_TRANSFER(),             	/* disable chip */
 677:..\u8g2\csrc/u8x8_d_ssd1327.c ****   U8X8_END()             			/* end of sequence */
 678:..\u8g2\csrc/u8x8_d_ssd1327.c **** };
 679:..\u8g2\csrc/u8x8_d_ssd1327.c **** 
 680:..\u8g2\csrc/u8x8_d_ssd1327.c **** static const uint8_t u8x8_d_ssd1327_128x128_flip1_seq[] = {
 681:..\u8g2\csrc/u8x8_d_ssd1327.c ****   U8X8_START_TRANSFER(),             	/* enable chip, delay is part of the transfer start */
 682:..\u8g2\csrc/u8x8_d_ssd1327.c ****   U8X8_CA(0x0a2, 0x000),		/* display offset, shift mapping ram counter */
 683:..\u8g2\csrc/u8x8_d_ssd1327.c ****   U8X8_CA(0x0a0, 0x042),		/* remap configuration */
 684:..\u8g2\csrc/u8x8_d_ssd1327.c ****   U8X8_END_TRANSFER(),             	/* disable chip */
 685:..\u8g2\csrc/u8x8_d_ssd1327.c ****   U8X8_END()             			/* end of sequence */
 686:..\u8g2\csrc/u8x8_d_ssd1327.c **** };
 687:..\u8g2\csrc/u8x8_d_ssd1327.c **** 
 688:..\u8g2\csrc/u8x8_d_ssd1327.c **** 
 689:..\u8g2\csrc/u8x8_d_ssd1327.c **** uint8_t u8x8_d_ssd1327_midas_128x128(u8x8_t *u8x8, uint8_t msg, uint8_t arg_int, void *arg_ptr)
ARM GAS  C:\Users\brian\AppData\Local\Temp\ccDVzQIu.s 			page 25


 690:..\u8g2\csrc/u8x8_d_ssd1327.c **** {
 636              		.loc 1 690 0
 637              		.cfi_startproc
 638              		@ args = 0, pretend = 0, frame = 0
 639              		@ frame_needed = 0, uses_anonymous_args = 0
 640              	.LVL82:
 641 0000 70B5     		push	{r4, r5, r6, lr}
 642              		.cfi_def_cfa_offset 16
 643              		.cfi_offset 4, -16
 644              		.cfi_offset 5, -12
 645              		.cfi_offset 6, -8
 646              		.cfi_offset 14, -4
 647 0002 0546     		mov	r5, r0
 648 0004 0C46     		mov	r4, r1
 649 0006 1646     		mov	r6, r2
 691:..\u8g2\csrc/u8x8_d_ssd1327.c ****   /* call the 96x96 procedure at the moment */
 692:..\u8g2\csrc/u8x8_d_ssd1327.c ****   if ( u8x8_d_ssd1327_96x96_generic(u8x8, msg, arg_int, arg_ptr) != 0 )
 650              		.loc 1 692 0
 651 0008 FFF7FEFF 		bl	u8x8_d_ssd1327_96x96_generic
 652              	.LVL83:
 653 000c 50BB     		cbnz	r0, .L57
 654 000e 0346     		mov	r3, r0
 693:..\u8g2\csrc/u8x8_d_ssd1327.c ****     return 1;
 694:..\u8g2\csrc/u8x8_d_ssd1327.c ****   if ( msg == U8X8_MSG_DISPLAY_SETUP_MEMORY )
 655              		.loc 1 694 0
 656 0010 092C     		cmp	r4, #9
 657 0012 05D1     		bne	.L54
 695:..\u8g2\csrc/u8x8_d_ssd1327.c ****   {
 696:..\u8g2\csrc/u8x8_d_ssd1327.c ****     u8x8_d_helper_display_setup_memory(u8x8, &u8x8_ssd1327_128x128_display_info);
 658              		.loc 1 696 0
 659 0014 1549     		ldr	r1, .L59
 660 0016 2846     		mov	r0, r5
 661 0018 FFF7FEFF 		bl	u8x8_d_helper_display_setup_memory
 662              	.LVL84:
 697:..\u8g2\csrc/u8x8_d_ssd1327.c ****     return 1;
 663              		.loc 1 697 0
 664 001c 0123     		movs	r3, #1
 665 001e 22E0     		b	.L53
 666              	.L54:
 698:..\u8g2\csrc/u8x8_d_ssd1327.c ****   }
 699:..\u8g2\csrc/u8x8_d_ssd1327.c ****   else if ( msg == U8X8_MSG_DISPLAY_INIT )
 667              		.loc 1 699 0
 668 0020 0A2C     		cmp	r4, #10
 669 0022 08D1     		bne	.L55
 700:..\u8g2\csrc/u8x8_d_ssd1327.c ****   {
 701:..\u8g2\csrc/u8x8_d_ssd1327.c ****     u8x8_d_helper_display_init(u8x8);
 670              		.loc 1 701 0
 671 0024 2846     		mov	r0, r5
 672 0026 FFF7FEFF 		bl	u8x8_d_helper_display_init
 673              	.LVL85:
 702:..\u8g2\csrc/u8x8_d_ssd1327.c ****     u8x8_cad_SendSequence(u8x8, u8x8_d_ssd1327_128x128_init_seq); 
 674              		.loc 1 702 0
 675 002a 1149     		ldr	r1, .L59+4
 676 002c 2846     		mov	r0, r5
 677 002e FFF7FEFF 		bl	u8x8_cad_SendSequence
 678              	.LVL86:
 703:..\u8g2\csrc/u8x8_d_ssd1327.c ****     return 1;
ARM GAS  C:\Users\brian\AppData\Local\Temp\ccDVzQIu.s 			page 26


 679              		.loc 1 703 0
 680 0032 0123     		movs	r3, #1
 681 0034 17E0     		b	.L53
 682              	.L55:
 704:..\u8g2\csrc/u8x8_d_ssd1327.c ****   }
 705:..\u8g2\csrc/u8x8_d_ssd1327.c ****   else if  ( msg == U8X8_MSG_DISPLAY_SET_FLIP_MODE )
 683              		.loc 1 705 0
 684 0036 0D2C     		cmp	r4, #13
 685 0038 15D1     		bne	.L53
 706:..\u8g2\csrc/u8x8_d_ssd1327.c ****   {
 707:..\u8g2\csrc/u8x8_d_ssd1327.c ****     if ( arg_int == 0 )
 686              		.loc 1 707 0
 687 003a 4EB9     		cbnz	r6, .L56
 708:..\u8g2\csrc/u8x8_d_ssd1327.c ****     {
 709:..\u8g2\csrc/u8x8_d_ssd1327.c ****       u8x8_cad_SendSequence(u8x8, u8x8_d_ssd1327_128x128_flip0_seq);
 688              		.loc 1 709 0
 689 003c 0D49     		ldr	r1, .L59+8
 690 003e 2846     		mov	r0, r5
 691 0040 FFF7FEFF 		bl	u8x8_cad_SendSequence
 692              	.LVL87:
 710:..\u8g2\csrc/u8x8_d_ssd1327.c ****       u8x8->x_offset = u8x8->display_info->default_x_offset;
 693              		.loc 1 710 0
 694 0044 2B68     		ldr	r3, [r5]
 695 0046 9B7C     		ldrb	r3, [r3, #18]	@ zero_extendqisi2
 696 0048 85F82230 		strb	r3, [r5, #34]
 711:..\u8g2\csrc/u8x8_d_ssd1327.c ****     }
 712:..\u8g2\csrc/u8x8_d_ssd1327.c ****     else
 713:..\u8g2\csrc/u8x8_d_ssd1327.c ****     {
 714:..\u8g2\csrc/u8x8_d_ssd1327.c ****       u8x8_cad_SendSequence(u8x8, u8x8_d_ssd1327_128x128_flip1_seq);
 715:..\u8g2\csrc/u8x8_d_ssd1327.c ****       u8x8->x_offset = u8x8->display_info->flipmode_x_offset;
 716:..\u8g2\csrc/u8x8_d_ssd1327.c ****     }
 717:..\u8g2\csrc/u8x8_d_ssd1327.c ****     return 1;
 697              		.loc 1 717 0
 698 004c 0123     		movs	r3, #1
 699 004e 0AE0     		b	.L53
 700              	.L56:
 714:..\u8g2\csrc/u8x8_d_ssd1327.c ****       u8x8->x_offset = u8x8->display_info->flipmode_x_offset;
 701              		.loc 1 714 0
 702 0050 0949     		ldr	r1, .L59+12
 703 0052 2846     		mov	r0, r5
 704 0054 FFF7FEFF 		bl	u8x8_cad_SendSequence
 705              	.LVL88:
 715:..\u8g2\csrc/u8x8_d_ssd1327.c ****     }
 706              		.loc 1 715 0
 707 0058 2B68     		ldr	r3, [r5]
 708 005a DB7C     		ldrb	r3, [r3, #19]	@ zero_extendqisi2
 709 005c 85F82230 		strb	r3, [r5, #34]
 710              		.loc 1 717 0
 711 0060 0123     		movs	r3, #1
 712 0062 00E0     		b	.L53
 713              	.L57:
 693:..\u8g2\csrc/u8x8_d_ssd1327.c ****   if ( msg == U8X8_MSG_DISPLAY_SETUP_MEMORY )
 714              		.loc 1 693 0
 715 0064 0123     		movs	r3, #1
 716              	.L53:
 718:..\u8g2\csrc/u8x8_d_ssd1327.c ****   }
 719:..\u8g2\csrc/u8x8_d_ssd1327.c ****   return 0;
ARM GAS  C:\Users\brian\AppData\Local\Temp\ccDVzQIu.s 			page 27


 720:..\u8g2\csrc/u8x8_d_ssd1327.c **** }
 717              		.loc 1 720 0
 718 0066 1846     		mov	r0, r3
 719 0068 70BD     		pop	{r4, r5, r6, pc}
 720              	.LVL89:
 721              	.L60:
 722 006a 00BF     		.align	2
 723              	.L59:
 724 006c 64010000 		.word	.LANCHOR1+356
 725 0070 7C010000 		.word	.LANCHOR1+380
 726 0074 BC010000 		.word	.LANCHOR1+444
 727 0078 C8010000 		.word	.LANCHOR1+456
 728              		.cfi_endproc
 729              	.LFE5:
 730              		.size	u8x8_d_ssd1327_midas_128x128, .-u8x8_d_ssd1327_midas_128x128
 731              		.section	.text.u8x8_d_ssd1327_ws_128x128,"ax",%progbits
 732              		.align	2
 733              		.global	u8x8_d_ssd1327_ws_128x128
 734              		.thumb
 735              		.thumb_func
 736              		.type	u8x8_d_ssd1327_ws_128x128, %function
 737              	u8x8_d_ssd1327_ws_128x128:
 738              	.LFB6:
 721:..\u8g2\csrc/u8x8_d_ssd1327.c **** 
 722:..\u8g2\csrc/u8x8_d_ssd1327.c **** 
 723:..\u8g2\csrc/u8x8_d_ssd1327.c **** /*=============================================*/
 724:..\u8g2\csrc/u8x8_d_ssd1327.c **** /*  
 725:..\u8g2\csrc/u8x8_d_ssd1327.c ****   Waveshare 128x128 Module 
 726:..\u8g2\csrc/u8x8_d_ssd1327.c ****   https://www.waveshare.com/w/upload/8/80/1.5inch_OLED_Module_User_Manual_EN.pdf
 727:..\u8g2\csrc/u8x8_d_ssd1327.c ****   https://github.com/olikraus/u8g2/issues/880
 728:..\u8g2\csrc/u8x8_d_ssd1327.c **** 
 729:..\u8g2\csrc/u8x8_d_ssd1327.c ****   This is mostly a takeover of the EA display.
 730:..\u8g2\csrc/u8x8_d_ssd1327.c **** */
 731:..\u8g2\csrc/u8x8_d_ssd1327.c **** 
 732:..\u8g2\csrc/u8x8_d_ssd1327.c **** /*  https://github.com/SeeedDocument/Grove_OLED_1.12/raw/master/resources/LY120-096096.pdf */
 733:..\u8g2\csrc/u8x8_d_ssd1327.c **** /*  http://www.seeedstudio.com/wiki/index.php?title=Twig_-_OLED_96x96 */
 734:..\u8g2\csrc/u8x8_d_ssd1327.c **** /* values from u8glib */
 735:..\u8g2\csrc/u8x8_d_ssd1327.c **** /*
 736:..\u8g2\csrc/u8x8_d_ssd1327.c ****   Re-map setting in Graphic Display Data RAM, command 0x0a0
 737:..\u8g2\csrc/u8x8_d_ssd1327.c ****     Bit 0: Column Address Re-map
 738:..\u8g2\csrc/u8x8_d_ssd1327.c ****     Bit 1: Nibble Re-map
 739:..\u8g2\csrc/u8x8_d_ssd1327.c ****     Bit 2: Horizontal/Vertical Address Increment
 740:..\u8g2\csrc/u8x8_d_ssd1327.c ****     Bit 3: Not used, must be 0
 741:..\u8g2\csrc/u8x8_d_ssd1327.c ****     
 742:..\u8g2\csrc/u8x8_d_ssd1327.c ****     Bit 4: COM Re-map
 743:..\u8g2\csrc/u8x8_d_ssd1327.c ****     Bit 5: Not used, must be 0
 744:..\u8g2\csrc/u8x8_d_ssd1327.c ****     Bit 6: COM Split Odd Even
 745:..\u8g2\csrc/u8x8_d_ssd1327.c ****     Bit 7: Not used, must be 0
 746:..\u8g2\csrc/u8x8_d_ssd1327.c **** */
 747:..\u8g2\csrc/u8x8_d_ssd1327.c **** 
 748:..\u8g2\csrc/u8x8_d_ssd1327.c **** /* takeover from https://github.com/olikraus/u8g2/issues/880 */
 749:..\u8g2\csrc/u8x8_d_ssd1327.c **** static const uint8_t u8x8_d_ssd1327_ws_128x128_init_seq[] = {
 750:..\u8g2\csrc/u8x8_d_ssd1327.c ****     
 751:..\u8g2\csrc/u8x8_d_ssd1327.c ****     U8X8_START_TRANSFER(),             	/* enable chip, delay is part of the transfer start */
 752:..\u8g2\csrc/u8x8_d_ssd1327.c **** 
 753:..\u8g2\csrc/u8x8_d_ssd1327.c ****     U8X8_C(0x0ae), //--turn off oled panel
 754:..\u8g2\csrc/u8x8_d_ssd1327.c ****     U8X8_CAA(0x015, 0x000, 0x07f),    //set column address, start column 0, end column 127
ARM GAS  C:\Users\brian\AppData\Local\Temp\ccDVzQIu.s 			page 28


 755:..\u8g2\csrc/u8x8_d_ssd1327.c ****     U8X8_CAA(0x075, 0x000, 0x07f),    //set row address, start row 0, end row 127
 756:..\u8g2\csrc/u8x8_d_ssd1327.c ****     U8X8_CA(0x081, 0x080),    //set contrast control
 757:..\u8g2\csrc/u8x8_d_ssd1327.c ****     U8X8_CA(0x0a0, 0x051),    //gment remap, 51
 758:..\u8g2\csrc/u8x8_d_ssd1327.c ****     U8X8_CA(0x0a1, 0x000),    //start line
 759:..\u8g2\csrc/u8x8_d_ssd1327.c ****     U8X8_CA(0x0a2, 0x000),    //display offset
 760:..\u8g2\csrc/u8x8_d_ssd1327.c ****     U8X8_CAA(0x0a4, 0x0a8, 0x07f),    //rmal display, set multiplex ratio
 761:..\u8g2\csrc/u8x8_d_ssd1327.c ****     U8X8_CA(0x0b1, 0x0f1),    //set phase leghth
 762:..\u8g2\csrc/u8x8_d_ssd1327.c ****     U8X8_CA(0x0b3, 0x000),    //set dclk, 80Hz:0xc1 90Hz:0xe1   100Hz:0x00   110Hz:0x30 120Hz:0x50 
 763:..\u8g2\csrc/u8x8_d_ssd1327.c ****     U8X8_CA(0x0ab, 0x001),    //
 764:..\u8g2\csrc/u8x8_d_ssd1327.c ****     U8X8_CA(0x0b6, 0x00f),    //set phase leghth
 765:..\u8g2\csrc/u8x8_d_ssd1327.c ****     U8X8_CA(0x0be, 0x00f),
 766:..\u8g2\csrc/u8x8_d_ssd1327.c ****     U8X8_CA(0x0bc, 0x008),
 767:..\u8g2\csrc/u8x8_d_ssd1327.c ****     U8X8_CA(0x0d5, 0x062),
 768:..\u8g2\csrc/u8x8_d_ssd1327.c ****     U8X8_CA(0x0fd, 0x012),
 769:..\u8g2\csrc/u8x8_d_ssd1327.c **** 
 770:..\u8g2\csrc/u8x8_d_ssd1327.c ****     U8X8_END_TRANSFER(),             	/* disable chip */
 771:..\u8g2\csrc/u8x8_d_ssd1327.c ****     U8X8_END()             			/* end of sequence */
 772:..\u8g2\csrc/u8x8_d_ssd1327.c ****   };
 773:..\u8g2\csrc/u8x8_d_ssd1327.c **** 
 774:..\u8g2\csrc/u8x8_d_ssd1327.c **** 
 775:..\u8g2\csrc/u8x8_d_ssd1327.c **** uint8_t u8x8_d_ssd1327_ws_128x128(u8x8_t *u8x8, uint8_t msg, uint8_t arg_int, void *arg_ptr)
 776:..\u8g2\csrc/u8x8_d_ssd1327.c **** {
 739              		.loc 1 776 0
 740              		.cfi_startproc
 741              		@ args = 0, pretend = 0, frame = 0
 742              		@ frame_needed = 0, uses_anonymous_args = 0
 743              	.LVL90:
 744 0000 70B5     		push	{r4, r5, r6, lr}
 745              		.cfi_def_cfa_offset 16
 746              		.cfi_offset 4, -16
 747              		.cfi_offset 5, -12
 748              		.cfi_offset 6, -8
 749              		.cfi_offset 14, -4
 750 0002 0546     		mov	r5, r0
 751 0004 0C46     		mov	r4, r1
 752 0006 1646     		mov	r6, r2
 777:..\u8g2\csrc/u8x8_d_ssd1327.c ****   /* call the 96x96 procedure at the moment */
 778:..\u8g2\csrc/u8x8_d_ssd1327.c ****   if ( u8x8_d_ssd1327_96x96_generic(u8x8, msg, arg_int, arg_ptr) != 0 )
 753              		.loc 1 778 0
 754 0008 FFF7FEFF 		bl	u8x8_d_ssd1327_96x96_generic
 755              	.LVL91:
 756 000c 50BB     		cbnz	r0, .L66
 757 000e 0346     		mov	r3, r0
 779:..\u8g2\csrc/u8x8_d_ssd1327.c ****     return 1;
 780:..\u8g2\csrc/u8x8_d_ssd1327.c ****   if ( msg == U8X8_MSG_DISPLAY_SETUP_MEMORY )
 758              		.loc 1 780 0
 759 0010 092C     		cmp	r4, #9
 760 0012 05D1     		bne	.L63
 781:..\u8g2\csrc/u8x8_d_ssd1327.c ****   {
 782:..\u8g2\csrc/u8x8_d_ssd1327.c ****     u8x8_d_helper_display_setup_memory(u8x8, &u8x8_ssd1327_ea_w128128_display_info);
 761              		.loc 1 782 0
 762 0014 1549     		ldr	r1, .L68
 763 0016 2846     		mov	r0, r5
 764 0018 FFF7FEFF 		bl	u8x8_d_helper_display_setup_memory
 765              	.LVL92:
 783:..\u8g2\csrc/u8x8_d_ssd1327.c ****     return 1;
 766              		.loc 1 783 0
ARM GAS  C:\Users\brian\AppData\Local\Temp\ccDVzQIu.s 			page 29


 767 001c 0123     		movs	r3, #1
 768 001e 22E0     		b	.L62
 769              	.L63:
 784:..\u8g2\csrc/u8x8_d_ssd1327.c ****   }
 785:..\u8g2\csrc/u8x8_d_ssd1327.c ****   else if ( msg == U8X8_MSG_DISPLAY_INIT )
 770              		.loc 1 785 0
 771 0020 0A2C     		cmp	r4, #10
 772 0022 08D1     		bne	.L64
 786:..\u8g2\csrc/u8x8_d_ssd1327.c ****   {
 787:..\u8g2\csrc/u8x8_d_ssd1327.c ****     u8x8_d_helper_display_init(u8x8);
 773              		.loc 1 787 0
 774 0024 2846     		mov	r0, r5
 775 0026 FFF7FEFF 		bl	u8x8_d_helper_display_init
 776              	.LVL93:
 788:..\u8g2\csrc/u8x8_d_ssd1327.c ****     u8x8_cad_SendSequence(u8x8, u8x8_d_ssd1327_ws_128x128_init_seq); 
 777              		.loc 1 788 0
 778 002a 1149     		ldr	r1, .L68+4
 779 002c 2846     		mov	r0, r5
 780 002e FFF7FEFF 		bl	u8x8_cad_SendSequence
 781              	.LVL94:
 789:..\u8g2\csrc/u8x8_d_ssd1327.c ****     return 1;
 782              		.loc 1 789 0
 783 0032 0123     		movs	r3, #1
 784 0034 17E0     		b	.L62
 785              	.L64:
 790:..\u8g2\csrc/u8x8_d_ssd1327.c ****   }
 791:..\u8g2\csrc/u8x8_d_ssd1327.c ****   else if  ( msg == U8X8_MSG_DISPLAY_SET_FLIP_MODE )
 786              		.loc 1 791 0
 787 0036 0D2C     		cmp	r4, #13
 788 0038 15D1     		bne	.L62
 792:..\u8g2\csrc/u8x8_d_ssd1327.c ****   {
 793:..\u8g2\csrc/u8x8_d_ssd1327.c ****     if ( arg_int == 0 )
 789              		.loc 1 793 0
 790 003a 4EB9     		cbnz	r6, .L65
 794:..\u8g2\csrc/u8x8_d_ssd1327.c ****     {
 795:..\u8g2\csrc/u8x8_d_ssd1327.c ****       u8x8_cad_SendSequence(u8x8, u8x8_d_ssd1327_ea_w128128_flip0_seq);
 791              		.loc 1 795 0
 792 003c 0D49     		ldr	r1, .L68+8
 793 003e 2846     		mov	r0, r5
 794 0040 FFF7FEFF 		bl	u8x8_cad_SendSequence
 795              	.LVL95:
 796:..\u8g2\csrc/u8x8_d_ssd1327.c ****       u8x8->x_offset = u8x8->display_info->default_x_offset;
 796              		.loc 1 796 0
 797 0044 2B68     		ldr	r3, [r5]
 798 0046 9B7C     		ldrb	r3, [r3, #18]	@ zero_extendqisi2
 799 0048 85F82230 		strb	r3, [r5, #34]
 797:..\u8g2\csrc/u8x8_d_ssd1327.c ****     }
 798:..\u8g2\csrc/u8x8_d_ssd1327.c ****     else
 799:..\u8g2\csrc/u8x8_d_ssd1327.c ****     {
 800:..\u8g2\csrc/u8x8_d_ssd1327.c ****       u8x8_cad_SendSequence(u8x8, u8x8_d_ssd1327_ea_w128128_flip1_seq);
 801:..\u8g2\csrc/u8x8_d_ssd1327.c ****       u8x8->x_offset = u8x8->display_info->flipmode_x_offset;
 802:..\u8g2\csrc/u8x8_d_ssd1327.c ****     }
 803:..\u8g2\csrc/u8x8_d_ssd1327.c ****     return 1;
 800              		.loc 1 803 0
 801 004c 0123     		movs	r3, #1
 802 004e 0AE0     		b	.L62
 803              	.L65:
ARM GAS  C:\Users\brian\AppData\Local\Temp\ccDVzQIu.s 			page 30


 800:..\u8g2\csrc/u8x8_d_ssd1327.c ****       u8x8->x_offset = u8x8->display_info->flipmode_x_offset;
 804              		.loc 1 800 0
 805 0050 0949     		ldr	r1, .L68+12
 806 0052 2846     		mov	r0, r5
 807 0054 FFF7FEFF 		bl	u8x8_cad_SendSequence
 808              	.LVL96:
 801:..\u8g2\csrc/u8x8_d_ssd1327.c ****     }
 809              		.loc 1 801 0
 810 0058 2B68     		ldr	r3, [r5]
 811 005a DB7C     		ldrb	r3, [r3, #19]	@ zero_extendqisi2
 812 005c 85F82230 		strb	r3, [r5, #34]
 813              		.loc 1 803 0
 814 0060 0123     		movs	r3, #1
 815 0062 00E0     		b	.L62
 816              	.L66:
 779:..\u8g2\csrc/u8x8_d_ssd1327.c ****   if ( msg == U8X8_MSG_DISPLAY_SETUP_MEMORY )
 817              		.loc 1 779 0
 818 0064 0123     		movs	r3, #1
 819              	.L62:
 804:..\u8g2\csrc/u8x8_d_ssd1327.c ****   }
 805:..\u8g2\csrc/u8x8_d_ssd1327.c ****   return 0;
 806:..\u8g2\csrc/u8x8_d_ssd1327.c **** }
 820              		.loc 1 806 0
 821 0066 1846     		mov	r0, r3
 822 0068 70BD     		pop	{r4, r5, r6, pc}
 823              	.LVL97:
 824              	.L69:
 825 006a 00BF     		.align	2
 826              	.L68:
 827 006c F4000000 		.word	.LANCHOR1+244
 828 0070 D4010000 		.word	.LANCHOR1+468
 829 0074 4C010000 		.word	.LANCHOR1+332
 830 0078 58010000 		.word	.LANCHOR1+344
 831              		.cfi_endproc
 832              	.LFE6:
 833              		.size	u8x8_d_ssd1327_ws_128x128, .-u8x8_d_ssd1327_ws_128x128
 834              		.section	.text.u8x8_d_ssd1327_visionox_128x96,"ax",%progbits
 835              		.align	2
 836              		.global	u8x8_d_ssd1327_visionox_128x96
 837              		.thumb
 838              		.thumb_func
 839              		.type	u8x8_d_ssd1327_visionox_128x96, %function
 840              	u8x8_d_ssd1327_visionox_128x96:
 841              	.LFB7:
 807:..\u8g2\csrc/u8x8_d_ssd1327.c **** 
 808:..\u8g2\csrc/u8x8_d_ssd1327.c **** 
 809:..\u8g2\csrc/u8x8_d_ssd1327.c **** 
 810:..\u8g2\csrc/u8x8_d_ssd1327.c **** 
 811:..\u8g2\csrc/u8x8_d_ssd1327.c **** /*=============================================*/
 812:..\u8g2\csrc/u8x8_d_ssd1327.c **** /*  
 813:..\u8g2\csrc/u8x8_d_ssd1327.c **** Visonox VGM128096A4W10 128x96 COB 
 814:..\u8g2\csrc/u8x8_d_ssd1327.c **** https://github.com/olikraus/u8g2/files/4052919/M02289_VGM128096A4W10_Y02.pdf
 815:..\u8g2\csrc/u8x8_d_ssd1327.c **** https://github.com/olikraus/u8g2/issues/1090
 816:..\u8g2\csrc/u8x8_d_ssd1327.c **** */
 817:..\u8g2\csrc/u8x8_d_ssd1327.c **** 
 818:..\u8g2\csrc/u8x8_d_ssd1327.c **** 
 819:..\u8g2\csrc/u8x8_d_ssd1327.c **** static const u8x8_display_info_t u8x8_ssd1327_128x96_display_info =
ARM GAS  C:\Users\brian\AppData\Local\Temp\ccDVzQIu.s 			page 31


 820:..\u8g2\csrc/u8x8_d_ssd1327.c **** {
 821:..\u8g2\csrc/u8x8_d_ssd1327.c ****   /* chip_enable_level = */ 0,
 822:..\u8g2\csrc/u8x8_d_ssd1327.c ****   /* chip_disable_level = */ 1,
 823:..\u8g2\csrc/u8x8_d_ssd1327.c ****   
 824:..\u8g2\csrc/u8x8_d_ssd1327.c ****   /* post_chip_enable_wait_ns = */ 20,
 825:..\u8g2\csrc/u8x8_d_ssd1327.c ****   /* pre_chip_disable_wait_ns = */ 10,
 826:..\u8g2\csrc/u8x8_d_ssd1327.c ****   /* reset_pulse_width_ms = */ 100, 	
 827:..\u8g2\csrc/u8x8_d_ssd1327.c ****   /* post_reset_wait_ms = */ 100, 		/**/
 828:..\u8g2\csrc/u8x8_d_ssd1327.c ****   /* sda_setup_time_ns = */ 100,		/* */
 829:..\u8g2\csrc/u8x8_d_ssd1327.c ****   /* sck_pulse_width_ns = */ 100,	/*  */
 830:..\u8g2\csrc/u8x8_d_ssd1327.c ****   /* sck_clock_hz = */ 4000000UL,	/* since Arduino 1.6.0, the SPI bus speed in Hz. Should be  10000
 831:..\u8g2\csrc/u8x8_d_ssd1327.c ****   /* spi_mode = */ 0,		/* active high, rising edge */
 832:..\u8g2\csrc/u8x8_d_ssd1327.c ****   /* i2c_bus_clock_100kHz = */ 1,	/* use 1 instead of 4, because the SSD1327 seems to be very slow,
 833:..\u8g2\csrc/u8x8_d_ssd1327.c ****   /* data_setup_time_ns = */ 40,
 834:..\u8g2\csrc/u8x8_d_ssd1327.c ****   /* write_pulse_width_ns = */ 60,	
 835:..\u8g2\csrc/u8x8_d_ssd1327.c ****   /* tile_width = */ 16,
 836:..\u8g2\csrc/u8x8_d_ssd1327.c ****   /* tile_hight = */ 12,
 837:..\u8g2\csrc/u8x8_d_ssd1327.c ****   /* default_x_offset = */ 0,
 838:..\u8g2\csrc/u8x8_d_ssd1327.c ****   /* flipmode_x_offset = */ 0,		
 839:..\u8g2\csrc/u8x8_d_ssd1327.c ****   /* pixel_width = */ 128,
 840:..\u8g2\csrc/u8x8_d_ssd1327.c ****   /* pixel_height = */ 96
 841:..\u8g2\csrc/u8x8_d_ssd1327.c **** };
 842:..\u8g2\csrc/u8x8_d_ssd1327.c **** 
 843:..\u8g2\csrc/u8x8_d_ssd1327.c **** /*  https://github.com/SeeedDocument/Grove_OLED_1.12/raw/master/resources/LY120-096096.pdf */
 844:..\u8g2\csrc/u8x8_d_ssd1327.c **** /*  http://www.seeedstudio.com/wiki/index.php?title=Twig_-_OLED_96x96 */
 845:..\u8g2\csrc/u8x8_d_ssd1327.c **** /* values from u8glib */
 846:..\u8g2\csrc/u8x8_d_ssd1327.c **** /*
 847:..\u8g2\csrc/u8x8_d_ssd1327.c ****   Re-map setting in Graphic Display Data RAM, command 0x0a0
 848:..\u8g2\csrc/u8x8_d_ssd1327.c ****     Bit 0: Column Address Re-map
 849:..\u8g2\csrc/u8x8_d_ssd1327.c ****     Bit 1: Nibble Re-map
 850:..\u8g2\csrc/u8x8_d_ssd1327.c ****     Bit 2: Horizontal/Vertical Address Increment
 851:..\u8g2\csrc/u8x8_d_ssd1327.c ****     Bit 3: Not used, must be 0
 852:..\u8g2\csrc/u8x8_d_ssd1327.c ****     
 853:..\u8g2\csrc/u8x8_d_ssd1327.c ****     Bit 4: COM Re-map
 854:..\u8g2\csrc/u8x8_d_ssd1327.c ****     Bit 5: Not used, must be 0
 855:..\u8g2\csrc/u8x8_d_ssd1327.c ****     Bit 6: COM Split Odd Even
 856:..\u8g2\csrc/u8x8_d_ssd1327.c ****     Bit 7: Not used, must be 0
 857:..\u8g2\csrc/u8x8_d_ssd1327.c **** */
 858:..\u8g2\csrc/u8x8_d_ssd1327.c **** 
 859:..\u8g2\csrc/u8x8_d_ssd1327.c **** /* init values from the Visionox datasheeet section 10.4 */
 860:..\u8g2\csrc/u8x8_d_ssd1327.c **** 
 861:..\u8g2\csrc/u8x8_d_ssd1327.c **** static const uint8_t u8x8_d_ssd1327_128x96_init_seq[] = {
 862:..\u8g2\csrc/u8x8_d_ssd1327.c ****     
 863:..\u8g2\csrc/u8x8_d_ssd1327.c ****   U8X8_START_TRANSFER(),             	/* enable chip, delay is part of the transfer start */
 864:..\u8g2\csrc/u8x8_d_ssd1327.c **** 
 865:..\u8g2\csrc/u8x8_d_ssd1327.c **** 	
 866:..\u8g2\csrc/u8x8_d_ssd1327.c ****   U8X8_CA(0x0fd, 0x012),		/* unlock display, usually not required because the display is unlocked a
 867:..\u8g2\csrc/u8x8_d_ssd1327.c ****   U8X8_C(0x0ae),		                /* display off */
 868:..\u8g2\csrc/u8x8_d_ssd1327.c ****   //U8X8_CA(0x0a8, 0x03f),		/* multiplex ratio: 0x03f * 1/64 duty */
 869:..\u8g2\csrc/u8x8_d_ssd1327.c ****   U8X8_CA(0x0a8, 0x05f),		/* multiplex ratio: 0x05f * 1/64 duty */
 870:..\u8g2\csrc/u8x8_d_ssd1327.c ****   //U8X8_CA(0x0a8, 0x07f),       		 /* multiplex ratio: 0x05f * 1/128duty */
 871:..\u8g2\csrc/u8x8_d_ssd1327.c ****   U8X8_CA(0x0a1, 0x000),		/* display start line */
 872:..\u8g2\csrc/u8x8_d_ssd1327.c ****   //U8X8_CA(0x0a2, 0x04c),		/* display offset, shift mapping ram counter */
 873:..\u8g2\csrc/u8x8_d_ssd1327.c ****   
 874:..\u8g2\csrc/u8x8_d_ssd1327.c ****   U8X8_CA(0x0a2, 0x020),		/* display offset, shift mapping ram counter */
 875:..\u8g2\csrc/u8x8_d_ssd1327.c ****   U8X8_CA(0x0a0, 0x051),		/* remap configuration */
 876:..\u8g2\csrc/u8x8_d_ssd1327.c ****   
ARM GAS  C:\Users\brian\AppData\Local\Temp\ccDVzQIu.s 			page 32


 877:..\u8g2\csrc/u8x8_d_ssd1327.c ****   
 878:..\u8g2\csrc/u8x8_d_ssd1327.c ****   U8X8_CA(0x0ab, 0x001),		/* Enable internal VDD regulator (RESET) */
 879:..\u8g2\csrc/u8x8_d_ssd1327.c ****   //U8X8_CA(0x081, 0x070),		/* contrast, brightness, 0..128 */
 880:..\u8g2\csrc/u8x8_d_ssd1327.c ****   U8X8_CA(0x081, 0x0df),		/* contrast, brightness, 0..128 (0xdf as per datasheet) */
 881:..\u8g2\csrc/u8x8_d_ssd1327.c ****   U8X8_CA(0x0b1, 0x022),                    /* phase length */  
 882:..\u8g2\csrc/u8x8_d_ssd1327.c ****   U8X8_CA(0x0b3, 0x050),		/* set display clock divide ratio/oscillator frequency  */			
 883:..\u8g2\csrc/u8x8_d_ssd1327.c ****   
 884:..\u8g2\csrc/u8x8_d_ssd1327.c ****   //? U8X8_CA(0x0ad, 0x002),		/* master configuration: disable embedded DC-DC, enable internal VCOM
 885:..\u8g2\csrc/u8x8_d_ssd1327.c ****   //? U8X8_C(0x086),				/* full current range (0x084, 0x085, 0x086) */
 886:..\u8g2\csrc/u8x8_d_ssd1327.c ****   
 887:..\u8g2\csrc/u8x8_d_ssd1327.c ****   U8X8_C(0x0b9),				/* use linear lookup table */
 888:..\u8g2\csrc/u8x8_d_ssd1327.c **** 
 889:..\u8g2\csrc/u8x8_d_ssd1327.c ****   U8X8_CA(0x0bc, 0x010),                    /* pre-charge voltage level */
 890:..\u8g2\csrc/u8x8_d_ssd1327.c ****   U8X8_CA(0x0be, 0x005),                     /* VCOMH voltage */
 891:..\u8g2\csrc/u8x8_d_ssd1327.c ****   U8X8_CA(0x0b6, 0x00a),		/* second precharge */
 892:..\u8g2\csrc/u8x8_d_ssd1327.c ****   U8X8_CA(0x0d5, 0x062),		/* enable second precharge, internal vsl (bit0 = 0) */
 893:..\u8g2\csrc/u8x8_d_ssd1327.c **** 
 894:..\u8g2\csrc/u8x8_d_ssd1327.c **** 
 895:..\u8g2\csrc/u8x8_d_ssd1327.c ****   
 896:..\u8g2\csrc/u8x8_d_ssd1327.c ****   U8X8_C(0x0a4),				/* normal display mode */
 897:..\u8g2\csrc/u8x8_d_ssd1327.c ****     
 898:..\u8g2\csrc/u8x8_d_ssd1327.c ****   U8X8_END_TRANSFER(),             	/* disable chip */
 899:..\u8g2\csrc/u8x8_d_ssd1327.c ****   U8X8_END()             			/* end of sequence */
 900:..\u8g2\csrc/u8x8_d_ssd1327.c **** };
 901:..\u8g2\csrc/u8x8_d_ssd1327.c **** 
 902:..\u8g2\csrc/u8x8_d_ssd1327.c **** 
 903:..\u8g2\csrc/u8x8_d_ssd1327.c **** static const uint8_t u8x8_d_ssd1327_128x96_flip0_seq[] = {
 904:..\u8g2\csrc/u8x8_d_ssd1327.c ****   U8X8_START_TRANSFER(),             	/* enable chip, delay is part of the transfer start */
 905:..\u8g2\csrc/u8x8_d_ssd1327.c ****   U8X8_CA(0x0a2, 0x020),		/* display offset, shift mapping ram counter */
 906:..\u8g2\csrc/u8x8_d_ssd1327.c ****   U8X8_CA(0x0a0, 0x051),		/* remap configuration */
 907:..\u8g2\csrc/u8x8_d_ssd1327.c ****   U8X8_END_TRANSFER(),             	/* disable chip */
 908:..\u8g2\csrc/u8x8_d_ssd1327.c ****   U8X8_END()             			/* end of sequence */
 909:..\u8g2\csrc/u8x8_d_ssd1327.c **** };
 910:..\u8g2\csrc/u8x8_d_ssd1327.c **** 
 911:..\u8g2\csrc/u8x8_d_ssd1327.c **** static const uint8_t u8x8_d_ssd1327_128x96_flip1_seq[] = {
 912:..\u8g2\csrc/u8x8_d_ssd1327.c ****   U8X8_START_TRANSFER(),             	/* enable chip, delay is part of the transfer start */
 913:..\u8g2\csrc/u8x8_d_ssd1327.c ****   U8X8_CA(0x0a2, 0x060),		/* display offset, shift mapping ram counter */
 914:..\u8g2\csrc/u8x8_d_ssd1327.c ****   U8X8_CA(0x0a0, 0x042),		/* remap configuration */
 915:..\u8g2\csrc/u8x8_d_ssd1327.c ****   U8X8_END_TRANSFER(),             	/* disable chip */
 916:..\u8g2\csrc/u8x8_d_ssd1327.c ****   U8X8_END()             			/* end of sequence */
 917:..\u8g2\csrc/u8x8_d_ssd1327.c **** };
 918:..\u8g2\csrc/u8x8_d_ssd1327.c **** 
 919:..\u8g2\csrc/u8x8_d_ssd1327.c **** 
 920:..\u8g2\csrc/u8x8_d_ssd1327.c **** uint8_t u8x8_d_ssd1327_visionox_128x96(u8x8_t *u8x8, uint8_t msg, uint8_t arg_int, void *arg_ptr)
 921:..\u8g2\csrc/u8x8_d_ssd1327.c **** {
 842              		.loc 1 921 0
 843              		.cfi_startproc
 844              		@ args = 0, pretend = 0, frame = 0
 845              		@ frame_needed = 0, uses_anonymous_args = 0
 846              	.LVL98:
 847 0000 70B5     		push	{r4, r5, r6, lr}
 848              		.cfi_def_cfa_offset 16
 849              		.cfi_offset 4, -16
 850              		.cfi_offset 5, -12
 851              		.cfi_offset 6, -8
 852              		.cfi_offset 14, -4
 853 0002 0546     		mov	r5, r0
ARM GAS  C:\Users\brian\AppData\Local\Temp\ccDVzQIu.s 			page 33


 854 0004 0C46     		mov	r4, r1
 855 0006 1646     		mov	r6, r2
 922:..\u8g2\csrc/u8x8_d_ssd1327.c ****   /* call the 96x96 procedure at the moment */
 923:..\u8g2\csrc/u8x8_d_ssd1327.c ****   if ( u8x8_d_ssd1327_96x96_generic(u8x8, msg, arg_int, arg_ptr) != 0 )
 856              		.loc 1 923 0
 857 0008 FFF7FEFF 		bl	u8x8_d_ssd1327_96x96_generic
 858              	.LVL99:
 859 000c 50BB     		cbnz	r0, .L75
 860 000e 0346     		mov	r3, r0
 924:..\u8g2\csrc/u8x8_d_ssd1327.c ****     return 1;
 925:..\u8g2\csrc/u8x8_d_ssd1327.c ****   if ( msg == U8X8_MSG_DISPLAY_SETUP_MEMORY )
 861              		.loc 1 925 0
 862 0010 092C     		cmp	r4, #9
 863 0012 05D1     		bne	.L72
 926:..\u8g2\csrc/u8x8_d_ssd1327.c ****   {
 927:..\u8g2\csrc/u8x8_d_ssd1327.c ****     u8x8_d_helper_display_setup_memory(u8x8, &u8x8_ssd1327_128x96_display_info);
 864              		.loc 1 927 0
 865 0014 1549     		ldr	r1, .L77
 866 0016 2846     		mov	r0, r5
 867 0018 FFF7FEFF 		bl	u8x8_d_helper_display_setup_memory
 868              	.LVL100:
 928:..\u8g2\csrc/u8x8_d_ssd1327.c ****     return 1;
 869              		.loc 1 928 0
 870 001c 0123     		movs	r3, #1
 871 001e 22E0     		b	.L71
 872              	.L72:
 929:..\u8g2\csrc/u8x8_d_ssd1327.c ****   }
 930:..\u8g2\csrc/u8x8_d_ssd1327.c ****   else if ( msg == U8X8_MSG_DISPLAY_INIT )
 873              		.loc 1 930 0
 874 0020 0A2C     		cmp	r4, #10
 875 0022 08D1     		bne	.L73
 931:..\u8g2\csrc/u8x8_d_ssd1327.c ****   {
 932:..\u8g2\csrc/u8x8_d_ssd1327.c ****     u8x8_d_helper_display_init(u8x8);
 876              		.loc 1 932 0
 877 0024 2846     		mov	r0, r5
 878 0026 FFF7FEFF 		bl	u8x8_d_helper_display_init
 879              	.LVL101:
 933:..\u8g2\csrc/u8x8_d_ssd1327.c ****     u8x8_cad_SendSequence(u8x8, u8x8_d_ssd1327_128x96_init_seq); 
 880              		.loc 1 933 0
 881 002a 1149     		ldr	r1, .L77+4
 882 002c 2846     		mov	r0, r5
 883 002e FFF7FEFF 		bl	u8x8_cad_SendSequence
 884              	.LVL102:
 934:..\u8g2\csrc/u8x8_d_ssd1327.c ****     return 1;
 885              		.loc 1 934 0
 886 0032 0123     		movs	r3, #1
 887 0034 17E0     		b	.L71
 888              	.L73:
 935:..\u8g2\csrc/u8x8_d_ssd1327.c ****   }
 936:..\u8g2\csrc/u8x8_d_ssd1327.c ****   else if  ( msg == U8X8_MSG_DISPLAY_SET_FLIP_MODE )
 889              		.loc 1 936 0
 890 0036 0D2C     		cmp	r4, #13
 891 0038 15D1     		bne	.L71
 937:..\u8g2\csrc/u8x8_d_ssd1327.c ****   {
 938:..\u8g2\csrc/u8x8_d_ssd1327.c ****     if ( arg_int == 0 )
 892              		.loc 1 938 0
 893 003a 4EB9     		cbnz	r6, .L74
ARM GAS  C:\Users\brian\AppData\Local\Temp\ccDVzQIu.s 			page 34


 939:..\u8g2\csrc/u8x8_d_ssd1327.c ****     {
 940:..\u8g2\csrc/u8x8_d_ssd1327.c ****       u8x8_cad_SendSequence(u8x8, u8x8_d_ssd1327_128x96_flip0_seq);
 894              		.loc 1 940 0
 895 003c 0D49     		ldr	r1, .L77+8
 896 003e 2846     		mov	r0, r5
 897 0040 FFF7FEFF 		bl	u8x8_cad_SendSequence
 898              	.LVL103:
 941:..\u8g2\csrc/u8x8_d_ssd1327.c ****       u8x8->x_offset = u8x8->display_info->default_x_offset;
 899              		.loc 1 941 0
 900 0044 2B68     		ldr	r3, [r5]
 901 0046 9B7C     		ldrb	r3, [r3, #18]	@ zero_extendqisi2
 902 0048 85F82230 		strb	r3, [r5, #34]
 942:..\u8g2\csrc/u8x8_d_ssd1327.c ****     }
 943:..\u8g2\csrc/u8x8_d_ssd1327.c ****     else
 944:..\u8g2\csrc/u8x8_d_ssd1327.c ****     {
 945:..\u8g2\csrc/u8x8_d_ssd1327.c ****       u8x8_cad_SendSequence(u8x8, u8x8_d_ssd1327_128x96_flip1_seq);
 946:..\u8g2\csrc/u8x8_d_ssd1327.c ****       u8x8->x_offset = u8x8->display_info->flipmode_x_offset;
 947:..\u8g2\csrc/u8x8_d_ssd1327.c ****     }
 948:..\u8g2\csrc/u8x8_d_ssd1327.c ****     return 1;
 903              		.loc 1 948 0
 904 004c 0123     		movs	r3, #1
 905 004e 0AE0     		b	.L71
 906              	.L74:
 945:..\u8g2\csrc/u8x8_d_ssd1327.c ****       u8x8->x_offset = u8x8->display_info->flipmode_x_offset;
 907              		.loc 1 945 0
 908 0050 0949     		ldr	r1, .L77+12
 909 0052 2846     		mov	r0, r5
 910 0054 FFF7FEFF 		bl	u8x8_cad_SendSequence
 911              	.LVL104:
 946:..\u8g2\csrc/u8x8_d_ssd1327.c ****     }
 912              		.loc 1 946 0
 913 0058 2B68     		ldr	r3, [r5]
 914 005a DB7C     		ldrb	r3, [r3, #19]	@ zero_extendqisi2
 915 005c 85F82230 		strb	r3, [r5, #34]
 916              		.loc 1 948 0
 917 0060 0123     		movs	r3, #1
 918 0062 00E0     		b	.L71
 919              	.L75:
 924:..\u8g2\csrc/u8x8_d_ssd1327.c ****   if ( msg == U8X8_MSG_DISPLAY_SETUP_MEMORY )
 920              		.loc 1 924 0
 921 0064 0123     		movs	r3, #1
 922              	.L71:
 949:..\u8g2\csrc/u8x8_d_ssd1327.c ****   }
 950:..\u8g2\csrc/u8x8_d_ssd1327.c ****   return 0;
 951:..\u8g2\csrc/u8x8_d_ssd1327.c **** }
 923              		.loc 1 951 0
 924 0066 1846     		mov	r0, r3
 925 0068 70BD     		pop	{r4, r5, r6, pc}
 926              	.LVL105:
 927              	.L78:
 928 006a 00BF     		.align	2
 929              	.L77:
 930 006c 1C020000 		.word	.LANCHOR1+540
 931 0070 34020000 		.word	.LANCHOR1+564
 932 0074 74020000 		.word	.LANCHOR1+628
 933 0078 80020000 		.word	.LANCHOR1+640
 934              		.cfi_endproc
ARM GAS  C:\Users\brian\AppData\Local\Temp\ccDVzQIu.s 			page 35


 935              	.LFE7:
 936              		.size	u8x8_d_ssd1327_visionox_128x96, .-u8x8_d_ssd1327_visionox_128x96
 937              		.section	.rodata
 938              		.align	2
 939              		.set	.LANCHOR1,. + 0
 940              		.type	u8x8_d_ssd1327_96x96_powersave0_seq, %object
 941              		.size	u8x8_d_ssd1327_96x96_powersave0_seq, 5
 942              	u8x8_d_ssd1327_96x96_powersave0_seq:
 943 0000 18       		.byte	24
 944 0001 15       		.byte	21
 945 0002 AF       		.byte	-81
 946 0003 19       		.byte	25
 947 0004 FF       		.byte	-1
 948 0005 000000   		.space	3
 949              		.type	u8x8_d_ssd1327_96x96_powersave1_seq, %object
 950              		.size	u8x8_d_ssd1327_96x96_powersave1_seq, 5
 951              	u8x8_d_ssd1327_96x96_powersave1_seq:
 952 0008 18       		.byte	24
 953 0009 15       		.byte	21
 954 000a AE       		.byte	-82
 955 000b 19       		.byte	25
 956 000c FF       		.byte	-1
 957 000d 000000   		.space	3
 958              		.type	u8x8_ssd1327_winstar_96x64_display_info, %object
 959              		.size	u8x8_ssd1327_winstar_96x64_display_info, 24
 960              	u8x8_ssd1327_winstar_96x64_display_info:
 961 0010 00       		.byte	0
 962 0011 01       		.byte	1
 963 0012 14       		.byte	20
 964 0013 0A       		.byte	10
 965 0014 64       		.byte	100
 966 0015 64       		.byte	100
 967 0016 64       		.byte	100
 968 0017 64       		.byte	100
 969 0018 00093D00 		.word	4000000
 970 001c 00       		.byte	0
 971 001d 01       		.byte	1
 972 001e 28       		.byte	40
 973 001f 3C       		.byte	60
 974 0020 0C       		.byte	12
 975 0021 08       		.byte	8
 976 0022 10       		.byte	16
 977 0023 10       		.byte	16
 978 0024 6000     		.short	96
 979 0026 4000     		.short	64
 980              		.type	u8x8_d_ssd1327_winstar_96x64_init_seq, %object
 981              		.size	u8x8_d_ssd1327_winstar_96x64_init_seq, 65
 982              	u8x8_d_ssd1327_winstar_96x64_init_seq:
 983 0028 18       		.byte	24
 984 0029 15       		.byte	21
 985 002a FD       		.byte	-3
 986 002b 16       		.byte	22
 987 002c 12       		.byte	18
 988 002d 15       		.byte	21
 989 002e AE       		.byte	-82
 990 002f 15       		.byte	21
 991 0030 D9       		.byte	-39
ARM GAS  C:\Users\brian\AppData\Local\Temp\ccDVzQIu.s 			page 36


 992 0031 16       		.byte	22
 993 0032 00       		.byte	0
 994 0033 15       		.byte	21
 995 0034 A0       		.byte	-96
 996 0035 16       		.byte	22
 997 0036 42       		.byte	66
 998 0037 15       		.byte	21
 999 0038 A1       		.byte	-95
 1000 0039 16       		.byte	22
 1001 003a 00       		.byte	0
 1002 003b 15       		.byte	21
 1003 003c A2       		.byte	-94
 1004 003d 16       		.byte	22
 1005 003e 00       		.byte	0
 1006 003f 15       		.byte	21
 1007 0040 A8       		.byte	-88
 1008 0041 16       		.byte	22
 1009 0042 63       		.byte	99
 1010 0043 15       		.byte	21
 1011 0044 AB       		.byte	-85
 1012 0045 16       		.byte	22
 1013 0046 01       		.byte	1
 1014 0047 15       		.byte	21
 1015 0048 81       		.byte	-127
 1016 0049 16       		.byte	22
 1017 004a 53       		.byte	83
 1018 004b 15       		.byte	21
 1019 004c B1       		.byte	-79
 1020 004d 16       		.byte	22
 1021 004e 47       		.byte	71
 1022 004f 15       		.byte	21
 1023 0050 B3       		.byte	-77
 1024 0051 16       		.byte	22
 1025 0052 00       		.byte	0
 1026 0053 15       		.byte	21
 1027 0054 B9       		.byte	-71
 1028 0055 15       		.byte	21
 1029 0056 BC       		.byte	-68
 1030 0057 16       		.byte	22
 1031 0058 07       		.byte	7
 1032 0059 15       		.byte	21
 1033 005a BE       		.byte	-66
 1034 005b 16       		.byte	22
 1035 005c 07       		.byte	7
 1036 005d 15       		.byte	21
 1037 005e B6       		.byte	-74
 1038 005f 16       		.byte	22
 1039 0060 04       		.byte	4
 1040 0061 15       		.byte	21
 1041 0062 D5       		.byte	-43
 1042 0063 16       		.byte	22
 1043 0064 62       		.byte	98
 1044 0065 15       		.byte	21
 1045 0066 A4       		.byte	-92
 1046 0067 19       		.byte	25
 1047 0068 FF       		.byte	-1
 1048 0069 000000   		.space	3
ARM GAS  C:\Users\brian\AppData\Local\Temp\ccDVzQIu.s 			page 37


 1049              		.type	u8x8_d_ssd1327_winstar_96x64_flip0_seq, %object
 1050              		.size	u8x8_d_ssd1327_winstar_96x64_flip0_seq, 11
 1051              	u8x8_d_ssd1327_winstar_96x64_flip0_seq:
 1052 006c 18       		.byte	24
 1053 006d 15       		.byte	21
 1054 006e A0       		.byte	-96
 1055 006f 16       		.byte	22
 1056 0070 42       		.byte	66
 1057 0071 15       		.byte	21
 1058 0072 A2       		.byte	-94
 1059 0073 16       		.byte	22
 1060 0074 00       		.byte	0
 1061 0075 19       		.byte	25
 1062 0076 FF       		.byte	-1
 1063 0077 00       		.space	1
 1064              		.type	u8x8_d_ssd1327_winstar_96x64_flip1_seq, %object
 1065              		.size	u8x8_d_ssd1327_winstar_96x64_flip1_seq, 11
 1066              	u8x8_d_ssd1327_winstar_96x64_flip1_seq:
 1067 0078 18       		.byte	24
 1068 0079 15       		.byte	21
 1069 007a A0       		.byte	-96
 1070 007b 16       		.byte	22
 1071 007c 51       		.byte	81
 1072 007d 15       		.byte	21
 1073 007e A2       		.byte	-94
 1074 007f 16       		.byte	22
 1075 0080 40       		.byte	64
 1076 0081 19       		.byte	25
 1077 0082 FF       		.byte	-1
 1078 0083 00       		.space	1
 1079              		.type	u8x8_ssd1327_96x96_display_info, %object
 1080              		.size	u8x8_ssd1327_96x96_display_info, 24
 1081              	u8x8_ssd1327_96x96_display_info:
 1082 0084 00       		.byte	0
 1083 0085 01       		.byte	1
 1084 0086 14       		.byte	20
 1085 0087 0A       		.byte	10
 1086 0088 64       		.byte	100
 1087 0089 64       		.byte	100
 1088 008a 64       		.byte	100
 1089 008b 64       		.byte	100
 1090 008c 00093D00 		.word	4000000
 1091 0090 00       		.byte	0
 1092 0091 01       		.byte	1
 1093 0092 28       		.byte	40
 1094 0093 3C       		.byte	60
 1095 0094 0C       		.byte	12
 1096 0095 0C       		.byte	12
 1097 0096 10       		.byte	16
 1098 0097 10       		.byte	16
 1099 0098 6000     		.short	96
 1100 009a 6000     		.short	96
 1101              		.type	u8x8_d_ssd1327_96x96_init_seq, %object
 1102              		.size	u8x8_d_ssd1327_96x96_init_seq, 61
 1103              	u8x8_d_ssd1327_96x96_init_seq:
 1104 009c 18       		.byte	24
 1105 009d 15       		.byte	21
ARM GAS  C:\Users\brian\AppData\Local\Temp\ccDVzQIu.s 			page 38


 1106 009e FD       		.byte	-3
 1107 009f 16       		.byte	22
 1108 00a0 12       		.byte	18
 1109 00a1 15       		.byte	21
 1110 00a2 AE       		.byte	-82
 1111 00a3 15       		.byte	21
 1112 00a4 A8       		.byte	-88
 1113 00a5 16       		.byte	22
 1114 00a6 5F       		.byte	95
 1115 00a7 15       		.byte	21
 1116 00a8 A1       		.byte	-95
 1117 00a9 16       		.byte	22
 1118 00aa 00       		.byte	0
 1119 00ab 15       		.byte	21
 1120 00ac A2       		.byte	-94
 1121 00ad 16       		.byte	22
 1122 00ae 20       		.byte	32
 1123 00af 15       		.byte	21
 1124 00b0 A0       		.byte	-96
 1125 00b1 16       		.byte	22
 1126 00b2 51       		.byte	81
 1127 00b3 15       		.byte	21
 1128 00b4 AB       		.byte	-85
 1129 00b5 16       		.byte	22
 1130 00b6 01       		.byte	1
 1131 00b7 15       		.byte	21
 1132 00b8 81       		.byte	-127
 1133 00b9 16       		.byte	22
 1134 00ba 53       		.byte	83
 1135 00bb 15       		.byte	21
 1136 00bc B1       		.byte	-79
 1137 00bd 16       		.byte	22
 1138 00be 51       		.byte	81
 1139 00bf 15       		.byte	21
 1140 00c0 B3       		.byte	-77
 1141 00c1 16       		.byte	22
 1142 00c2 01       		.byte	1
 1143 00c3 15       		.byte	21
 1144 00c4 B9       		.byte	-71
 1145 00c5 15       		.byte	21
 1146 00c6 BC       		.byte	-68
 1147 00c7 16       		.byte	22
 1148 00c8 08       		.byte	8
 1149 00c9 15       		.byte	21
 1150 00ca BE       		.byte	-66
 1151 00cb 16       		.byte	22
 1152 00cc 07       		.byte	7
 1153 00cd 15       		.byte	21
 1154 00ce B6       		.byte	-74
 1155 00cf 16       		.byte	22
 1156 00d0 01       		.byte	1
 1157 00d1 15       		.byte	21
 1158 00d2 D5       		.byte	-43
 1159 00d3 16       		.byte	22
 1160 00d4 62       		.byte	98
 1161 00d5 15       		.byte	21
 1162 00d6 A4       		.byte	-92
ARM GAS  C:\Users\brian\AppData\Local\Temp\ccDVzQIu.s 			page 39


 1163 00d7 19       		.byte	25
 1164 00d8 FF       		.byte	-1
 1165 00d9 000000   		.space	3
 1166              		.type	u8x8_d_ssd1327_seeed_96x96_flip0_seq, %object
 1167              		.size	u8x8_d_ssd1327_seeed_96x96_flip0_seq, 11
 1168              	u8x8_d_ssd1327_seeed_96x96_flip0_seq:
 1169 00dc 18       		.byte	24
 1170 00dd 15       		.byte	21
 1171 00de A2       		.byte	-94
 1172 00df 16       		.byte	22
 1173 00e0 20       		.byte	32
 1174 00e1 15       		.byte	21
 1175 00e2 A0       		.byte	-96
 1176 00e3 16       		.byte	22
 1177 00e4 51       		.byte	81
 1178 00e5 19       		.byte	25
 1179 00e6 FF       		.byte	-1
 1180 00e7 00       		.space	1
 1181              		.type	u8x8_d_ssd1327_seeed_96x96_flip1_seq, %object
 1182              		.size	u8x8_d_ssd1327_seeed_96x96_flip1_seq, 11
 1183              	u8x8_d_ssd1327_seeed_96x96_flip1_seq:
 1184 00e8 18       		.byte	24
 1185 00e9 15       		.byte	21
 1186 00ea A2       		.byte	-94
 1187 00eb 16       		.byte	22
 1188 00ec 60       		.byte	96
 1189 00ed 15       		.byte	21
 1190 00ee A0       		.byte	-96
 1191 00ef 16       		.byte	22
 1192 00f0 42       		.byte	66
 1193 00f1 19       		.byte	25
 1194 00f2 FF       		.byte	-1
 1195 00f3 00       		.space	1
 1196              		.type	u8x8_ssd1327_ea_w128128_display_info, %object
 1197              		.size	u8x8_ssd1327_ea_w128128_display_info, 24
 1198              	u8x8_ssd1327_ea_w128128_display_info:
 1199 00f4 00       		.byte	0
 1200 00f5 01       		.byte	1
 1201 00f6 14       		.byte	20
 1202 00f7 0A       		.byte	10
 1203 00f8 64       		.byte	100
 1204 00f9 64       		.byte	100
 1205 00fa 64       		.byte	100
 1206 00fb 64       		.byte	100
 1207 00fc 00093D00 		.word	4000000
 1208 0100 00       		.byte	0
 1209 0101 01       		.byte	1
 1210 0102 28       		.byte	40
 1211 0103 3C       		.byte	60
 1212 0104 10       		.byte	16
 1213 0105 10       		.byte	16
 1214 0106 00       		.byte	0
 1215 0107 00       		.byte	0
 1216 0108 8000     		.short	128
 1217 010a 8000     		.short	128
 1218              		.type	u8x8_d_ssd1327_ea_w128128_init_seq, %object
 1219              		.size	u8x8_d_ssd1327_ea_w128128_init_seq, 61
ARM GAS  C:\Users\brian\AppData\Local\Temp\ccDVzQIu.s 			page 40


 1220              	u8x8_d_ssd1327_ea_w128128_init_seq:
 1221 010c 18       		.byte	24
 1222 010d 15       		.byte	21
 1223 010e FD       		.byte	-3
 1224 010f 16       		.byte	22
 1225 0110 12       		.byte	18
 1226 0111 15       		.byte	21
 1227 0112 AE       		.byte	-82
 1228 0113 15       		.byte	21
 1229 0114 A8       		.byte	-88
 1230 0115 16       		.byte	22
 1231 0116 5F       		.byte	95
 1232 0117 15       		.byte	21
 1233 0118 A1       		.byte	-95
 1234 0119 16       		.byte	22
 1235 011a 00       		.byte	0
 1236 011b 15       		.byte	21
 1237 011c A2       		.byte	-94
 1238 011d 16       		.byte	22
 1239 011e 10       		.byte	16
 1240 011f 15       		.byte	21
 1241 0120 A0       		.byte	-96
 1242 0121 16       		.byte	22
 1243 0122 51       		.byte	81
 1244 0123 15       		.byte	21
 1245 0124 AB       		.byte	-85
 1246 0125 16       		.byte	22
 1247 0126 01       		.byte	1
 1248 0127 15       		.byte	21
 1249 0128 81       		.byte	-127
 1250 0129 16       		.byte	22
 1251 012a 53       		.byte	83
 1252 012b 15       		.byte	21
 1253 012c B1       		.byte	-79
 1254 012d 16       		.byte	22
 1255 012e 51       		.byte	81
 1256 012f 15       		.byte	21
 1257 0130 B3       		.byte	-77
 1258 0131 16       		.byte	22
 1259 0132 01       		.byte	1
 1260 0133 15       		.byte	21
 1261 0134 B9       		.byte	-71
 1262 0135 15       		.byte	21
 1263 0136 BC       		.byte	-68
 1264 0137 16       		.byte	22
 1265 0138 08       		.byte	8
 1266 0139 15       		.byte	21
 1267 013a BE       		.byte	-66
 1268 013b 16       		.byte	22
 1269 013c 07       		.byte	7
 1270 013d 15       		.byte	21
 1271 013e B6       		.byte	-74
 1272 013f 16       		.byte	22
 1273 0140 01       		.byte	1
 1274 0141 15       		.byte	21
 1275 0142 D5       		.byte	-43
 1276 0143 16       		.byte	22
ARM GAS  C:\Users\brian\AppData\Local\Temp\ccDVzQIu.s 			page 41


 1277 0144 62       		.byte	98
 1278 0145 15       		.byte	21
 1279 0146 A4       		.byte	-92
 1280 0147 19       		.byte	25
 1281 0148 FF       		.byte	-1
 1282 0149 000000   		.space	3
 1283              		.type	u8x8_d_ssd1327_ea_w128128_flip0_seq, %object
 1284              		.size	u8x8_d_ssd1327_ea_w128128_flip0_seq, 11
 1285              	u8x8_d_ssd1327_ea_w128128_flip0_seq:
 1286 014c 18       		.byte	24
 1287 014d 15       		.byte	21
 1288 014e A2       		.byte	-94
 1289 014f 16       		.byte	22
 1290 0150 00       		.byte	0
 1291 0151 15       		.byte	21
 1292 0152 A0       		.byte	-96
 1293 0153 16       		.byte	22
 1294 0154 51       		.byte	81
 1295 0155 19       		.byte	25
 1296 0156 FF       		.byte	-1
 1297 0157 00       		.space	1
 1298              		.type	u8x8_d_ssd1327_ea_w128128_flip1_seq, %object
 1299              		.size	u8x8_d_ssd1327_ea_w128128_flip1_seq, 11
 1300              	u8x8_d_ssd1327_ea_w128128_flip1_seq:
 1301 0158 18       		.byte	24
 1302 0159 15       		.byte	21
 1303 015a A2       		.byte	-94
 1304 015b 16       		.byte	22
 1305 015c 00       		.byte	0
 1306 015d 15       		.byte	21
 1307 015e A0       		.byte	-96
 1308 015f 16       		.byte	22
 1309 0160 42       		.byte	66
 1310 0161 19       		.byte	25
 1311 0162 FF       		.byte	-1
 1312 0163 00       		.space	1
 1313              		.type	u8x8_ssd1327_128x128_display_info, %object
 1314              		.size	u8x8_ssd1327_128x128_display_info, 24
 1315              	u8x8_ssd1327_128x128_display_info:
 1316 0164 00       		.byte	0
 1317 0165 01       		.byte	1
 1318 0166 14       		.byte	20
 1319 0167 0A       		.byte	10
 1320 0168 64       		.byte	100
 1321 0169 64       		.byte	100
 1322 016a 64       		.byte	100
 1323 016b 64       		.byte	100
 1324 016c 00093D00 		.word	4000000
 1325 0170 00       		.byte	0
 1326 0171 01       		.byte	1
 1327 0172 28       		.byte	40
 1328 0173 3C       		.byte	60
 1329 0174 10       		.byte	16
 1330 0175 10       		.byte	16
 1331 0176 00       		.byte	0
 1332 0177 00       		.byte	0
 1333 0178 8000     		.short	128
ARM GAS  C:\Users\brian\AppData\Local\Temp\ccDVzQIu.s 			page 42


 1334 017a 8000     		.short	128
 1335              		.type	u8x8_d_ssd1327_128x128_init_seq, %object
 1336              		.size	u8x8_d_ssd1327_128x128_init_seq, 61
 1337              	u8x8_d_ssd1327_128x128_init_seq:
 1338 017c 18       		.byte	24
 1339 017d 15       		.byte	21
 1340 017e FD       		.byte	-3
 1341 017f 16       		.byte	22
 1342 0180 12       		.byte	18
 1343 0181 15       		.byte	21
 1344 0182 AE       		.byte	-82
 1345 0183 15       		.byte	21
 1346 0184 A8       		.byte	-88
 1347 0185 16       		.byte	22
 1348 0186 7F       		.byte	127
 1349 0187 15       		.byte	21
 1350 0188 A1       		.byte	-95
 1351 0189 16       		.byte	22
 1352 018a 00       		.byte	0
 1353 018b 15       		.byte	21
 1354 018c A2       		.byte	-94
 1355 018d 16       		.byte	22
 1356 018e 00       		.byte	0
 1357 018f 15       		.byte	21
 1358 0190 A0       		.byte	-96
 1359 0191 16       		.byte	22
 1360 0192 51       		.byte	81
 1361 0193 15       		.byte	21
 1362 0194 AB       		.byte	-85
 1363 0195 16       		.byte	22
 1364 0196 01       		.byte	1
 1365 0197 15       		.byte	21
 1366 0198 81       		.byte	-127
 1367 0199 16       		.byte	22
 1368 019a 53       		.byte	83
 1369 019b 15       		.byte	21
 1370 019c B1       		.byte	-79
 1371 019d 16       		.byte	22
 1372 019e 51       		.byte	81
 1373 019f 15       		.byte	21
 1374 01a0 B3       		.byte	-77
 1375 01a1 16       		.byte	22
 1376 01a2 01       		.byte	1
 1377 01a3 15       		.byte	21
 1378 01a4 B9       		.byte	-71
 1379 01a5 15       		.byte	21
 1380 01a6 BC       		.byte	-68
 1381 01a7 16       		.byte	22
 1382 01a8 08       		.byte	8
 1383 01a9 15       		.byte	21
 1384 01aa BE       		.byte	-66
 1385 01ab 16       		.byte	22
 1386 01ac 07       		.byte	7
 1387 01ad 15       		.byte	21
 1388 01ae B6       		.byte	-74
 1389 01af 16       		.byte	22
 1390 01b0 01       		.byte	1
ARM GAS  C:\Users\brian\AppData\Local\Temp\ccDVzQIu.s 			page 43


 1391 01b1 15       		.byte	21
 1392 01b2 D5       		.byte	-43
 1393 01b3 16       		.byte	22
 1394 01b4 62       		.byte	98
 1395 01b5 15       		.byte	21
 1396 01b6 A4       		.byte	-92
 1397 01b7 19       		.byte	25
 1398 01b8 FF       		.byte	-1
 1399 01b9 000000   		.space	3
 1400              		.type	u8x8_d_ssd1327_128x128_flip0_seq, %object
 1401              		.size	u8x8_d_ssd1327_128x128_flip0_seq, 11
 1402              	u8x8_d_ssd1327_128x128_flip0_seq:
 1403 01bc 18       		.byte	24
 1404 01bd 15       		.byte	21
 1405 01be A2       		.byte	-94
 1406 01bf 16       		.byte	22
 1407 01c0 00       		.byte	0
 1408 01c1 15       		.byte	21
 1409 01c2 A0       		.byte	-96
 1410 01c3 16       		.byte	22
 1411 01c4 51       		.byte	81
 1412 01c5 19       		.byte	25
 1413 01c6 FF       		.byte	-1
 1414 01c7 00       		.space	1
 1415              		.type	u8x8_d_ssd1327_128x128_flip1_seq, %object
 1416              		.size	u8x8_d_ssd1327_128x128_flip1_seq, 11
 1417              	u8x8_d_ssd1327_128x128_flip1_seq:
 1418 01c8 18       		.byte	24
 1419 01c9 15       		.byte	21
 1420 01ca A2       		.byte	-94
 1421 01cb 16       		.byte	22
 1422 01cc 00       		.byte	0
 1423 01cd 15       		.byte	21
 1424 01ce A0       		.byte	-96
 1425 01cf 16       		.byte	22
 1426 01d0 42       		.byte	66
 1427 01d1 19       		.byte	25
 1428 01d2 FF       		.byte	-1
 1429 01d3 00       		.space	1
 1430              		.type	u8x8_d_ssd1327_ws_128x128_init_seq, %object
 1431              		.size	u8x8_d_ssd1327_ws_128x128_init_seq, 71
 1432              	u8x8_d_ssd1327_ws_128x128_init_seq:
 1433 01d4 18       		.byte	24
 1434 01d5 15       		.byte	21
 1435 01d6 AE       		.byte	-82
 1436 01d7 15       		.byte	21
 1437 01d8 15       		.byte	21
 1438 01d9 16       		.byte	22
 1439 01da 00       		.byte	0
 1440 01db 16       		.byte	22
 1441 01dc 7F       		.byte	127
 1442 01dd 15       		.byte	21
 1443 01de 75       		.byte	117
 1444 01df 16       		.byte	22
 1445 01e0 00       		.byte	0
 1446 01e1 16       		.byte	22
 1447 01e2 7F       		.byte	127
ARM GAS  C:\Users\brian\AppData\Local\Temp\ccDVzQIu.s 			page 44


 1448 01e3 15       		.byte	21
 1449 01e4 81       		.byte	-127
 1450 01e5 16       		.byte	22
 1451 01e6 80       		.byte	-128
 1452 01e7 15       		.byte	21
 1453 01e8 A0       		.byte	-96
 1454 01e9 16       		.byte	22
 1455 01ea 51       		.byte	81
 1456 01eb 15       		.byte	21
 1457 01ec A1       		.byte	-95
 1458 01ed 16       		.byte	22
 1459 01ee 00       		.byte	0
 1460 01ef 15       		.byte	21
 1461 01f0 A2       		.byte	-94
 1462 01f1 16       		.byte	22
 1463 01f2 00       		.byte	0
 1464 01f3 15       		.byte	21
 1465 01f4 A4       		.byte	-92
 1466 01f5 16       		.byte	22
 1467 01f6 A8       		.byte	-88
 1468 01f7 16       		.byte	22
 1469 01f8 7F       		.byte	127
 1470 01f9 15       		.byte	21
 1471 01fa B1       		.byte	-79
 1472 01fb 16       		.byte	22
 1473 01fc F1       		.byte	-15
 1474 01fd 15       		.byte	21
 1475 01fe B3       		.byte	-77
 1476 01ff 16       		.byte	22
 1477 0200 00       		.byte	0
 1478 0201 15       		.byte	21
 1479 0202 AB       		.byte	-85
 1480 0203 16       		.byte	22
 1481 0204 01       		.byte	1
 1482 0205 15       		.byte	21
 1483 0206 B6       		.byte	-74
 1484 0207 16       		.byte	22
 1485 0208 0F       		.byte	15
 1486 0209 15       		.byte	21
 1487 020a BE       		.byte	-66
 1488 020b 16       		.byte	22
 1489 020c 0F       		.byte	15
 1490 020d 15       		.byte	21
 1491 020e BC       		.byte	-68
 1492 020f 16       		.byte	22
 1493 0210 08       		.byte	8
 1494 0211 15       		.byte	21
 1495 0212 D5       		.byte	-43
 1496 0213 16       		.byte	22
 1497 0214 62       		.byte	98
 1498 0215 15       		.byte	21
 1499 0216 FD       		.byte	-3
 1500 0217 16       		.byte	22
 1501 0218 12       		.byte	18
 1502 0219 19       		.byte	25
 1503 021a FF       		.byte	-1
 1504 021b 00       		.space	1
ARM GAS  C:\Users\brian\AppData\Local\Temp\ccDVzQIu.s 			page 45


 1505              		.type	u8x8_ssd1327_128x96_display_info, %object
 1506              		.size	u8x8_ssd1327_128x96_display_info, 24
 1507              	u8x8_ssd1327_128x96_display_info:
 1508 021c 00       		.byte	0
 1509 021d 01       		.byte	1
 1510 021e 14       		.byte	20
 1511 021f 0A       		.byte	10
 1512 0220 64       		.byte	100
 1513 0221 64       		.byte	100
 1514 0222 64       		.byte	100
 1515 0223 64       		.byte	100
 1516 0224 00093D00 		.word	4000000
 1517 0228 00       		.byte	0
 1518 0229 01       		.byte	1
 1519 022a 28       		.byte	40
 1520 022b 3C       		.byte	60
 1521 022c 10       		.byte	16
 1522 022d 0C       		.byte	12
 1523 022e 00       		.byte	0
 1524 022f 00       		.byte	0
 1525 0230 8000     		.short	128
 1526 0232 6000     		.short	96
 1527              		.type	u8x8_d_ssd1327_128x96_init_seq, %object
 1528              		.size	u8x8_d_ssd1327_128x96_init_seq, 61
 1529              	u8x8_d_ssd1327_128x96_init_seq:
 1530 0234 18       		.byte	24
 1531 0235 15       		.byte	21
 1532 0236 FD       		.byte	-3
 1533 0237 16       		.byte	22
 1534 0238 12       		.byte	18
 1535 0239 15       		.byte	21
 1536 023a AE       		.byte	-82
 1537 023b 15       		.byte	21
 1538 023c A8       		.byte	-88
 1539 023d 16       		.byte	22
 1540 023e 5F       		.byte	95
 1541 023f 15       		.byte	21
 1542 0240 A1       		.byte	-95
 1543 0241 16       		.byte	22
 1544 0242 00       		.byte	0
 1545 0243 15       		.byte	21
 1546 0244 A2       		.byte	-94
 1547 0245 16       		.byte	22
 1548 0246 20       		.byte	32
 1549 0247 15       		.byte	21
 1550 0248 A0       		.byte	-96
 1551 0249 16       		.byte	22
 1552 024a 51       		.byte	81
 1553 024b 15       		.byte	21
 1554 024c AB       		.byte	-85
 1555 024d 16       		.byte	22
 1556 024e 01       		.byte	1
 1557 024f 15       		.byte	21
 1558 0250 81       		.byte	-127
 1559 0251 16       		.byte	22
 1560 0252 DF       		.byte	-33
 1561 0253 15       		.byte	21
ARM GAS  C:\Users\brian\AppData\Local\Temp\ccDVzQIu.s 			page 46


 1562 0254 B1       		.byte	-79
 1563 0255 16       		.byte	22
 1564 0256 22       		.byte	34
 1565 0257 15       		.byte	21
 1566 0258 B3       		.byte	-77
 1567 0259 16       		.byte	22
 1568 025a 50       		.byte	80
 1569 025b 15       		.byte	21
 1570 025c B9       		.byte	-71
 1571 025d 15       		.byte	21
 1572 025e BC       		.byte	-68
 1573 025f 16       		.byte	22
 1574 0260 10       		.byte	16
 1575 0261 15       		.byte	21
 1576 0262 BE       		.byte	-66
 1577 0263 16       		.byte	22
 1578 0264 05       		.byte	5
 1579 0265 15       		.byte	21
 1580 0266 B6       		.byte	-74
 1581 0267 16       		.byte	22
 1582 0268 0A       		.byte	10
 1583 0269 15       		.byte	21
 1584 026a D5       		.byte	-43
 1585 026b 16       		.byte	22
 1586 026c 62       		.byte	98
 1587 026d 15       		.byte	21
 1588 026e A4       		.byte	-92
 1589 026f 19       		.byte	25
 1590 0270 FF       		.byte	-1
 1591 0271 000000   		.space	3
 1592              		.type	u8x8_d_ssd1327_128x96_flip0_seq, %object
 1593              		.size	u8x8_d_ssd1327_128x96_flip0_seq, 11
 1594              	u8x8_d_ssd1327_128x96_flip0_seq:
 1595 0274 18       		.byte	24
 1596 0275 15       		.byte	21
 1597 0276 A2       		.byte	-94
 1598 0277 16       		.byte	22
 1599 0278 20       		.byte	32
 1600 0279 15       		.byte	21
 1601 027a A0       		.byte	-96
 1602 027b 16       		.byte	22
 1603 027c 51       		.byte	81
 1604 027d 19       		.byte	25
 1605 027e FF       		.byte	-1
 1606 027f 00       		.space	1
 1607              		.type	u8x8_d_ssd1327_128x96_flip1_seq, %object
 1608              		.size	u8x8_d_ssd1327_128x96_flip1_seq, 11
 1609              	u8x8_d_ssd1327_128x96_flip1_seq:
 1610 0280 18       		.byte	24
 1611 0281 15       		.byte	21
 1612 0282 A2       		.byte	-94
 1613 0283 16       		.byte	22
 1614 0284 60       		.byte	96
 1615 0285 15       		.byte	21
 1616 0286 A0       		.byte	-96
 1617 0287 16       		.byte	22
 1618 0288 42       		.byte	66
ARM GAS  C:\Users\brian\AppData\Local\Temp\ccDVzQIu.s 			page 47


 1619 0289 19       		.byte	25
 1620 028a FF       		.byte	-1
 1621              		.bss
 1622              		.align	2
 1623              		.set	.LANCHOR0,. + 0
 1624              		.type	u8x8_ssd1327_8to32_dest_buf, %object
 1625              		.size	u8x8_ssd1327_8to32_dest_buf, 32
 1626              	u8x8_ssd1327_8to32_dest_buf:
 1627 0000 00000000 		.space	32
 1627      00000000 
 1627      00000000 
 1627      00000000 
 1627      00000000 
 1628              		.text
 1629              	.Letext0:
 1630              		.file 2 "c:\\program files (x86)\\cypress\\psoc creator\\4.4\\psoc creator\\import\\gnu\\arm\\5.4.
 1631              		.file 3 "c:\\program files (x86)\\cypress\\psoc creator\\4.4\\psoc creator\\import\\gnu\\arm\\5.4.
 1632              		.file 4 "..\\u8g2\\csrc\\u8x8.h"