ARM GAS  C:\Users\brian\AppData\Local\Temp\cclOaW4l.s 			page 1


   1              		.syntax unified
   2              		.cpu cortex-m3
   3              		.fpu softvfp
   4              		.eabi_attribute 20, 1
   5              		.eabi_attribute 21, 1
   6              		.eabi_attribute 23, 3
   7              		.eabi_attribute 24, 1
   8              		.eabi_attribute 25, 1
   9              		.eabi_attribute 26, 1
  10              		.eabi_attribute 30, 1
  11              		.eabi_attribute 34, 1
  12              		.eabi_attribute 18, 4
  13              		.thumb
  14              		.syntax unified
  15              		.file	"u8x8_cad.c"
  16              		.text
  17              	.Ltext0:
  18              		.cfi_sections	.debug_frame
  19              		.section	.text.u8x8_i2c_data_transfer,"ax",%progbits
  20              		.align	2
  21              		.thumb
  22              		.thumb_func
  23              		.type	u8x8_i2c_data_transfer, %function
  24              	u8x8_i2c_data_transfer:
  25              	.LFB16:
  26              		.file 1 "..\\u8g2\\csrc\\u8x8_cad.c"
   1:..\u8g2\csrc/u8x8_cad.c **** /*
   2:..\u8g2\csrc/u8x8_cad.c ****   
   3:..\u8g2\csrc/u8x8_cad.c ****   u8x8_cad.c
   4:..\u8g2\csrc/u8x8_cad.c ****   
   5:..\u8g2\csrc/u8x8_cad.c ****   "command arg data" interface to the graphics controller
   6:..\u8g2\csrc/u8x8_cad.c **** 
   7:..\u8g2\csrc/u8x8_cad.c ****   Universal 8bit Graphics Library (https://github.com/olikraus/u8g2/)
   8:..\u8g2\csrc/u8x8_cad.c **** 
   9:..\u8g2\csrc/u8x8_cad.c ****   Copyright (c) 2016, olikraus@gmail.com
  10:..\u8g2\csrc/u8x8_cad.c ****   All rights reserved.
  11:..\u8g2\csrc/u8x8_cad.c **** 
  12:..\u8g2\csrc/u8x8_cad.c ****   Redistribution and use in source and binary forms, with or without modification, 
  13:..\u8g2\csrc/u8x8_cad.c ****   are permitted provided that the following conditions are met:
  14:..\u8g2\csrc/u8x8_cad.c **** 
  15:..\u8g2\csrc/u8x8_cad.c ****   * Redistributions of source code must retain the above copyright notice, this list 
  16:..\u8g2\csrc/u8x8_cad.c ****     of conditions and the following disclaimer.
  17:..\u8g2\csrc/u8x8_cad.c ****     
  18:..\u8g2\csrc/u8x8_cad.c ****   * Redistributions in binary form must reproduce the above copyright notice, this 
  19:..\u8g2\csrc/u8x8_cad.c ****     list of conditions and the following disclaimer in the documentation and/or other 
  20:..\u8g2\csrc/u8x8_cad.c ****     materials provided with the distribution.
  21:..\u8g2\csrc/u8x8_cad.c **** 
  22:..\u8g2\csrc/u8x8_cad.c ****   THIS SOFTWARE IS PROVIDED BY THE COPYRIGHT HOLDERS AND 
  23:..\u8g2\csrc/u8x8_cad.c ****   CONTRIBUTORS "AS IS" AND ANY EXPRESS OR IMPLIED WARRANTIES, 
  24:..\u8g2\csrc/u8x8_cad.c ****   INCLUDING, BUT NOT LIMITED TO, THE IMPLIED WARRANTIES OF 
  25:..\u8g2\csrc/u8x8_cad.c ****   MERCHANTABILITY AND FITNESS FOR A PARTICULAR PURPOSE ARE 
  26:..\u8g2\csrc/u8x8_cad.c ****   DISCLAIMED. IN NO EVENT SHALL THE COPYRIGHT HOLDER OR 
  27:..\u8g2\csrc/u8x8_cad.c ****   CONTRIBUTORS BE LIABLE FOR ANY DIRECT, INDIRECT, INCIDENTAL, 
  28:..\u8g2\csrc/u8x8_cad.c ****   SPECIAL, EXEMPLARY, OR CONSEQUENTIAL DAMAGES (INCLUDING, BUT 
  29:..\u8g2\csrc/u8x8_cad.c ****   NOT LIMITED TO, PROCUREMENT OF SUBSTITUTE GOODS OR SERVICES; 
  30:..\u8g2\csrc/u8x8_cad.c ****   LOSS OF USE, DATA, OR PROFITS; OR BUSINESS INTERRUPTION) HOWEVER 
  31:..\u8g2\csrc/u8x8_cad.c ****   CAUSED AND ON ANY THEORY OF LIABILITY, WHETHER IN CONTRACT, 
ARM GAS  C:\Users\brian\AppData\Local\Temp\cclOaW4l.s 			page 2


  32:..\u8g2\csrc/u8x8_cad.c ****   STRICT LIABILITY, OR TORT (INCLUDING NEGLIGENCE OR OTHERWISE) 
  33:..\u8g2\csrc/u8x8_cad.c ****   ARISING IN ANY WAY OUT OF THE USE OF THIS SOFTWARE, EVEN IF 
  34:..\u8g2\csrc/u8x8_cad.c ****   ADVISED OF THE POSSIBILITY OF SUCH DAMAGE.  
  35:..\u8g2\csrc/u8x8_cad.c **** 
  36:..\u8g2\csrc/u8x8_cad.c **** 
  37:..\u8g2\csrc/u8x8_cad.c ****   The following sequence must be used for any data, which is set to the display:
  38:..\u8g2\csrc/u8x8_cad.c ****   
  39:..\u8g2\csrc/u8x8_cad.c ****   
  40:..\u8g2\csrc/u8x8_cad.c ****   uint8_t u8x8_cad_StartTransfer(u8x8_t *u8x8)
  41:..\u8g2\csrc/u8x8_cad.c **** 
  42:..\u8g2\csrc/u8x8_cad.c ****   any of the following calls
  43:..\u8g2\csrc/u8x8_cad.c ****     uint8_t u8x8_cad_SendCmd(u8x8_t *u8x8, uint8_t cmd)
  44:..\u8g2\csrc/u8x8_cad.c ****     uint8_t u8x8_cad_SendArg(u8x8_t *u8x8, uint8_t arg)
  45:..\u8g2\csrc/u8x8_cad.c ****     uint8_t u8x8_cad_SendData(u8x8_t *u8x8, uint8_t cnt, uint8_t *data)
  46:..\u8g2\csrc/u8x8_cad.c ****   
  47:..\u8g2\csrc/u8x8_cad.c ****   uint8_t u8x8_cad_EndTransfer(u8x8_t *u8x8)
  48:..\u8g2\csrc/u8x8_cad.c **** 
  49:..\u8g2\csrc/u8x8_cad.c **** 
  50:..\u8g2\csrc/u8x8_cad.c **** 
  51:..\u8g2\csrc/u8x8_cad.c **** */
  52:..\u8g2\csrc/u8x8_cad.c **** /*
  53:..\u8g2\csrc/u8x8_cad.c **** uint8_t u8x8_cad_template(u8x8_t *u8x8, uint8_t msg, uint16_t arg_int, void *arg_ptr)
  54:..\u8g2\csrc/u8x8_cad.c **** {
  55:..\u8g2\csrc/u8x8_cad.c ****   uint8_t i;
  56:..\u8g2\csrc/u8x8_cad.c ****   
  57:..\u8g2\csrc/u8x8_cad.c ****   switch(msg)
  58:..\u8g2\csrc/u8x8_cad.c ****   {
  59:..\u8g2\csrc/u8x8_cad.c ****     case U8X8_MSG_CAD_SEND_CMD:
  60:..\u8g2\csrc/u8x8_cad.c ****       u8x8_mcd_byte_SetDC(mcd->next, 1);
  61:..\u8g2\csrc/u8x8_cad.c ****       u8x8_mcd_byte_Send(mcd->next, arg_int);
  62:..\u8g2\csrc/u8x8_cad.c ****       break;
  63:..\u8g2\csrc/u8x8_cad.c ****     case U8X8_MSG_CAD_SEND_ARG:
  64:..\u8g2\csrc/u8x8_cad.c ****       u8x8_mcd_byte_SetDC(mcd->next, 1);
  65:..\u8g2\csrc/u8x8_cad.c ****       u8x8_mcd_byte_Send(mcd->next, arg_int);
  66:..\u8g2\csrc/u8x8_cad.c ****       break;
  67:..\u8g2\csrc/u8x8_cad.c ****     case U8X8_MSG_CAD_SEND_DATA:
  68:..\u8g2\csrc/u8x8_cad.c ****       u8x8_mcd_byte_SetDC(mcd->next, 0);
  69:..\u8g2\csrc/u8x8_cad.c ****       for( i = 0; i < 8; i++ )
  70:..\u8g2\csrc/u8x8_cad.c **** 	u8x8_mcd_byte_Send(mcd->next, ((uint8_t *)arg_ptr)[i]);
  71:..\u8g2\csrc/u8x8_cad.c ****       break;
  72:..\u8g2\csrc/u8x8_cad.c ****     case U8X8_MSG_CAD_RESET:
  73:..\u8g2\csrc/u8x8_cad.c ****       return mcd->next->cb(mcd->next, msg, arg_int, arg_ptr);
  74:..\u8g2\csrc/u8x8_cad.c ****     case U8X8_MSG_CAD_START_TRANSFER:
  75:..\u8g2\csrc/u8x8_cad.c ****       return mcd->next->cb(mcd->next, msg, arg_int, arg_ptr);
  76:..\u8g2\csrc/u8x8_cad.c ****     case U8X8_MSG_CAD_END_TRANSFER:
  77:..\u8g2\csrc/u8x8_cad.c ****       return mcd->next->cb(mcd->next, msg, arg_int, arg_ptr);
  78:..\u8g2\csrc/u8x8_cad.c ****     default:
  79:..\u8g2\csrc/u8x8_cad.c ****       break;
  80:..\u8g2\csrc/u8x8_cad.c ****   }
  81:..\u8g2\csrc/u8x8_cad.c ****   return 1;
  82:..\u8g2\csrc/u8x8_cad.c **** }
  83:..\u8g2\csrc/u8x8_cad.c **** 
  84:..\u8g2\csrc/u8x8_cad.c **** */
  85:..\u8g2\csrc/u8x8_cad.c **** 
  86:..\u8g2\csrc/u8x8_cad.c **** #include "u8x8.h"
  87:..\u8g2\csrc/u8x8_cad.c **** 
  88:..\u8g2\csrc/u8x8_cad.c **** uint8_t u8x8_cad_SendCmd(u8x8_t *u8x8, uint8_t cmd)
ARM GAS  C:\Users\brian\AppData\Local\Temp\cclOaW4l.s 			page 3


  89:..\u8g2\csrc/u8x8_cad.c **** {
  90:..\u8g2\csrc/u8x8_cad.c ****   return u8x8->cad_cb(u8x8, U8X8_MSG_CAD_SEND_CMD, cmd, NULL);
  91:..\u8g2\csrc/u8x8_cad.c **** }
  92:..\u8g2\csrc/u8x8_cad.c **** 
  93:..\u8g2\csrc/u8x8_cad.c **** uint8_t u8x8_cad_SendArg(u8x8_t *u8x8, uint8_t arg)
  94:..\u8g2\csrc/u8x8_cad.c **** {
  95:..\u8g2\csrc/u8x8_cad.c ****   return u8x8->cad_cb(u8x8, U8X8_MSG_CAD_SEND_ARG, arg, NULL);
  96:..\u8g2\csrc/u8x8_cad.c **** }
  97:..\u8g2\csrc/u8x8_cad.c **** 
  98:..\u8g2\csrc/u8x8_cad.c **** uint8_t u8x8_cad_SendMultipleArg(u8x8_t *u8x8, uint8_t cnt, uint8_t arg)
  99:..\u8g2\csrc/u8x8_cad.c **** {
 100:..\u8g2\csrc/u8x8_cad.c ****   while( cnt > 0 )
 101:..\u8g2\csrc/u8x8_cad.c ****   {
 102:..\u8g2\csrc/u8x8_cad.c ****     u8x8->cad_cb(u8x8, U8X8_MSG_CAD_SEND_ARG, arg, NULL);
 103:..\u8g2\csrc/u8x8_cad.c ****     cnt--;
 104:..\u8g2\csrc/u8x8_cad.c ****   }
 105:..\u8g2\csrc/u8x8_cad.c ****   return 1;
 106:..\u8g2\csrc/u8x8_cad.c **** }
 107:..\u8g2\csrc/u8x8_cad.c **** 
 108:..\u8g2\csrc/u8x8_cad.c **** uint8_t u8x8_cad_SendData(u8x8_t *u8x8, uint8_t cnt, uint8_t *data)
 109:..\u8g2\csrc/u8x8_cad.c **** {
 110:..\u8g2\csrc/u8x8_cad.c ****   return u8x8->cad_cb(u8x8, U8X8_MSG_CAD_SEND_DATA, cnt, data);
 111:..\u8g2\csrc/u8x8_cad.c **** }
 112:..\u8g2\csrc/u8x8_cad.c **** 
 113:..\u8g2\csrc/u8x8_cad.c **** uint8_t u8x8_cad_StartTransfer(u8x8_t *u8x8)
 114:..\u8g2\csrc/u8x8_cad.c **** {
 115:..\u8g2\csrc/u8x8_cad.c ****   return u8x8->cad_cb(u8x8, U8X8_MSG_CAD_START_TRANSFER, 0, NULL);
 116:..\u8g2\csrc/u8x8_cad.c **** }
 117:..\u8g2\csrc/u8x8_cad.c **** 
 118:..\u8g2\csrc/u8x8_cad.c **** uint8_t u8x8_cad_EndTransfer(u8x8_t *u8x8)
 119:..\u8g2\csrc/u8x8_cad.c **** {
 120:..\u8g2\csrc/u8x8_cad.c ****   return u8x8->cad_cb(u8x8, U8X8_MSG_CAD_END_TRANSFER, 0, NULL);
 121:..\u8g2\csrc/u8x8_cad.c **** }
 122:..\u8g2\csrc/u8x8_cad.c **** 
 123:..\u8g2\csrc/u8x8_cad.c **** void u8x8_cad_vsendf(u8x8_t * u8x8, const char *fmt, va_list va)
 124:..\u8g2\csrc/u8x8_cad.c **** {
 125:..\u8g2\csrc/u8x8_cad.c ****   uint8_t d;
 126:..\u8g2\csrc/u8x8_cad.c ****   u8x8_cad_StartTransfer(u8x8);
 127:..\u8g2\csrc/u8x8_cad.c ****   while( *fmt != '\0' )
 128:..\u8g2\csrc/u8x8_cad.c ****   {
 129:..\u8g2\csrc/u8x8_cad.c ****     d = (uint8_t)va_arg(va, int);
 130:..\u8g2\csrc/u8x8_cad.c ****     switch(*fmt)
 131:..\u8g2\csrc/u8x8_cad.c ****     {
 132:..\u8g2\csrc/u8x8_cad.c ****       case 'a':  u8x8_cad_SendArg(u8x8, d); break;
 133:..\u8g2\csrc/u8x8_cad.c ****       case 'c':  u8x8_cad_SendCmd(u8x8, d); break;
 134:..\u8g2\csrc/u8x8_cad.c ****       case 'd':  u8x8_cad_SendData(u8x8, 1, &d); break;
 135:..\u8g2\csrc/u8x8_cad.c ****     }
 136:..\u8g2\csrc/u8x8_cad.c ****     fmt++;
 137:..\u8g2\csrc/u8x8_cad.c ****   }
 138:..\u8g2\csrc/u8x8_cad.c ****   u8x8_cad_EndTransfer(u8x8);
 139:..\u8g2\csrc/u8x8_cad.c **** }
 140:..\u8g2\csrc/u8x8_cad.c **** 
 141:..\u8g2\csrc/u8x8_cad.c **** void u8x8_SendF(u8x8_t * u8x8, const char *fmt, ...)
 142:..\u8g2\csrc/u8x8_cad.c **** {
 143:..\u8g2\csrc/u8x8_cad.c ****   va_list va;
 144:..\u8g2\csrc/u8x8_cad.c ****   va_start(va, fmt);
 145:..\u8g2\csrc/u8x8_cad.c ****   u8x8_cad_vsendf(u8x8, fmt, va);
ARM GAS  C:\Users\brian\AppData\Local\Temp\cclOaW4l.s 			page 4


 146:..\u8g2\csrc/u8x8_cad.c ****   va_end(va);
 147:..\u8g2\csrc/u8x8_cad.c **** }
 148:..\u8g2\csrc/u8x8_cad.c **** 
 149:..\u8g2\csrc/u8x8_cad.c **** /*
 150:..\u8g2\csrc/u8x8_cad.c ****   21 c		send command c
 151:..\u8g2\csrc/u8x8_cad.c ****   22 a		send arg a
 152:..\u8g2\csrc/u8x8_cad.c ****   23 d		send data d
 153:..\u8g2\csrc/u8x8_cad.c ****   24			CS on
 154:..\u8g2\csrc/u8x8_cad.c ****   25			CS off
 155:..\u8g2\csrc/u8x8_cad.c ****   254 milli	delay by milliseconds
 156:..\u8g2\csrc/u8x8_cad.c ****   255		end of sequence
 157:..\u8g2\csrc/u8x8_cad.c **** */
 158:..\u8g2\csrc/u8x8_cad.c **** 
 159:..\u8g2\csrc/u8x8_cad.c **** void u8x8_cad_SendSequence(u8x8_t *u8x8, uint8_t const *data)
 160:..\u8g2\csrc/u8x8_cad.c **** {
 161:..\u8g2\csrc/u8x8_cad.c ****   uint8_t cmd;
 162:..\u8g2\csrc/u8x8_cad.c ****   uint8_t v;
 163:..\u8g2\csrc/u8x8_cad.c **** 
 164:..\u8g2\csrc/u8x8_cad.c ****   for(;;)
 165:..\u8g2\csrc/u8x8_cad.c ****   {
 166:..\u8g2\csrc/u8x8_cad.c ****     cmd = *data;
 167:..\u8g2\csrc/u8x8_cad.c ****     data++;
 168:..\u8g2\csrc/u8x8_cad.c ****     switch( cmd )
 169:..\u8g2\csrc/u8x8_cad.c ****     {
 170:..\u8g2\csrc/u8x8_cad.c ****       case U8X8_MSG_CAD_SEND_CMD:
 171:..\u8g2\csrc/u8x8_cad.c ****       case U8X8_MSG_CAD_SEND_ARG:
 172:..\u8g2\csrc/u8x8_cad.c **** 	  v = *data;
 173:..\u8g2\csrc/u8x8_cad.c **** 	  u8x8->cad_cb(u8x8, cmd, v, NULL);
 174:..\u8g2\csrc/u8x8_cad.c **** 	  data++;
 175:..\u8g2\csrc/u8x8_cad.c **** 	  break;
 176:..\u8g2\csrc/u8x8_cad.c ****       case U8X8_MSG_CAD_SEND_DATA:
 177:..\u8g2\csrc/u8x8_cad.c **** 	  v = *data;
 178:..\u8g2\csrc/u8x8_cad.c **** 	  u8x8_cad_SendData(u8x8, 1, &v);
 179:..\u8g2\csrc/u8x8_cad.c **** 	  data++;
 180:..\u8g2\csrc/u8x8_cad.c **** 	  break;
 181:..\u8g2\csrc/u8x8_cad.c ****       case U8X8_MSG_CAD_START_TRANSFER:
 182:..\u8g2\csrc/u8x8_cad.c ****       case U8X8_MSG_CAD_END_TRANSFER:
 183:..\u8g2\csrc/u8x8_cad.c **** 	  u8x8->cad_cb(u8x8, cmd, 0, NULL);
 184:..\u8g2\csrc/u8x8_cad.c **** 	  break;
 185:..\u8g2\csrc/u8x8_cad.c ****       case 0x0fe:
 186:..\u8g2\csrc/u8x8_cad.c **** 	  v = *data;
 187:..\u8g2\csrc/u8x8_cad.c **** 	  u8x8_gpio_Delay(u8x8, U8X8_MSG_DELAY_MILLI, v);	    
 188:..\u8g2\csrc/u8x8_cad.c **** 	  data++;
 189:..\u8g2\csrc/u8x8_cad.c **** 	  break;
 190:..\u8g2\csrc/u8x8_cad.c ****       default:
 191:..\u8g2\csrc/u8x8_cad.c **** 	return;
 192:..\u8g2\csrc/u8x8_cad.c ****     }
 193:..\u8g2\csrc/u8x8_cad.c ****   }
 194:..\u8g2\csrc/u8x8_cad.c **** }
 195:..\u8g2\csrc/u8x8_cad.c **** 
 196:..\u8g2\csrc/u8x8_cad.c **** 
 197:..\u8g2\csrc/u8x8_cad.c **** uint8_t u8x8_cad_empty(u8x8_t *u8x8, uint8_t msg, uint8_t arg_int, void *arg_ptr)
 198:..\u8g2\csrc/u8x8_cad.c **** {
 199:..\u8g2\csrc/u8x8_cad.c ****   switch(msg)
 200:..\u8g2\csrc/u8x8_cad.c ****   {
 201:..\u8g2\csrc/u8x8_cad.c ****     case U8X8_MSG_CAD_SEND_CMD:
 202:..\u8g2\csrc/u8x8_cad.c ****       u8x8_byte_SendByte(u8x8, arg_int);
ARM GAS  C:\Users\brian\AppData\Local\Temp\cclOaW4l.s 			page 5


 203:..\u8g2\csrc/u8x8_cad.c ****       break;
 204:..\u8g2\csrc/u8x8_cad.c ****     case U8X8_MSG_CAD_SEND_ARG:
 205:..\u8g2\csrc/u8x8_cad.c ****       u8x8_byte_SendByte(u8x8, arg_int);
 206:..\u8g2\csrc/u8x8_cad.c ****       break;
 207:..\u8g2\csrc/u8x8_cad.c ****     case U8X8_MSG_CAD_SEND_DATA:
 208:..\u8g2\csrc/u8x8_cad.c ****     case U8X8_MSG_CAD_INIT:
 209:..\u8g2\csrc/u8x8_cad.c ****     case U8X8_MSG_CAD_START_TRANSFER:
 210:..\u8g2\csrc/u8x8_cad.c ****     case U8X8_MSG_CAD_END_TRANSFER:
 211:..\u8g2\csrc/u8x8_cad.c ****       return u8x8->byte_cb(u8x8, msg, arg_int, arg_ptr);
 212:..\u8g2\csrc/u8x8_cad.c ****     default:
 213:..\u8g2\csrc/u8x8_cad.c ****       return 0;
 214:..\u8g2\csrc/u8x8_cad.c ****   }
 215:..\u8g2\csrc/u8x8_cad.c ****   return 1;
 216:..\u8g2\csrc/u8x8_cad.c **** }
 217:..\u8g2\csrc/u8x8_cad.c **** 
 218:..\u8g2\csrc/u8x8_cad.c **** 
 219:..\u8g2\csrc/u8x8_cad.c **** /*
 220:..\u8g2\csrc/u8x8_cad.c ****   convert to bytes by using 
 221:..\u8g2\csrc/u8x8_cad.c ****     dc = 1 for commands and args and
 222:..\u8g2\csrc/u8x8_cad.c ****     dc = 0 for data
 223:..\u8g2\csrc/u8x8_cad.c **** */
 224:..\u8g2\csrc/u8x8_cad.c **** uint8_t u8x8_cad_110(u8x8_t *u8x8, uint8_t msg, uint8_t arg_int, void *arg_ptr)
 225:..\u8g2\csrc/u8x8_cad.c **** {
 226:..\u8g2\csrc/u8x8_cad.c ****   switch(msg)
 227:..\u8g2\csrc/u8x8_cad.c ****   {
 228:..\u8g2\csrc/u8x8_cad.c ****     case U8X8_MSG_CAD_SEND_CMD:
 229:..\u8g2\csrc/u8x8_cad.c ****       u8x8_byte_SetDC(u8x8, 1);
 230:..\u8g2\csrc/u8x8_cad.c ****       u8x8_byte_SendByte(u8x8, arg_int);
 231:..\u8g2\csrc/u8x8_cad.c ****       break;
 232:..\u8g2\csrc/u8x8_cad.c ****     case U8X8_MSG_CAD_SEND_ARG:
 233:..\u8g2\csrc/u8x8_cad.c ****       u8x8_byte_SetDC(u8x8, 1);
 234:..\u8g2\csrc/u8x8_cad.c ****       u8x8_byte_SendByte(u8x8, arg_int);
 235:..\u8g2\csrc/u8x8_cad.c ****       break;
 236:..\u8g2\csrc/u8x8_cad.c ****     case U8X8_MSG_CAD_SEND_DATA:
 237:..\u8g2\csrc/u8x8_cad.c ****       u8x8_byte_SetDC(u8x8, 0);
 238:..\u8g2\csrc/u8x8_cad.c ****       //u8x8_byte_SendBytes(u8x8, arg_int, arg_ptr);
 239:..\u8g2\csrc/u8x8_cad.c ****       //break;
 240:..\u8g2\csrc/u8x8_cad.c ****       /* fall through */
 241:..\u8g2\csrc/u8x8_cad.c ****     case U8X8_MSG_CAD_INIT:
 242:..\u8g2\csrc/u8x8_cad.c ****     case U8X8_MSG_CAD_START_TRANSFER:
 243:..\u8g2\csrc/u8x8_cad.c ****     case U8X8_MSG_CAD_END_TRANSFER:
 244:..\u8g2\csrc/u8x8_cad.c ****       return u8x8->byte_cb(u8x8, msg, arg_int, arg_ptr);
 245:..\u8g2\csrc/u8x8_cad.c ****     default:
 246:..\u8g2\csrc/u8x8_cad.c ****       return 0;
 247:..\u8g2\csrc/u8x8_cad.c ****   }
 248:..\u8g2\csrc/u8x8_cad.c ****   return 1;
 249:..\u8g2\csrc/u8x8_cad.c **** }
 250:..\u8g2\csrc/u8x8_cad.c **** 
 251:..\u8g2\csrc/u8x8_cad.c **** /*
 252:..\u8g2\csrc/u8x8_cad.c ****   convert to bytes by using 
 253:..\u8g2\csrc/u8x8_cad.c ****     dc = 1 for commands and args and
 254:..\u8g2\csrc/u8x8_cad.c ****     dc = 0 for data
 255:..\u8g2\csrc/u8x8_cad.c **** */
 256:..\u8g2\csrc/u8x8_cad.c **** uint8_t u8x8_gu800_cad_110(u8x8_t *u8x8, uint8_t msg, uint8_t arg_int, void *arg_ptr)
 257:..\u8g2\csrc/u8x8_cad.c **** {
 258:..\u8g2\csrc/u8x8_cad.c ****   uint8_t *data;
 259:..\u8g2\csrc/u8x8_cad.c ****   switch(msg)
ARM GAS  C:\Users\brian\AppData\Local\Temp\cclOaW4l.s 			page 6


 260:..\u8g2\csrc/u8x8_cad.c ****   {
 261:..\u8g2\csrc/u8x8_cad.c ****     case U8X8_MSG_CAD_SEND_CMD:
 262:..\u8g2\csrc/u8x8_cad.c ****       u8x8_byte_SetDC(u8x8, 1);
 263:..\u8g2\csrc/u8x8_cad.c ****       u8x8_byte_StartTransfer(u8x8);
 264:..\u8g2\csrc/u8x8_cad.c ****       u8x8_byte_SendByte(u8x8, arg_int);
 265:..\u8g2\csrc/u8x8_cad.c ****       u8x8_byte_EndTransfer(u8x8);
 266:..\u8g2\csrc/u8x8_cad.c ****       break;
 267:..\u8g2\csrc/u8x8_cad.c ****     case U8X8_MSG_CAD_SEND_ARG:
 268:..\u8g2\csrc/u8x8_cad.c ****       u8x8_byte_SetDC(u8x8, 1);
 269:..\u8g2\csrc/u8x8_cad.c ****       u8x8_byte_StartTransfer(u8x8);
 270:..\u8g2\csrc/u8x8_cad.c ****       u8x8_byte_SendByte(u8x8, arg_int);
 271:..\u8g2\csrc/u8x8_cad.c ****       u8x8_byte_EndTransfer(u8x8);
 272:..\u8g2\csrc/u8x8_cad.c ****       break;
 273:..\u8g2\csrc/u8x8_cad.c ****     case U8X8_MSG_CAD_SEND_DATA:
 274:..\u8g2\csrc/u8x8_cad.c ****       u8x8_byte_SetDC(u8x8, 0);
 275:..\u8g2\csrc/u8x8_cad.c ****       data = (uint8_t *)arg_ptr;
 276:..\u8g2\csrc/u8x8_cad.c ****       while( arg_int > 0 )
 277:..\u8g2\csrc/u8x8_cad.c ****       {
 278:..\u8g2\csrc/u8x8_cad.c ****         u8x8_byte_StartTransfer(u8x8);
 279:..\u8g2\csrc/u8x8_cad.c ****         u8x8_byte_SendByte(u8x8, *data);
 280:..\u8g2\csrc/u8x8_cad.c ****         u8x8_byte_EndTransfer(u8x8);
 281:..\u8g2\csrc/u8x8_cad.c ****         data++;
 282:..\u8g2\csrc/u8x8_cad.c ****         arg_int--;
 283:..\u8g2\csrc/u8x8_cad.c ****       }
 284:..\u8g2\csrc/u8x8_cad.c ****       break;
 285:..\u8g2\csrc/u8x8_cad.c ****     case U8X8_MSG_CAD_INIT:
 286:..\u8g2\csrc/u8x8_cad.c ****       u8x8->byte_cb(u8x8, msg, arg_int, arg_ptr);
 287:..\u8g2\csrc/u8x8_cad.c ****       break;
 288:..\u8g2\csrc/u8x8_cad.c ****     case U8X8_MSG_CAD_START_TRANSFER:
 289:..\u8g2\csrc/u8x8_cad.c ****     case U8X8_MSG_CAD_END_TRANSFER:
 290:..\u8g2\csrc/u8x8_cad.c ****       break;
 291:..\u8g2\csrc/u8x8_cad.c ****     default:
 292:..\u8g2\csrc/u8x8_cad.c ****       return 0;
 293:..\u8g2\csrc/u8x8_cad.c ****   }
 294:..\u8g2\csrc/u8x8_cad.c ****   return 1;
 295:..\u8g2\csrc/u8x8_cad.c **** }
 296:..\u8g2\csrc/u8x8_cad.c **** 
 297:..\u8g2\csrc/u8x8_cad.c **** /*
 298:..\u8g2\csrc/u8x8_cad.c ****   convert to bytes by using 
 299:..\u8g2\csrc/u8x8_cad.c ****     dc = 1 for commands and args and
 300:..\u8g2\csrc/u8x8_cad.c ****     dc = 0 for data
 301:..\u8g2\csrc/u8x8_cad.c ****     t6963
 302:..\u8g2\csrc/u8x8_cad.c **** */
 303:..\u8g2\csrc/u8x8_cad.c **** uint8_t u8x8_cad_100(u8x8_t *u8x8, uint8_t msg, uint8_t arg_int, void *arg_ptr)
 304:..\u8g2\csrc/u8x8_cad.c **** {
 305:..\u8g2\csrc/u8x8_cad.c ****   switch(msg)
 306:..\u8g2\csrc/u8x8_cad.c ****   {
 307:..\u8g2\csrc/u8x8_cad.c ****     case U8X8_MSG_CAD_SEND_CMD:
 308:..\u8g2\csrc/u8x8_cad.c ****       u8x8_byte_SetDC(u8x8, 1);
 309:..\u8g2\csrc/u8x8_cad.c ****       u8x8_byte_SendByte(u8x8, arg_int);
 310:..\u8g2\csrc/u8x8_cad.c ****       break;
 311:..\u8g2\csrc/u8x8_cad.c ****     case U8X8_MSG_CAD_SEND_ARG:
 312:..\u8g2\csrc/u8x8_cad.c ****       u8x8_byte_SetDC(u8x8, 0);
 313:..\u8g2\csrc/u8x8_cad.c ****       u8x8_byte_SendByte(u8x8, arg_int);
 314:..\u8g2\csrc/u8x8_cad.c ****       break;
 315:..\u8g2\csrc/u8x8_cad.c ****     case U8X8_MSG_CAD_SEND_DATA:
 316:..\u8g2\csrc/u8x8_cad.c ****       u8x8_byte_SetDC(u8x8, 0);
ARM GAS  C:\Users\brian\AppData\Local\Temp\cclOaW4l.s 			page 7


 317:..\u8g2\csrc/u8x8_cad.c ****       //u8x8_byte_SendBytes(u8x8, arg_int, arg_ptr);
 318:..\u8g2\csrc/u8x8_cad.c ****       //break;
 319:..\u8g2\csrc/u8x8_cad.c ****       /* fall through */
 320:..\u8g2\csrc/u8x8_cad.c ****     case U8X8_MSG_CAD_INIT:
 321:..\u8g2\csrc/u8x8_cad.c ****     case U8X8_MSG_CAD_START_TRANSFER:
 322:..\u8g2\csrc/u8x8_cad.c ****     case U8X8_MSG_CAD_END_TRANSFER:
 323:..\u8g2\csrc/u8x8_cad.c ****       return u8x8->byte_cb(u8x8, msg, arg_int, arg_ptr);
 324:..\u8g2\csrc/u8x8_cad.c ****     default:
 325:..\u8g2\csrc/u8x8_cad.c ****       return 0;
 326:..\u8g2\csrc/u8x8_cad.c ****   }
 327:..\u8g2\csrc/u8x8_cad.c ****   return 1;
 328:..\u8g2\csrc/u8x8_cad.c **** }
 329:..\u8g2\csrc/u8x8_cad.c **** 
 330:..\u8g2\csrc/u8x8_cad.c **** /*
 331:..\u8g2\csrc/u8x8_cad.c ****   convert to bytes by using 
 332:..\u8g2\csrc/u8x8_cad.c ****     dc = 0 for commands and args and
 333:..\u8g2\csrc/u8x8_cad.c ****     dc = 1 for data
 334:..\u8g2\csrc/u8x8_cad.c **** */
 335:..\u8g2\csrc/u8x8_cad.c **** uint8_t u8x8_cad_001(u8x8_t *u8x8, uint8_t msg, uint8_t arg_int, void *arg_ptr)
 336:..\u8g2\csrc/u8x8_cad.c **** {
 337:..\u8g2\csrc/u8x8_cad.c ****   switch(msg)
 338:..\u8g2\csrc/u8x8_cad.c ****   {
 339:..\u8g2\csrc/u8x8_cad.c ****     case U8X8_MSG_CAD_SEND_CMD:
 340:..\u8g2\csrc/u8x8_cad.c ****       u8x8_byte_SetDC(u8x8, 0);
 341:..\u8g2\csrc/u8x8_cad.c ****       u8x8_byte_SendByte(u8x8, arg_int);
 342:..\u8g2\csrc/u8x8_cad.c ****       break;
 343:..\u8g2\csrc/u8x8_cad.c ****     case U8X8_MSG_CAD_SEND_ARG:
 344:..\u8g2\csrc/u8x8_cad.c ****       u8x8_byte_SetDC(u8x8, 0);
 345:..\u8g2\csrc/u8x8_cad.c ****       u8x8_byte_SendByte(u8x8, arg_int);
 346:..\u8g2\csrc/u8x8_cad.c ****       break;
 347:..\u8g2\csrc/u8x8_cad.c ****     case U8X8_MSG_CAD_SEND_DATA:
 348:..\u8g2\csrc/u8x8_cad.c ****       u8x8_byte_SetDC(u8x8, 1);
 349:..\u8g2\csrc/u8x8_cad.c ****       //u8x8_byte_SendBytes(u8x8, arg_int, arg_ptr);
 350:..\u8g2\csrc/u8x8_cad.c ****       //break;
 351:..\u8g2\csrc/u8x8_cad.c ****       /* fall through */
 352:..\u8g2\csrc/u8x8_cad.c ****     case U8X8_MSG_CAD_INIT:
 353:..\u8g2\csrc/u8x8_cad.c ****     case U8X8_MSG_CAD_START_TRANSFER:
 354:..\u8g2\csrc/u8x8_cad.c ****     case U8X8_MSG_CAD_END_TRANSFER:
 355:..\u8g2\csrc/u8x8_cad.c ****       return u8x8->byte_cb(u8x8, msg, arg_int, arg_ptr);
 356:..\u8g2\csrc/u8x8_cad.c ****     default:
 357:..\u8g2\csrc/u8x8_cad.c ****       return 0;
 358:..\u8g2\csrc/u8x8_cad.c ****   }
 359:..\u8g2\csrc/u8x8_cad.c ****   return 1;
 360:..\u8g2\csrc/u8x8_cad.c **** }
 361:..\u8g2\csrc/u8x8_cad.c **** 
 362:..\u8g2\csrc/u8x8_cad.c **** /*
 363:..\u8g2\csrc/u8x8_cad.c ****   convert to bytes by using 
 364:..\u8g2\csrc/u8x8_cad.c ****     dc = 0 for commands 
 365:..\u8g2\csrc/u8x8_cad.c ****     dc = 1 for args and data
 366:..\u8g2\csrc/u8x8_cad.c **** */
 367:..\u8g2\csrc/u8x8_cad.c **** uint8_t u8x8_cad_011(u8x8_t *u8x8, uint8_t msg, uint8_t arg_int, void *arg_ptr)
 368:..\u8g2\csrc/u8x8_cad.c **** {
 369:..\u8g2\csrc/u8x8_cad.c ****   switch(msg)
 370:..\u8g2\csrc/u8x8_cad.c ****   {
 371:..\u8g2\csrc/u8x8_cad.c ****     case U8X8_MSG_CAD_SEND_CMD:
 372:..\u8g2\csrc/u8x8_cad.c ****       u8x8_byte_SetDC(u8x8, 0);
 373:..\u8g2\csrc/u8x8_cad.c ****       u8x8_byte_SendByte(u8x8, arg_int);
ARM GAS  C:\Users\brian\AppData\Local\Temp\cclOaW4l.s 			page 8


 374:..\u8g2\csrc/u8x8_cad.c ****       break;
 375:..\u8g2\csrc/u8x8_cad.c ****     case U8X8_MSG_CAD_SEND_ARG:
 376:..\u8g2\csrc/u8x8_cad.c ****       u8x8_byte_SetDC(u8x8, 1);
 377:..\u8g2\csrc/u8x8_cad.c ****       u8x8_byte_SendByte(u8x8, arg_int);
 378:..\u8g2\csrc/u8x8_cad.c ****       break;
 379:..\u8g2\csrc/u8x8_cad.c ****     case U8X8_MSG_CAD_SEND_DATA:
 380:..\u8g2\csrc/u8x8_cad.c ****       u8x8_byte_SetDC(u8x8, 1);
 381:..\u8g2\csrc/u8x8_cad.c ****       //u8x8_byte_SendBytes(u8x8, arg_int, arg_ptr);
 382:..\u8g2\csrc/u8x8_cad.c ****       //break;
 383:..\u8g2\csrc/u8x8_cad.c ****       /* fall through */
 384:..\u8g2\csrc/u8x8_cad.c ****     case U8X8_MSG_CAD_INIT:
 385:..\u8g2\csrc/u8x8_cad.c ****     case U8X8_MSG_CAD_START_TRANSFER:
 386:..\u8g2\csrc/u8x8_cad.c ****     case U8X8_MSG_CAD_END_TRANSFER:
 387:..\u8g2\csrc/u8x8_cad.c ****       return u8x8->byte_cb(u8x8, msg, arg_int, arg_ptr);
 388:..\u8g2\csrc/u8x8_cad.c ****     default:
 389:..\u8g2\csrc/u8x8_cad.c ****       return 0;
 390:..\u8g2\csrc/u8x8_cad.c ****   }
 391:..\u8g2\csrc/u8x8_cad.c ****   return 1;
 392:..\u8g2\csrc/u8x8_cad.c **** }
 393:..\u8g2\csrc/u8x8_cad.c **** 
 394:..\u8g2\csrc/u8x8_cad.c **** /* cad procedure for the ST7920 in SPI mode */
 395:..\u8g2\csrc/u8x8_cad.c **** /* u8x8_byte_SetDC is not used */
 396:..\u8g2\csrc/u8x8_cad.c **** uint8_t u8x8_cad_st7920_spi(u8x8_t *u8x8, uint8_t msg, uint8_t arg_int, void *arg_ptr)
 397:..\u8g2\csrc/u8x8_cad.c **** {
 398:..\u8g2\csrc/u8x8_cad.c ****   uint8_t *data;
 399:..\u8g2\csrc/u8x8_cad.c ****   uint8_t b;
 400:..\u8g2\csrc/u8x8_cad.c ****   uint8_t i;
 401:..\u8g2\csrc/u8x8_cad.c ****   static uint8_t buf[16];
 402:..\u8g2\csrc/u8x8_cad.c ****   uint8_t *ptr;
 403:..\u8g2\csrc/u8x8_cad.c ****   
 404:..\u8g2\csrc/u8x8_cad.c ****   switch(msg)
 405:..\u8g2\csrc/u8x8_cad.c ****   {
 406:..\u8g2\csrc/u8x8_cad.c ****     case U8X8_MSG_CAD_SEND_CMD:
 407:..\u8g2\csrc/u8x8_cad.c ****       u8x8_byte_SendByte(u8x8, 0x0f8);
 408:..\u8g2\csrc/u8x8_cad.c ****       u8x8_gpio_Delay(u8x8, U8X8_MSG_DELAY_NANO, 1);
 409:..\u8g2\csrc/u8x8_cad.c ****       u8x8_byte_SendByte(u8x8, arg_int & 0x0f0);
 410:..\u8g2\csrc/u8x8_cad.c ****       u8x8_gpio_Delay(u8x8, U8X8_MSG_DELAY_NANO, 1);
 411:..\u8g2\csrc/u8x8_cad.c ****       u8x8_byte_SendByte(u8x8, arg_int << 4);
 412:..\u8g2\csrc/u8x8_cad.c ****       u8x8_gpio_Delay(u8x8, U8X8_MSG_DELAY_NANO, 1);
 413:..\u8g2\csrc/u8x8_cad.c ****       break;
 414:..\u8g2\csrc/u8x8_cad.c ****     case U8X8_MSG_CAD_SEND_ARG:
 415:..\u8g2\csrc/u8x8_cad.c ****       u8x8_byte_SendByte(u8x8, 0x0f8);
 416:..\u8g2\csrc/u8x8_cad.c ****       u8x8_byte_SendByte(u8x8, arg_int & 0x0f0);
 417:..\u8g2\csrc/u8x8_cad.c ****       u8x8_byte_SendByte(u8x8, arg_int << 4);
 418:..\u8g2\csrc/u8x8_cad.c ****       break;
 419:..\u8g2\csrc/u8x8_cad.c ****     case U8X8_MSG_CAD_SEND_DATA:
 420:..\u8g2\csrc/u8x8_cad.c ****     
 421:..\u8g2\csrc/u8x8_cad.c ****       u8x8_byte_SendByte(u8x8, 0x0fa);
 422:..\u8g2\csrc/u8x8_cad.c ****       u8x8_gpio_Delay(u8x8, U8X8_MSG_DELAY_NANO, 1);
 423:..\u8g2\csrc/u8x8_cad.c **** 
 424:..\u8g2\csrc/u8x8_cad.c ****       /* this loop should be optimized: multiple bytes should be sent */
 425:..\u8g2\csrc/u8x8_cad.c ****       /* u8x8_byte_SendBytes(u8x8, arg_int, arg_ptr); */
 426:..\u8g2\csrc/u8x8_cad.c ****       data = (uint8_t *)arg_ptr;
 427:..\u8g2\csrc/u8x8_cad.c ****     
 428:..\u8g2\csrc/u8x8_cad.c ****       /* the following loop increases speed by 20% */
 429:..\u8g2\csrc/u8x8_cad.c ****       while( arg_int >= 8 )
 430:..\u8g2\csrc/u8x8_cad.c ****       {
ARM GAS  C:\Users\brian\AppData\Local\Temp\cclOaW4l.s 			page 9


 431:..\u8g2\csrc/u8x8_cad.c **** 	i = 8;
 432:..\u8g2\csrc/u8x8_cad.c **** 	ptr = buf;
 433:..\u8g2\csrc/u8x8_cad.c **** 	do
 434:..\u8g2\csrc/u8x8_cad.c **** 	{
 435:..\u8g2\csrc/u8x8_cad.c **** 	  b = *data++;
 436:..\u8g2\csrc/u8x8_cad.c **** 	  *ptr++= b & 0x0f0;
 437:..\u8g2\csrc/u8x8_cad.c **** 	  b <<= 4;
 438:..\u8g2\csrc/u8x8_cad.c **** 	  *ptr++= b;
 439:..\u8g2\csrc/u8x8_cad.c **** 	  i--;
 440:..\u8g2\csrc/u8x8_cad.c **** 	} while( i > 0 );
 441:..\u8g2\csrc/u8x8_cad.c **** 	arg_int -= 8;
 442:..\u8g2\csrc/u8x8_cad.c **** 	u8x8_byte_SendBytes(u8x8, 16, buf); 
 443:..\u8g2\csrc/u8x8_cad.c ****       }
 444:..\u8g2\csrc/u8x8_cad.c ****       
 445:..\u8g2\csrc/u8x8_cad.c ****     
 446:..\u8g2\csrc/u8x8_cad.c ****       while( arg_int > 0 )
 447:..\u8g2\csrc/u8x8_cad.c ****       {
 448:..\u8g2\csrc/u8x8_cad.c **** 	b = *data;
 449:..\u8g2\csrc/u8x8_cad.c **** 	u8x8_byte_SendByte(u8x8, b & 0x0f0);
 450:..\u8g2\csrc/u8x8_cad.c **** 	u8x8_byte_SendByte(u8x8, b << 4);
 451:..\u8g2\csrc/u8x8_cad.c **** 	data++;
 452:..\u8g2\csrc/u8x8_cad.c **** 	arg_int--;
 453:..\u8g2\csrc/u8x8_cad.c ****       }
 454:..\u8g2\csrc/u8x8_cad.c ****       u8x8_gpio_Delay(u8x8, U8X8_MSG_DELAY_NANO, 1);
 455:..\u8g2\csrc/u8x8_cad.c ****       break;
 456:..\u8g2\csrc/u8x8_cad.c ****     case U8X8_MSG_CAD_INIT:
 457:..\u8g2\csrc/u8x8_cad.c ****     case U8X8_MSG_CAD_START_TRANSFER:
 458:..\u8g2\csrc/u8x8_cad.c ****     case U8X8_MSG_CAD_END_TRANSFER:
 459:..\u8g2\csrc/u8x8_cad.c ****       return u8x8->byte_cb(u8x8, msg, arg_int, arg_ptr);
 460:..\u8g2\csrc/u8x8_cad.c ****     default:
 461:..\u8g2\csrc/u8x8_cad.c ****       return 0;
 462:..\u8g2\csrc/u8x8_cad.c ****   }
 463:..\u8g2\csrc/u8x8_cad.c ****   return 1;
 464:..\u8g2\csrc/u8x8_cad.c **** }
 465:..\u8g2\csrc/u8x8_cad.c **** 
 466:..\u8g2\csrc/u8x8_cad.c **** 
 467:..\u8g2\csrc/u8x8_cad.c **** /* cad procedure for the SSD13xx family in I2C mode */
 468:..\u8g2\csrc/u8x8_cad.c **** /* this procedure is also used by the ST7588 */
 469:..\u8g2\csrc/u8x8_cad.c **** /* u8x8_byte_SetDC is not used */
 470:..\u8g2\csrc/u8x8_cad.c **** /* U8X8_MSG_BYTE_START_TRANSFER starts i2c transfer, U8X8_MSG_BYTE_END_TRANSFER stops transfer */
 471:..\u8g2\csrc/u8x8_cad.c **** /* After transfer start, a full byte indicates command or data mode */
 472:..\u8g2\csrc/u8x8_cad.c **** 
 473:..\u8g2\csrc/u8x8_cad.c **** static void u8x8_i2c_data_transfer(u8x8_t *u8x8, uint8_t arg_int, void *arg_ptr) U8X8_NOINLINE;
 474:..\u8g2\csrc/u8x8_cad.c **** static void u8x8_i2c_data_transfer(u8x8_t *u8x8, uint8_t arg_int, void *arg_ptr)
 475:..\u8g2\csrc/u8x8_cad.c **** {
  27              		.loc 1 475 0
  28              		.cfi_startproc
  29              		@ args = 0, pretend = 0, frame = 0
  30              		@ frame_needed = 0, uses_anonymous_args = 0
  31              	.LVL0:
  32 0000 F8B5     		push	{r3, r4, r5, r6, r7, lr}
  33              		.cfi_def_cfa_offset 24
  34              		.cfi_offset 3, -24
  35              		.cfi_offset 4, -20
  36              		.cfi_offset 5, -16
  37              		.cfi_offset 6, -12
  38              		.cfi_offset 7, -8
ARM GAS  C:\Users\brian\AppData\Local\Temp\cclOaW4l.s 			page 10


  39              		.cfi_offset 14, -4
  40 0002 0446     		mov	r4, r0
  41 0004 0E46     		mov	r6, r1
  42 0006 1746     		mov	r7, r2
 476:..\u8g2\csrc/u8x8_cad.c ****     u8x8_byte_StartTransfer(u8x8);    
  43              		.loc 1 476 0
  44 0008 FFF7FEFF 		bl	u8x8_byte_StartTransfer
  45              	.LVL1:
 477:..\u8g2\csrc/u8x8_cad.c ****     u8x8_byte_SendByte(u8x8, 0x040);
  46              		.loc 1 477 0
  47 000c 4021     		movs	r1, #64
  48 000e 2046     		mov	r0, r4
  49 0010 FFF7FEFF 		bl	u8x8_byte_SendByte
  50              	.LVL2:
 478:..\u8g2\csrc/u8x8_cad.c ****     u8x8->byte_cb(u8x8, U8X8_MSG_CAD_SEND_DATA, arg_int, arg_ptr);
  51              		.loc 1 478 0
  52 0014 2569     		ldr	r5, [r4, #16]
  53 0016 3B46     		mov	r3, r7
  54 0018 3246     		mov	r2, r6
  55 001a 1721     		movs	r1, #23
  56 001c 2046     		mov	r0, r4
  57 001e A847     		blx	r5
  58              	.LVL3:
 479:..\u8g2\csrc/u8x8_cad.c ****     u8x8_byte_EndTransfer(u8x8);
  59              		.loc 1 479 0
  60 0020 2046     		mov	r0, r4
  61 0022 FFF7FEFF 		bl	u8x8_byte_EndTransfer
  62              	.LVL4:
  63 0026 F8BD     		pop	{r3, r4, r5, r6, r7, pc}
  64              		.cfi_endproc
  65              	.LFE16:
  66              		.size	u8x8_i2c_data_transfer, .-u8x8_i2c_data_transfer
  67              		.section	.text.u8x8_cad_SendCmd,"ax",%progbits
  68              		.align	2
  69              		.global	u8x8_cad_SendCmd
  70              		.thumb
  71              		.thumb_func
  72              		.type	u8x8_cad_SendCmd, %function
  73              	u8x8_cad_SendCmd:
  74              	.LFB0:
  89:..\u8g2\csrc/u8x8_cad.c ****   return u8x8->cad_cb(u8x8, U8X8_MSG_CAD_SEND_CMD, cmd, NULL);
  75              		.loc 1 89 0
  76              		.cfi_startproc
  77              		@ args = 0, pretend = 0, frame = 0
  78              		@ frame_needed = 0, uses_anonymous_args = 0
  79              	.LVL5:
  80 0000 10B5     		push	{r4, lr}
  81              		.cfi_def_cfa_offset 8
  82              		.cfi_offset 4, -8
  83              		.cfi_offset 14, -4
  90:..\u8g2\csrc/u8x8_cad.c **** }
  84              		.loc 1 90 0
  85 0002 C468     		ldr	r4, [r0, #12]
  86 0004 0023     		movs	r3, #0
  87 0006 0A46     		mov	r2, r1
  88 0008 1521     		movs	r1, #21
  89              	.LVL6:
ARM GAS  C:\Users\brian\AppData\Local\Temp\cclOaW4l.s 			page 11


  90 000a A047     		blx	r4
  91              	.LVL7:
  91:..\u8g2\csrc/u8x8_cad.c **** 
  92              		.loc 1 91 0
  93 000c 10BD     		pop	{r4, pc}
  94              		.cfi_endproc
  95              	.LFE0:
  96              		.size	u8x8_cad_SendCmd, .-u8x8_cad_SendCmd
  97 000e 00BF     		.section	.text.u8x8_cad_SendArg,"ax",%progbits
  98              		.align	2
  99              		.global	u8x8_cad_SendArg
 100              		.thumb
 101              		.thumb_func
 102              		.type	u8x8_cad_SendArg, %function
 103              	u8x8_cad_SendArg:
 104              	.LFB1:
  94:..\u8g2\csrc/u8x8_cad.c ****   return u8x8->cad_cb(u8x8, U8X8_MSG_CAD_SEND_ARG, arg, NULL);
 105              		.loc 1 94 0
 106              		.cfi_startproc
 107              		@ args = 0, pretend = 0, frame = 0
 108              		@ frame_needed = 0, uses_anonymous_args = 0
 109              	.LVL8:
 110 0000 10B5     		push	{r4, lr}
 111              		.cfi_def_cfa_offset 8
 112              		.cfi_offset 4, -8
 113              		.cfi_offset 14, -4
  95:..\u8g2\csrc/u8x8_cad.c **** }
 114              		.loc 1 95 0
 115 0002 C468     		ldr	r4, [r0, #12]
 116 0004 0023     		movs	r3, #0
 117 0006 0A46     		mov	r2, r1
 118 0008 1621     		movs	r1, #22
 119              	.LVL9:
 120 000a A047     		blx	r4
 121              	.LVL10:
  96:..\u8g2\csrc/u8x8_cad.c **** 
 122              		.loc 1 96 0
 123 000c 10BD     		pop	{r4, pc}
 124              		.cfi_endproc
 125              	.LFE1:
 126              		.size	u8x8_cad_SendArg, .-u8x8_cad_SendArg
 127 000e 00BF     		.section	.text.u8x8_cad_SendMultipleArg,"ax",%progbits
 128              		.align	2
 129              		.global	u8x8_cad_SendMultipleArg
 130              		.thumb
 131              		.thumb_func
 132              		.type	u8x8_cad_SendMultipleArg, %function
 133              	u8x8_cad_SendMultipleArg:
 134              	.LFB2:
  99:..\u8g2\csrc/u8x8_cad.c ****   while( cnt > 0 )
 135              		.loc 1 99 0
 136              		.cfi_startproc
 137              		@ args = 0, pretend = 0, frame = 0
 138              		@ frame_needed = 0, uses_anonymous_args = 0
 139              	.LVL11:
 140 0000 F8B5     		push	{r3, r4, r5, r6, r7, lr}
 141              		.cfi_def_cfa_offset 24
ARM GAS  C:\Users\brian\AppData\Local\Temp\cclOaW4l.s 			page 12


 142              		.cfi_offset 3, -24
 143              		.cfi_offset 4, -20
 144              		.cfi_offset 5, -16
 145              		.cfi_offset 6, -12
 146              		.cfi_offset 7, -8
 147              		.cfi_offset 14, -4
 148 0002 0546     		mov	r5, r0
 149 0004 0C46     		mov	r4, r1
 150 0006 1746     		mov	r7, r2
 100:..\u8g2\csrc/u8x8_cad.c ****   {
 151              		.loc 1 100 0
 152 0008 07E0     		b	.L8
 153              	.LVL12:
 154              	.L9:
 102:..\u8g2\csrc/u8x8_cad.c ****     cnt--;
 155              		.loc 1 102 0
 156 000a EE68     		ldr	r6, [r5, #12]
 157 000c 0023     		movs	r3, #0
 158 000e 3A46     		mov	r2, r7
 159 0010 1621     		movs	r1, #22
 160 0012 2846     		mov	r0, r5
 161 0014 B047     		blx	r6
 162              	.LVL13:
 103:..\u8g2\csrc/u8x8_cad.c ****   }
 163              		.loc 1 103 0
 164 0016 013C     		subs	r4, r4, #1
 165              	.LVL14:
 166 0018 E4B2     		uxtb	r4, r4
 167              	.LVL15:
 168              	.L8:
 100:..\u8g2\csrc/u8x8_cad.c ****   {
 169              		.loc 1 100 0
 170 001a 002C     		cmp	r4, #0
 171 001c F5D1     		bne	.L9
 106:..\u8g2\csrc/u8x8_cad.c **** 
 172              		.loc 1 106 0
 173 001e 0120     		movs	r0, #1
 174 0020 F8BD     		pop	{r3, r4, r5, r6, r7, pc}
 175              		.cfi_endproc
 176              	.LFE2:
 177              		.size	u8x8_cad_SendMultipleArg, .-u8x8_cad_SendMultipleArg
 178 0022 00BF     		.section	.text.u8x8_cad_SendData,"ax",%progbits
 179              		.align	2
 180              		.global	u8x8_cad_SendData
 181              		.thumb
 182              		.thumb_func
 183              		.type	u8x8_cad_SendData, %function
 184              	u8x8_cad_SendData:
 185              	.LFB3:
 109:..\u8g2\csrc/u8x8_cad.c ****   return u8x8->cad_cb(u8x8, U8X8_MSG_CAD_SEND_DATA, cnt, data);
 186              		.loc 1 109 0
 187              		.cfi_startproc
 188              		@ args = 0, pretend = 0, frame = 0
 189              		@ frame_needed = 0, uses_anonymous_args = 0
 190              	.LVL16:
 191 0000 10B5     		push	{r4, lr}
 192              		.cfi_def_cfa_offset 8
ARM GAS  C:\Users\brian\AppData\Local\Temp\cclOaW4l.s 			page 13


 193              		.cfi_offset 4, -8
 194              		.cfi_offset 14, -4
 110:..\u8g2\csrc/u8x8_cad.c **** }
 195              		.loc 1 110 0
 196 0002 C468     		ldr	r4, [r0, #12]
 197 0004 1346     		mov	r3, r2
 198 0006 0A46     		mov	r2, r1
 199              	.LVL17:
 200 0008 1721     		movs	r1, #23
 201              	.LVL18:
 202 000a A047     		blx	r4
 203              	.LVL19:
 111:..\u8g2\csrc/u8x8_cad.c **** 
 204              		.loc 1 111 0
 205 000c 10BD     		pop	{r4, pc}
 206              		.cfi_endproc
 207              	.LFE3:
 208              		.size	u8x8_cad_SendData, .-u8x8_cad_SendData
 209 000e 00BF     		.section	.text.u8x8_cad_StartTransfer,"ax",%progbits
 210              		.align	2
 211              		.global	u8x8_cad_StartTransfer
 212              		.thumb
 213              		.thumb_func
 214              		.type	u8x8_cad_StartTransfer, %function
 215              	u8x8_cad_StartTransfer:
 216              	.LFB4:
 114:..\u8g2\csrc/u8x8_cad.c ****   return u8x8->cad_cb(u8x8, U8X8_MSG_CAD_START_TRANSFER, 0, NULL);
 217              		.loc 1 114 0
 218              		.cfi_startproc
 219              		@ args = 0, pretend = 0, frame = 0
 220              		@ frame_needed = 0, uses_anonymous_args = 0
 221              	.LVL20:
 222 0000 10B5     		push	{r4, lr}
 223              		.cfi_def_cfa_offset 8
 224              		.cfi_offset 4, -8
 225              		.cfi_offset 14, -4
 115:..\u8g2\csrc/u8x8_cad.c **** }
 226              		.loc 1 115 0
 227 0002 C468     		ldr	r4, [r0, #12]
 228 0004 0023     		movs	r3, #0
 229 0006 1A46     		mov	r2, r3
 230 0008 1821     		movs	r1, #24
 231 000a A047     		blx	r4
 232              	.LVL21:
 116:..\u8g2\csrc/u8x8_cad.c **** 
 233              		.loc 1 116 0
 234 000c 10BD     		pop	{r4, pc}
 235              		.cfi_endproc
 236              	.LFE4:
 237              		.size	u8x8_cad_StartTransfer, .-u8x8_cad_StartTransfer
 238 000e 00BF     		.section	.text.u8x8_cad_EndTransfer,"ax",%progbits
 239              		.align	2
 240              		.global	u8x8_cad_EndTransfer
 241              		.thumb
 242              		.thumb_func
 243              		.type	u8x8_cad_EndTransfer, %function
 244              	u8x8_cad_EndTransfer:
ARM GAS  C:\Users\brian\AppData\Local\Temp\cclOaW4l.s 			page 14


 245              	.LFB5:
 119:..\u8g2\csrc/u8x8_cad.c ****   return u8x8->cad_cb(u8x8, U8X8_MSG_CAD_END_TRANSFER, 0, NULL);
 246              		.loc 1 119 0
 247              		.cfi_startproc
 248              		@ args = 0, pretend = 0, frame = 0
 249              		@ frame_needed = 0, uses_anonymous_args = 0
 250              	.LVL22:
 251 0000 10B5     		push	{r4, lr}
 252              		.cfi_def_cfa_offset 8
 253              		.cfi_offset 4, -8
 254              		.cfi_offset 14, -4
 120:..\u8g2\csrc/u8x8_cad.c **** }
 255              		.loc 1 120 0
 256 0002 C468     		ldr	r4, [r0, #12]
 257 0004 0023     		movs	r3, #0
 258 0006 1A46     		mov	r2, r3
 259 0008 1921     		movs	r1, #25
 260 000a A047     		blx	r4
 261              	.LVL23:
 121:..\u8g2\csrc/u8x8_cad.c **** 
 262              		.loc 1 121 0
 263 000c 10BD     		pop	{r4, pc}
 264              		.cfi_endproc
 265              	.LFE5:
 266              		.size	u8x8_cad_EndTransfer, .-u8x8_cad_EndTransfer
 267 000e 00BF     		.section	.text.u8x8_cad_vsendf,"ax",%progbits
 268              		.align	2
 269              		.global	u8x8_cad_vsendf
 270              		.thumb
 271              		.thumb_func
 272              		.type	u8x8_cad_vsendf, %function
 273              	u8x8_cad_vsendf:
 274              	.LFB6:
 124:..\u8g2\csrc/u8x8_cad.c ****   uint8_t d;
 275              		.loc 1 124 0
 276              		.cfi_startproc
 277              		@ args = 0, pretend = 0, frame = 8
 278              		@ frame_needed = 0, uses_anonymous_args = 0
 279              	.LVL24:
 280 0000 70B5     		push	{r4, r5, r6, lr}
 281              		.cfi_def_cfa_offset 16
 282              		.cfi_offset 4, -16
 283              		.cfi_offset 5, -12
 284              		.cfi_offset 6, -8
 285              		.cfi_offset 14, -4
 286 0002 82B0     		sub	sp, sp, #8
 287              		.cfi_def_cfa_offset 24
 288 0004 0646     		mov	r6, r0
 289 0006 0C46     		mov	r4, r1
 290 0008 1546     		mov	r5, r2
 126:..\u8g2\csrc/u8x8_cad.c ****   while( *fmt != '\0' )
 291              		.loc 1 126 0
 292 000a FFF7FEFF 		bl	u8x8_cad_StartTransfer
 293              	.LVL25:
 127:..\u8g2\csrc/u8x8_cad.c ****   {
 294              		.loc 1 127 0
 295 000e 19E0     		b	.L18
ARM GAS  C:\Users\brian\AppData\Local\Temp\cclOaW4l.s 			page 15


 296              	.L23:
 129:..\u8g2\csrc/u8x8_cad.c ****     switch(*fmt)
 297              		.loc 1 129 0
 298 0010 2978     		ldrb	r1, [r5]	@ zero_extendqisi2
 299              	.LVL26:
 300 0012 0435     		adds	r5, r5, #4
 301              	.LVL27:
 302 0014 8DF80710 		strb	r1, [sp, #7]
 130:..\u8g2\csrc/u8x8_cad.c ****     {
 303              		.loc 1 130 0
 304 0018 2378     		ldrb	r3, [r4]	@ zero_extendqisi2
 305 001a 632B     		cmp	r3, #99
 306 001c 07D0     		beq	.L20
 307 001e 642B     		cmp	r3, #100
 308 0020 09D0     		beq	.L21
 309 0022 612B     		cmp	r3, #97
 310 0024 0DD1     		bne	.L19
 132:..\u8g2\csrc/u8x8_cad.c ****       case 'c':  u8x8_cad_SendCmd(u8x8, d); break;
 311              		.loc 1 132 0
 312 0026 3046     		mov	r0, r6
 313 0028 FFF7FEFF 		bl	u8x8_cad_SendArg
 314              	.LVL28:
 315 002c 09E0     		b	.L19
 316              	.L20:
 133:..\u8g2\csrc/u8x8_cad.c ****       case 'd':  u8x8_cad_SendData(u8x8, 1, &d); break;
 317              		.loc 1 133 0
 318 002e 3046     		mov	r0, r6
 319 0030 FFF7FEFF 		bl	u8x8_cad_SendCmd
 320              	.LVL29:
 321 0034 05E0     		b	.L19
 322              	.L21:
 134:..\u8g2\csrc/u8x8_cad.c ****     }
 323              		.loc 1 134 0
 324 0036 0DF10702 		add	r2, sp, #7
 325 003a 0121     		movs	r1, #1
 326 003c 3046     		mov	r0, r6
 327 003e FFF7FEFF 		bl	u8x8_cad_SendData
 328              	.LVL30:
 329              	.L19:
 136:..\u8g2\csrc/u8x8_cad.c ****   }
 330              		.loc 1 136 0
 331 0042 0134     		adds	r4, r4, #1
 332              	.LVL31:
 333              	.L18:
 127:..\u8g2\csrc/u8x8_cad.c ****   {
 334              		.loc 1 127 0
 335 0044 2378     		ldrb	r3, [r4]	@ zero_extendqisi2
 336 0046 002B     		cmp	r3, #0
 337 0048 E2D1     		bne	.L23
 138:..\u8g2\csrc/u8x8_cad.c **** }
 338              		.loc 1 138 0
 339 004a 3046     		mov	r0, r6
 340 004c FFF7FEFF 		bl	u8x8_cad_EndTransfer
 341              	.LVL32:
 139:..\u8g2\csrc/u8x8_cad.c **** 
 342              		.loc 1 139 0
 343 0050 02B0     		add	sp, sp, #8
ARM GAS  C:\Users\brian\AppData\Local\Temp\cclOaW4l.s 			page 16


 344              		.cfi_def_cfa_offset 16
 345              		@ sp needed
 346 0052 70BD     		pop	{r4, r5, r6, pc}
 347              		.cfi_endproc
 348              	.LFE6:
 349              		.size	u8x8_cad_vsendf, .-u8x8_cad_vsendf
 350              		.section	.text.u8x8_SendF,"ax",%progbits
 351              		.align	2
 352              		.global	u8x8_SendF
 353              		.thumb
 354              		.thumb_func
 355              		.type	u8x8_SendF, %function
 356              	u8x8_SendF:
 357              	.LFB7:
 142:..\u8g2\csrc/u8x8_cad.c ****   va_list va;
 358              		.loc 1 142 0
 359              		.cfi_startproc
 360              		@ args = 4, pretend = 12, frame = 8
 361              		@ frame_needed = 0, uses_anonymous_args = 1
 362              	.LVL33:
 363 0000 0EB4     		push	{r1, r2, r3}
 364              		.cfi_def_cfa_offset 12
 365              		.cfi_offset 1, -12
 366              		.cfi_offset 2, -8
 367              		.cfi_offset 3, -4
 368 0002 00B5     		push	{lr}
 369              		.cfi_def_cfa_offset 16
 370              		.cfi_offset 14, -16
 371 0004 82B0     		sub	sp, sp, #8
 372              		.cfi_def_cfa_offset 24
 373 0006 03AA     		add	r2, sp, #12
 374 0008 52F8041B 		ldr	r1, [r2], #4
 144:..\u8g2\csrc/u8x8_cad.c ****   u8x8_cad_vsendf(u8x8, fmt, va);
 375              		.loc 1 144 0
 376 000c 0192     		str	r2, [sp, #4]
 145:..\u8g2\csrc/u8x8_cad.c ****   va_end(va);
 377              		.loc 1 145 0
 378 000e FFF7FEFF 		bl	u8x8_cad_vsendf
 379              	.LVL34:
 147:..\u8g2\csrc/u8x8_cad.c **** 
 380              		.loc 1 147 0
 381 0012 02B0     		add	sp, sp, #8
 382              		.cfi_def_cfa_offset 16
 383              		@ sp needed
 384 0014 5DF804EB 		ldr	lr, [sp], #4
 385              		.cfi_restore 14
 386              		.cfi_def_cfa_offset 12
 387 0018 03B0     		add	sp, sp, #12
 388              		.cfi_restore 3
 389              		.cfi_restore 2
 390              		.cfi_restore 1
 391              		.cfi_def_cfa_offset 0
 392 001a 7047     		bx	lr
 393              		.cfi_endproc
 394              	.LFE7:
 395              		.size	u8x8_SendF, .-u8x8_SendF
 396              		.section	.text.u8x8_cad_SendSequence,"ax",%progbits
ARM GAS  C:\Users\brian\AppData\Local\Temp\cclOaW4l.s 			page 17


 397              		.align	2
 398              		.global	u8x8_cad_SendSequence
 399              		.thumb
 400              		.thumb_func
 401              		.type	u8x8_cad_SendSequence, %function
 402              	u8x8_cad_SendSequence:
 403              	.LFB8:
 160:..\u8g2\csrc/u8x8_cad.c ****   uint8_t cmd;
 404              		.loc 1 160 0
 405              		.cfi_startproc
 406              		@ args = 0, pretend = 0, frame = 8
 407              		@ frame_needed = 0, uses_anonymous_args = 0
 408              	.LVL35:
 409 0000 70B5     		push	{r4, r5, r6, lr}
 410              		.cfi_def_cfa_offset 16
 411              		.cfi_offset 4, -16
 412              		.cfi_offset 5, -12
 413              		.cfi_offset 6, -8
 414              		.cfi_offset 14, -4
 415 0002 82B0     		sub	sp, sp, #8
 416              		.cfi_def_cfa_offset 24
 417 0004 0546     		mov	r5, r0
 418 0006 0C46     		mov	r4, r1
 419              	.LVL36:
 420              	.L28:
 166:..\u8g2\csrc/u8x8_cad.c ****     data++;
 421              		.loc 1 166 0
 422 0008 14F8011B 		ldrb	r1, [r4], #1	@ zero_extendqisi2
 423              	.LVL37:
 168:..\u8g2\csrc/u8x8_cad.c ****     {
 424              		.loc 1 168 0
 425 000c 1729     		cmp	r1, #23
 426 000e 11D0     		beq	.L30
 427 0010 02D8     		bhi	.L31
 428 0012 1529     		cmp	r1, #21
 429 0014 05D2     		bcs	.L36
 430 0016 26E0     		b	.L27
 431              	.L31:
 432 0018 1929     		cmp	r1, #25
 433 001a 15D9     		bls	.L33
 434 001c FE29     		cmp	r1, #254
 435 001e 19D0     		beq	.L34
 436 0020 21E0     		b	.L27
 437              	.L36:
 172:..\u8g2\csrc/u8x8_cad.c **** 	  u8x8->cad_cb(u8x8, cmd, v, NULL);
 438              		.loc 1 172 0
 439 0022 14F8012B 		ldrb	r2, [r4], #1	@ zero_extendqisi2
 440              	.LVL38:
 441 0026 8DF80720 		strb	r2, [sp, #7]
 173:..\u8g2\csrc/u8x8_cad.c **** 	  data++;
 442              		.loc 1 173 0
 443 002a EE68     		ldr	r6, [r5, #12]
 444 002c 0023     		movs	r3, #0
 445 002e 2846     		mov	r0, r5
 446 0030 B047     		blx	r6
 447              	.LVL39:
 175:..\u8g2\csrc/u8x8_cad.c ****       case U8X8_MSG_CAD_SEND_DATA:
ARM GAS  C:\Users\brian\AppData\Local\Temp\cclOaW4l.s 			page 18


 448              		.loc 1 175 0
 449 0032 E9E7     		b	.L28
 450              	.LVL40:
 451              	.L30:
 177:..\u8g2\csrc/u8x8_cad.c **** 	  u8x8_cad_SendData(u8x8, 1, &v);
 452              		.loc 1 177 0
 453 0034 14F8013B 		ldrb	r3, [r4], #1	@ zero_extendqisi2
 454              	.LVL41:
 455 0038 02AA     		add	r2, sp, #8
 456 003a 02F8013D 		strb	r3, [r2, #-1]!
 178:..\u8g2\csrc/u8x8_cad.c **** 	  data++;
 457              		.loc 1 178 0
 458 003e 0121     		movs	r1, #1
 459              	.LVL42:
 460 0040 2846     		mov	r0, r5
 461 0042 FFF7FEFF 		bl	u8x8_cad_SendData
 462              	.LVL43:
 180:..\u8g2\csrc/u8x8_cad.c ****       case U8X8_MSG_CAD_START_TRANSFER:
 463              		.loc 1 180 0
 464 0046 DFE7     		b	.L28
 465              	.LVL44:
 466              	.L33:
 183:..\u8g2\csrc/u8x8_cad.c **** 	  break;
 467              		.loc 1 183 0
 468 0048 EE68     		ldr	r6, [r5, #12]
 469 004a 0023     		movs	r3, #0
 470 004c 1A46     		mov	r2, r3
 471 004e 2846     		mov	r0, r5
 472 0050 B047     		blx	r6
 473              	.LVL45:
 184:..\u8g2\csrc/u8x8_cad.c ****       case 0x0fe:
 474              		.loc 1 184 0
 475 0052 D9E7     		b	.L28
 476              	.LVL46:
 477              	.L34:
 186:..\u8g2\csrc/u8x8_cad.c **** 	  u8x8_gpio_Delay(u8x8, U8X8_MSG_DELAY_MILLI, v);	    
 478              		.loc 1 186 0
 479 0054 14F8012B 		ldrb	r2, [r4], #1	@ zero_extendqisi2
 480              	.LVL47:
 481 0058 8DF80720 		strb	r2, [sp, #7]
 187:..\u8g2\csrc/u8x8_cad.c **** 	  data++;
 482              		.loc 1 187 0
 483 005c 2921     		movs	r1, #41
 484              	.LVL48:
 485 005e 2846     		mov	r0, r5
 486 0060 FFF7FEFF 		bl	u8x8_gpio_call
 487              	.LVL49:
 189:..\u8g2\csrc/u8x8_cad.c ****       default:
 488              		.loc 1 189 0
 489 0064 D0E7     		b	.L28
 490              	.LVL50:
 491              	.L27:
 194:..\u8g2\csrc/u8x8_cad.c **** 
 492              		.loc 1 194 0
 493 0066 02B0     		add	sp, sp, #8
 494              		.cfi_def_cfa_offset 16
 495              		@ sp needed
ARM GAS  C:\Users\brian\AppData\Local\Temp\cclOaW4l.s 			page 19


 496 0068 70BD     		pop	{r4, r5, r6, pc}
 497              		.cfi_endproc
 498              	.LFE8:
 499              		.size	u8x8_cad_SendSequence, .-u8x8_cad_SendSequence
 500 006a 00BF     		.section	.text.u8x8_cad_empty,"ax",%progbits
 501              		.align	2
 502              		.global	u8x8_cad_empty
 503              		.thumb
 504              		.thumb_func
 505              		.type	u8x8_cad_empty, %function
 506              	u8x8_cad_empty:
 507              	.LFB9:
 198:..\u8g2\csrc/u8x8_cad.c ****   switch(msg)
 508              		.loc 1 198 0
 509              		.cfi_startproc
 510              		@ args = 0, pretend = 0, frame = 0
 511              		@ frame_needed = 0, uses_anonymous_args = 0
 512              	.LVL51:
 513 0000 10B5     		push	{r4, lr}
 514              		.cfi_def_cfa_offset 8
 515              		.cfi_offset 4, -8
 516              		.cfi_offset 14, -4
 199:..\u8g2\csrc/u8x8_cad.c ****   {
 517              		.loc 1 199 0
 518 0002 A1F11404 		sub	r4, r1, #20
 519 0006 052C     		cmp	r4, #5
 520 0008 11D8     		bhi	.L44
 521 000a DFE804F0 		tbb	[pc, r4]
 522              	.L41:
 523 000e 0D       		.byte	(.L40-.L41)/2
 524 000f 03       		.byte	(.L42-.L41)/2
 525 0010 08       		.byte	(.L43-.L41)/2
 526 0011 0D       		.byte	(.L40-.L41)/2
 527 0012 0D       		.byte	(.L40-.L41)/2
 528 0013 0D       		.byte	(.L40-.L41)/2
 529              		.p2align 1
 530              	.L42:
 202:..\u8g2\csrc/u8x8_cad.c ****       break;
 531              		.loc 1 202 0
 532 0014 1146     		mov	r1, r2
 533              	.LVL52:
 534 0016 FFF7FEFF 		bl	u8x8_byte_SendByte
 535              	.LVL53:
 215:..\u8g2\csrc/u8x8_cad.c **** }
 536              		.loc 1 215 0
 537 001a 0120     		movs	r0, #1
 203:..\u8g2\csrc/u8x8_cad.c ****     case U8X8_MSG_CAD_SEND_ARG:
 538              		.loc 1 203 0
 539 001c 10BD     		pop	{r4, pc}
 540              	.LVL54:
 541              	.L43:
 205:..\u8g2\csrc/u8x8_cad.c ****       break;
 542              		.loc 1 205 0
 543 001e 1146     		mov	r1, r2
 544              	.LVL55:
 545 0020 FFF7FEFF 		bl	u8x8_byte_SendByte
 546              	.LVL56:
ARM GAS  C:\Users\brian\AppData\Local\Temp\cclOaW4l.s 			page 20


 215:..\u8g2\csrc/u8x8_cad.c **** }
 547              		.loc 1 215 0
 548 0024 0120     		movs	r0, #1
 206:..\u8g2\csrc/u8x8_cad.c ****     case U8X8_MSG_CAD_SEND_DATA:
 549              		.loc 1 206 0
 550 0026 10BD     		pop	{r4, pc}
 551              	.LVL57:
 552              	.L40:
 211:..\u8g2\csrc/u8x8_cad.c ****     default:
 553              		.loc 1 211 0
 554 0028 0469     		ldr	r4, [r0, #16]
 555 002a A047     		blx	r4
 556              	.LVL58:
 557 002c 10BD     		pop	{r4, pc}
 558              	.LVL59:
 559              	.L44:
 213:..\u8g2\csrc/u8x8_cad.c ****   }
 560              		.loc 1 213 0
 561 002e 0020     		movs	r0, #0
 562              	.LVL60:
 216:..\u8g2\csrc/u8x8_cad.c **** 
 563              		.loc 1 216 0
 564 0030 10BD     		pop	{r4, pc}
 565              		.cfi_endproc
 566              	.LFE9:
 567              		.size	u8x8_cad_empty, .-u8x8_cad_empty
 568 0032 00BF     		.section	.text.u8x8_cad_110,"ax",%progbits
 569              		.align	2
 570              		.global	u8x8_cad_110
 571              		.thumb
 572              		.thumb_func
 573              		.type	u8x8_cad_110, %function
 574              	u8x8_cad_110:
 575              	.LFB10:
 225:..\u8g2\csrc/u8x8_cad.c ****   switch(msg)
 576              		.loc 1 225 0
 577              		.cfi_startproc
 578              		@ args = 0, pretend = 0, frame = 0
 579              		@ frame_needed = 0, uses_anonymous_args = 0
 580              	.LVL61:
 581 0000 2DE9F041 		push	{r4, r5, r6, r7, r8, lr}
 582              		.cfi_def_cfa_offset 24
 583              		.cfi_offset 4, -24
 584              		.cfi_offset 5, -20
 585              		.cfi_offset 6, -16
 586              		.cfi_offset 7, -12
 587              		.cfi_offset 8, -8
 588              		.cfi_offset 14, -4
 589 0004 0446     		mov	r4, r0
 590 0006 0D46     		mov	r5, r1
 591 0008 1646     		mov	r6, r2
 592 000a 9846     		mov	r8, r3
 226:..\u8g2\csrc/u8x8_cad.c ****   {
 593              		.loc 1 226 0
 594 000c A1F11403 		sub	r3, r1, #20
 595              	.LVL62:
 596 0010 052B     		cmp	r3, #5
ARM GAS  C:\Users\brian\AppData\Local\Temp\cclOaW4l.s 			page 21


 597 0012 23D8     		bhi	.L53
 598 0014 DFE803F0 		tbb	[pc, r3]
 599              	.LVL63:
 600              	.L49:
 601 0018 1A       		.byte	(.L48-.L49)/2
 602 0019 03       		.byte	(.L50-.L49)/2
 603 001a 0D       		.byte	(.L51-.L49)/2
 604 001b 17       		.byte	(.L52-.L49)/2
 605 001c 1A       		.byte	(.L48-.L49)/2
 606 001d 1A       		.byte	(.L48-.L49)/2
 607              		.p2align 1
 608              	.L50:
 229:..\u8g2\csrc/u8x8_cad.c ****       u8x8_byte_SendByte(u8x8, arg_int);
 609              		.loc 1 229 0
 610 001e 0121     		movs	r1, #1
 611              	.LVL64:
 612 0020 FFF7FEFF 		bl	u8x8_byte_SetDC
 613              	.LVL65:
 230:..\u8g2\csrc/u8x8_cad.c ****       break;
 614              		.loc 1 230 0
 615 0024 3146     		mov	r1, r6
 616 0026 2046     		mov	r0, r4
 617 0028 FFF7FEFF 		bl	u8x8_byte_SendByte
 618              	.LVL66:
 248:..\u8g2\csrc/u8x8_cad.c **** }
 619              		.loc 1 248 0
 620 002c 0120     		movs	r0, #1
 231:..\u8g2\csrc/u8x8_cad.c ****     case U8X8_MSG_CAD_SEND_ARG:
 621              		.loc 1 231 0
 622 002e BDE8F081 		pop	{r4, r5, r6, r7, r8, pc}
 623              	.LVL67:
 624              	.L51:
 233:..\u8g2\csrc/u8x8_cad.c ****       u8x8_byte_SendByte(u8x8, arg_int);
 625              		.loc 1 233 0
 626 0032 0121     		movs	r1, #1
 627              	.LVL68:
 628 0034 FFF7FEFF 		bl	u8x8_byte_SetDC
 629              	.LVL69:
 234:..\u8g2\csrc/u8x8_cad.c ****       break;
 630              		.loc 1 234 0
 631 0038 3146     		mov	r1, r6
 632 003a 2046     		mov	r0, r4
 633 003c FFF7FEFF 		bl	u8x8_byte_SendByte
 634              	.LVL70:
 248:..\u8g2\csrc/u8x8_cad.c **** }
 635              		.loc 1 248 0
 636 0040 0120     		movs	r0, #1
 235:..\u8g2\csrc/u8x8_cad.c ****     case U8X8_MSG_CAD_SEND_DATA:
 637              		.loc 1 235 0
 638 0042 BDE8F081 		pop	{r4, r5, r6, r7, r8, pc}
 639              	.LVL71:
 640              	.L52:
 237:..\u8g2\csrc/u8x8_cad.c ****       //u8x8_byte_SendBytes(u8x8, arg_int, arg_ptr);
 641              		.loc 1 237 0
 642 0046 0021     		movs	r1, #0
 643              	.LVL72:
 644 0048 FFF7FEFF 		bl	u8x8_byte_SetDC
ARM GAS  C:\Users\brian\AppData\Local\Temp\cclOaW4l.s 			page 22


 645              	.LVL73:
 646              	.L48:
 244:..\u8g2\csrc/u8x8_cad.c ****     default:
 647              		.loc 1 244 0
 648 004c 2769     		ldr	r7, [r4, #16]
 649 004e 4346     		mov	r3, r8
 650 0050 3246     		mov	r2, r6
 651 0052 2946     		mov	r1, r5
 652 0054 2046     		mov	r0, r4
 653 0056 B847     		blx	r7
 654              	.LVL74:
 655 0058 BDE8F081 		pop	{r4, r5, r6, r7, r8, pc}
 656              	.LVL75:
 657              	.L53:
 246:..\u8g2\csrc/u8x8_cad.c ****   }
 658              		.loc 1 246 0
 659 005c 0020     		movs	r0, #0
 660              	.LVL76:
 249:..\u8g2\csrc/u8x8_cad.c **** 
 661              		.loc 1 249 0
 662 005e BDE8F081 		pop	{r4, r5, r6, r7, r8, pc}
 663              		.cfi_endproc
 664              	.LFE10:
 665              		.size	u8x8_cad_110, .-u8x8_cad_110
 666 0062 00BF     		.section	.text.u8x8_gu800_cad_110,"ax",%progbits
 667              		.align	2
 668              		.global	u8x8_gu800_cad_110
 669              		.thumb
 670              		.thumb_func
 671              		.type	u8x8_gu800_cad_110, %function
 672              	u8x8_gu800_cad_110:
 673              	.LFB11:
 257:..\u8g2\csrc/u8x8_cad.c ****   uint8_t *data;
 674              		.loc 1 257 0
 675              		.cfi_startproc
 676              		@ args = 0, pretend = 0, frame = 0
 677              		@ frame_needed = 0, uses_anonymous_args = 0
 678              	.LVL77:
 679 0000 F8B5     		push	{r3, r4, r5, r6, r7, lr}
 680              		.cfi_def_cfa_offset 24
 681              		.cfi_offset 3, -24
 682              		.cfi_offset 4, -20
 683              		.cfi_offset 5, -16
 684              		.cfi_offset 6, -12
 685              		.cfi_offset 7, -8
 686              		.cfi_offset 14, -4
 687 0002 0546     		mov	r5, r0
 688 0004 1446     		mov	r4, r2
 689 0006 1E46     		mov	r6, r3
 259:..\u8g2\csrc/u8x8_cad.c ****   {
 690              		.loc 1 259 0
 691 0008 A1F11403 		sub	r3, r1, #20
 692              	.LVL78:
 693 000c 052B     		cmp	r3, #5
 694 000e 04D8     		bhi	.L56
 695 0010 DFE803F0 		tbb	[pc, r3]
 696              	.LVL79:
ARM GAS  C:\Users\brian\AppData\Local\Temp\cclOaW4l.s 			page 23


 697              	.L58:
 698 0014 38       		.byte	(.L57-.L58)/2
 699 0015 05       		.byte	(.L59-.L58)/2
 700 0016 14       		.byte	(.L60-.L58)/2
 701 0017 23       		.byte	(.L61-.L58)/2
 702 0018 3E       		.byte	(.L65-.L58)/2
 703 0019 3E       		.byte	(.L65-.L58)/2
 704              		.p2align 1
 705              	.L56:
 292:..\u8g2\csrc/u8x8_cad.c ****   }
 706              		.loc 1 292 0
 707 001a 0020     		movs	r0, #0
 708              	.LVL80:
 709 001c F8BD     		pop	{r3, r4, r5, r6, r7, pc}
 710              	.LVL81:
 711              	.L59:
 262:..\u8g2\csrc/u8x8_cad.c ****       u8x8_byte_StartTransfer(u8x8);
 712              		.loc 1 262 0
 713 001e 0121     		movs	r1, #1
 714              	.LVL82:
 715 0020 FFF7FEFF 		bl	u8x8_byte_SetDC
 716              	.LVL83:
 263:..\u8g2\csrc/u8x8_cad.c ****       u8x8_byte_SendByte(u8x8, arg_int);
 717              		.loc 1 263 0
 718 0024 2846     		mov	r0, r5
 719 0026 FFF7FEFF 		bl	u8x8_byte_StartTransfer
 720              	.LVL84:
 264:..\u8g2\csrc/u8x8_cad.c ****       u8x8_byte_EndTransfer(u8x8);
 721              		.loc 1 264 0
 722 002a 2146     		mov	r1, r4
 723 002c 2846     		mov	r0, r5
 724 002e FFF7FEFF 		bl	u8x8_byte_SendByte
 725              	.LVL85:
 265:..\u8g2\csrc/u8x8_cad.c ****       break;
 726              		.loc 1 265 0
 727 0032 2846     		mov	r0, r5
 728 0034 FFF7FEFF 		bl	u8x8_byte_EndTransfer
 729              	.LVL86:
 294:..\u8g2\csrc/u8x8_cad.c **** }
 730              		.loc 1 294 0
 731 0038 0120     		movs	r0, #1
 266:..\u8g2\csrc/u8x8_cad.c ****     case U8X8_MSG_CAD_SEND_ARG:
 732              		.loc 1 266 0
 733 003a F8BD     		pop	{r3, r4, r5, r6, r7, pc}
 734              	.LVL87:
 735              	.L60:
 268:..\u8g2\csrc/u8x8_cad.c ****       u8x8_byte_StartTransfer(u8x8);
 736              		.loc 1 268 0
 737 003c 0121     		movs	r1, #1
 738              	.LVL88:
 739 003e FFF7FEFF 		bl	u8x8_byte_SetDC
 740              	.LVL89:
 269:..\u8g2\csrc/u8x8_cad.c ****       u8x8_byte_SendByte(u8x8, arg_int);
 741              		.loc 1 269 0
 742 0042 2846     		mov	r0, r5
 743 0044 FFF7FEFF 		bl	u8x8_byte_StartTransfer
 744              	.LVL90:
ARM GAS  C:\Users\brian\AppData\Local\Temp\cclOaW4l.s 			page 24


 270:..\u8g2\csrc/u8x8_cad.c ****       u8x8_byte_EndTransfer(u8x8);
 745              		.loc 1 270 0
 746 0048 2146     		mov	r1, r4
 747 004a 2846     		mov	r0, r5
 748 004c FFF7FEFF 		bl	u8x8_byte_SendByte
 749              	.LVL91:
 271:..\u8g2\csrc/u8x8_cad.c ****       break;
 750              		.loc 1 271 0
 751 0050 2846     		mov	r0, r5
 752 0052 FFF7FEFF 		bl	u8x8_byte_EndTransfer
 753              	.LVL92:
 294:..\u8g2\csrc/u8x8_cad.c **** }
 754              		.loc 1 294 0
 755 0056 0120     		movs	r0, #1
 272:..\u8g2\csrc/u8x8_cad.c ****     case U8X8_MSG_CAD_SEND_DATA:
 756              		.loc 1 272 0
 757 0058 F8BD     		pop	{r3, r4, r5, r6, r7, pc}
 758              	.LVL93:
 759              	.L61:
 274:..\u8g2\csrc/u8x8_cad.c ****       data = (uint8_t *)arg_ptr;
 760              		.loc 1 274 0
 761 005a 0021     		movs	r1, #0
 762              	.LVL94:
 763 005c FFF7FEFF 		bl	u8x8_byte_SetDC
 764              	.LVL95:
 276:..\u8g2\csrc/u8x8_cad.c ****       {
 765              		.loc 1 276 0
 766 0060 0CE0     		b	.L63
 767              	.LVL96:
 768              	.L64:
 278:..\u8g2\csrc/u8x8_cad.c ****         u8x8_byte_SendByte(u8x8, *data);
 769              		.loc 1 278 0
 770 0062 2846     		mov	r0, r5
 771 0064 FFF7FEFF 		bl	u8x8_byte_StartTransfer
 772              	.LVL97:
 279:..\u8g2\csrc/u8x8_cad.c ****         u8x8_byte_EndTransfer(u8x8);
 773              		.loc 1 279 0
 774 0068 16F8011B 		ldrb	r1, [r6], #1	@ zero_extendqisi2
 775              	.LVL98:
 776 006c 2846     		mov	r0, r5
 777 006e FFF7FEFF 		bl	u8x8_byte_SendByte
 778              	.LVL99:
 280:..\u8g2\csrc/u8x8_cad.c ****         data++;
 779              		.loc 1 280 0
 780 0072 2846     		mov	r0, r5
 781 0074 FFF7FEFF 		bl	u8x8_byte_EndTransfer
 782              	.LVL100:
 282:..\u8g2\csrc/u8x8_cad.c ****       }
 783              		.loc 1 282 0
 784 0078 013C     		subs	r4, r4, #1
 785              	.LVL101:
 786 007a E4B2     		uxtb	r4, r4
 787              	.LVL102:
 788              	.L63:
 276:..\u8g2\csrc/u8x8_cad.c ****       {
 789              		.loc 1 276 0
 790 007c 002C     		cmp	r4, #0
ARM GAS  C:\Users\brian\AppData\Local\Temp\cclOaW4l.s 			page 25


 791 007e F0D1     		bne	.L64
 294:..\u8g2\csrc/u8x8_cad.c **** }
 792              		.loc 1 294 0
 793 0080 0120     		movs	r0, #1
 794 0082 F8BD     		pop	{r3, r4, r5, r6, r7, pc}
 795              	.LVL103:
 796              	.L57:
 286:..\u8g2\csrc/u8x8_cad.c ****       break;
 797              		.loc 1 286 0
 798 0084 0769     		ldr	r7, [r0, #16]
 799 0086 3346     		mov	r3, r6
 800 0088 2246     		mov	r2, r4
 801 008a B847     		blx	r7
 802              	.LVL104:
 294:..\u8g2\csrc/u8x8_cad.c **** }
 803              		.loc 1 294 0
 804 008c 0120     		movs	r0, #1
 287:..\u8g2\csrc/u8x8_cad.c ****     case U8X8_MSG_CAD_START_TRANSFER:
 805              		.loc 1 287 0
 806 008e F8BD     		pop	{r3, r4, r5, r6, r7, pc}
 807              	.LVL105:
 808              	.L65:
 294:..\u8g2\csrc/u8x8_cad.c **** }
 809              		.loc 1 294 0
 810 0090 0120     		movs	r0, #1
 811              	.LVL106:
 295:..\u8g2\csrc/u8x8_cad.c **** 
 812              		.loc 1 295 0
 813 0092 F8BD     		pop	{r3, r4, r5, r6, r7, pc}
 814              		.cfi_endproc
 815              	.LFE11:
 816              		.size	u8x8_gu800_cad_110, .-u8x8_gu800_cad_110
 817              		.section	.text.u8x8_cad_100,"ax",%progbits
 818              		.align	2
 819              		.global	u8x8_cad_100
 820              		.thumb
 821              		.thumb_func
 822              		.type	u8x8_cad_100, %function
 823              	u8x8_cad_100:
 824              	.LFB12:
 304:..\u8g2\csrc/u8x8_cad.c ****   switch(msg)
 825              		.loc 1 304 0
 826              		.cfi_startproc
 827              		@ args = 0, pretend = 0, frame = 0
 828              		@ frame_needed = 0, uses_anonymous_args = 0
 829              	.LVL107:
 830 0000 2DE9F041 		push	{r4, r5, r6, r7, r8, lr}
 831              		.cfi_def_cfa_offset 24
 832              		.cfi_offset 4, -24
 833              		.cfi_offset 5, -20
 834              		.cfi_offset 6, -16
 835              		.cfi_offset 7, -12
 836              		.cfi_offset 8, -8
 837              		.cfi_offset 14, -4
 838 0004 0446     		mov	r4, r0
 839 0006 0D46     		mov	r5, r1
 840 0008 1646     		mov	r6, r2
ARM GAS  C:\Users\brian\AppData\Local\Temp\cclOaW4l.s 			page 26


 841 000a 9846     		mov	r8, r3
 305:..\u8g2\csrc/u8x8_cad.c ****   {
 842              		.loc 1 305 0
 843 000c A1F11403 		sub	r3, r1, #20
 844              	.LVL108:
 845 0010 052B     		cmp	r3, #5
 846 0012 23D8     		bhi	.L74
 847 0014 DFE803F0 		tbb	[pc, r3]
 848              	.LVL109:
 849              	.L70:
 850 0018 1A       		.byte	(.L69-.L70)/2
 851 0019 03       		.byte	(.L71-.L70)/2
 852 001a 0D       		.byte	(.L72-.L70)/2
 853 001b 17       		.byte	(.L73-.L70)/2
 854 001c 1A       		.byte	(.L69-.L70)/2
 855 001d 1A       		.byte	(.L69-.L70)/2
 856              		.p2align 1
 857              	.L71:
 308:..\u8g2\csrc/u8x8_cad.c ****       u8x8_byte_SendByte(u8x8, arg_int);
 858              		.loc 1 308 0
 859 001e 0121     		movs	r1, #1
 860              	.LVL110:
 861 0020 FFF7FEFF 		bl	u8x8_byte_SetDC
 862              	.LVL111:
 309:..\u8g2\csrc/u8x8_cad.c ****       break;
 863              		.loc 1 309 0
 864 0024 3146     		mov	r1, r6
 865 0026 2046     		mov	r0, r4
 866 0028 FFF7FEFF 		bl	u8x8_byte_SendByte
 867              	.LVL112:
 327:..\u8g2\csrc/u8x8_cad.c **** }
 868              		.loc 1 327 0
 869 002c 0120     		movs	r0, #1
 310:..\u8g2\csrc/u8x8_cad.c ****     case U8X8_MSG_CAD_SEND_ARG:
 870              		.loc 1 310 0
 871 002e BDE8F081 		pop	{r4, r5, r6, r7, r8, pc}
 872              	.LVL113:
 873              	.L72:
 312:..\u8g2\csrc/u8x8_cad.c ****       u8x8_byte_SendByte(u8x8, arg_int);
 874              		.loc 1 312 0
 875 0032 0021     		movs	r1, #0
 876              	.LVL114:
 877 0034 FFF7FEFF 		bl	u8x8_byte_SetDC
 878              	.LVL115:
 313:..\u8g2\csrc/u8x8_cad.c ****       break;
 879              		.loc 1 313 0
 880 0038 3146     		mov	r1, r6
 881 003a 2046     		mov	r0, r4
 882 003c FFF7FEFF 		bl	u8x8_byte_SendByte
 883              	.LVL116:
 327:..\u8g2\csrc/u8x8_cad.c **** }
 884              		.loc 1 327 0
 885 0040 0120     		movs	r0, #1
 314:..\u8g2\csrc/u8x8_cad.c ****     case U8X8_MSG_CAD_SEND_DATA:
 886              		.loc 1 314 0
 887 0042 BDE8F081 		pop	{r4, r5, r6, r7, r8, pc}
 888              	.LVL117:
ARM GAS  C:\Users\brian\AppData\Local\Temp\cclOaW4l.s 			page 27


 889              	.L73:
 316:..\u8g2\csrc/u8x8_cad.c ****       //u8x8_byte_SendBytes(u8x8, arg_int, arg_ptr);
 890              		.loc 1 316 0
 891 0046 0021     		movs	r1, #0
 892              	.LVL118:
 893 0048 FFF7FEFF 		bl	u8x8_byte_SetDC
 894              	.LVL119:
 895              	.L69:
 323:..\u8g2\csrc/u8x8_cad.c ****     default:
 896              		.loc 1 323 0
 897 004c 2769     		ldr	r7, [r4, #16]
 898 004e 4346     		mov	r3, r8
 899 0050 3246     		mov	r2, r6
 900 0052 2946     		mov	r1, r5
 901 0054 2046     		mov	r0, r4
 902 0056 B847     		blx	r7
 903              	.LVL120:
 904 0058 BDE8F081 		pop	{r4, r5, r6, r7, r8, pc}
 905              	.LVL121:
 906              	.L74:
 325:..\u8g2\csrc/u8x8_cad.c ****   }
 907              		.loc 1 325 0
 908 005c 0020     		movs	r0, #0
 909              	.LVL122:
 328:..\u8g2\csrc/u8x8_cad.c **** 
 910              		.loc 1 328 0
 911 005e BDE8F081 		pop	{r4, r5, r6, r7, r8, pc}
 912              		.cfi_endproc
 913              	.LFE12:
 914              		.size	u8x8_cad_100, .-u8x8_cad_100
 915 0062 00BF     		.section	.text.u8x8_cad_001,"ax",%progbits
 916              		.align	2
 917              		.global	u8x8_cad_001
 918              		.thumb
 919              		.thumb_func
 920              		.type	u8x8_cad_001, %function
 921              	u8x8_cad_001:
 922              	.LFB13:
 336:..\u8g2\csrc/u8x8_cad.c ****   switch(msg)
 923              		.loc 1 336 0
 924              		.cfi_startproc
 925              		@ args = 0, pretend = 0, frame = 0
 926              		@ frame_needed = 0, uses_anonymous_args = 0
 927              	.LVL123:
 928 0000 2DE9F041 		push	{r4, r5, r6, r7, r8, lr}
 929              		.cfi_def_cfa_offset 24
 930              		.cfi_offset 4, -24
 931              		.cfi_offset 5, -20
 932              		.cfi_offset 6, -16
 933              		.cfi_offset 7, -12
 934              		.cfi_offset 8, -8
 935              		.cfi_offset 14, -4
 936 0004 0446     		mov	r4, r0
 937 0006 0D46     		mov	r5, r1
 938 0008 1646     		mov	r6, r2
 939 000a 9846     		mov	r8, r3
 337:..\u8g2\csrc/u8x8_cad.c ****   {
ARM GAS  C:\Users\brian\AppData\Local\Temp\cclOaW4l.s 			page 28


 940              		.loc 1 337 0
 941 000c A1F11403 		sub	r3, r1, #20
 942              	.LVL124:
 943 0010 052B     		cmp	r3, #5
 944 0012 23D8     		bhi	.L83
 945 0014 DFE803F0 		tbb	[pc, r3]
 946              	.LVL125:
 947              	.L79:
 948 0018 1A       		.byte	(.L78-.L79)/2
 949 0019 03       		.byte	(.L80-.L79)/2
 950 001a 0D       		.byte	(.L81-.L79)/2
 951 001b 17       		.byte	(.L82-.L79)/2
 952 001c 1A       		.byte	(.L78-.L79)/2
 953 001d 1A       		.byte	(.L78-.L79)/2
 954              		.p2align 1
 955              	.L80:
 340:..\u8g2\csrc/u8x8_cad.c ****       u8x8_byte_SendByte(u8x8, arg_int);
 956              		.loc 1 340 0
 957 001e 0021     		movs	r1, #0
 958              	.LVL126:
 959 0020 FFF7FEFF 		bl	u8x8_byte_SetDC
 960              	.LVL127:
 341:..\u8g2\csrc/u8x8_cad.c ****       break;
 961              		.loc 1 341 0
 962 0024 3146     		mov	r1, r6
 963 0026 2046     		mov	r0, r4
 964 0028 FFF7FEFF 		bl	u8x8_byte_SendByte
 965              	.LVL128:
 359:..\u8g2\csrc/u8x8_cad.c **** }
 966              		.loc 1 359 0
 967 002c 0120     		movs	r0, #1
 342:..\u8g2\csrc/u8x8_cad.c ****     case U8X8_MSG_CAD_SEND_ARG:
 968              		.loc 1 342 0
 969 002e BDE8F081 		pop	{r4, r5, r6, r7, r8, pc}
 970              	.LVL129:
 971              	.L81:
 344:..\u8g2\csrc/u8x8_cad.c ****       u8x8_byte_SendByte(u8x8, arg_int);
 972              		.loc 1 344 0
 973 0032 0021     		movs	r1, #0
 974              	.LVL130:
 975 0034 FFF7FEFF 		bl	u8x8_byte_SetDC
 976              	.LVL131:
 345:..\u8g2\csrc/u8x8_cad.c ****       break;
 977              		.loc 1 345 0
 978 0038 3146     		mov	r1, r6
 979 003a 2046     		mov	r0, r4
 980 003c FFF7FEFF 		bl	u8x8_byte_SendByte
 981              	.LVL132:
 359:..\u8g2\csrc/u8x8_cad.c **** }
 982              		.loc 1 359 0
 983 0040 0120     		movs	r0, #1
 346:..\u8g2\csrc/u8x8_cad.c ****     case U8X8_MSG_CAD_SEND_DATA:
 984              		.loc 1 346 0
 985 0042 BDE8F081 		pop	{r4, r5, r6, r7, r8, pc}
 986              	.LVL133:
 987              	.L82:
 348:..\u8g2\csrc/u8x8_cad.c ****       //u8x8_byte_SendBytes(u8x8, arg_int, arg_ptr);
ARM GAS  C:\Users\brian\AppData\Local\Temp\cclOaW4l.s 			page 29


 988              		.loc 1 348 0
 989 0046 0121     		movs	r1, #1
 990              	.LVL134:
 991 0048 FFF7FEFF 		bl	u8x8_byte_SetDC
 992              	.LVL135:
 993              	.L78:
 355:..\u8g2\csrc/u8x8_cad.c ****     default:
 994              		.loc 1 355 0
 995 004c 2769     		ldr	r7, [r4, #16]
 996 004e 4346     		mov	r3, r8
 997 0050 3246     		mov	r2, r6
 998 0052 2946     		mov	r1, r5
 999 0054 2046     		mov	r0, r4
 1000 0056 B847     		blx	r7
 1001              	.LVL136:
 1002 0058 BDE8F081 		pop	{r4, r5, r6, r7, r8, pc}
 1003              	.LVL137:
 1004              	.L83:
 357:..\u8g2\csrc/u8x8_cad.c ****   }
 1005              		.loc 1 357 0
 1006 005c 0020     		movs	r0, #0
 1007              	.LVL138:
 360:..\u8g2\csrc/u8x8_cad.c **** 
 1008              		.loc 1 360 0
 1009 005e BDE8F081 		pop	{r4, r5, r6, r7, r8, pc}
 1010              		.cfi_endproc
 1011              	.LFE13:
 1012              		.size	u8x8_cad_001, .-u8x8_cad_001
 1013 0062 00BF     		.section	.text.u8x8_cad_011,"ax",%progbits
 1014              		.align	2
 1015              		.global	u8x8_cad_011
 1016              		.thumb
 1017              		.thumb_func
 1018              		.type	u8x8_cad_011, %function
 1019              	u8x8_cad_011:
 1020              	.LFB14:
 368:..\u8g2\csrc/u8x8_cad.c ****   switch(msg)
 1021              		.loc 1 368 0
 1022              		.cfi_startproc
 1023              		@ args = 0, pretend = 0, frame = 0
 1024              		@ frame_needed = 0, uses_anonymous_args = 0
 1025              	.LVL139:
 1026 0000 2DE9F041 		push	{r4, r5, r6, r7, r8, lr}
 1027              		.cfi_def_cfa_offset 24
 1028              		.cfi_offset 4, -24
 1029              		.cfi_offset 5, -20
 1030              		.cfi_offset 6, -16
 1031              		.cfi_offset 7, -12
 1032              		.cfi_offset 8, -8
 1033              		.cfi_offset 14, -4
 1034 0004 0446     		mov	r4, r0
 1035 0006 0D46     		mov	r5, r1
 1036 0008 1646     		mov	r6, r2
 1037 000a 9846     		mov	r8, r3
 369:..\u8g2\csrc/u8x8_cad.c ****   {
 1038              		.loc 1 369 0
 1039 000c A1F11403 		sub	r3, r1, #20
ARM GAS  C:\Users\brian\AppData\Local\Temp\cclOaW4l.s 			page 30


 1040              	.LVL140:
 1041 0010 052B     		cmp	r3, #5
 1042 0012 23D8     		bhi	.L92
 1043 0014 DFE803F0 		tbb	[pc, r3]
 1044              	.LVL141:
 1045              	.L88:
 1046 0018 1A       		.byte	(.L87-.L88)/2
 1047 0019 03       		.byte	(.L89-.L88)/2
 1048 001a 0D       		.byte	(.L90-.L88)/2
 1049 001b 17       		.byte	(.L91-.L88)/2
 1050 001c 1A       		.byte	(.L87-.L88)/2
 1051 001d 1A       		.byte	(.L87-.L88)/2
 1052              		.p2align 1
 1053              	.L89:
 372:..\u8g2\csrc/u8x8_cad.c ****       u8x8_byte_SendByte(u8x8, arg_int);
 1054              		.loc 1 372 0
 1055 001e 0021     		movs	r1, #0
 1056              	.LVL142:
 1057 0020 FFF7FEFF 		bl	u8x8_byte_SetDC
 1058              	.LVL143:
 373:..\u8g2\csrc/u8x8_cad.c ****       break;
 1059              		.loc 1 373 0
 1060 0024 3146     		mov	r1, r6
 1061 0026 2046     		mov	r0, r4
 1062 0028 FFF7FEFF 		bl	u8x8_byte_SendByte
 1063              	.LVL144:
 391:..\u8g2\csrc/u8x8_cad.c **** }
 1064              		.loc 1 391 0
 1065 002c 0120     		movs	r0, #1
 374:..\u8g2\csrc/u8x8_cad.c ****     case U8X8_MSG_CAD_SEND_ARG:
 1066              		.loc 1 374 0
 1067 002e BDE8F081 		pop	{r4, r5, r6, r7, r8, pc}
 1068              	.LVL145:
 1069              	.L90:
 376:..\u8g2\csrc/u8x8_cad.c ****       u8x8_byte_SendByte(u8x8, arg_int);
 1070              		.loc 1 376 0
 1071 0032 0121     		movs	r1, #1
 1072              	.LVL146:
 1073 0034 FFF7FEFF 		bl	u8x8_byte_SetDC
 1074              	.LVL147:
 377:..\u8g2\csrc/u8x8_cad.c ****       break;
 1075              		.loc 1 377 0
 1076 0038 3146     		mov	r1, r6
 1077 003a 2046     		mov	r0, r4
 1078 003c FFF7FEFF 		bl	u8x8_byte_SendByte
 1079              	.LVL148:
 391:..\u8g2\csrc/u8x8_cad.c **** }
 1080              		.loc 1 391 0
 1081 0040 0120     		movs	r0, #1
 378:..\u8g2\csrc/u8x8_cad.c ****     case U8X8_MSG_CAD_SEND_DATA:
 1082              		.loc 1 378 0
 1083 0042 BDE8F081 		pop	{r4, r5, r6, r7, r8, pc}
 1084              	.LVL149:
 1085              	.L91:
 380:..\u8g2\csrc/u8x8_cad.c ****       //u8x8_byte_SendBytes(u8x8, arg_int, arg_ptr);
 1086              		.loc 1 380 0
 1087 0046 0121     		movs	r1, #1
ARM GAS  C:\Users\brian\AppData\Local\Temp\cclOaW4l.s 			page 31


 1088              	.LVL150:
 1089 0048 FFF7FEFF 		bl	u8x8_byte_SetDC
 1090              	.LVL151:
 1091              	.L87:
 387:..\u8g2\csrc/u8x8_cad.c ****     default:
 1092              		.loc 1 387 0
 1093 004c 2769     		ldr	r7, [r4, #16]
 1094 004e 4346     		mov	r3, r8
 1095 0050 3246     		mov	r2, r6
 1096 0052 2946     		mov	r1, r5
 1097 0054 2046     		mov	r0, r4
 1098 0056 B847     		blx	r7
 1099              	.LVL152:
 1100 0058 BDE8F081 		pop	{r4, r5, r6, r7, r8, pc}
 1101              	.LVL153:
 1102              	.L92:
 389:..\u8g2\csrc/u8x8_cad.c ****   }
 1103              		.loc 1 389 0
 1104 005c 0020     		movs	r0, #0
 1105              	.LVL154:
 392:..\u8g2\csrc/u8x8_cad.c **** 
 1106              		.loc 1 392 0
 1107 005e BDE8F081 		pop	{r4, r5, r6, r7, r8, pc}
 1108              		.cfi_endproc
 1109              	.LFE14:
 1110              		.size	u8x8_cad_011, .-u8x8_cad_011
 1111 0062 00BF     		.section	.text.u8x8_cad_st7920_spi,"ax",%progbits
 1112              		.align	2
 1113              		.global	u8x8_cad_st7920_spi
 1114              		.thumb
 1115              		.thumb_func
 1116              		.type	u8x8_cad_st7920_spi, %function
 1117              	u8x8_cad_st7920_spi:
 1118              	.LFB15:
 397:..\u8g2\csrc/u8x8_cad.c ****   uint8_t *data;
 1119              		.loc 1 397 0
 1120              		.cfi_startproc
 1121              		@ args = 0, pretend = 0, frame = 0
 1122              		@ frame_needed = 0, uses_anonymous_args = 0
 1123              	.LVL155:
 1124 0000 F8B5     		push	{r3, r4, r5, r6, r7, lr}
 1125              		.cfi_def_cfa_offset 24
 1126              		.cfi_offset 3, -24
 1127              		.cfi_offset 4, -20
 1128              		.cfi_offset 5, -16
 1129              		.cfi_offset 6, -12
 1130              		.cfi_offset 7, -8
 1131              		.cfi_offset 14, -4
 1132 0002 0646     		mov	r6, r0
 1133 0004 1546     		mov	r5, r2
 1134 0006 1F46     		mov	r7, r3
 404:..\u8g2\csrc/u8x8_cad.c ****   {
 1135              		.loc 1 404 0
 1136 0008 A1F11403 		sub	r3, r1, #20
 1137              	.LVL156:
 1138 000c 052B     		cmp	r3, #5
 1139 000e 74D8     		bhi	.L105
ARM GAS  C:\Users\brian\AppData\Local\Temp\cclOaW4l.s 			page 32


 1140 0010 DFE803F0 		tbb	[pc, r3]
 1141              	.LVL157:
 1142              	.L97:
 1143 0014 6E       		.byte	(.L96-.L97)/2
 1144 0015 03       		.byte	(.L98-.L97)/2
 1145 0016 22       		.byte	(.L99-.L97)/2
 1146 0017 32       		.byte	(.L100-.L97)/2
 1147 0018 6E       		.byte	(.L96-.L97)/2
 1148 0019 6E       		.byte	(.L96-.L97)/2
 1149              		.p2align 1
 1150              	.L98:
 407:..\u8g2\csrc/u8x8_cad.c ****       u8x8_gpio_Delay(u8x8, U8X8_MSG_DELAY_NANO, 1);
 1151              		.loc 1 407 0
 1152 001a F821     		movs	r1, #248
 1153              	.LVL158:
 1154 001c FFF7FEFF 		bl	u8x8_byte_SendByte
 1155              	.LVL159:
 408:..\u8g2\csrc/u8x8_cad.c ****       u8x8_byte_SendByte(u8x8, arg_int & 0x0f0);
 1156              		.loc 1 408 0
 1157 0020 0122     		movs	r2, #1
 1158 0022 2C21     		movs	r1, #44
 1159 0024 3046     		mov	r0, r6
 1160 0026 FFF7FEFF 		bl	u8x8_gpio_call
 1161              	.LVL160:
 409:..\u8g2\csrc/u8x8_cad.c ****       u8x8_gpio_Delay(u8x8, U8X8_MSG_DELAY_NANO, 1);
 1162              		.loc 1 409 0
 1163 002a 05F0F001 		and	r1, r5, #240
 1164 002e 3046     		mov	r0, r6
 1165 0030 FFF7FEFF 		bl	u8x8_byte_SendByte
 1166              	.LVL161:
 410:..\u8g2\csrc/u8x8_cad.c ****       u8x8_byte_SendByte(u8x8, arg_int << 4);
 1167              		.loc 1 410 0
 1168 0034 0122     		movs	r2, #1
 1169 0036 2C21     		movs	r1, #44
 1170 0038 3046     		mov	r0, r6
 1171 003a FFF7FEFF 		bl	u8x8_gpio_call
 1172              	.LVL162:
 411:..\u8g2\csrc/u8x8_cad.c ****       u8x8_gpio_Delay(u8x8, U8X8_MSG_DELAY_NANO, 1);
 1173              		.loc 1 411 0
 1174 003e 2901     		lsls	r1, r5, #4
 1175 0040 01F0F001 		and	r1, r1, #240
 1176 0044 3046     		mov	r0, r6
 1177 0046 FFF7FEFF 		bl	u8x8_byte_SendByte
 1178              	.LVL163:
 412:..\u8g2\csrc/u8x8_cad.c ****       break;
 1179              		.loc 1 412 0
 1180 004a 0122     		movs	r2, #1
 1181 004c 2C21     		movs	r1, #44
 1182 004e 3046     		mov	r0, r6
 1183 0050 FFF7FEFF 		bl	u8x8_gpio_call
 1184              	.LVL164:
 463:..\u8g2\csrc/u8x8_cad.c **** }
 1185              		.loc 1 463 0
 1186 0054 0120     		movs	r0, #1
 413:..\u8g2\csrc/u8x8_cad.c ****     case U8X8_MSG_CAD_SEND_ARG:
 1187              		.loc 1 413 0
 1188 0056 F8BD     		pop	{r3, r4, r5, r6, r7, pc}
ARM GAS  C:\Users\brian\AppData\Local\Temp\cclOaW4l.s 			page 33


 1189              	.LVL165:
 1190              	.L99:
 415:..\u8g2\csrc/u8x8_cad.c ****       u8x8_byte_SendByte(u8x8, arg_int & 0x0f0);
 1191              		.loc 1 415 0
 1192 0058 F821     		movs	r1, #248
 1193              	.LVL166:
 1194 005a FFF7FEFF 		bl	u8x8_byte_SendByte
 1195              	.LVL167:
 416:..\u8g2\csrc/u8x8_cad.c ****       u8x8_byte_SendByte(u8x8, arg_int << 4);
 1196              		.loc 1 416 0
 1197 005e 05F0F001 		and	r1, r5, #240
 1198 0062 3046     		mov	r0, r6
 1199 0064 FFF7FEFF 		bl	u8x8_byte_SendByte
 1200              	.LVL168:
 417:..\u8g2\csrc/u8x8_cad.c ****       break;
 1201              		.loc 1 417 0
 1202 0068 2901     		lsls	r1, r5, #4
 1203 006a 01F0F001 		and	r1, r1, #240
 1204 006e 3046     		mov	r0, r6
 1205 0070 FFF7FEFF 		bl	u8x8_byte_SendByte
 1206              	.LVL169:
 463:..\u8g2\csrc/u8x8_cad.c **** }
 1207              		.loc 1 463 0
 1208 0074 0120     		movs	r0, #1
 418:..\u8g2\csrc/u8x8_cad.c ****     case U8X8_MSG_CAD_SEND_DATA:
 1209              		.loc 1 418 0
 1210 0076 F8BD     		pop	{r3, r4, r5, r6, r7, pc}
 1211              	.LVL170:
 1212              	.L100:
 421:..\u8g2\csrc/u8x8_cad.c ****       u8x8_gpio_Delay(u8x8, U8X8_MSG_DELAY_NANO, 1);
 1213              		.loc 1 421 0
 1214 0078 FA21     		movs	r1, #250
 1215              	.LVL171:
 1216 007a FFF7FEFF 		bl	u8x8_byte_SendByte
 1217              	.LVL172:
 422:..\u8g2\csrc/u8x8_cad.c **** 
 1218              		.loc 1 422 0
 1219 007e 0122     		movs	r2, #1
 1220 0080 2C21     		movs	r1, #44
 1221 0082 3046     		mov	r0, r6
 1222 0084 FFF7FEFF 		bl	u8x8_gpio_call
 1223              	.LVL173:
 429:..\u8g2\csrc/u8x8_cad.c ****       {
 1224              		.loc 1 429 0
 1225 0088 17E0     		b	.L101
 1226              	.LVL174:
 1227              	.L106:
 1228 008a 1D48     		ldr	r0, .L108
 1229 008c 0823     		movs	r3, #8
 1230              	.L102:
 1231              	.LVL175:
 435:..\u8g2\csrc/u8x8_cad.c **** 	  *ptr++= b & 0x0f0;
 1232              		.loc 1 435 0 discriminator 1
 1233 008e 7C1C     		adds	r4, r7, #1
 1234              	.LVL176:
 1235 0090 3A78     		ldrb	r2, [r7]	@ zero_extendqisi2
 1236              	.LVL177:
ARM GAS  C:\Users\brian\AppData\Local\Temp\cclOaW4l.s 			page 34


 436:..\u8g2\csrc/u8x8_cad.c **** 	  b <<= 4;
 1237              		.loc 1 436 0 discriminator 1
 1238 0092 22F00F07 		bic	r7, r2, #15
 1239 0096 0146     		mov	r1, r0
 1240 0098 01F8027B 		strb	r7, [r1], #2
 437:..\u8g2\csrc/u8x8_cad.c **** 	  *ptr++= b;
 1241              		.loc 1 437 0 discriminator 1
 1242 009c 1201     		lsls	r2, r2, #4
 1243              	.LVL178:
 438:..\u8g2\csrc/u8x8_cad.c **** 	  i--;
 1244              		.loc 1 438 0 discriminator 1
 1245 009e 4270     		strb	r2, [r0, #1]
 439:..\u8g2\csrc/u8x8_cad.c **** 	} while( i > 0 );
 1246              		.loc 1 439 0 discriminator 1
 1247 00a0 013B     		subs	r3, r3, #1
 1248              	.LVL179:
 435:..\u8g2\csrc/u8x8_cad.c **** 	  *ptr++= b & 0x0f0;
 1249              		.loc 1 435 0 discriminator 1
 1250 00a2 2746     		mov	r7, r4
 438:..\u8g2\csrc/u8x8_cad.c **** 	  i--;
 1251              		.loc 1 438 0 discriminator 1
 1252 00a4 0846     		mov	r0, r1
 440:..\u8g2\csrc/u8x8_cad.c **** 	arg_int -= 8;
 1253              		.loc 1 440 0 discriminator 1
 1254 00a6 13F0FF03 		ands	r3, r3, #255
 1255              	.LVL180:
 1256 00aa F0D1     		bne	.L102
 441:..\u8g2\csrc/u8x8_cad.c **** 	u8x8_byte_SendBytes(u8x8, 16, buf); 
 1257              		.loc 1 441 0
 1258 00ac 083D     		subs	r5, r5, #8
 1259              	.LVL181:
 1260 00ae EDB2     		uxtb	r5, r5
 1261              	.LVL182:
 442:..\u8g2\csrc/u8x8_cad.c ****       }
 1262              		.loc 1 442 0
 1263 00b0 134A     		ldr	r2, .L108
 1264              	.LVL183:
 1265 00b2 1021     		movs	r1, #16
 1266              	.LVL184:
 1267 00b4 3046     		mov	r0, r6
 1268              	.LVL185:
 1269 00b6 FFF7FEFF 		bl	u8x8_byte_SendBytes
 1270              	.LVL186:
 1271              	.L101:
 429:..\u8g2\csrc/u8x8_cad.c ****       {
 1272              		.loc 1 429 0
 1273 00ba 072D     		cmp	r5, #7
 1274 00bc E5D8     		bhi	.L106
 1275 00be 0EE0     		b	.L103
 1276              	.L104:
 448:..\u8g2\csrc/u8x8_cad.c **** 	u8x8_byte_SendByte(u8x8, b & 0x0f0);
 1277              		.loc 1 448 0
 1278 00c0 17F8014B 		ldrb	r4, [r7], #1	@ zero_extendqisi2
 1279              	.LVL187:
 449:..\u8g2\csrc/u8x8_cad.c **** 	u8x8_byte_SendByte(u8x8, b << 4);
 1280              		.loc 1 449 0
 1281 00c4 04F0F001 		and	r1, r4, #240
ARM GAS  C:\Users\brian\AppData\Local\Temp\cclOaW4l.s 			page 35


 1282 00c8 3046     		mov	r0, r6
 1283 00ca FFF7FEFF 		bl	u8x8_byte_SendByte
 1284              	.LVL188:
 450:..\u8g2\csrc/u8x8_cad.c **** 	data++;
 1285              		.loc 1 450 0
 1286 00ce 2101     		lsls	r1, r4, #4
 1287 00d0 01F0F001 		and	r1, r1, #240
 1288 00d4 3046     		mov	r0, r6
 1289 00d6 FFF7FEFF 		bl	u8x8_byte_SendByte
 1290              	.LVL189:
 452:..\u8g2\csrc/u8x8_cad.c ****       }
 1291              		.loc 1 452 0
 1292 00da 013D     		subs	r5, r5, #1
 1293              	.LVL190:
 1294 00dc EDB2     		uxtb	r5, r5
 1295              	.LVL191:
 1296              	.L103:
 446:..\u8g2\csrc/u8x8_cad.c ****       {
 1297              		.loc 1 446 0
 1298 00de 002D     		cmp	r5, #0
 1299 00e0 EED1     		bne	.L104
 454:..\u8g2\csrc/u8x8_cad.c ****       break;
 1300              		.loc 1 454 0
 1301 00e2 0122     		movs	r2, #1
 1302 00e4 2C21     		movs	r1, #44
 1303 00e6 3046     		mov	r0, r6
 1304 00e8 FFF7FEFF 		bl	u8x8_gpio_call
 1305              	.LVL192:
 463:..\u8g2\csrc/u8x8_cad.c **** }
 1306              		.loc 1 463 0
 1307 00ec 0120     		movs	r0, #1
 455:..\u8g2\csrc/u8x8_cad.c ****     case U8X8_MSG_CAD_INIT:
 1308              		.loc 1 455 0
 1309 00ee F8BD     		pop	{r3, r4, r5, r6, r7, pc}
 1310              	.LVL193:
 1311              	.L96:
 459:..\u8g2\csrc/u8x8_cad.c ****     default:
 1312              		.loc 1 459 0
 1313 00f0 0469     		ldr	r4, [r0, #16]
 1314 00f2 3B46     		mov	r3, r7
 1315 00f4 2A46     		mov	r2, r5
 1316 00f6 A047     		blx	r4
 1317              	.LVL194:
 1318 00f8 F8BD     		pop	{r3, r4, r5, r6, r7, pc}
 1319              	.LVL195:
 1320              	.L105:
 461:..\u8g2\csrc/u8x8_cad.c ****   }
 1321              		.loc 1 461 0
 1322 00fa 0020     		movs	r0, #0
 1323              	.LVL196:
 464:..\u8g2\csrc/u8x8_cad.c **** 
 1324              		.loc 1 464 0
 1325 00fc F8BD     		pop	{r3, r4, r5, r6, r7, pc}
 1326              	.LVL197:
 1327              	.L109:
 1328 00fe 00BF     		.align	2
 1329              	.L108:
ARM GAS  C:\Users\brian\AppData\Local\Temp\cclOaW4l.s 			page 36


 1330 0100 00000000 		.word	.LANCHOR0
 1331              		.cfi_endproc
 1332              	.LFE15:
 1333              		.size	u8x8_cad_st7920_spi, .-u8x8_cad_st7920_spi
 1334              		.section	.text.u8x8_cad_ssd13xx_i2c,"ax",%progbits
 1335              		.align	2
 1336              		.global	u8x8_cad_ssd13xx_i2c
 1337              		.thumb
 1338              		.thumb_func
 1339              		.type	u8x8_cad_ssd13xx_i2c, %function
 1340              	u8x8_cad_ssd13xx_i2c:
 1341              	.LFB17:
 480:..\u8g2\csrc/u8x8_cad.c **** }
 481:..\u8g2\csrc/u8x8_cad.c **** 
 482:..\u8g2\csrc/u8x8_cad.c **** /* classic version: will put a start/stop condition around each command and arg */
 483:..\u8g2\csrc/u8x8_cad.c **** uint8_t u8x8_cad_ssd13xx_i2c(u8x8_t *u8x8, uint8_t msg, uint8_t arg_int, void *arg_ptr)
 484:..\u8g2\csrc/u8x8_cad.c **** {
 1342              		.loc 1 484 0
 1343              		.cfi_startproc
 1344              		@ args = 0, pretend = 0, frame = 0
 1345              		@ frame_needed = 0, uses_anonymous_args = 0
 1346              	.LVL198:
 1347 0000 F8B5     		push	{r3, r4, r5, r6, r7, lr}
 1348              		.cfi_def_cfa_offset 24
 1349              		.cfi_offset 3, -24
 1350              		.cfi_offset 4, -20
 1351              		.cfi_offset 5, -16
 1352              		.cfi_offset 6, -12
 1353              		.cfi_offset 7, -8
 1354              		.cfi_offset 14, -4
 1355 0002 0646     		mov	r6, r0
 1356 0004 1446     		mov	r4, r2
 1357 0006 1D46     		mov	r5, r3
 485:..\u8g2\csrc/u8x8_cad.c ****   uint8_t *p;
 486:..\u8g2\csrc/u8x8_cad.c ****   switch(msg)
 1358              		.loc 1 486 0
 1359 0008 A1F11403 		sub	r3, r1, #20
 1360              	.LVL199:
 1361 000c 052B     		cmp	r3, #5
 1362 000e 04D8     		bhi	.L111
 1363 0010 DFE803F0 		tbb	[pc, r3]
 1364              	.LVL200:
 1365              	.L113:
 1366 0014 25       		.byte	(.L112-.L113)/2
 1367 0015 05       		.byte	(.L114-.L113)/2
 1368 0016 05       		.byte	(.L114-.L113)/2
 1369 0017 1C       		.byte	(.L115-.L113)/2
 1370 0018 32       		.byte	(.L119-.L113)/2
 1371 0019 32       		.byte	(.L119-.L113)/2
 1372              		.p2align 1
 1373              	.L111:
 487:..\u8g2\csrc/u8x8_cad.c ****   {
 488:..\u8g2\csrc/u8x8_cad.c ****     case U8X8_MSG_CAD_SEND_CMD:
 489:..\u8g2\csrc/u8x8_cad.c ****     case U8X8_MSG_CAD_SEND_ARG:
 490:..\u8g2\csrc/u8x8_cad.c ****       /* 7 Nov 2016: Can this be improved?  */
 491:..\u8g2\csrc/u8x8_cad.c ****       //u8x8_byte_SetDC(u8x8, 0);
 492:..\u8g2\csrc/u8x8_cad.c ****       u8x8_byte_StartTransfer(u8x8);
ARM GAS  C:\Users\brian\AppData\Local\Temp\cclOaW4l.s 			page 37


 493:..\u8g2\csrc/u8x8_cad.c ****       //u8x8_byte_SendByte(u8x8, u8x8_GetI2CAddress(u8x8));
 494:..\u8g2\csrc/u8x8_cad.c ****       u8x8_byte_SendByte(u8x8, 0x000);
 495:..\u8g2\csrc/u8x8_cad.c ****       u8x8_byte_SendByte(u8x8, arg_int);
 496:..\u8g2\csrc/u8x8_cad.c ****       u8x8_byte_EndTransfer(u8x8);      
 497:..\u8g2\csrc/u8x8_cad.c ****       break;
 498:..\u8g2\csrc/u8x8_cad.c ****     case U8X8_MSG_CAD_SEND_DATA:
 499:..\u8g2\csrc/u8x8_cad.c ****       //u8x8_byte_SetDC(u8x8, 1);
 500:..\u8g2\csrc/u8x8_cad.c ****     
 501:..\u8g2\csrc/u8x8_cad.c ****       /* the FeatherWing OLED with the 32u4 transfer of long byte */
 502:..\u8g2\csrc/u8x8_cad.c ****       /* streams was not possible. This is broken down to */
 503:..\u8g2\csrc/u8x8_cad.c ****       /* smaller streams, 32 seems to be the limit... */
 504:..\u8g2\csrc/u8x8_cad.c ****       /* I guess this is related to the size of the Wire buffers in Arduino */
 505:..\u8g2\csrc/u8x8_cad.c ****       /* Unfortunately, this can not be handled in the byte level drivers, */
 506:..\u8g2\csrc/u8x8_cad.c ****       /* so this is done here. Even further, only 24 bytes will be sent, */
 507:..\u8g2\csrc/u8x8_cad.c ****       /* because there will be another byte (DC) required during the transfer */
 508:..\u8g2\csrc/u8x8_cad.c ****       p = arg_ptr;
 509:..\u8g2\csrc/u8x8_cad.c ****        while( arg_int > 24 )
 510:..\u8g2\csrc/u8x8_cad.c ****       {
 511:..\u8g2\csrc/u8x8_cad.c **** 	u8x8_i2c_data_transfer(u8x8, 24, p);
 512:..\u8g2\csrc/u8x8_cad.c **** 	arg_int-=24;
 513:..\u8g2\csrc/u8x8_cad.c **** 	p+=24;
 514:..\u8g2\csrc/u8x8_cad.c ****       }
 515:..\u8g2\csrc/u8x8_cad.c ****       u8x8_i2c_data_transfer(u8x8, arg_int, p);
 516:..\u8g2\csrc/u8x8_cad.c ****       break;
 517:..\u8g2\csrc/u8x8_cad.c ****     case U8X8_MSG_CAD_INIT:
 518:..\u8g2\csrc/u8x8_cad.c ****       /* apply default i2c adr if required so that the start transfer msg can use this */
 519:..\u8g2\csrc/u8x8_cad.c ****       if ( u8x8->i2c_address == 255 )
 520:..\u8g2\csrc/u8x8_cad.c **** 	u8x8->i2c_address = 0x078;
 521:..\u8g2\csrc/u8x8_cad.c ****       return u8x8->byte_cb(u8x8, msg, arg_int, arg_ptr);
 522:..\u8g2\csrc/u8x8_cad.c ****     case U8X8_MSG_CAD_START_TRANSFER:
 523:..\u8g2\csrc/u8x8_cad.c ****     case U8X8_MSG_CAD_END_TRANSFER:
 524:..\u8g2\csrc/u8x8_cad.c ****       /* cad transfer commands are ignored */
 525:..\u8g2\csrc/u8x8_cad.c ****       break;
 526:..\u8g2\csrc/u8x8_cad.c ****     default:
 527:..\u8g2\csrc/u8x8_cad.c ****       return 0;
 1374              		.loc 1 527 0
 1375 001a 0020     		movs	r0, #0
 1376              	.LVL201:
 1377 001c F8BD     		pop	{r3, r4, r5, r6, r7, pc}
 1378              	.LVL202:
 1379              	.L114:
 492:..\u8g2\csrc/u8x8_cad.c ****       //u8x8_byte_SendByte(u8x8, u8x8_GetI2CAddress(u8x8));
 1380              		.loc 1 492 0
 1381 001e FFF7FEFF 		bl	u8x8_byte_StartTransfer
 1382              	.LVL203:
 494:..\u8g2\csrc/u8x8_cad.c ****       u8x8_byte_SendByte(u8x8, arg_int);
 1383              		.loc 1 494 0
 1384 0022 0021     		movs	r1, #0
 1385 0024 3046     		mov	r0, r6
 1386 0026 FFF7FEFF 		bl	u8x8_byte_SendByte
 1387              	.LVL204:
 495:..\u8g2\csrc/u8x8_cad.c ****       u8x8_byte_EndTransfer(u8x8);      
 1388              		.loc 1 495 0
 1389 002a 2146     		mov	r1, r4
 1390 002c 3046     		mov	r0, r6
 1391 002e FFF7FEFF 		bl	u8x8_byte_SendByte
 1392              	.LVL205:
ARM GAS  C:\Users\brian\AppData\Local\Temp\cclOaW4l.s 			page 38


 496:..\u8g2\csrc/u8x8_cad.c ****       break;
 1393              		.loc 1 496 0
 1394 0032 3046     		mov	r0, r6
 1395 0034 FFF7FEFF 		bl	u8x8_byte_EndTransfer
 1396              	.LVL206:
 528:..\u8g2\csrc/u8x8_cad.c ****   }
 529:..\u8g2\csrc/u8x8_cad.c ****   return 1;
 1397              		.loc 1 529 0
 1398 0038 0120     		movs	r0, #1
 497:..\u8g2\csrc/u8x8_cad.c ****     case U8X8_MSG_CAD_SEND_DATA:
 1399              		.loc 1 497 0
 1400 003a F8BD     		pop	{r3, r4, r5, r6, r7, pc}
 1401              	.LVL207:
 1402              	.L117:
 511:..\u8g2\csrc/u8x8_cad.c **** 	arg_int-=24;
 1403              		.loc 1 511 0
 1404 003c 2A46     		mov	r2, r5
 1405 003e 1821     		movs	r1, #24
 1406 0040 3046     		mov	r0, r6
 1407 0042 FFF7FEFF 		bl	u8x8_i2c_data_transfer
 1408              	.LVL208:
 512:..\u8g2\csrc/u8x8_cad.c **** 	p+=24;
 1409              		.loc 1 512 0
 1410 0046 183C     		subs	r4, r4, #24
 1411              	.LVL209:
 1412 0048 E4B2     		uxtb	r4, r4
 1413              	.LVL210:
 513:..\u8g2\csrc/u8x8_cad.c ****       }
 1414              		.loc 1 513 0
 1415 004a 1835     		adds	r5, r5, #24
 1416              	.LVL211:
 1417              	.L115:
 509:..\u8g2\csrc/u8x8_cad.c ****       {
 1418              		.loc 1 509 0
 1419 004c 182C     		cmp	r4, #24
 1420 004e F5D8     		bhi	.L117
 515:..\u8g2\csrc/u8x8_cad.c ****       break;
 1421              		.loc 1 515 0
 1422 0050 2A46     		mov	r2, r5
 1423 0052 2146     		mov	r1, r4
 1424 0054 3046     		mov	r0, r6
 1425 0056 FFF7FEFF 		bl	u8x8_i2c_data_transfer
 1426              	.LVL212:
 1427              		.loc 1 529 0
 1428 005a 0120     		movs	r0, #1
 516:..\u8g2\csrc/u8x8_cad.c ****     case U8X8_MSG_CAD_INIT:
 1429              		.loc 1 516 0
 1430 005c F8BD     		pop	{r3, r4, r5, r6, r7, pc}
 1431              	.LVL213:
 1432              	.L112:
 519:..\u8g2\csrc/u8x8_cad.c **** 	u8x8->i2c_address = 0x078;
 1433              		.loc 1 519 0
 1434 005e 90F82430 		ldrb	r3, [r0, #36]	@ zero_extendqisi2
 1435 0062 FF2B     		cmp	r3, #255
 1436 0064 02D1     		bne	.L118
 520:..\u8g2\csrc/u8x8_cad.c ****       return u8x8->byte_cb(u8x8, msg, arg_int, arg_ptr);
 1437              		.loc 1 520 0
ARM GAS  C:\Users\brian\AppData\Local\Temp\cclOaW4l.s 			page 39


 1438 0066 7823     		movs	r3, #120
 1439 0068 80F82430 		strb	r3, [r0, #36]
 1440              	.L118:
 521:..\u8g2\csrc/u8x8_cad.c ****     case U8X8_MSG_CAD_START_TRANSFER:
 1441              		.loc 1 521 0
 1442 006c 3769     		ldr	r7, [r6, #16]
 1443 006e 2B46     		mov	r3, r5
 1444 0070 2246     		mov	r2, r4
 1445 0072 3046     		mov	r0, r6
 1446              	.LVL214:
 1447 0074 B847     		blx	r7
 1448              	.LVL215:
 1449 0076 F8BD     		pop	{r3, r4, r5, r6, r7, pc}
 1450              	.LVL216:
 1451              	.L119:
 1452              		.loc 1 529 0
 1453 0078 0120     		movs	r0, #1
 1454              	.LVL217:
 530:..\u8g2\csrc/u8x8_cad.c **** }
 1455              		.loc 1 530 0
 1456 007a F8BD     		pop	{r3, r4, r5, r6, r7, pc}
 1457              		.cfi_endproc
 1458              	.LFE17:
 1459              		.size	u8x8_cad_ssd13xx_i2c, .-u8x8_cad_ssd13xx_i2c
 1460              		.section	.text.u8x8_cad_ssd13xx_fast_i2c,"ax",%progbits
 1461              		.align	2
 1462              		.global	u8x8_cad_ssd13xx_fast_i2c
 1463              		.thumb
 1464              		.thumb_func
 1465              		.type	u8x8_cad_ssd13xx_fast_i2c, %function
 1466              	u8x8_cad_ssd13xx_fast_i2c:
 1467              	.LFB18:
 531:..\u8g2\csrc/u8x8_cad.c **** 
 532:..\u8g2\csrc/u8x8_cad.c **** 
 533:..\u8g2\csrc/u8x8_cad.c **** /* fast version with reduced data start/stops, issue 735 */
 534:..\u8g2\csrc/u8x8_cad.c **** uint8_t u8x8_cad_ssd13xx_fast_i2c(u8x8_t *u8x8, uint8_t msg, uint8_t arg_int, void *arg_ptr)
 535:..\u8g2\csrc/u8x8_cad.c **** {
 1468              		.loc 1 535 0
 1469              		.cfi_startproc
 1470              		@ args = 0, pretend = 0, frame = 0
 1471              		@ frame_needed = 0, uses_anonymous_args = 0
 1472              	.LVL218:
 1473 0000 F8B5     		push	{r3, r4, r5, r6, r7, lr}
 1474              		.cfi_def_cfa_offset 24
 1475              		.cfi_offset 3, -24
 1476              		.cfi_offset 4, -20
 1477              		.cfi_offset 5, -16
 1478              		.cfi_offset 6, -12
 1479              		.cfi_offset 7, -8
 1480              		.cfi_offset 14, -4
 1481 0002 0646     		mov	r6, r0
 1482 0004 1446     		mov	r4, r2
 1483 0006 1D46     		mov	r5, r3
 536:..\u8g2\csrc/u8x8_cad.c ****   static uint8_t in_transfer = 0;
 537:..\u8g2\csrc/u8x8_cad.c ****   uint8_t *p;
 538:..\u8g2\csrc/u8x8_cad.c ****   switch(msg)
 1484              		.loc 1 538 0
ARM GAS  C:\Users\brian\AppData\Local\Temp\cclOaW4l.s 			page 40


 1485 0008 A1F11403 		sub	r3, r1, #20
 1486              	.LVL219:
 1487 000c 052B     		cmp	r3, #5
 1488 000e 53D8     		bhi	.L136
 1489 0010 DFE803F0 		tbb	[pc, r3]
 1490              	.LVL220:
 1491              	.L124:
 1492 0014 36       		.byte	(.L123-.L124)/2
 1493 0015 03       		.byte	(.L125-.L124)/2
 1494 0016 17       		.byte	(.L126-.L124)/2
 1495 0017 1C       		.byte	(.L127-.L124)/2
 1496 0018 43       		.byte	(.L128-.L124)/2
 1497 0019 48       		.byte	(.L129-.L124)/2
 1498              		.p2align 1
 1499              	.L125:
 539:..\u8g2\csrc/u8x8_cad.c ****   {
 540:..\u8g2\csrc/u8x8_cad.c ****     case U8X8_MSG_CAD_SEND_CMD:
 541:..\u8g2\csrc/u8x8_cad.c ****       /* improved version, takeover from ld7032 */
 542:..\u8g2\csrc/u8x8_cad.c ****       /* assumes, that the args of a command is not longer than 31 bytes */
 543:..\u8g2\csrc/u8x8_cad.c ****       /* speed improvement is about 4% compared to the classic version */
 544:..\u8g2\csrc/u8x8_cad.c ****       if ( in_transfer != 0 )
 1500              		.loc 1 544 0
 1501 001a 284B     		ldr	r3, .L138
 1502 001c 1B7C     		ldrb	r3, [r3, #16]	@ zero_extendqisi2
 1503 001e 0BB1     		cbz	r3, .L130
 545:..\u8g2\csrc/u8x8_cad.c **** 	 u8x8_byte_EndTransfer(u8x8); 
 1504              		.loc 1 545 0
 1505 0020 FFF7FEFF 		bl	u8x8_byte_EndTransfer
 1506              	.LVL221:
 1507              	.L130:
 546:..\u8g2\csrc/u8x8_cad.c ****       
 547:..\u8g2\csrc/u8x8_cad.c ****       u8x8_byte_StartTransfer(u8x8);
 1508              		.loc 1 547 0
 1509 0024 3046     		mov	r0, r6
 1510 0026 FFF7FEFF 		bl	u8x8_byte_StartTransfer
 1511              	.LVL222:
 548:..\u8g2\csrc/u8x8_cad.c ****       u8x8_byte_SendByte(u8x8, 0x000);	/* cmd byte for ssd13xx controller */
 1512              		.loc 1 548 0
 1513 002a 0021     		movs	r1, #0
 1514 002c 3046     		mov	r0, r6
 1515 002e FFF7FEFF 		bl	u8x8_byte_SendByte
 1516              	.LVL223:
 549:..\u8g2\csrc/u8x8_cad.c ****       u8x8_byte_SendByte(u8x8, arg_int);
 1517              		.loc 1 549 0
 1518 0032 2146     		mov	r1, r4
 1519 0034 3046     		mov	r0, r6
 1520 0036 FFF7FEFF 		bl	u8x8_byte_SendByte
 1521              	.LVL224:
 550:..\u8g2\csrc/u8x8_cad.c ****       in_transfer = 1;
 1522              		.loc 1 550 0
 1523 003a 0120     		movs	r0, #1
 1524 003c 1F4B     		ldr	r3, .L138
 1525 003e 1874     		strb	r0, [r3, #16]
 551:..\u8g2\csrc/u8x8_cad.c ****       /* lightning version: can replace the improved version from above */
 552:..\u8g2\csrc/u8x8_cad.c ****       /* the drawback of the lightning version is this: The complete init sequence */
 553:..\u8g2\csrc/u8x8_cad.c ****       /* must fit into the 32 byte Arduino Wire buffer, which might not always be the case */
 554:..\u8g2\csrc/u8x8_cad.c ****       /* speed improvement is about 6% compared to the classic version */
ARM GAS  C:\Users\brian\AppData\Local\Temp\cclOaW4l.s 			page 41


 555:..\u8g2\csrc/u8x8_cad.c ****       // if ( in_transfer == 0 )
 556:..\u8g2\csrc/u8x8_cad.c **** 	// {
 557:..\u8g2\csrc/u8x8_cad.c **** 	//   u8x8_byte_StartTransfer(u8x8);
 558:..\u8g2\csrc/u8x8_cad.c **** 	//   u8x8_byte_SendByte(u8x8, 0x000);	/* cmd byte for ssd13xx controller */
 559:..\u8g2\csrc/u8x8_cad.c **** 	//   in_transfer = 1;
 560:..\u8g2\csrc/u8x8_cad.c **** 	// }
 561:..\u8g2\csrc/u8x8_cad.c **** 	//u8x8_byte_SendByte(u8x8, arg_int);
 562:..\u8g2\csrc/u8x8_cad.c ****       break;
 1526              		.loc 1 562 0
 1527 0040 F8BD     		pop	{r3, r4, r5, r6, r7, pc}
 1528              	.LVL225:
 1529              	.L126:
 563:..\u8g2\csrc/u8x8_cad.c ****     case U8X8_MSG_CAD_SEND_ARG:
 564:..\u8g2\csrc/u8x8_cad.c ****       u8x8_byte_SendByte(u8x8, arg_int);
 1530              		.loc 1 564 0
 1531 0042 2146     		mov	r1, r4
 1532              	.LVL226:
 1533 0044 FFF7FEFF 		bl	u8x8_byte_SendByte
 1534              	.LVL227:
 565:..\u8g2\csrc/u8x8_cad.c ****       break;      
 566:..\u8g2\csrc/u8x8_cad.c ****     case U8X8_MSG_CAD_SEND_DATA:
 567:..\u8g2\csrc/u8x8_cad.c ****       if ( in_transfer != 0 )
 568:..\u8g2\csrc/u8x8_cad.c **** 	u8x8_byte_EndTransfer(u8x8); 
 569:..\u8g2\csrc/u8x8_cad.c ****       
 570:..\u8g2\csrc/u8x8_cad.c ****     
 571:..\u8g2\csrc/u8x8_cad.c ****       /* the FeatherWing OLED with the 32u4 transfer of long byte */
 572:..\u8g2\csrc/u8x8_cad.c ****       /* streams was not possible. This is broken down to */
 573:..\u8g2\csrc/u8x8_cad.c ****       /* smaller streams, 32 seems to be the limit... */
 574:..\u8g2\csrc/u8x8_cad.c ****       /* I guess this is related to the size of the Wire buffers in Arduino */
 575:..\u8g2\csrc/u8x8_cad.c ****       /* Unfortunately, this can not be handled in the byte level drivers, */
 576:..\u8g2\csrc/u8x8_cad.c ****       /* so this is done here. Even further, only 24 bytes will be sent, */
 577:..\u8g2\csrc/u8x8_cad.c ****       /* because there will be another byte (DC) required during the transfer */
 578:..\u8g2\csrc/u8x8_cad.c ****       p = arg_ptr;
 579:..\u8g2\csrc/u8x8_cad.c ****        while( arg_int > 24 )
 580:..\u8g2\csrc/u8x8_cad.c ****       {
 581:..\u8g2\csrc/u8x8_cad.c **** 	u8x8_i2c_data_transfer(u8x8, 24, p);
 582:..\u8g2\csrc/u8x8_cad.c **** 	arg_int-=24;
 583:..\u8g2\csrc/u8x8_cad.c **** 	p+=24;
 584:..\u8g2\csrc/u8x8_cad.c ****       }
 585:..\u8g2\csrc/u8x8_cad.c ****       u8x8_i2c_data_transfer(u8x8, arg_int, p);
 586:..\u8g2\csrc/u8x8_cad.c ****       in_transfer = 0;
 587:..\u8g2\csrc/u8x8_cad.c ****       break;
 588:..\u8g2\csrc/u8x8_cad.c ****     case U8X8_MSG_CAD_INIT:
 589:..\u8g2\csrc/u8x8_cad.c ****       /* apply default i2c adr if required so that the start transfer msg can use this */
 590:..\u8g2\csrc/u8x8_cad.c ****       if ( u8x8->i2c_address == 255 )
 591:..\u8g2\csrc/u8x8_cad.c **** 	u8x8->i2c_address = 0x078;
 592:..\u8g2\csrc/u8x8_cad.c ****       return u8x8->byte_cb(u8x8, msg, arg_int, arg_ptr);
 593:..\u8g2\csrc/u8x8_cad.c ****     case U8X8_MSG_CAD_START_TRANSFER:
 594:..\u8g2\csrc/u8x8_cad.c ****       in_transfer = 0;
 595:..\u8g2\csrc/u8x8_cad.c ****       break;
 596:..\u8g2\csrc/u8x8_cad.c ****     case U8X8_MSG_CAD_END_TRANSFER:
 597:..\u8g2\csrc/u8x8_cad.c ****       if ( in_transfer != 0 )
 598:..\u8g2\csrc/u8x8_cad.c **** 	u8x8_byte_EndTransfer(u8x8); 
 599:..\u8g2\csrc/u8x8_cad.c ****       in_transfer = 0;
 600:..\u8g2\csrc/u8x8_cad.c ****       break;
 601:..\u8g2\csrc/u8x8_cad.c ****     default:
 602:..\u8g2\csrc/u8x8_cad.c ****       return 0;
ARM GAS  C:\Users\brian\AppData\Local\Temp\cclOaW4l.s 			page 42


 603:..\u8g2\csrc/u8x8_cad.c ****   }
 604:..\u8g2\csrc/u8x8_cad.c ****   return 1;
 1535              		.loc 1 604 0
 1536 0048 0120     		movs	r0, #1
 565:..\u8g2\csrc/u8x8_cad.c ****       break;      
 1537              		.loc 1 565 0
 1538 004a F8BD     		pop	{r3, r4, r5, r6, r7, pc}
 1539              	.LVL228:
 1540              	.L127:
 567:..\u8g2\csrc/u8x8_cad.c **** 	u8x8_byte_EndTransfer(u8x8); 
 1541              		.loc 1 567 0
 1542 004c 1B4B     		ldr	r3, .L138
 1543 004e 1B7C     		ldrb	r3, [r3, #16]	@ zero_extendqisi2
 1544 0050 53B1     		cbz	r3, .L132
 568:..\u8g2\csrc/u8x8_cad.c ****       
 1545              		.loc 1 568 0
 1546 0052 FFF7FEFF 		bl	u8x8_byte_EndTransfer
 1547              	.LVL229:
 1548 0056 07E0     		b	.L132
 1549              	.LVL230:
 1550              	.L133:
 581:..\u8g2\csrc/u8x8_cad.c **** 	arg_int-=24;
 1551              		.loc 1 581 0
 1552 0058 2A46     		mov	r2, r5
 1553 005a 1821     		movs	r1, #24
 1554 005c 3046     		mov	r0, r6
 1555 005e FFF7FEFF 		bl	u8x8_i2c_data_transfer
 1556              	.LVL231:
 582:..\u8g2\csrc/u8x8_cad.c **** 	p+=24;
 1557              		.loc 1 582 0
 1558 0062 183C     		subs	r4, r4, #24
 1559              	.LVL232:
 1560 0064 E4B2     		uxtb	r4, r4
 1561              	.LVL233:
 583:..\u8g2\csrc/u8x8_cad.c ****       }
 1562              		.loc 1 583 0
 1563 0066 1835     		adds	r5, r5, #24
 1564              	.LVL234:
 1565              	.L132:
 579:..\u8g2\csrc/u8x8_cad.c ****       {
 1566              		.loc 1 579 0
 1567 0068 182C     		cmp	r4, #24
 1568 006a F5D8     		bhi	.L133
 585:..\u8g2\csrc/u8x8_cad.c ****       in_transfer = 0;
 1569              		.loc 1 585 0
 1570 006c 2A46     		mov	r2, r5
 1571 006e 2146     		mov	r1, r4
 1572 0070 3046     		mov	r0, r6
 1573 0072 FFF7FEFF 		bl	u8x8_i2c_data_transfer
 1574              	.LVL235:
 586:..\u8g2\csrc/u8x8_cad.c ****       break;
 1575              		.loc 1 586 0
 1576 0076 0022     		movs	r2, #0
 1577 0078 104B     		ldr	r3, .L138
 1578 007a 1A74     		strb	r2, [r3, #16]
 1579              		.loc 1 604 0
 1580 007c 0120     		movs	r0, #1
ARM GAS  C:\Users\brian\AppData\Local\Temp\cclOaW4l.s 			page 43


 587:..\u8g2\csrc/u8x8_cad.c ****     case U8X8_MSG_CAD_INIT:
 1581              		.loc 1 587 0
 1582 007e F8BD     		pop	{r3, r4, r5, r6, r7, pc}
 1583              	.LVL236:
 1584              	.L123:
 590:..\u8g2\csrc/u8x8_cad.c **** 	u8x8->i2c_address = 0x078;
 1585              		.loc 1 590 0
 1586 0080 90F82430 		ldrb	r3, [r0, #36]	@ zero_extendqisi2
 1587 0084 FF2B     		cmp	r3, #255
 1588 0086 02D1     		bne	.L134
 591:..\u8g2\csrc/u8x8_cad.c ****       return u8x8->byte_cb(u8x8, msg, arg_int, arg_ptr);
 1589              		.loc 1 591 0
 1590 0088 7823     		movs	r3, #120
 1591 008a 80F82430 		strb	r3, [r0, #36]
 1592              	.L134:
 592:..\u8g2\csrc/u8x8_cad.c ****     case U8X8_MSG_CAD_START_TRANSFER:
 1593              		.loc 1 592 0
 1594 008e 3769     		ldr	r7, [r6, #16]
 1595 0090 2B46     		mov	r3, r5
 1596 0092 2246     		mov	r2, r4
 1597 0094 3046     		mov	r0, r6
 1598              	.LVL237:
 1599 0096 B847     		blx	r7
 1600              	.LVL238:
 1601 0098 F8BD     		pop	{r3, r4, r5, r6, r7, pc}
 1602              	.LVL239:
 1603              	.L128:
 594:..\u8g2\csrc/u8x8_cad.c ****       break;
 1604              		.loc 1 594 0
 1605 009a 0022     		movs	r2, #0
 1606 009c 074B     		ldr	r3, .L138
 1607 009e 1A74     		strb	r2, [r3, #16]
 1608              		.loc 1 604 0
 1609 00a0 0120     		movs	r0, #1
 1610              	.LVL240:
 595:..\u8g2\csrc/u8x8_cad.c ****     case U8X8_MSG_CAD_END_TRANSFER:
 1611              		.loc 1 595 0
 1612 00a2 F8BD     		pop	{r3, r4, r5, r6, r7, pc}
 1613              	.LVL241:
 1614              	.L129:
 597:..\u8g2\csrc/u8x8_cad.c **** 	u8x8_byte_EndTransfer(u8x8); 
 1615              		.loc 1 597 0
 1616 00a4 054B     		ldr	r3, .L138
 1617 00a6 1B7C     		ldrb	r3, [r3, #16]	@ zero_extendqisi2
 1618 00a8 0BB1     		cbz	r3, .L135
 598:..\u8g2\csrc/u8x8_cad.c ****       in_transfer = 0;
 1619              		.loc 1 598 0
 1620 00aa FFF7FEFF 		bl	u8x8_byte_EndTransfer
 1621              	.LVL242:
 1622              	.L135:
 599:..\u8g2\csrc/u8x8_cad.c ****       break;
 1623              		.loc 1 599 0
 1624 00ae 0022     		movs	r2, #0
 1625 00b0 024B     		ldr	r3, .L138
 1626 00b2 1A74     		strb	r2, [r3, #16]
 1627              		.loc 1 604 0
 1628 00b4 0120     		movs	r0, #1
ARM GAS  C:\Users\brian\AppData\Local\Temp\cclOaW4l.s 			page 44


 600:..\u8g2\csrc/u8x8_cad.c ****     default:
 1629              		.loc 1 600 0
 1630 00b6 F8BD     		pop	{r3, r4, r5, r6, r7, pc}
 1631              	.LVL243:
 1632              	.L136:
 602:..\u8g2\csrc/u8x8_cad.c ****   }
 1633              		.loc 1 602 0
 1634 00b8 0020     		movs	r0, #0
 1635              	.LVL244:
 605:..\u8g2\csrc/u8x8_cad.c **** }
 1636              		.loc 1 605 0
 1637 00ba F8BD     		pop	{r3, r4, r5, r6, r7, pc}
 1638              	.LVL245:
 1639              	.L139:
 1640              		.align	2
 1641              	.L138:
 1642 00bc 00000000 		.word	.LANCHOR0
 1643              		.cfi_endproc
 1644              	.LFE18:
 1645              		.size	u8x8_cad_ssd13xx_fast_i2c, .-u8x8_cad_ssd13xx_fast_i2c
 1646              		.section	.text.u8x8_cad_st75256_i2c,"ax",%progbits
 1647              		.align	2
 1648              		.global	u8x8_cad_st75256_i2c
 1649              		.thumb
 1650              		.thumb_func
 1651              		.type	u8x8_cad_st75256_i2c, %function
 1652              	u8x8_cad_st75256_i2c:
 1653              	.LFB19:
 606:..\u8g2\csrc/u8x8_cad.c **** 
 607:..\u8g2\csrc/u8x8_cad.c **** 
 608:..\u8g2\csrc/u8x8_cad.c **** 
 609:..\u8g2\csrc/u8x8_cad.c **** /* the st75256 i2c driver is a copy of the ssd13xx driver, but with arg=1 */
 610:..\u8g2\csrc/u8x8_cad.c **** /* modified from cad001 (ssd13xx) to cad011 */
 611:..\u8g2\csrc/u8x8_cad.c **** uint8_t u8x8_cad_st75256_i2c(u8x8_t *u8x8, uint8_t msg, uint8_t arg_int, void *arg_ptr)
 612:..\u8g2\csrc/u8x8_cad.c **** {
 1654              		.loc 1 612 0
 1655              		.cfi_startproc
 1656              		@ args = 0, pretend = 0, frame = 0
 1657              		@ frame_needed = 0, uses_anonymous_args = 0
 1658              	.LVL246:
 1659 0000 F8B5     		push	{r3, r4, r5, r6, r7, lr}
 1660              		.cfi_def_cfa_offset 24
 1661              		.cfi_offset 3, -24
 1662              		.cfi_offset 4, -20
 1663              		.cfi_offset 5, -16
 1664              		.cfi_offset 6, -12
 1665              		.cfi_offset 7, -8
 1666              		.cfi_offset 14, -4
 1667 0002 0646     		mov	r6, r0
 1668 0004 1446     		mov	r4, r2
 1669 0006 1D46     		mov	r5, r3
 613:..\u8g2\csrc/u8x8_cad.c ****   uint8_t *p;
 614:..\u8g2\csrc/u8x8_cad.c ****   switch(msg)
 1670              		.loc 1 614 0
 1671 0008 A1F11403 		sub	r3, r1, #20
 1672              	.LVL247:
 1673 000c 052B     		cmp	r3, #5
ARM GAS  C:\Users\brian\AppData\Local\Temp\cclOaW4l.s 			page 45


 1674 000e 04D8     		bhi	.L141
 1675 0010 DFE803F0 		tbb	[pc, r3]
 1676              	.LVL248:
 1677              	.L143:
 1678 0014 34       		.byte	(.L142-.L143)/2
 1679 0015 05       		.byte	(.L144-.L143)/2
 1680 0016 14       		.byte	(.L145-.L143)/2
 1681 0017 2B       		.byte	(.L146-.L143)/2
 1682 0018 41       		.byte	(.L150-.L143)/2
 1683 0019 41       		.byte	(.L150-.L143)/2
 1684              		.p2align 1
 1685              	.L141:
 615:..\u8g2\csrc/u8x8_cad.c ****   {
 616:..\u8g2\csrc/u8x8_cad.c ****     case U8X8_MSG_CAD_SEND_CMD:
 617:..\u8g2\csrc/u8x8_cad.c ****       u8x8_byte_StartTransfer(u8x8);
 618:..\u8g2\csrc/u8x8_cad.c ****       u8x8_byte_SendByte(u8x8, 0x000);
 619:..\u8g2\csrc/u8x8_cad.c ****       u8x8_byte_SendByte(u8x8, arg_int);
 620:..\u8g2\csrc/u8x8_cad.c ****       u8x8_byte_EndTransfer(u8x8);      
 621:..\u8g2\csrc/u8x8_cad.c ****       break;
 622:..\u8g2\csrc/u8x8_cad.c ****     case U8X8_MSG_CAD_SEND_ARG:
 623:..\u8g2\csrc/u8x8_cad.c ****       u8x8_byte_StartTransfer(u8x8);
 624:..\u8g2\csrc/u8x8_cad.c ****       u8x8_byte_SendByte(u8x8, 0x040);
 625:..\u8g2\csrc/u8x8_cad.c ****       u8x8_byte_SendByte(u8x8, arg_int);
 626:..\u8g2\csrc/u8x8_cad.c ****       u8x8_byte_EndTransfer(u8x8);
 627:..\u8g2\csrc/u8x8_cad.c ****       break;
 628:..\u8g2\csrc/u8x8_cad.c ****     case U8X8_MSG_CAD_SEND_DATA:
 629:..\u8g2\csrc/u8x8_cad.c ****       /* see ssd13xx driver */
 630:..\u8g2\csrc/u8x8_cad.c ****       p = arg_ptr;
 631:..\u8g2\csrc/u8x8_cad.c ****        while( arg_int > 24 )
 632:..\u8g2\csrc/u8x8_cad.c ****       {
 633:..\u8g2\csrc/u8x8_cad.c **** 	u8x8_i2c_data_transfer(u8x8, 24, p);
 634:..\u8g2\csrc/u8x8_cad.c **** 	arg_int-=24;
 635:..\u8g2\csrc/u8x8_cad.c **** 	p+=24;
 636:..\u8g2\csrc/u8x8_cad.c ****       }
 637:..\u8g2\csrc/u8x8_cad.c ****       u8x8_i2c_data_transfer(u8x8, arg_int, p);
 638:..\u8g2\csrc/u8x8_cad.c ****       break;
 639:..\u8g2\csrc/u8x8_cad.c ****     case U8X8_MSG_CAD_INIT:
 640:..\u8g2\csrc/u8x8_cad.c ****       /* apply default i2c adr if required so that the start transfer msg can use this */
 641:..\u8g2\csrc/u8x8_cad.c ****       if ( u8x8->i2c_address == 255 )
 642:..\u8g2\csrc/u8x8_cad.c **** 	u8x8->i2c_address = 0x078;	/* ST75256, often this is 0x07e */
 643:..\u8g2\csrc/u8x8_cad.c ****       return u8x8->byte_cb(u8x8, msg, arg_int, arg_ptr);
 644:..\u8g2\csrc/u8x8_cad.c ****     case U8X8_MSG_CAD_START_TRANSFER:
 645:..\u8g2\csrc/u8x8_cad.c ****     case U8X8_MSG_CAD_END_TRANSFER:
 646:..\u8g2\csrc/u8x8_cad.c ****       /* cad transfer commands are ignored */
 647:..\u8g2\csrc/u8x8_cad.c ****       break;
 648:..\u8g2\csrc/u8x8_cad.c ****     default:
 649:..\u8g2\csrc/u8x8_cad.c ****       return 0;
 1686              		.loc 1 649 0
 1687 001a 0020     		movs	r0, #0
 1688              	.LVL249:
 1689 001c F8BD     		pop	{r3, r4, r5, r6, r7, pc}
 1690              	.LVL250:
 1691              	.L144:
 617:..\u8g2\csrc/u8x8_cad.c ****       u8x8_byte_SendByte(u8x8, 0x000);
 1692              		.loc 1 617 0
 1693 001e FFF7FEFF 		bl	u8x8_byte_StartTransfer
 1694              	.LVL251:
ARM GAS  C:\Users\brian\AppData\Local\Temp\cclOaW4l.s 			page 46


 618:..\u8g2\csrc/u8x8_cad.c ****       u8x8_byte_SendByte(u8x8, arg_int);
 1695              		.loc 1 618 0
 1696 0022 0021     		movs	r1, #0
 1697 0024 3046     		mov	r0, r6
 1698 0026 FFF7FEFF 		bl	u8x8_byte_SendByte
 1699              	.LVL252:
 619:..\u8g2\csrc/u8x8_cad.c ****       u8x8_byte_EndTransfer(u8x8);      
 1700              		.loc 1 619 0
 1701 002a 2146     		mov	r1, r4
 1702 002c 3046     		mov	r0, r6
 1703 002e FFF7FEFF 		bl	u8x8_byte_SendByte
 1704              	.LVL253:
 620:..\u8g2\csrc/u8x8_cad.c ****       break;
 1705              		.loc 1 620 0
 1706 0032 3046     		mov	r0, r6
 1707 0034 FFF7FEFF 		bl	u8x8_byte_EndTransfer
 1708              	.LVL254:
 650:..\u8g2\csrc/u8x8_cad.c ****   }
 651:..\u8g2\csrc/u8x8_cad.c ****   return 1;
 1709              		.loc 1 651 0
 1710 0038 0120     		movs	r0, #1
 621:..\u8g2\csrc/u8x8_cad.c ****     case U8X8_MSG_CAD_SEND_ARG:
 1711              		.loc 1 621 0
 1712 003a F8BD     		pop	{r3, r4, r5, r6, r7, pc}
 1713              	.LVL255:
 1714              	.L145:
 623:..\u8g2\csrc/u8x8_cad.c ****       u8x8_byte_SendByte(u8x8, 0x040);
 1715              		.loc 1 623 0
 1716 003c FFF7FEFF 		bl	u8x8_byte_StartTransfer
 1717              	.LVL256:
 624:..\u8g2\csrc/u8x8_cad.c ****       u8x8_byte_SendByte(u8x8, arg_int);
 1718              		.loc 1 624 0
 1719 0040 4021     		movs	r1, #64
 1720 0042 3046     		mov	r0, r6
 1721 0044 FFF7FEFF 		bl	u8x8_byte_SendByte
 1722              	.LVL257:
 625:..\u8g2\csrc/u8x8_cad.c ****       u8x8_byte_EndTransfer(u8x8);
 1723              		.loc 1 625 0
 1724 0048 2146     		mov	r1, r4
 1725 004a 3046     		mov	r0, r6
 1726 004c FFF7FEFF 		bl	u8x8_byte_SendByte
 1727              	.LVL258:
 626:..\u8g2\csrc/u8x8_cad.c ****       break;
 1728              		.loc 1 626 0
 1729 0050 3046     		mov	r0, r6
 1730 0052 FFF7FEFF 		bl	u8x8_byte_EndTransfer
 1731              	.LVL259:
 1732              		.loc 1 651 0
 1733 0056 0120     		movs	r0, #1
 627:..\u8g2\csrc/u8x8_cad.c ****     case U8X8_MSG_CAD_SEND_DATA:
 1734              		.loc 1 627 0
 1735 0058 F8BD     		pop	{r3, r4, r5, r6, r7, pc}
 1736              	.LVL260:
 1737              	.L148:
 633:..\u8g2\csrc/u8x8_cad.c **** 	arg_int-=24;
 1738              		.loc 1 633 0
 1739 005a 2A46     		mov	r2, r5
ARM GAS  C:\Users\brian\AppData\Local\Temp\cclOaW4l.s 			page 47


 1740 005c 1821     		movs	r1, #24
 1741 005e 3046     		mov	r0, r6
 1742 0060 FFF7FEFF 		bl	u8x8_i2c_data_transfer
 1743              	.LVL261:
 634:..\u8g2\csrc/u8x8_cad.c **** 	p+=24;
 1744              		.loc 1 634 0
 1745 0064 183C     		subs	r4, r4, #24
 1746              	.LVL262:
 1747 0066 E4B2     		uxtb	r4, r4
 1748              	.LVL263:
 635:..\u8g2\csrc/u8x8_cad.c ****       }
 1749              		.loc 1 635 0
 1750 0068 1835     		adds	r5, r5, #24
 1751              	.LVL264:
 1752              	.L146:
 631:..\u8g2\csrc/u8x8_cad.c ****       {
 1753              		.loc 1 631 0
 1754 006a 182C     		cmp	r4, #24
 1755 006c F5D8     		bhi	.L148
 637:..\u8g2\csrc/u8x8_cad.c ****       break;
 1756              		.loc 1 637 0
 1757 006e 2A46     		mov	r2, r5
 1758 0070 2146     		mov	r1, r4
 1759 0072 3046     		mov	r0, r6
 1760 0074 FFF7FEFF 		bl	u8x8_i2c_data_transfer
 1761              	.LVL265:
 1762              		.loc 1 651 0
 1763 0078 0120     		movs	r0, #1
 638:..\u8g2\csrc/u8x8_cad.c ****     case U8X8_MSG_CAD_INIT:
 1764              		.loc 1 638 0
 1765 007a F8BD     		pop	{r3, r4, r5, r6, r7, pc}
 1766              	.LVL266:
 1767              	.L142:
 641:..\u8g2\csrc/u8x8_cad.c **** 	u8x8->i2c_address = 0x078;	/* ST75256, often this is 0x07e */
 1768              		.loc 1 641 0
 1769 007c 90F82430 		ldrb	r3, [r0, #36]	@ zero_extendqisi2
 1770 0080 FF2B     		cmp	r3, #255
 1771 0082 02D1     		bne	.L149
 642:..\u8g2\csrc/u8x8_cad.c ****       return u8x8->byte_cb(u8x8, msg, arg_int, arg_ptr);
 1772              		.loc 1 642 0
 1773 0084 7823     		movs	r3, #120
 1774 0086 80F82430 		strb	r3, [r0, #36]
 1775              	.L149:
 643:..\u8g2\csrc/u8x8_cad.c ****     case U8X8_MSG_CAD_START_TRANSFER:
 1776              		.loc 1 643 0
 1777 008a 3769     		ldr	r7, [r6, #16]
 1778 008c 2B46     		mov	r3, r5
 1779 008e 2246     		mov	r2, r4
 1780 0090 3046     		mov	r0, r6
 1781              	.LVL267:
 1782 0092 B847     		blx	r7
 1783              	.LVL268:
 1784 0094 F8BD     		pop	{r3, r4, r5, r6, r7, pc}
 1785              	.LVL269:
 1786              	.L150:
 1787              		.loc 1 651 0
 1788 0096 0120     		movs	r0, #1
ARM GAS  C:\Users\brian\AppData\Local\Temp\cclOaW4l.s 			page 48


 1789              	.LVL270:
 652:..\u8g2\csrc/u8x8_cad.c **** }
 1790              		.loc 1 652 0
 1791 0098 F8BD     		pop	{r3, r4, r5, r6, r7, pc}
 1792              		.cfi_endproc
 1793              	.LFE19:
 1794              		.size	u8x8_cad_st75256_i2c, .-u8x8_cad_st75256_i2c
 1795 009a 00BF     		.section	.text.u8x8_cad_ld7032_i2c,"ax",%progbits
 1796              		.align	2
 1797              		.global	u8x8_cad_ld7032_i2c
 1798              		.thumb
 1799              		.thumb_func
 1800              		.type	u8x8_cad_ld7032_i2c, %function
 1801              	u8x8_cad_ld7032_i2c:
 1802              	.LFB20:
 653:..\u8g2\csrc/u8x8_cad.c **** 
 654:..\u8g2\csrc/u8x8_cad.c **** /* cad i2c procedure for the ld7032 controller */
 655:..\u8g2\csrc/u8x8_cad.c **** /* Issue https://github.com/olikraus/u8g2/issues/865 mentiones, that I2C does not work */
 656:..\u8g2\csrc/u8x8_cad.c **** /* Workaround is to remove the while loop (or increase the value in the condition) */
 657:..\u8g2\csrc/u8x8_cad.c **** uint8_t u8x8_cad_ld7032_i2c(u8x8_t *u8x8, uint8_t msg, uint8_t arg_int, void *arg_ptr)
 658:..\u8g2\csrc/u8x8_cad.c **** {
 1803              		.loc 1 658 0
 1804              		.cfi_startproc
 1805              		@ args = 0, pretend = 0, frame = 0
 1806              		@ frame_needed = 0, uses_anonymous_args = 0
 1807              	.LVL271:
 1808 0000 F8B5     		push	{r3, r4, r5, r6, r7, lr}
 1809              		.cfi_def_cfa_offset 24
 1810              		.cfi_offset 3, -24
 1811              		.cfi_offset 4, -20
 1812              		.cfi_offset 5, -16
 1813              		.cfi_offset 6, -12
 1814              		.cfi_offset 7, -8
 1815              		.cfi_offset 14, -4
 1816 0002 0446     		mov	r4, r0
 1817 0004 1546     		mov	r5, r2
 1818 0006 1E46     		mov	r6, r3
 659:..\u8g2\csrc/u8x8_cad.c ****   static uint8_t in_transfer = 0;
 660:..\u8g2\csrc/u8x8_cad.c ****   uint8_t *p;
 661:..\u8g2\csrc/u8x8_cad.c ****   switch(msg)
 1819              		.loc 1 661 0
 1820 0008 A1F11403 		sub	r3, r1, #20
 1821              	.LVL272:
 1822 000c 052B     		cmp	r3, #5
 1823 000e 4FD8     		bhi	.L164
 1824 0010 DFE803F0 		tbb	[pc, r3]
 1825              	.LVL273:
 1826              	.L155:
 1827 0014 35       		.byte	(.L154-.L155)/2
 1828 0015 03       		.byte	(.L156-.L155)/2
 1829 0016 13       		.byte	(.L157-.L155)/2
 1830 0017 2B       		.byte	(.L158-.L155)/2
 1831 0018 42       		.byte	(.L159-.L155)/2
 1832 0019 47       		.byte	(.L160-.L155)/2
 1833              		.p2align 1
 1834              	.L156:
 662:..\u8g2\csrc/u8x8_cad.c ****   {
ARM GAS  C:\Users\brian\AppData\Local\Temp\cclOaW4l.s 			page 49


 663:..\u8g2\csrc/u8x8_cad.c ****     case U8X8_MSG_CAD_SEND_CMD:
 664:..\u8g2\csrc/u8x8_cad.c ****       if ( in_transfer != 0 )
 1835              		.loc 1 664 0
 1836 001a 274B     		ldr	r3, .L167
 1837 001c 5B7C     		ldrb	r3, [r3, #17]	@ zero_extendqisi2
 1838 001e 0BB1     		cbz	r3, .L161
 665:..\u8g2\csrc/u8x8_cad.c **** 	u8x8_byte_EndTransfer(u8x8); 
 1839              		.loc 1 665 0
 1840 0020 FFF7FEFF 		bl	u8x8_byte_EndTransfer
 1841              	.LVL274:
 1842              	.L161:
 666:..\u8g2\csrc/u8x8_cad.c ****       u8x8_byte_StartTransfer(u8x8);
 1843              		.loc 1 666 0
 1844 0024 2046     		mov	r0, r4
 1845 0026 FFF7FEFF 		bl	u8x8_byte_StartTransfer
 1846              	.LVL275:
 667:..\u8g2\csrc/u8x8_cad.c ****       u8x8_byte_SendByte(u8x8, arg_int);
 1847              		.loc 1 667 0
 1848 002a 2946     		mov	r1, r5
 1849 002c 2046     		mov	r0, r4
 1850 002e FFF7FEFF 		bl	u8x8_byte_SendByte
 1851              	.LVL276:
 668:..\u8g2\csrc/u8x8_cad.c ****       in_transfer = 1;
 1852              		.loc 1 668 0
 1853 0032 0120     		movs	r0, #1
 1854 0034 204B     		ldr	r3, .L167
 1855 0036 5874     		strb	r0, [r3, #17]
 669:..\u8g2\csrc/u8x8_cad.c ****       break;
 1856              		.loc 1 669 0
 1857 0038 F8BD     		pop	{r3, r4, r5, r6, r7, pc}
 1858              	.LVL277:
 1859              	.L157:
 670:..\u8g2\csrc/u8x8_cad.c ****     case U8X8_MSG_CAD_SEND_ARG:
 671:..\u8g2\csrc/u8x8_cad.c ****       u8x8_byte_SendByte(u8x8, arg_int);
 1860              		.loc 1 671 0
 1861 003a 2946     		mov	r1, r5
 1862              	.LVL278:
 1863 003c FFF7FEFF 		bl	u8x8_byte_SendByte
 1864              	.LVL279:
 672:..\u8g2\csrc/u8x8_cad.c ****       break;
 673:..\u8g2\csrc/u8x8_cad.c ****     case U8X8_MSG_CAD_SEND_DATA:
 674:..\u8g2\csrc/u8x8_cad.c ****       //u8x8_byte_SetDC(u8x8, 1);
 675:..\u8g2\csrc/u8x8_cad.c ****     
 676:..\u8g2\csrc/u8x8_cad.c ****       /* the FeatherWing OLED with the 32u4 transfer of long byte */
 677:..\u8g2\csrc/u8x8_cad.c ****       /* streams was not possible. This is broken down to */
 678:..\u8g2\csrc/u8x8_cad.c ****       /* smaller streams, 32 seems to be the limit... */
 679:..\u8g2\csrc/u8x8_cad.c ****       /* I guess this is related to the size of the Wire buffers in Arduino */
 680:..\u8g2\csrc/u8x8_cad.c ****       /* Unfortunately, this can not be handled in the byte level drivers, */
 681:..\u8g2\csrc/u8x8_cad.c ****       /* so this is done here. Even further, only 24 bytes will be sent, */
 682:..\u8g2\csrc/u8x8_cad.c ****       /* because there will be another byte (DC) required during the transfer */
 683:..\u8g2\csrc/u8x8_cad.c ****       p = arg_ptr;
 684:..\u8g2\csrc/u8x8_cad.c ****        while( arg_int > 24 )
 685:..\u8g2\csrc/u8x8_cad.c ****       {
 686:..\u8g2\csrc/u8x8_cad.c **** 	u8x8->byte_cb(u8x8, U8X8_MSG_CAD_SEND_DATA, 24, p);
 687:..\u8g2\csrc/u8x8_cad.c **** 	arg_int-=24;
 688:..\u8g2\csrc/u8x8_cad.c **** 	p+=24;
 689:..\u8g2\csrc/u8x8_cad.c **** 	u8x8_byte_EndTransfer(u8x8); 
ARM GAS  C:\Users\brian\AppData\Local\Temp\cclOaW4l.s 			page 50


 690:..\u8g2\csrc/u8x8_cad.c **** 	u8x8_byte_StartTransfer(u8x8);
 691:..\u8g2\csrc/u8x8_cad.c **** 	u8x8_byte_SendByte(u8x8, 0x08);	/* data write for LD7032 */
 692:..\u8g2\csrc/u8x8_cad.c ****       }
 693:..\u8g2\csrc/u8x8_cad.c ****       u8x8->byte_cb(u8x8, U8X8_MSG_CAD_SEND_DATA, arg_int, p);
 694:..\u8g2\csrc/u8x8_cad.c ****       break;
 695:..\u8g2\csrc/u8x8_cad.c ****     case U8X8_MSG_CAD_INIT:
 696:..\u8g2\csrc/u8x8_cad.c ****       /* apply default i2c adr if required so that the start transfer msg can use this */
 697:..\u8g2\csrc/u8x8_cad.c ****       if ( u8x8->i2c_address == 255 )
 698:..\u8g2\csrc/u8x8_cad.c **** 	u8x8->i2c_address = 0x060;
 699:..\u8g2\csrc/u8x8_cad.c ****       return u8x8->byte_cb(u8x8, msg, arg_int, arg_ptr);
 700:..\u8g2\csrc/u8x8_cad.c ****     case U8X8_MSG_CAD_START_TRANSFER:
 701:..\u8g2\csrc/u8x8_cad.c ****       in_transfer = 0;
 702:..\u8g2\csrc/u8x8_cad.c ****       break;
 703:..\u8g2\csrc/u8x8_cad.c ****     case U8X8_MSG_CAD_END_TRANSFER:
 704:..\u8g2\csrc/u8x8_cad.c ****       if ( in_transfer != 0 )
 705:..\u8g2\csrc/u8x8_cad.c **** 	u8x8_byte_EndTransfer(u8x8); 
 706:..\u8g2\csrc/u8x8_cad.c ****       break;
 707:..\u8g2\csrc/u8x8_cad.c ****     default:
 708:..\u8g2\csrc/u8x8_cad.c ****       return 0;
 709:..\u8g2\csrc/u8x8_cad.c ****   }
 710:..\u8g2\csrc/u8x8_cad.c ****   return 1;
 1865              		.loc 1 710 0
 1866 0040 0120     		movs	r0, #1
 672:..\u8g2\csrc/u8x8_cad.c ****       break;
 1867              		.loc 1 672 0
 1868 0042 F8BD     		pop	{r3, r4, r5, r6, r7, pc}
 1869              	.LVL280:
 1870              	.L162:
 686:..\u8g2\csrc/u8x8_cad.c **** 	arg_int-=24;
 1871              		.loc 1 686 0
 1872 0044 2769     		ldr	r7, [r4, #16]
 1873 0046 3346     		mov	r3, r6
 1874 0048 1822     		movs	r2, #24
 1875 004a 1721     		movs	r1, #23
 1876 004c 2046     		mov	r0, r4
 1877 004e B847     		blx	r7
 1878              	.LVL281:
 687:..\u8g2\csrc/u8x8_cad.c **** 	p+=24;
 1879              		.loc 1 687 0
 1880 0050 183D     		subs	r5, r5, #24
 1881              	.LVL282:
 1882 0052 EDB2     		uxtb	r5, r5
 1883              	.LVL283:
 688:..\u8g2\csrc/u8x8_cad.c **** 	u8x8_byte_EndTransfer(u8x8); 
 1884              		.loc 1 688 0
 1885 0054 1836     		adds	r6, r6, #24
 1886              	.LVL284:
 689:..\u8g2\csrc/u8x8_cad.c **** 	u8x8_byte_StartTransfer(u8x8);
 1887              		.loc 1 689 0
 1888 0056 2046     		mov	r0, r4
 1889 0058 FFF7FEFF 		bl	u8x8_byte_EndTransfer
 1890              	.LVL285:
 690:..\u8g2\csrc/u8x8_cad.c **** 	u8x8_byte_SendByte(u8x8, 0x08);	/* data write for LD7032 */
 1891              		.loc 1 690 0
 1892 005c 2046     		mov	r0, r4
 1893 005e FFF7FEFF 		bl	u8x8_byte_StartTransfer
 1894              	.LVL286:
ARM GAS  C:\Users\brian\AppData\Local\Temp\cclOaW4l.s 			page 51


 691:..\u8g2\csrc/u8x8_cad.c ****       }
 1895              		.loc 1 691 0
 1896 0062 0821     		movs	r1, #8
 1897 0064 2046     		mov	r0, r4
 1898 0066 FFF7FEFF 		bl	u8x8_byte_SendByte
 1899              	.LVL287:
 1900              	.L158:
 684:..\u8g2\csrc/u8x8_cad.c ****       {
 1901              		.loc 1 684 0
 1902 006a 182D     		cmp	r5, #24
 1903 006c EAD8     		bhi	.L162
 693:..\u8g2\csrc/u8x8_cad.c ****       break;
 1904              		.loc 1 693 0
 1905 006e 2769     		ldr	r7, [r4, #16]
 1906 0070 3346     		mov	r3, r6
 1907 0072 2A46     		mov	r2, r5
 1908 0074 1721     		movs	r1, #23
 1909 0076 2046     		mov	r0, r4
 1910 0078 B847     		blx	r7
 1911              	.LVL288:
 1912              		.loc 1 710 0
 1913 007a 0120     		movs	r0, #1
 694:..\u8g2\csrc/u8x8_cad.c ****     case U8X8_MSG_CAD_INIT:
 1914              		.loc 1 694 0
 1915 007c F8BD     		pop	{r3, r4, r5, r6, r7, pc}
 1916              	.LVL289:
 1917              	.L154:
 697:..\u8g2\csrc/u8x8_cad.c **** 	u8x8->i2c_address = 0x060;
 1918              		.loc 1 697 0
 1919 007e 90F82430 		ldrb	r3, [r0, #36]	@ zero_extendqisi2
 1920 0082 FF2B     		cmp	r3, #255
 1921 0084 02D1     		bne	.L163
 698:..\u8g2\csrc/u8x8_cad.c ****       return u8x8->byte_cb(u8x8, msg, arg_int, arg_ptr);
 1922              		.loc 1 698 0
 1923 0086 6023     		movs	r3, #96
 1924 0088 80F82430 		strb	r3, [r0, #36]
 1925              	.L163:
 699:..\u8g2\csrc/u8x8_cad.c ****     case U8X8_MSG_CAD_START_TRANSFER:
 1926              		.loc 1 699 0
 1927 008c 2769     		ldr	r7, [r4, #16]
 1928 008e 3346     		mov	r3, r6
 1929 0090 2A46     		mov	r2, r5
 1930 0092 2046     		mov	r0, r4
 1931              	.LVL290:
 1932 0094 B847     		blx	r7
 1933              	.LVL291:
 1934 0096 F8BD     		pop	{r3, r4, r5, r6, r7, pc}
 1935              	.LVL292:
 1936              	.L159:
 701:..\u8g2\csrc/u8x8_cad.c ****       break;
 1937              		.loc 1 701 0
 1938 0098 0022     		movs	r2, #0
 1939 009a 074B     		ldr	r3, .L167
 1940 009c 5A74     		strb	r2, [r3, #17]
 1941              		.loc 1 710 0
 1942 009e 0120     		movs	r0, #1
 1943              	.LVL293:
ARM GAS  C:\Users\brian\AppData\Local\Temp\cclOaW4l.s 			page 52


 702:..\u8g2\csrc/u8x8_cad.c ****     case U8X8_MSG_CAD_END_TRANSFER:
 1944              		.loc 1 702 0
 1945 00a0 F8BD     		pop	{r3, r4, r5, r6, r7, pc}
 1946              	.LVL294:
 1947              	.L160:
 704:..\u8g2\csrc/u8x8_cad.c **** 	u8x8_byte_EndTransfer(u8x8); 
 1948              		.loc 1 704 0
 1949 00a2 054B     		ldr	r3, .L167
 1950 00a4 5B7C     		ldrb	r3, [r3, #17]	@ zero_extendqisi2
 1951 00a6 2BB1     		cbz	r3, .L165
 705:..\u8g2\csrc/u8x8_cad.c ****       break;
 1952              		.loc 1 705 0
 1953 00a8 FFF7FEFF 		bl	u8x8_byte_EndTransfer
 1954              	.LVL295:
 1955              		.loc 1 710 0
 1956 00ac 0120     		movs	r0, #1
 1957 00ae F8BD     		pop	{r3, r4, r5, r6, r7, pc}
 1958              	.LVL296:
 1959              	.L164:
 708:..\u8g2\csrc/u8x8_cad.c ****   }
 1960              		.loc 1 708 0
 1961 00b0 0020     		movs	r0, #0
 1962              	.LVL297:
 1963 00b2 F8BD     		pop	{r3, r4, r5, r6, r7, pc}
 1964              	.LVL298:
 1965              	.L165:
 1966              		.loc 1 710 0
 1967 00b4 0120     		movs	r0, #1
 1968              	.LVL299:
 711:..\u8g2\csrc/u8x8_cad.c **** }
 1969              		.loc 1 711 0
 1970 00b6 F8BD     		pop	{r3, r4, r5, r6, r7, pc}
 1971              	.LVL300:
 1972              	.L168:
 1973              		.align	2
 1974              	.L167:
 1975 00b8 00000000 		.word	.LANCHOR0
 1976              		.cfi_endproc
 1977              	.LFE20:
 1978              		.size	u8x8_cad_ld7032_i2c, .-u8x8_cad_ld7032_i2c
 1979              		.section	.text.u8x8_cad_uc16xx_i2c,"ax",%progbits
 1980              		.align	2
 1981              		.global	u8x8_cad_uc16xx_i2c
 1982              		.thumb
 1983              		.thumb_func
 1984              		.type	u8x8_cad_uc16xx_i2c, %function
 1985              	u8x8_cad_uc16xx_i2c:
 1986              	.LFB21:
 712:..\u8g2\csrc/u8x8_cad.c **** 
 713:..\u8g2\csrc/u8x8_cad.c **** /* cad procedure for the UC16xx family in I2C mode */
 714:..\u8g2\csrc/u8x8_cad.c **** /* u8x8_byte_SetDC is not used */
 715:..\u8g2\csrc/u8x8_cad.c **** /* DC bit is encoded into the adr byte, structure is CAD001 */
 716:..\u8g2\csrc/u8x8_cad.c **** uint8_t u8x8_cad_uc16xx_i2c(u8x8_t *u8x8, uint8_t msg, uint8_t arg_int, void *arg_ptr)
 717:..\u8g2\csrc/u8x8_cad.c **** {
 1987              		.loc 1 717 0
 1988              		.cfi_startproc
 1989              		@ args = 0, pretend = 0, frame = 0
ARM GAS  C:\Users\brian\AppData\Local\Temp\cclOaW4l.s 			page 53


 1990              		@ frame_needed = 0, uses_anonymous_args = 0
 1991              	.LVL301:
 1992 0000 F8B5     		push	{r3, r4, r5, r6, r7, lr}
 1993              		.cfi_def_cfa_offset 24
 1994              		.cfi_offset 3, -24
 1995              		.cfi_offset 4, -20
 1996              		.cfi_offset 5, -16
 1997              		.cfi_offset 6, -12
 1998              		.cfi_offset 7, -8
 1999              		.cfi_offset 14, -4
 2000 0002 0546     		mov	r5, r0
 2001 0004 1446     		mov	r4, r2
 2002 0006 1E46     		mov	r6, r3
 718:..\u8g2\csrc/u8x8_cad.c ****   static uint8_t in_transfer = 0;	
 719:..\u8g2\csrc/u8x8_cad.c ****   static uint8_t is_data = 0;
 720:..\u8g2\csrc/u8x8_cad.c ****   uint8_t *p;
 721:..\u8g2\csrc/u8x8_cad.c ****   switch(msg)
 2003              		.loc 1 721 0
 2004 0008 A1F11403 		sub	r3, r1, #20
 2005              	.LVL302:
 2006 000c 052B     		cmp	r3, #5
 2007 000e 6BD8     		bhi	.L184
 2008 0010 DFE803F0 		tbb	[pc, r3]
 2009              	.LVL303:
 2010              	.L172:
 2011 0014 4E       		.byte	(.L171-.L172)/2
 2012 0015 03       		.byte	(.L173-.L172)/2
 2013 0016 03       		.byte	(.L173-.L172)/2
 2014 0017 16       		.byte	(.L174-.L172)/2
 2015 0018 5B       		.byte	(.L175-.L172)/2
 2016 0019 60       		.byte	(.L176-.L172)/2
 2017              		.p2align 1
 2018              	.L173:
 722:..\u8g2\csrc/u8x8_cad.c ****   {
 723:..\u8g2\csrc/u8x8_cad.c ****     case U8X8_MSG_CAD_SEND_CMD:
 724:..\u8g2\csrc/u8x8_cad.c ****     case U8X8_MSG_CAD_SEND_ARG:
 725:..\u8g2\csrc/u8x8_cad.c ****       if ( in_transfer != 0 )
 2019              		.loc 1 725 0
 2020 001a 344B     		ldr	r3, .L186
 2021 001c 9B7C     		ldrb	r3, [r3, #18]	@ zero_extendqisi2
 2022 001e 3BB9     		cbnz	r3, .L177
 726:..\u8g2\csrc/u8x8_cad.c ****       {
 727:..\u8g2\csrc/u8x8_cad.c **** 	if ( is_data != 0 )
 728:..\u8g2\csrc/u8x8_cad.c **** 	{
 729:..\u8g2\csrc/u8x8_cad.c **** 	  /* transfer mode is active, but data transfer */
 730:..\u8g2\csrc/u8x8_cad.c **** 	  u8x8_byte_EndTransfer(u8x8); 
 731:..\u8g2\csrc/u8x8_cad.c **** 	  /* clear the lowest two bits of the adr */
 732:..\u8g2\csrc/u8x8_cad.c **** 	  u8x8_SetI2CAddress( u8x8, u8x8_GetI2CAddress(u8x8)&0x0fc );
 733:..\u8g2\csrc/u8x8_cad.c **** 	  u8x8_byte_StartTransfer(u8x8); 
 734:..\u8g2\csrc/u8x8_cad.c **** 	}
 735:..\u8g2\csrc/u8x8_cad.c ****       }
 736:..\u8g2\csrc/u8x8_cad.c ****       else
 737:..\u8g2\csrc/u8x8_cad.c ****       {
 738:..\u8g2\csrc/u8x8_cad.c **** 	/* clear the lowest two bits of the adr */
 739:..\u8g2\csrc/u8x8_cad.c **** 	u8x8_SetI2CAddress( u8x8, u8x8_GetI2CAddress(u8x8)&0x0fc );
 2023              		.loc 1 739 0
 2024 0020 90F82430 		ldrb	r3, [r0, #36]	@ zero_extendqisi2
ARM GAS  C:\Users\brian\AppData\Local\Temp\cclOaW4l.s 			page 54


 2025 0024 23F00303 		bic	r3, r3, #3
 2026 0028 80F82430 		strb	r3, [r0, #36]
 740:..\u8g2\csrc/u8x8_cad.c **** 	u8x8_byte_StartTransfer(u8x8);
 2027              		.loc 1 740 0
 2028 002c FFF7FEFF 		bl	u8x8_byte_StartTransfer
 2029              	.LVL304:
 2030              	.L177:
 741:..\u8g2\csrc/u8x8_cad.c ****       }
 742:..\u8g2\csrc/u8x8_cad.c ****       u8x8_byte_SendByte(u8x8, arg_int);
 2031              		.loc 1 742 0
 2032 0030 2146     		mov	r1, r4
 2033 0032 2846     		mov	r0, r5
 2034 0034 FFF7FEFF 		bl	u8x8_byte_SendByte
 2035              	.LVL305:
 743:..\u8g2\csrc/u8x8_cad.c ****       in_transfer = 1;
 2036              		.loc 1 743 0
 2037 0038 0120     		movs	r0, #1
 2038 003a 2C4B     		ldr	r3, .L186
 2039 003c 9874     		strb	r0, [r3, #18]
 744:..\u8g2\csrc/u8x8_cad.c ****       // is_data = 0;  // 20 Jun 2021: I assume that this is missing here
 745:..\u8g2\csrc/u8x8_cad.c ****       break;
 2040              		.loc 1 745 0
 2041 003e F8BD     		pop	{r3, r4, r5, r6, r7, pc}
 2042              	.LVL306:
 2043              	.L174:
 746:..\u8g2\csrc/u8x8_cad.c ****     case U8X8_MSG_CAD_SEND_DATA:
 747:..\u8g2\csrc/u8x8_cad.c ****       if ( in_transfer != 0 )
 2044              		.loc 1 747 0
 2045 0040 2A4B     		ldr	r3, .L186
 2046 0042 9B7C     		ldrb	r3, [r3, #18]	@ zero_extendqisi2
 2047 0044 6BB1     		cbz	r3, .L178
 748:..\u8g2\csrc/u8x8_cad.c ****       {
 749:..\u8g2\csrc/u8x8_cad.c **** 	if ( is_data == 0 )
 750:..\u8g2\csrc/u8x8_cad.c **** 	{
 751:..\u8g2\csrc/u8x8_cad.c **** 	  /* transfer mode is active, but data transfer */
 752:..\u8g2\csrc/u8x8_cad.c **** 	  u8x8_byte_EndTransfer(u8x8); 
 2048              		.loc 1 752 0
 2049 0046 FFF7FEFF 		bl	u8x8_byte_EndTransfer
 2050              	.LVL307:
 753:..\u8g2\csrc/u8x8_cad.c **** 	  /* clear the lowest two bits of the adr */
 754:..\u8g2\csrc/u8x8_cad.c **** 	  u8x8_SetI2CAddress( u8x8, (u8x8_GetI2CAddress(u8x8)&0x0fc)|2 );
 2051              		.loc 1 754 0
 2052 004a 95F82430 		ldrb	r3, [r5, #36]	@ zero_extendqisi2
 2053 004e 23F00303 		bic	r3, r3, #3
 2054 0052 43F00203 		orr	r3, r3, #2
 2055 0056 85F82430 		strb	r3, [r5, #36]
 755:..\u8g2\csrc/u8x8_cad.c **** 	  u8x8_byte_StartTransfer(u8x8); 
 2056              		.loc 1 755 0
 2057 005a 2846     		mov	r0, r5
 2058 005c FFF7FEFF 		bl	u8x8_byte_StartTransfer
 2059              	.LVL308:
 2060 0060 09E0     		b	.L179
 2061              	.LVL309:
 2062              	.L178:
 756:..\u8g2\csrc/u8x8_cad.c **** 	}
 757:..\u8g2\csrc/u8x8_cad.c ****       }
 758:..\u8g2\csrc/u8x8_cad.c ****       else
ARM GAS  C:\Users\brian\AppData\Local\Temp\cclOaW4l.s 			page 55


 759:..\u8g2\csrc/u8x8_cad.c ****       {
 760:..\u8g2\csrc/u8x8_cad.c **** 	/* clear the lowest two bits of the adr */
 761:..\u8g2\csrc/u8x8_cad.c **** 	u8x8_SetI2CAddress( u8x8, (u8x8_GetI2CAddress(u8x8)&0x0fc)|2 );
 2063              		.loc 1 761 0
 2064 0062 90F82430 		ldrb	r3, [r0, #36]	@ zero_extendqisi2
 2065 0066 23F00303 		bic	r3, r3, #3
 2066 006a 43F00203 		orr	r3, r3, #2
 2067 006e 80F82430 		strb	r3, [r0, #36]
 762:..\u8g2\csrc/u8x8_cad.c **** 	u8x8_byte_StartTransfer(u8x8);
 2068              		.loc 1 762 0
 2069 0072 FFF7FEFF 		bl	u8x8_byte_StartTransfer
 2070              	.LVL310:
 2071              	.L179:
 763:..\u8g2\csrc/u8x8_cad.c ****       }
 764:..\u8g2\csrc/u8x8_cad.c ****       in_transfer = 1;
 2072              		.loc 1 764 0
 2073 0076 0122     		movs	r2, #1
 2074 0078 1C4B     		ldr	r3, .L186
 2075 007a 9A74     		strb	r2, [r3, #18]
 2076              	.LVL311:
 765:..\u8g2\csrc/u8x8_cad.c ****       // is_data = 1;  // 20 Jun 2021: I assume that this is missing here
 766:..\u8g2\csrc/u8x8_cad.c ****       
 767:..\u8g2\csrc/u8x8_cad.c ****       p = arg_ptr;
 768:..\u8g2\csrc/u8x8_cad.c ****       while( arg_int > 24 )
 2077              		.loc 1 768 0
 2078 007c 0EE0     		b	.L180
 2079              	.LVL312:
 2080              	.L181:
 769:..\u8g2\csrc/u8x8_cad.c ****       {
 770:..\u8g2\csrc/u8x8_cad.c **** 	u8x8->byte_cb(u8x8, U8X8_MSG_CAD_SEND_DATA, 24, p);
 2081              		.loc 1 770 0
 2082 007e 2F69     		ldr	r7, [r5, #16]
 2083 0080 3346     		mov	r3, r6
 2084 0082 1822     		movs	r2, #24
 2085 0084 1721     		movs	r1, #23
 2086 0086 2846     		mov	r0, r5
 2087 0088 B847     		blx	r7
 2088              	.LVL313:
 771:..\u8g2\csrc/u8x8_cad.c **** 	arg_int-=24;
 2089              		.loc 1 771 0
 2090 008a 183C     		subs	r4, r4, #24
 2091              	.LVL314:
 2092 008c E4B2     		uxtb	r4, r4
 2093              	.LVL315:
 772:..\u8g2\csrc/u8x8_cad.c **** 	p+=24;
 2094              		.loc 1 772 0
 2095 008e 1836     		adds	r6, r6, #24
 2096              	.LVL316:
 773:..\u8g2\csrc/u8x8_cad.c **** 	u8x8_byte_EndTransfer(u8x8); 
 2097              		.loc 1 773 0
 2098 0090 2846     		mov	r0, r5
 2099 0092 FFF7FEFF 		bl	u8x8_byte_EndTransfer
 2100              	.LVL317:
 774:..\u8g2\csrc/u8x8_cad.c **** 	u8x8_byte_StartTransfer(u8x8);
 2101              		.loc 1 774 0
 2102 0096 2846     		mov	r0, r5
 2103 0098 FFF7FEFF 		bl	u8x8_byte_StartTransfer
ARM GAS  C:\Users\brian\AppData\Local\Temp\cclOaW4l.s 			page 56


 2104              	.LVL318:
 2105              	.L180:
 768:..\u8g2\csrc/u8x8_cad.c ****       {
 2106              		.loc 1 768 0
 2107 009c 182C     		cmp	r4, #24
 2108 009e EED8     		bhi	.L181
 775:..\u8g2\csrc/u8x8_cad.c ****       }
 776:..\u8g2\csrc/u8x8_cad.c ****       u8x8->byte_cb(u8x8, U8X8_MSG_CAD_SEND_DATA, arg_int, p);
 2109              		.loc 1 776 0
 2110 00a0 2F69     		ldr	r7, [r5, #16]
 2111 00a2 3346     		mov	r3, r6
 2112 00a4 2246     		mov	r2, r4
 2113 00a6 1721     		movs	r1, #23
 2114 00a8 2846     		mov	r0, r5
 2115 00aa B847     		blx	r7
 2116              	.LVL319:
 777:..\u8g2\csrc/u8x8_cad.c ****       
 778:..\u8g2\csrc/u8x8_cad.c ****       break;
 779:..\u8g2\csrc/u8x8_cad.c ****     case U8X8_MSG_CAD_INIT:
 780:..\u8g2\csrc/u8x8_cad.c ****       /* apply default i2c adr if required so that the start transfer msg can use this */
 781:..\u8g2\csrc/u8x8_cad.c ****       if ( u8x8->i2c_address == 255 )
 782:..\u8g2\csrc/u8x8_cad.c **** 	u8x8->i2c_address = 0x070;
 783:..\u8g2\csrc/u8x8_cad.c ****       return u8x8->byte_cb(u8x8, msg, arg_int, arg_ptr);
 784:..\u8g2\csrc/u8x8_cad.c ****     case U8X8_MSG_CAD_START_TRANSFER:
 785:..\u8g2\csrc/u8x8_cad.c ****       in_transfer = 0;    
 786:..\u8g2\csrc/u8x8_cad.c ****       /* actual start is delayed, because we do not whether this is data or cmd transfer */
 787:..\u8g2\csrc/u8x8_cad.c ****       break;
 788:..\u8g2\csrc/u8x8_cad.c ****     case U8X8_MSG_CAD_END_TRANSFER:
 789:..\u8g2\csrc/u8x8_cad.c ****       if ( in_transfer != 0 )
 790:..\u8g2\csrc/u8x8_cad.c **** 	u8x8_byte_EndTransfer(u8x8);
 791:..\u8g2\csrc/u8x8_cad.c ****       in_transfer = 0;
 792:..\u8g2\csrc/u8x8_cad.c ****       break;
 793:..\u8g2\csrc/u8x8_cad.c ****     default:
 794:..\u8g2\csrc/u8x8_cad.c ****       return 0;
 795:..\u8g2\csrc/u8x8_cad.c ****   }
 796:..\u8g2\csrc/u8x8_cad.c ****   return 1;
 2117              		.loc 1 796 0
 2118 00ac 0120     		movs	r0, #1
 778:..\u8g2\csrc/u8x8_cad.c ****     case U8X8_MSG_CAD_INIT:
 2119              		.loc 1 778 0
 2120 00ae F8BD     		pop	{r3, r4, r5, r6, r7, pc}
 2121              	.LVL320:
 2122              	.L171:
 781:..\u8g2\csrc/u8x8_cad.c **** 	u8x8->i2c_address = 0x070;
 2123              		.loc 1 781 0
 2124 00b0 90F82430 		ldrb	r3, [r0, #36]	@ zero_extendqisi2
 2125 00b4 FF2B     		cmp	r3, #255
 2126 00b6 02D1     		bne	.L182
 782:..\u8g2\csrc/u8x8_cad.c ****       return u8x8->byte_cb(u8x8, msg, arg_int, arg_ptr);
 2127              		.loc 1 782 0
 2128 00b8 7023     		movs	r3, #112
 2129 00ba 80F82430 		strb	r3, [r0, #36]
 2130              	.L182:
 783:..\u8g2\csrc/u8x8_cad.c ****     case U8X8_MSG_CAD_START_TRANSFER:
 2131              		.loc 1 783 0
 2132 00be 2F69     		ldr	r7, [r5, #16]
 2133 00c0 3346     		mov	r3, r6
ARM GAS  C:\Users\brian\AppData\Local\Temp\cclOaW4l.s 			page 57


 2134 00c2 2246     		mov	r2, r4
 2135 00c4 2846     		mov	r0, r5
 2136              	.LVL321:
 2137 00c6 B847     		blx	r7
 2138              	.LVL322:
 2139 00c8 F8BD     		pop	{r3, r4, r5, r6, r7, pc}
 2140              	.LVL323:
 2141              	.L175:
 785:..\u8g2\csrc/u8x8_cad.c ****       /* actual start is delayed, because we do not whether this is data or cmd transfer */
 2142              		.loc 1 785 0
 2143 00ca 0022     		movs	r2, #0
 2144 00cc 074B     		ldr	r3, .L186
 2145 00ce 9A74     		strb	r2, [r3, #18]
 2146              		.loc 1 796 0
 2147 00d0 0120     		movs	r0, #1
 2148              	.LVL324:
 787:..\u8g2\csrc/u8x8_cad.c ****     case U8X8_MSG_CAD_END_TRANSFER:
 2149              		.loc 1 787 0
 2150 00d2 F8BD     		pop	{r3, r4, r5, r6, r7, pc}
 2151              	.LVL325:
 2152              	.L176:
 789:..\u8g2\csrc/u8x8_cad.c **** 	u8x8_byte_EndTransfer(u8x8);
 2153              		.loc 1 789 0
 2154 00d4 054B     		ldr	r3, .L186
 2155 00d6 9B7C     		ldrb	r3, [r3, #18]	@ zero_extendqisi2
 2156 00d8 0BB1     		cbz	r3, .L183
 790:..\u8g2\csrc/u8x8_cad.c ****       in_transfer = 0;
 2157              		.loc 1 790 0
 2158 00da FFF7FEFF 		bl	u8x8_byte_EndTransfer
 2159              	.LVL326:
 2160              	.L183:
 791:..\u8g2\csrc/u8x8_cad.c ****       break;
 2161              		.loc 1 791 0
 2162 00de 0022     		movs	r2, #0
 2163 00e0 024B     		ldr	r3, .L186
 2164 00e2 9A74     		strb	r2, [r3, #18]
 2165              		.loc 1 796 0
 2166 00e4 0120     		movs	r0, #1
 792:..\u8g2\csrc/u8x8_cad.c ****     default:
 2167              		.loc 1 792 0
 2168 00e6 F8BD     		pop	{r3, r4, r5, r6, r7, pc}
 2169              	.LVL327:
 2170              	.L184:
 794:..\u8g2\csrc/u8x8_cad.c ****   }
 2171              		.loc 1 794 0
 2172 00e8 0020     		movs	r0, #0
 2173              	.LVL328:
 797:..\u8g2\csrc/u8x8_cad.c **** }
 2174              		.loc 1 797 0
 2175 00ea F8BD     		pop	{r3, r4, r5, r6, r7, pc}
 2176              	.LVL329:
 2177              	.L187:
 2178              		.align	2
 2179              	.L186:
 2180 00ec 00000000 		.word	.LANCHOR0
 2181              		.cfi_endproc
 2182              	.LFE21:
ARM GAS  C:\Users\brian\AppData\Local\Temp\cclOaW4l.s 			page 58


 2183              		.size	u8x8_cad_uc16xx_i2c, .-u8x8_cad_uc16xx_i2c
 2184              		.section	.text.u8x8_cad_uc1638_i2c,"ax",%progbits
 2185              		.align	2
 2186              		.global	u8x8_cad_uc1638_i2c
 2187              		.thumb
 2188              		.thumb_func
 2189              		.type	u8x8_cad_uc1638_i2c, %function
 2190              	u8x8_cad_uc1638_i2c:
 2191              	.LFB22:
 798:..\u8g2\csrc/u8x8_cad.c **** 
 799:..\u8g2\csrc/u8x8_cad.c **** 
 800:..\u8g2\csrc/u8x8_cad.c **** /* cad procedure for the UC1638 in I2C mode */
 801:..\u8g2\csrc/u8x8_cad.c **** /* same as  u8x8_cad_uc16xx_i2c but CAD structure is CAD011 */
 802:..\u8g2\csrc/u8x8_cad.c **** uint8_t u8x8_cad_uc1638_i2c(u8x8_t *u8x8, uint8_t msg, uint8_t arg_int, void *arg_ptr)
 803:..\u8g2\csrc/u8x8_cad.c **** {
 2192              		.loc 1 803 0
 2193              		.cfi_startproc
 2194              		@ args = 0, pretend = 0, frame = 0
 2195              		@ frame_needed = 0, uses_anonymous_args = 0
 2196              	.LVL330:
 2197 0000 F8B5     		push	{r3, r4, r5, r6, r7, lr}
 2198              		.cfi_def_cfa_offset 24
 2199              		.cfi_offset 3, -24
 2200              		.cfi_offset 4, -20
 2201              		.cfi_offset 5, -16
 2202              		.cfi_offset 6, -12
 2203              		.cfi_offset 7, -8
 2204              		.cfi_offset 14, -4
 2205 0002 0546     		mov	r5, r0
 2206 0004 1446     		mov	r4, r2
 2207 0006 1E46     		mov	r6, r3
 804:..\u8g2\csrc/u8x8_cad.c ****   static uint8_t in_transfer = 0;	
 805:..\u8g2\csrc/u8x8_cad.c ****   static uint8_t is_data = 0;
 806:..\u8g2\csrc/u8x8_cad.c ****   uint8_t *p;
 807:..\u8g2\csrc/u8x8_cad.c ****   switch(msg)
 2208              		.loc 1 807 0
 2209 0008 A1F11403 		sub	r3, r1, #20
 2210              	.LVL331:
 2211 000c 052B     		cmp	r3, #5
 2212 000e 00F2A880 		bhi	.L207
 2213 0012 DFE803F0 		tbb	[pc, r3]
 2214              	.LVL332:
 2215              	.L191:
 2216 0016 8A       		.byte	(.L190-.L191)/2
 2217 0017 03       		.byte	(.L192-.L191)/2
 2218 0018 27       		.byte	(.L193-.L191)/2
 2219 0019 4E       		.byte	(.L194-.L191)/2
 2220 001a 97       		.byte	(.L195-.L191)/2
 2221 001b 9C       		.byte	(.L196-.L191)/2
 2222              		.p2align 1
 2223              	.L192:
 808:..\u8g2\csrc/u8x8_cad.c ****   {
 809:..\u8g2\csrc/u8x8_cad.c ****     case U8X8_MSG_CAD_SEND_CMD:
 810:..\u8g2\csrc/u8x8_cad.c ****       if ( in_transfer != 0 )
 2224              		.loc 1 810 0
 2225 001c 524B     		ldr	r3, .L209
 2226 001e DB7C     		ldrb	r3, [r3, #19]	@ zero_extendqisi2
ARM GAS  C:\Users\brian\AppData\Local\Temp\cclOaW4l.s 			page 59


 2227 0020 73B1     		cbz	r3, .L197
 811:..\u8g2\csrc/u8x8_cad.c ****       {
 812:..\u8g2\csrc/u8x8_cad.c **** 	if ( is_data != 0 )
 2228              		.loc 1 812 0
 2229 0022 514B     		ldr	r3, .L209
 2230 0024 1B7D     		ldrb	r3, [r3, #20]	@ zero_extendqisi2
 2231 0026 9BB1     		cbz	r3, .L198
 813:..\u8g2\csrc/u8x8_cad.c **** 	{
 814:..\u8g2\csrc/u8x8_cad.c **** 	  /* transfer mode is active, but data transfer */
 815:..\u8g2\csrc/u8x8_cad.c **** 	  u8x8_byte_EndTransfer(u8x8); 
 2232              		.loc 1 815 0
 2233 0028 FFF7FEFF 		bl	u8x8_byte_EndTransfer
 2234              	.LVL333:
 816:..\u8g2\csrc/u8x8_cad.c **** 	  /* clear the lowest two bits of the adr */
 817:..\u8g2\csrc/u8x8_cad.c **** 	  u8x8_SetI2CAddress( u8x8, u8x8_GetI2CAddress(u8x8)&0x0fc );
 2235              		.loc 1 817 0
 2236 002c 95F82430 		ldrb	r3, [r5, #36]	@ zero_extendqisi2
 2237 0030 23F00303 		bic	r3, r3, #3
 2238 0034 85F82430 		strb	r3, [r5, #36]
 818:..\u8g2\csrc/u8x8_cad.c **** 	  u8x8_byte_StartTransfer(u8x8); 
 2239              		.loc 1 818 0
 2240 0038 2846     		mov	r0, r5
 2241 003a FFF7FEFF 		bl	u8x8_byte_StartTransfer
 2242              	.LVL334:
 2243 003e 07E0     		b	.L198
 2244              	.LVL335:
 2245              	.L197:
 819:..\u8g2\csrc/u8x8_cad.c **** 	}
 820:..\u8g2\csrc/u8x8_cad.c ****       }
 821:..\u8g2\csrc/u8x8_cad.c ****       else
 822:..\u8g2\csrc/u8x8_cad.c ****       {
 823:..\u8g2\csrc/u8x8_cad.c **** 	/* clear the lowest two bits of the adr */
 824:..\u8g2\csrc/u8x8_cad.c **** 	u8x8_SetI2CAddress( u8x8, u8x8_GetI2CAddress(u8x8)&0x0fc );
 2246              		.loc 1 824 0
 2247 0040 90F82430 		ldrb	r3, [r0, #36]	@ zero_extendqisi2
 2248 0044 23F00303 		bic	r3, r3, #3
 2249 0048 80F82430 		strb	r3, [r0, #36]
 825:..\u8g2\csrc/u8x8_cad.c **** 	u8x8_byte_StartTransfer(u8x8);
 2250              		.loc 1 825 0
 2251 004c FFF7FEFF 		bl	u8x8_byte_StartTransfer
 2252              	.LVL336:
 2253              	.L198:
 826:..\u8g2\csrc/u8x8_cad.c ****       }
 827:..\u8g2\csrc/u8x8_cad.c ****       u8x8_byte_SendByte(u8x8, arg_int);
 2254              		.loc 1 827 0
 2255 0050 2146     		mov	r1, r4
 2256 0052 2846     		mov	r0, r5
 2257 0054 FFF7FEFF 		bl	u8x8_byte_SendByte
 2258              	.LVL337:
 828:..\u8g2\csrc/u8x8_cad.c ****       in_transfer = 1;
 2259              		.loc 1 828 0
 2260 0058 434B     		ldr	r3, .L209
 2261 005a 0120     		movs	r0, #1
 2262 005c D874     		strb	r0, [r3, #19]
 829:..\u8g2\csrc/u8x8_cad.c ****       is_data = 0;
 2263              		.loc 1 829 0
 2264 005e 0022     		movs	r2, #0
ARM GAS  C:\Users\brian\AppData\Local\Temp\cclOaW4l.s 			page 60


 2265 0060 1A75     		strb	r2, [r3, #20]
 830:..\u8g2\csrc/u8x8_cad.c ****       break;
 2266              		.loc 1 830 0
 2267 0062 F8BD     		pop	{r3, r4, r5, r6, r7, pc}
 2268              	.LVL338:
 2269              	.L193:
 831:..\u8g2\csrc/u8x8_cad.c ****     case U8X8_MSG_CAD_SEND_ARG:
 832:..\u8g2\csrc/u8x8_cad.c ****       if ( in_transfer != 0 )
 2270              		.loc 1 832 0
 2271 0064 404B     		ldr	r3, .L209
 2272 0066 DB7C     		ldrb	r3, [r3, #19]	@ zero_extendqisi2
 2273 0068 83B1     		cbz	r3, .L199
 833:..\u8g2\csrc/u8x8_cad.c ****       {
 834:..\u8g2\csrc/u8x8_cad.c **** 	if ( is_data == 0 )
 2274              		.loc 1 834 0
 2275 006a 3F4B     		ldr	r3, .L209
 2276 006c 1B7D     		ldrb	r3, [r3, #20]	@ zero_extendqisi2
 2277 006e BBB9     		cbnz	r3, .L200
 835:..\u8g2\csrc/u8x8_cad.c **** 	{
 836:..\u8g2\csrc/u8x8_cad.c **** 	  /* transfer mode is active, but data transfer */
 837:..\u8g2\csrc/u8x8_cad.c **** 	  u8x8_byte_EndTransfer(u8x8); 
 2278              		.loc 1 837 0
 2279 0070 FFF7FEFF 		bl	u8x8_byte_EndTransfer
 2280              	.LVL339:
 838:..\u8g2\csrc/u8x8_cad.c **** 	  /* clear the lowest two bits of the adr */
 839:..\u8g2\csrc/u8x8_cad.c **** 	  u8x8_SetI2CAddress( u8x8, (u8x8_GetI2CAddress(u8x8)&0x0fc)|2 );
 2281              		.loc 1 839 0
 2282 0074 95F82430 		ldrb	r3, [r5, #36]	@ zero_extendqisi2
 2283 0078 23F00303 		bic	r3, r3, #3
 2284 007c 43F00203 		orr	r3, r3, #2
 2285 0080 85F82430 		strb	r3, [r5, #36]
 840:..\u8g2\csrc/u8x8_cad.c **** 	  u8x8_byte_StartTransfer(u8x8); 
 2286              		.loc 1 840 0
 2287 0084 2846     		mov	r0, r5
 2288 0086 FFF7FEFF 		bl	u8x8_byte_StartTransfer
 2289              	.LVL340:
 2290 008a 09E0     		b	.L200
 2291              	.LVL341:
 2292              	.L199:
 841:..\u8g2\csrc/u8x8_cad.c **** 	}
 842:..\u8g2\csrc/u8x8_cad.c ****       }
 843:..\u8g2\csrc/u8x8_cad.c ****       else
 844:..\u8g2\csrc/u8x8_cad.c ****       {
 845:..\u8g2\csrc/u8x8_cad.c **** 	/* clear the lowest two bits of the adr */
 846:..\u8g2\csrc/u8x8_cad.c **** 	u8x8_SetI2CAddress( u8x8, (u8x8_GetI2CAddress(u8x8)&0x0fc)|2 );
 2293              		.loc 1 846 0
 2294 008c 90F82430 		ldrb	r3, [r0, #36]	@ zero_extendqisi2
 2295 0090 23F00303 		bic	r3, r3, #3
 2296 0094 43F00203 		orr	r3, r3, #2
 2297 0098 80F82430 		strb	r3, [r0, #36]
 847:..\u8g2\csrc/u8x8_cad.c **** 	u8x8_byte_StartTransfer(u8x8);
 2298              		.loc 1 847 0
 2299 009c FFF7FEFF 		bl	u8x8_byte_StartTransfer
 2300              	.LVL342:
 2301              	.L200:
 848:..\u8g2\csrc/u8x8_cad.c ****       }
 849:..\u8g2\csrc/u8x8_cad.c ****       u8x8_byte_SendByte(u8x8, arg_int);
ARM GAS  C:\Users\brian\AppData\Local\Temp\cclOaW4l.s 			page 61


 2302              		.loc 1 849 0
 2303 00a0 2146     		mov	r1, r4
 2304 00a2 2846     		mov	r0, r5
 2305 00a4 FFF7FEFF 		bl	u8x8_byte_SendByte
 2306              	.LVL343:
 850:..\u8g2\csrc/u8x8_cad.c ****       in_transfer = 1;
 2307              		.loc 1 850 0
 2308 00a8 2F4B     		ldr	r3, .L209
 2309 00aa 0120     		movs	r0, #1
 2310 00ac D874     		strb	r0, [r3, #19]
 851:..\u8g2\csrc/u8x8_cad.c ****       is_data = 1;
 2311              		.loc 1 851 0
 2312 00ae 1875     		strb	r0, [r3, #20]
 852:..\u8g2\csrc/u8x8_cad.c ****       break;
 2313              		.loc 1 852 0
 2314 00b0 F8BD     		pop	{r3, r4, r5, r6, r7, pc}
 2315              	.LVL344:
 2316              	.L194:
 853:..\u8g2\csrc/u8x8_cad.c ****     case U8X8_MSG_CAD_SEND_DATA:
 854:..\u8g2\csrc/u8x8_cad.c ****       if ( in_transfer != 0 )
 2317              		.loc 1 854 0
 2318 00b2 2D4B     		ldr	r3, .L209
 2319 00b4 DB7C     		ldrb	r3, [r3, #19]	@ zero_extendqisi2
 2320 00b6 83B1     		cbz	r3, .L201
 855:..\u8g2\csrc/u8x8_cad.c ****       {
 856:..\u8g2\csrc/u8x8_cad.c **** 	if ( is_data == 0 )
 2321              		.loc 1 856 0
 2322 00b8 2B4B     		ldr	r3, .L209
 2323 00ba 1B7D     		ldrb	r3, [r3, #20]	@ zero_extendqisi2
 2324 00bc BBB9     		cbnz	r3, .L202
 857:..\u8g2\csrc/u8x8_cad.c **** 	{
 858:..\u8g2\csrc/u8x8_cad.c **** 	  /* transfer mode is active, but data transfer */
 859:..\u8g2\csrc/u8x8_cad.c **** 	  u8x8_byte_EndTransfer(u8x8); 
 2325              		.loc 1 859 0
 2326 00be FFF7FEFF 		bl	u8x8_byte_EndTransfer
 2327              	.LVL345:
 860:..\u8g2\csrc/u8x8_cad.c **** 	  /* clear the lowest two bits of the adr */
 861:..\u8g2\csrc/u8x8_cad.c **** 	  u8x8_SetI2CAddress( u8x8, (u8x8_GetI2CAddress(u8x8)&0x0fc)|2 );
 2328              		.loc 1 861 0
 2329 00c2 95F82430 		ldrb	r3, [r5, #36]	@ zero_extendqisi2
 2330 00c6 23F00303 		bic	r3, r3, #3
 2331 00ca 43F00203 		orr	r3, r3, #2
 2332 00ce 85F82430 		strb	r3, [r5, #36]
 862:..\u8g2\csrc/u8x8_cad.c **** 	  u8x8_byte_StartTransfer(u8x8); 
 2333              		.loc 1 862 0
 2334 00d2 2846     		mov	r0, r5
 2335 00d4 FFF7FEFF 		bl	u8x8_byte_StartTransfer
 2336              	.LVL346:
 2337 00d8 09E0     		b	.L202
 2338              	.LVL347:
 2339              	.L201:
 863:..\u8g2\csrc/u8x8_cad.c **** 	}
 864:..\u8g2\csrc/u8x8_cad.c ****       }
 865:..\u8g2\csrc/u8x8_cad.c ****       else
 866:..\u8g2\csrc/u8x8_cad.c ****       {
 867:..\u8g2\csrc/u8x8_cad.c **** 	/* clear the lowest two bits of the adr */
 868:..\u8g2\csrc/u8x8_cad.c **** 	u8x8_SetI2CAddress( u8x8, (u8x8_GetI2CAddress(u8x8)&0x0fc)|2 );
ARM GAS  C:\Users\brian\AppData\Local\Temp\cclOaW4l.s 			page 62


 2340              		.loc 1 868 0
 2341 00da 90F82430 		ldrb	r3, [r0, #36]	@ zero_extendqisi2
 2342 00de 23F00303 		bic	r3, r3, #3
 2343 00e2 43F00203 		orr	r3, r3, #2
 2344 00e6 80F82430 		strb	r3, [r0, #36]
 869:..\u8g2\csrc/u8x8_cad.c **** 	u8x8_byte_StartTransfer(u8x8);
 2345              		.loc 1 869 0
 2346 00ea FFF7FEFF 		bl	u8x8_byte_StartTransfer
 2347              	.LVL348:
 2348              	.L202:
 870:..\u8g2\csrc/u8x8_cad.c ****       }
 871:..\u8g2\csrc/u8x8_cad.c ****       in_transfer = 1;
 2349              		.loc 1 871 0
 2350 00ee 1E4B     		ldr	r3, .L209
 2351 00f0 0122     		movs	r2, #1
 2352 00f2 DA74     		strb	r2, [r3, #19]
 872:..\u8g2\csrc/u8x8_cad.c ****       is_data = 1;
 2353              		.loc 1 872 0
 2354 00f4 1A75     		strb	r2, [r3, #20]
 2355              	.LVL349:
 873:..\u8g2\csrc/u8x8_cad.c ****       
 874:..\u8g2\csrc/u8x8_cad.c ****       p = arg_ptr;
 875:..\u8g2\csrc/u8x8_cad.c ****       while( arg_int > 24 )
 2356              		.loc 1 875 0
 2357 00f6 0EE0     		b	.L203
 2358              	.LVL350:
 2359              	.L204:
 876:..\u8g2\csrc/u8x8_cad.c ****       {
 877:..\u8g2\csrc/u8x8_cad.c **** 	u8x8->byte_cb(u8x8, U8X8_MSG_CAD_SEND_DATA, 24, p);
 2360              		.loc 1 877 0
 2361 00f8 2F69     		ldr	r7, [r5, #16]
 2362 00fa 3346     		mov	r3, r6
 2363 00fc 1822     		movs	r2, #24
 2364 00fe 1721     		movs	r1, #23
 2365 0100 2846     		mov	r0, r5
 2366 0102 B847     		blx	r7
 2367              	.LVL351:
 878:..\u8g2\csrc/u8x8_cad.c **** 	arg_int-=24;
 2368              		.loc 1 878 0
 2369 0104 183C     		subs	r4, r4, #24
 2370              	.LVL352:
 2371 0106 E4B2     		uxtb	r4, r4
 2372              	.LVL353:
 879:..\u8g2\csrc/u8x8_cad.c **** 	p+=24;
 2373              		.loc 1 879 0
 2374 0108 1836     		adds	r6, r6, #24
 2375              	.LVL354:
 880:..\u8g2\csrc/u8x8_cad.c **** 	u8x8_byte_EndTransfer(u8x8); 
 2376              		.loc 1 880 0
 2377 010a 2846     		mov	r0, r5
 2378 010c FFF7FEFF 		bl	u8x8_byte_EndTransfer
 2379              	.LVL355:
 881:..\u8g2\csrc/u8x8_cad.c **** 	u8x8_byte_StartTransfer(u8x8);
 2380              		.loc 1 881 0
 2381 0110 2846     		mov	r0, r5
 2382 0112 FFF7FEFF 		bl	u8x8_byte_StartTransfer
 2383              	.LVL356:
ARM GAS  C:\Users\brian\AppData\Local\Temp\cclOaW4l.s 			page 63


 2384              	.L203:
 875:..\u8g2\csrc/u8x8_cad.c ****       {
 2385              		.loc 1 875 0
 2386 0116 182C     		cmp	r4, #24
 2387 0118 EED8     		bhi	.L204
 882:..\u8g2\csrc/u8x8_cad.c ****       }
 883:..\u8g2\csrc/u8x8_cad.c ****       u8x8->byte_cb(u8x8, U8X8_MSG_CAD_SEND_DATA, arg_int, p);
 2388              		.loc 1 883 0
 2389 011a 2F69     		ldr	r7, [r5, #16]
 2390 011c 3346     		mov	r3, r6
 2391 011e 2246     		mov	r2, r4
 2392 0120 1721     		movs	r1, #23
 2393 0122 2846     		mov	r0, r5
 2394 0124 B847     		blx	r7
 2395              	.LVL357:
 884:..\u8g2\csrc/u8x8_cad.c ****       
 885:..\u8g2\csrc/u8x8_cad.c ****       break;
 886:..\u8g2\csrc/u8x8_cad.c ****     case U8X8_MSG_CAD_INIT:
 887:..\u8g2\csrc/u8x8_cad.c ****       /* apply default i2c adr if required so that the start transfer msg can use this */
 888:..\u8g2\csrc/u8x8_cad.c ****       if ( u8x8->i2c_address == 255 )
 889:..\u8g2\csrc/u8x8_cad.c **** 	u8x8->i2c_address = 0x078;  /* see also https://github.com/olikraus/u8g2/issues/371 for a discussi
 890:..\u8g2\csrc/u8x8_cad.c ****       return u8x8->byte_cb(u8x8, msg, arg_int, arg_ptr);
 891:..\u8g2\csrc/u8x8_cad.c ****     case U8X8_MSG_CAD_START_TRANSFER:
 892:..\u8g2\csrc/u8x8_cad.c ****       in_transfer = 0;    
 893:..\u8g2\csrc/u8x8_cad.c ****       /* actual start is delayed, because we do not whether this is data or cmd transfer */
 894:..\u8g2\csrc/u8x8_cad.c ****       break;
 895:..\u8g2\csrc/u8x8_cad.c ****     case U8X8_MSG_CAD_END_TRANSFER:
 896:..\u8g2\csrc/u8x8_cad.c ****       if ( in_transfer != 0 )
 897:..\u8g2\csrc/u8x8_cad.c **** 	u8x8_byte_EndTransfer(u8x8);
 898:..\u8g2\csrc/u8x8_cad.c ****       in_transfer = 0;
 899:..\u8g2\csrc/u8x8_cad.c ****       break;
 900:..\u8g2\csrc/u8x8_cad.c ****     default:
 901:..\u8g2\csrc/u8x8_cad.c ****       return 0;
 902:..\u8g2\csrc/u8x8_cad.c ****   }
 903:..\u8g2\csrc/u8x8_cad.c ****   return 1;
 2396              		.loc 1 903 0
 2397 0126 0120     		movs	r0, #1
 885:..\u8g2\csrc/u8x8_cad.c ****     case U8X8_MSG_CAD_INIT:
 2398              		.loc 1 885 0
 2399 0128 F8BD     		pop	{r3, r4, r5, r6, r7, pc}
 2400              	.LVL358:
 2401              	.L190:
 888:..\u8g2\csrc/u8x8_cad.c **** 	u8x8->i2c_address = 0x078;  /* see also https://github.com/olikraus/u8g2/issues/371 for a discussi
 2402              		.loc 1 888 0
 2403 012a 90F82430 		ldrb	r3, [r0, #36]	@ zero_extendqisi2
 2404 012e FF2B     		cmp	r3, #255
 2405 0130 02D1     		bne	.L205
 889:..\u8g2\csrc/u8x8_cad.c ****       return u8x8->byte_cb(u8x8, msg, arg_int, arg_ptr);
 2406              		.loc 1 889 0
 2407 0132 7823     		movs	r3, #120
 2408 0134 80F82430 		strb	r3, [r0, #36]
 2409              	.L205:
 890:..\u8g2\csrc/u8x8_cad.c ****     case U8X8_MSG_CAD_START_TRANSFER:
 2410              		.loc 1 890 0
 2411 0138 2F69     		ldr	r7, [r5, #16]
 2412 013a 3346     		mov	r3, r6
 2413 013c 2246     		mov	r2, r4
ARM GAS  C:\Users\brian\AppData\Local\Temp\cclOaW4l.s 			page 64


 2414 013e 2846     		mov	r0, r5
 2415              	.LVL359:
 2416 0140 B847     		blx	r7
 2417              	.LVL360:
 2418 0142 F8BD     		pop	{r3, r4, r5, r6, r7, pc}
 2419              	.LVL361:
 2420              	.L195:
 892:..\u8g2\csrc/u8x8_cad.c ****       /* actual start is delayed, because we do not whether this is data or cmd transfer */
 2421              		.loc 1 892 0
 2422 0144 0022     		movs	r2, #0
 2423 0146 084B     		ldr	r3, .L209
 2424 0148 DA74     		strb	r2, [r3, #19]
 2425              		.loc 1 903 0
 2426 014a 0120     		movs	r0, #1
 2427              	.LVL362:
 894:..\u8g2\csrc/u8x8_cad.c ****     case U8X8_MSG_CAD_END_TRANSFER:
 2428              		.loc 1 894 0
 2429 014c F8BD     		pop	{r3, r4, r5, r6, r7, pc}
 2430              	.LVL363:
 2431              	.L196:
 896:..\u8g2\csrc/u8x8_cad.c **** 	u8x8_byte_EndTransfer(u8x8);
 2432              		.loc 1 896 0
 2433 014e 064B     		ldr	r3, .L209
 2434 0150 DB7C     		ldrb	r3, [r3, #19]	@ zero_extendqisi2
 2435 0152 0BB1     		cbz	r3, .L206
 897:..\u8g2\csrc/u8x8_cad.c ****       in_transfer = 0;
 2436              		.loc 1 897 0
 2437 0154 FFF7FEFF 		bl	u8x8_byte_EndTransfer
 2438              	.LVL364:
 2439              	.L206:
 898:..\u8g2\csrc/u8x8_cad.c ****       break;
 2440              		.loc 1 898 0
 2441 0158 0022     		movs	r2, #0
 2442 015a 034B     		ldr	r3, .L209
 2443 015c DA74     		strb	r2, [r3, #19]
 2444              		.loc 1 903 0
 2445 015e 0120     		movs	r0, #1
 899:..\u8g2\csrc/u8x8_cad.c ****     default:
 2446              		.loc 1 899 0
 2447 0160 F8BD     		pop	{r3, r4, r5, r6, r7, pc}
 2448              	.LVL365:
 2449              	.L207:
 901:..\u8g2\csrc/u8x8_cad.c ****   }
 2450              		.loc 1 901 0
 2451 0162 0020     		movs	r0, #0
 2452              	.LVL366:
 904:..\u8g2\csrc/u8x8_cad.c **** }
 2453              		.loc 1 904 0
 2454 0164 F8BD     		pop	{r3, r4, r5, r6, r7, pc}
 2455              	.LVL367:
 2456              	.L210:
 2457 0166 00BF     		.align	2
 2458              	.L209:
 2459 0168 00000000 		.word	.LANCHOR0
 2460              		.cfi_endproc
 2461              	.LFE22:
 2462              		.size	u8x8_cad_uc1638_i2c, .-u8x8_cad_uc1638_i2c
ARM GAS  C:\Users\brian\AppData\Local\Temp\cclOaW4l.s 			page 65


 2463              		.bss
 2464              		.align	2
 2465              		.set	.LANCHOR0,. + 0
 2466              		.type	buf.5836, %object
 2467              		.size	buf.5836, 16
 2468              	buf.5836:
 2469 0000 00000000 		.space	16
 2469      00000000 
 2469      00000000 
 2469      00000000 
 2470              		.type	in_transfer.5887, %object
 2471              		.size	in_transfer.5887, 1
 2472              	in_transfer.5887:
 2473 0010 00       		.space	1
 2474              		.type	in_transfer.5924, %object
 2475              		.size	in_transfer.5924, 1
 2476              	in_transfer.5924:
 2477 0011 00       		.space	1
 2478              		.type	in_transfer.5943, %object
 2479              		.size	in_transfer.5943, 1
 2480              	in_transfer.5943:
 2481 0012 00       		.space	1
 2482              		.type	in_transfer.5963, %object
 2483              		.size	in_transfer.5963, 1
 2484              	in_transfer.5963:
 2485 0013 00       		.space	1
 2486              		.type	is_data.5964, %object
 2487              		.size	is_data.5964, 1
 2488              	is_data.5964:
 2489 0014 00       		.space	1
 2490              		.text
 2491              	.Letext0:
 2492              		.file 2 "c:\\program files (x86)\\cypress\\psoc creator\\4.4\\psoc creator\\import\\gnu\\arm\\5.4.
 2493              		.file 3 "c:\\program files (x86)\\cypress\\psoc creator\\4.4\\psoc creator\\import\\gnu\\arm\\5.4.
 2494              		.file 4 "c:\\program files (x86)\\cypress\\psoc creator\\4.4\\psoc creator\\import\\gnu\\arm\\5.4.
 2495              		.file 5 "..\\u8g2\\csrc\\u8x8.h"
 2496              		.file 6 "<built-in>"
 2497              		.section	.debug_info,"",%progbits
 2498              	.Ldebug_info0:
 2499 0000 00190000 		.4byte	0x1900
 2500 0004 0400     		.2byte	0x4
 2501 0006 00000000 		.4byte	.Ldebug_abbrev0
 2502 000a 04       		.byte	0x4
 2503 000b 01       		.uleb128 0x1
 2504 000c 1C040000 		.4byte	.LASF99
 2505 0010 0C       		.byte	0xc
 2506 0011 AA040000 		.4byte	.LASF100
 2507 0015 BD030000 		.4byte	.LASF101
 2508 0019 00000000 		.4byte	.Ldebug_ranges0+0
 2509 001d 00000000 		.4byte	0
 2510 0021 00000000 		.4byte	.Ldebug_line0
 2511 0025 02       		.uleb128 0x2
 2512 0026 01       		.byte	0x1
 2513 0027 06       		.byte	0x6
 2514 0028 DF000000 		.4byte	.LASF0
 2515 002c 03       		.uleb128 0x3
 2516 002d 15000000 		.4byte	.LASF3
ARM GAS  C:\Users\brian\AppData\Local\Temp\cclOaW4l.s 			page 66


 2517 0031 02       		.byte	0x2
 2518 0032 1D       		.byte	0x1d
 2519 0033 37000000 		.4byte	0x37
 2520 0037 02       		.uleb128 0x2
 2521 0038 01       		.byte	0x1
 2522 0039 08       		.byte	0x8
 2523 003a FF030000 		.4byte	.LASF1
 2524 003e 02       		.uleb128 0x2
 2525 003f 02       		.byte	0x2
 2526 0040 05       		.byte	0x5
 2527 0041 0D040000 		.4byte	.LASF2
 2528 0045 03       		.uleb128 0x3
 2529 0046 3E050000 		.4byte	.LASF4
 2530 004a 02       		.byte	0x2
 2531 004b 2B       		.byte	0x2b
 2532 004c 50000000 		.4byte	0x50
 2533 0050 02       		.uleb128 0x2
 2534 0051 02       		.byte	0x2
 2535 0052 07       		.byte	0x7
 2536 0053 7E020000 		.4byte	.LASF5
 2537 0057 02       		.uleb128 0x2
 2538 0058 04       		.byte	0x4
 2539 0059 05       		.byte	0x5
 2540 005a 57010000 		.4byte	.LASF6
 2541 005e 03       		.uleb128 0x3
 2542 005f F8010000 		.4byte	.LASF7
 2543 0063 02       		.byte	0x2
 2544 0064 41       		.byte	0x41
 2545 0065 69000000 		.4byte	0x69
 2546 0069 02       		.uleb128 0x2
 2547 006a 04       		.byte	0x4
 2548 006b 07       		.byte	0x7
 2549 006c 55020000 		.4byte	.LASF8
 2550 0070 02       		.uleb128 0x2
 2551 0071 08       		.byte	0x8
 2552 0072 05       		.byte	0x5
 2553 0073 D1000000 		.4byte	.LASF9
 2554 0077 02       		.uleb128 0x2
 2555 0078 08       		.byte	0x8
 2556 0079 07       		.byte	0x7
 2557 007a 4B000000 		.4byte	.LASF10
 2558 007e 04       		.uleb128 0x4
 2559 007f 04       		.byte	0x4
 2560 0080 05       		.byte	0x5
 2561 0081 696E7400 		.ascii	"int\000"
 2562 0085 02       		.uleb128 0x2
 2563 0086 04       		.byte	0x4
 2564 0087 07       		.byte	0x7
 2565 0088 29020000 		.4byte	.LASF11
 2566 008c 03       		.uleb128 0x3
 2567 008d EB050000 		.4byte	.LASF12
 2568 0091 03       		.byte	0x3
 2569 0092 18       		.byte	0x18
 2570 0093 2C000000 		.4byte	0x2c
 2571 0097 03       		.uleb128 0x3
 2572 0098 A7010000 		.4byte	.LASF13
 2573 009c 03       		.byte	0x3
ARM GAS  C:\Users\brian\AppData\Local\Temp\cclOaW4l.s 			page 67


 2574 009d 24       		.byte	0x24
 2575 009e 45000000 		.4byte	0x45
 2576 00a2 03       		.uleb128 0x3
 2577 00a3 EA040000 		.4byte	.LASF14
 2578 00a7 03       		.byte	0x3
 2579 00a8 30       		.byte	0x30
 2580 00a9 5E000000 		.4byte	0x5e
 2581 00ad 03       		.uleb128 0x3
 2582 00ae 5B030000 		.4byte	.LASF15
 2583 00b2 04       		.byte	0x4
 2584 00b3 28       		.byte	0x28
 2585 00b4 B8000000 		.4byte	0xb8
 2586 00b8 05       		.uleb128 0x5
 2587 00b9 73010000 		.4byte	.LASF19
 2588 00bd 04       		.byte	0x4
 2589 00be 06       		.byte	0x6
 2590 00bf 00       		.byte	0
 2591 00c0 CF000000 		.4byte	0xcf
 2592 00c4 06       		.uleb128 0x6
 2593 00c5 96050000 		.4byte	.LASF102
 2594 00c9 CF000000 		.4byte	0xcf
 2595 00cd 00       		.byte	0
 2596 00ce 00       		.byte	0
 2597 00cf 07       		.uleb128 0x7
 2598 00d0 04       		.byte	0x4
 2599 00d1 03       		.uleb128 0x3
 2600 00d2 27000000 		.4byte	.LASF16
 2601 00d6 04       		.byte	0x4
 2602 00d7 62       		.byte	0x62
 2603 00d8 AD000000 		.4byte	0xad
 2604 00dc 02       		.uleb128 0x2
 2605 00dd 08       		.byte	0x8
 2606 00de 04       		.byte	0x4
 2607 00df 4F030000 		.4byte	.LASF17
 2608 00e3 03       		.uleb128 0x3
 2609 00e4 8F050000 		.4byte	.LASF18
 2610 00e8 05       		.byte	0x5
 2611 00e9 CD       		.byte	0xcd
 2612 00ea EE000000 		.4byte	0xee
 2613 00ee 08       		.uleb128 0x8
 2614 00ef DD020000 		.4byte	.LASF20
 2615 00f3 2C       		.byte	0x2c
 2616 00f4 05       		.byte	0x5
 2617 00f5 5001     		.2byte	0x150
 2618 00f7 F3010000 		.4byte	0x1f3
 2619 00fb 09       		.uleb128 0x9
 2620 00fc A9020000 		.4byte	.LASF21
 2621 0100 05       		.byte	0x5
 2622 0101 5201     		.2byte	0x152
 2623 0103 59030000 		.4byte	0x359
 2624 0107 00       		.byte	0
 2625 0108 09       		.uleb128 0x9
 2626 0109 B0010000 		.4byte	.LASF22
 2627 010d 05       		.byte	0x5
 2628 010e 5301     		.2byte	0x153
 2629 0110 2E030000 		.4byte	0x32e
 2630 0114 04       		.byte	0x4
ARM GAS  C:\Users\brian\AppData\Local\Temp\cclOaW4l.s 			page 68


 2631 0115 09       		.uleb128 0x9
 2632 0116 0F010000 		.4byte	.LASF23
 2633 011a 05       		.byte	0x5
 2634 011b 5401     		.2byte	0x154
 2635 011d F9020000 		.4byte	0x2f9
 2636 0121 08       		.byte	0x8
 2637 0122 09       		.uleb128 0x9
 2638 0123 6A030000 		.4byte	.LASF24
 2639 0127 05       		.byte	0x5
 2640 0128 5501     		.2byte	0x155
 2641 012a F9020000 		.4byte	0x2f9
 2642 012e 0C       		.byte	0xc
 2643 012f 09       		.uleb128 0x9
 2644 0130 1F000000 		.4byte	.LASF25
 2645 0134 05       		.byte	0x5
 2646 0135 5601     		.2byte	0x156
 2647 0137 F9020000 		.4byte	0x2f9
 2648 013b 10       		.byte	0x10
 2649 013c 09       		.uleb128 0x9
 2650 013d C5010000 		.4byte	.LASF26
 2651 0141 05       		.byte	0x5
 2652 0142 5701     		.2byte	0x157
 2653 0144 F9020000 		.4byte	0x2f9
 2654 0148 14       		.byte	0x14
 2655 0149 09       		.uleb128 0x9
 2656 014a 9B050000 		.4byte	.LASF27
 2657 014e 05       		.byte	0x5
 2658 014f 5801     		.2byte	0x158
 2659 0151 A2000000 		.4byte	0xa2
 2660 0155 18       		.byte	0x18
 2661 0156 09       		.uleb128 0x9
 2662 0157 CF050000 		.4byte	.LASF28
 2663 015b 05       		.byte	0x5
 2664 015c 5901     		.2byte	0x159
 2665 015e 64030000 		.4byte	0x364
 2666 0162 1C       		.byte	0x1c
 2667 0163 09       		.uleb128 0x9
 2668 0164 0E030000 		.4byte	.LASF29
 2669 0168 05       		.byte	0x5
 2670 0169 5A01     		.2byte	0x15a
 2671 016b 97000000 		.4byte	0x97
 2672 016f 20       		.byte	0x20
 2673 0170 09       		.uleb128 0x9
 2674 0171 92030000 		.4byte	.LASF30
 2675 0175 05       		.byte	0x5
 2676 0176 5B01     		.2byte	0x15b
 2677 0178 8C000000 		.4byte	0x8c
 2678 017c 22       		.byte	0x22
 2679 017d 09       		.uleb128 0x9
 2680 017e EB000000 		.4byte	.LASF31
 2681 0182 05       		.byte	0x5
 2682 0183 5C01     		.2byte	0x15c
 2683 0185 8C000000 		.4byte	0x8c
 2684 0189 23       		.byte	0x23
 2685 018a 09       		.uleb128 0x9
 2686 018b 49020000 		.4byte	.LASF32
 2687 018f 05       		.byte	0x5
ARM GAS  C:\Users\brian\AppData\Local\Temp\cclOaW4l.s 			page 69


 2688 0190 5D01     		.2byte	0x15d
 2689 0192 8C000000 		.4byte	0x8c
 2690 0196 24       		.byte	0x24
 2691 0197 09       		.uleb128 0x9
 2692 0198 F3050000 		.4byte	.LASF33
 2693 019c 05       		.byte	0x5
 2694 019d 6001     		.2byte	0x160
 2695 019f 8C000000 		.4byte	0x8c
 2696 01a3 25       		.byte	0x25
 2697 01a4 09       		.uleb128 0x9
 2698 01a5 88000000 		.4byte	.LASF34
 2699 01a9 05       		.byte	0x5
 2700 01aa 6201     		.2byte	0x162
 2701 01ac 8C000000 		.4byte	0x8c
 2702 01b0 26       		.byte	0x26
 2703 01b1 09       		.uleb128 0x9
 2704 01b2 A8000000 		.4byte	.LASF35
 2705 01b6 05       		.byte	0x5
 2706 01b7 6301     		.2byte	0x163
 2707 01b9 8C000000 		.4byte	0x8c
 2708 01bd 27       		.byte	0x27
 2709 01be 09       		.uleb128 0x9
 2710 01bf 16060000 		.4byte	.LASF36
 2711 01c3 05       		.byte	0x5
 2712 01c4 6401     		.2byte	0x164
 2713 01c6 8C000000 		.4byte	0x8c
 2714 01ca 28       		.byte	0x28
 2715 01cb 09       		.uleb128 0x9
 2716 01cc 91020000 		.4byte	.LASF37
 2717 01d0 05       		.byte	0x5
 2718 01d1 6501     		.2byte	0x165
 2719 01d3 8C000000 		.4byte	0x8c
 2720 01d7 29       		.byte	0x29
 2721 01d8 09       		.uleb128 0x9
 2722 01d9 A5050000 		.4byte	.LASF38
 2723 01dd 05       		.byte	0x5
 2724 01de 6601     		.2byte	0x166
 2725 01e0 8C000000 		.4byte	0x8c
 2726 01e4 2A       		.byte	0x2a
 2727 01e5 09       		.uleb128 0x9
 2728 01e6 15020000 		.4byte	.LASF39
 2729 01ea 05       		.byte	0x5
 2730 01eb 6701     		.2byte	0x167
 2731 01ed 8C000000 		.4byte	0x8c
 2732 01f1 2B       		.byte	0x2b
 2733 01f2 00       		.byte	0
 2734 01f3 03       		.uleb128 0x3
 2735 01f4 E4010000 		.4byte	.LASF40
 2736 01f8 05       		.byte	0x5
 2737 01f9 CE       		.byte	0xce
 2738 01fa FE010000 		.4byte	0x1fe
 2739 01fe 05       		.uleb128 0x5
 2740 01ff 75060000 		.4byte	.LASF41
 2741 0203 18       		.byte	0x18
 2742 0204 05       		.byte	0x5
 2743 0205 E7       		.byte	0xe7
 2744 0206 F9020000 		.4byte	0x2f9
ARM GAS  C:\Users\brian\AppData\Local\Temp\cclOaW4l.s 			page 70


 2745 020a 0A       		.uleb128 0xa
 2746 020b 27050000 		.4byte	.LASF42
 2747 020f 05       		.byte	0x5
 2748 0210 EB       		.byte	0xeb
 2749 0211 8C000000 		.4byte	0x8c
 2750 0215 00       		.byte	0
 2751 0216 0A       		.uleb128 0xa
 2752 0217 BC050000 		.4byte	.LASF43
 2753 021b 05       		.byte	0x5
 2754 021c EC       		.byte	0xec
 2755 021d 8C000000 		.4byte	0x8c
 2756 0221 01       		.byte	0x1
 2757 0222 0A       		.uleb128 0xa
 2758 0223 5E050000 		.4byte	.LASF44
 2759 0227 05       		.byte	0x5
 2760 0228 EE       		.byte	0xee
 2761 0229 8C000000 		.4byte	0x8c
 2762 022d 02       		.byte	0x2
 2763 022e 0A       		.uleb128 0xa
 2764 022f 2A010000 		.4byte	.LASF45
 2765 0233 05       		.byte	0x5
 2766 0234 EF       		.byte	0xef
 2767 0235 8C000000 		.4byte	0x8c
 2768 0239 03       		.byte	0x3
 2769 023a 0A       		.uleb128 0xa
 2770 023b 00000000 		.4byte	.LASF46
 2771 023f 05       		.byte	0x5
 2772 0240 F0       		.byte	0xf0
 2773 0241 8C000000 		.4byte	0x8c
 2774 0245 04       		.byte	0x4
 2775 0246 0A       		.uleb128 0xa
 2776 0247 75000000 		.4byte	.LASF47
 2777 024b 05       		.byte	0x5
 2778 024c F1       		.byte	0xf1
 2779 024d 8C000000 		.4byte	0x8c
 2780 0251 05       		.byte	0x5
 2781 0252 0A       		.uleb128 0xa
 2782 0253 03020000 		.4byte	.LASF48
 2783 0257 05       		.byte	0x5
 2784 0258 F8       		.byte	0xf8
 2785 0259 8C000000 		.4byte	0x8c
 2786 025d 06       		.byte	0x6
 2787 025e 0A       		.uleb128 0xa
 2788 025f CA020000 		.4byte	.LASF49
 2789 0263 05       		.byte	0x5
 2790 0264 FC       		.byte	0xfc
 2791 0265 8C000000 		.4byte	0x8c
 2792 0269 07       		.byte	0x7
 2793 026a 0A       		.uleb128 0xa
 2794 026b B9060000 		.4byte	.LASF50
 2795 026f 05       		.byte	0x5
 2796 0270 FF       		.byte	0xff
 2797 0271 A2000000 		.4byte	0xa2
 2798 0275 08       		.byte	0x8
 2799 0276 09       		.uleb128 0x9
 2800 0277 1E050000 		.4byte	.LASF51
 2801 027b 05       		.byte	0x5
ARM GAS  C:\Users\brian\AppData\Local\Temp\cclOaW4l.s 			page 71


 2802 027c 0901     		.2byte	0x109
 2803 027e 8C000000 		.4byte	0x8c
 2804 0282 0C       		.byte	0xc
 2805 0283 09       		.uleb128 0x9
 2806 0284 D5040000 		.4byte	.LASF52
 2807 0288 05       		.byte	0x5
 2808 0289 0C01     		.2byte	0x10c
 2809 028b 8C000000 		.4byte	0x8c
 2810 028f 0D       		.byte	0xd
 2811 0290 09       		.uleb128 0x9
 2812 0291 C2040000 		.4byte	.LASF53
 2813 0295 05       		.byte	0x5
 2814 0296 1201     		.2byte	0x112
 2815 0298 8C000000 		.4byte	0x8c
 2816 029c 0E       		.byte	0xe
 2817 029d 09       		.uleb128 0x9
 2818 029e 71030000 		.4byte	.LASF54
 2819 02a2 05       		.byte	0x5
 2820 02a3 1401     		.2byte	0x114
 2821 02a5 8C000000 		.4byte	0x8c
 2822 02a9 0F       		.byte	0xf
 2823 02aa 09       		.uleb128 0x9
 2824 02ab 0B060000 		.4byte	.LASF55
 2825 02af 05       		.byte	0x5
 2826 02b0 1701     		.2byte	0x117
 2827 02b2 8C000000 		.4byte	0x8c
 2828 02b6 10       		.byte	0x10
 2829 02b7 09       		.uleb128 0x9
 2830 02b8 B1030000 		.4byte	.LASF56
 2831 02bc 05       		.byte	0x5
 2832 02bd 1801     		.2byte	0x118
 2833 02bf 8C000000 		.4byte	0x8c
 2834 02c3 11       		.byte	0x11
 2835 02c4 09       		.uleb128 0x9
 2836 02c5 FD020000 		.4byte	.LASF57
 2837 02c9 05       		.byte	0x5
 2838 02ca 1A01     		.2byte	0x11a
 2839 02cc 8C000000 		.4byte	0x8c
 2840 02d0 12       		.byte	0x12
 2841 02d1 09       		.uleb128 0x9
 2842 02d2 17030000 		.4byte	.LASF58
 2843 02d6 05       		.byte	0x5
 2844 02d7 1B01     		.2byte	0x11b
 2845 02d9 8C000000 		.4byte	0x8c
 2846 02dd 13       		.byte	0x13
 2847 02de 09       		.uleb128 0x9
 2848 02df FF050000 		.4byte	.LASF59
 2849 02e3 05       		.byte	0x5
 2850 02e4 2301     		.2byte	0x123
 2851 02e6 97000000 		.4byte	0x97
 2852 02ea 14       		.byte	0x14
 2853 02eb 09       		.uleb128 0x9
 2854 02ec AC060000 		.4byte	.LASF60
 2855 02f0 05       		.byte	0x5
 2856 02f1 2401     		.2byte	0x124
 2857 02f3 97000000 		.4byte	0x97
 2858 02f7 16       		.byte	0x16
ARM GAS  C:\Users\brian\AppData\Local\Temp\cclOaW4l.s 			page 72


 2859 02f8 00       		.byte	0
 2860 02f9 03       		.uleb128 0x3
 2861 02fa F3030000 		.4byte	.LASF61
 2862 02fe 05       		.byte	0x5
 2863 02ff D1       		.byte	0xd1
 2864 0300 04030000 		.4byte	0x304
 2865 0304 0B       		.uleb128 0xb
 2866 0305 04       		.byte	0x4
 2867 0306 0A030000 		.4byte	0x30a
 2868 030a 0C       		.uleb128 0xc
 2869 030b 8C000000 		.4byte	0x8c
 2870 030f 28030000 		.4byte	0x328
 2871 0313 0D       		.uleb128 0xd
 2872 0314 28030000 		.4byte	0x328
 2873 0318 0D       		.uleb128 0xd
 2874 0319 8C000000 		.4byte	0x8c
 2875 031d 0D       		.uleb128 0xd
 2876 031e 8C000000 		.4byte	0x8c
 2877 0322 0D       		.uleb128 0xd
 2878 0323 CF000000 		.4byte	0xcf
 2879 0327 00       		.byte	0
 2880 0328 0B       		.uleb128 0xb
 2881 0329 04       		.byte	0x4
 2882 032a E3000000 		.4byte	0xe3
 2883 032e 03       		.uleb128 0x3
 2884 032f B8010000 		.4byte	.LASF62
 2885 0333 05       		.byte	0x5
 2886 0334 D2       		.byte	0xd2
 2887 0335 39030000 		.4byte	0x339
 2888 0339 0B       		.uleb128 0xb
 2889 033a 04       		.byte	0x4
 2890 033b 3F030000 		.4byte	0x33f
 2891 033f 0C       		.uleb128 0xc
 2892 0340 97000000 		.4byte	0x97
 2893 0344 53030000 		.4byte	0x353
 2894 0348 0D       		.uleb128 0xd
 2895 0349 28030000 		.4byte	0x328
 2896 034d 0D       		.uleb128 0xd
 2897 034e 8C000000 		.4byte	0x8c
 2898 0352 00       		.byte	0
 2899 0353 0B       		.uleb128 0xb
 2900 0354 04       		.byte	0x4
 2901 0355 8C000000 		.4byte	0x8c
 2902 0359 0B       		.uleb128 0xb
 2903 035a 04       		.byte	0x4
 2904 035b 5F030000 		.4byte	0x35f
 2905 035f 0E       		.uleb128 0xe
 2906 0360 F3010000 		.4byte	0x1f3
 2907 0364 0B       		.uleb128 0xb
 2908 0365 04       		.byte	0x4
 2909 0366 6A030000 		.4byte	0x36a
 2910 036a 0E       		.uleb128 0xe
 2911 036b 8C000000 		.4byte	0x8c
 2912 036f 0F       		.uleb128 0xf
 2913 0370 D4050000 		.4byte	.LASF103
 2914 0374 01       		.byte	0x1
 2915 0375 DA01     		.2byte	0x1da
ARM GAS  C:\Users\brian\AppData\Local\Temp\cclOaW4l.s 			page 73


 2916 0377 00000000 		.4byte	.LFB16
 2917 037b 28000000 		.4byte	.LFE16-.LFB16
 2918 037f 01       		.uleb128 0x1
 2919 0380 9C       		.byte	0x9c
 2920 0381 18040000 		.4byte	0x418
 2921 0385 10       		.uleb128 0x10
 2922 0386 17040000 		.4byte	.LASF63
 2923 038a 01       		.byte	0x1
 2924 038b DA01     		.2byte	0x1da
 2925 038d 28030000 		.4byte	0x328
 2926 0391 00000000 		.4byte	.LLST0
 2927 0395 10       		.uleb128 0x10
 2928 0396 36020000 		.4byte	.LASF64
 2929 039a 01       		.byte	0x1
 2930 039b DA01     		.2byte	0x1da
 2931 039d 8C000000 		.4byte	0x8c
 2932 03a1 1E000000 		.4byte	.LLST1
 2933 03a5 10       		.uleb128 0x10
 2934 03a6 B4050000 		.4byte	.LASF65
 2935 03aa 01       		.byte	0x1
 2936 03ab DA01     		.2byte	0x1da
 2937 03ad CF000000 		.4byte	0xcf
 2938 03b1 3F000000 		.4byte	.LLST2
 2939 03b5 11       		.uleb128 0x11
 2940 03b6 0C000000 		.4byte	.LVL1
 2941 03ba BB180000 		.4byte	0x18bb
 2942 03be C9030000 		.4byte	0x3c9
 2943 03c2 12       		.uleb128 0x12
 2944 03c3 01       		.uleb128 0x1
 2945 03c4 50       		.byte	0x50
 2946 03c5 02       		.uleb128 0x2
 2947 03c6 74       		.byte	0x74
 2948 03c7 00       		.sleb128 0
 2949 03c8 00       		.byte	0
 2950 03c9 11       		.uleb128 0x11
 2951 03ca 14000000 		.4byte	.LVL2
 2952 03ce C7180000 		.4byte	0x18c7
 2953 03d2 E3030000 		.4byte	0x3e3
 2954 03d6 12       		.uleb128 0x12
 2955 03d7 01       		.uleb128 0x1
 2956 03d8 50       		.byte	0x50
 2957 03d9 02       		.uleb128 0x2
 2958 03da 74       		.byte	0x74
 2959 03db 00       		.sleb128 0
 2960 03dc 12       		.uleb128 0x12
 2961 03dd 01       		.uleb128 0x1
 2962 03de 51       		.byte	0x51
 2963 03df 02       		.uleb128 0x2
 2964 03e0 08       		.byte	0x8
 2965 03e1 40       		.byte	0x40
 2966 03e2 00       		.byte	0
 2967 03e3 13       		.uleb128 0x13
 2968 03e4 20000000 		.4byte	.LVL3
 2969 03e8 02       		.uleb128 0x2
 2970 03e9 75       		.byte	0x75
 2971 03ea 00       		.sleb128 0
 2972 03eb 07040000 		.4byte	0x407
ARM GAS  C:\Users\brian\AppData\Local\Temp\cclOaW4l.s 			page 74


 2973 03ef 12       		.uleb128 0x12
 2974 03f0 01       		.uleb128 0x1
 2975 03f1 50       		.byte	0x50
 2976 03f2 02       		.uleb128 0x2
 2977 03f3 74       		.byte	0x74
 2978 03f4 00       		.sleb128 0
 2979 03f5 12       		.uleb128 0x12
 2980 03f6 01       		.uleb128 0x1
 2981 03f7 51       		.byte	0x51
 2982 03f8 01       		.uleb128 0x1
 2983 03f9 47       		.byte	0x47
 2984 03fa 12       		.uleb128 0x12
 2985 03fb 01       		.uleb128 0x1
 2986 03fc 52       		.byte	0x52
 2987 03fd 02       		.uleb128 0x2
 2988 03fe 76       		.byte	0x76
 2989 03ff 00       		.sleb128 0
 2990 0400 12       		.uleb128 0x12
 2991 0401 01       		.uleb128 0x1
 2992 0402 53       		.byte	0x53
 2993 0403 02       		.uleb128 0x2
 2994 0404 77       		.byte	0x77
 2995 0405 00       		.sleb128 0
 2996 0406 00       		.byte	0
 2997 0407 14       		.uleb128 0x14
 2998 0408 26000000 		.4byte	.LVL4
 2999 040c D3180000 		.4byte	0x18d3
 3000 0410 12       		.uleb128 0x12
 3001 0411 01       		.uleb128 0x1
 3002 0412 50       		.byte	0x50
 3003 0413 02       		.uleb128 0x2
 3004 0414 74       		.byte	0x74
 3005 0415 00       		.sleb128 0
 3006 0416 00       		.byte	0
 3007 0417 00       		.byte	0
 3008 0418 15       		.uleb128 0x15
 3009 0419 64060000 		.4byte	.LASF66
 3010 041d 01       		.byte	0x1
 3011 041e 58       		.byte	0x58
 3012 041f 8C000000 		.4byte	0x8c
 3013 0423 00000000 		.4byte	.LFB0
 3014 0427 0E000000 		.4byte	.LFE0-.LFB0
 3015 042b 01       		.uleb128 0x1
 3016 042c 9C       		.byte	0x9c
 3017 042d 6A040000 		.4byte	0x46a
 3018 0431 16       		.uleb128 0x16
 3019 0432 17040000 		.4byte	.LASF63
 3020 0436 01       		.byte	0x1
 3021 0437 58       		.byte	0x58
 3022 0438 28030000 		.4byte	0x328
 3023 043c 5D000000 		.4byte	.LLST3
 3024 0440 17       		.uleb128 0x17
 3025 0441 636D6400 		.ascii	"cmd\000"
 3026 0445 01       		.byte	0x1
 3027 0446 58       		.byte	0x58
 3028 0447 8C000000 		.4byte	0x8c
 3029 044b 7E000000 		.4byte	.LLST4
ARM GAS  C:\Users\brian\AppData\Local\Temp\cclOaW4l.s 			page 75


 3030 044f 18       		.uleb128 0x18
 3031 0450 0C000000 		.4byte	.LVL7
 3032 0454 02       		.uleb128 0x2
 3033 0455 74       		.byte	0x74
 3034 0456 00       		.sleb128 0
 3035 0457 12       		.uleb128 0x12
 3036 0458 01       		.uleb128 0x1
 3037 0459 50       		.byte	0x50
 3038 045a 03       		.uleb128 0x3
 3039 045b F3       		.byte	0xf3
 3040 045c 01       		.uleb128 0x1
 3041 045d 50       		.byte	0x50
 3042 045e 12       		.uleb128 0x12
 3043 045f 01       		.uleb128 0x1
 3044 0460 51       		.byte	0x51
 3045 0461 01       		.uleb128 0x1
 3046 0462 45       		.byte	0x45
 3047 0463 12       		.uleb128 0x12
 3048 0464 01       		.uleb128 0x1
 3049 0465 53       		.byte	0x53
 3050 0466 01       		.uleb128 0x1
 3051 0467 30       		.byte	0x30
 3052 0468 00       		.byte	0
 3053 0469 00       		.byte	0
 3054 046a 15       		.uleb128 0x15
 3055 046b 9B060000 		.4byte	.LASF67
 3056 046f 01       		.byte	0x1
 3057 0470 5D       		.byte	0x5d
 3058 0471 8C000000 		.4byte	0x8c
 3059 0475 00000000 		.4byte	.LFB1
 3060 0479 0E000000 		.4byte	.LFE1-.LFB1
 3061 047d 01       		.uleb128 0x1
 3062 047e 9C       		.byte	0x9c
 3063 047f BC040000 		.4byte	0x4bc
 3064 0483 16       		.uleb128 0x16
 3065 0484 17040000 		.4byte	.LASF63
 3066 0488 01       		.byte	0x1
 3067 0489 5D       		.byte	0x5d
 3068 048a 28030000 		.4byte	0x328
 3069 048e 9F000000 		.4byte	.LLST5
 3070 0492 17       		.uleb128 0x17
 3071 0493 61726700 		.ascii	"arg\000"
 3072 0497 01       		.byte	0x1
 3073 0498 5D       		.byte	0x5d
 3074 0499 8C000000 		.4byte	0x8c
 3075 049d C0000000 		.4byte	.LLST6
 3076 04a1 18       		.uleb128 0x18
 3077 04a2 0C000000 		.4byte	.LVL10
 3078 04a6 02       		.uleb128 0x2
 3079 04a7 74       		.byte	0x74
 3080 04a8 00       		.sleb128 0
 3081 04a9 12       		.uleb128 0x12
 3082 04aa 01       		.uleb128 0x1
 3083 04ab 50       		.byte	0x50
 3084 04ac 03       		.uleb128 0x3
 3085 04ad F3       		.byte	0xf3
 3086 04ae 01       		.uleb128 0x1
ARM GAS  C:\Users\brian\AppData\Local\Temp\cclOaW4l.s 			page 76


 3087 04af 50       		.byte	0x50
 3088 04b0 12       		.uleb128 0x12
 3089 04b1 01       		.uleb128 0x1
 3090 04b2 51       		.byte	0x51
 3091 04b3 01       		.uleb128 0x1
 3092 04b4 46       		.byte	0x46
 3093 04b5 12       		.uleb128 0x12
 3094 04b6 01       		.uleb128 0x1
 3095 04b7 53       		.byte	0x53
 3096 04b8 01       		.uleb128 0x1
 3097 04b9 30       		.byte	0x30
 3098 04ba 00       		.byte	0
 3099 04bb 00       		.byte	0
 3100 04bc 15       		.uleb128 0x15
 3101 04bd 4B060000 		.4byte	.LASF68
 3102 04c1 01       		.byte	0x1
 3103 04c2 62       		.byte	0x62
 3104 04c3 8C000000 		.4byte	0x8c
 3105 04c7 00000000 		.4byte	.LFB2
 3106 04cb 22000000 		.4byte	.LFE2-.LFB2
 3107 04cf 01       		.uleb128 0x1
 3108 04d0 9C       		.byte	0x9c
 3109 04d1 22050000 		.4byte	0x522
 3110 04d5 16       		.uleb128 0x16
 3111 04d6 17040000 		.4byte	.LASF63
 3112 04da 01       		.byte	0x1
 3113 04db 62       		.byte	0x62
 3114 04dc 28030000 		.4byte	0x328
 3115 04e0 E1000000 		.4byte	.LLST7
 3116 04e4 17       		.uleb128 0x17
 3117 04e5 636E7400 		.ascii	"cnt\000"
 3118 04e9 01       		.byte	0x1
 3119 04ea 62       		.byte	0x62
 3120 04eb 8C000000 		.4byte	0x8c
 3121 04ef FF000000 		.4byte	.LLST8
 3122 04f3 17       		.uleb128 0x17
 3123 04f4 61726700 		.ascii	"arg\000"
 3124 04f8 01       		.byte	0x1
 3125 04f9 62       		.byte	0x62
 3126 04fa 8C000000 		.4byte	0x8c
 3127 04fe 28010000 		.4byte	.LLST9
 3128 0502 18       		.uleb128 0x18
 3129 0503 16000000 		.4byte	.LVL13
 3130 0507 02       		.uleb128 0x2
 3131 0508 76       		.byte	0x76
 3132 0509 00       		.sleb128 0
 3133 050a 12       		.uleb128 0x12
 3134 050b 01       		.uleb128 0x1
 3135 050c 50       		.byte	0x50
 3136 050d 02       		.uleb128 0x2
 3137 050e 75       		.byte	0x75
 3138 050f 00       		.sleb128 0
 3139 0510 12       		.uleb128 0x12
 3140 0511 01       		.uleb128 0x1
 3141 0512 51       		.byte	0x51
 3142 0513 01       		.uleb128 0x1
 3143 0514 46       		.byte	0x46
ARM GAS  C:\Users\brian\AppData\Local\Temp\cclOaW4l.s 			page 77


 3144 0515 12       		.uleb128 0x12
 3145 0516 01       		.uleb128 0x1
 3146 0517 52       		.byte	0x52
 3147 0518 02       		.uleb128 0x2
 3148 0519 77       		.byte	0x77
 3149 051a 00       		.sleb128 0
 3150 051b 12       		.uleb128 0x12
 3151 051c 01       		.uleb128 0x1
 3152 051d 53       		.byte	0x53
 3153 051e 01       		.uleb128 0x1
 3154 051f 30       		.byte	0x30
 3155 0520 00       		.byte	0
 3156 0521 00       		.byte	0
 3157 0522 15       		.uleb128 0x15
 3158 0523 6C020000 		.4byte	.LASF69
 3159 0527 01       		.byte	0x1
 3160 0528 6C       		.byte	0x6c
 3161 0529 8C000000 		.4byte	0x8c
 3162 052d 00000000 		.4byte	.LFB3
 3163 0531 0E000000 		.4byte	.LFE3-.LFB3
 3164 0535 01       		.uleb128 0x1
 3165 0536 9C       		.byte	0x9c
 3166 0537 85050000 		.4byte	0x585
 3167 053b 16       		.uleb128 0x16
 3168 053c 17040000 		.4byte	.LASF63
 3169 0540 01       		.byte	0x1
 3170 0541 6C       		.byte	0x6c
 3171 0542 28030000 		.4byte	0x328
 3172 0546 49010000 		.4byte	.LLST10
 3173 054a 17       		.uleb128 0x17
 3174 054b 636E7400 		.ascii	"cnt\000"
 3175 054f 01       		.byte	0x1
 3176 0550 6C       		.byte	0x6c
 3177 0551 8C000000 		.4byte	0x8c
 3178 0555 6A010000 		.4byte	.LLST11
 3179 0559 16       		.uleb128 0x16
 3180 055a 67020000 		.4byte	.LASF70
 3181 055e 01       		.byte	0x1
 3182 055f 6C       		.byte	0x6c
 3183 0560 53030000 		.4byte	0x353
 3184 0564 8B010000 		.4byte	.LLST12
 3185 0568 18       		.uleb128 0x18
 3186 0569 0C000000 		.4byte	.LVL19
 3187 056d 02       		.uleb128 0x2
 3188 056e 74       		.byte	0x74
 3189 056f 00       		.sleb128 0
 3190 0570 12       		.uleb128 0x12
 3191 0571 01       		.uleb128 0x1
 3192 0572 50       		.byte	0x50
 3193 0573 03       		.uleb128 0x3
 3194 0574 F3       		.byte	0xf3
 3195 0575 01       		.uleb128 0x1
 3196 0576 50       		.byte	0x50
 3197 0577 12       		.uleb128 0x12
 3198 0578 01       		.uleb128 0x1
 3199 0579 51       		.byte	0x51
 3200 057a 01       		.uleb128 0x1
ARM GAS  C:\Users\brian\AppData\Local\Temp\cclOaW4l.s 			page 78


 3201 057b 47       		.byte	0x47
 3202 057c 12       		.uleb128 0x12
 3203 057d 01       		.uleb128 0x1
 3204 057e 53       		.byte	0x53
 3205 057f 03       		.uleb128 0x3
 3206 0580 F3       		.byte	0xf3
 3207 0581 01       		.uleb128 0x1
 3208 0582 52       		.byte	0x52
 3209 0583 00       		.byte	0
 3210 0584 00       		.byte	0
 3211 0585 15       		.uleb128 0x15
 3212 0586 F3040000 		.4byte	.LASF71
 3213 058a 01       		.byte	0x1
 3214 058b 71       		.byte	0x71
 3215 058c 8C000000 		.4byte	0x8c
 3216 0590 00000000 		.4byte	.LFB4
 3217 0594 0E000000 		.4byte	.LFE4-.LFB4
 3218 0598 01       		.uleb128 0x1
 3219 0599 9C       		.byte	0x9c
 3220 059a CD050000 		.4byte	0x5cd
 3221 059e 16       		.uleb128 0x16
 3222 059f 17040000 		.4byte	.LASF63
 3223 05a3 01       		.byte	0x1
 3224 05a4 71       		.byte	0x71
 3225 05a5 28030000 		.4byte	0x328
 3226 05a9 B7010000 		.4byte	.LLST13
 3227 05ad 18       		.uleb128 0x18
 3228 05ae 0C000000 		.4byte	.LVL21
 3229 05b2 02       		.uleb128 0x2
 3230 05b3 74       		.byte	0x74
 3231 05b4 00       		.sleb128 0
 3232 05b5 12       		.uleb128 0x12
 3233 05b6 01       		.uleb128 0x1
 3234 05b7 50       		.byte	0x50
 3235 05b8 03       		.uleb128 0x3
 3236 05b9 F3       		.byte	0xf3
 3237 05ba 01       		.uleb128 0x1
 3238 05bb 50       		.byte	0x50
 3239 05bc 12       		.uleb128 0x12
 3240 05bd 01       		.uleb128 0x1
 3241 05be 51       		.byte	0x51
 3242 05bf 01       		.uleb128 0x1
 3243 05c0 48       		.byte	0x48
 3244 05c1 12       		.uleb128 0x12
 3245 05c2 01       		.uleb128 0x1
 3246 05c3 52       		.byte	0x52
 3247 05c4 01       		.uleb128 0x1
 3248 05c5 30       		.byte	0x30
 3249 05c6 12       		.uleb128 0x12
 3250 05c7 01       		.uleb128 0x1
 3251 05c8 53       		.byte	0x53
 3252 05c9 01       		.uleb128 0x1
 3253 05ca 30       		.byte	0x30
 3254 05cb 00       		.byte	0
 3255 05cc 00       		.byte	0
 3256 05cd 15       		.uleb128 0x15
 3257 05ce 49050000 		.4byte	.LASF72
ARM GAS  C:\Users\brian\AppData\Local\Temp\cclOaW4l.s 			page 79


 3258 05d2 01       		.byte	0x1
 3259 05d3 76       		.byte	0x76
 3260 05d4 8C000000 		.4byte	0x8c
 3261 05d8 00000000 		.4byte	.LFB5
 3262 05dc 0E000000 		.4byte	.LFE5-.LFB5
 3263 05e0 01       		.uleb128 0x1
 3264 05e1 9C       		.byte	0x9c
 3265 05e2 15060000 		.4byte	0x615
 3266 05e6 16       		.uleb128 0x16
 3267 05e7 17040000 		.4byte	.LASF63
 3268 05eb 01       		.byte	0x1
 3269 05ec 76       		.byte	0x76
 3270 05ed 28030000 		.4byte	0x328
 3271 05f1 D8010000 		.4byte	.LLST14
 3272 05f5 18       		.uleb128 0x18
 3273 05f6 0C000000 		.4byte	.LVL23
 3274 05fa 02       		.uleb128 0x2
 3275 05fb 74       		.byte	0x74
 3276 05fc 00       		.sleb128 0
 3277 05fd 12       		.uleb128 0x12
 3278 05fe 01       		.uleb128 0x1
 3279 05ff 50       		.byte	0x50
 3280 0600 03       		.uleb128 0x3
 3281 0601 F3       		.byte	0xf3
 3282 0602 01       		.uleb128 0x1
 3283 0603 50       		.byte	0x50
 3284 0604 12       		.uleb128 0x12
 3285 0605 01       		.uleb128 0x1
 3286 0606 51       		.byte	0x51
 3287 0607 01       		.uleb128 0x1
 3288 0608 49       		.byte	0x49
 3289 0609 12       		.uleb128 0x12
 3290 060a 01       		.uleb128 0x1
 3291 060b 52       		.byte	0x52
 3292 060c 01       		.uleb128 0x1
 3293 060d 30       		.byte	0x30
 3294 060e 12       		.uleb128 0x12
 3295 060f 01       		.uleb128 0x1
 3296 0610 53       		.byte	0x53
 3297 0611 01       		.uleb128 0x1
 3298 0612 30       		.byte	0x30
 3299 0613 00       		.byte	0
 3300 0614 00       		.byte	0
 3301 0615 19       		.uleb128 0x19
 3302 0616 B4000000 		.4byte	.LASF74
 3303 061a 01       		.byte	0x1
 3304 061b 7B       		.byte	0x7b
 3305 061c 00000000 		.4byte	.LFB6
 3306 0620 54000000 		.4byte	.LFE6-.LFB6
 3307 0624 01       		.uleb128 0x1
 3308 0625 9C       		.byte	0x9c
 3309 0626 CE060000 		.4byte	0x6ce
 3310 062a 16       		.uleb128 0x16
 3311 062b 17040000 		.4byte	.LASF63
 3312 062f 01       		.byte	0x1
 3313 0630 7B       		.byte	0x7b
 3314 0631 28030000 		.4byte	0x328
ARM GAS  C:\Users\brian\AppData\Local\Temp\cclOaW4l.s 			page 80


 3315 0635 F9010000 		.4byte	.LLST15
 3316 0639 17       		.uleb128 0x17
 3317 063a 666D7400 		.ascii	"fmt\000"
 3318 063e 01       		.byte	0x1
 3319 063f 7B       		.byte	0x7b
 3320 0640 CE060000 		.4byte	0x6ce
 3321 0644 17020000 		.4byte	.LLST16
 3322 0648 17       		.uleb128 0x17
 3323 0649 766100   		.ascii	"va\000"
 3324 064c 01       		.byte	0x1
 3325 064d 7B       		.byte	0x7b
 3326 064e D1000000 		.4byte	0xd1
 3327 0652 35020000 		.4byte	.LLST17
 3328 0656 1A       		.uleb128 0x1a
 3329 0657 6400     		.ascii	"d\000"
 3330 0659 01       		.byte	0x1
 3331 065a 7D       		.byte	0x7d
 3332 065b 8C000000 		.4byte	0x8c
 3333 065f 02       		.uleb128 0x2
 3334 0660 91       		.byte	0x91
 3335 0661 6F       		.sleb128 -17
 3336 0662 11       		.uleb128 0x11
 3337 0663 0E000000 		.4byte	.LVL25
 3338 0667 85050000 		.4byte	0x585
 3339 066b 76060000 		.4byte	0x676
 3340 066f 12       		.uleb128 0x12
 3341 0670 01       		.uleb128 0x1
 3342 0671 50       		.byte	0x50
 3343 0672 02       		.uleb128 0x2
 3344 0673 76       		.byte	0x76
 3345 0674 00       		.sleb128 0
 3346 0675 00       		.byte	0
 3347 0676 11       		.uleb128 0x11
 3348 0677 2C000000 		.4byte	.LVL28
 3349 067b 6A040000 		.4byte	0x46a
 3350 067f 8A060000 		.4byte	0x68a
 3351 0683 12       		.uleb128 0x12
 3352 0684 01       		.uleb128 0x1
 3353 0685 50       		.byte	0x50
 3354 0686 02       		.uleb128 0x2
 3355 0687 76       		.byte	0x76
 3356 0688 00       		.sleb128 0
 3357 0689 00       		.byte	0
 3358 068a 11       		.uleb128 0x11
 3359 068b 34000000 		.4byte	.LVL29
 3360 068f 18040000 		.4byte	0x418
 3361 0693 9E060000 		.4byte	0x69e
 3362 0697 12       		.uleb128 0x12
 3363 0698 01       		.uleb128 0x1
 3364 0699 50       		.byte	0x50
 3365 069a 02       		.uleb128 0x2
 3366 069b 76       		.byte	0x76
 3367 069c 00       		.sleb128 0
 3368 069d 00       		.byte	0
 3369 069e 11       		.uleb128 0x11
 3370 069f 42000000 		.4byte	.LVL30
 3371 06a3 22050000 		.4byte	0x522
ARM GAS  C:\Users\brian\AppData\Local\Temp\cclOaW4l.s 			page 81


 3372 06a7 BD060000 		.4byte	0x6bd
 3373 06ab 12       		.uleb128 0x12
 3374 06ac 01       		.uleb128 0x1
 3375 06ad 50       		.byte	0x50
 3376 06ae 02       		.uleb128 0x2
 3377 06af 76       		.byte	0x76
 3378 06b0 00       		.sleb128 0
 3379 06b1 12       		.uleb128 0x12
 3380 06b2 01       		.uleb128 0x1
 3381 06b3 51       		.byte	0x51
 3382 06b4 01       		.uleb128 0x1
 3383 06b5 31       		.byte	0x31
 3384 06b6 12       		.uleb128 0x12
 3385 06b7 01       		.uleb128 0x1
 3386 06b8 52       		.byte	0x52
 3387 06b9 02       		.uleb128 0x2
 3388 06ba 91       		.byte	0x91
 3389 06bb 6F       		.sleb128 -17
 3390 06bc 00       		.byte	0
 3391 06bd 14       		.uleb128 0x14
 3392 06be 50000000 		.4byte	.LVL32
 3393 06c2 CD050000 		.4byte	0x5cd
 3394 06c6 12       		.uleb128 0x12
 3395 06c7 01       		.uleb128 0x1
 3396 06c8 50       		.byte	0x50
 3397 06c9 02       		.uleb128 0x2
 3398 06ca 76       		.byte	0x76
 3399 06cb 00       		.sleb128 0
 3400 06cc 00       		.byte	0
 3401 06cd 00       		.byte	0
 3402 06ce 0B       		.uleb128 0xb
 3403 06cf 04       		.byte	0x4
 3404 06d0 DB060000 		.4byte	0x6db
 3405 06d4 02       		.uleb128 0x2
 3406 06d5 01       		.byte	0x1
 3407 06d6 08       		.byte	0x8
 3408 06d7 39050000 		.4byte	.LASF73
 3409 06db 0E       		.uleb128 0xe
 3410 06dc D4060000 		.4byte	0x6d4
 3411 06e0 19       		.uleb128 0x19
 3412 06e1 3E020000 		.4byte	.LASF75
 3413 06e5 01       		.byte	0x1
 3414 06e6 8D       		.byte	0x8d
 3415 06e7 00000000 		.4byte	.LFB7
 3416 06eb 1C000000 		.4byte	.LFE7-.LFB7
 3417 06ef 01       		.uleb128 0x1
 3418 06f0 9C       		.byte	0x9c
 3419 06f1 3F070000 		.4byte	0x73f
 3420 06f5 16       		.uleb128 0x16
 3421 06f6 17040000 		.4byte	.LASF63
 3422 06fa 01       		.byte	0x1
 3423 06fb 8D       		.byte	0x8d
 3424 06fc 28030000 		.4byte	0x328
 3425 0700 53020000 		.4byte	.LLST18
 3426 0704 1B       		.uleb128 0x1b
 3427 0705 666D7400 		.ascii	"fmt\000"
 3428 0709 01       		.byte	0x1
ARM GAS  C:\Users\brian\AppData\Local\Temp\cclOaW4l.s 			page 82


 3429 070a 8D       		.byte	0x8d
 3430 070b CE060000 		.4byte	0x6ce
 3431 070f 02       		.uleb128 0x2
 3432 0710 91       		.byte	0x91
 3433 0711 74       		.sleb128 -12
 3434 0712 1C       		.uleb128 0x1c
 3435 0713 1A       		.uleb128 0x1a
 3436 0714 766100   		.ascii	"va\000"
 3437 0717 01       		.byte	0x1
 3438 0718 8F       		.byte	0x8f
 3439 0719 D1000000 		.4byte	0xd1
 3440 071d 02       		.uleb128 0x2
 3441 071e 91       		.byte	0x91
 3442 071f 6C       		.sleb128 -20
 3443 0720 14       		.uleb128 0x14
 3444 0721 12000000 		.4byte	.LVL34
 3445 0725 15060000 		.4byte	0x615
 3446 0729 12       		.uleb128 0x12
 3447 072a 01       		.uleb128 0x1
 3448 072b 50       		.byte	0x50
 3449 072c 03       		.uleb128 0x3
 3450 072d F3       		.byte	0xf3
 3451 072e 01       		.uleb128 0x1
 3452 072f 50       		.byte	0x50
 3453 0730 12       		.uleb128 0x12
 3454 0731 01       		.uleb128 0x1
 3455 0732 51       		.byte	0x51
 3456 0733 03       		.uleb128 0x3
 3457 0734 91       		.byte	0x91
 3458 0735 5C       		.sleb128 -36
 3459 0736 06       		.byte	0x6
 3460 0737 12       		.uleb128 0x12
 3461 0738 01       		.uleb128 0x1
 3462 0739 52       		.byte	0x52
 3463 073a 02       		.uleb128 0x2
 3464 073b 91       		.byte	0x91
 3465 073c 60       		.sleb128 -32
 3466 073d 00       		.byte	0
 3467 073e 00       		.byte	0
 3468 073f 19       		.uleb128 0x19
 3469 0740 7D010000 		.4byte	.LASF76
 3470 0744 01       		.byte	0x1
 3471 0745 9F       		.byte	0x9f
 3472 0746 00000000 		.4byte	.LFB8
 3473 074a 6A000000 		.4byte	.LFE8-.LFB8
 3474 074e 01       		.uleb128 0x1
 3475 074f 9C       		.byte	0x9c
 3476 0750 F8070000 		.4byte	0x7f8
 3477 0754 16       		.uleb128 0x16
 3478 0755 17040000 		.4byte	.LASF63
 3479 0759 01       		.byte	0x1
 3480 075a 9F       		.byte	0x9f
 3481 075b 28030000 		.4byte	0x328
 3482 075f 74020000 		.4byte	.LLST19
 3483 0763 16       		.uleb128 0x16
 3484 0764 67020000 		.4byte	.LASF70
 3485 0768 01       		.byte	0x1
ARM GAS  C:\Users\brian\AppData\Local\Temp\cclOaW4l.s 			page 83


 3486 0769 9F       		.byte	0x9f
 3487 076a 64030000 		.4byte	0x364
 3488 076e 92020000 		.4byte	.LLST20
 3489 0772 1D       		.uleb128 0x1d
 3490 0773 636D6400 		.ascii	"cmd\000"
 3491 0777 01       		.byte	0x1
 3492 0778 A1       		.byte	0xa1
 3493 0779 8C000000 		.4byte	0x8c
 3494 077d F8020000 		.4byte	.LLST21
 3495 0781 1A       		.uleb128 0x1a
 3496 0782 7600     		.ascii	"v\000"
 3497 0784 01       		.byte	0x1
 3498 0785 A2       		.byte	0xa2
 3499 0786 8C000000 		.4byte	0x8c
 3500 078a 02       		.uleb128 0x2
 3501 078b 91       		.byte	0x91
 3502 078c 6F       		.sleb128 -17
 3503 078d 13       		.uleb128 0x13
 3504 078e 32000000 		.4byte	.LVL39
 3505 0792 02       		.uleb128 0x2
 3506 0793 76       		.byte	0x76
 3507 0794 00       		.sleb128 0
 3508 0795 A5070000 		.4byte	0x7a5
 3509 0799 12       		.uleb128 0x12
 3510 079a 01       		.uleb128 0x1
 3511 079b 50       		.byte	0x50
 3512 079c 02       		.uleb128 0x2
 3513 079d 75       		.byte	0x75
 3514 079e 00       		.sleb128 0
 3515 079f 12       		.uleb128 0x12
 3516 07a0 01       		.uleb128 0x1
 3517 07a1 53       		.byte	0x53
 3518 07a2 01       		.uleb128 0x1
 3519 07a3 30       		.byte	0x30
 3520 07a4 00       		.byte	0
 3521 07a5 11       		.uleb128 0x11
 3522 07a6 46000000 		.4byte	.LVL43
 3523 07aa 22050000 		.4byte	0x522
 3524 07ae C4070000 		.4byte	0x7c4
 3525 07b2 12       		.uleb128 0x12
 3526 07b3 01       		.uleb128 0x1
 3527 07b4 50       		.byte	0x50
 3528 07b5 02       		.uleb128 0x2
 3529 07b6 75       		.byte	0x75
 3530 07b7 00       		.sleb128 0
 3531 07b8 12       		.uleb128 0x12
 3532 07b9 01       		.uleb128 0x1
 3533 07ba 51       		.byte	0x51
 3534 07bb 01       		.uleb128 0x1
 3535 07bc 31       		.byte	0x31
 3536 07bd 12       		.uleb128 0x12
 3537 07be 01       		.uleb128 0x1
 3538 07bf 52       		.byte	0x52
 3539 07c0 02       		.uleb128 0x2
 3540 07c1 91       		.byte	0x91
 3541 07c2 6F       		.sleb128 -17
 3542 07c3 00       		.byte	0
ARM GAS  C:\Users\brian\AppData\Local\Temp\cclOaW4l.s 			page 84


 3543 07c4 13       		.uleb128 0x13
 3544 07c5 52000000 		.4byte	.LVL45
 3545 07c9 02       		.uleb128 0x2
 3546 07ca 76       		.byte	0x76
 3547 07cb 00       		.sleb128 0
 3548 07cc E1070000 		.4byte	0x7e1
 3549 07d0 12       		.uleb128 0x12
 3550 07d1 01       		.uleb128 0x1
 3551 07d2 50       		.byte	0x50
 3552 07d3 02       		.uleb128 0x2
 3553 07d4 75       		.byte	0x75
 3554 07d5 00       		.sleb128 0
 3555 07d6 12       		.uleb128 0x12
 3556 07d7 01       		.uleb128 0x1
 3557 07d8 52       		.byte	0x52
 3558 07d9 01       		.uleb128 0x1
 3559 07da 30       		.byte	0x30
 3560 07db 12       		.uleb128 0x12
 3561 07dc 01       		.uleb128 0x1
 3562 07dd 53       		.byte	0x53
 3563 07de 01       		.uleb128 0x1
 3564 07df 30       		.byte	0x30
 3565 07e0 00       		.byte	0
 3566 07e1 14       		.uleb128 0x14
 3567 07e2 64000000 		.4byte	.LVL49
 3568 07e6 DF180000 		.4byte	0x18df
 3569 07ea 12       		.uleb128 0x12
 3570 07eb 01       		.uleb128 0x1
 3571 07ec 50       		.byte	0x50
 3572 07ed 02       		.uleb128 0x2
 3573 07ee 75       		.byte	0x75
 3574 07ef 00       		.sleb128 0
 3575 07f0 12       		.uleb128 0x12
 3576 07f1 01       		.uleb128 0x1
 3577 07f2 51       		.byte	0x51
 3578 07f3 02       		.uleb128 0x2
 3579 07f4 08       		.byte	0x8
 3580 07f5 29       		.byte	0x29
 3581 07f6 00       		.byte	0
 3582 07f7 00       		.byte	0
 3583 07f8 15       		.uleb128 0x15
 3584 07f9 2F000000 		.4byte	.LASF77
 3585 07fd 01       		.byte	0x1
 3586 07fe C5       		.byte	0xc5
 3587 07ff 8C000000 		.4byte	0x8c
 3588 0803 00000000 		.4byte	.LFB9
 3589 0807 32000000 		.4byte	.LFE9-.LFB9
 3590 080b 01       		.uleb128 0x1
 3591 080c 9C       		.byte	0x9c
 3592 080d 70080000 		.4byte	0x870
 3593 0811 16       		.uleb128 0x16
 3594 0812 17040000 		.4byte	.LASF63
 3595 0816 01       		.byte	0x1
 3596 0817 C5       		.byte	0xc5
 3597 0818 28030000 		.4byte	0x328
 3598 081c 37030000 		.4byte	.LLST22
 3599 0820 17       		.uleb128 0x17
ARM GAS  C:\Users\brian\AppData\Local\Temp\cclOaW4l.s 			page 85


 3600 0821 6D736700 		.ascii	"msg\000"
 3601 0825 01       		.byte	0x1
 3602 0826 C5       		.byte	0xc5
 3603 0827 8C000000 		.4byte	0x8c
 3604 082b A3030000 		.4byte	.LLST23
 3605 082f 16       		.uleb128 0x16
 3606 0830 36020000 		.4byte	.LASF64
 3607 0834 01       		.byte	0x1
 3608 0835 C5       		.byte	0xc5
 3609 0836 8C000000 		.4byte	0x8c
 3610 083a 01040000 		.4byte	.LLST24
 3611 083e 16       		.uleb128 0x16
 3612 083f B4050000 		.4byte	.LASF65
 3613 0843 01       		.byte	0x1
 3614 0844 C5       		.byte	0xc5
 3615 0845 CF000000 		.4byte	0xcf
 3616 0849 5F040000 		.4byte	.LLST25
 3617 084d 1E       		.uleb128 0x1e
 3618 084e 1A000000 		.4byte	.LVL53
 3619 0852 C7180000 		.4byte	0x18c7
 3620 0856 1E       		.uleb128 0x1e
 3621 0857 24000000 		.4byte	.LVL56
 3622 085b C7180000 		.4byte	0x18c7
 3623 085f 18       		.uleb128 0x18
 3624 0860 2C000000 		.4byte	.LVL58
 3625 0864 02       		.uleb128 0x2
 3626 0865 74       		.byte	0x74
 3627 0866 00       		.sleb128 0
 3628 0867 12       		.uleb128 0x12
 3629 0868 01       		.uleb128 0x1
 3630 0869 50       		.byte	0x50
 3631 086a 03       		.uleb128 0x3
 3632 086b F3       		.byte	0xf3
 3633 086c 01       		.uleb128 0x1
 3634 086d 50       		.byte	0x50
 3635 086e 00       		.byte	0
 3636 086f 00       		.byte	0
 3637 0870 15       		.uleb128 0x15
 3638 0871 3E000000 		.4byte	.LASF78
 3639 0875 01       		.byte	0x1
 3640 0876 E0       		.byte	0xe0
 3641 0877 8C000000 		.4byte	0x8c
 3642 087b 00000000 		.4byte	.LFB10
 3643 087f 62000000 		.4byte	.LFE10-.LFB10
 3644 0883 01       		.uleb128 0x1
 3645 0884 9C       		.byte	0x9c
 3646 0885 54090000 		.4byte	0x954
 3647 0889 16       		.uleb128 0x16
 3648 088a 17040000 		.4byte	.LASF63
 3649 088e 01       		.byte	0x1
 3650 088f E0       		.byte	0xe0
 3651 0890 28030000 		.4byte	0x328
 3652 0894 BD040000 		.4byte	.LLST26
 3653 0898 17       		.uleb128 0x17
 3654 0899 6D736700 		.ascii	"msg\000"
 3655 089d 01       		.byte	0x1
 3656 089e E0       		.byte	0xe0
ARM GAS  C:\Users\brian\AppData\Local\Temp\cclOaW4l.s 			page 86


 3657 089f 8C000000 		.4byte	0x8c
 3658 08a3 1D050000 		.4byte	.LLST27
 3659 08a7 16       		.uleb128 0x16
 3660 08a8 36020000 		.4byte	.LASF64
 3661 08ac 01       		.byte	0x1
 3662 08ad E0       		.byte	0xe0
 3663 08ae 8C000000 		.4byte	0x8c
 3664 08b2 7B050000 		.4byte	.LLST28
 3665 08b6 16       		.uleb128 0x16
 3666 08b7 B4050000 		.4byte	.LASF65
 3667 08bb 01       		.byte	0x1
 3668 08bc E0       		.byte	0xe0
 3669 08bd CF000000 		.4byte	0xcf
 3670 08c1 9C050000 		.4byte	.LLST29
 3671 08c5 11       		.uleb128 0x11
 3672 08c6 24000000 		.4byte	.LVL65
 3673 08ca EB180000 		.4byte	0x18eb
 3674 08ce D8080000 		.4byte	0x8d8
 3675 08d2 12       		.uleb128 0x12
 3676 08d3 01       		.uleb128 0x1
 3677 08d4 51       		.byte	0x51
 3678 08d5 01       		.uleb128 0x1
 3679 08d6 31       		.byte	0x31
 3680 08d7 00       		.byte	0
 3681 08d8 11       		.uleb128 0x11
 3682 08d9 2C000000 		.4byte	.LVL66
 3683 08dd C7180000 		.4byte	0x18c7
 3684 08e1 F2080000 		.4byte	0x8f2
 3685 08e5 12       		.uleb128 0x12
 3686 08e6 01       		.uleb128 0x1
 3687 08e7 50       		.byte	0x50
 3688 08e8 02       		.uleb128 0x2
 3689 08e9 74       		.byte	0x74
 3690 08ea 00       		.sleb128 0
 3691 08eb 12       		.uleb128 0x12
 3692 08ec 01       		.uleb128 0x1
 3693 08ed 51       		.byte	0x51
 3694 08ee 02       		.uleb128 0x2
 3695 08ef 76       		.byte	0x76
 3696 08f0 00       		.sleb128 0
 3697 08f1 00       		.byte	0
 3698 08f2 11       		.uleb128 0x11
 3699 08f3 38000000 		.4byte	.LVL69
 3700 08f7 EB180000 		.4byte	0x18eb
 3701 08fb 05090000 		.4byte	0x905
 3702 08ff 12       		.uleb128 0x12
 3703 0900 01       		.uleb128 0x1
 3704 0901 51       		.byte	0x51
 3705 0902 01       		.uleb128 0x1
 3706 0903 31       		.byte	0x31
 3707 0904 00       		.byte	0
 3708 0905 11       		.uleb128 0x11
 3709 0906 40000000 		.4byte	.LVL70
 3710 090a C7180000 		.4byte	0x18c7
 3711 090e 1F090000 		.4byte	0x91f
 3712 0912 12       		.uleb128 0x12
 3713 0913 01       		.uleb128 0x1
ARM GAS  C:\Users\brian\AppData\Local\Temp\cclOaW4l.s 			page 87


 3714 0914 50       		.byte	0x50
 3715 0915 02       		.uleb128 0x2
 3716 0916 74       		.byte	0x74
 3717 0917 00       		.sleb128 0
 3718 0918 12       		.uleb128 0x12
 3719 0919 01       		.uleb128 0x1
 3720 091a 51       		.byte	0x51
 3721 091b 02       		.uleb128 0x2
 3722 091c 76       		.byte	0x76
 3723 091d 00       		.sleb128 0
 3724 091e 00       		.byte	0
 3725 091f 11       		.uleb128 0x11
 3726 0920 4C000000 		.4byte	.LVL73
 3727 0924 EB180000 		.4byte	0x18eb
 3728 0928 32090000 		.4byte	0x932
 3729 092c 12       		.uleb128 0x12
 3730 092d 01       		.uleb128 0x1
 3731 092e 51       		.byte	0x51
 3732 092f 01       		.uleb128 0x1
 3733 0930 30       		.byte	0x30
 3734 0931 00       		.byte	0
 3735 0932 18       		.uleb128 0x18
 3736 0933 58000000 		.4byte	.LVL74
 3737 0937 02       		.uleb128 0x2
 3738 0938 77       		.byte	0x77
 3739 0939 00       		.sleb128 0
 3740 093a 12       		.uleb128 0x12
 3741 093b 01       		.uleb128 0x1
 3742 093c 50       		.byte	0x50
 3743 093d 02       		.uleb128 0x2
 3744 093e 74       		.byte	0x74
 3745 093f 00       		.sleb128 0
 3746 0940 12       		.uleb128 0x12
 3747 0941 01       		.uleb128 0x1
 3748 0942 51       		.byte	0x51
 3749 0943 02       		.uleb128 0x2
 3750 0944 75       		.byte	0x75
 3751 0945 00       		.sleb128 0
 3752 0946 12       		.uleb128 0x12
 3753 0947 01       		.uleb128 0x1
 3754 0948 52       		.byte	0x52
 3755 0949 02       		.uleb128 0x2
 3756 094a 76       		.byte	0x76
 3757 094b 00       		.sleb128 0
 3758 094c 12       		.uleb128 0x12
 3759 094d 01       		.uleb128 0x1
 3760 094e 53       		.byte	0x53
 3761 094f 02       		.uleb128 0x2
 3762 0950 78       		.byte	0x78
 3763 0951 00       		.sleb128 0
 3764 0952 00       		.byte	0
 3765 0953 00       		.byte	0
 3766 0954 1F       		.uleb128 0x1f
 3767 0955 60010000 		.4byte	.LASF79
 3768 0959 01       		.byte	0x1
 3769 095a 0001     		.2byte	0x100
 3770 095c 8C000000 		.4byte	0x8c
ARM GAS  C:\Users\brian\AppData\Local\Temp\cclOaW4l.s 			page 88


 3771 0960 00000000 		.4byte	.LFB11
 3772 0964 94000000 		.4byte	.LFE11-.LFB11
 3773 0968 01       		.uleb128 0x1
 3774 0969 9C       		.byte	0x9c
 3775 096a D30A0000 		.4byte	0xad3
 3776 096e 10       		.uleb128 0x10
 3777 096f 17040000 		.4byte	.LASF63
 3778 0973 01       		.byte	0x1
 3779 0974 0001     		.2byte	0x100
 3780 0976 28030000 		.4byte	0x328
 3781 097a BA050000 		.4byte	.LLST30
 3782 097e 20       		.uleb128 0x20
 3783 097f 6D736700 		.ascii	"msg\000"
 3784 0983 01       		.byte	0x1
 3785 0984 0001     		.2byte	0x100
 3786 0986 8C000000 		.4byte	0x8c
 3787 098a 46060000 		.4byte	.LLST31
 3788 098e 10       		.uleb128 0x10
 3789 098f 36020000 		.4byte	.LASF64
 3790 0993 01       		.byte	0x1
 3791 0994 0001     		.2byte	0x100
 3792 0996 8C000000 		.4byte	0x8c
 3793 099a BD060000 		.4byte	.LLST32
 3794 099e 10       		.uleb128 0x10
 3795 099f B4050000 		.4byte	.LASF65
 3796 09a3 01       		.byte	0x1
 3797 09a4 0001     		.2byte	0x100
 3798 09a6 CF000000 		.4byte	0xcf
 3799 09aa 02070000 		.4byte	.LLST33
 3800 09ae 21       		.uleb128 0x21
 3801 09af 67020000 		.4byte	.LASF70
 3802 09b3 01       		.byte	0x1
 3803 09b4 0201     		.2byte	0x102
 3804 09b6 53030000 		.4byte	0x353
 3805 09ba 39070000 		.4byte	.LLST34
 3806 09be 11       		.uleb128 0x11
 3807 09bf 24000000 		.4byte	.LVL83
 3808 09c3 EB180000 		.4byte	0x18eb
 3809 09c7 D1090000 		.4byte	0x9d1
 3810 09cb 12       		.uleb128 0x12
 3811 09cc 01       		.uleb128 0x1
 3812 09cd 51       		.byte	0x51
 3813 09ce 01       		.uleb128 0x1
 3814 09cf 31       		.byte	0x31
 3815 09d0 00       		.byte	0
 3816 09d1 11       		.uleb128 0x11
 3817 09d2 2A000000 		.4byte	.LVL84
 3818 09d6 BB180000 		.4byte	0x18bb
 3819 09da E5090000 		.4byte	0x9e5
 3820 09de 12       		.uleb128 0x12
 3821 09df 01       		.uleb128 0x1
 3822 09e0 50       		.byte	0x50
 3823 09e1 02       		.uleb128 0x2
 3824 09e2 75       		.byte	0x75
 3825 09e3 00       		.sleb128 0
 3826 09e4 00       		.byte	0
 3827 09e5 11       		.uleb128 0x11
ARM GAS  C:\Users\brian\AppData\Local\Temp\cclOaW4l.s 			page 89


 3828 09e6 32000000 		.4byte	.LVL85
 3829 09ea C7180000 		.4byte	0x18c7
 3830 09ee FF090000 		.4byte	0x9ff
 3831 09f2 12       		.uleb128 0x12
 3832 09f3 01       		.uleb128 0x1
 3833 09f4 50       		.byte	0x50
 3834 09f5 02       		.uleb128 0x2
 3835 09f6 75       		.byte	0x75
 3836 09f7 00       		.sleb128 0
 3837 09f8 12       		.uleb128 0x12
 3838 09f9 01       		.uleb128 0x1
 3839 09fa 51       		.byte	0x51
 3840 09fb 02       		.uleb128 0x2
 3841 09fc 74       		.byte	0x74
 3842 09fd 00       		.sleb128 0
 3843 09fe 00       		.byte	0
 3844 09ff 11       		.uleb128 0x11
 3845 0a00 38000000 		.4byte	.LVL86
 3846 0a04 D3180000 		.4byte	0x18d3
 3847 0a08 130A0000 		.4byte	0xa13
 3848 0a0c 12       		.uleb128 0x12
 3849 0a0d 01       		.uleb128 0x1
 3850 0a0e 50       		.byte	0x50
 3851 0a0f 02       		.uleb128 0x2
 3852 0a10 75       		.byte	0x75
 3853 0a11 00       		.sleb128 0
 3854 0a12 00       		.byte	0
 3855 0a13 11       		.uleb128 0x11
 3856 0a14 42000000 		.4byte	.LVL89
 3857 0a18 EB180000 		.4byte	0x18eb
 3858 0a1c 260A0000 		.4byte	0xa26
 3859 0a20 12       		.uleb128 0x12
 3860 0a21 01       		.uleb128 0x1
 3861 0a22 51       		.byte	0x51
 3862 0a23 01       		.uleb128 0x1
 3863 0a24 31       		.byte	0x31
 3864 0a25 00       		.byte	0
 3865 0a26 11       		.uleb128 0x11
 3866 0a27 48000000 		.4byte	.LVL90
 3867 0a2b BB180000 		.4byte	0x18bb
 3868 0a2f 3A0A0000 		.4byte	0xa3a
 3869 0a33 12       		.uleb128 0x12
 3870 0a34 01       		.uleb128 0x1
 3871 0a35 50       		.byte	0x50
 3872 0a36 02       		.uleb128 0x2
 3873 0a37 75       		.byte	0x75
 3874 0a38 00       		.sleb128 0
 3875 0a39 00       		.byte	0
 3876 0a3a 11       		.uleb128 0x11
 3877 0a3b 50000000 		.4byte	.LVL91
 3878 0a3f C7180000 		.4byte	0x18c7
 3879 0a43 540A0000 		.4byte	0xa54
 3880 0a47 12       		.uleb128 0x12
 3881 0a48 01       		.uleb128 0x1
 3882 0a49 50       		.byte	0x50
 3883 0a4a 02       		.uleb128 0x2
 3884 0a4b 75       		.byte	0x75
ARM GAS  C:\Users\brian\AppData\Local\Temp\cclOaW4l.s 			page 90


 3885 0a4c 00       		.sleb128 0
 3886 0a4d 12       		.uleb128 0x12
 3887 0a4e 01       		.uleb128 0x1
 3888 0a4f 51       		.byte	0x51
 3889 0a50 02       		.uleb128 0x2
 3890 0a51 74       		.byte	0x74
 3891 0a52 00       		.sleb128 0
 3892 0a53 00       		.byte	0
 3893 0a54 11       		.uleb128 0x11
 3894 0a55 56000000 		.4byte	.LVL92
 3895 0a59 D3180000 		.4byte	0x18d3
 3896 0a5d 680A0000 		.4byte	0xa68
 3897 0a61 12       		.uleb128 0x12
 3898 0a62 01       		.uleb128 0x1
 3899 0a63 50       		.byte	0x50
 3900 0a64 02       		.uleb128 0x2
 3901 0a65 75       		.byte	0x75
 3902 0a66 00       		.sleb128 0
 3903 0a67 00       		.byte	0
 3904 0a68 11       		.uleb128 0x11
 3905 0a69 60000000 		.4byte	.LVL95
 3906 0a6d EB180000 		.4byte	0x18eb
 3907 0a71 7B0A0000 		.4byte	0xa7b
 3908 0a75 12       		.uleb128 0x12
 3909 0a76 01       		.uleb128 0x1
 3910 0a77 51       		.byte	0x51
 3911 0a78 01       		.uleb128 0x1
 3912 0a79 30       		.byte	0x30
 3913 0a7a 00       		.byte	0
 3914 0a7b 11       		.uleb128 0x11
 3915 0a7c 68000000 		.4byte	.LVL97
 3916 0a80 BB180000 		.4byte	0x18bb
 3917 0a84 8F0A0000 		.4byte	0xa8f
 3918 0a88 12       		.uleb128 0x12
 3919 0a89 01       		.uleb128 0x1
 3920 0a8a 50       		.byte	0x50
 3921 0a8b 02       		.uleb128 0x2
 3922 0a8c 75       		.byte	0x75
 3923 0a8d 00       		.sleb128 0
 3924 0a8e 00       		.byte	0
 3925 0a8f 11       		.uleb128 0x11
 3926 0a90 72000000 		.4byte	.LVL99
 3927 0a94 C7180000 		.4byte	0x18c7
 3928 0a98 A30A0000 		.4byte	0xaa3
 3929 0a9c 12       		.uleb128 0x12
 3930 0a9d 01       		.uleb128 0x1
 3931 0a9e 50       		.byte	0x50
 3932 0a9f 02       		.uleb128 0x2
 3933 0aa0 75       		.byte	0x75
 3934 0aa1 00       		.sleb128 0
 3935 0aa2 00       		.byte	0
 3936 0aa3 11       		.uleb128 0x11
 3937 0aa4 78000000 		.4byte	.LVL100
 3938 0aa8 D3180000 		.4byte	0x18d3
 3939 0aac B70A0000 		.4byte	0xab7
 3940 0ab0 12       		.uleb128 0x12
 3941 0ab1 01       		.uleb128 0x1
ARM GAS  C:\Users\brian\AppData\Local\Temp\cclOaW4l.s 			page 91


 3942 0ab2 50       		.byte	0x50
 3943 0ab3 02       		.uleb128 0x2
 3944 0ab4 75       		.byte	0x75
 3945 0ab5 00       		.sleb128 0
 3946 0ab6 00       		.byte	0
 3947 0ab7 18       		.uleb128 0x18
 3948 0ab8 8C000000 		.4byte	.LVL104
 3949 0abc 02       		.uleb128 0x2
 3950 0abd 77       		.byte	0x77
 3951 0abe 00       		.sleb128 0
 3952 0abf 12       		.uleb128 0x12
 3953 0ac0 01       		.uleb128 0x1
 3954 0ac1 50       		.byte	0x50
 3955 0ac2 02       		.uleb128 0x2
 3956 0ac3 75       		.byte	0x75
 3957 0ac4 00       		.sleb128 0
 3958 0ac5 12       		.uleb128 0x12
 3959 0ac6 01       		.uleb128 0x1
 3960 0ac7 52       		.byte	0x52
 3961 0ac8 02       		.uleb128 0x2
 3962 0ac9 74       		.byte	0x74
 3963 0aca 00       		.sleb128 0
 3964 0acb 12       		.uleb128 0x12
 3965 0acc 01       		.uleb128 0x1
 3966 0acd 53       		.byte	0x53
 3967 0ace 02       		.uleb128 0x2
 3968 0acf 76       		.byte	0x76
 3969 0ad0 00       		.sleb128 0
 3970 0ad1 00       		.byte	0
 3971 0ad2 00       		.byte	0
 3972 0ad3 1F       		.uleb128 0x1f
 3973 0ad4 8E060000 		.4byte	.LASF80
 3974 0ad8 01       		.byte	0x1
 3975 0ad9 2F01     		.2byte	0x12f
 3976 0adb 8C000000 		.4byte	0x8c
 3977 0adf 00000000 		.4byte	.LFB12
 3978 0ae3 62000000 		.4byte	.LFE12-.LFB12
 3979 0ae7 01       		.uleb128 0x1
 3980 0ae8 9C       		.byte	0x9c
 3981 0ae9 BC0B0000 		.4byte	0xbbc
 3982 0aed 10       		.uleb128 0x10
 3983 0aee 17040000 		.4byte	.LASF63
 3984 0af2 01       		.byte	0x1
 3985 0af3 2F01     		.2byte	0x12f
 3986 0af5 28030000 		.4byte	0x328
 3987 0af9 64070000 		.4byte	.LLST35
 3988 0afd 20       		.uleb128 0x20
 3989 0afe 6D736700 		.ascii	"msg\000"
 3990 0b02 01       		.byte	0x1
 3991 0b03 2F01     		.2byte	0x12f
 3992 0b05 8C000000 		.4byte	0x8c
 3993 0b09 C4070000 		.4byte	.LLST36
 3994 0b0d 10       		.uleb128 0x10
 3995 0b0e 36020000 		.4byte	.LASF64
 3996 0b12 01       		.byte	0x1
 3997 0b13 2F01     		.2byte	0x12f
 3998 0b15 8C000000 		.4byte	0x8c
ARM GAS  C:\Users\brian\AppData\Local\Temp\cclOaW4l.s 			page 92


 3999 0b19 22080000 		.4byte	.LLST37
 4000 0b1d 10       		.uleb128 0x10
 4001 0b1e B4050000 		.4byte	.LASF65
 4002 0b22 01       		.byte	0x1
 4003 0b23 2F01     		.2byte	0x12f
 4004 0b25 CF000000 		.4byte	0xcf
 4005 0b29 43080000 		.4byte	.LLST38
 4006 0b2d 11       		.uleb128 0x11
 4007 0b2e 24000000 		.4byte	.LVL111
 4008 0b32 EB180000 		.4byte	0x18eb
 4009 0b36 400B0000 		.4byte	0xb40
 4010 0b3a 12       		.uleb128 0x12
 4011 0b3b 01       		.uleb128 0x1
 4012 0b3c 51       		.byte	0x51
 4013 0b3d 01       		.uleb128 0x1
 4014 0b3e 31       		.byte	0x31
 4015 0b3f 00       		.byte	0
 4016 0b40 11       		.uleb128 0x11
 4017 0b41 2C000000 		.4byte	.LVL112
 4018 0b45 C7180000 		.4byte	0x18c7
 4019 0b49 5A0B0000 		.4byte	0xb5a
 4020 0b4d 12       		.uleb128 0x12
 4021 0b4e 01       		.uleb128 0x1
 4022 0b4f 50       		.byte	0x50
 4023 0b50 02       		.uleb128 0x2
 4024 0b51 74       		.byte	0x74
 4025 0b52 00       		.sleb128 0
 4026 0b53 12       		.uleb128 0x12
 4027 0b54 01       		.uleb128 0x1
 4028 0b55 51       		.byte	0x51
 4029 0b56 02       		.uleb128 0x2
 4030 0b57 76       		.byte	0x76
 4031 0b58 00       		.sleb128 0
 4032 0b59 00       		.byte	0
 4033 0b5a 11       		.uleb128 0x11
 4034 0b5b 38000000 		.4byte	.LVL115
 4035 0b5f EB180000 		.4byte	0x18eb
 4036 0b63 6D0B0000 		.4byte	0xb6d
 4037 0b67 12       		.uleb128 0x12
 4038 0b68 01       		.uleb128 0x1
 4039 0b69 51       		.byte	0x51
 4040 0b6a 01       		.uleb128 0x1
 4041 0b6b 30       		.byte	0x30
 4042 0b6c 00       		.byte	0
 4043 0b6d 11       		.uleb128 0x11
 4044 0b6e 40000000 		.4byte	.LVL116
 4045 0b72 C7180000 		.4byte	0x18c7
 4046 0b76 870B0000 		.4byte	0xb87
 4047 0b7a 12       		.uleb128 0x12
 4048 0b7b 01       		.uleb128 0x1
 4049 0b7c 50       		.byte	0x50
 4050 0b7d 02       		.uleb128 0x2
 4051 0b7e 74       		.byte	0x74
 4052 0b7f 00       		.sleb128 0
 4053 0b80 12       		.uleb128 0x12
 4054 0b81 01       		.uleb128 0x1
 4055 0b82 51       		.byte	0x51
ARM GAS  C:\Users\brian\AppData\Local\Temp\cclOaW4l.s 			page 93


 4056 0b83 02       		.uleb128 0x2
 4057 0b84 76       		.byte	0x76
 4058 0b85 00       		.sleb128 0
 4059 0b86 00       		.byte	0
 4060 0b87 11       		.uleb128 0x11
 4061 0b88 4C000000 		.4byte	.LVL119
 4062 0b8c EB180000 		.4byte	0x18eb
 4063 0b90 9A0B0000 		.4byte	0xb9a
 4064 0b94 12       		.uleb128 0x12
 4065 0b95 01       		.uleb128 0x1
 4066 0b96 51       		.byte	0x51
 4067 0b97 01       		.uleb128 0x1
 4068 0b98 30       		.byte	0x30
 4069 0b99 00       		.byte	0
 4070 0b9a 18       		.uleb128 0x18
 4071 0b9b 58000000 		.4byte	.LVL120
 4072 0b9f 02       		.uleb128 0x2
 4073 0ba0 77       		.byte	0x77
 4074 0ba1 00       		.sleb128 0
 4075 0ba2 12       		.uleb128 0x12
 4076 0ba3 01       		.uleb128 0x1
 4077 0ba4 50       		.byte	0x50
 4078 0ba5 02       		.uleb128 0x2
 4079 0ba6 74       		.byte	0x74
 4080 0ba7 00       		.sleb128 0
 4081 0ba8 12       		.uleb128 0x12
 4082 0ba9 01       		.uleb128 0x1
 4083 0baa 51       		.byte	0x51
 4084 0bab 02       		.uleb128 0x2
 4085 0bac 75       		.byte	0x75
 4086 0bad 00       		.sleb128 0
 4087 0bae 12       		.uleb128 0x12
 4088 0baf 01       		.uleb128 0x1
 4089 0bb0 52       		.byte	0x52
 4090 0bb1 02       		.uleb128 0x2
 4091 0bb2 76       		.byte	0x76
 4092 0bb3 00       		.sleb128 0
 4093 0bb4 12       		.uleb128 0x12
 4094 0bb5 01       		.uleb128 0x1
 4095 0bb6 53       		.byte	0x53
 4096 0bb7 02       		.uleb128 0x2
 4097 0bb8 78       		.byte	0x78
 4098 0bb9 00       		.sleb128 0
 4099 0bba 00       		.byte	0
 4100 0bbb 00       		.byte	0
 4101 0bbc 1F       		.uleb128 0x1f
 4102 0bbd C4000000 		.4byte	.LASF81
 4103 0bc1 01       		.byte	0x1
 4104 0bc2 4F01     		.2byte	0x14f
 4105 0bc4 8C000000 		.4byte	0x8c
 4106 0bc8 00000000 		.4byte	.LFB13
 4107 0bcc 62000000 		.4byte	.LFE13-.LFB13
 4108 0bd0 01       		.uleb128 0x1
 4109 0bd1 9C       		.byte	0x9c
 4110 0bd2 A50C0000 		.4byte	0xca5
 4111 0bd6 10       		.uleb128 0x10
 4112 0bd7 17040000 		.4byte	.LASF63
ARM GAS  C:\Users\brian\AppData\Local\Temp\cclOaW4l.s 			page 94


 4113 0bdb 01       		.byte	0x1
 4114 0bdc 4F01     		.2byte	0x14f
 4115 0bde 28030000 		.4byte	0x328
 4116 0be2 61080000 		.4byte	.LLST39
 4117 0be6 20       		.uleb128 0x20
 4118 0be7 6D736700 		.ascii	"msg\000"
 4119 0beb 01       		.byte	0x1
 4120 0bec 4F01     		.2byte	0x14f
 4121 0bee 8C000000 		.4byte	0x8c
 4122 0bf2 C1080000 		.4byte	.LLST40
 4123 0bf6 10       		.uleb128 0x10
 4124 0bf7 36020000 		.4byte	.LASF64
 4125 0bfb 01       		.byte	0x1
 4126 0bfc 4F01     		.2byte	0x14f
 4127 0bfe 8C000000 		.4byte	0x8c
 4128 0c02 1F090000 		.4byte	.LLST41
 4129 0c06 10       		.uleb128 0x10
 4130 0c07 B4050000 		.4byte	.LASF65
 4131 0c0b 01       		.byte	0x1
 4132 0c0c 4F01     		.2byte	0x14f
 4133 0c0e CF000000 		.4byte	0xcf
 4134 0c12 40090000 		.4byte	.LLST42
 4135 0c16 11       		.uleb128 0x11
 4136 0c17 24000000 		.4byte	.LVL127
 4137 0c1b EB180000 		.4byte	0x18eb
 4138 0c1f 290C0000 		.4byte	0xc29
 4139 0c23 12       		.uleb128 0x12
 4140 0c24 01       		.uleb128 0x1
 4141 0c25 51       		.byte	0x51
 4142 0c26 01       		.uleb128 0x1
 4143 0c27 30       		.byte	0x30
 4144 0c28 00       		.byte	0
 4145 0c29 11       		.uleb128 0x11
 4146 0c2a 2C000000 		.4byte	.LVL128
 4147 0c2e C7180000 		.4byte	0x18c7
 4148 0c32 430C0000 		.4byte	0xc43
 4149 0c36 12       		.uleb128 0x12
 4150 0c37 01       		.uleb128 0x1
 4151 0c38 50       		.byte	0x50
 4152 0c39 02       		.uleb128 0x2
 4153 0c3a 74       		.byte	0x74
 4154 0c3b 00       		.sleb128 0
 4155 0c3c 12       		.uleb128 0x12
 4156 0c3d 01       		.uleb128 0x1
 4157 0c3e 51       		.byte	0x51
 4158 0c3f 02       		.uleb128 0x2
 4159 0c40 76       		.byte	0x76
 4160 0c41 00       		.sleb128 0
 4161 0c42 00       		.byte	0
 4162 0c43 11       		.uleb128 0x11
 4163 0c44 38000000 		.4byte	.LVL131
 4164 0c48 EB180000 		.4byte	0x18eb
 4165 0c4c 560C0000 		.4byte	0xc56
 4166 0c50 12       		.uleb128 0x12
 4167 0c51 01       		.uleb128 0x1
 4168 0c52 51       		.byte	0x51
 4169 0c53 01       		.uleb128 0x1
ARM GAS  C:\Users\brian\AppData\Local\Temp\cclOaW4l.s 			page 95


 4170 0c54 30       		.byte	0x30
 4171 0c55 00       		.byte	0
 4172 0c56 11       		.uleb128 0x11
 4173 0c57 40000000 		.4byte	.LVL132
 4174 0c5b C7180000 		.4byte	0x18c7
 4175 0c5f 700C0000 		.4byte	0xc70
 4176 0c63 12       		.uleb128 0x12
 4177 0c64 01       		.uleb128 0x1
 4178 0c65 50       		.byte	0x50
 4179 0c66 02       		.uleb128 0x2
 4180 0c67 74       		.byte	0x74
 4181 0c68 00       		.sleb128 0
 4182 0c69 12       		.uleb128 0x12
 4183 0c6a 01       		.uleb128 0x1
 4184 0c6b 51       		.byte	0x51
 4185 0c6c 02       		.uleb128 0x2
 4186 0c6d 76       		.byte	0x76
 4187 0c6e 00       		.sleb128 0
 4188 0c6f 00       		.byte	0
 4189 0c70 11       		.uleb128 0x11
 4190 0c71 4C000000 		.4byte	.LVL135
 4191 0c75 EB180000 		.4byte	0x18eb
 4192 0c79 830C0000 		.4byte	0xc83
 4193 0c7d 12       		.uleb128 0x12
 4194 0c7e 01       		.uleb128 0x1
 4195 0c7f 51       		.byte	0x51
 4196 0c80 01       		.uleb128 0x1
 4197 0c81 31       		.byte	0x31
 4198 0c82 00       		.byte	0
 4199 0c83 18       		.uleb128 0x18
 4200 0c84 58000000 		.4byte	.LVL136
 4201 0c88 02       		.uleb128 0x2
 4202 0c89 77       		.byte	0x77
 4203 0c8a 00       		.sleb128 0
 4204 0c8b 12       		.uleb128 0x12
 4205 0c8c 01       		.uleb128 0x1
 4206 0c8d 50       		.byte	0x50
 4207 0c8e 02       		.uleb128 0x2
 4208 0c8f 74       		.byte	0x74
 4209 0c90 00       		.sleb128 0
 4210 0c91 12       		.uleb128 0x12
 4211 0c92 01       		.uleb128 0x1
 4212 0c93 51       		.byte	0x51
 4213 0c94 02       		.uleb128 0x2
 4214 0c95 75       		.byte	0x75
 4215 0c96 00       		.sleb128 0
 4216 0c97 12       		.uleb128 0x12
 4217 0c98 01       		.uleb128 0x1
 4218 0c99 52       		.byte	0x52
 4219 0c9a 02       		.uleb128 0x2
 4220 0c9b 76       		.byte	0x76
 4221 0c9c 00       		.sleb128 0
 4222 0c9d 12       		.uleb128 0x12
 4223 0c9e 01       		.uleb128 0x1
 4224 0c9f 53       		.byte	0x53
 4225 0ca0 02       		.uleb128 0x2
 4226 0ca1 78       		.byte	0x78
ARM GAS  C:\Users\brian\AppData\Local\Temp\cclOaW4l.s 			page 96


 4227 0ca2 00       		.sleb128 0
 4228 0ca3 00       		.byte	0
 4229 0ca4 00       		.byte	0
 4230 0ca5 1F       		.uleb128 0x1f
 4231 0ca6 D7010000 		.4byte	.LASF82
 4232 0caa 01       		.byte	0x1
 4233 0cab 6F01     		.2byte	0x16f
 4234 0cad 8C000000 		.4byte	0x8c
 4235 0cb1 00000000 		.4byte	.LFB14
 4236 0cb5 62000000 		.4byte	.LFE14-.LFB14
 4237 0cb9 01       		.uleb128 0x1
 4238 0cba 9C       		.byte	0x9c
 4239 0cbb 8E0D0000 		.4byte	0xd8e
 4240 0cbf 10       		.uleb128 0x10
 4241 0cc0 17040000 		.4byte	.LASF63
 4242 0cc4 01       		.byte	0x1
 4243 0cc5 6F01     		.2byte	0x16f
 4244 0cc7 28030000 		.4byte	0x328
 4245 0ccb 5E090000 		.4byte	.LLST43
 4246 0ccf 20       		.uleb128 0x20
 4247 0cd0 6D736700 		.ascii	"msg\000"
 4248 0cd4 01       		.byte	0x1
 4249 0cd5 6F01     		.2byte	0x16f
 4250 0cd7 8C000000 		.4byte	0x8c
 4251 0cdb BE090000 		.4byte	.LLST44
 4252 0cdf 10       		.uleb128 0x10
 4253 0ce0 36020000 		.4byte	.LASF64
 4254 0ce4 01       		.byte	0x1
 4255 0ce5 6F01     		.2byte	0x16f
 4256 0ce7 8C000000 		.4byte	0x8c
 4257 0ceb 1C0A0000 		.4byte	.LLST45
 4258 0cef 10       		.uleb128 0x10
 4259 0cf0 B4050000 		.4byte	.LASF65
 4260 0cf4 01       		.byte	0x1
 4261 0cf5 6F01     		.2byte	0x16f
 4262 0cf7 CF000000 		.4byte	0xcf
 4263 0cfb 3D0A0000 		.4byte	.LLST46
 4264 0cff 11       		.uleb128 0x11
 4265 0d00 24000000 		.4byte	.LVL143
 4266 0d04 EB180000 		.4byte	0x18eb
 4267 0d08 120D0000 		.4byte	0xd12
 4268 0d0c 12       		.uleb128 0x12
 4269 0d0d 01       		.uleb128 0x1
 4270 0d0e 51       		.byte	0x51
 4271 0d0f 01       		.uleb128 0x1
 4272 0d10 30       		.byte	0x30
 4273 0d11 00       		.byte	0
 4274 0d12 11       		.uleb128 0x11
 4275 0d13 2C000000 		.4byte	.LVL144
 4276 0d17 C7180000 		.4byte	0x18c7
 4277 0d1b 2C0D0000 		.4byte	0xd2c
 4278 0d1f 12       		.uleb128 0x12
 4279 0d20 01       		.uleb128 0x1
 4280 0d21 50       		.byte	0x50
 4281 0d22 02       		.uleb128 0x2
 4282 0d23 74       		.byte	0x74
 4283 0d24 00       		.sleb128 0
ARM GAS  C:\Users\brian\AppData\Local\Temp\cclOaW4l.s 			page 97


 4284 0d25 12       		.uleb128 0x12
 4285 0d26 01       		.uleb128 0x1
 4286 0d27 51       		.byte	0x51
 4287 0d28 02       		.uleb128 0x2
 4288 0d29 76       		.byte	0x76
 4289 0d2a 00       		.sleb128 0
 4290 0d2b 00       		.byte	0
 4291 0d2c 11       		.uleb128 0x11
 4292 0d2d 38000000 		.4byte	.LVL147
 4293 0d31 EB180000 		.4byte	0x18eb
 4294 0d35 3F0D0000 		.4byte	0xd3f
 4295 0d39 12       		.uleb128 0x12
 4296 0d3a 01       		.uleb128 0x1
 4297 0d3b 51       		.byte	0x51
 4298 0d3c 01       		.uleb128 0x1
 4299 0d3d 31       		.byte	0x31
 4300 0d3e 00       		.byte	0
 4301 0d3f 11       		.uleb128 0x11
 4302 0d40 40000000 		.4byte	.LVL148
 4303 0d44 C7180000 		.4byte	0x18c7
 4304 0d48 590D0000 		.4byte	0xd59
 4305 0d4c 12       		.uleb128 0x12
 4306 0d4d 01       		.uleb128 0x1
 4307 0d4e 50       		.byte	0x50
 4308 0d4f 02       		.uleb128 0x2
 4309 0d50 74       		.byte	0x74
 4310 0d51 00       		.sleb128 0
 4311 0d52 12       		.uleb128 0x12
 4312 0d53 01       		.uleb128 0x1
 4313 0d54 51       		.byte	0x51
 4314 0d55 02       		.uleb128 0x2
 4315 0d56 76       		.byte	0x76
 4316 0d57 00       		.sleb128 0
 4317 0d58 00       		.byte	0
 4318 0d59 11       		.uleb128 0x11
 4319 0d5a 4C000000 		.4byte	.LVL151
 4320 0d5e EB180000 		.4byte	0x18eb
 4321 0d62 6C0D0000 		.4byte	0xd6c
 4322 0d66 12       		.uleb128 0x12
 4323 0d67 01       		.uleb128 0x1
 4324 0d68 51       		.byte	0x51
 4325 0d69 01       		.uleb128 0x1
 4326 0d6a 31       		.byte	0x31
 4327 0d6b 00       		.byte	0
 4328 0d6c 18       		.uleb128 0x18
 4329 0d6d 58000000 		.4byte	.LVL152
 4330 0d71 02       		.uleb128 0x2
 4331 0d72 77       		.byte	0x77
 4332 0d73 00       		.sleb128 0
 4333 0d74 12       		.uleb128 0x12
 4334 0d75 01       		.uleb128 0x1
 4335 0d76 50       		.byte	0x50
 4336 0d77 02       		.uleb128 0x2
 4337 0d78 74       		.byte	0x74
 4338 0d79 00       		.sleb128 0
 4339 0d7a 12       		.uleb128 0x12
 4340 0d7b 01       		.uleb128 0x1
ARM GAS  C:\Users\brian\AppData\Local\Temp\cclOaW4l.s 			page 98


 4341 0d7c 51       		.byte	0x51
 4342 0d7d 02       		.uleb128 0x2
 4343 0d7e 75       		.byte	0x75
 4344 0d7f 00       		.sleb128 0
 4345 0d80 12       		.uleb128 0x12
 4346 0d81 01       		.uleb128 0x1
 4347 0d82 52       		.byte	0x52
 4348 0d83 02       		.uleb128 0x2
 4349 0d84 76       		.byte	0x76
 4350 0d85 00       		.sleb128 0
 4351 0d86 12       		.uleb128 0x12
 4352 0d87 01       		.uleb128 0x1
 4353 0d88 53       		.byte	0x53
 4354 0d89 02       		.uleb128 0x2
 4355 0d8a 78       		.byte	0x78
 4356 0d8b 00       		.sleb128 0
 4357 0d8c 00       		.byte	0
 4358 0d8d 00       		.byte	0
 4359 0d8e 1F       		.uleb128 0x1f
 4360 0d8f 93010000 		.4byte	.LASF83
 4361 0d93 01       		.byte	0x1
 4362 0d94 8C01     		.2byte	0x18c
 4363 0d96 8C000000 		.4byte	0x8c
 4364 0d9a 00000000 		.4byte	.LFB15
 4365 0d9e 04010000 		.4byte	.LFE15-.LFB15
 4366 0da2 01       		.uleb128 0x1
 4367 0da3 9C       		.byte	0x9c
 4368 0da4 FF0F0000 		.4byte	0xfff
 4369 0da8 10       		.uleb128 0x10
 4370 0da9 17040000 		.4byte	.LASF63
 4371 0dad 01       		.byte	0x1
 4372 0dae 8C01     		.2byte	0x18c
 4373 0db0 28030000 		.4byte	0x328
 4374 0db4 5B0A0000 		.4byte	.LLST47
 4375 0db8 20       		.uleb128 0x20
 4376 0db9 6D736700 		.ascii	"msg\000"
 4377 0dbd 01       		.byte	0x1
 4378 0dbe 8C01     		.2byte	0x18c
 4379 0dc0 8C000000 		.4byte	0x8c
 4380 0dc4 DF0A0000 		.4byte	.LLST48
 4381 0dc8 10       		.uleb128 0x10
 4382 0dc9 36020000 		.4byte	.LASF64
 4383 0dcd 01       		.byte	0x1
 4384 0dce 8C01     		.2byte	0x18c
 4385 0dd0 8C000000 		.4byte	0x8c
 4386 0dd4 560B0000 		.4byte	.LLST49
 4387 0dd8 10       		.uleb128 0x10
 4388 0dd9 B4050000 		.4byte	.LASF65
 4389 0ddd 01       		.byte	0x1
 4390 0dde 8C01     		.2byte	0x18c
 4391 0de0 CF000000 		.4byte	0xcf
 4392 0de4 A60B0000 		.4byte	.LLST50
 4393 0de8 21       		.uleb128 0x21
 4394 0de9 67020000 		.4byte	.LASF70
 4395 0ded 01       		.byte	0x1
 4396 0dee 8E01     		.2byte	0x18e
 4397 0df0 53030000 		.4byte	0x353
ARM GAS  C:\Users\brian\AppData\Local\Temp\cclOaW4l.s 			page 99


 4398 0df4 EB0B0000 		.4byte	.LLST51
 4399 0df8 22       		.uleb128 0x22
 4400 0df9 6200     		.ascii	"b\000"
 4401 0dfb 01       		.byte	0x1
 4402 0dfc 8F01     		.2byte	0x18f
 4403 0dfe 8C000000 		.4byte	0x8c
 4404 0e02 2C0C0000 		.4byte	.LLST52
 4405 0e06 22       		.uleb128 0x22
 4406 0e07 6900     		.ascii	"i\000"
 4407 0e09 01       		.byte	0x1
 4408 0e0a 9001     		.2byte	0x190
 4409 0e0c 8C000000 		.4byte	0x8c
 4410 0e10 620C0000 		.4byte	.LLST53
 4411 0e14 23       		.uleb128 0x23
 4412 0e15 62756600 		.ascii	"buf\000"
 4413 0e19 01       		.byte	0x1
 4414 0e1a 9101     		.2byte	0x191
 4415 0e1c FF0F0000 		.4byte	0xfff
 4416 0e20 05       		.uleb128 0x5
 4417 0e21 03       		.byte	0x3
 4418 0e22 00000000 		.4byte	buf.5836
 4419 0e26 22       		.uleb128 0x22
 4420 0e27 70747200 		.ascii	"ptr\000"
 4421 0e2b 01       		.byte	0x1
 4422 0e2c 9201     		.2byte	0x192
 4423 0e2e 53030000 		.4byte	0x353
 4424 0e32 750C0000 		.4byte	.LLST54
 4425 0e36 11       		.uleb128 0x11
 4426 0e37 20000000 		.4byte	.LVL159
 4427 0e3b C7180000 		.4byte	0x18c7
 4428 0e3f 4A0E0000 		.4byte	0xe4a
 4429 0e43 12       		.uleb128 0x12
 4430 0e44 01       		.uleb128 0x1
 4431 0e45 51       		.byte	0x51
 4432 0e46 02       		.uleb128 0x2
 4433 0e47 09       		.byte	0x9
 4434 0e48 F8       		.byte	0xf8
 4435 0e49 00       		.byte	0
 4436 0e4a 11       		.uleb128 0x11
 4437 0e4b 2A000000 		.4byte	.LVL160
 4438 0e4f DF180000 		.4byte	0x18df
 4439 0e53 690E0000 		.4byte	0xe69
 4440 0e57 12       		.uleb128 0x12
 4441 0e58 01       		.uleb128 0x1
 4442 0e59 50       		.byte	0x50
 4443 0e5a 02       		.uleb128 0x2
 4444 0e5b 76       		.byte	0x76
 4445 0e5c 00       		.sleb128 0
 4446 0e5d 12       		.uleb128 0x12
 4447 0e5e 01       		.uleb128 0x1
 4448 0e5f 51       		.byte	0x51
 4449 0e60 02       		.uleb128 0x2
 4450 0e61 08       		.byte	0x8
 4451 0e62 2C       		.byte	0x2c
 4452 0e63 12       		.uleb128 0x12
 4453 0e64 01       		.uleb128 0x1
 4454 0e65 52       		.byte	0x52
ARM GAS  C:\Users\brian\AppData\Local\Temp\cclOaW4l.s 			page 100


 4455 0e66 01       		.uleb128 0x1
 4456 0e67 31       		.byte	0x31
 4457 0e68 00       		.byte	0
 4458 0e69 11       		.uleb128 0x11
 4459 0e6a 34000000 		.4byte	.LVL161
 4460 0e6e C7180000 		.4byte	0x18c7
 4461 0e72 860E0000 		.4byte	0xe86
 4462 0e76 12       		.uleb128 0x12
 4463 0e77 01       		.uleb128 0x1
 4464 0e78 50       		.byte	0x50
 4465 0e79 02       		.uleb128 0x2
 4466 0e7a 76       		.byte	0x76
 4467 0e7b 00       		.sleb128 0
 4468 0e7c 12       		.uleb128 0x12
 4469 0e7d 01       		.uleb128 0x1
 4470 0e7e 51       		.byte	0x51
 4471 0e7f 05       		.uleb128 0x5
 4472 0e80 75       		.byte	0x75
 4473 0e81 00       		.sleb128 0
 4474 0e82 08       		.byte	0x8
 4475 0e83 F0       		.byte	0xf0
 4476 0e84 1A       		.byte	0x1a
 4477 0e85 00       		.byte	0
 4478 0e86 11       		.uleb128 0x11
 4479 0e87 3E000000 		.4byte	.LVL162
 4480 0e8b DF180000 		.4byte	0x18df
 4481 0e8f A50E0000 		.4byte	0xea5
 4482 0e93 12       		.uleb128 0x12
 4483 0e94 01       		.uleb128 0x1
 4484 0e95 50       		.byte	0x50
 4485 0e96 02       		.uleb128 0x2
 4486 0e97 76       		.byte	0x76
 4487 0e98 00       		.sleb128 0
 4488 0e99 12       		.uleb128 0x12
 4489 0e9a 01       		.uleb128 0x1
 4490 0e9b 51       		.byte	0x51
 4491 0e9c 02       		.uleb128 0x2
 4492 0e9d 08       		.byte	0x8
 4493 0e9e 2C       		.byte	0x2c
 4494 0e9f 12       		.uleb128 0x12
 4495 0ea0 01       		.uleb128 0x1
 4496 0ea1 52       		.byte	0x52
 4497 0ea2 01       		.uleb128 0x1
 4498 0ea3 31       		.byte	0x31
 4499 0ea4 00       		.byte	0
 4500 0ea5 11       		.uleb128 0x11
 4501 0ea6 4A000000 		.4byte	.LVL163
 4502 0eaa C7180000 		.4byte	0x18c7
 4503 0eae C40E0000 		.4byte	0xec4
 4504 0eb2 12       		.uleb128 0x12
 4505 0eb3 01       		.uleb128 0x1
 4506 0eb4 50       		.byte	0x50
 4507 0eb5 02       		.uleb128 0x2
 4508 0eb6 76       		.byte	0x76
 4509 0eb7 00       		.sleb128 0
 4510 0eb8 12       		.uleb128 0x12
 4511 0eb9 01       		.uleb128 0x1
ARM GAS  C:\Users\brian\AppData\Local\Temp\cclOaW4l.s 			page 101


 4512 0eba 51       		.byte	0x51
 4513 0ebb 07       		.uleb128 0x7
 4514 0ebc 75       		.byte	0x75
 4515 0ebd 00       		.sleb128 0
 4516 0ebe 34       		.byte	0x34
 4517 0ebf 24       		.byte	0x24
 4518 0ec0 08       		.byte	0x8
 4519 0ec1 F0       		.byte	0xf0
 4520 0ec2 1A       		.byte	0x1a
 4521 0ec3 00       		.byte	0
 4522 0ec4 11       		.uleb128 0x11
 4523 0ec5 54000000 		.4byte	.LVL164
 4524 0ec9 DF180000 		.4byte	0x18df
 4525 0ecd E30E0000 		.4byte	0xee3
 4526 0ed1 12       		.uleb128 0x12
 4527 0ed2 01       		.uleb128 0x1
 4528 0ed3 50       		.byte	0x50
 4529 0ed4 02       		.uleb128 0x2
 4530 0ed5 76       		.byte	0x76
 4531 0ed6 00       		.sleb128 0
 4532 0ed7 12       		.uleb128 0x12
 4533 0ed8 01       		.uleb128 0x1
 4534 0ed9 51       		.byte	0x51
 4535 0eda 02       		.uleb128 0x2
 4536 0edb 08       		.byte	0x8
 4537 0edc 2C       		.byte	0x2c
 4538 0edd 12       		.uleb128 0x12
 4539 0ede 01       		.uleb128 0x1
 4540 0edf 52       		.byte	0x52
 4541 0ee0 01       		.uleb128 0x1
 4542 0ee1 31       		.byte	0x31
 4543 0ee2 00       		.byte	0
 4544 0ee3 11       		.uleb128 0x11
 4545 0ee4 5E000000 		.4byte	.LVL167
 4546 0ee8 C7180000 		.4byte	0x18c7
 4547 0eec F70E0000 		.4byte	0xef7
 4548 0ef0 12       		.uleb128 0x12
 4549 0ef1 01       		.uleb128 0x1
 4550 0ef2 51       		.byte	0x51
 4551 0ef3 02       		.uleb128 0x2
 4552 0ef4 09       		.byte	0x9
 4553 0ef5 F8       		.byte	0xf8
 4554 0ef6 00       		.byte	0
 4555 0ef7 11       		.uleb128 0x11
 4556 0ef8 68000000 		.4byte	.LVL168
 4557 0efc C7180000 		.4byte	0x18c7
 4558 0f00 140F0000 		.4byte	0xf14
 4559 0f04 12       		.uleb128 0x12
 4560 0f05 01       		.uleb128 0x1
 4561 0f06 50       		.byte	0x50
 4562 0f07 02       		.uleb128 0x2
 4563 0f08 76       		.byte	0x76
 4564 0f09 00       		.sleb128 0
 4565 0f0a 12       		.uleb128 0x12
 4566 0f0b 01       		.uleb128 0x1
 4567 0f0c 51       		.byte	0x51
 4568 0f0d 05       		.uleb128 0x5
ARM GAS  C:\Users\brian\AppData\Local\Temp\cclOaW4l.s 			page 102


 4569 0f0e 75       		.byte	0x75
 4570 0f0f 00       		.sleb128 0
 4571 0f10 08       		.byte	0x8
 4572 0f11 F0       		.byte	0xf0
 4573 0f12 1A       		.byte	0x1a
 4574 0f13 00       		.byte	0
 4575 0f14 11       		.uleb128 0x11
 4576 0f15 74000000 		.4byte	.LVL169
 4577 0f19 C7180000 		.4byte	0x18c7
 4578 0f1d 330F0000 		.4byte	0xf33
 4579 0f21 12       		.uleb128 0x12
 4580 0f22 01       		.uleb128 0x1
 4581 0f23 50       		.byte	0x50
 4582 0f24 02       		.uleb128 0x2
 4583 0f25 76       		.byte	0x76
 4584 0f26 00       		.sleb128 0
 4585 0f27 12       		.uleb128 0x12
 4586 0f28 01       		.uleb128 0x1
 4587 0f29 51       		.byte	0x51
 4588 0f2a 07       		.uleb128 0x7
 4589 0f2b 75       		.byte	0x75
 4590 0f2c 00       		.sleb128 0
 4591 0f2d 34       		.byte	0x34
 4592 0f2e 24       		.byte	0x24
 4593 0f2f 08       		.byte	0x8
 4594 0f30 F0       		.byte	0xf0
 4595 0f31 1A       		.byte	0x1a
 4596 0f32 00       		.byte	0
 4597 0f33 11       		.uleb128 0x11
 4598 0f34 7E000000 		.4byte	.LVL172
 4599 0f38 C7180000 		.4byte	0x18c7
 4600 0f3c 470F0000 		.4byte	0xf47
 4601 0f40 12       		.uleb128 0x12
 4602 0f41 01       		.uleb128 0x1
 4603 0f42 51       		.byte	0x51
 4604 0f43 02       		.uleb128 0x2
 4605 0f44 09       		.byte	0x9
 4606 0f45 FA       		.byte	0xfa
 4607 0f46 00       		.byte	0
 4608 0f47 11       		.uleb128 0x11
 4609 0f48 88000000 		.4byte	.LVL173
 4610 0f4c DF180000 		.4byte	0x18df
 4611 0f50 660F0000 		.4byte	0xf66
 4612 0f54 12       		.uleb128 0x12
 4613 0f55 01       		.uleb128 0x1
 4614 0f56 50       		.byte	0x50
 4615 0f57 02       		.uleb128 0x2
 4616 0f58 76       		.byte	0x76
 4617 0f59 00       		.sleb128 0
 4618 0f5a 12       		.uleb128 0x12
 4619 0f5b 01       		.uleb128 0x1
 4620 0f5c 51       		.byte	0x51
 4621 0f5d 02       		.uleb128 0x2
 4622 0f5e 08       		.byte	0x8
 4623 0f5f 2C       		.byte	0x2c
 4624 0f60 12       		.uleb128 0x12
 4625 0f61 01       		.uleb128 0x1
ARM GAS  C:\Users\brian\AppData\Local\Temp\cclOaW4l.s 			page 103


 4626 0f62 52       		.byte	0x52
 4627 0f63 01       		.uleb128 0x1
 4628 0f64 31       		.byte	0x31
 4629 0f65 00       		.byte	0
 4630 0f66 11       		.uleb128 0x11
 4631 0f67 BA000000 		.4byte	.LVL186
 4632 0f6b F7180000 		.4byte	0x18f7
 4633 0f6f 880F0000 		.4byte	0xf88
 4634 0f73 12       		.uleb128 0x12
 4635 0f74 01       		.uleb128 0x1
 4636 0f75 50       		.byte	0x50
 4637 0f76 02       		.uleb128 0x2
 4638 0f77 76       		.byte	0x76
 4639 0f78 00       		.sleb128 0
 4640 0f79 12       		.uleb128 0x12
 4641 0f7a 01       		.uleb128 0x1
 4642 0f7b 51       		.byte	0x51
 4643 0f7c 01       		.uleb128 0x1
 4644 0f7d 40       		.byte	0x40
 4645 0f7e 12       		.uleb128 0x12
 4646 0f7f 01       		.uleb128 0x1
 4647 0f80 52       		.byte	0x52
 4648 0f81 05       		.uleb128 0x5
 4649 0f82 03       		.byte	0x3
 4650 0f83 00000000 		.4byte	.LANCHOR0
 4651 0f87 00       		.byte	0
 4652 0f88 11       		.uleb128 0x11
 4653 0f89 CE000000 		.4byte	.LVL188
 4654 0f8d C7180000 		.4byte	0x18c7
 4655 0f91 A50F0000 		.4byte	0xfa5
 4656 0f95 12       		.uleb128 0x12
 4657 0f96 01       		.uleb128 0x1
 4658 0f97 50       		.byte	0x50
 4659 0f98 02       		.uleb128 0x2
 4660 0f99 76       		.byte	0x76
 4661 0f9a 00       		.sleb128 0
 4662 0f9b 12       		.uleb128 0x12
 4663 0f9c 01       		.uleb128 0x1
 4664 0f9d 51       		.byte	0x51
 4665 0f9e 05       		.uleb128 0x5
 4666 0f9f 74       		.byte	0x74
 4667 0fa0 00       		.sleb128 0
 4668 0fa1 08       		.byte	0x8
 4669 0fa2 F0       		.byte	0xf0
 4670 0fa3 1A       		.byte	0x1a
 4671 0fa4 00       		.byte	0
 4672 0fa5 11       		.uleb128 0x11
 4673 0fa6 DA000000 		.4byte	.LVL189
 4674 0faa C7180000 		.4byte	0x18c7
 4675 0fae C40F0000 		.4byte	0xfc4
 4676 0fb2 12       		.uleb128 0x12
 4677 0fb3 01       		.uleb128 0x1
 4678 0fb4 50       		.byte	0x50
 4679 0fb5 02       		.uleb128 0x2
 4680 0fb6 76       		.byte	0x76
 4681 0fb7 00       		.sleb128 0
 4682 0fb8 12       		.uleb128 0x12
ARM GAS  C:\Users\brian\AppData\Local\Temp\cclOaW4l.s 			page 104


 4683 0fb9 01       		.uleb128 0x1
 4684 0fba 51       		.byte	0x51
 4685 0fbb 07       		.uleb128 0x7
 4686 0fbc 74       		.byte	0x74
 4687 0fbd 00       		.sleb128 0
 4688 0fbe 34       		.byte	0x34
 4689 0fbf 24       		.byte	0x24
 4690 0fc0 08       		.byte	0x8
 4691 0fc1 F0       		.byte	0xf0
 4692 0fc2 1A       		.byte	0x1a
 4693 0fc3 00       		.byte	0
 4694 0fc4 11       		.uleb128 0x11
 4695 0fc5 EC000000 		.4byte	.LVL192
 4696 0fc9 DF180000 		.4byte	0x18df
 4697 0fcd E30F0000 		.4byte	0xfe3
 4698 0fd1 12       		.uleb128 0x12
 4699 0fd2 01       		.uleb128 0x1
 4700 0fd3 50       		.byte	0x50
 4701 0fd4 02       		.uleb128 0x2
 4702 0fd5 76       		.byte	0x76
 4703 0fd6 00       		.sleb128 0
 4704 0fd7 12       		.uleb128 0x12
 4705 0fd8 01       		.uleb128 0x1
 4706 0fd9 51       		.byte	0x51
 4707 0fda 02       		.uleb128 0x2
 4708 0fdb 08       		.byte	0x8
 4709 0fdc 2C       		.byte	0x2c
 4710 0fdd 12       		.uleb128 0x12
 4711 0fde 01       		.uleb128 0x1
 4712 0fdf 52       		.byte	0x52
 4713 0fe0 01       		.uleb128 0x1
 4714 0fe1 31       		.byte	0x31
 4715 0fe2 00       		.byte	0
 4716 0fe3 18       		.uleb128 0x18
 4717 0fe4 F8000000 		.4byte	.LVL194
 4718 0fe8 02       		.uleb128 0x2
 4719 0fe9 74       		.byte	0x74
 4720 0fea 00       		.sleb128 0
 4721 0feb 12       		.uleb128 0x12
 4722 0fec 01       		.uleb128 0x1
 4723 0fed 50       		.byte	0x50
 4724 0fee 02       		.uleb128 0x2
 4725 0fef 76       		.byte	0x76
 4726 0ff0 00       		.sleb128 0
 4727 0ff1 12       		.uleb128 0x12
 4728 0ff2 01       		.uleb128 0x1
 4729 0ff3 52       		.byte	0x52
 4730 0ff4 02       		.uleb128 0x2
 4731 0ff5 75       		.byte	0x75
 4732 0ff6 00       		.sleb128 0
 4733 0ff7 12       		.uleb128 0x12
 4734 0ff8 01       		.uleb128 0x1
 4735 0ff9 53       		.byte	0x53
 4736 0ffa 02       		.uleb128 0x2
 4737 0ffb 77       		.byte	0x77
 4738 0ffc 00       		.sleb128 0
 4739 0ffd 00       		.byte	0
ARM GAS  C:\Users\brian\AppData\Local\Temp\cclOaW4l.s 			page 105


 4740 0ffe 00       		.byte	0
 4741 0fff 24       		.uleb128 0x24
 4742 1000 8C000000 		.4byte	0x8c
 4743 1004 0F100000 		.4byte	0x100f
 4744 1008 25       		.uleb128 0x25
 4745 1009 0F100000 		.4byte	0x100f
 4746 100d 0F       		.byte	0xf
 4747 100e 00       		.byte	0
 4748 100f 02       		.uleb128 0x2
 4749 1010 04       		.byte	0x4
 4750 1011 07       		.byte	0x7
 4751 1012 31030000 		.4byte	.LASF84
 4752 1016 1F       		.uleb128 0x1f
 4753 1017 3A030000 		.4byte	.LASF85
 4754 101b 01       		.byte	0x1
 4755 101c E301     		.2byte	0x1e3
 4756 101e 8C000000 		.4byte	0x8c
 4757 1022 00000000 		.4byte	.LFB17
 4758 1026 7C000000 		.4byte	.LFE17-.LFB17
 4759 102a 01       		.uleb128 0x1
 4760 102b 9C       		.byte	0x9c
 4761 102c 29110000 		.4byte	0x1129
 4762 1030 10       		.uleb128 0x10
 4763 1031 17040000 		.4byte	.LASF63
 4764 1035 01       		.byte	0x1
 4765 1036 E301     		.2byte	0x1e3
 4766 1038 28030000 		.4byte	0x328
 4767 103c AB0C0000 		.4byte	.LLST55
 4768 1040 20       		.uleb128 0x20
 4769 1041 6D736700 		.ascii	"msg\000"
 4770 1045 01       		.byte	0x1
 4771 1046 E301     		.2byte	0x1e3
 4772 1048 8C000000 		.4byte	0x8c
 4773 104c 0B0D0000 		.4byte	.LLST56
 4774 1050 10       		.uleb128 0x10
 4775 1051 36020000 		.4byte	.LASF64
 4776 1055 01       		.byte	0x1
 4777 1056 E301     		.2byte	0x1e3
 4778 1058 8C000000 		.4byte	0x8c
 4779 105c 500D0000 		.4byte	.LLST57
 4780 1060 10       		.uleb128 0x10
 4781 1061 B4050000 		.4byte	.LASF65
 4782 1065 01       		.byte	0x1
 4783 1066 E301     		.2byte	0x1e3
 4784 1068 CF000000 		.4byte	0xcf
 4785 106c 950D0000 		.4byte	.LLST58
 4786 1070 22       		.uleb128 0x22
 4787 1071 7000     		.ascii	"p\000"
 4788 1073 01       		.byte	0x1
 4789 1074 E501     		.2byte	0x1e5
 4790 1076 53030000 		.4byte	0x353
 4791 107a CC0D0000 		.4byte	.LLST59
 4792 107e 1E       		.uleb128 0x1e
 4793 107f 22000000 		.4byte	.LVL203
 4794 1083 BB180000 		.4byte	0x18bb
 4795 1087 11       		.uleb128 0x11
 4796 1088 2A000000 		.4byte	.LVL204
ARM GAS  C:\Users\brian\AppData\Local\Temp\cclOaW4l.s 			page 106


 4797 108c C7180000 		.4byte	0x18c7
 4798 1090 A0100000 		.4byte	0x10a0
 4799 1094 12       		.uleb128 0x12
 4800 1095 01       		.uleb128 0x1
 4801 1096 50       		.byte	0x50
 4802 1097 02       		.uleb128 0x2
 4803 1098 76       		.byte	0x76
 4804 1099 00       		.sleb128 0
 4805 109a 12       		.uleb128 0x12
 4806 109b 01       		.uleb128 0x1
 4807 109c 51       		.byte	0x51
 4808 109d 01       		.uleb128 0x1
 4809 109e 30       		.byte	0x30
 4810 109f 00       		.byte	0
 4811 10a0 11       		.uleb128 0x11
 4812 10a1 32000000 		.4byte	.LVL205
 4813 10a5 C7180000 		.4byte	0x18c7
 4814 10a9 BA100000 		.4byte	0x10ba
 4815 10ad 12       		.uleb128 0x12
 4816 10ae 01       		.uleb128 0x1
 4817 10af 50       		.byte	0x50
 4818 10b0 02       		.uleb128 0x2
 4819 10b1 76       		.byte	0x76
 4820 10b2 00       		.sleb128 0
 4821 10b3 12       		.uleb128 0x12
 4822 10b4 01       		.uleb128 0x1
 4823 10b5 51       		.byte	0x51
 4824 10b6 02       		.uleb128 0x2
 4825 10b7 74       		.byte	0x74
 4826 10b8 00       		.sleb128 0
 4827 10b9 00       		.byte	0
 4828 10ba 11       		.uleb128 0x11
 4829 10bb 38000000 		.4byte	.LVL206
 4830 10bf D3180000 		.4byte	0x18d3
 4831 10c3 CE100000 		.4byte	0x10ce
 4832 10c7 12       		.uleb128 0x12
 4833 10c8 01       		.uleb128 0x1
 4834 10c9 50       		.byte	0x50
 4835 10ca 02       		.uleb128 0x2
 4836 10cb 76       		.byte	0x76
 4837 10cc 00       		.sleb128 0
 4838 10cd 00       		.byte	0
 4839 10ce 11       		.uleb128 0x11
 4840 10cf 46000000 		.4byte	.LVL208
 4841 10d3 6F030000 		.4byte	0x36f
 4842 10d7 ED100000 		.4byte	0x10ed
 4843 10db 12       		.uleb128 0x12
 4844 10dc 01       		.uleb128 0x1
 4845 10dd 50       		.byte	0x50
 4846 10de 02       		.uleb128 0x2
 4847 10df 76       		.byte	0x76
 4848 10e0 00       		.sleb128 0
 4849 10e1 12       		.uleb128 0x12
 4850 10e2 01       		.uleb128 0x1
 4851 10e3 51       		.byte	0x51
 4852 10e4 01       		.uleb128 0x1
 4853 10e5 48       		.byte	0x48
ARM GAS  C:\Users\brian\AppData\Local\Temp\cclOaW4l.s 			page 107


 4854 10e6 12       		.uleb128 0x12
 4855 10e7 01       		.uleb128 0x1
 4856 10e8 52       		.byte	0x52
 4857 10e9 02       		.uleb128 0x2
 4858 10ea 75       		.byte	0x75
 4859 10eb 00       		.sleb128 0
 4860 10ec 00       		.byte	0
 4861 10ed 11       		.uleb128 0x11
 4862 10ee 5A000000 		.4byte	.LVL212
 4863 10f2 6F030000 		.4byte	0x36f
 4864 10f6 0D110000 		.4byte	0x110d
 4865 10fa 12       		.uleb128 0x12
 4866 10fb 01       		.uleb128 0x1
 4867 10fc 50       		.byte	0x50
 4868 10fd 02       		.uleb128 0x2
 4869 10fe 76       		.byte	0x76
 4870 10ff 00       		.sleb128 0
 4871 1100 12       		.uleb128 0x12
 4872 1101 01       		.uleb128 0x1
 4873 1102 51       		.byte	0x51
 4874 1103 02       		.uleb128 0x2
 4875 1104 74       		.byte	0x74
 4876 1105 00       		.sleb128 0
 4877 1106 12       		.uleb128 0x12
 4878 1107 01       		.uleb128 0x1
 4879 1108 52       		.byte	0x52
 4880 1109 02       		.uleb128 0x2
 4881 110a 75       		.byte	0x75
 4882 110b 00       		.sleb128 0
 4883 110c 00       		.byte	0
 4884 110d 18       		.uleb128 0x18
 4885 110e 76000000 		.4byte	.LVL215
 4886 1112 02       		.uleb128 0x2
 4887 1113 77       		.byte	0x77
 4888 1114 00       		.sleb128 0
 4889 1115 12       		.uleb128 0x12
 4890 1116 01       		.uleb128 0x1
 4891 1117 50       		.byte	0x50
 4892 1118 02       		.uleb128 0x2
 4893 1119 76       		.byte	0x76
 4894 111a 00       		.sleb128 0
 4895 111b 12       		.uleb128 0x12
 4896 111c 01       		.uleb128 0x1
 4897 111d 52       		.byte	0x52
 4898 111e 02       		.uleb128 0x2
 4899 111f 74       		.byte	0x74
 4900 1120 00       		.sleb128 0
 4901 1121 12       		.uleb128 0x12
 4902 1122 01       		.uleb128 0x1
 4903 1123 53       		.byte	0x53
 4904 1124 02       		.uleb128 0x2
 4905 1125 75       		.byte	0x75
 4906 1126 00       		.sleb128 0
 4907 1127 00       		.byte	0
 4908 1128 00       		.byte	0
 4909 1129 1F       		.uleb128 0x1f
 4910 112a 31060000 		.4byte	.LASF86
ARM GAS  C:\Users\brian\AppData\Local\Temp\cclOaW4l.s 			page 108


 4911 112e 01       		.byte	0x1
 4912 112f 1602     		.2byte	0x216
 4913 1131 8C000000 		.4byte	0x8c
 4914 1135 00000000 		.4byte	.LFB18
 4915 1139 C0000000 		.4byte	.LFE18-.LFB18
 4916 113d 01       		.uleb128 0x1
 4917 113e 9C       		.byte	0x9c
 4918 113f 78120000 		.4byte	0x1278
 4919 1143 10       		.uleb128 0x10
 4920 1144 17040000 		.4byte	.LASF63
 4921 1148 01       		.byte	0x1
 4922 1149 1602     		.2byte	0x216
 4923 114b 28030000 		.4byte	0x328
 4924 114f DF0D0000 		.4byte	.LLST60
 4925 1153 20       		.uleb128 0x20
 4926 1154 6D736700 		.ascii	"msg\000"
 4927 1158 01       		.byte	0x1
 4928 1159 1602     		.2byte	0x216
 4929 115b 8C000000 		.4byte	0x8c
 4930 115f 8F0E0000 		.4byte	.LLST61
 4931 1163 10       		.uleb128 0x10
 4932 1164 36020000 		.4byte	.LASF64
 4933 1168 01       		.byte	0x1
 4934 1169 1602     		.2byte	0x216
 4935 116b 8C000000 		.4byte	0x8c
 4936 116f 1F0F0000 		.4byte	.LLST62
 4937 1173 10       		.uleb128 0x10
 4938 1174 B4050000 		.4byte	.LASF65
 4939 1178 01       		.byte	0x1
 4940 1179 1602     		.2byte	0x216
 4941 117b CF000000 		.4byte	0xcf
 4942 117f 640F0000 		.4byte	.LLST63
 4943 1183 26       		.uleb128 0x26
 4944 1184 86030000 		.4byte	.LASF87
 4945 1188 01       		.byte	0x1
 4946 1189 1802     		.2byte	0x218
 4947 118b 8C000000 		.4byte	0x8c
 4948 118f 05       		.uleb128 0x5
 4949 1190 03       		.byte	0x3
 4950 1191 10000000 		.4byte	in_transfer.5887
 4951 1195 22       		.uleb128 0x22
 4952 1196 7000     		.ascii	"p\000"
 4953 1198 01       		.byte	0x1
 4954 1199 1902     		.2byte	0x219
 4955 119b 53030000 		.4byte	0x353
 4956 119f A90F0000 		.4byte	.LLST64
 4957 11a3 1E       		.uleb128 0x1e
 4958 11a4 24000000 		.4byte	.LVL221
 4959 11a8 D3180000 		.4byte	0x18d3
 4960 11ac 11       		.uleb128 0x11
 4961 11ad 2A000000 		.4byte	.LVL222
 4962 11b1 BB180000 		.4byte	0x18bb
 4963 11b5 C0110000 		.4byte	0x11c0
 4964 11b9 12       		.uleb128 0x12
 4965 11ba 01       		.uleb128 0x1
 4966 11bb 50       		.byte	0x50
 4967 11bc 02       		.uleb128 0x2
ARM GAS  C:\Users\brian\AppData\Local\Temp\cclOaW4l.s 			page 109


 4968 11bd 76       		.byte	0x76
 4969 11be 00       		.sleb128 0
 4970 11bf 00       		.byte	0
 4971 11c0 11       		.uleb128 0x11
 4972 11c1 32000000 		.4byte	.LVL223
 4973 11c5 C7180000 		.4byte	0x18c7
 4974 11c9 D9110000 		.4byte	0x11d9
 4975 11cd 12       		.uleb128 0x12
 4976 11ce 01       		.uleb128 0x1
 4977 11cf 50       		.byte	0x50
 4978 11d0 02       		.uleb128 0x2
 4979 11d1 76       		.byte	0x76
 4980 11d2 00       		.sleb128 0
 4981 11d3 12       		.uleb128 0x12
 4982 11d4 01       		.uleb128 0x1
 4983 11d5 51       		.byte	0x51
 4984 11d6 01       		.uleb128 0x1
 4985 11d7 30       		.byte	0x30
 4986 11d8 00       		.byte	0
 4987 11d9 11       		.uleb128 0x11
 4988 11da 3A000000 		.4byte	.LVL224
 4989 11de C7180000 		.4byte	0x18c7
 4990 11e2 F3110000 		.4byte	0x11f3
 4991 11e6 12       		.uleb128 0x12
 4992 11e7 01       		.uleb128 0x1
 4993 11e8 50       		.byte	0x50
 4994 11e9 02       		.uleb128 0x2
 4995 11ea 76       		.byte	0x76
 4996 11eb 00       		.sleb128 0
 4997 11ec 12       		.uleb128 0x12
 4998 11ed 01       		.uleb128 0x1
 4999 11ee 51       		.byte	0x51
 5000 11ef 02       		.uleb128 0x2
 5001 11f0 74       		.byte	0x74
 5002 11f1 00       		.sleb128 0
 5003 11f2 00       		.byte	0
 5004 11f3 11       		.uleb128 0x11
 5005 11f4 48000000 		.4byte	.LVL227
 5006 11f8 C7180000 		.4byte	0x18c7
 5007 11fc 07120000 		.4byte	0x1207
 5008 1200 12       		.uleb128 0x12
 5009 1201 01       		.uleb128 0x1
 5010 1202 51       		.byte	0x51
 5011 1203 02       		.uleb128 0x2
 5012 1204 74       		.byte	0x74
 5013 1205 00       		.sleb128 0
 5014 1206 00       		.byte	0
 5015 1207 1E       		.uleb128 0x1e
 5016 1208 56000000 		.4byte	.LVL229
 5017 120c D3180000 		.4byte	0x18d3
 5018 1210 11       		.uleb128 0x11
 5019 1211 62000000 		.4byte	.LVL231
 5020 1215 6F030000 		.4byte	0x36f
 5021 1219 2F120000 		.4byte	0x122f
 5022 121d 12       		.uleb128 0x12
 5023 121e 01       		.uleb128 0x1
 5024 121f 50       		.byte	0x50
ARM GAS  C:\Users\brian\AppData\Local\Temp\cclOaW4l.s 			page 110


 5025 1220 02       		.uleb128 0x2
 5026 1221 76       		.byte	0x76
 5027 1222 00       		.sleb128 0
 5028 1223 12       		.uleb128 0x12
 5029 1224 01       		.uleb128 0x1
 5030 1225 51       		.byte	0x51
 5031 1226 01       		.uleb128 0x1
 5032 1227 48       		.byte	0x48
 5033 1228 12       		.uleb128 0x12
 5034 1229 01       		.uleb128 0x1
 5035 122a 52       		.byte	0x52
 5036 122b 02       		.uleb128 0x2
 5037 122c 75       		.byte	0x75
 5038 122d 00       		.sleb128 0
 5039 122e 00       		.byte	0
 5040 122f 11       		.uleb128 0x11
 5041 1230 76000000 		.4byte	.LVL235
 5042 1234 6F030000 		.4byte	0x36f
 5043 1238 4F120000 		.4byte	0x124f
 5044 123c 12       		.uleb128 0x12
 5045 123d 01       		.uleb128 0x1
 5046 123e 50       		.byte	0x50
 5047 123f 02       		.uleb128 0x2
 5048 1240 76       		.byte	0x76
 5049 1241 00       		.sleb128 0
 5050 1242 12       		.uleb128 0x12
 5051 1243 01       		.uleb128 0x1
 5052 1244 51       		.byte	0x51
 5053 1245 02       		.uleb128 0x2
 5054 1246 74       		.byte	0x74
 5055 1247 00       		.sleb128 0
 5056 1248 12       		.uleb128 0x12
 5057 1249 01       		.uleb128 0x1
 5058 124a 52       		.byte	0x52
 5059 124b 02       		.uleb128 0x2
 5060 124c 75       		.byte	0x75
 5061 124d 00       		.sleb128 0
 5062 124e 00       		.byte	0
 5063 124f 13       		.uleb128 0x13
 5064 1250 98000000 		.4byte	.LVL238
 5065 1254 02       		.uleb128 0x2
 5066 1255 77       		.byte	0x77
 5067 1256 00       		.sleb128 0
 5068 1257 6E120000 		.4byte	0x126e
 5069 125b 12       		.uleb128 0x12
 5070 125c 01       		.uleb128 0x1
 5071 125d 50       		.byte	0x50
 5072 125e 02       		.uleb128 0x2
 5073 125f 76       		.byte	0x76
 5074 1260 00       		.sleb128 0
 5075 1261 12       		.uleb128 0x12
 5076 1262 01       		.uleb128 0x1
 5077 1263 52       		.byte	0x52
 5078 1264 02       		.uleb128 0x2
 5079 1265 74       		.byte	0x74
 5080 1266 00       		.sleb128 0
 5081 1267 12       		.uleb128 0x12
ARM GAS  C:\Users\brian\AppData\Local\Temp\cclOaW4l.s 			page 111


 5082 1268 01       		.uleb128 0x1
 5083 1269 53       		.byte	0x53
 5084 126a 02       		.uleb128 0x2
 5085 126b 75       		.byte	0x75
 5086 126c 00       		.sleb128 0
 5087 126d 00       		.byte	0
 5088 126e 1E       		.uleb128 0x1e
 5089 126f AE000000 		.4byte	.LVL242
 5090 1273 D3180000 		.4byte	0x18d3
 5091 1277 00       		.byte	0
 5092 1278 1F       		.uleb128 0x1f
 5093 1279 93000000 		.4byte	.LASF88
 5094 127d 01       		.byte	0x1
 5095 127e 6302     		.2byte	0x263
 5096 1280 8C000000 		.4byte	0x8c
 5097 1284 00000000 		.4byte	.LFB19
 5098 1288 9A000000 		.4byte	.LFE19-.LFB19
 5099 128c 01       		.uleb128 0x1
 5100 128d 9C       		.byte	0x9c
 5101 128e DC130000 		.4byte	0x13dc
 5102 1292 10       		.uleb128 0x10
 5103 1293 17040000 		.4byte	.LASF63
 5104 1297 01       		.byte	0x1
 5105 1298 6302     		.2byte	0x263
 5106 129a 28030000 		.4byte	0x328
 5107 129e BC0F0000 		.4byte	.LLST65
 5108 12a2 20       		.uleb128 0x20
 5109 12a3 6D736700 		.ascii	"msg\000"
 5110 12a7 01       		.byte	0x1
 5111 12a8 6302     		.2byte	0x263
 5112 12aa 8C000000 		.4byte	0x8c
 5113 12ae 32100000 		.4byte	.LLST66
 5114 12b2 10       		.uleb128 0x10
 5115 12b3 36020000 		.4byte	.LASF64
 5116 12b7 01       		.byte	0x1
 5117 12b8 6302     		.2byte	0x263
 5118 12ba 8C000000 		.4byte	0x8c
 5119 12be 90100000 		.4byte	.LLST67
 5120 12c2 10       		.uleb128 0x10
 5121 12c3 B4050000 		.4byte	.LASF65
 5122 12c7 01       		.byte	0x1
 5123 12c8 6302     		.2byte	0x263
 5124 12ca CF000000 		.4byte	0xcf
 5125 12ce D5100000 		.4byte	.LLST68
 5126 12d2 22       		.uleb128 0x22
 5127 12d3 7000     		.ascii	"p\000"
 5128 12d5 01       		.byte	0x1
 5129 12d6 6502     		.2byte	0x265
 5130 12d8 53030000 		.4byte	0x353
 5131 12dc 0C110000 		.4byte	.LLST69
 5132 12e0 1E       		.uleb128 0x1e
 5133 12e1 22000000 		.4byte	.LVL251
 5134 12e5 BB180000 		.4byte	0x18bb
 5135 12e9 11       		.uleb128 0x11
 5136 12ea 2A000000 		.4byte	.LVL252
 5137 12ee C7180000 		.4byte	0x18c7
 5138 12f2 02130000 		.4byte	0x1302
ARM GAS  C:\Users\brian\AppData\Local\Temp\cclOaW4l.s 			page 112


 5139 12f6 12       		.uleb128 0x12
 5140 12f7 01       		.uleb128 0x1
 5141 12f8 50       		.byte	0x50
 5142 12f9 02       		.uleb128 0x2
 5143 12fa 76       		.byte	0x76
 5144 12fb 00       		.sleb128 0
 5145 12fc 12       		.uleb128 0x12
 5146 12fd 01       		.uleb128 0x1
 5147 12fe 51       		.byte	0x51
 5148 12ff 01       		.uleb128 0x1
 5149 1300 30       		.byte	0x30
 5150 1301 00       		.byte	0
 5151 1302 11       		.uleb128 0x11
 5152 1303 32000000 		.4byte	.LVL253
 5153 1307 C7180000 		.4byte	0x18c7
 5154 130b 1C130000 		.4byte	0x131c
 5155 130f 12       		.uleb128 0x12
 5156 1310 01       		.uleb128 0x1
 5157 1311 50       		.byte	0x50
 5158 1312 02       		.uleb128 0x2
 5159 1313 76       		.byte	0x76
 5160 1314 00       		.sleb128 0
 5161 1315 12       		.uleb128 0x12
 5162 1316 01       		.uleb128 0x1
 5163 1317 51       		.byte	0x51
 5164 1318 02       		.uleb128 0x2
 5165 1319 74       		.byte	0x74
 5166 131a 00       		.sleb128 0
 5167 131b 00       		.byte	0
 5168 131c 11       		.uleb128 0x11
 5169 131d 38000000 		.4byte	.LVL254
 5170 1321 D3180000 		.4byte	0x18d3
 5171 1325 30130000 		.4byte	0x1330
 5172 1329 12       		.uleb128 0x12
 5173 132a 01       		.uleb128 0x1
 5174 132b 50       		.byte	0x50
 5175 132c 02       		.uleb128 0x2
 5176 132d 76       		.byte	0x76
 5177 132e 00       		.sleb128 0
 5178 132f 00       		.byte	0
 5179 1330 1E       		.uleb128 0x1e
 5180 1331 40000000 		.4byte	.LVL256
 5181 1335 BB180000 		.4byte	0x18bb
 5182 1339 11       		.uleb128 0x11
 5183 133a 48000000 		.4byte	.LVL257
 5184 133e C7180000 		.4byte	0x18c7
 5185 1342 53130000 		.4byte	0x1353
 5186 1346 12       		.uleb128 0x12
 5187 1347 01       		.uleb128 0x1
 5188 1348 50       		.byte	0x50
 5189 1349 02       		.uleb128 0x2
 5190 134a 76       		.byte	0x76
 5191 134b 00       		.sleb128 0
 5192 134c 12       		.uleb128 0x12
 5193 134d 01       		.uleb128 0x1
 5194 134e 51       		.byte	0x51
 5195 134f 02       		.uleb128 0x2
ARM GAS  C:\Users\brian\AppData\Local\Temp\cclOaW4l.s 			page 113


 5196 1350 08       		.byte	0x8
 5197 1351 40       		.byte	0x40
 5198 1352 00       		.byte	0
 5199 1353 11       		.uleb128 0x11
 5200 1354 50000000 		.4byte	.LVL258
 5201 1358 C7180000 		.4byte	0x18c7
 5202 135c 6D130000 		.4byte	0x136d
 5203 1360 12       		.uleb128 0x12
 5204 1361 01       		.uleb128 0x1
 5205 1362 50       		.byte	0x50
 5206 1363 02       		.uleb128 0x2
 5207 1364 76       		.byte	0x76
 5208 1365 00       		.sleb128 0
 5209 1366 12       		.uleb128 0x12
 5210 1367 01       		.uleb128 0x1
 5211 1368 51       		.byte	0x51
 5212 1369 02       		.uleb128 0x2
 5213 136a 74       		.byte	0x74
 5214 136b 00       		.sleb128 0
 5215 136c 00       		.byte	0
 5216 136d 11       		.uleb128 0x11
 5217 136e 56000000 		.4byte	.LVL259
 5218 1372 D3180000 		.4byte	0x18d3
 5219 1376 81130000 		.4byte	0x1381
 5220 137a 12       		.uleb128 0x12
 5221 137b 01       		.uleb128 0x1
 5222 137c 50       		.byte	0x50
 5223 137d 02       		.uleb128 0x2
 5224 137e 76       		.byte	0x76
 5225 137f 00       		.sleb128 0
 5226 1380 00       		.byte	0
 5227 1381 11       		.uleb128 0x11
 5228 1382 64000000 		.4byte	.LVL261
 5229 1386 6F030000 		.4byte	0x36f
 5230 138a A0130000 		.4byte	0x13a0
 5231 138e 12       		.uleb128 0x12
 5232 138f 01       		.uleb128 0x1
 5233 1390 50       		.byte	0x50
 5234 1391 02       		.uleb128 0x2
 5235 1392 76       		.byte	0x76
 5236 1393 00       		.sleb128 0
 5237 1394 12       		.uleb128 0x12
 5238 1395 01       		.uleb128 0x1
 5239 1396 51       		.byte	0x51
 5240 1397 01       		.uleb128 0x1
 5241 1398 48       		.byte	0x48
 5242 1399 12       		.uleb128 0x12
 5243 139a 01       		.uleb128 0x1
 5244 139b 52       		.byte	0x52
 5245 139c 02       		.uleb128 0x2
 5246 139d 75       		.byte	0x75
 5247 139e 00       		.sleb128 0
 5248 139f 00       		.byte	0
 5249 13a0 11       		.uleb128 0x11
 5250 13a1 78000000 		.4byte	.LVL265
 5251 13a5 6F030000 		.4byte	0x36f
 5252 13a9 C0130000 		.4byte	0x13c0
ARM GAS  C:\Users\brian\AppData\Local\Temp\cclOaW4l.s 			page 114


 5253 13ad 12       		.uleb128 0x12
 5254 13ae 01       		.uleb128 0x1
 5255 13af 50       		.byte	0x50
 5256 13b0 02       		.uleb128 0x2
 5257 13b1 76       		.byte	0x76
 5258 13b2 00       		.sleb128 0
 5259 13b3 12       		.uleb128 0x12
 5260 13b4 01       		.uleb128 0x1
 5261 13b5 51       		.byte	0x51
 5262 13b6 02       		.uleb128 0x2
 5263 13b7 74       		.byte	0x74
 5264 13b8 00       		.sleb128 0
 5265 13b9 12       		.uleb128 0x12
 5266 13ba 01       		.uleb128 0x1
 5267 13bb 52       		.byte	0x52
 5268 13bc 02       		.uleb128 0x2
 5269 13bd 75       		.byte	0x75
 5270 13be 00       		.sleb128 0
 5271 13bf 00       		.byte	0
 5272 13c0 18       		.uleb128 0x18
 5273 13c1 94000000 		.4byte	.LVL268
 5274 13c5 02       		.uleb128 0x2
 5275 13c6 77       		.byte	0x77
 5276 13c7 00       		.sleb128 0
 5277 13c8 12       		.uleb128 0x12
 5278 13c9 01       		.uleb128 0x1
 5279 13ca 50       		.byte	0x50
 5280 13cb 02       		.uleb128 0x2
 5281 13cc 76       		.byte	0x76
 5282 13cd 00       		.sleb128 0
 5283 13ce 12       		.uleb128 0x12
 5284 13cf 01       		.uleb128 0x1
 5285 13d0 52       		.byte	0x52
 5286 13d1 02       		.uleb128 0x2
 5287 13d2 74       		.byte	0x74
 5288 13d3 00       		.sleb128 0
 5289 13d4 12       		.uleb128 0x12
 5290 13d5 01       		.uleb128 0x1
 5291 13d6 53       		.byte	0x53
 5292 13d7 02       		.uleb128 0x2
 5293 13d8 75       		.byte	0x75
 5294 13d9 00       		.sleb128 0
 5295 13da 00       		.byte	0
 5296 13db 00       		.byte	0
 5297 13dc 1F       		.uleb128 0x1f
 5298 13dd 43010000 		.4byte	.LASF89
 5299 13e1 01       		.byte	0x1
 5300 13e2 9102     		.2byte	0x291
 5301 13e4 8C000000 		.4byte	0x8c
 5302 13e8 00000000 		.4byte	.LFB20
 5303 13ec BC000000 		.4byte	.LFE20-.LFB20
 5304 13f0 01       		.uleb128 0x1
 5305 13f1 9C       		.byte	0x9c
 5306 13f2 52150000 		.4byte	0x1552
 5307 13f6 10       		.uleb128 0x10
 5308 13f7 17040000 		.4byte	.LASF63
 5309 13fb 01       		.byte	0x1
ARM GAS  C:\Users\brian\AppData\Local\Temp\cclOaW4l.s 			page 115


 5310 13fc 9102     		.2byte	0x291
 5311 13fe 28030000 		.4byte	0x328
 5312 1402 1F110000 		.4byte	.LLST70
 5313 1406 20       		.uleb128 0x20
 5314 1407 6D736700 		.ascii	"msg\000"
 5315 140b 01       		.byte	0x1
 5316 140c 9102     		.2byte	0x291
 5317 140e 8C000000 		.4byte	0x8c
 5318 1412 CF110000 		.4byte	.LLST71
 5319 1416 10       		.uleb128 0x10
 5320 1417 36020000 		.4byte	.LASF64
 5321 141b 01       		.byte	0x1
 5322 141c 9102     		.2byte	0x291
 5323 141e 8C000000 		.4byte	0x8c
 5324 1422 46120000 		.4byte	.LLST72
 5325 1426 10       		.uleb128 0x10
 5326 1427 B4050000 		.4byte	.LASF65
 5327 142b 01       		.byte	0x1
 5328 142c 9102     		.2byte	0x291
 5329 142e CF000000 		.4byte	0xcf
 5330 1432 8B120000 		.4byte	.LLST73
 5331 1436 26       		.uleb128 0x26
 5332 1437 86030000 		.4byte	.LASF87
 5333 143b 01       		.byte	0x1
 5334 143c 9302     		.2byte	0x293
 5335 143e 8C000000 		.4byte	0x8c
 5336 1442 05       		.uleb128 0x5
 5337 1443 03       		.byte	0x3
 5338 1444 11000000 		.4byte	in_transfer.5924
 5339 1448 22       		.uleb128 0x22
 5340 1449 7000     		.ascii	"p\000"
 5341 144b 01       		.byte	0x1
 5342 144c 9402     		.2byte	0x294
 5343 144e 53030000 		.4byte	0x353
 5344 1452 D0120000 		.4byte	.LLST74
 5345 1456 1E       		.uleb128 0x1e
 5346 1457 24000000 		.4byte	.LVL274
 5347 145b D3180000 		.4byte	0x18d3
 5348 145f 11       		.uleb128 0x11
 5349 1460 2A000000 		.4byte	.LVL275
 5350 1464 BB180000 		.4byte	0x18bb
 5351 1468 73140000 		.4byte	0x1473
 5352 146c 12       		.uleb128 0x12
 5353 146d 01       		.uleb128 0x1
 5354 146e 50       		.byte	0x50
 5355 146f 02       		.uleb128 0x2
 5356 1470 74       		.byte	0x74
 5357 1471 00       		.sleb128 0
 5358 1472 00       		.byte	0
 5359 1473 11       		.uleb128 0x11
 5360 1474 32000000 		.4byte	.LVL276
 5361 1478 C7180000 		.4byte	0x18c7
 5362 147c 8D140000 		.4byte	0x148d
 5363 1480 12       		.uleb128 0x12
 5364 1481 01       		.uleb128 0x1
 5365 1482 50       		.byte	0x50
 5366 1483 02       		.uleb128 0x2
ARM GAS  C:\Users\brian\AppData\Local\Temp\cclOaW4l.s 			page 116


 5367 1484 74       		.byte	0x74
 5368 1485 00       		.sleb128 0
 5369 1486 12       		.uleb128 0x12
 5370 1487 01       		.uleb128 0x1
 5371 1488 51       		.byte	0x51
 5372 1489 02       		.uleb128 0x2
 5373 148a 75       		.byte	0x75
 5374 148b 00       		.sleb128 0
 5375 148c 00       		.byte	0
 5376 148d 11       		.uleb128 0x11
 5377 148e 40000000 		.4byte	.LVL279
 5378 1492 C7180000 		.4byte	0x18c7
 5379 1496 A1140000 		.4byte	0x14a1
 5380 149a 12       		.uleb128 0x12
 5381 149b 01       		.uleb128 0x1
 5382 149c 51       		.byte	0x51
 5383 149d 02       		.uleb128 0x2
 5384 149e 75       		.byte	0x75
 5385 149f 00       		.sleb128 0
 5386 14a0 00       		.byte	0
 5387 14a1 13       		.uleb128 0x13
 5388 14a2 50000000 		.4byte	.LVL281
 5389 14a6 02       		.uleb128 0x2
 5390 14a7 77       		.byte	0x77
 5391 14a8 00       		.sleb128 0
 5392 14a9 C4140000 		.4byte	0x14c4
 5393 14ad 12       		.uleb128 0x12
 5394 14ae 01       		.uleb128 0x1
 5395 14af 50       		.byte	0x50
 5396 14b0 02       		.uleb128 0x2
 5397 14b1 74       		.byte	0x74
 5398 14b2 00       		.sleb128 0
 5399 14b3 12       		.uleb128 0x12
 5400 14b4 01       		.uleb128 0x1
 5401 14b5 51       		.byte	0x51
 5402 14b6 01       		.uleb128 0x1
 5403 14b7 47       		.byte	0x47
 5404 14b8 12       		.uleb128 0x12
 5405 14b9 01       		.uleb128 0x1
 5406 14ba 52       		.byte	0x52
 5407 14bb 01       		.uleb128 0x1
 5408 14bc 48       		.byte	0x48
 5409 14bd 12       		.uleb128 0x12
 5410 14be 01       		.uleb128 0x1
 5411 14bf 53       		.byte	0x53
 5412 14c0 02       		.uleb128 0x2
 5413 14c1 76       		.byte	0x76
 5414 14c2 00       		.sleb128 0
 5415 14c3 00       		.byte	0
 5416 14c4 11       		.uleb128 0x11
 5417 14c5 5C000000 		.4byte	.LVL285
 5418 14c9 D3180000 		.4byte	0x18d3
 5419 14cd D8140000 		.4byte	0x14d8
 5420 14d1 12       		.uleb128 0x12
 5421 14d2 01       		.uleb128 0x1
 5422 14d3 50       		.byte	0x50
 5423 14d4 02       		.uleb128 0x2
ARM GAS  C:\Users\brian\AppData\Local\Temp\cclOaW4l.s 			page 117


 5424 14d5 74       		.byte	0x74
 5425 14d6 00       		.sleb128 0
 5426 14d7 00       		.byte	0
 5427 14d8 11       		.uleb128 0x11
 5428 14d9 62000000 		.4byte	.LVL286
 5429 14dd BB180000 		.4byte	0x18bb
 5430 14e1 EC140000 		.4byte	0x14ec
 5431 14e5 12       		.uleb128 0x12
 5432 14e6 01       		.uleb128 0x1
 5433 14e7 50       		.byte	0x50
 5434 14e8 02       		.uleb128 0x2
 5435 14e9 74       		.byte	0x74
 5436 14ea 00       		.sleb128 0
 5437 14eb 00       		.byte	0
 5438 14ec 11       		.uleb128 0x11
 5439 14ed 6A000000 		.4byte	.LVL287
 5440 14f1 C7180000 		.4byte	0x18c7
 5441 14f5 05150000 		.4byte	0x1505
 5442 14f9 12       		.uleb128 0x12
 5443 14fa 01       		.uleb128 0x1
 5444 14fb 50       		.byte	0x50
 5445 14fc 02       		.uleb128 0x2
 5446 14fd 74       		.byte	0x74
 5447 14fe 00       		.sleb128 0
 5448 14ff 12       		.uleb128 0x12
 5449 1500 01       		.uleb128 0x1
 5450 1501 51       		.byte	0x51
 5451 1502 01       		.uleb128 0x1
 5452 1503 38       		.byte	0x38
 5453 1504 00       		.byte	0
 5454 1505 13       		.uleb128 0x13
 5455 1506 7A000000 		.4byte	.LVL288
 5456 150a 02       		.uleb128 0x2
 5457 150b 77       		.byte	0x77
 5458 150c 00       		.sleb128 0
 5459 150d 29150000 		.4byte	0x1529
 5460 1511 12       		.uleb128 0x12
 5461 1512 01       		.uleb128 0x1
 5462 1513 50       		.byte	0x50
 5463 1514 02       		.uleb128 0x2
 5464 1515 74       		.byte	0x74
 5465 1516 00       		.sleb128 0
 5466 1517 12       		.uleb128 0x12
 5467 1518 01       		.uleb128 0x1
 5468 1519 51       		.byte	0x51
 5469 151a 01       		.uleb128 0x1
 5470 151b 47       		.byte	0x47
 5471 151c 12       		.uleb128 0x12
 5472 151d 01       		.uleb128 0x1
 5473 151e 52       		.byte	0x52
 5474 151f 02       		.uleb128 0x2
 5475 1520 75       		.byte	0x75
 5476 1521 00       		.sleb128 0
 5477 1522 12       		.uleb128 0x12
 5478 1523 01       		.uleb128 0x1
 5479 1524 53       		.byte	0x53
 5480 1525 02       		.uleb128 0x2
ARM GAS  C:\Users\brian\AppData\Local\Temp\cclOaW4l.s 			page 118


 5481 1526 76       		.byte	0x76
 5482 1527 00       		.sleb128 0
 5483 1528 00       		.byte	0
 5484 1529 13       		.uleb128 0x13
 5485 152a 96000000 		.4byte	.LVL291
 5486 152e 02       		.uleb128 0x2
 5487 152f 77       		.byte	0x77
 5488 1530 00       		.sleb128 0
 5489 1531 48150000 		.4byte	0x1548
 5490 1535 12       		.uleb128 0x12
 5491 1536 01       		.uleb128 0x1
 5492 1537 50       		.byte	0x50
 5493 1538 02       		.uleb128 0x2
 5494 1539 74       		.byte	0x74
 5495 153a 00       		.sleb128 0
 5496 153b 12       		.uleb128 0x12
 5497 153c 01       		.uleb128 0x1
 5498 153d 52       		.byte	0x52
 5499 153e 02       		.uleb128 0x2
 5500 153f 75       		.byte	0x75
 5501 1540 00       		.sleb128 0
 5502 1541 12       		.uleb128 0x12
 5503 1542 01       		.uleb128 0x1
 5504 1543 53       		.byte	0x53
 5505 1544 02       		.uleb128 0x2
 5506 1545 76       		.byte	0x76
 5507 1546 00       		.sleb128 0
 5508 1547 00       		.byte	0
 5509 1548 1E       		.uleb128 0x1e
 5510 1549 AC000000 		.4byte	.LVL295
 5511 154d D3180000 		.4byte	0x18d3
 5512 1551 00       		.byte	0
 5513 1552 1F       		.uleb128 0x1f
 5514 1553 0A050000 		.4byte	.LASF90
 5515 1557 01       		.byte	0x1
 5516 1558 CC02     		.2byte	0x2cc
 5517 155a 8C000000 		.4byte	0x8c
 5518 155e 00000000 		.4byte	.LFB21
 5519 1562 F0000000 		.4byte	.LFE21-.LFB21
 5520 1566 01       		.uleb128 0x1
 5521 1567 9C       		.byte	0x9c
 5522 1568 D0160000 		.4byte	0x16d0
 5523 156c 10       		.uleb128 0x10
 5524 156d 17040000 		.4byte	.LASF63
 5525 1571 01       		.byte	0x1
 5526 1572 CC02     		.2byte	0x2cc
 5527 1574 28030000 		.4byte	0x328
 5528 1578 E3120000 		.4byte	.LLST75
 5529 157c 20       		.uleb128 0x20
 5530 157d 6D736700 		.ascii	"msg\000"
 5531 1581 01       		.byte	0x1
 5532 1582 CC02     		.2byte	0x2cc
 5533 1584 8C000000 		.4byte	0x8c
 5534 1588 93130000 		.4byte	.LLST76
 5535 158c 10       		.uleb128 0x10
 5536 158d 36020000 		.4byte	.LASF64
 5537 1591 01       		.byte	0x1
ARM GAS  C:\Users\brian\AppData\Local\Temp\cclOaW4l.s 			page 119


 5538 1592 CC02     		.2byte	0x2cc
 5539 1594 8C000000 		.4byte	0x8c
 5540 1598 23140000 		.4byte	.LLST77
 5541 159c 10       		.uleb128 0x10
 5542 159d B4050000 		.4byte	.LASF65
 5543 15a1 01       		.byte	0x1
 5544 15a2 CC02     		.2byte	0x2cc
 5545 15a4 CF000000 		.4byte	0xcf
 5546 15a8 68140000 		.4byte	.LLST78
 5547 15ac 26       		.uleb128 0x26
 5548 15ad 86030000 		.4byte	.LASF87
 5549 15b1 01       		.byte	0x1
 5550 15b2 CE02     		.2byte	0x2ce
 5551 15b4 8C000000 		.4byte	0x8c
 5552 15b8 05       		.uleb128 0x5
 5553 15b9 03       		.byte	0x3
 5554 15ba 12000000 		.4byte	in_transfer.5943
 5555 15be 27       		.uleb128 0x27
 5556 15bf 29030000 		.4byte	.LASF91
 5557 15c3 01       		.byte	0x1
 5558 15c4 CF02     		.2byte	0x2cf
 5559 15c6 6A030000 		.4byte	0x36a
 5560 15ca 00       		.byte	0
 5561 15cb 22       		.uleb128 0x22
 5562 15cc 7000     		.ascii	"p\000"
 5563 15ce 01       		.byte	0x1
 5564 15cf D002     		.2byte	0x2d0
 5565 15d1 53030000 		.4byte	0x353
 5566 15d5 AD140000 		.4byte	.LLST79
 5567 15d9 11       		.uleb128 0x11
 5568 15da 30000000 		.4byte	.LVL304
 5569 15de BB180000 		.4byte	0x18bb
 5570 15e2 ED150000 		.4byte	0x15ed
 5571 15e6 12       		.uleb128 0x12
 5572 15e7 01       		.uleb128 0x1
 5573 15e8 50       		.byte	0x50
 5574 15e9 02       		.uleb128 0x2
 5575 15ea 75       		.byte	0x75
 5576 15eb 00       		.sleb128 0
 5577 15ec 00       		.byte	0
 5578 15ed 11       		.uleb128 0x11
 5579 15ee 38000000 		.4byte	.LVL305
 5580 15f2 C7180000 		.4byte	0x18c7
 5581 15f6 07160000 		.4byte	0x1607
 5582 15fa 12       		.uleb128 0x12
 5583 15fb 01       		.uleb128 0x1
 5584 15fc 50       		.byte	0x50
 5585 15fd 02       		.uleb128 0x2
 5586 15fe 75       		.byte	0x75
 5587 15ff 00       		.sleb128 0
 5588 1600 12       		.uleb128 0x12
 5589 1601 01       		.uleb128 0x1
 5590 1602 51       		.byte	0x51
 5591 1603 02       		.uleb128 0x2
 5592 1604 74       		.byte	0x74
 5593 1605 00       		.sleb128 0
 5594 1606 00       		.byte	0
ARM GAS  C:\Users\brian\AppData\Local\Temp\cclOaW4l.s 			page 120


 5595 1607 1E       		.uleb128 0x1e
 5596 1608 4A000000 		.4byte	.LVL307
 5597 160c D3180000 		.4byte	0x18d3
 5598 1610 11       		.uleb128 0x11
 5599 1611 60000000 		.4byte	.LVL308
 5600 1615 BB180000 		.4byte	0x18bb
 5601 1619 24160000 		.4byte	0x1624
 5602 161d 12       		.uleb128 0x12
 5603 161e 01       		.uleb128 0x1
 5604 161f 50       		.byte	0x50
 5605 1620 02       		.uleb128 0x2
 5606 1621 75       		.byte	0x75
 5607 1622 00       		.sleb128 0
 5608 1623 00       		.byte	0
 5609 1624 11       		.uleb128 0x11
 5610 1625 76000000 		.4byte	.LVL310
 5611 1629 BB180000 		.4byte	0x18bb
 5612 162d 38160000 		.4byte	0x1638
 5613 1631 12       		.uleb128 0x12
 5614 1632 01       		.uleb128 0x1
 5615 1633 50       		.byte	0x50
 5616 1634 02       		.uleb128 0x2
 5617 1635 75       		.byte	0x75
 5618 1636 00       		.sleb128 0
 5619 1637 00       		.byte	0
 5620 1638 13       		.uleb128 0x13
 5621 1639 8A000000 		.4byte	.LVL313
 5622 163d 02       		.uleb128 0x2
 5623 163e 77       		.byte	0x77
 5624 163f 00       		.sleb128 0
 5625 1640 5B160000 		.4byte	0x165b
 5626 1644 12       		.uleb128 0x12
 5627 1645 01       		.uleb128 0x1
 5628 1646 50       		.byte	0x50
 5629 1647 02       		.uleb128 0x2
 5630 1648 75       		.byte	0x75
 5631 1649 00       		.sleb128 0
 5632 164a 12       		.uleb128 0x12
 5633 164b 01       		.uleb128 0x1
 5634 164c 51       		.byte	0x51
 5635 164d 01       		.uleb128 0x1
 5636 164e 47       		.byte	0x47
 5637 164f 12       		.uleb128 0x12
 5638 1650 01       		.uleb128 0x1
 5639 1651 52       		.byte	0x52
 5640 1652 01       		.uleb128 0x1
 5641 1653 48       		.byte	0x48
 5642 1654 12       		.uleb128 0x12
 5643 1655 01       		.uleb128 0x1
 5644 1656 53       		.byte	0x53
 5645 1657 02       		.uleb128 0x2
 5646 1658 76       		.byte	0x76
 5647 1659 00       		.sleb128 0
 5648 165a 00       		.byte	0
 5649 165b 11       		.uleb128 0x11
 5650 165c 96000000 		.4byte	.LVL317
 5651 1660 D3180000 		.4byte	0x18d3
ARM GAS  C:\Users\brian\AppData\Local\Temp\cclOaW4l.s 			page 121


 5652 1664 6F160000 		.4byte	0x166f
 5653 1668 12       		.uleb128 0x12
 5654 1669 01       		.uleb128 0x1
 5655 166a 50       		.byte	0x50
 5656 166b 02       		.uleb128 0x2
 5657 166c 75       		.byte	0x75
 5658 166d 00       		.sleb128 0
 5659 166e 00       		.byte	0
 5660 166f 11       		.uleb128 0x11
 5661 1670 9C000000 		.4byte	.LVL318
 5662 1674 BB180000 		.4byte	0x18bb
 5663 1678 83160000 		.4byte	0x1683
 5664 167c 12       		.uleb128 0x12
 5665 167d 01       		.uleb128 0x1
 5666 167e 50       		.byte	0x50
 5667 167f 02       		.uleb128 0x2
 5668 1680 75       		.byte	0x75
 5669 1681 00       		.sleb128 0
 5670 1682 00       		.byte	0
 5671 1683 13       		.uleb128 0x13
 5672 1684 AC000000 		.4byte	.LVL319
 5673 1688 02       		.uleb128 0x2
 5674 1689 77       		.byte	0x77
 5675 168a 00       		.sleb128 0
 5676 168b A7160000 		.4byte	0x16a7
 5677 168f 12       		.uleb128 0x12
 5678 1690 01       		.uleb128 0x1
 5679 1691 50       		.byte	0x50
 5680 1692 02       		.uleb128 0x2
 5681 1693 75       		.byte	0x75
 5682 1694 00       		.sleb128 0
 5683 1695 12       		.uleb128 0x12
 5684 1696 01       		.uleb128 0x1
 5685 1697 51       		.byte	0x51
 5686 1698 01       		.uleb128 0x1
 5687 1699 47       		.byte	0x47
 5688 169a 12       		.uleb128 0x12
 5689 169b 01       		.uleb128 0x1
 5690 169c 52       		.byte	0x52
 5691 169d 02       		.uleb128 0x2
 5692 169e 74       		.byte	0x74
 5693 169f 00       		.sleb128 0
 5694 16a0 12       		.uleb128 0x12
 5695 16a1 01       		.uleb128 0x1
 5696 16a2 53       		.byte	0x53
 5697 16a3 02       		.uleb128 0x2
 5698 16a4 76       		.byte	0x76
 5699 16a5 00       		.sleb128 0
 5700 16a6 00       		.byte	0
 5701 16a7 13       		.uleb128 0x13
 5702 16a8 C8000000 		.4byte	.LVL322
 5703 16ac 02       		.uleb128 0x2
 5704 16ad 77       		.byte	0x77
 5705 16ae 00       		.sleb128 0
 5706 16af C6160000 		.4byte	0x16c6
 5707 16b3 12       		.uleb128 0x12
 5708 16b4 01       		.uleb128 0x1
ARM GAS  C:\Users\brian\AppData\Local\Temp\cclOaW4l.s 			page 122


 5709 16b5 50       		.byte	0x50
 5710 16b6 02       		.uleb128 0x2
 5711 16b7 75       		.byte	0x75
 5712 16b8 00       		.sleb128 0
 5713 16b9 12       		.uleb128 0x12
 5714 16ba 01       		.uleb128 0x1
 5715 16bb 52       		.byte	0x52
 5716 16bc 02       		.uleb128 0x2
 5717 16bd 74       		.byte	0x74
 5718 16be 00       		.sleb128 0
 5719 16bf 12       		.uleb128 0x12
 5720 16c0 01       		.uleb128 0x1
 5721 16c1 53       		.byte	0x53
 5722 16c2 02       		.uleb128 0x2
 5723 16c3 76       		.byte	0x76
 5724 16c4 00       		.sleb128 0
 5725 16c5 00       		.byte	0
 5726 16c6 1E       		.uleb128 0x1e
 5727 16c7 DE000000 		.4byte	.LVL326
 5728 16cb D3180000 		.4byte	0x18d3
 5729 16cf 00       		.byte	0
 5730 16d0 1F       		.uleb128 0x1f
 5731 16d1 E9020000 		.4byte	.LASF92
 5732 16d5 01       		.byte	0x1
 5733 16d6 2203     		.2byte	0x322
 5734 16d8 8C000000 		.4byte	0x8c
 5735 16dc 00000000 		.4byte	.LFB22
 5736 16e0 6C010000 		.4byte	.LFE22-.LFB22
 5737 16e4 01       		.uleb128 0x1
 5738 16e5 9C       		.byte	0x9c
 5739 16e6 BB180000 		.4byte	0x18bb
 5740 16ea 10       		.uleb128 0x10
 5741 16eb 17040000 		.4byte	.LASF63
 5742 16ef 01       		.byte	0x1
 5743 16f0 2203     		.2byte	0x322
 5744 16f2 28030000 		.4byte	0x328
 5745 16f6 C0140000 		.4byte	.LLST80
 5746 16fa 20       		.uleb128 0x20
 5747 16fb 6D736700 		.ascii	"msg\000"
 5748 16ff 01       		.byte	0x1
 5749 1700 2203     		.2byte	0x322
 5750 1702 8C000000 		.4byte	0x8c
 5751 1706 B2150000 		.4byte	.LLST81
 5752 170a 10       		.uleb128 0x10
 5753 170b 36020000 		.4byte	.LASF64
 5754 170f 01       		.byte	0x1
 5755 1710 2203     		.2byte	0x322
 5756 1712 8C000000 		.4byte	0x8c
 5757 1716 8D160000 		.4byte	.LLST82
 5758 171a 10       		.uleb128 0x10
 5759 171b B4050000 		.4byte	.LASF65
 5760 171f 01       		.byte	0x1
 5761 1720 2203     		.2byte	0x322
 5762 1722 CF000000 		.4byte	0xcf
 5763 1726 D2160000 		.4byte	.LLST83
 5764 172a 26       		.uleb128 0x26
 5765 172b 86030000 		.4byte	.LASF87
ARM GAS  C:\Users\brian\AppData\Local\Temp\cclOaW4l.s 			page 123


 5766 172f 01       		.byte	0x1
 5767 1730 2403     		.2byte	0x324
 5768 1732 8C000000 		.4byte	0x8c
 5769 1736 05       		.uleb128 0x5
 5770 1737 03       		.byte	0x3
 5771 1738 13000000 		.4byte	in_transfer.5963
 5772 173c 26       		.uleb128 0x26
 5773 173d 29030000 		.4byte	.LASF91
 5774 1741 01       		.byte	0x1
 5775 1742 2503     		.2byte	0x325
 5776 1744 8C000000 		.4byte	0x8c
 5777 1748 05       		.uleb128 0x5
 5778 1749 03       		.byte	0x3
 5779 174a 14000000 		.4byte	is_data.5964
 5780 174e 22       		.uleb128 0x22
 5781 174f 7000     		.ascii	"p\000"
 5782 1751 01       		.byte	0x1
 5783 1752 2603     		.2byte	0x326
 5784 1754 53030000 		.4byte	0x353
 5785 1758 17170000 		.4byte	.LLST84
 5786 175c 1E       		.uleb128 0x1e
 5787 175d 2C000000 		.4byte	.LVL333
 5788 1761 D3180000 		.4byte	0x18d3
 5789 1765 11       		.uleb128 0x11
 5790 1766 3E000000 		.4byte	.LVL334
 5791 176a BB180000 		.4byte	0x18bb
 5792 176e 79170000 		.4byte	0x1779
 5793 1772 12       		.uleb128 0x12
 5794 1773 01       		.uleb128 0x1
 5795 1774 50       		.byte	0x50
 5796 1775 02       		.uleb128 0x2
 5797 1776 75       		.byte	0x75
 5798 1777 00       		.sleb128 0
 5799 1778 00       		.byte	0
 5800 1779 11       		.uleb128 0x11
 5801 177a 50000000 		.4byte	.LVL336
 5802 177e BB180000 		.4byte	0x18bb
 5803 1782 8D170000 		.4byte	0x178d
 5804 1786 12       		.uleb128 0x12
 5805 1787 01       		.uleb128 0x1
 5806 1788 50       		.byte	0x50
 5807 1789 02       		.uleb128 0x2
 5808 178a 75       		.byte	0x75
 5809 178b 00       		.sleb128 0
 5810 178c 00       		.byte	0
 5811 178d 11       		.uleb128 0x11
 5812 178e 58000000 		.4byte	.LVL337
 5813 1792 C7180000 		.4byte	0x18c7
 5814 1796 A7170000 		.4byte	0x17a7
 5815 179a 12       		.uleb128 0x12
 5816 179b 01       		.uleb128 0x1
 5817 179c 50       		.byte	0x50
 5818 179d 02       		.uleb128 0x2
 5819 179e 75       		.byte	0x75
 5820 179f 00       		.sleb128 0
 5821 17a0 12       		.uleb128 0x12
 5822 17a1 01       		.uleb128 0x1
ARM GAS  C:\Users\brian\AppData\Local\Temp\cclOaW4l.s 			page 124


 5823 17a2 51       		.byte	0x51
 5824 17a3 02       		.uleb128 0x2
 5825 17a4 74       		.byte	0x74
 5826 17a5 00       		.sleb128 0
 5827 17a6 00       		.byte	0
 5828 17a7 1E       		.uleb128 0x1e
 5829 17a8 74000000 		.4byte	.LVL339
 5830 17ac D3180000 		.4byte	0x18d3
 5831 17b0 11       		.uleb128 0x11
 5832 17b1 8A000000 		.4byte	.LVL340
 5833 17b5 BB180000 		.4byte	0x18bb
 5834 17b9 C4170000 		.4byte	0x17c4
 5835 17bd 12       		.uleb128 0x12
 5836 17be 01       		.uleb128 0x1
 5837 17bf 50       		.byte	0x50
 5838 17c0 02       		.uleb128 0x2
 5839 17c1 75       		.byte	0x75
 5840 17c2 00       		.sleb128 0
 5841 17c3 00       		.byte	0
 5842 17c4 11       		.uleb128 0x11
 5843 17c5 A0000000 		.4byte	.LVL342
 5844 17c9 BB180000 		.4byte	0x18bb
 5845 17cd D8170000 		.4byte	0x17d8
 5846 17d1 12       		.uleb128 0x12
 5847 17d2 01       		.uleb128 0x1
 5848 17d3 50       		.byte	0x50
 5849 17d4 02       		.uleb128 0x2
 5850 17d5 75       		.byte	0x75
 5851 17d6 00       		.sleb128 0
 5852 17d7 00       		.byte	0
 5853 17d8 11       		.uleb128 0x11
 5854 17d9 A8000000 		.4byte	.LVL343
 5855 17dd C7180000 		.4byte	0x18c7
 5856 17e1 F2170000 		.4byte	0x17f2
 5857 17e5 12       		.uleb128 0x12
 5858 17e6 01       		.uleb128 0x1
 5859 17e7 50       		.byte	0x50
 5860 17e8 02       		.uleb128 0x2
 5861 17e9 75       		.byte	0x75
 5862 17ea 00       		.sleb128 0
 5863 17eb 12       		.uleb128 0x12
 5864 17ec 01       		.uleb128 0x1
 5865 17ed 51       		.byte	0x51
 5866 17ee 02       		.uleb128 0x2
 5867 17ef 74       		.byte	0x74
 5868 17f0 00       		.sleb128 0
 5869 17f1 00       		.byte	0
 5870 17f2 1E       		.uleb128 0x1e
 5871 17f3 C2000000 		.4byte	.LVL345
 5872 17f7 D3180000 		.4byte	0x18d3
 5873 17fb 11       		.uleb128 0x11
 5874 17fc D8000000 		.4byte	.LVL346
 5875 1800 BB180000 		.4byte	0x18bb
 5876 1804 0F180000 		.4byte	0x180f
 5877 1808 12       		.uleb128 0x12
 5878 1809 01       		.uleb128 0x1
 5879 180a 50       		.byte	0x50
ARM GAS  C:\Users\brian\AppData\Local\Temp\cclOaW4l.s 			page 125


 5880 180b 02       		.uleb128 0x2
 5881 180c 75       		.byte	0x75
 5882 180d 00       		.sleb128 0
 5883 180e 00       		.byte	0
 5884 180f 11       		.uleb128 0x11
 5885 1810 EE000000 		.4byte	.LVL348
 5886 1814 BB180000 		.4byte	0x18bb
 5887 1818 23180000 		.4byte	0x1823
 5888 181c 12       		.uleb128 0x12
 5889 181d 01       		.uleb128 0x1
 5890 181e 50       		.byte	0x50
 5891 181f 02       		.uleb128 0x2
 5892 1820 75       		.byte	0x75
 5893 1821 00       		.sleb128 0
 5894 1822 00       		.byte	0
 5895 1823 13       		.uleb128 0x13
 5896 1824 04010000 		.4byte	.LVL351
 5897 1828 02       		.uleb128 0x2
 5898 1829 77       		.byte	0x77
 5899 182a 00       		.sleb128 0
 5900 182b 46180000 		.4byte	0x1846
 5901 182f 12       		.uleb128 0x12
 5902 1830 01       		.uleb128 0x1
 5903 1831 50       		.byte	0x50
 5904 1832 02       		.uleb128 0x2
 5905 1833 75       		.byte	0x75
 5906 1834 00       		.sleb128 0
 5907 1835 12       		.uleb128 0x12
 5908 1836 01       		.uleb128 0x1
 5909 1837 51       		.byte	0x51
 5910 1838 01       		.uleb128 0x1
 5911 1839 47       		.byte	0x47
 5912 183a 12       		.uleb128 0x12
 5913 183b 01       		.uleb128 0x1
 5914 183c 52       		.byte	0x52
 5915 183d 01       		.uleb128 0x1
 5916 183e 48       		.byte	0x48
 5917 183f 12       		.uleb128 0x12
 5918 1840 01       		.uleb128 0x1
 5919 1841 53       		.byte	0x53
 5920 1842 02       		.uleb128 0x2
 5921 1843 76       		.byte	0x76
 5922 1844 00       		.sleb128 0
 5923 1845 00       		.byte	0
 5924 1846 11       		.uleb128 0x11
 5925 1847 10010000 		.4byte	.LVL355
 5926 184b D3180000 		.4byte	0x18d3
 5927 184f 5A180000 		.4byte	0x185a
 5928 1853 12       		.uleb128 0x12
 5929 1854 01       		.uleb128 0x1
 5930 1855 50       		.byte	0x50
 5931 1856 02       		.uleb128 0x2
 5932 1857 75       		.byte	0x75
 5933 1858 00       		.sleb128 0
 5934 1859 00       		.byte	0
 5935 185a 11       		.uleb128 0x11
 5936 185b 16010000 		.4byte	.LVL356
ARM GAS  C:\Users\brian\AppData\Local\Temp\cclOaW4l.s 			page 126


 5937 185f BB180000 		.4byte	0x18bb
 5938 1863 6E180000 		.4byte	0x186e
 5939 1867 12       		.uleb128 0x12
 5940 1868 01       		.uleb128 0x1
 5941 1869 50       		.byte	0x50
 5942 186a 02       		.uleb128 0x2
 5943 186b 75       		.byte	0x75
 5944 186c 00       		.sleb128 0
 5945 186d 00       		.byte	0
 5946 186e 13       		.uleb128 0x13
 5947 186f 26010000 		.4byte	.LVL357
 5948 1873 02       		.uleb128 0x2
 5949 1874 77       		.byte	0x77
 5950 1875 00       		.sleb128 0
 5951 1876 92180000 		.4byte	0x1892
 5952 187a 12       		.uleb128 0x12
 5953 187b 01       		.uleb128 0x1
 5954 187c 50       		.byte	0x50
 5955 187d 02       		.uleb128 0x2
 5956 187e 75       		.byte	0x75
 5957 187f 00       		.sleb128 0
 5958 1880 12       		.uleb128 0x12
 5959 1881 01       		.uleb128 0x1
 5960 1882 51       		.byte	0x51
 5961 1883 01       		.uleb128 0x1
 5962 1884 47       		.byte	0x47
 5963 1885 12       		.uleb128 0x12
 5964 1886 01       		.uleb128 0x1
 5965 1887 52       		.byte	0x52
 5966 1888 02       		.uleb128 0x2
 5967 1889 74       		.byte	0x74
 5968 188a 00       		.sleb128 0
 5969 188b 12       		.uleb128 0x12
 5970 188c 01       		.uleb128 0x1
 5971 188d 53       		.byte	0x53
 5972 188e 02       		.uleb128 0x2
 5973 188f 76       		.byte	0x76
 5974 1890 00       		.sleb128 0
 5975 1891 00       		.byte	0
 5976 1892 13       		.uleb128 0x13
 5977 1893 42010000 		.4byte	.LVL360
 5978 1897 02       		.uleb128 0x2
 5979 1898 77       		.byte	0x77
 5980 1899 00       		.sleb128 0
 5981 189a B1180000 		.4byte	0x18b1
 5982 189e 12       		.uleb128 0x12
 5983 189f 01       		.uleb128 0x1
 5984 18a0 50       		.byte	0x50
 5985 18a1 02       		.uleb128 0x2
 5986 18a2 75       		.byte	0x75
 5987 18a3 00       		.sleb128 0
 5988 18a4 12       		.uleb128 0x12
 5989 18a5 01       		.uleb128 0x1
 5990 18a6 52       		.byte	0x52
 5991 18a7 02       		.uleb128 0x2
 5992 18a8 74       		.byte	0x74
 5993 18a9 00       		.sleb128 0
ARM GAS  C:\Users\brian\AppData\Local\Temp\cclOaW4l.s 			page 127


 5994 18aa 12       		.uleb128 0x12
 5995 18ab 01       		.uleb128 0x1
 5996 18ac 53       		.byte	0x53
 5997 18ad 02       		.uleb128 0x2
 5998 18ae 76       		.byte	0x76
 5999 18af 00       		.sleb128 0
 6000 18b0 00       		.byte	0
 6001 18b1 1E       		.uleb128 0x1e
 6002 18b2 58010000 		.4byte	.LVL364
 6003 18b6 D3180000 		.4byte	0x18d3
 6004 18ba 00       		.byte	0
 6005 18bb 28       		.uleb128 0x28
 6006 18bc 77050000 		.4byte	.LASF93
 6007 18c0 77050000 		.4byte	.LASF93
 6008 18c4 05       		.byte	0x5
 6009 18c5 AC02     		.2byte	0x2ac
 6010 18c7 28       		.uleb128 0x28
 6011 18c8 62000000 		.4byte	.LASF94
 6012 18cc 62000000 		.4byte	.LASF94
 6013 18d0 05       		.byte	0x5
 6014 18d1 AA02     		.2byte	0x2aa
 6015 18d3 28       		.uleb128 0x28
 6016 18d4 9B030000 		.4byte	.LASF95
 6017 18d8 9B030000 		.4byte	.LASF95
 6018 18dc 05       		.byte	0x5
 6019 18dd AD02     		.2byte	0x2ad
 6020 18df 28       		.uleb128 0x28
 6021 18e0 00010000 		.4byte	.LASF96
 6022 18e4 00010000 		.4byte	.LASF96
 6023 18e8 05       		.byte	0x5
 6024 18e9 0903     		.2byte	0x309
 6025 18eb 28       		.uleb128 0x28
 6026 18ec 1A010000 		.4byte	.LASF97
 6027 18f0 1A010000 		.4byte	.LASF97
 6028 18f4 05       		.byte	0x5
 6029 18f5 A902     		.2byte	0x2a9
 6030 18f7 28       		.uleb128 0x28
 6031 18f8 B6020000 		.4byte	.LASF98
 6032 18fc B6020000 		.4byte	.LASF98
 6033 1900 05       		.byte	0x5
 6034 1901 AB02     		.2byte	0x2ab
 6035 1903 00       		.byte	0
 6036              		.section	.debug_abbrev,"",%progbits
 6037              	.Ldebug_abbrev0:
 6038 0000 01       		.uleb128 0x1
 6039 0001 11       		.uleb128 0x11
 6040 0002 01       		.byte	0x1
 6041 0003 25       		.uleb128 0x25
 6042 0004 0E       		.uleb128 0xe
 6043 0005 13       		.uleb128 0x13
 6044 0006 0B       		.uleb128 0xb
 6045 0007 03       		.uleb128 0x3
 6046 0008 0E       		.uleb128 0xe
 6047 0009 1B       		.uleb128 0x1b
 6048 000a 0E       		.uleb128 0xe
 6049 000b 55       		.uleb128 0x55
 6050 000c 17       		.uleb128 0x17
ARM GAS  C:\Users\brian\AppData\Local\Temp\cclOaW4l.s 			page 128


 6051 000d 11       		.uleb128 0x11
 6052 000e 01       		.uleb128 0x1
 6053 000f 10       		.uleb128 0x10
 6054 0010 17       		.uleb128 0x17
 6055 0011 00       		.byte	0
 6056 0012 00       		.byte	0
 6057 0013 02       		.uleb128 0x2
 6058 0014 24       		.uleb128 0x24
 6059 0015 00       		.byte	0
 6060 0016 0B       		.uleb128 0xb
 6061 0017 0B       		.uleb128 0xb
 6062 0018 3E       		.uleb128 0x3e
 6063 0019 0B       		.uleb128 0xb
 6064 001a 03       		.uleb128 0x3
 6065 001b 0E       		.uleb128 0xe
 6066 001c 00       		.byte	0
 6067 001d 00       		.byte	0
 6068 001e 03       		.uleb128 0x3
 6069 001f 16       		.uleb128 0x16
 6070 0020 00       		.byte	0
 6071 0021 03       		.uleb128 0x3
 6072 0022 0E       		.uleb128 0xe
 6073 0023 3A       		.uleb128 0x3a
 6074 0024 0B       		.uleb128 0xb
 6075 0025 3B       		.uleb128 0x3b
 6076 0026 0B       		.uleb128 0xb
 6077 0027 49       		.uleb128 0x49
 6078 0028 13       		.uleb128 0x13
 6079 0029 00       		.byte	0
 6080 002a 00       		.byte	0
 6081 002b 04       		.uleb128 0x4
 6082 002c 24       		.uleb128 0x24
 6083 002d 00       		.byte	0
 6084 002e 0B       		.uleb128 0xb
 6085 002f 0B       		.uleb128 0xb
 6086 0030 3E       		.uleb128 0x3e
 6087 0031 0B       		.uleb128 0xb
 6088 0032 03       		.uleb128 0x3
 6089 0033 08       		.uleb128 0x8
 6090 0034 00       		.byte	0
 6091 0035 00       		.byte	0
 6092 0036 05       		.uleb128 0x5
 6093 0037 13       		.uleb128 0x13
 6094 0038 01       		.byte	0x1
 6095 0039 03       		.uleb128 0x3
 6096 003a 0E       		.uleb128 0xe
 6097 003b 0B       		.uleb128 0xb
 6098 003c 0B       		.uleb128 0xb
 6099 003d 3A       		.uleb128 0x3a
 6100 003e 0B       		.uleb128 0xb
 6101 003f 3B       		.uleb128 0x3b
 6102 0040 0B       		.uleb128 0xb
 6103 0041 01       		.uleb128 0x1
 6104 0042 13       		.uleb128 0x13
 6105 0043 00       		.byte	0
 6106 0044 00       		.byte	0
 6107 0045 06       		.uleb128 0x6
ARM GAS  C:\Users\brian\AppData\Local\Temp\cclOaW4l.s 			page 129


 6108 0046 0D       		.uleb128 0xd
 6109 0047 00       		.byte	0
 6110 0048 03       		.uleb128 0x3
 6111 0049 0E       		.uleb128 0xe
 6112 004a 49       		.uleb128 0x49
 6113 004b 13       		.uleb128 0x13
 6114 004c 38       		.uleb128 0x38
 6115 004d 0B       		.uleb128 0xb
 6116 004e 34       		.uleb128 0x34
 6117 004f 19       		.uleb128 0x19
 6118 0050 00       		.byte	0
 6119 0051 00       		.byte	0
 6120 0052 07       		.uleb128 0x7
 6121 0053 0F       		.uleb128 0xf
 6122 0054 00       		.byte	0
 6123 0055 0B       		.uleb128 0xb
 6124 0056 0B       		.uleb128 0xb
 6125 0057 00       		.byte	0
 6126 0058 00       		.byte	0
 6127 0059 08       		.uleb128 0x8
 6128 005a 13       		.uleb128 0x13
 6129 005b 01       		.byte	0x1
 6130 005c 03       		.uleb128 0x3
 6131 005d 0E       		.uleb128 0xe
 6132 005e 0B       		.uleb128 0xb
 6133 005f 0B       		.uleb128 0xb
 6134 0060 3A       		.uleb128 0x3a
 6135 0061 0B       		.uleb128 0xb
 6136 0062 3B       		.uleb128 0x3b
 6137 0063 05       		.uleb128 0x5
 6138 0064 01       		.uleb128 0x1
 6139 0065 13       		.uleb128 0x13
 6140 0066 00       		.byte	0
 6141 0067 00       		.byte	0
 6142 0068 09       		.uleb128 0x9
 6143 0069 0D       		.uleb128 0xd
 6144 006a 00       		.byte	0
 6145 006b 03       		.uleb128 0x3
 6146 006c 0E       		.uleb128 0xe
 6147 006d 3A       		.uleb128 0x3a
 6148 006e 0B       		.uleb128 0xb
 6149 006f 3B       		.uleb128 0x3b
 6150 0070 05       		.uleb128 0x5
 6151 0071 49       		.uleb128 0x49
 6152 0072 13       		.uleb128 0x13
 6153 0073 38       		.uleb128 0x38
 6154 0074 0B       		.uleb128 0xb
 6155 0075 00       		.byte	0
 6156 0076 00       		.byte	0
 6157 0077 0A       		.uleb128 0xa
 6158 0078 0D       		.uleb128 0xd
 6159 0079 00       		.byte	0
 6160 007a 03       		.uleb128 0x3
 6161 007b 0E       		.uleb128 0xe
 6162 007c 3A       		.uleb128 0x3a
 6163 007d 0B       		.uleb128 0xb
 6164 007e 3B       		.uleb128 0x3b
ARM GAS  C:\Users\brian\AppData\Local\Temp\cclOaW4l.s 			page 130


 6165 007f 0B       		.uleb128 0xb
 6166 0080 49       		.uleb128 0x49
 6167 0081 13       		.uleb128 0x13
 6168 0082 38       		.uleb128 0x38
 6169 0083 0B       		.uleb128 0xb
 6170 0084 00       		.byte	0
 6171 0085 00       		.byte	0
 6172 0086 0B       		.uleb128 0xb
 6173 0087 0F       		.uleb128 0xf
 6174 0088 00       		.byte	0
 6175 0089 0B       		.uleb128 0xb
 6176 008a 0B       		.uleb128 0xb
 6177 008b 49       		.uleb128 0x49
 6178 008c 13       		.uleb128 0x13
 6179 008d 00       		.byte	0
 6180 008e 00       		.byte	0
 6181 008f 0C       		.uleb128 0xc
 6182 0090 15       		.uleb128 0x15
 6183 0091 01       		.byte	0x1
 6184 0092 27       		.uleb128 0x27
 6185 0093 19       		.uleb128 0x19
 6186 0094 49       		.uleb128 0x49
 6187 0095 13       		.uleb128 0x13
 6188 0096 01       		.uleb128 0x1
 6189 0097 13       		.uleb128 0x13
 6190 0098 00       		.byte	0
 6191 0099 00       		.byte	0
 6192 009a 0D       		.uleb128 0xd
 6193 009b 05       		.uleb128 0x5
 6194 009c 00       		.byte	0
 6195 009d 49       		.uleb128 0x49
 6196 009e 13       		.uleb128 0x13
 6197 009f 00       		.byte	0
 6198 00a0 00       		.byte	0
 6199 00a1 0E       		.uleb128 0xe
 6200 00a2 26       		.uleb128 0x26
 6201 00a3 00       		.byte	0
 6202 00a4 49       		.uleb128 0x49
 6203 00a5 13       		.uleb128 0x13
 6204 00a6 00       		.byte	0
 6205 00a7 00       		.byte	0
 6206 00a8 0F       		.uleb128 0xf
 6207 00a9 2E       		.uleb128 0x2e
 6208 00aa 01       		.byte	0x1
 6209 00ab 03       		.uleb128 0x3
 6210 00ac 0E       		.uleb128 0xe
 6211 00ad 3A       		.uleb128 0x3a
 6212 00ae 0B       		.uleb128 0xb
 6213 00af 3B       		.uleb128 0x3b
 6214 00b0 05       		.uleb128 0x5
 6215 00b1 27       		.uleb128 0x27
 6216 00b2 19       		.uleb128 0x19
 6217 00b3 11       		.uleb128 0x11
 6218 00b4 01       		.uleb128 0x1
 6219 00b5 12       		.uleb128 0x12
 6220 00b6 06       		.uleb128 0x6
 6221 00b7 40       		.uleb128 0x40
ARM GAS  C:\Users\brian\AppData\Local\Temp\cclOaW4l.s 			page 131


 6222 00b8 18       		.uleb128 0x18
 6223 00b9 9742     		.uleb128 0x2117
 6224 00bb 19       		.uleb128 0x19
 6225 00bc 01       		.uleb128 0x1
 6226 00bd 13       		.uleb128 0x13
 6227 00be 00       		.byte	0
 6228 00bf 00       		.byte	0
 6229 00c0 10       		.uleb128 0x10
 6230 00c1 05       		.uleb128 0x5
 6231 00c2 00       		.byte	0
 6232 00c3 03       		.uleb128 0x3
 6233 00c4 0E       		.uleb128 0xe
 6234 00c5 3A       		.uleb128 0x3a
 6235 00c6 0B       		.uleb128 0xb
 6236 00c7 3B       		.uleb128 0x3b
 6237 00c8 05       		.uleb128 0x5
 6238 00c9 49       		.uleb128 0x49
 6239 00ca 13       		.uleb128 0x13
 6240 00cb 02       		.uleb128 0x2
 6241 00cc 17       		.uleb128 0x17
 6242 00cd 00       		.byte	0
 6243 00ce 00       		.byte	0
 6244 00cf 11       		.uleb128 0x11
 6245 00d0 898201   		.uleb128 0x4109
 6246 00d3 01       		.byte	0x1
 6247 00d4 11       		.uleb128 0x11
 6248 00d5 01       		.uleb128 0x1
 6249 00d6 31       		.uleb128 0x31
 6250 00d7 13       		.uleb128 0x13
 6251 00d8 01       		.uleb128 0x1
 6252 00d9 13       		.uleb128 0x13
 6253 00da 00       		.byte	0
 6254 00db 00       		.byte	0
 6255 00dc 12       		.uleb128 0x12
 6256 00dd 8A8201   		.uleb128 0x410a
 6257 00e0 00       		.byte	0
 6258 00e1 02       		.uleb128 0x2
 6259 00e2 18       		.uleb128 0x18
 6260 00e3 9142     		.uleb128 0x2111
 6261 00e5 18       		.uleb128 0x18
 6262 00e6 00       		.byte	0
 6263 00e7 00       		.byte	0
 6264 00e8 13       		.uleb128 0x13
 6265 00e9 898201   		.uleb128 0x4109
 6266 00ec 01       		.byte	0x1
 6267 00ed 11       		.uleb128 0x11
 6268 00ee 01       		.uleb128 0x1
 6269 00ef 9342     		.uleb128 0x2113
 6270 00f1 18       		.uleb128 0x18
 6271 00f2 01       		.uleb128 0x1
 6272 00f3 13       		.uleb128 0x13
 6273 00f4 00       		.byte	0
 6274 00f5 00       		.byte	0
 6275 00f6 14       		.uleb128 0x14
 6276 00f7 898201   		.uleb128 0x4109
 6277 00fa 01       		.byte	0x1
 6278 00fb 11       		.uleb128 0x11
ARM GAS  C:\Users\brian\AppData\Local\Temp\cclOaW4l.s 			page 132


 6279 00fc 01       		.uleb128 0x1
 6280 00fd 31       		.uleb128 0x31
 6281 00fe 13       		.uleb128 0x13
 6282 00ff 00       		.byte	0
 6283 0100 00       		.byte	0
 6284 0101 15       		.uleb128 0x15
 6285 0102 2E       		.uleb128 0x2e
 6286 0103 01       		.byte	0x1
 6287 0104 3F       		.uleb128 0x3f
 6288 0105 19       		.uleb128 0x19
 6289 0106 03       		.uleb128 0x3
 6290 0107 0E       		.uleb128 0xe
 6291 0108 3A       		.uleb128 0x3a
 6292 0109 0B       		.uleb128 0xb
 6293 010a 3B       		.uleb128 0x3b
 6294 010b 0B       		.uleb128 0xb
 6295 010c 27       		.uleb128 0x27
 6296 010d 19       		.uleb128 0x19
 6297 010e 49       		.uleb128 0x49
 6298 010f 13       		.uleb128 0x13
 6299 0110 11       		.uleb128 0x11
 6300 0111 01       		.uleb128 0x1
 6301 0112 12       		.uleb128 0x12
 6302 0113 06       		.uleb128 0x6
 6303 0114 40       		.uleb128 0x40
 6304 0115 18       		.uleb128 0x18
 6305 0116 9742     		.uleb128 0x2117
 6306 0118 19       		.uleb128 0x19
 6307 0119 01       		.uleb128 0x1
 6308 011a 13       		.uleb128 0x13
 6309 011b 00       		.byte	0
 6310 011c 00       		.byte	0
 6311 011d 16       		.uleb128 0x16
 6312 011e 05       		.uleb128 0x5
 6313 011f 00       		.byte	0
 6314 0120 03       		.uleb128 0x3
 6315 0121 0E       		.uleb128 0xe
 6316 0122 3A       		.uleb128 0x3a
 6317 0123 0B       		.uleb128 0xb
 6318 0124 3B       		.uleb128 0x3b
 6319 0125 0B       		.uleb128 0xb
 6320 0126 49       		.uleb128 0x49
 6321 0127 13       		.uleb128 0x13
 6322 0128 02       		.uleb128 0x2
 6323 0129 17       		.uleb128 0x17
 6324 012a 00       		.byte	0
 6325 012b 00       		.byte	0
 6326 012c 17       		.uleb128 0x17
 6327 012d 05       		.uleb128 0x5
 6328 012e 00       		.byte	0
 6329 012f 03       		.uleb128 0x3
 6330 0130 08       		.uleb128 0x8
 6331 0131 3A       		.uleb128 0x3a
 6332 0132 0B       		.uleb128 0xb
 6333 0133 3B       		.uleb128 0x3b
 6334 0134 0B       		.uleb128 0xb
 6335 0135 49       		.uleb128 0x49
ARM GAS  C:\Users\brian\AppData\Local\Temp\cclOaW4l.s 			page 133


 6336 0136 13       		.uleb128 0x13
 6337 0137 02       		.uleb128 0x2
 6338 0138 17       		.uleb128 0x17
 6339 0139 00       		.byte	0
 6340 013a 00       		.byte	0
 6341 013b 18       		.uleb128 0x18
 6342 013c 898201   		.uleb128 0x4109
 6343 013f 01       		.byte	0x1
 6344 0140 11       		.uleb128 0x11
 6345 0141 01       		.uleb128 0x1
 6346 0142 9342     		.uleb128 0x2113
 6347 0144 18       		.uleb128 0x18
 6348 0145 00       		.byte	0
 6349 0146 00       		.byte	0
 6350 0147 19       		.uleb128 0x19
 6351 0148 2E       		.uleb128 0x2e
 6352 0149 01       		.byte	0x1
 6353 014a 3F       		.uleb128 0x3f
 6354 014b 19       		.uleb128 0x19
 6355 014c 03       		.uleb128 0x3
 6356 014d 0E       		.uleb128 0xe
 6357 014e 3A       		.uleb128 0x3a
 6358 014f 0B       		.uleb128 0xb
 6359 0150 3B       		.uleb128 0x3b
 6360 0151 0B       		.uleb128 0xb
 6361 0152 27       		.uleb128 0x27
 6362 0153 19       		.uleb128 0x19
 6363 0154 11       		.uleb128 0x11
 6364 0155 01       		.uleb128 0x1
 6365 0156 12       		.uleb128 0x12
 6366 0157 06       		.uleb128 0x6
 6367 0158 40       		.uleb128 0x40
 6368 0159 18       		.uleb128 0x18
 6369 015a 9742     		.uleb128 0x2117
 6370 015c 19       		.uleb128 0x19
 6371 015d 01       		.uleb128 0x1
 6372 015e 13       		.uleb128 0x13
 6373 015f 00       		.byte	0
 6374 0160 00       		.byte	0
 6375 0161 1A       		.uleb128 0x1a
 6376 0162 34       		.uleb128 0x34
 6377 0163 00       		.byte	0
 6378 0164 03       		.uleb128 0x3
 6379 0165 08       		.uleb128 0x8
 6380 0166 3A       		.uleb128 0x3a
 6381 0167 0B       		.uleb128 0xb
 6382 0168 3B       		.uleb128 0x3b
 6383 0169 0B       		.uleb128 0xb
 6384 016a 49       		.uleb128 0x49
 6385 016b 13       		.uleb128 0x13
 6386 016c 02       		.uleb128 0x2
 6387 016d 18       		.uleb128 0x18
 6388 016e 00       		.byte	0
 6389 016f 00       		.byte	0
 6390 0170 1B       		.uleb128 0x1b
 6391 0171 05       		.uleb128 0x5
 6392 0172 00       		.byte	0
ARM GAS  C:\Users\brian\AppData\Local\Temp\cclOaW4l.s 			page 134


 6393 0173 03       		.uleb128 0x3
 6394 0174 08       		.uleb128 0x8
 6395 0175 3A       		.uleb128 0x3a
 6396 0176 0B       		.uleb128 0xb
 6397 0177 3B       		.uleb128 0x3b
 6398 0178 0B       		.uleb128 0xb
 6399 0179 49       		.uleb128 0x49
 6400 017a 13       		.uleb128 0x13
 6401 017b 02       		.uleb128 0x2
 6402 017c 18       		.uleb128 0x18
 6403 017d 00       		.byte	0
 6404 017e 00       		.byte	0
 6405 017f 1C       		.uleb128 0x1c
 6406 0180 18       		.uleb128 0x18
 6407 0181 00       		.byte	0
 6408 0182 00       		.byte	0
 6409 0183 00       		.byte	0
 6410 0184 1D       		.uleb128 0x1d
 6411 0185 34       		.uleb128 0x34
 6412 0186 00       		.byte	0
 6413 0187 03       		.uleb128 0x3
 6414 0188 08       		.uleb128 0x8
 6415 0189 3A       		.uleb128 0x3a
 6416 018a 0B       		.uleb128 0xb
 6417 018b 3B       		.uleb128 0x3b
 6418 018c 0B       		.uleb128 0xb
 6419 018d 49       		.uleb128 0x49
 6420 018e 13       		.uleb128 0x13
 6421 018f 02       		.uleb128 0x2
 6422 0190 17       		.uleb128 0x17
 6423 0191 00       		.byte	0
 6424 0192 00       		.byte	0
 6425 0193 1E       		.uleb128 0x1e
 6426 0194 898201   		.uleb128 0x4109
 6427 0197 00       		.byte	0
 6428 0198 11       		.uleb128 0x11
 6429 0199 01       		.uleb128 0x1
 6430 019a 31       		.uleb128 0x31
 6431 019b 13       		.uleb128 0x13
 6432 019c 00       		.byte	0
 6433 019d 00       		.byte	0
 6434 019e 1F       		.uleb128 0x1f
 6435 019f 2E       		.uleb128 0x2e
 6436 01a0 01       		.byte	0x1
 6437 01a1 3F       		.uleb128 0x3f
 6438 01a2 19       		.uleb128 0x19
 6439 01a3 03       		.uleb128 0x3
 6440 01a4 0E       		.uleb128 0xe
 6441 01a5 3A       		.uleb128 0x3a
 6442 01a6 0B       		.uleb128 0xb
 6443 01a7 3B       		.uleb128 0x3b
 6444 01a8 05       		.uleb128 0x5
 6445 01a9 27       		.uleb128 0x27
 6446 01aa 19       		.uleb128 0x19
 6447 01ab 49       		.uleb128 0x49
 6448 01ac 13       		.uleb128 0x13
 6449 01ad 11       		.uleb128 0x11
ARM GAS  C:\Users\brian\AppData\Local\Temp\cclOaW4l.s 			page 135


 6450 01ae 01       		.uleb128 0x1
 6451 01af 12       		.uleb128 0x12
 6452 01b0 06       		.uleb128 0x6
 6453 01b1 40       		.uleb128 0x40
 6454 01b2 18       		.uleb128 0x18
 6455 01b3 9742     		.uleb128 0x2117
 6456 01b5 19       		.uleb128 0x19
 6457 01b6 01       		.uleb128 0x1
 6458 01b7 13       		.uleb128 0x13
 6459 01b8 00       		.byte	0
 6460 01b9 00       		.byte	0
 6461 01ba 20       		.uleb128 0x20
 6462 01bb 05       		.uleb128 0x5
 6463 01bc 00       		.byte	0
 6464 01bd 03       		.uleb128 0x3
 6465 01be 08       		.uleb128 0x8
 6466 01bf 3A       		.uleb128 0x3a
 6467 01c0 0B       		.uleb128 0xb
 6468 01c1 3B       		.uleb128 0x3b
 6469 01c2 05       		.uleb128 0x5
 6470 01c3 49       		.uleb128 0x49
 6471 01c4 13       		.uleb128 0x13
 6472 01c5 02       		.uleb128 0x2
 6473 01c6 17       		.uleb128 0x17
 6474 01c7 00       		.byte	0
 6475 01c8 00       		.byte	0
 6476 01c9 21       		.uleb128 0x21
 6477 01ca 34       		.uleb128 0x34
 6478 01cb 00       		.byte	0
 6479 01cc 03       		.uleb128 0x3
 6480 01cd 0E       		.uleb128 0xe
 6481 01ce 3A       		.uleb128 0x3a
 6482 01cf 0B       		.uleb128 0xb
 6483 01d0 3B       		.uleb128 0x3b
 6484 01d1 05       		.uleb128 0x5
 6485 01d2 49       		.uleb128 0x49
 6486 01d3 13       		.uleb128 0x13
 6487 01d4 02       		.uleb128 0x2
 6488 01d5 17       		.uleb128 0x17
 6489 01d6 00       		.byte	0
 6490 01d7 00       		.byte	0
 6491 01d8 22       		.uleb128 0x22
 6492 01d9 34       		.uleb128 0x34
 6493 01da 00       		.byte	0
 6494 01db 03       		.uleb128 0x3
 6495 01dc 08       		.uleb128 0x8
 6496 01dd 3A       		.uleb128 0x3a
 6497 01de 0B       		.uleb128 0xb
 6498 01df 3B       		.uleb128 0x3b
 6499 01e0 05       		.uleb128 0x5
 6500 01e1 49       		.uleb128 0x49
 6501 01e2 13       		.uleb128 0x13
 6502 01e3 02       		.uleb128 0x2
 6503 01e4 17       		.uleb128 0x17
 6504 01e5 00       		.byte	0
 6505 01e6 00       		.byte	0
 6506 01e7 23       		.uleb128 0x23
ARM GAS  C:\Users\brian\AppData\Local\Temp\cclOaW4l.s 			page 136


 6507 01e8 34       		.uleb128 0x34
 6508 01e9 00       		.byte	0
 6509 01ea 03       		.uleb128 0x3
 6510 01eb 08       		.uleb128 0x8
 6511 01ec 3A       		.uleb128 0x3a
 6512 01ed 0B       		.uleb128 0xb
 6513 01ee 3B       		.uleb128 0x3b
 6514 01ef 05       		.uleb128 0x5
 6515 01f0 49       		.uleb128 0x49
 6516 01f1 13       		.uleb128 0x13
 6517 01f2 02       		.uleb128 0x2
 6518 01f3 18       		.uleb128 0x18
 6519 01f4 00       		.byte	0
 6520 01f5 00       		.byte	0
 6521 01f6 24       		.uleb128 0x24
 6522 01f7 01       		.uleb128 0x1
 6523 01f8 01       		.byte	0x1
 6524 01f9 49       		.uleb128 0x49
 6525 01fa 13       		.uleb128 0x13
 6526 01fb 01       		.uleb128 0x1
 6527 01fc 13       		.uleb128 0x13
 6528 01fd 00       		.byte	0
 6529 01fe 00       		.byte	0
 6530 01ff 25       		.uleb128 0x25
 6531 0200 21       		.uleb128 0x21
 6532 0201 00       		.byte	0
 6533 0202 49       		.uleb128 0x49
 6534 0203 13       		.uleb128 0x13
 6535 0204 2F       		.uleb128 0x2f
 6536 0205 0B       		.uleb128 0xb
 6537 0206 00       		.byte	0
 6538 0207 00       		.byte	0
 6539 0208 26       		.uleb128 0x26
 6540 0209 34       		.uleb128 0x34
 6541 020a 00       		.byte	0
 6542 020b 03       		.uleb128 0x3
 6543 020c 0E       		.uleb128 0xe
 6544 020d 3A       		.uleb128 0x3a
 6545 020e 0B       		.uleb128 0xb
 6546 020f 3B       		.uleb128 0x3b
 6547 0210 05       		.uleb128 0x5
 6548 0211 49       		.uleb128 0x49
 6549 0212 13       		.uleb128 0x13
 6550 0213 02       		.uleb128 0x2
 6551 0214 18       		.uleb128 0x18
 6552 0215 00       		.byte	0
 6553 0216 00       		.byte	0
 6554 0217 27       		.uleb128 0x27
 6555 0218 34       		.uleb128 0x34
 6556 0219 00       		.byte	0
 6557 021a 03       		.uleb128 0x3
 6558 021b 0E       		.uleb128 0xe
 6559 021c 3A       		.uleb128 0x3a
 6560 021d 0B       		.uleb128 0xb
 6561 021e 3B       		.uleb128 0x3b
 6562 021f 05       		.uleb128 0x5
 6563 0220 49       		.uleb128 0x49
ARM GAS  C:\Users\brian\AppData\Local\Temp\cclOaW4l.s 			page 137


 6564 0221 13       		.uleb128 0x13
 6565 0222 1C       		.uleb128 0x1c
 6566 0223 0B       		.uleb128 0xb
 6567 0224 00       		.byte	0
 6568 0225 00       		.byte	0
 6569 0226 28       		.uleb128 0x28
 6570 0227 2E       		.uleb128 0x2e
 6571 0228 00       		.byte	0
 6572 0229 3F       		.uleb128 0x3f
 6573 022a 19       		.uleb128 0x19
 6574 022b 3C       		.uleb128 0x3c
 6575 022c 19       		.uleb128 0x19
 6576 022d 6E       		.uleb128 0x6e
 6577 022e 0E       		.uleb128 0xe
 6578 022f 03       		.uleb128 0x3
 6579 0230 0E       		.uleb128 0xe
 6580 0231 3A       		.uleb128 0x3a
 6581 0232 0B       		.uleb128 0xb
 6582 0233 3B       		.uleb128 0x3b
 6583 0234 05       		.uleb128 0x5
 6584 0235 00       		.byte	0
 6585 0236 00       		.byte	0
 6586 0237 00       		.byte	0
 6587              		.section	.debug_loc,"",%progbits
 6588              	.Ldebug_loc0:
 6589              	.LLST0:
 6590 0000 00000000 		.4byte	.LVL0
 6591 0004 0B000000 		.4byte	.LVL1-1
 6592 0008 0100     		.2byte	0x1
 6593 000a 50       		.byte	0x50
 6594 000b 0B000000 		.4byte	.LVL1-1
 6595 000f 28000000 		.4byte	.LFE16
 6596 0013 0100     		.2byte	0x1
 6597 0015 54       		.byte	0x54
 6598 0016 00000000 		.4byte	0
 6599 001a 00000000 		.4byte	0
 6600              	.LLST1:
 6601 001e 00000000 		.4byte	.LVL0
 6602 0022 0B000000 		.4byte	.LVL1-1
 6603 0026 0100     		.2byte	0x1
 6604 0028 51       		.byte	0x51
 6605 0029 0B000000 		.4byte	.LVL1-1
 6606 002d 28000000 		.4byte	.LFE16
 6607 0031 0400     		.2byte	0x4
 6608 0033 F3       		.byte	0xf3
 6609 0034 01       		.uleb128 0x1
 6610 0035 51       		.byte	0x51
 6611 0036 9F       		.byte	0x9f
 6612 0037 00000000 		.4byte	0
 6613 003b 00000000 		.4byte	0
 6614              	.LLST2:
 6615 003f 00000000 		.4byte	.LVL0
 6616 0043 0B000000 		.4byte	.LVL1-1
 6617 0047 0100     		.2byte	0x1
 6618 0049 52       		.byte	0x52
 6619 004a 0B000000 		.4byte	.LVL1-1
 6620 004e 28000000 		.4byte	.LFE16
ARM GAS  C:\Users\brian\AppData\Local\Temp\cclOaW4l.s 			page 138


 6621 0052 0100     		.2byte	0x1
 6622 0054 57       		.byte	0x57
 6623 0055 00000000 		.4byte	0
 6624 0059 00000000 		.4byte	0
 6625              	.LLST3:
 6626 005d 00000000 		.4byte	.LVL5
 6627 0061 0B000000 		.4byte	.LVL7-1
 6628 0065 0100     		.2byte	0x1
 6629 0067 50       		.byte	0x50
 6630 0068 0B000000 		.4byte	.LVL7-1
 6631 006c 0E000000 		.4byte	.LFE0
 6632 0070 0400     		.2byte	0x4
 6633 0072 F3       		.byte	0xf3
 6634 0073 01       		.uleb128 0x1
 6635 0074 50       		.byte	0x50
 6636 0075 9F       		.byte	0x9f
 6637 0076 00000000 		.4byte	0
 6638 007a 00000000 		.4byte	0
 6639              	.LLST4:
 6640 007e 00000000 		.4byte	.LVL5
 6641 0082 0A000000 		.4byte	.LVL6
 6642 0086 0100     		.2byte	0x1
 6643 0088 51       		.byte	0x51
 6644 0089 0A000000 		.4byte	.LVL6
 6645 008d 0E000000 		.4byte	.LFE0
 6646 0091 0400     		.2byte	0x4
 6647 0093 F3       		.byte	0xf3
 6648 0094 01       		.uleb128 0x1
 6649 0095 51       		.byte	0x51
 6650 0096 9F       		.byte	0x9f
 6651 0097 00000000 		.4byte	0
 6652 009b 00000000 		.4byte	0
 6653              	.LLST5:
 6654 009f 00000000 		.4byte	.LVL8
 6655 00a3 0B000000 		.4byte	.LVL10-1
 6656 00a7 0100     		.2byte	0x1
 6657 00a9 50       		.byte	0x50
 6658 00aa 0B000000 		.4byte	.LVL10-1
 6659 00ae 0E000000 		.4byte	.LFE1
 6660 00b2 0400     		.2byte	0x4
 6661 00b4 F3       		.byte	0xf3
 6662 00b5 01       		.uleb128 0x1
 6663 00b6 50       		.byte	0x50
 6664 00b7 9F       		.byte	0x9f
 6665 00b8 00000000 		.4byte	0
 6666 00bc 00000000 		.4byte	0
 6667              	.LLST6:
 6668 00c0 00000000 		.4byte	.LVL8
 6669 00c4 0A000000 		.4byte	.LVL9
 6670 00c8 0100     		.2byte	0x1
 6671 00ca 51       		.byte	0x51
 6672 00cb 0A000000 		.4byte	.LVL9
 6673 00cf 0E000000 		.4byte	.LFE1
 6674 00d3 0400     		.2byte	0x4
 6675 00d5 F3       		.byte	0xf3
 6676 00d6 01       		.uleb128 0x1
 6677 00d7 51       		.byte	0x51
ARM GAS  C:\Users\brian\AppData\Local\Temp\cclOaW4l.s 			page 139


 6678 00d8 9F       		.byte	0x9f
 6679 00d9 00000000 		.4byte	0
 6680 00dd 00000000 		.4byte	0
 6681              	.LLST7:
 6682 00e1 00000000 		.4byte	.LVL11
 6683 00e5 0A000000 		.4byte	.LVL12
 6684 00e9 0100     		.2byte	0x1
 6685 00eb 50       		.byte	0x50
 6686 00ec 0A000000 		.4byte	.LVL12
 6687 00f0 22000000 		.4byte	.LFE2
 6688 00f4 0100     		.2byte	0x1
 6689 00f6 55       		.byte	0x55
 6690 00f7 00000000 		.4byte	0
 6691 00fb 00000000 		.4byte	0
 6692              	.LLST8:
 6693 00ff 00000000 		.4byte	.LVL11
 6694 0103 0A000000 		.4byte	.LVL12
 6695 0107 0100     		.2byte	0x1
 6696 0109 51       		.byte	0x51
 6697 010a 0A000000 		.4byte	.LVL12
 6698 010e 18000000 		.4byte	.LVL14
 6699 0112 0100     		.2byte	0x1
 6700 0114 54       		.byte	0x54
 6701 0115 1A000000 		.4byte	.LVL15
 6702 0119 22000000 		.4byte	.LFE2
 6703 011d 0100     		.2byte	0x1
 6704 011f 54       		.byte	0x54
 6705 0120 00000000 		.4byte	0
 6706 0124 00000000 		.4byte	0
 6707              	.LLST9:
 6708 0128 00000000 		.4byte	.LVL11
 6709 012c 0A000000 		.4byte	.LVL12
 6710 0130 0100     		.2byte	0x1
 6711 0132 52       		.byte	0x52
 6712 0133 0A000000 		.4byte	.LVL12
 6713 0137 22000000 		.4byte	.LFE2
 6714 013b 0400     		.2byte	0x4
 6715 013d F3       		.byte	0xf3
 6716 013e 01       		.uleb128 0x1
 6717 013f 52       		.byte	0x52
 6718 0140 9F       		.byte	0x9f
 6719 0141 00000000 		.4byte	0
 6720 0145 00000000 		.4byte	0
 6721              	.LLST10:
 6722 0149 00000000 		.4byte	.LVL16
 6723 014d 0B000000 		.4byte	.LVL19-1
 6724 0151 0100     		.2byte	0x1
 6725 0153 50       		.byte	0x50
 6726 0154 0B000000 		.4byte	.LVL19-1
 6727 0158 0E000000 		.4byte	.LFE3
 6728 015c 0400     		.2byte	0x4
 6729 015e F3       		.byte	0xf3
 6730 015f 01       		.uleb128 0x1
 6731 0160 50       		.byte	0x50
 6732 0161 9F       		.byte	0x9f
 6733 0162 00000000 		.4byte	0
 6734 0166 00000000 		.4byte	0
ARM GAS  C:\Users\brian\AppData\Local\Temp\cclOaW4l.s 			page 140


 6735              	.LLST11:
 6736 016a 00000000 		.4byte	.LVL16
 6737 016e 0A000000 		.4byte	.LVL18
 6738 0172 0100     		.2byte	0x1
 6739 0174 51       		.byte	0x51
 6740 0175 0A000000 		.4byte	.LVL18
 6741 0179 0E000000 		.4byte	.LFE3
 6742 017d 0400     		.2byte	0x4
 6743 017f F3       		.byte	0xf3
 6744 0180 01       		.uleb128 0x1
 6745 0181 51       		.byte	0x51
 6746 0182 9F       		.byte	0x9f
 6747 0183 00000000 		.4byte	0
 6748 0187 00000000 		.4byte	0
 6749              	.LLST12:
 6750 018b 00000000 		.4byte	.LVL16
 6751 018f 08000000 		.4byte	.LVL17
 6752 0193 0100     		.2byte	0x1
 6753 0195 52       		.byte	0x52
 6754 0196 08000000 		.4byte	.LVL17
 6755 019a 0B000000 		.4byte	.LVL19-1
 6756 019e 0100     		.2byte	0x1
 6757 01a0 53       		.byte	0x53
 6758 01a1 0B000000 		.4byte	.LVL19-1
 6759 01a5 0E000000 		.4byte	.LFE3
 6760 01a9 0400     		.2byte	0x4
 6761 01ab F3       		.byte	0xf3
 6762 01ac 01       		.uleb128 0x1
 6763 01ad 52       		.byte	0x52
 6764 01ae 9F       		.byte	0x9f
 6765 01af 00000000 		.4byte	0
 6766 01b3 00000000 		.4byte	0
 6767              	.LLST13:
 6768 01b7 00000000 		.4byte	.LVL20
 6769 01bb 0B000000 		.4byte	.LVL21-1
 6770 01bf 0100     		.2byte	0x1
 6771 01c1 50       		.byte	0x50
 6772 01c2 0B000000 		.4byte	.LVL21-1
 6773 01c6 0E000000 		.4byte	.LFE4
 6774 01ca 0400     		.2byte	0x4
 6775 01cc F3       		.byte	0xf3
 6776 01cd 01       		.uleb128 0x1
 6777 01ce 50       		.byte	0x50
 6778 01cf 9F       		.byte	0x9f
 6779 01d0 00000000 		.4byte	0
 6780 01d4 00000000 		.4byte	0
 6781              	.LLST14:
 6782 01d8 00000000 		.4byte	.LVL22
 6783 01dc 0B000000 		.4byte	.LVL23-1
 6784 01e0 0100     		.2byte	0x1
 6785 01e2 50       		.byte	0x50
 6786 01e3 0B000000 		.4byte	.LVL23-1
 6787 01e7 0E000000 		.4byte	.LFE5
 6788 01eb 0400     		.2byte	0x4
 6789 01ed F3       		.byte	0xf3
 6790 01ee 01       		.uleb128 0x1
 6791 01ef 50       		.byte	0x50
ARM GAS  C:\Users\brian\AppData\Local\Temp\cclOaW4l.s 			page 141


 6792 01f0 9F       		.byte	0x9f
 6793 01f1 00000000 		.4byte	0
 6794 01f5 00000000 		.4byte	0
 6795              	.LLST15:
 6796 01f9 00000000 		.4byte	.LVL24
 6797 01fd 0D000000 		.4byte	.LVL25-1
 6798 0201 0100     		.2byte	0x1
 6799 0203 50       		.byte	0x50
 6800 0204 0D000000 		.4byte	.LVL25-1
 6801 0208 54000000 		.4byte	.LFE6
 6802 020c 0100     		.2byte	0x1
 6803 020e 56       		.byte	0x56
 6804 020f 00000000 		.4byte	0
 6805 0213 00000000 		.4byte	0
 6806              	.LLST16:
 6807 0217 00000000 		.4byte	.LVL24
 6808 021b 0D000000 		.4byte	.LVL25-1
 6809 021f 0100     		.2byte	0x1
 6810 0221 51       		.byte	0x51
 6811 0222 0D000000 		.4byte	.LVL25-1
 6812 0226 54000000 		.4byte	.LFE6
 6813 022a 0100     		.2byte	0x1
 6814 022c 54       		.byte	0x54
 6815 022d 00000000 		.4byte	0
 6816 0231 00000000 		.4byte	0
 6817              	.LLST17:
 6818 0235 00000000 		.4byte	.LVL24
 6819 0239 0D000000 		.4byte	.LVL25-1
 6820 023d 0100     		.2byte	0x1
 6821 023f 52       		.byte	0x52
 6822 0240 12000000 		.4byte	.LVL26
 6823 0244 14000000 		.4byte	.LVL27
 6824 0248 0100     		.2byte	0x1
 6825 024a 55       		.byte	0x55
 6826 024b 00000000 		.4byte	0
 6827 024f 00000000 		.4byte	0
 6828              	.LLST18:
 6829 0253 00000000 		.4byte	.LVL33
 6830 0257 11000000 		.4byte	.LVL34-1
 6831 025b 0100     		.2byte	0x1
 6832 025d 50       		.byte	0x50
 6833 025e 11000000 		.4byte	.LVL34-1
 6834 0262 1C000000 		.4byte	.LFE7
 6835 0266 0400     		.2byte	0x4
 6836 0268 F3       		.byte	0xf3
 6837 0269 01       		.uleb128 0x1
 6838 026a 50       		.byte	0x50
 6839 026b 9F       		.byte	0x9f
 6840 026c 00000000 		.4byte	0
 6841 0270 00000000 		.4byte	0
 6842              	.LLST19:
 6843 0274 00000000 		.4byte	.LVL35
 6844 0278 08000000 		.4byte	.LVL36
 6845 027c 0100     		.2byte	0x1
 6846 027e 50       		.byte	0x50
 6847 027f 08000000 		.4byte	.LVL36
 6848 0283 6A000000 		.4byte	.LFE8
ARM GAS  C:\Users\brian\AppData\Local\Temp\cclOaW4l.s 			page 142


 6849 0287 0100     		.2byte	0x1
 6850 0289 55       		.byte	0x55
 6851 028a 00000000 		.4byte	0
 6852 028e 00000000 		.4byte	0
 6853              	.LLST20:
 6854 0292 00000000 		.4byte	.LVL35
 6855 0296 08000000 		.4byte	.LVL36
 6856 029a 0100     		.2byte	0x1
 6857 029c 51       		.byte	0x51
 6858 029d 08000000 		.4byte	.LVL36
 6859 02a1 26000000 		.4byte	.LVL38
 6860 02a5 0100     		.2byte	0x1
 6861 02a7 54       		.byte	0x54
 6862 02a8 26000000 		.4byte	.LVL38
 6863 02ac 32000000 		.4byte	.LVL39
 6864 02b0 0300     		.2byte	0x3
 6865 02b2 74       		.byte	0x74
 6866 02b3 7F       		.sleb128 -1
 6867 02b4 9F       		.byte	0x9f
 6868 02b5 32000000 		.4byte	.LVL39
 6869 02b9 38000000 		.4byte	.LVL41
 6870 02bd 0100     		.2byte	0x1
 6871 02bf 54       		.byte	0x54
 6872 02c0 38000000 		.4byte	.LVL41
 6873 02c4 46000000 		.4byte	.LVL43
 6874 02c8 0300     		.2byte	0x3
 6875 02ca 74       		.byte	0x74
 6876 02cb 7F       		.sleb128 -1
 6877 02cc 9F       		.byte	0x9f
 6878 02cd 46000000 		.4byte	.LVL43
 6879 02d1 58000000 		.4byte	.LVL47
 6880 02d5 0100     		.2byte	0x1
 6881 02d7 54       		.byte	0x54
 6882 02d8 58000000 		.4byte	.LVL47
 6883 02dc 64000000 		.4byte	.LVL49
 6884 02e0 0300     		.2byte	0x3
 6885 02e2 74       		.byte	0x74
 6886 02e3 7F       		.sleb128 -1
 6887 02e4 9F       		.byte	0x9f
 6888 02e5 64000000 		.4byte	.LVL49
 6889 02e9 6A000000 		.4byte	.LFE8
 6890 02ed 0100     		.2byte	0x1
 6891 02ef 54       		.byte	0x54
 6892 02f0 00000000 		.4byte	0
 6893 02f4 00000000 		.4byte	0
 6894              	.LLST21:
 6895 02f8 0C000000 		.4byte	.LVL37
 6896 02fc 31000000 		.4byte	.LVL39-1
 6897 0300 0100     		.2byte	0x1
 6898 0302 51       		.byte	0x51
 6899 0303 34000000 		.4byte	.LVL40
 6900 0307 40000000 		.4byte	.LVL42
 6901 030b 0100     		.2byte	0x1
 6902 030d 51       		.byte	0x51
 6903 030e 48000000 		.4byte	.LVL44
 6904 0312 51000000 		.4byte	.LVL45-1
 6905 0316 0100     		.2byte	0x1
ARM GAS  C:\Users\brian\AppData\Local\Temp\cclOaW4l.s 			page 143


 6906 0318 51       		.byte	0x51
 6907 0319 54000000 		.4byte	.LVL46
 6908 031d 5E000000 		.4byte	.LVL48
 6909 0321 0100     		.2byte	0x1
 6910 0323 51       		.byte	0x51
 6911 0324 66000000 		.4byte	.LVL50
 6912 0328 6A000000 		.4byte	.LFE8
 6913 032c 0100     		.2byte	0x1
 6914 032e 51       		.byte	0x51
 6915 032f 00000000 		.4byte	0
 6916 0333 00000000 		.4byte	0
 6917              	.LLST22:
 6918 0337 00000000 		.4byte	.LVL51
 6919 033b 19000000 		.4byte	.LVL53-1
 6920 033f 0100     		.2byte	0x1
 6921 0341 50       		.byte	0x50
 6922 0342 19000000 		.4byte	.LVL53-1
 6923 0346 1E000000 		.4byte	.LVL54
 6924 034a 0400     		.2byte	0x4
 6925 034c F3       		.byte	0xf3
 6926 034d 01       		.uleb128 0x1
 6927 034e 50       		.byte	0x50
 6928 034f 9F       		.byte	0x9f
 6929 0350 1E000000 		.4byte	.LVL54
 6930 0354 23000000 		.4byte	.LVL56-1
 6931 0358 0100     		.2byte	0x1
 6932 035a 50       		.byte	0x50
 6933 035b 23000000 		.4byte	.LVL56-1
 6934 035f 28000000 		.4byte	.LVL57
 6935 0363 0400     		.2byte	0x4
 6936 0365 F3       		.byte	0xf3
 6937 0366 01       		.uleb128 0x1
 6938 0367 50       		.byte	0x50
 6939 0368 9F       		.byte	0x9f
 6940 0369 28000000 		.4byte	.LVL57
 6941 036d 2B000000 		.4byte	.LVL58-1
 6942 0371 0100     		.2byte	0x1
 6943 0373 50       		.byte	0x50
 6944 0374 2B000000 		.4byte	.LVL58-1
 6945 0378 2E000000 		.4byte	.LVL59
 6946 037c 0400     		.2byte	0x4
 6947 037e F3       		.byte	0xf3
 6948 037f 01       		.uleb128 0x1
 6949 0380 50       		.byte	0x50
 6950 0381 9F       		.byte	0x9f
 6951 0382 2E000000 		.4byte	.LVL59
 6952 0386 30000000 		.4byte	.LVL60
 6953 038a 0100     		.2byte	0x1
 6954 038c 50       		.byte	0x50
 6955 038d 30000000 		.4byte	.LVL60
 6956 0391 32000000 		.4byte	.LFE9
 6957 0395 0400     		.2byte	0x4
 6958 0397 F3       		.byte	0xf3
 6959 0398 01       		.uleb128 0x1
 6960 0399 50       		.byte	0x50
 6961 039a 9F       		.byte	0x9f
 6962 039b 00000000 		.4byte	0
ARM GAS  C:\Users\brian\AppData\Local\Temp\cclOaW4l.s 			page 144


 6963 039f 00000000 		.4byte	0
 6964              	.LLST23:
 6965 03a3 00000000 		.4byte	.LVL51
 6966 03a7 16000000 		.4byte	.LVL52
 6967 03ab 0100     		.2byte	0x1
 6968 03ad 51       		.byte	0x51
 6969 03ae 16000000 		.4byte	.LVL52
 6970 03b2 1E000000 		.4byte	.LVL54
 6971 03b6 0400     		.2byte	0x4
 6972 03b8 F3       		.byte	0xf3
 6973 03b9 01       		.uleb128 0x1
 6974 03ba 51       		.byte	0x51
 6975 03bb 9F       		.byte	0x9f
 6976 03bc 1E000000 		.4byte	.LVL54
 6977 03c0 20000000 		.4byte	.LVL55
 6978 03c4 0100     		.2byte	0x1
 6979 03c6 51       		.byte	0x51
 6980 03c7 20000000 		.4byte	.LVL55
 6981 03cb 28000000 		.4byte	.LVL57
 6982 03cf 0400     		.2byte	0x4
 6983 03d1 F3       		.byte	0xf3
 6984 03d2 01       		.uleb128 0x1
 6985 03d3 51       		.byte	0x51
 6986 03d4 9F       		.byte	0x9f
 6987 03d5 28000000 		.4byte	.LVL57
 6988 03d9 2B000000 		.4byte	.LVL58-1
 6989 03dd 0100     		.2byte	0x1
 6990 03df 51       		.byte	0x51
 6991 03e0 2B000000 		.4byte	.LVL58-1
 6992 03e4 2E000000 		.4byte	.LVL59
 6993 03e8 0400     		.2byte	0x4
 6994 03ea F3       		.byte	0xf3
 6995 03eb 01       		.uleb128 0x1
 6996 03ec 51       		.byte	0x51
 6997 03ed 9F       		.byte	0x9f
 6998 03ee 2E000000 		.4byte	.LVL59
 6999 03f2 32000000 		.4byte	.LFE9
 7000 03f6 0100     		.2byte	0x1
 7001 03f8 51       		.byte	0x51
 7002 03f9 00000000 		.4byte	0
 7003 03fd 00000000 		.4byte	0
 7004              	.LLST24:
 7005 0401 00000000 		.4byte	.LVL51
 7006 0405 19000000 		.4byte	.LVL53-1
 7007 0409 0100     		.2byte	0x1
 7008 040b 52       		.byte	0x52
 7009 040c 19000000 		.4byte	.LVL53-1
 7010 0410 1E000000 		.4byte	.LVL54
 7011 0414 0400     		.2byte	0x4
 7012 0416 F3       		.byte	0xf3
 7013 0417 01       		.uleb128 0x1
 7014 0418 52       		.byte	0x52
 7015 0419 9F       		.byte	0x9f
 7016 041a 1E000000 		.4byte	.LVL54
 7017 041e 23000000 		.4byte	.LVL56-1
 7018 0422 0100     		.2byte	0x1
 7019 0424 52       		.byte	0x52
ARM GAS  C:\Users\brian\AppData\Local\Temp\cclOaW4l.s 			page 145


 7020 0425 23000000 		.4byte	.LVL56-1
 7021 0429 28000000 		.4byte	.LVL57
 7022 042d 0400     		.2byte	0x4
 7023 042f F3       		.byte	0xf3
 7024 0430 01       		.uleb128 0x1
 7025 0431 52       		.byte	0x52
 7026 0432 9F       		.byte	0x9f
 7027 0433 28000000 		.4byte	.LVL57
 7028 0437 2B000000 		.4byte	.LVL58-1
 7029 043b 0100     		.2byte	0x1
 7030 043d 52       		.byte	0x52
 7031 043e 2B000000 		.4byte	.LVL58-1
 7032 0442 2E000000 		.4byte	.LVL59
 7033 0446 0400     		.2byte	0x4
 7034 0448 F3       		.byte	0xf3
 7035 0449 01       		.uleb128 0x1
 7036 044a 52       		.byte	0x52
 7037 044b 9F       		.byte	0x9f
 7038 044c 2E000000 		.4byte	.LVL59
 7039 0450 32000000 		.4byte	.LFE9
 7040 0454 0100     		.2byte	0x1
 7041 0456 52       		.byte	0x52
 7042 0457 00000000 		.4byte	0
 7043 045b 00000000 		.4byte	0
 7044              	.LLST25:
 7045 045f 00000000 		.4byte	.LVL51
 7046 0463 19000000 		.4byte	.LVL53-1
 7047 0467 0100     		.2byte	0x1
 7048 0469 53       		.byte	0x53
 7049 046a 19000000 		.4byte	.LVL53-1
 7050 046e 1E000000 		.4byte	.LVL54
 7051 0472 0400     		.2byte	0x4
 7052 0474 F3       		.byte	0xf3
 7053 0475 01       		.uleb128 0x1
 7054 0476 53       		.byte	0x53
 7055 0477 9F       		.byte	0x9f
 7056 0478 1E000000 		.4byte	.LVL54
 7057 047c 23000000 		.4byte	.LVL56-1
 7058 0480 0100     		.2byte	0x1
 7059 0482 53       		.byte	0x53
 7060 0483 23000000 		.4byte	.LVL56-1
 7061 0487 28000000 		.4byte	.LVL57
 7062 048b 0400     		.2byte	0x4
 7063 048d F3       		.byte	0xf3
 7064 048e 01       		.uleb128 0x1
 7065 048f 53       		.byte	0x53
 7066 0490 9F       		.byte	0x9f
 7067 0491 28000000 		.4byte	.LVL57
 7068 0495 2B000000 		.4byte	.LVL58-1
 7069 0499 0100     		.2byte	0x1
 7070 049b 53       		.byte	0x53
 7071 049c 2B000000 		.4byte	.LVL58-1
 7072 04a0 2E000000 		.4byte	.LVL59
 7073 04a4 0400     		.2byte	0x4
 7074 04a6 F3       		.byte	0xf3
 7075 04a7 01       		.uleb128 0x1
 7076 04a8 53       		.byte	0x53
ARM GAS  C:\Users\brian\AppData\Local\Temp\cclOaW4l.s 			page 146


 7077 04a9 9F       		.byte	0x9f
 7078 04aa 2E000000 		.4byte	.LVL59
 7079 04ae 32000000 		.4byte	.LFE9
 7080 04b2 0100     		.2byte	0x1
 7081 04b4 53       		.byte	0x53
 7082 04b5 00000000 		.4byte	0
 7083 04b9 00000000 		.4byte	0
 7084              	.LLST26:
 7085 04bd 00000000 		.4byte	.LVL61
 7086 04c1 23000000 		.4byte	.LVL65-1
 7087 04c5 0100     		.2byte	0x1
 7088 04c7 50       		.byte	0x50
 7089 04c8 23000000 		.4byte	.LVL65-1
 7090 04cc 32000000 		.4byte	.LVL67
 7091 04d0 0100     		.2byte	0x1
 7092 04d2 54       		.byte	0x54
 7093 04d3 32000000 		.4byte	.LVL67
 7094 04d7 37000000 		.4byte	.LVL69-1
 7095 04db 0100     		.2byte	0x1
 7096 04dd 50       		.byte	0x50
 7097 04de 37000000 		.4byte	.LVL69-1
 7098 04e2 46000000 		.4byte	.LVL71
 7099 04e6 0100     		.2byte	0x1
 7100 04e8 54       		.byte	0x54
 7101 04e9 46000000 		.4byte	.LVL71
 7102 04ed 4B000000 		.4byte	.LVL73-1
 7103 04f1 0100     		.2byte	0x1
 7104 04f3 50       		.byte	0x50
 7105 04f4 4B000000 		.4byte	.LVL73-1
 7106 04f8 5C000000 		.4byte	.LVL75
 7107 04fc 0100     		.2byte	0x1
 7108 04fe 54       		.byte	0x54
 7109 04ff 5C000000 		.4byte	.LVL75
 7110 0503 5E000000 		.4byte	.LVL76
 7111 0507 0100     		.2byte	0x1
 7112 0509 50       		.byte	0x50
 7113 050a 5E000000 		.4byte	.LVL76
 7114 050e 62000000 		.4byte	.LFE10
 7115 0512 0100     		.2byte	0x1
 7116 0514 54       		.byte	0x54
 7117 0515 00000000 		.4byte	0
 7118 0519 00000000 		.4byte	0
 7119              	.LLST27:
 7120 051d 00000000 		.4byte	.LVL61
 7121 0521 20000000 		.4byte	.LVL64
 7122 0525 0100     		.2byte	0x1
 7123 0527 51       		.byte	0x51
 7124 0528 20000000 		.4byte	.LVL64
 7125 052c 32000000 		.4byte	.LVL67
 7126 0530 0400     		.2byte	0x4
 7127 0532 F3       		.byte	0xf3
 7128 0533 01       		.uleb128 0x1
 7129 0534 51       		.byte	0x51
 7130 0535 9F       		.byte	0x9f
 7131 0536 32000000 		.4byte	.LVL67
 7132 053a 34000000 		.4byte	.LVL68
 7133 053e 0100     		.2byte	0x1
ARM GAS  C:\Users\brian\AppData\Local\Temp\cclOaW4l.s 			page 147


 7134 0540 51       		.byte	0x51
 7135 0541 34000000 		.4byte	.LVL68
 7136 0545 46000000 		.4byte	.LVL71
 7137 0549 0400     		.2byte	0x4
 7138 054b F3       		.byte	0xf3
 7139 054c 01       		.uleb128 0x1
 7140 054d 51       		.byte	0x51
 7141 054e 9F       		.byte	0x9f
 7142 054f 46000000 		.4byte	.LVL71
 7143 0553 48000000 		.4byte	.LVL72
 7144 0557 0100     		.2byte	0x1
 7145 0559 51       		.byte	0x51
 7146 055a 48000000 		.4byte	.LVL72
 7147 055e 5C000000 		.4byte	.LVL75
 7148 0562 0400     		.2byte	0x4
 7149 0564 F3       		.byte	0xf3
 7150 0565 01       		.uleb128 0x1
 7151 0566 51       		.byte	0x51
 7152 0567 9F       		.byte	0x9f
 7153 0568 5C000000 		.4byte	.LVL75
 7154 056c 62000000 		.4byte	.LFE10
 7155 0570 0100     		.2byte	0x1
 7156 0572 51       		.byte	0x51
 7157 0573 00000000 		.4byte	0
 7158 0577 00000000 		.4byte	0
 7159              	.LLST28:
 7160 057b 00000000 		.4byte	.LVL61
 7161 057f 18000000 		.4byte	.LVL63
 7162 0583 0100     		.2byte	0x1
 7163 0585 52       		.byte	0x52
 7164 0586 18000000 		.4byte	.LVL63
 7165 058a 62000000 		.4byte	.LFE10
 7166 058e 0400     		.2byte	0x4
 7167 0590 F3       		.byte	0xf3
 7168 0591 01       		.uleb128 0x1
 7169 0592 52       		.byte	0x52
 7170 0593 9F       		.byte	0x9f
 7171 0594 00000000 		.4byte	0
 7172 0598 00000000 		.4byte	0
 7173              	.LLST29:
 7174 059c 00000000 		.4byte	.LVL61
 7175 05a0 10000000 		.4byte	.LVL62
 7176 05a4 0100     		.2byte	0x1
 7177 05a6 53       		.byte	0x53
 7178 05a7 10000000 		.4byte	.LVL62
 7179 05ab 62000000 		.4byte	.LFE10
 7180 05af 0100     		.2byte	0x1
 7181 05b1 58       		.byte	0x58
 7182 05b2 00000000 		.4byte	0
 7183 05b6 00000000 		.4byte	0
 7184              	.LLST30:
 7185 05ba 00000000 		.4byte	.LVL77
 7186 05be 1C000000 		.4byte	.LVL80
 7187 05c2 0100     		.2byte	0x1
 7188 05c4 50       		.byte	0x50
 7189 05c5 1C000000 		.4byte	.LVL80
 7190 05c9 1E000000 		.4byte	.LVL81
ARM GAS  C:\Users\brian\AppData\Local\Temp\cclOaW4l.s 			page 148


 7191 05cd 0100     		.2byte	0x1
 7192 05cf 55       		.byte	0x55
 7193 05d0 1E000000 		.4byte	.LVL81
 7194 05d4 23000000 		.4byte	.LVL83-1
 7195 05d8 0100     		.2byte	0x1
 7196 05da 50       		.byte	0x50
 7197 05db 23000000 		.4byte	.LVL83-1
 7198 05df 3C000000 		.4byte	.LVL87
 7199 05e3 0100     		.2byte	0x1
 7200 05e5 55       		.byte	0x55
 7201 05e6 3C000000 		.4byte	.LVL87
 7202 05ea 41000000 		.4byte	.LVL89-1
 7203 05ee 0100     		.2byte	0x1
 7204 05f0 50       		.byte	0x50
 7205 05f1 41000000 		.4byte	.LVL89-1
 7206 05f5 5A000000 		.4byte	.LVL93
 7207 05f9 0100     		.2byte	0x1
 7208 05fb 55       		.byte	0x55
 7209 05fc 5A000000 		.4byte	.LVL93
 7210 0600 5F000000 		.4byte	.LVL95-1
 7211 0604 0100     		.2byte	0x1
 7212 0606 50       		.byte	0x50
 7213 0607 5F000000 		.4byte	.LVL95-1
 7214 060b 84000000 		.4byte	.LVL103
 7215 060f 0100     		.2byte	0x1
 7216 0611 55       		.byte	0x55
 7217 0612 84000000 		.4byte	.LVL103
 7218 0616 8B000000 		.4byte	.LVL104-1
 7219 061a 0100     		.2byte	0x1
 7220 061c 50       		.byte	0x50
 7221 061d 8B000000 		.4byte	.LVL104-1
 7222 0621 90000000 		.4byte	.LVL105
 7223 0625 0100     		.2byte	0x1
 7224 0627 55       		.byte	0x55
 7225 0628 90000000 		.4byte	.LVL105
 7226 062c 92000000 		.4byte	.LVL106
 7227 0630 0100     		.2byte	0x1
 7228 0632 50       		.byte	0x50
 7229 0633 92000000 		.4byte	.LVL106
 7230 0637 94000000 		.4byte	.LFE11
 7231 063b 0100     		.2byte	0x1
 7232 063d 55       		.byte	0x55
 7233 063e 00000000 		.4byte	0
 7234 0642 00000000 		.4byte	0
 7235              	.LLST31:
 7236 0646 00000000 		.4byte	.LVL77
 7237 064a 20000000 		.4byte	.LVL82
 7238 064e 0100     		.2byte	0x1
 7239 0650 51       		.byte	0x51
 7240 0651 20000000 		.4byte	.LVL82
 7241 0655 3C000000 		.4byte	.LVL87
 7242 0659 0400     		.2byte	0x4
 7243 065b F3       		.byte	0xf3
 7244 065c 01       		.uleb128 0x1
 7245 065d 51       		.byte	0x51
 7246 065e 9F       		.byte	0x9f
 7247 065f 3C000000 		.4byte	.LVL87
ARM GAS  C:\Users\brian\AppData\Local\Temp\cclOaW4l.s 			page 149


 7248 0663 3E000000 		.4byte	.LVL88
 7249 0667 0100     		.2byte	0x1
 7250 0669 51       		.byte	0x51
 7251 066a 3E000000 		.4byte	.LVL88
 7252 066e 5A000000 		.4byte	.LVL93
 7253 0672 0400     		.2byte	0x4
 7254 0674 F3       		.byte	0xf3
 7255 0675 01       		.uleb128 0x1
 7256 0676 51       		.byte	0x51
 7257 0677 9F       		.byte	0x9f
 7258 0678 5A000000 		.4byte	.LVL93
 7259 067c 5C000000 		.4byte	.LVL94
 7260 0680 0100     		.2byte	0x1
 7261 0682 51       		.byte	0x51
 7262 0683 5C000000 		.4byte	.LVL94
 7263 0687 84000000 		.4byte	.LVL103
 7264 068b 0400     		.2byte	0x4
 7265 068d F3       		.byte	0xf3
 7266 068e 01       		.uleb128 0x1
 7267 068f 51       		.byte	0x51
 7268 0690 9F       		.byte	0x9f
 7269 0691 84000000 		.4byte	.LVL103
 7270 0695 8B000000 		.4byte	.LVL104-1
 7271 0699 0100     		.2byte	0x1
 7272 069b 51       		.byte	0x51
 7273 069c 8B000000 		.4byte	.LVL104-1
 7274 06a0 90000000 		.4byte	.LVL105
 7275 06a4 0400     		.2byte	0x4
 7276 06a6 F3       		.byte	0xf3
 7277 06a7 01       		.uleb128 0x1
 7278 06a8 51       		.byte	0x51
 7279 06a9 9F       		.byte	0x9f
 7280 06aa 90000000 		.4byte	.LVL105
 7281 06ae 94000000 		.4byte	.LFE11
 7282 06b2 0100     		.2byte	0x1
 7283 06b4 51       		.byte	0x51
 7284 06b5 00000000 		.4byte	0
 7285 06b9 00000000 		.4byte	0
 7286              	.LLST32:
 7287 06bd 00000000 		.4byte	.LVL77
 7288 06c1 14000000 		.4byte	.LVL79
 7289 06c5 0100     		.2byte	0x1
 7290 06c7 52       		.byte	0x52
 7291 06c8 14000000 		.4byte	.LVL79
 7292 06cc 62000000 		.4byte	.LVL96
 7293 06d0 0400     		.2byte	0x4
 7294 06d2 F3       		.byte	0xf3
 7295 06d3 01       		.uleb128 0x1
 7296 06d4 52       		.byte	0x52
 7297 06d5 9F       		.byte	0x9f
 7298 06d6 62000000 		.4byte	.LVL96
 7299 06da 7A000000 		.4byte	.LVL101
 7300 06de 0100     		.2byte	0x1
 7301 06e0 54       		.byte	0x54
 7302 06e1 7C000000 		.4byte	.LVL102
 7303 06e5 84000000 		.4byte	.LVL103
 7304 06e9 0100     		.2byte	0x1
ARM GAS  C:\Users\brian\AppData\Local\Temp\cclOaW4l.s 			page 150


 7305 06eb 54       		.byte	0x54
 7306 06ec 84000000 		.4byte	.LVL103
 7307 06f0 94000000 		.4byte	.LFE11
 7308 06f4 0400     		.2byte	0x4
 7309 06f6 F3       		.byte	0xf3
 7310 06f7 01       		.uleb128 0x1
 7311 06f8 52       		.byte	0x52
 7312 06f9 9F       		.byte	0x9f
 7313 06fa 00000000 		.4byte	0
 7314 06fe 00000000 		.4byte	0
 7315              	.LLST33:
 7316 0702 00000000 		.4byte	.LVL77
 7317 0706 0C000000 		.4byte	.LVL78
 7318 070a 0100     		.2byte	0x1
 7319 070c 53       		.byte	0x53
 7320 070d 0C000000 		.4byte	.LVL78
 7321 0711 62000000 		.4byte	.LVL96
 7322 0715 0100     		.2byte	0x1
 7323 0717 56       		.byte	0x56
 7324 0718 62000000 		.4byte	.LVL96
 7325 071c 84000000 		.4byte	.LVL103
 7326 0720 0400     		.2byte	0x4
 7327 0722 F3       		.byte	0xf3
 7328 0723 01       		.uleb128 0x1
 7329 0724 53       		.byte	0x53
 7330 0725 9F       		.byte	0x9f
 7331 0726 84000000 		.4byte	.LVL103
 7332 072a 94000000 		.4byte	.LFE11
 7333 072e 0100     		.2byte	0x1
 7334 0730 56       		.byte	0x56
 7335 0731 00000000 		.4byte	0
 7336 0735 00000000 		.4byte	0
 7337              	.LLST34:
 7338 0739 60000000 		.4byte	.LVL95
 7339 073d 6C000000 		.4byte	.LVL98
 7340 0741 0100     		.2byte	0x1
 7341 0743 56       		.byte	0x56
 7342 0744 6C000000 		.4byte	.LVL98
 7343 0748 78000000 		.4byte	.LVL100
 7344 074c 0300     		.2byte	0x3
 7345 074e 76       		.byte	0x76
 7346 074f 7F       		.sleb128 -1
 7347 0750 9F       		.byte	0x9f
 7348 0751 78000000 		.4byte	.LVL100
 7349 0755 84000000 		.4byte	.LVL103
 7350 0759 0100     		.2byte	0x1
 7351 075b 56       		.byte	0x56
 7352 075c 00000000 		.4byte	0
 7353 0760 00000000 		.4byte	0
 7354              	.LLST35:
 7355 0764 00000000 		.4byte	.LVL107
 7356 0768 23000000 		.4byte	.LVL111-1
 7357 076c 0100     		.2byte	0x1
 7358 076e 50       		.byte	0x50
 7359 076f 23000000 		.4byte	.LVL111-1
 7360 0773 32000000 		.4byte	.LVL113
 7361 0777 0100     		.2byte	0x1
ARM GAS  C:\Users\brian\AppData\Local\Temp\cclOaW4l.s 			page 151


 7362 0779 54       		.byte	0x54
 7363 077a 32000000 		.4byte	.LVL113
 7364 077e 37000000 		.4byte	.LVL115-1
 7365 0782 0100     		.2byte	0x1
 7366 0784 50       		.byte	0x50
 7367 0785 37000000 		.4byte	.LVL115-1
 7368 0789 46000000 		.4byte	.LVL117
 7369 078d 0100     		.2byte	0x1
 7370 078f 54       		.byte	0x54
 7371 0790 46000000 		.4byte	.LVL117
 7372 0794 4B000000 		.4byte	.LVL119-1
 7373 0798 0100     		.2byte	0x1
 7374 079a 50       		.byte	0x50
 7375 079b 4B000000 		.4byte	.LVL119-1
 7376 079f 5C000000 		.4byte	.LVL121
 7377 07a3 0100     		.2byte	0x1
 7378 07a5 54       		.byte	0x54
 7379 07a6 5C000000 		.4byte	.LVL121
 7380 07aa 5E000000 		.4byte	.LVL122
 7381 07ae 0100     		.2byte	0x1
 7382 07b0 50       		.byte	0x50
 7383 07b1 5E000000 		.4byte	.LVL122
 7384 07b5 62000000 		.4byte	.LFE12
 7385 07b9 0100     		.2byte	0x1
 7386 07bb 54       		.byte	0x54
 7387 07bc 00000000 		.4byte	0
 7388 07c0 00000000 		.4byte	0
 7389              	.LLST36:
 7390 07c4 00000000 		.4byte	.LVL107
 7391 07c8 20000000 		.4byte	.LVL110
 7392 07cc 0100     		.2byte	0x1
 7393 07ce 51       		.byte	0x51
 7394 07cf 20000000 		.4byte	.LVL110
 7395 07d3 32000000 		.4byte	.LVL113
 7396 07d7 0400     		.2byte	0x4
 7397 07d9 F3       		.byte	0xf3
 7398 07da 01       		.uleb128 0x1
 7399 07db 51       		.byte	0x51
 7400 07dc 9F       		.byte	0x9f
 7401 07dd 32000000 		.4byte	.LVL113
 7402 07e1 34000000 		.4byte	.LVL114
 7403 07e5 0100     		.2byte	0x1
 7404 07e7 51       		.byte	0x51
 7405 07e8 34000000 		.4byte	.LVL114
 7406 07ec 46000000 		.4byte	.LVL117
 7407 07f0 0400     		.2byte	0x4
 7408 07f2 F3       		.byte	0xf3
 7409 07f3 01       		.uleb128 0x1
 7410 07f4 51       		.byte	0x51
 7411 07f5 9F       		.byte	0x9f
 7412 07f6 46000000 		.4byte	.LVL117
 7413 07fa 48000000 		.4byte	.LVL118
 7414 07fe 0100     		.2byte	0x1
 7415 0800 51       		.byte	0x51
 7416 0801 48000000 		.4byte	.LVL118
 7417 0805 5C000000 		.4byte	.LVL121
 7418 0809 0400     		.2byte	0x4
ARM GAS  C:\Users\brian\AppData\Local\Temp\cclOaW4l.s 			page 152


 7419 080b F3       		.byte	0xf3
 7420 080c 01       		.uleb128 0x1
 7421 080d 51       		.byte	0x51
 7422 080e 9F       		.byte	0x9f
 7423 080f 5C000000 		.4byte	.LVL121
 7424 0813 62000000 		.4byte	.LFE12
 7425 0817 0100     		.2byte	0x1
 7426 0819 51       		.byte	0x51
 7427 081a 00000000 		.4byte	0
 7428 081e 00000000 		.4byte	0
 7429              	.LLST37:
 7430 0822 00000000 		.4byte	.LVL107
 7431 0826 18000000 		.4byte	.LVL109
 7432 082a 0100     		.2byte	0x1
 7433 082c 52       		.byte	0x52
 7434 082d 18000000 		.4byte	.LVL109
 7435 0831 62000000 		.4byte	.LFE12
 7436 0835 0400     		.2byte	0x4
 7437 0837 F3       		.byte	0xf3
 7438 0838 01       		.uleb128 0x1
 7439 0839 52       		.byte	0x52
 7440 083a 9F       		.byte	0x9f
 7441 083b 00000000 		.4byte	0
 7442 083f 00000000 		.4byte	0
 7443              	.LLST38:
 7444 0843 00000000 		.4byte	.LVL107
 7445 0847 10000000 		.4byte	.LVL108
 7446 084b 0100     		.2byte	0x1
 7447 084d 53       		.byte	0x53
 7448 084e 10000000 		.4byte	.LVL108
 7449 0852 62000000 		.4byte	.LFE12
 7450 0856 0100     		.2byte	0x1
 7451 0858 58       		.byte	0x58
 7452 0859 00000000 		.4byte	0
 7453 085d 00000000 		.4byte	0
 7454              	.LLST39:
 7455 0861 00000000 		.4byte	.LVL123
 7456 0865 23000000 		.4byte	.LVL127-1
 7457 0869 0100     		.2byte	0x1
 7458 086b 50       		.byte	0x50
 7459 086c 23000000 		.4byte	.LVL127-1
 7460 0870 32000000 		.4byte	.LVL129
 7461 0874 0100     		.2byte	0x1
 7462 0876 54       		.byte	0x54
 7463 0877 32000000 		.4byte	.LVL129
 7464 087b 37000000 		.4byte	.LVL131-1
 7465 087f 0100     		.2byte	0x1
 7466 0881 50       		.byte	0x50
 7467 0882 37000000 		.4byte	.LVL131-1
 7468 0886 46000000 		.4byte	.LVL133
 7469 088a 0100     		.2byte	0x1
 7470 088c 54       		.byte	0x54
 7471 088d 46000000 		.4byte	.LVL133
 7472 0891 4B000000 		.4byte	.LVL135-1
 7473 0895 0100     		.2byte	0x1
 7474 0897 50       		.byte	0x50
 7475 0898 4B000000 		.4byte	.LVL135-1
ARM GAS  C:\Users\brian\AppData\Local\Temp\cclOaW4l.s 			page 153


 7476 089c 5C000000 		.4byte	.LVL137
 7477 08a0 0100     		.2byte	0x1
 7478 08a2 54       		.byte	0x54
 7479 08a3 5C000000 		.4byte	.LVL137
 7480 08a7 5E000000 		.4byte	.LVL138
 7481 08ab 0100     		.2byte	0x1
 7482 08ad 50       		.byte	0x50
 7483 08ae 5E000000 		.4byte	.LVL138
 7484 08b2 62000000 		.4byte	.LFE13
 7485 08b6 0100     		.2byte	0x1
 7486 08b8 54       		.byte	0x54
 7487 08b9 00000000 		.4byte	0
 7488 08bd 00000000 		.4byte	0
 7489              	.LLST40:
 7490 08c1 00000000 		.4byte	.LVL123
 7491 08c5 20000000 		.4byte	.LVL126
 7492 08c9 0100     		.2byte	0x1
 7493 08cb 51       		.byte	0x51
 7494 08cc 20000000 		.4byte	.LVL126
 7495 08d0 32000000 		.4byte	.LVL129
 7496 08d4 0400     		.2byte	0x4
 7497 08d6 F3       		.byte	0xf3
 7498 08d7 01       		.uleb128 0x1
 7499 08d8 51       		.byte	0x51
 7500 08d9 9F       		.byte	0x9f
 7501 08da 32000000 		.4byte	.LVL129
 7502 08de 34000000 		.4byte	.LVL130
 7503 08e2 0100     		.2byte	0x1
 7504 08e4 51       		.byte	0x51
 7505 08e5 34000000 		.4byte	.LVL130
 7506 08e9 46000000 		.4byte	.LVL133
 7507 08ed 0400     		.2byte	0x4
 7508 08ef F3       		.byte	0xf3
 7509 08f0 01       		.uleb128 0x1
 7510 08f1 51       		.byte	0x51
 7511 08f2 9F       		.byte	0x9f
 7512 08f3 46000000 		.4byte	.LVL133
 7513 08f7 48000000 		.4byte	.LVL134
 7514 08fb 0100     		.2byte	0x1
 7515 08fd 51       		.byte	0x51
 7516 08fe 48000000 		.4byte	.LVL134
 7517 0902 5C000000 		.4byte	.LVL137
 7518 0906 0400     		.2byte	0x4
 7519 0908 F3       		.byte	0xf3
 7520 0909 01       		.uleb128 0x1
 7521 090a 51       		.byte	0x51
 7522 090b 9F       		.byte	0x9f
 7523 090c 5C000000 		.4byte	.LVL137
 7524 0910 62000000 		.4byte	.LFE13
 7525 0914 0100     		.2byte	0x1
 7526 0916 51       		.byte	0x51
 7527 0917 00000000 		.4byte	0
 7528 091b 00000000 		.4byte	0
 7529              	.LLST41:
 7530 091f 00000000 		.4byte	.LVL123
 7531 0923 18000000 		.4byte	.LVL125
 7532 0927 0100     		.2byte	0x1
ARM GAS  C:\Users\brian\AppData\Local\Temp\cclOaW4l.s 			page 154


 7533 0929 52       		.byte	0x52
 7534 092a 18000000 		.4byte	.LVL125
 7535 092e 62000000 		.4byte	.LFE13
 7536 0932 0400     		.2byte	0x4
 7537 0934 F3       		.byte	0xf3
 7538 0935 01       		.uleb128 0x1
 7539 0936 52       		.byte	0x52
 7540 0937 9F       		.byte	0x9f
 7541 0938 00000000 		.4byte	0
 7542 093c 00000000 		.4byte	0
 7543              	.LLST42:
 7544 0940 00000000 		.4byte	.LVL123
 7545 0944 10000000 		.4byte	.LVL124
 7546 0948 0100     		.2byte	0x1
 7547 094a 53       		.byte	0x53
 7548 094b 10000000 		.4byte	.LVL124
 7549 094f 62000000 		.4byte	.LFE13
 7550 0953 0100     		.2byte	0x1
 7551 0955 58       		.byte	0x58
 7552 0956 00000000 		.4byte	0
 7553 095a 00000000 		.4byte	0
 7554              	.LLST43:
 7555 095e 00000000 		.4byte	.LVL139
 7556 0962 23000000 		.4byte	.LVL143-1
 7557 0966 0100     		.2byte	0x1
 7558 0968 50       		.byte	0x50
 7559 0969 23000000 		.4byte	.LVL143-1
 7560 096d 32000000 		.4byte	.LVL145
 7561 0971 0100     		.2byte	0x1
 7562 0973 54       		.byte	0x54
 7563 0974 32000000 		.4byte	.LVL145
 7564 0978 37000000 		.4byte	.LVL147-1
 7565 097c 0100     		.2byte	0x1
 7566 097e 50       		.byte	0x50
 7567 097f 37000000 		.4byte	.LVL147-1
 7568 0983 46000000 		.4byte	.LVL149
 7569 0987 0100     		.2byte	0x1
 7570 0989 54       		.byte	0x54
 7571 098a 46000000 		.4byte	.LVL149
 7572 098e 4B000000 		.4byte	.LVL151-1
 7573 0992 0100     		.2byte	0x1
 7574 0994 50       		.byte	0x50
 7575 0995 4B000000 		.4byte	.LVL151-1
 7576 0999 5C000000 		.4byte	.LVL153
 7577 099d 0100     		.2byte	0x1
 7578 099f 54       		.byte	0x54
 7579 09a0 5C000000 		.4byte	.LVL153
 7580 09a4 5E000000 		.4byte	.LVL154
 7581 09a8 0100     		.2byte	0x1
 7582 09aa 50       		.byte	0x50
 7583 09ab 5E000000 		.4byte	.LVL154
 7584 09af 62000000 		.4byte	.LFE14
 7585 09b3 0100     		.2byte	0x1
 7586 09b5 54       		.byte	0x54
 7587 09b6 00000000 		.4byte	0
 7588 09ba 00000000 		.4byte	0
 7589              	.LLST44:
ARM GAS  C:\Users\brian\AppData\Local\Temp\cclOaW4l.s 			page 155


 7590 09be 00000000 		.4byte	.LVL139
 7591 09c2 20000000 		.4byte	.LVL142
 7592 09c6 0100     		.2byte	0x1
 7593 09c8 51       		.byte	0x51
 7594 09c9 20000000 		.4byte	.LVL142
 7595 09cd 32000000 		.4byte	.LVL145
 7596 09d1 0400     		.2byte	0x4
 7597 09d3 F3       		.byte	0xf3
 7598 09d4 01       		.uleb128 0x1
 7599 09d5 51       		.byte	0x51
 7600 09d6 9F       		.byte	0x9f
 7601 09d7 32000000 		.4byte	.LVL145
 7602 09db 34000000 		.4byte	.LVL146
 7603 09df 0100     		.2byte	0x1
 7604 09e1 51       		.byte	0x51
 7605 09e2 34000000 		.4byte	.LVL146
 7606 09e6 46000000 		.4byte	.LVL149
 7607 09ea 0400     		.2byte	0x4
 7608 09ec F3       		.byte	0xf3
 7609 09ed 01       		.uleb128 0x1
 7610 09ee 51       		.byte	0x51
 7611 09ef 9F       		.byte	0x9f
 7612 09f0 46000000 		.4byte	.LVL149
 7613 09f4 48000000 		.4byte	.LVL150
 7614 09f8 0100     		.2byte	0x1
 7615 09fa 51       		.byte	0x51
 7616 09fb 48000000 		.4byte	.LVL150
 7617 09ff 5C000000 		.4byte	.LVL153
 7618 0a03 0400     		.2byte	0x4
 7619 0a05 F3       		.byte	0xf3
 7620 0a06 01       		.uleb128 0x1
 7621 0a07 51       		.byte	0x51
 7622 0a08 9F       		.byte	0x9f
 7623 0a09 5C000000 		.4byte	.LVL153
 7624 0a0d 62000000 		.4byte	.LFE14
 7625 0a11 0100     		.2byte	0x1
 7626 0a13 51       		.byte	0x51
 7627 0a14 00000000 		.4byte	0
 7628 0a18 00000000 		.4byte	0
 7629              	.LLST45:
 7630 0a1c 00000000 		.4byte	.LVL139
 7631 0a20 18000000 		.4byte	.LVL141
 7632 0a24 0100     		.2byte	0x1
 7633 0a26 52       		.byte	0x52
 7634 0a27 18000000 		.4byte	.LVL141
 7635 0a2b 62000000 		.4byte	.LFE14
 7636 0a2f 0400     		.2byte	0x4
 7637 0a31 F3       		.byte	0xf3
 7638 0a32 01       		.uleb128 0x1
 7639 0a33 52       		.byte	0x52
 7640 0a34 9F       		.byte	0x9f
 7641 0a35 00000000 		.4byte	0
 7642 0a39 00000000 		.4byte	0
 7643              	.LLST46:
 7644 0a3d 00000000 		.4byte	.LVL139
 7645 0a41 10000000 		.4byte	.LVL140
 7646 0a45 0100     		.2byte	0x1
ARM GAS  C:\Users\brian\AppData\Local\Temp\cclOaW4l.s 			page 156


 7647 0a47 53       		.byte	0x53
 7648 0a48 10000000 		.4byte	.LVL140
 7649 0a4c 62000000 		.4byte	.LFE14
 7650 0a50 0100     		.2byte	0x1
 7651 0a52 58       		.byte	0x58
 7652 0a53 00000000 		.4byte	0
 7653 0a57 00000000 		.4byte	0
 7654              	.LLST47:
 7655 0a5b 00000000 		.4byte	.LVL155
 7656 0a5f 1F000000 		.4byte	.LVL159-1
 7657 0a63 0100     		.2byte	0x1
 7658 0a65 50       		.byte	0x50
 7659 0a66 1F000000 		.4byte	.LVL159-1
 7660 0a6a 58000000 		.4byte	.LVL165
 7661 0a6e 0100     		.2byte	0x1
 7662 0a70 56       		.byte	0x56
 7663 0a71 58000000 		.4byte	.LVL165
 7664 0a75 5D000000 		.4byte	.LVL167-1
 7665 0a79 0100     		.2byte	0x1
 7666 0a7b 50       		.byte	0x50
 7667 0a7c 5D000000 		.4byte	.LVL167-1
 7668 0a80 78000000 		.4byte	.LVL170
 7669 0a84 0100     		.2byte	0x1
 7670 0a86 56       		.byte	0x56
 7671 0a87 78000000 		.4byte	.LVL170
 7672 0a8b 7D000000 		.4byte	.LVL172-1
 7673 0a8f 0100     		.2byte	0x1
 7674 0a91 50       		.byte	0x50
 7675 0a92 7D000000 		.4byte	.LVL172-1
 7676 0a96 F0000000 		.4byte	.LVL193
 7677 0a9a 0100     		.2byte	0x1
 7678 0a9c 56       		.byte	0x56
 7679 0a9d F0000000 		.4byte	.LVL193
 7680 0aa1 F7000000 		.4byte	.LVL194-1
 7681 0aa5 0100     		.2byte	0x1
 7682 0aa7 50       		.byte	0x50
 7683 0aa8 F7000000 		.4byte	.LVL194-1
 7684 0aac FA000000 		.4byte	.LVL195
 7685 0ab0 0100     		.2byte	0x1
 7686 0ab2 56       		.byte	0x56
 7687 0ab3 FA000000 		.4byte	.LVL195
 7688 0ab7 FC000000 		.4byte	.LVL196
 7689 0abb 0100     		.2byte	0x1
 7690 0abd 50       		.byte	0x50
 7691 0abe FC000000 		.4byte	.LVL196
 7692 0ac2 FE000000 		.4byte	.LVL197
 7693 0ac6 0100     		.2byte	0x1
 7694 0ac8 56       		.byte	0x56
 7695 0ac9 FE000000 		.4byte	.LVL197
 7696 0acd 04010000 		.4byte	.LFE15
 7697 0ad1 0400     		.2byte	0x4
 7698 0ad3 F3       		.byte	0xf3
 7699 0ad4 01       		.uleb128 0x1
 7700 0ad5 50       		.byte	0x50
 7701 0ad6 9F       		.byte	0x9f
 7702 0ad7 00000000 		.4byte	0
 7703 0adb 00000000 		.4byte	0
ARM GAS  C:\Users\brian\AppData\Local\Temp\cclOaW4l.s 			page 157


 7704              	.LLST48:
 7705 0adf 00000000 		.4byte	.LVL155
 7706 0ae3 1C000000 		.4byte	.LVL158
 7707 0ae7 0100     		.2byte	0x1
 7708 0ae9 51       		.byte	0x51
 7709 0aea 1C000000 		.4byte	.LVL158
 7710 0aee 58000000 		.4byte	.LVL165
 7711 0af2 0400     		.2byte	0x4
 7712 0af4 F3       		.byte	0xf3
 7713 0af5 01       		.uleb128 0x1
 7714 0af6 51       		.byte	0x51
 7715 0af7 9F       		.byte	0x9f
 7716 0af8 58000000 		.4byte	.LVL165
 7717 0afc 5A000000 		.4byte	.LVL166
 7718 0b00 0100     		.2byte	0x1
 7719 0b02 51       		.byte	0x51
 7720 0b03 5A000000 		.4byte	.LVL166
 7721 0b07 78000000 		.4byte	.LVL170
 7722 0b0b 0400     		.2byte	0x4
 7723 0b0d F3       		.byte	0xf3
 7724 0b0e 01       		.uleb128 0x1
 7725 0b0f 51       		.byte	0x51
 7726 0b10 9F       		.byte	0x9f
 7727 0b11 78000000 		.4byte	.LVL170
 7728 0b15 7A000000 		.4byte	.LVL171
 7729 0b19 0100     		.2byte	0x1
 7730 0b1b 51       		.byte	0x51
 7731 0b1c 7A000000 		.4byte	.LVL171
 7732 0b20 F0000000 		.4byte	.LVL193
 7733 0b24 0400     		.2byte	0x4
 7734 0b26 F3       		.byte	0xf3
 7735 0b27 01       		.uleb128 0x1
 7736 0b28 51       		.byte	0x51
 7737 0b29 9F       		.byte	0x9f
 7738 0b2a F0000000 		.4byte	.LVL193
 7739 0b2e F7000000 		.4byte	.LVL194-1
 7740 0b32 0100     		.2byte	0x1
 7741 0b34 51       		.byte	0x51
 7742 0b35 F7000000 		.4byte	.LVL194-1
 7743 0b39 FA000000 		.4byte	.LVL195
 7744 0b3d 0400     		.2byte	0x4
 7745 0b3f F3       		.byte	0xf3
 7746 0b40 01       		.uleb128 0x1
 7747 0b41 51       		.byte	0x51
 7748 0b42 9F       		.byte	0x9f
 7749 0b43 FA000000 		.4byte	.LVL195
 7750 0b47 04010000 		.4byte	.LFE15
 7751 0b4b 0100     		.2byte	0x1
 7752 0b4d 51       		.byte	0x51
 7753 0b4e 00000000 		.4byte	0
 7754 0b52 00000000 		.4byte	0
 7755              	.LLST49:
 7756 0b56 00000000 		.4byte	.LVL155
 7757 0b5a 14000000 		.4byte	.LVL157
 7758 0b5e 0100     		.2byte	0x1
 7759 0b60 52       		.byte	0x52
 7760 0b61 14000000 		.4byte	.LVL157
ARM GAS  C:\Users\brian\AppData\Local\Temp\cclOaW4l.s 			page 158


 7761 0b65 8A000000 		.4byte	.LVL174
 7762 0b69 0400     		.2byte	0x4
 7763 0b6b F3       		.byte	0xf3
 7764 0b6c 01       		.uleb128 0x1
 7765 0b6d 52       		.byte	0x52
 7766 0b6e 9F       		.byte	0x9f
 7767 0b6f 8A000000 		.4byte	.LVL174
 7768 0b73 AE000000 		.4byte	.LVL181
 7769 0b77 0100     		.2byte	0x1
 7770 0b79 55       		.byte	0x55
 7771 0b7a B0000000 		.4byte	.LVL182
 7772 0b7e DC000000 		.4byte	.LVL190
 7773 0b82 0100     		.2byte	0x1
 7774 0b84 55       		.byte	0x55
 7775 0b85 DE000000 		.4byte	.LVL191
 7776 0b89 F0000000 		.4byte	.LVL193
 7777 0b8d 0100     		.2byte	0x1
 7778 0b8f 55       		.byte	0x55
 7779 0b90 F0000000 		.4byte	.LVL193
 7780 0b94 04010000 		.4byte	.LFE15
 7781 0b98 0400     		.2byte	0x4
 7782 0b9a F3       		.byte	0xf3
 7783 0b9b 01       		.uleb128 0x1
 7784 0b9c 52       		.byte	0x52
 7785 0b9d 9F       		.byte	0x9f
 7786 0b9e 00000000 		.4byte	0
 7787 0ba2 00000000 		.4byte	0
 7788              	.LLST50:
 7789 0ba6 00000000 		.4byte	.LVL155
 7790 0baa 0C000000 		.4byte	.LVL156
 7791 0bae 0100     		.2byte	0x1
 7792 0bb0 53       		.byte	0x53
 7793 0bb1 0C000000 		.4byte	.LVL156
 7794 0bb5 8A000000 		.4byte	.LVL174
 7795 0bb9 0100     		.2byte	0x1
 7796 0bbb 57       		.byte	0x57
 7797 0bbc 8A000000 		.4byte	.LVL174
 7798 0bc0 F0000000 		.4byte	.LVL193
 7799 0bc4 0400     		.2byte	0x4
 7800 0bc6 F3       		.byte	0xf3
 7801 0bc7 01       		.uleb128 0x1
 7802 0bc8 53       		.byte	0x53
 7803 0bc9 9F       		.byte	0x9f
 7804 0bca F0000000 		.4byte	.LVL193
 7805 0bce FE000000 		.4byte	.LVL197
 7806 0bd2 0100     		.2byte	0x1
 7807 0bd4 57       		.byte	0x57
 7808 0bd5 FE000000 		.4byte	.LVL197
 7809 0bd9 04010000 		.4byte	.LFE15
 7810 0bdd 0400     		.2byte	0x4
 7811 0bdf F3       		.byte	0xf3
 7812 0be0 01       		.uleb128 0x1
 7813 0be1 53       		.byte	0x53
 7814 0be2 9F       		.byte	0x9f
 7815 0be3 00000000 		.4byte	0
 7816 0be7 00000000 		.4byte	0
 7817              	.LLST51:
ARM GAS  C:\Users\brian\AppData\Local\Temp\cclOaW4l.s 			page 159


 7818 0beb 88000000 		.4byte	.LVL173
 7819 0bef 90000000 		.4byte	.LVL176
 7820 0bf3 0100     		.2byte	0x1
 7821 0bf5 57       		.byte	0x57
 7822 0bf6 90000000 		.4byte	.LVL176
 7823 0bfa BA000000 		.4byte	.LVL186
 7824 0bfe 0100     		.2byte	0x1
 7825 0c00 54       		.byte	0x54
 7826 0c01 BA000000 		.4byte	.LVL186
 7827 0c05 C4000000 		.4byte	.LVL187
 7828 0c09 0100     		.2byte	0x1
 7829 0c0b 57       		.byte	0x57
 7830 0c0c C4000000 		.4byte	.LVL187
 7831 0c10 DA000000 		.4byte	.LVL189
 7832 0c14 0300     		.2byte	0x3
 7833 0c16 77       		.byte	0x77
 7834 0c17 7F       		.sleb128 -1
 7835 0c18 9F       		.byte	0x9f
 7836 0c19 DA000000 		.4byte	.LVL189
 7837 0c1d F0000000 		.4byte	.LVL193
 7838 0c21 0100     		.2byte	0x1
 7839 0c23 57       		.byte	0x57
 7840 0c24 00000000 		.4byte	0
 7841 0c28 00000000 		.4byte	0
 7842              	.LLST52:
 7843 0c2c 92000000 		.4byte	.LVL177
 7844 0c30 B2000000 		.4byte	.LVL183
 7845 0c34 0100     		.2byte	0x1
 7846 0c36 52       		.byte	0x52
 7847 0c37 B2000000 		.4byte	.LVL183
 7848 0c3b B4000000 		.4byte	.LVL184
 7849 0c3f 0200     		.2byte	0x2
 7850 0c41 71       		.byte	0x71
 7851 0c42 7F       		.sleb128 -1
 7852 0c43 B4000000 		.4byte	.LVL184
 7853 0c47 B6000000 		.4byte	.LVL185
 7854 0c4b 0200     		.2byte	0x2
 7855 0c4d 70       		.byte	0x70
 7856 0c4e 7F       		.sleb128 -1
 7857 0c4f C4000000 		.4byte	.LVL187
 7858 0c53 DE000000 		.4byte	.LVL191
 7859 0c57 0100     		.2byte	0x1
 7860 0c59 54       		.byte	0x54
 7861 0c5a 00000000 		.4byte	0
 7862 0c5e 00000000 		.4byte	0
 7863              	.LLST53:
 7864 0c62 8E000000 		.4byte	.LVL175
 7865 0c66 AA000000 		.4byte	.LVL180
 7866 0c6a 0100     		.2byte	0x1
 7867 0c6c 53       		.byte	0x53
 7868 0c6d 00000000 		.4byte	0
 7869 0c71 00000000 		.4byte	0
 7870              	.LLST54:
 7871 0c75 8E000000 		.4byte	.LVL175
 7872 0c79 92000000 		.4byte	.LVL177
 7873 0c7d 0100     		.2byte	0x1
 7874 0c7f 50       		.byte	0x50
ARM GAS  C:\Users\brian\AppData\Local\Temp\cclOaW4l.s 			page 160


 7875 0c80 92000000 		.4byte	.LVL177
 7876 0c84 9E000000 		.4byte	.LVL178
 7877 0c88 0300     		.2byte	0x3
 7878 0c8a 70       		.byte	0x70
 7879 0c8b 01       		.sleb128 1
 7880 0c8c 9F       		.byte	0x9f
 7881 0c8d 9E000000 		.4byte	.LVL178
 7882 0c91 B4000000 		.4byte	.LVL184
 7883 0c95 0100     		.2byte	0x1
 7884 0c97 51       		.byte	0x51
 7885 0c98 B4000000 		.4byte	.LVL184
 7886 0c9c B6000000 		.4byte	.LVL185
 7887 0ca0 0100     		.2byte	0x1
 7888 0ca2 50       		.byte	0x50
 7889 0ca3 00000000 		.4byte	0
 7890 0ca7 00000000 		.4byte	0
 7891              	.LLST55:
 7892 0cab 00000000 		.4byte	.LVL198
 7893 0caf 1C000000 		.4byte	.LVL201
 7894 0cb3 0100     		.2byte	0x1
 7895 0cb5 50       		.byte	0x50
 7896 0cb6 1C000000 		.4byte	.LVL201
 7897 0cba 1E000000 		.4byte	.LVL202
 7898 0cbe 0100     		.2byte	0x1
 7899 0cc0 56       		.byte	0x56
 7900 0cc1 1E000000 		.4byte	.LVL202
 7901 0cc5 21000000 		.4byte	.LVL203-1
 7902 0cc9 0100     		.2byte	0x1
 7903 0ccb 50       		.byte	0x50
 7904 0ccc 21000000 		.4byte	.LVL203-1
 7905 0cd0 5E000000 		.4byte	.LVL213
 7906 0cd4 0100     		.2byte	0x1
 7907 0cd6 56       		.byte	0x56
 7908 0cd7 5E000000 		.4byte	.LVL213
 7909 0cdb 74000000 		.4byte	.LVL214
 7910 0cdf 0100     		.2byte	0x1
 7911 0ce1 50       		.byte	0x50
 7912 0ce2 74000000 		.4byte	.LVL214
 7913 0ce6 78000000 		.4byte	.LVL216
 7914 0cea 0100     		.2byte	0x1
 7915 0cec 56       		.byte	0x56
 7916 0ced 78000000 		.4byte	.LVL216
 7917 0cf1 7A000000 		.4byte	.LVL217
 7918 0cf5 0100     		.2byte	0x1
 7919 0cf7 50       		.byte	0x50
 7920 0cf8 7A000000 		.4byte	.LVL217
 7921 0cfc 7C000000 		.4byte	.LFE17
 7922 0d00 0100     		.2byte	0x1
 7923 0d02 56       		.byte	0x56
 7924 0d03 00000000 		.4byte	0
 7925 0d07 00000000 		.4byte	0
 7926              	.LLST56:
 7927 0d0b 00000000 		.4byte	.LVL198
 7928 0d0f 21000000 		.4byte	.LVL203-1
 7929 0d13 0100     		.2byte	0x1
 7930 0d15 51       		.byte	0x51
 7931 0d16 21000000 		.4byte	.LVL203-1
ARM GAS  C:\Users\brian\AppData\Local\Temp\cclOaW4l.s 			page 161


 7932 0d1a 5E000000 		.4byte	.LVL213
 7933 0d1e 0400     		.2byte	0x4
 7934 0d20 F3       		.byte	0xf3
 7935 0d21 01       		.uleb128 0x1
 7936 0d22 51       		.byte	0x51
 7937 0d23 9F       		.byte	0x9f
 7938 0d24 5E000000 		.4byte	.LVL213
 7939 0d28 75000000 		.4byte	.LVL215-1
 7940 0d2c 0100     		.2byte	0x1
 7941 0d2e 51       		.byte	0x51
 7942 0d2f 75000000 		.4byte	.LVL215-1
 7943 0d33 78000000 		.4byte	.LVL216
 7944 0d37 0400     		.2byte	0x4
 7945 0d39 F3       		.byte	0xf3
 7946 0d3a 01       		.uleb128 0x1
 7947 0d3b 51       		.byte	0x51
 7948 0d3c 9F       		.byte	0x9f
 7949 0d3d 78000000 		.4byte	.LVL216
 7950 0d41 7C000000 		.4byte	.LFE17
 7951 0d45 0100     		.2byte	0x1
 7952 0d47 51       		.byte	0x51
 7953 0d48 00000000 		.4byte	0
 7954 0d4c 00000000 		.4byte	0
 7955              	.LLST57:
 7956 0d50 00000000 		.4byte	.LVL198
 7957 0d54 14000000 		.4byte	.LVL200
 7958 0d58 0100     		.2byte	0x1
 7959 0d5a 52       		.byte	0x52
 7960 0d5b 14000000 		.4byte	.LVL200
 7961 0d5f 3C000000 		.4byte	.LVL207
 7962 0d63 0400     		.2byte	0x4
 7963 0d65 F3       		.byte	0xf3
 7964 0d66 01       		.uleb128 0x1
 7965 0d67 52       		.byte	0x52
 7966 0d68 9F       		.byte	0x9f
 7967 0d69 3C000000 		.4byte	.LVL207
 7968 0d6d 48000000 		.4byte	.LVL209
 7969 0d71 0100     		.2byte	0x1
 7970 0d73 54       		.byte	0x54
 7971 0d74 4A000000 		.4byte	.LVL210
 7972 0d78 5E000000 		.4byte	.LVL213
 7973 0d7c 0100     		.2byte	0x1
 7974 0d7e 54       		.byte	0x54
 7975 0d7f 5E000000 		.4byte	.LVL213
 7976 0d83 7C000000 		.4byte	.LFE17
 7977 0d87 0400     		.2byte	0x4
 7978 0d89 F3       		.byte	0xf3
 7979 0d8a 01       		.uleb128 0x1
 7980 0d8b 52       		.byte	0x52
 7981 0d8c 9F       		.byte	0x9f
 7982 0d8d 00000000 		.4byte	0
 7983 0d91 00000000 		.4byte	0
 7984              	.LLST58:
 7985 0d95 00000000 		.4byte	.LVL198
 7986 0d99 0C000000 		.4byte	.LVL199
 7987 0d9d 0100     		.2byte	0x1
 7988 0d9f 53       		.byte	0x53
ARM GAS  C:\Users\brian\AppData\Local\Temp\cclOaW4l.s 			page 162


 7989 0da0 0C000000 		.4byte	.LVL199
 7990 0da4 3C000000 		.4byte	.LVL207
 7991 0da8 0100     		.2byte	0x1
 7992 0daa 55       		.byte	0x55
 7993 0dab 3C000000 		.4byte	.LVL207
 7994 0daf 5E000000 		.4byte	.LVL213
 7995 0db3 0400     		.2byte	0x4
 7996 0db5 F3       		.byte	0xf3
 7997 0db6 01       		.uleb128 0x1
 7998 0db7 53       		.byte	0x53
 7999 0db8 9F       		.byte	0x9f
 8000 0db9 5E000000 		.4byte	.LVL213
 8001 0dbd 7C000000 		.4byte	.LFE17
 8002 0dc1 0100     		.2byte	0x1
 8003 0dc3 55       		.byte	0x55
 8004 0dc4 00000000 		.4byte	0
 8005 0dc8 00000000 		.4byte	0
 8006              	.LLST59:
 8007 0dcc 3C000000 		.4byte	.LVL207
 8008 0dd0 5E000000 		.4byte	.LVL213
 8009 0dd4 0100     		.2byte	0x1
 8010 0dd6 55       		.byte	0x55
 8011 0dd7 00000000 		.4byte	0
 8012 0ddb 00000000 		.4byte	0
 8013              	.LLST60:
 8014 0ddf 00000000 		.4byte	.LVL218
 8015 0de3 23000000 		.4byte	.LVL221-1
 8016 0de7 0100     		.2byte	0x1
 8017 0de9 50       		.byte	0x50
 8018 0dea 23000000 		.4byte	.LVL221-1
 8019 0dee 42000000 		.4byte	.LVL225
 8020 0df2 0100     		.2byte	0x1
 8021 0df4 56       		.byte	0x56
 8022 0df5 42000000 		.4byte	.LVL225
 8023 0df9 47000000 		.4byte	.LVL227-1
 8024 0dfd 0100     		.2byte	0x1
 8025 0dff 50       		.byte	0x50
 8026 0e00 47000000 		.4byte	.LVL227-1
 8027 0e04 4C000000 		.4byte	.LVL228
 8028 0e08 0100     		.2byte	0x1
 8029 0e0a 56       		.byte	0x56
 8030 0e0b 4C000000 		.4byte	.LVL228
 8031 0e0f 55000000 		.4byte	.LVL229-1
 8032 0e13 0100     		.2byte	0x1
 8033 0e15 50       		.byte	0x50
 8034 0e16 55000000 		.4byte	.LVL229-1
 8035 0e1a 80000000 		.4byte	.LVL236
 8036 0e1e 0100     		.2byte	0x1
 8037 0e20 56       		.byte	0x56
 8038 0e21 80000000 		.4byte	.LVL236
 8039 0e25 96000000 		.4byte	.LVL237
 8040 0e29 0100     		.2byte	0x1
 8041 0e2b 50       		.byte	0x50
 8042 0e2c 96000000 		.4byte	.LVL237
 8043 0e30 9A000000 		.4byte	.LVL239
 8044 0e34 0100     		.2byte	0x1
 8045 0e36 56       		.byte	0x56
ARM GAS  C:\Users\brian\AppData\Local\Temp\cclOaW4l.s 			page 163


 8046 0e37 9A000000 		.4byte	.LVL239
 8047 0e3b A2000000 		.4byte	.LVL240
 8048 0e3f 0100     		.2byte	0x1
 8049 0e41 50       		.byte	0x50
 8050 0e42 A2000000 		.4byte	.LVL240
 8051 0e46 A4000000 		.4byte	.LVL241
 8052 0e4a 0100     		.2byte	0x1
 8053 0e4c 56       		.byte	0x56
 8054 0e4d A4000000 		.4byte	.LVL241
 8055 0e51 AD000000 		.4byte	.LVL242-1
 8056 0e55 0100     		.2byte	0x1
 8057 0e57 50       		.byte	0x50
 8058 0e58 AD000000 		.4byte	.LVL242-1
 8059 0e5c B8000000 		.4byte	.LVL243
 8060 0e60 0100     		.2byte	0x1
 8061 0e62 56       		.byte	0x56
 8062 0e63 B8000000 		.4byte	.LVL243
 8063 0e67 BA000000 		.4byte	.LVL244
 8064 0e6b 0100     		.2byte	0x1
 8065 0e6d 50       		.byte	0x50
 8066 0e6e BA000000 		.4byte	.LVL244
 8067 0e72 BC000000 		.4byte	.LVL245
 8068 0e76 0100     		.2byte	0x1
 8069 0e78 56       		.byte	0x56
 8070 0e79 BC000000 		.4byte	.LVL245
 8071 0e7d C0000000 		.4byte	.LFE18
 8072 0e81 0400     		.2byte	0x4
 8073 0e83 F3       		.byte	0xf3
 8074 0e84 01       		.uleb128 0x1
 8075 0e85 50       		.byte	0x50
 8076 0e86 9F       		.byte	0x9f
 8077 0e87 00000000 		.4byte	0
 8078 0e8b 00000000 		.4byte	0
 8079              	.LLST61:
 8080 0e8f 00000000 		.4byte	.LVL218
 8081 0e93 23000000 		.4byte	.LVL221-1
 8082 0e97 0100     		.2byte	0x1
 8083 0e99 51       		.byte	0x51
 8084 0e9a 23000000 		.4byte	.LVL221-1
 8085 0e9e 42000000 		.4byte	.LVL225
 8086 0ea2 0400     		.2byte	0x4
 8087 0ea4 F3       		.byte	0xf3
 8088 0ea5 01       		.uleb128 0x1
 8089 0ea6 51       		.byte	0x51
 8090 0ea7 9F       		.byte	0x9f
 8091 0ea8 42000000 		.4byte	.LVL225
 8092 0eac 44000000 		.4byte	.LVL226
 8093 0eb0 0100     		.2byte	0x1
 8094 0eb2 51       		.byte	0x51
 8095 0eb3 44000000 		.4byte	.LVL226
 8096 0eb7 4C000000 		.4byte	.LVL228
 8097 0ebb 0400     		.2byte	0x4
 8098 0ebd F3       		.byte	0xf3
 8099 0ebe 01       		.uleb128 0x1
 8100 0ebf 51       		.byte	0x51
 8101 0ec0 9F       		.byte	0x9f
 8102 0ec1 4C000000 		.4byte	.LVL228
ARM GAS  C:\Users\brian\AppData\Local\Temp\cclOaW4l.s 			page 164


 8103 0ec5 55000000 		.4byte	.LVL229-1
 8104 0ec9 0100     		.2byte	0x1
 8105 0ecb 51       		.byte	0x51
 8106 0ecc 55000000 		.4byte	.LVL229-1
 8107 0ed0 80000000 		.4byte	.LVL236
 8108 0ed4 0400     		.2byte	0x4
 8109 0ed6 F3       		.byte	0xf3
 8110 0ed7 01       		.uleb128 0x1
 8111 0ed8 51       		.byte	0x51
 8112 0ed9 9F       		.byte	0x9f
 8113 0eda 80000000 		.4byte	.LVL236
 8114 0ede 97000000 		.4byte	.LVL238-1
 8115 0ee2 0100     		.2byte	0x1
 8116 0ee4 51       		.byte	0x51
 8117 0ee5 97000000 		.4byte	.LVL238-1
 8118 0ee9 9A000000 		.4byte	.LVL239
 8119 0eed 0400     		.2byte	0x4
 8120 0eef F3       		.byte	0xf3
 8121 0ef0 01       		.uleb128 0x1
 8122 0ef1 51       		.byte	0x51
 8123 0ef2 9F       		.byte	0x9f
 8124 0ef3 9A000000 		.4byte	.LVL239
 8125 0ef7 AD000000 		.4byte	.LVL242-1
 8126 0efb 0100     		.2byte	0x1
 8127 0efd 51       		.byte	0x51
 8128 0efe AD000000 		.4byte	.LVL242-1
 8129 0f02 B8000000 		.4byte	.LVL243
 8130 0f06 0400     		.2byte	0x4
 8131 0f08 F3       		.byte	0xf3
 8132 0f09 01       		.uleb128 0x1
 8133 0f0a 51       		.byte	0x51
 8134 0f0b 9F       		.byte	0x9f
 8135 0f0c B8000000 		.4byte	.LVL243
 8136 0f10 C0000000 		.4byte	.LFE18
 8137 0f14 0100     		.2byte	0x1
 8138 0f16 51       		.byte	0x51
 8139 0f17 00000000 		.4byte	0
 8140 0f1b 00000000 		.4byte	0
 8141              	.LLST62:
 8142 0f1f 00000000 		.4byte	.LVL218
 8143 0f23 14000000 		.4byte	.LVL220
 8144 0f27 0100     		.2byte	0x1
 8145 0f29 52       		.byte	0x52
 8146 0f2a 14000000 		.4byte	.LVL220
 8147 0f2e 58000000 		.4byte	.LVL230
 8148 0f32 0400     		.2byte	0x4
 8149 0f34 F3       		.byte	0xf3
 8150 0f35 01       		.uleb128 0x1
 8151 0f36 52       		.byte	0x52
 8152 0f37 9F       		.byte	0x9f
 8153 0f38 58000000 		.4byte	.LVL230
 8154 0f3c 64000000 		.4byte	.LVL232
 8155 0f40 0100     		.2byte	0x1
 8156 0f42 54       		.byte	0x54
 8157 0f43 66000000 		.4byte	.LVL233
 8158 0f47 80000000 		.4byte	.LVL236
 8159 0f4b 0100     		.2byte	0x1
ARM GAS  C:\Users\brian\AppData\Local\Temp\cclOaW4l.s 			page 165


 8160 0f4d 54       		.byte	0x54
 8161 0f4e 80000000 		.4byte	.LVL236
 8162 0f52 C0000000 		.4byte	.LFE18
 8163 0f56 0400     		.2byte	0x4
 8164 0f58 F3       		.byte	0xf3
 8165 0f59 01       		.uleb128 0x1
 8166 0f5a 52       		.byte	0x52
 8167 0f5b 9F       		.byte	0x9f
 8168 0f5c 00000000 		.4byte	0
 8169 0f60 00000000 		.4byte	0
 8170              	.LLST63:
 8171 0f64 00000000 		.4byte	.LVL218
 8172 0f68 0C000000 		.4byte	.LVL219
 8173 0f6c 0100     		.2byte	0x1
 8174 0f6e 53       		.byte	0x53
 8175 0f6f 0C000000 		.4byte	.LVL219
 8176 0f73 58000000 		.4byte	.LVL230
 8177 0f77 0100     		.2byte	0x1
 8178 0f79 55       		.byte	0x55
 8179 0f7a 58000000 		.4byte	.LVL230
 8180 0f7e 80000000 		.4byte	.LVL236
 8181 0f82 0400     		.2byte	0x4
 8182 0f84 F3       		.byte	0xf3
 8183 0f85 01       		.uleb128 0x1
 8184 0f86 53       		.byte	0x53
 8185 0f87 9F       		.byte	0x9f
 8186 0f88 80000000 		.4byte	.LVL236
 8187 0f8c BC000000 		.4byte	.LVL245
 8188 0f90 0100     		.2byte	0x1
 8189 0f92 55       		.byte	0x55
 8190 0f93 BC000000 		.4byte	.LVL245
 8191 0f97 C0000000 		.4byte	.LFE18
 8192 0f9b 0400     		.2byte	0x4
 8193 0f9d F3       		.byte	0xf3
 8194 0f9e 01       		.uleb128 0x1
 8195 0f9f 53       		.byte	0x53
 8196 0fa0 9F       		.byte	0x9f
 8197 0fa1 00000000 		.4byte	0
 8198 0fa5 00000000 		.4byte	0
 8199              	.LLST64:
 8200 0fa9 58000000 		.4byte	.LVL230
 8201 0fad 80000000 		.4byte	.LVL236
 8202 0fb1 0100     		.2byte	0x1
 8203 0fb3 55       		.byte	0x55
 8204 0fb4 00000000 		.4byte	0
 8205 0fb8 00000000 		.4byte	0
 8206              	.LLST65:
 8207 0fbc 00000000 		.4byte	.LVL246
 8208 0fc0 1C000000 		.4byte	.LVL249
 8209 0fc4 0100     		.2byte	0x1
 8210 0fc6 50       		.byte	0x50
 8211 0fc7 1C000000 		.4byte	.LVL249
 8212 0fcb 1E000000 		.4byte	.LVL250
 8213 0fcf 0100     		.2byte	0x1
 8214 0fd1 56       		.byte	0x56
 8215 0fd2 1E000000 		.4byte	.LVL250
 8216 0fd6 21000000 		.4byte	.LVL251-1
ARM GAS  C:\Users\brian\AppData\Local\Temp\cclOaW4l.s 			page 166


 8217 0fda 0100     		.2byte	0x1
 8218 0fdc 50       		.byte	0x50
 8219 0fdd 21000000 		.4byte	.LVL251-1
 8220 0fe1 3C000000 		.4byte	.LVL255
 8221 0fe5 0100     		.2byte	0x1
 8222 0fe7 56       		.byte	0x56
 8223 0fe8 3C000000 		.4byte	.LVL255
 8224 0fec 3F000000 		.4byte	.LVL256-1
 8225 0ff0 0100     		.2byte	0x1
 8226 0ff2 50       		.byte	0x50
 8227 0ff3 3F000000 		.4byte	.LVL256-1
 8228 0ff7 7C000000 		.4byte	.LVL266
 8229 0ffb 0100     		.2byte	0x1
 8230 0ffd 56       		.byte	0x56
 8231 0ffe 7C000000 		.4byte	.LVL266
 8232 1002 92000000 		.4byte	.LVL267
 8233 1006 0100     		.2byte	0x1
 8234 1008 50       		.byte	0x50
 8235 1009 92000000 		.4byte	.LVL267
 8236 100d 96000000 		.4byte	.LVL269
 8237 1011 0100     		.2byte	0x1
 8238 1013 56       		.byte	0x56
 8239 1014 96000000 		.4byte	.LVL269
 8240 1018 98000000 		.4byte	.LVL270
 8241 101c 0100     		.2byte	0x1
 8242 101e 50       		.byte	0x50
 8243 101f 98000000 		.4byte	.LVL270
 8244 1023 9A000000 		.4byte	.LFE19
 8245 1027 0100     		.2byte	0x1
 8246 1029 56       		.byte	0x56
 8247 102a 00000000 		.4byte	0
 8248 102e 00000000 		.4byte	0
 8249              	.LLST66:
 8250 1032 00000000 		.4byte	.LVL246
 8251 1036 21000000 		.4byte	.LVL251-1
 8252 103a 0100     		.2byte	0x1
 8253 103c 51       		.byte	0x51
 8254 103d 21000000 		.4byte	.LVL251-1
 8255 1041 3C000000 		.4byte	.LVL255
 8256 1045 0400     		.2byte	0x4
 8257 1047 F3       		.byte	0xf3
 8258 1048 01       		.uleb128 0x1
 8259 1049 51       		.byte	0x51
 8260 104a 9F       		.byte	0x9f
 8261 104b 3C000000 		.4byte	.LVL255
 8262 104f 3F000000 		.4byte	.LVL256-1
 8263 1053 0100     		.2byte	0x1
 8264 1055 51       		.byte	0x51
 8265 1056 3F000000 		.4byte	.LVL256-1
 8266 105a 7C000000 		.4byte	.LVL266
 8267 105e 0400     		.2byte	0x4
 8268 1060 F3       		.byte	0xf3
 8269 1061 01       		.uleb128 0x1
 8270 1062 51       		.byte	0x51
 8271 1063 9F       		.byte	0x9f
 8272 1064 7C000000 		.4byte	.LVL266
 8273 1068 93000000 		.4byte	.LVL268-1
ARM GAS  C:\Users\brian\AppData\Local\Temp\cclOaW4l.s 			page 167


 8274 106c 0100     		.2byte	0x1
 8275 106e 51       		.byte	0x51
 8276 106f 93000000 		.4byte	.LVL268-1
 8277 1073 96000000 		.4byte	.LVL269
 8278 1077 0400     		.2byte	0x4
 8279 1079 F3       		.byte	0xf3
 8280 107a 01       		.uleb128 0x1
 8281 107b 51       		.byte	0x51
 8282 107c 9F       		.byte	0x9f
 8283 107d 96000000 		.4byte	.LVL269
 8284 1081 9A000000 		.4byte	.LFE19
 8285 1085 0100     		.2byte	0x1
 8286 1087 51       		.byte	0x51
 8287 1088 00000000 		.4byte	0
 8288 108c 00000000 		.4byte	0
 8289              	.LLST67:
 8290 1090 00000000 		.4byte	.LVL246
 8291 1094 14000000 		.4byte	.LVL248
 8292 1098 0100     		.2byte	0x1
 8293 109a 52       		.byte	0x52
 8294 109b 14000000 		.4byte	.LVL248
 8295 109f 5A000000 		.4byte	.LVL260
 8296 10a3 0400     		.2byte	0x4
 8297 10a5 F3       		.byte	0xf3
 8298 10a6 01       		.uleb128 0x1
 8299 10a7 52       		.byte	0x52
 8300 10a8 9F       		.byte	0x9f
 8301 10a9 5A000000 		.4byte	.LVL260
 8302 10ad 66000000 		.4byte	.LVL262
 8303 10b1 0100     		.2byte	0x1
 8304 10b3 54       		.byte	0x54
 8305 10b4 68000000 		.4byte	.LVL263
 8306 10b8 7C000000 		.4byte	.LVL266
 8307 10bc 0100     		.2byte	0x1
 8308 10be 54       		.byte	0x54
 8309 10bf 7C000000 		.4byte	.LVL266
 8310 10c3 9A000000 		.4byte	.LFE19
 8311 10c7 0400     		.2byte	0x4
 8312 10c9 F3       		.byte	0xf3
 8313 10ca 01       		.uleb128 0x1
 8314 10cb 52       		.byte	0x52
 8315 10cc 9F       		.byte	0x9f
 8316 10cd 00000000 		.4byte	0
 8317 10d1 00000000 		.4byte	0
 8318              	.LLST68:
 8319 10d5 00000000 		.4byte	.LVL246
 8320 10d9 0C000000 		.4byte	.LVL247
 8321 10dd 0100     		.2byte	0x1
 8322 10df 53       		.byte	0x53
 8323 10e0 0C000000 		.4byte	.LVL247
 8324 10e4 5A000000 		.4byte	.LVL260
 8325 10e8 0100     		.2byte	0x1
 8326 10ea 55       		.byte	0x55
 8327 10eb 5A000000 		.4byte	.LVL260
 8328 10ef 7C000000 		.4byte	.LVL266
 8329 10f3 0400     		.2byte	0x4
 8330 10f5 F3       		.byte	0xf3
ARM GAS  C:\Users\brian\AppData\Local\Temp\cclOaW4l.s 			page 168


 8331 10f6 01       		.uleb128 0x1
 8332 10f7 53       		.byte	0x53
 8333 10f8 9F       		.byte	0x9f
 8334 10f9 7C000000 		.4byte	.LVL266
 8335 10fd 9A000000 		.4byte	.LFE19
 8336 1101 0100     		.2byte	0x1
 8337 1103 55       		.byte	0x55
 8338 1104 00000000 		.4byte	0
 8339 1108 00000000 		.4byte	0
 8340              	.LLST69:
 8341 110c 5A000000 		.4byte	.LVL260
 8342 1110 7C000000 		.4byte	.LVL266
 8343 1114 0100     		.2byte	0x1
 8344 1116 55       		.byte	0x55
 8345 1117 00000000 		.4byte	0
 8346 111b 00000000 		.4byte	0
 8347              	.LLST70:
 8348 111f 00000000 		.4byte	.LVL271
 8349 1123 23000000 		.4byte	.LVL274-1
 8350 1127 0100     		.2byte	0x1
 8351 1129 50       		.byte	0x50
 8352 112a 23000000 		.4byte	.LVL274-1
 8353 112e 3A000000 		.4byte	.LVL277
 8354 1132 0100     		.2byte	0x1
 8355 1134 54       		.byte	0x54
 8356 1135 3A000000 		.4byte	.LVL277
 8357 1139 3F000000 		.4byte	.LVL279-1
 8358 113d 0100     		.2byte	0x1
 8359 113f 50       		.byte	0x50
 8360 1140 3F000000 		.4byte	.LVL279-1
 8361 1144 7E000000 		.4byte	.LVL289
 8362 1148 0100     		.2byte	0x1
 8363 114a 54       		.byte	0x54
 8364 114b 7E000000 		.4byte	.LVL289
 8365 114f 94000000 		.4byte	.LVL290
 8366 1153 0100     		.2byte	0x1
 8367 1155 50       		.byte	0x50
 8368 1156 94000000 		.4byte	.LVL290
 8369 115a 98000000 		.4byte	.LVL292
 8370 115e 0100     		.2byte	0x1
 8371 1160 54       		.byte	0x54
 8372 1161 98000000 		.4byte	.LVL292
 8373 1165 A0000000 		.4byte	.LVL293
 8374 1169 0100     		.2byte	0x1
 8375 116b 50       		.byte	0x50
 8376 116c A0000000 		.4byte	.LVL293
 8377 1170 A2000000 		.4byte	.LVL294
 8378 1174 0100     		.2byte	0x1
 8379 1176 54       		.byte	0x54
 8380 1177 A2000000 		.4byte	.LVL294
 8381 117b AB000000 		.4byte	.LVL295-1
 8382 117f 0100     		.2byte	0x1
 8383 1181 50       		.byte	0x50
 8384 1182 AB000000 		.4byte	.LVL295-1
 8385 1186 B0000000 		.4byte	.LVL296
 8386 118a 0100     		.2byte	0x1
 8387 118c 54       		.byte	0x54
ARM GAS  C:\Users\brian\AppData\Local\Temp\cclOaW4l.s 			page 169


 8388 118d B0000000 		.4byte	.LVL296
 8389 1191 B2000000 		.4byte	.LVL297
 8390 1195 0100     		.2byte	0x1
 8391 1197 50       		.byte	0x50
 8392 1198 B2000000 		.4byte	.LVL297
 8393 119c B4000000 		.4byte	.LVL298
 8394 11a0 0100     		.2byte	0x1
 8395 11a2 54       		.byte	0x54
 8396 11a3 B4000000 		.4byte	.LVL298
 8397 11a7 B6000000 		.4byte	.LVL299
 8398 11ab 0100     		.2byte	0x1
 8399 11ad 50       		.byte	0x50
 8400 11ae B6000000 		.4byte	.LVL299
 8401 11b2 B8000000 		.4byte	.LVL300
 8402 11b6 0100     		.2byte	0x1
 8403 11b8 54       		.byte	0x54
 8404 11b9 B8000000 		.4byte	.LVL300
 8405 11bd BC000000 		.4byte	.LFE20
 8406 11c1 0400     		.2byte	0x4
 8407 11c3 F3       		.byte	0xf3
 8408 11c4 01       		.uleb128 0x1
 8409 11c5 50       		.byte	0x50
 8410 11c6 9F       		.byte	0x9f
 8411 11c7 00000000 		.4byte	0
 8412 11cb 00000000 		.4byte	0
 8413              	.LLST71:
 8414 11cf 00000000 		.4byte	.LVL271
 8415 11d3 23000000 		.4byte	.LVL274-1
 8416 11d7 0100     		.2byte	0x1
 8417 11d9 51       		.byte	0x51
 8418 11da 23000000 		.4byte	.LVL274-1
 8419 11de 3A000000 		.4byte	.LVL277
 8420 11e2 0400     		.2byte	0x4
 8421 11e4 F3       		.byte	0xf3
 8422 11e5 01       		.uleb128 0x1
 8423 11e6 51       		.byte	0x51
 8424 11e7 9F       		.byte	0x9f
 8425 11e8 3A000000 		.4byte	.LVL277
 8426 11ec 3C000000 		.4byte	.LVL278
 8427 11f0 0100     		.2byte	0x1
 8428 11f2 51       		.byte	0x51
 8429 11f3 3C000000 		.4byte	.LVL278
 8430 11f7 7E000000 		.4byte	.LVL289
 8431 11fb 0400     		.2byte	0x4
 8432 11fd F3       		.byte	0xf3
 8433 11fe 01       		.uleb128 0x1
 8434 11ff 51       		.byte	0x51
 8435 1200 9F       		.byte	0x9f
 8436 1201 7E000000 		.4byte	.LVL289
 8437 1205 95000000 		.4byte	.LVL291-1
 8438 1209 0100     		.2byte	0x1
 8439 120b 51       		.byte	0x51
 8440 120c 95000000 		.4byte	.LVL291-1
 8441 1210 98000000 		.4byte	.LVL292
 8442 1214 0400     		.2byte	0x4
 8443 1216 F3       		.byte	0xf3
 8444 1217 01       		.uleb128 0x1
ARM GAS  C:\Users\brian\AppData\Local\Temp\cclOaW4l.s 			page 170


 8445 1218 51       		.byte	0x51
 8446 1219 9F       		.byte	0x9f
 8447 121a 98000000 		.4byte	.LVL292
 8448 121e AB000000 		.4byte	.LVL295-1
 8449 1222 0100     		.2byte	0x1
 8450 1224 51       		.byte	0x51
 8451 1225 AB000000 		.4byte	.LVL295-1
 8452 1229 B0000000 		.4byte	.LVL296
 8453 122d 0400     		.2byte	0x4
 8454 122f F3       		.byte	0xf3
 8455 1230 01       		.uleb128 0x1
 8456 1231 51       		.byte	0x51
 8457 1232 9F       		.byte	0x9f
 8458 1233 B0000000 		.4byte	.LVL296
 8459 1237 BC000000 		.4byte	.LFE20
 8460 123b 0100     		.2byte	0x1
 8461 123d 51       		.byte	0x51
 8462 123e 00000000 		.4byte	0
 8463 1242 00000000 		.4byte	0
 8464              	.LLST72:
 8465 1246 00000000 		.4byte	.LVL271
 8466 124a 14000000 		.4byte	.LVL273
 8467 124e 0100     		.2byte	0x1
 8468 1250 52       		.byte	0x52
 8469 1251 14000000 		.4byte	.LVL273
 8470 1255 44000000 		.4byte	.LVL280
 8471 1259 0400     		.2byte	0x4
 8472 125b F3       		.byte	0xf3
 8473 125c 01       		.uleb128 0x1
 8474 125d 52       		.byte	0x52
 8475 125e 9F       		.byte	0x9f
 8476 125f 44000000 		.4byte	.LVL280
 8477 1263 52000000 		.4byte	.LVL282
 8478 1267 0100     		.2byte	0x1
 8479 1269 55       		.byte	0x55
 8480 126a 54000000 		.4byte	.LVL283
 8481 126e 7E000000 		.4byte	.LVL289
 8482 1272 0100     		.2byte	0x1
 8483 1274 55       		.byte	0x55
 8484 1275 7E000000 		.4byte	.LVL289
 8485 1279 BC000000 		.4byte	.LFE20
 8486 127d 0400     		.2byte	0x4
 8487 127f F3       		.byte	0xf3
 8488 1280 01       		.uleb128 0x1
 8489 1281 52       		.byte	0x52
 8490 1282 9F       		.byte	0x9f
 8491 1283 00000000 		.4byte	0
 8492 1287 00000000 		.4byte	0
 8493              	.LLST73:
 8494 128b 00000000 		.4byte	.LVL271
 8495 128f 0C000000 		.4byte	.LVL272
 8496 1293 0100     		.2byte	0x1
 8497 1295 53       		.byte	0x53
 8498 1296 0C000000 		.4byte	.LVL272
 8499 129a 44000000 		.4byte	.LVL280
 8500 129e 0100     		.2byte	0x1
 8501 12a0 56       		.byte	0x56
ARM GAS  C:\Users\brian\AppData\Local\Temp\cclOaW4l.s 			page 171


 8502 12a1 44000000 		.4byte	.LVL280
 8503 12a5 7E000000 		.4byte	.LVL289
 8504 12a9 0400     		.2byte	0x4
 8505 12ab F3       		.byte	0xf3
 8506 12ac 01       		.uleb128 0x1
 8507 12ad 53       		.byte	0x53
 8508 12ae 9F       		.byte	0x9f
 8509 12af 7E000000 		.4byte	.LVL289
 8510 12b3 B8000000 		.4byte	.LVL300
 8511 12b7 0100     		.2byte	0x1
 8512 12b9 56       		.byte	0x56
 8513 12ba B8000000 		.4byte	.LVL300
 8514 12be BC000000 		.4byte	.LFE20
 8515 12c2 0400     		.2byte	0x4
 8516 12c4 F3       		.byte	0xf3
 8517 12c5 01       		.uleb128 0x1
 8518 12c6 53       		.byte	0x53
 8519 12c7 9F       		.byte	0x9f
 8520 12c8 00000000 		.4byte	0
 8521 12cc 00000000 		.4byte	0
 8522              	.LLST74:
 8523 12d0 44000000 		.4byte	.LVL280
 8524 12d4 7E000000 		.4byte	.LVL289
 8525 12d8 0100     		.2byte	0x1
 8526 12da 56       		.byte	0x56
 8527 12db 00000000 		.4byte	0
 8528 12df 00000000 		.4byte	0
 8529              	.LLST75:
 8530 12e3 00000000 		.4byte	.LVL301
 8531 12e7 2F000000 		.4byte	.LVL304-1
 8532 12eb 0100     		.2byte	0x1
 8533 12ed 50       		.byte	0x50
 8534 12ee 2F000000 		.4byte	.LVL304-1
 8535 12f2 40000000 		.4byte	.LVL306
 8536 12f6 0100     		.2byte	0x1
 8537 12f8 55       		.byte	0x55
 8538 12f9 40000000 		.4byte	.LVL306
 8539 12fd 49000000 		.4byte	.LVL307-1
 8540 1301 0100     		.2byte	0x1
 8541 1303 50       		.byte	0x50
 8542 1304 49000000 		.4byte	.LVL307-1
 8543 1308 62000000 		.4byte	.LVL309
 8544 130c 0100     		.2byte	0x1
 8545 130e 55       		.byte	0x55
 8546 130f 62000000 		.4byte	.LVL309
 8547 1313 75000000 		.4byte	.LVL310-1
 8548 1317 0100     		.2byte	0x1
 8549 1319 50       		.byte	0x50
 8550 131a 75000000 		.4byte	.LVL310-1
 8551 131e B0000000 		.4byte	.LVL320
 8552 1322 0100     		.2byte	0x1
 8553 1324 55       		.byte	0x55
 8554 1325 B0000000 		.4byte	.LVL320
 8555 1329 C6000000 		.4byte	.LVL321
 8556 132d 0100     		.2byte	0x1
 8557 132f 50       		.byte	0x50
 8558 1330 C6000000 		.4byte	.LVL321
ARM GAS  C:\Users\brian\AppData\Local\Temp\cclOaW4l.s 			page 172


 8559 1334 CA000000 		.4byte	.LVL323
 8560 1338 0100     		.2byte	0x1
 8561 133a 55       		.byte	0x55
 8562 133b CA000000 		.4byte	.LVL323
 8563 133f D2000000 		.4byte	.LVL324
 8564 1343 0100     		.2byte	0x1
 8565 1345 50       		.byte	0x50
 8566 1346 D2000000 		.4byte	.LVL324
 8567 134a D4000000 		.4byte	.LVL325
 8568 134e 0100     		.2byte	0x1
 8569 1350 55       		.byte	0x55
 8570 1351 D4000000 		.4byte	.LVL325
 8571 1355 DD000000 		.4byte	.LVL326-1
 8572 1359 0100     		.2byte	0x1
 8573 135b 50       		.byte	0x50
 8574 135c DD000000 		.4byte	.LVL326-1
 8575 1360 E8000000 		.4byte	.LVL327
 8576 1364 0100     		.2byte	0x1
 8577 1366 55       		.byte	0x55
 8578 1367 E8000000 		.4byte	.LVL327
 8579 136b EA000000 		.4byte	.LVL328
 8580 136f 0100     		.2byte	0x1
 8581 1371 50       		.byte	0x50
 8582 1372 EA000000 		.4byte	.LVL328
 8583 1376 EC000000 		.4byte	.LVL329
 8584 137a 0100     		.2byte	0x1
 8585 137c 55       		.byte	0x55
 8586 137d EC000000 		.4byte	.LVL329
 8587 1381 F0000000 		.4byte	.LFE21
 8588 1385 0400     		.2byte	0x4
 8589 1387 F3       		.byte	0xf3
 8590 1388 01       		.uleb128 0x1
 8591 1389 50       		.byte	0x50
 8592 138a 9F       		.byte	0x9f
 8593 138b 00000000 		.4byte	0
 8594 138f 00000000 		.4byte	0
 8595              	.LLST76:
 8596 1393 00000000 		.4byte	.LVL301
 8597 1397 2F000000 		.4byte	.LVL304-1
 8598 139b 0100     		.2byte	0x1
 8599 139d 51       		.byte	0x51
 8600 139e 2F000000 		.4byte	.LVL304-1
 8601 13a2 40000000 		.4byte	.LVL306
 8602 13a6 0400     		.2byte	0x4
 8603 13a8 F3       		.byte	0xf3
 8604 13a9 01       		.uleb128 0x1
 8605 13aa 51       		.byte	0x51
 8606 13ab 9F       		.byte	0x9f
 8607 13ac 40000000 		.4byte	.LVL306
 8608 13b0 49000000 		.4byte	.LVL307-1
 8609 13b4 0100     		.2byte	0x1
 8610 13b6 51       		.byte	0x51
 8611 13b7 49000000 		.4byte	.LVL307-1
 8612 13bb 62000000 		.4byte	.LVL309
 8613 13bf 0400     		.2byte	0x4
 8614 13c1 F3       		.byte	0xf3
 8615 13c2 01       		.uleb128 0x1
ARM GAS  C:\Users\brian\AppData\Local\Temp\cclOaW4l.s 			page 173


 8616 13c3 51       		.byte	0x51
 8617 13c4 9F       		.byte	0x9f
 8618 13c5 62000000 		.4byte	.LVL309
 8619 13c9 75000000 		.4byte	.LVL310-1
 8620 13cd 0100     		.2byte	0x1
 8621 13cf 51       		.byte	0x51
 8622 13d0 75000000 		.4byte	.LVL310-1
 8623 13d4 B0000000 		.4byte	.LVL320
 8624 13d8 0400     		.2byte	0x4
 8625 13da F3       		.byte	0xf3
 8626 13db 01       		.uleb128 0x1
 8627 13dc 51       		.byte	0x51
 8628 13dd 9F       		.byte	0x9f
 8629 13de B0000000 		.4byte	.LVL320
 8630 13e2 C7000000 		.4byte	.LVL322-1
 8631 13e6 0100     		.2byte	0x1
 8632 13e8 51       		.byte	0x51
 8633 13e9 C7000000 		.4byte	.LVL322-1
 8634 13ed CA000000 		.4byte	.LVL323
 8635 13f1 0400     		.2byte	0x4
 8636 13f3 F3       		.byte	0xf3
 8637 13f4 01       		.uleb128 0x1
 8638 13f5 51       		.byte	0x51
 8639 13f6 9F       		.byte	0x9f
 8640 13f7 CA000000 		.4byte	.LVL323
 8641 13fb DD000000 		.4byte	.LVL326-1
 8642 13ff 0100     		.2byte	0x1
 8643 1401 51       		.byte	0x51
 8644 1402 DD000000 		.4byte	.LVL326-1
 8645 1406 E8000000 		.4byte	.LVL327
 8646 140a 0400     		.2byte	0x4
 8647 140c F3       		.byte	0xf3
 8648 140d 01       		.uleb128 0x1
 8649 140e 51       		.byte	0x51
 8650 140f 9F       		.byte	0x9f
 8651 1410 E8000000 		.4byte	.LVL327
 8652 1414 F0000000 		.4byte	.LFE21
 8653 1418 0100     		.2byte	0x1
 8654 141a 51       		.byte	0x51
 8655 141b 00000000 		.4byte	0
 8656 141f 00000000 		.4byte	0
 8657              	.LLST77:
 8658 1423 00000000 		.4byte	.LVL301
 8659 1427 14000000 		.4byte	.LVL303
 8660 142b 0100     		.2byte	0x1
 8661 142d 52       		.byte	0x52
 8662 142e 14000000 		.4byte	.LVL303
 8663 1432 7E000000 		.4byte	.LVL312
 8664 1436 0400     		.2byte	0x4
 8665 1438 F3       		.byte	0xf3
 8666 1439 01       		.uleb128 0x1
 8667 143a 52       		.byte	0x52
 8668 143b 9F       		.byte	0x9f
 8669 143c 7E000000 		.4byte	.LVL312
 8670 1440 8C000000 		.4byte	.LVL314
 8671 1444 0100     		.2byte	0x1
 8672 1446 54       		.byte	0x54
ARM GAS  C:\Users\brian\AppData\Local\Temp\cclOaW4l.s 			page 174


 8673 1447 8E000000 		.4byte	.LVL315
 8674 144b B0000000 		.4byte	.LVL320
 8675 144f 0100     		.2byte	0x1
 8676 1451 54       		.byte	0x54
 8677 1452 B0000000 		.4byte	.LVL320
 8678 1456 F0000000 		.4byte	.LFE21
 8679 145a 0400     		.2byte	0x4
 8680 145c F3       		.byte	0xf3
 8681 145d 01       		.uleb128 0x1
 8682 145e 52       		.byte	0x52
 8683 145f 9F       		.byte	0x9f
 8684 1460 00000000 		.4byte	0
 8685 1464 00000000 		.4byte	0
 8686              	.LLST78:
 8687 1468 00000000 		.4byte	.LVL301
 8688 146c 0C000000 		.4byte	.LVL302
 8689 1470 0100     		.2byte	0x1
 8690 1472 53       		.byte	0x53
 8691 1473 0C000000 		.4byte	.LVL302
 8692 1477 7E000000 		.4byte	.LVL312
 8693 147b 0100     		.2byte	0x1
 8694 147d 56       		.byte	0x56
 8695 147e 7E000000 		.4byte	.LVL312
 8696 1482 B0000000 		.4byte	.LVL320
 8697 1486 0400     		.2byte	0x4
 8698 1488 F3       		.byte	0xf3
 8699 1489 01       		.uleb128 0x1
 8700 148a 53       		.byte	0x53
 8701 148b 9F       		.byte	0x9f
 8702 148c B0000000 		.4byte	.LVL320
 8703 1490 EC000000 		.4byte	.LVL329
 8704 1494 0100     		.2byte	0x1
 8705 1496 56       		.byte	0x56
 8706 1497 EC000000 		.4byte	.LVL329
 8707 149b F0000000 		.4byte	.LFE21
 8708 149f 0400     		.2byte	0x4
 8709 14a1 F3       		.byte	0xf3
 8710 14a2 01       		.uleb128 0x1
 8711 14a3 53       		.byte	0x53
 8712 14a4 9F       		.byte	0x9f
 8713 14a5 00000000 		.4byte	0
 8714 14a9 00000000 		.4byte	0
 8715              	.LLST79:
 8716 14ad 7C000000 		.4byte	.LVL311
 8717 14b1 B0000000 		.4byte	.LVL320
 8718 14b5 0100     		.2byte	0x1
 8719 14b7 56       		.byte	0x56
 8720 14b8 00000000 		.4byte	0
 8721 14bc 00000000 		.4byte	0
 8722              	.LLST80:
 8723 14c0 00000000 		.4byte	.LVL330
 8724 14c4 2B000000 		.4byte	.LVL333-1
 8725 14c8 0100     		.2byte	0x1
 8726 14ca 50       		.byte	0x50
 8727 14cb 2B000000 		.4byte	.LVL333-1
 8728 14cf 40000000 		.4byte	.LVL335
 8729 14d3 0100     		.2byte	0x1
ARM GAS  C:\Users\brian\AppData\Local\Temp\cclOaW4l.s 			page 175


 8730 14d5 55       		.byte	0x55
 8731 14d6 40000000 		.4byte	.LVL335
 8732 14da 4F000000 		.4byte	.LVL336-1
 8733 14de 0100     		.2byte	0x1
 8734 14e0 50       		.byte	0x50
 8735 14e1 4F000000 		.4byte	.LVL336-1
 8736 14e5 64000000 		.4byte	.LVL338
 8737 14e9 0100     		.2byte	0x1
 8738 14eb 55       		.byte	0x55
 8739 14ec 64000000 		.4byte	.LVL338
 8740 14f0 73000000 		.4byte	.LVL339-1
 8741 14f4 0100     		.2byte	0x1
 8742 14f6 50       		.byte	0x50
 8743 14f7 73000000 		.4byte	.LVL339-1
 8744 14fb 8C000000 		.4byte	.LVL341
 8745 14ff 0100     		.2byte	0x1
 8746 1501 55       		.byte	0x55
 8747 1502 8C000000 		.4byte	.LVL341
 8748 1506 9F000000 		.4byte	.LVL342-1
 8749 150a 0100     		.2byte	0x1
 8750 150c 50       		.byte	0x50
 8751 150d 9F000000 		.4byte	.LVL342-1
 8752 1511 B2000000 		.4byte	.LVL344
 8753 1515 0100     		.2byte	0x1
 8754 1517 55       		.byte	0x55
 8755 1518 B2000000 		.4byte	.LVL344
 8756 151c C1000000 		.4byte	.LVL345-1
 8757 1520 0100     		.2byte	0x1
 8758 1522 50       		.byte	0x50
 8759 1523 C1000000 		.4byte	.LVL345-1
 8760 1527 DA000000 		.4byte	.LVL347
 8761 152b 0100     		.2byte	0x1
 8762 152d 55       		.byte	0x55
 8763 152e DA000000 		.4byte	.LVL347
 8764 1532 ED000000 		.4byte	.LVL348-1
 8765 1536 0100     		.2byte	0x1
 8766 1538 50       		.byte	0x50
 8767 1539 ED000000 		.4byte	.LVL348-1
 8768 153d 2A010000 		.4byte	.LVL358
 8769 1541 0100     		.2byte	0x1
 8770 1543 55       		.byte	0x55
 8771 1544 2A010000 		.4byte	.LVL358
 8772 1548 40010000 		.4byte	.LVL359
 8773 154c 0100     		.2byte	0x1
 8774 154e 50       		.byte	0x50
 8775 154f 40010000 		.4byte	.LVL359
 8776 1553 44010000 		.4byte	.LVL361
 8777 1557 0100     		.2byte	0x1
 8778 1559 55       		.byte	0x55
 8779 155a 44010000 		.4byte	.LVL361
 8780 155e 4C010000 		.4byte	.LVL362
 8781 1562 0100     		.2byte	0x1
 8782 1564 50       		.byte	0x50
 8783 1565 4C010000 		.4byte	.LVL362
 8784 1569 4E010000 		.4byte	.LVL363
 8785 156d 0100     		.2byte	0x1
 8786 156f 55       		.byte	0x55
ARM GAS  C:\Users\brian\AppData\Local\Temp\cclOaW4l.s 			page 176


 8787 1570 4E010000 		.4byte	.LVL363
 8788 1574 57010000 		.4byte	.LVL364-1
 8789 1578 0100     		.2byte	0x1
 8790 157a 50       		.byte	0x50
 8791 157b 57010000 		.4byte	.LVL364-1
 8792 157f 62010000 		.4byte	.LVL365
 8793 1583 0100     		.2byte	0x1
 8794 1585 55       		.byte	0x55
 8795 1586 62010000 		.4byte	.LVL365
 8796 158a 64010000 		.4byte	.LVL366
 8797 158e 0100     		.2byte	0x1
 8798 1590 50       		.byte	0x50
 8799 1591 64010000 		.4byte	.LVL366
 8800 1595 66010000 		.4byte	.LVL367
 8801 1599 0100     		.2byte	0x1
 8802 159b 55       		.byte	0x55
 8803 159c 66010000 		.4byte	.LVL367
 8804 15a0 6C010000 		.4byte	.LFE22
 8805 15a4 0400     		.2byte	0x4
 8806 15a6 F3       		.byte	0xf3
 8807 15a7 01       		.uleb128 0x1
 8808 15a8 50       		.byte	0x50
 8809 15a9 9F       		.byte	0x9f
 8810 15aa 00000000 		.4byte	0
 8811 15ae 00000000 		.4byte	0
 8812              	.LLST81:
 8813 15b2 00000000 		.4byte	.LVL330
 8814 15b6 2B000000 		.4byte	.LVL333-1
 8815 15ba 0100     		.2byte	0x1
 8816 15bc 51       		.byte	0x51
 8817 15bd 2B000000 		.4byte	.LVL333-1
 8818 15c1 40000000 		.4byte	.LVL335
 8819 15c5 0400     		.2byte	0x4
 8820 15c7 F3       		.byte	0xf3
 8821 15c8 01       		.uleb128 0x1
 8822 15c9 51       		.byte	0x51
 8823 15ca 9F       		.byte	0x9f
 8824 15cb 40000000 		.4byte	.LVL335
 8825 15cf 4F000000 		.4byte	.LVL336-1
 8826 15d3 0100     		.2byte	0x1
 8827 15d5 51       		.byte	0x51
 8828 15d6 4F000000 		.4byte	.LVL336-1
 8829 15da 64000000 		.4byte	.LVL338
 8830 15de 0400     		.2byte	0x4
 8831 15e0 F3       		.byte	0xf3
 8832 15e1 01       		.uleb128 0x1
 8833 15e2 51       		.byte	0x51
 8834 15e3 9F       		.byte	0x9f
 8835 15e4 64000000 		.4byte	.LVL338
 8836 15e8 73000000 		.4byte	.LVL339-1
 8837 15ec 0100     		.2byte	0x1
 8838 15ee 51       		.byte	0x51
 8839 15ef 73000000 		.4byte	.LVL339-1
 8840 15f3 8C000000 		.4byte	.LVL341
 8841 15f7 0400     		.2byte	0x4
 8842 15f9 F3       		.byte	0xf3
 8843 15fa 01       		.uleb128 0x1
ARM GAS  C:\Users\brian\AppData\Local\Temp\cclOaW4l.s 			page 177


 8844 15fb 51       		.byte	0x51
 8845 15fc 9F       		.byte	0x9f
 8846 15fd 8C000000 		.4byte	.LVL341
 8847 1601 9F000000 		.4byte	.LVL342-1
 8848 1605 0100     		.2byte	0x1
 8849 1607 51       		.byte	0x51
 8850 1608 9F000000 		.4byte	.LVL342-1
 8851 160c B2000000 		.4byte	.LVL344
 8852 1610 0400     		.2byte	0x4
 8853 1612 F3       		.byte	0xf3
 8854 1613 01       		.uleb128 0x1
 8855 1614 51       		.byte	0x51
 8856 1615 9F       		.byte	0x9f
 8857 1616 B2000000 		.4byte	.LVL344
 8858 161a C1000000 		.4byte	.LVL345-1
 8859 161e 0100     		.2byte	0x1
 8860 1620 51       		.byte	0x51
 8861 1621 C1000000 		.4byte	.LVL345-1
 8862 1625 DA000000 		.4byte	.LVL347
 8863 1629 0400     		.2byte	0x4
 8864 162b F3       		.byte	0xf3
 8865 162c 01       		.uleb128 0x1
 8866 162d 51       		.byte	0x51
 8867 162e 9F       		.byte	0x9f
 8868 162f DA000000 		.4byte	.LVL347
 8869 1633 ED000000 		.4byte	.LVL348-1
 8870 1637 0100     		.2byte	0x1
 8871 1639 51       		.byte	0x51
 8872 163a ED000000 		.4byte	.LVL348-1
 8873 163e 2A010000 		.4byte	.LVL358
 8874 1642 0400     		.2byte	0x4
 8875 1644 F3       		.byte	0xf3
 8876 1645 01       		.uleb128 0x1
 8877 1646 51       		.byte	0x51
 8878 1647 9F       		.byte	0x9f
 8879 1648 2A010000 		.4byte	.LVL358
 8880 164c 41010000 		.4byte	.LVL360-1
 8881 1650 0100     		.2byte	0x1
 8882 1652 51       		.byte	0x51
 8883 1653 41010000 		.4byte	.LVL360-1
 8884 1657 44010000 		.4byte	.LVL361
 8885 165b 0400     		.2byte	0x4
 8886 165d F3       		.byte	0xf3
 8887 165e 01       		.uleb128 0x1
 8888 165f 51       		.byte	0x51
 8889 1660 9F       		.byte	0x9f
 8890 1661 44010000 		.4byte	.LVL361
 8891 1665 57010000 		.4byte	.LVL364-1
 8892 1669 0100     		.2byte	0x1
 8893 166b 51       		.byte	0x51
 8894 166c 57010000 		.4byte	.LVL364-1
 8895 1670 62010000 		.4byte	.LVL365
 8896 1674 0400     		.2byte	0x4
 8897 1676 F3       		.byte	0xf3
 8898 1677 01       		.uleb128 0x1
 8899 1678 51       		.byte	0x51
 8900 1679 9F       		.byte	0x9f
ARM GAS  C:\Users\brian\AppData\Local\Temp\cclOaW4l.s 			page 178


 8901 167a 62010000 		.4byte	.LVL365
 8902 167e 6C010000 		.4byte	.LFE22
 8903 1682 0100     		.2byte	0x1
 8904 1684 51       		.byte	0x51
 8905 1685 00000000 		.4byte	0
 8906 1689 00000000 		.4byte	0
 8907              	.LLST82:
 8908 168d 00000000 		.4byte	.LVL330
 8909 1691 16000000 		.4byte	.LVL332
 8910 1695 0100     		.2byte	0x1
 8911 1697 52       		.byte	0x52
 8912 1698 16000000 		.4byte	.LVL332
 8913 169c F8000000 		.4byte	.LVL350
 8914 16a0 0400     		.2byte	0x4
 8915 16a2 F3       		.byte	0xf3
 8916 16a3 01       		.uleb128 0x1
 8917 16a4 52       		.byte	0x52
 8918 16a5 9F       		.byte	0x9f
 8919 16a6 F8000000 		.4byte	.LVL350
 8920 16aa 06010000 		.4byte	.LVL352
 8921 16ae 0100     		.2byte	0x1
 8922 16b0 54       		.byte	0x54
 8923 16b1 08010000 		.4byte	.LVL353
 8924 16b5 2A010000 		.4byte	.LVL358
 8925 16b9 0100     		.2byte	0x1
 8926 16bb 54       		.byte	0x54
 8927 16bc 2A010000 		.4byte	.LVL358
 8928 16c0 6C010000 		.4byte	.LFE22
 8929 16c4 0400     		.2byte	0x4
 8930 16c6 F3       		.byte	0xf3
 8931 16c7 01       		.uleb128 0x1
 8932 16c8 52       		.byte	0x52
 8933 16c9 9F       		.byte	0x9f
 8934 16ca 00000000 		.4byte	0
 8935 16ce 00000000 		.4byte	0
 8936              	.LLST83:
 8937 16d2 00000000 		.4byte	.LVL330
 8938 16d6 0C000000 		.4byte	.LVL331
 8939 16da 0100     		.2byte	0x1
 8940 16dc 53       		.byte	0x53
 8941 16dd 0C000000 		.4byte	.LVL331
 8942 16e1 F8000000 		.4byte	.LVL350
 8943 16e5 0100     		.2byte	0x1
 8944 16e7 56       		.byte	0x56
 8945 16e8 F8000000 		.4byte	.LVL350
 8946 16ec 2A010000 		.4byte	.LVL358
 8947 16f0 0400     		.2byte	0x4
 8948 16f2 F3       		.byte	0xf3
 8949 16f3 01       		.uleb128 0x1
 8950 16f4 53       		.byte	0x53
 8951 16f5 9F       		.byte	0x9f
 8952 16f6 2A010000 		.4byte	.LVL358
 8953 16fa 66010000 		.4byte	.LVL367
 8954 16fe 0100     		.2byte	0x1
 8955 1700 56       		.byte	0x56
 8956 1701 66010000 		.4byte	.LVL367
 8957 1705 6C010000 		.4byte	.LFE22
ARM GAS  C:\Users\brian\AppData\Local\Temp\cclOaW4l.s 			page 179


 8958 1709 0400     		.2byte	0x4
 8959 170b F3       		.byte	0xf3
 8960 170c 01       		.uleb128 0x1
 8961 170d 53       		.byte	0x53
 8962 170e 9F       		.byte	0x9f
 8963 170f 00000000 		.4byte	0
 8964 1713 00000000 		.4byte	0
 8965              	.LLST84:
 8966 1717 F6000000 		.4byte	.LVL349
 8967 171b 2A010000 		.4byte	.LVL358
 8968 171f 0100     		.2byte	0x1
 8969 1721 56       		.byte	0x56
 8970 1722 00000000 		.4byte	0
 8971 1726 00000000 		.4byte	0
 8972              		.section	.debug_aranges,"",%progbits
 8973 0000 CC000000 		.4byte	0xcc
 8974 0004 0200     		.2byte	0x2
 8975 0006 00000000 		.4byte	.Ldebug_info0
 8976 000a 04       		.byte	0x4
 8977 000b 00       		.byte	0
 8978 000c 0000     		.2byte	0
 8979 000e 0000     		.2byte	0
 8980 0010 00000000 		.4byte	.LFB16
 8981 0014 28000000 		.4byte	.LFE16-.LFB16
 8982 0018 00000000 		.4byte	.LFB0
 8983 001c 0E000000 		.4byte	.LFE0-.LFB0
 8984 0020 00000000 		.4byte	.LFB1
 8985 0024 0E000000 		.4byte	.LFE1-.LFB1
 8986 0028 00000000 		.4byte	.LFB2
 8987 002c 22000000 		.4byte	.LFE2-.LFB2
 8988 0030 00000000 		.4byte	.LFB3
 8989 0034 0E000000 		.4byte	.LFE3-.LFB3
 8990 0038 00000000 		.4byte	.LFB4
 8991 003c 0E000000 		.4byte	.LFE4-.LFB4
 8992 0040 00000000 		.4byte	.LFB5
 8993 0044 0E000000 		.4byte	.LFE5-.LFB5
 8994 0048 00000000 		.4byte	.LFB6
 8995 004c 54000000 		.4byte	.LFE6-.LFB6
 8996 0050 00000000 		.4byte	.LFB7
 8997 0054 1C000000 		.4byte	.LFE7-.LFB7
 8998 0058 00000000 		.4byte	.LFB8
 8999 005c 6A000000 		.4byte	.LFE8-.LFB8
 9000 0060 00000000 		.4byte	.LFB9
 9001 0064 32000000 		.4byte	.LFE9-.LFB9
 9002 0068 00000000 		.4byte	.LFB10
 9003 006c 62000000 		.4byte	.LFE10-.LFB10
 9004 0070 00000000 		.4byte	.LFB11
 9005 0074 94000000 		.4byte	.LFE11-.LFB11
 9006 0078 00000000 		.4byte	.LFB12
 9007 007c 62000000 		.4byte	.LFE12-.LFB12
 9008 0080 00000000 		.4byte	.LFB13
 9009 0084 62000000 		.4byte	.LFE13-.LFB13
 9010 0088 00000000 		.4byte	.LFB14
 9011 008c 62000000 		.4byte	.LFE14-.LFB14
 9012 0090 00000000 		.4byte	.LFB15
 9013 0094 04010000 		.4byte	.LFE15-.LFB15
 9014 0098 00000000 		.4byte	.LFB17
ARM GAS  C:\Users\brian\AppData\Local\Temp\cclOaW4l.s 			page 180


 9015 009c 7C000000 		.4byte	.LFE17-.LFB17
 9016 00a0 00000000 		.4byte	.LFB18
 9017 00a4 C0000000 		.4byte	.LFE18-.LFB18
 9018 00a8 00000000 		.4byte	.LFB19
 9019 00ac 9A000000 		.4byte	.LFE19-.LFB19
 9020 00b0 00000000 		.4byte	.LFB20
 9021 00b4 BC000000 		.4byte	.LFE20-.LFB20
 9022 00b8 00000000 		.4byte	.LFB21
 9023 00bc F0000000 		.4byte	.LFE21-.LFB21
 9024 00c0 00000000 		.4byte	.LFB22
 9025 00c4 6C010000 		.4byte	.LFE22-.LFB22
 9026 00c8 00000000 		.4byte	0
 9027 00cc 00000000 		.4byte	0
 9028              		.section	.debug_ranges,"",%progbits
 9029              	.Ldebug_ranges0:
 9030 0000 00000000 		.4byte	.LFB16
 9031 0004 28000000 		.4byte	.LFE16
 9032 0008 00000000 		.4byte	.LFB0
 9033 000c 0E000000 		.4byte	.LFE0
 9034 0010 00000000 		.4byte	.LFB1
 9035 0014 0E000000 		.4byte	.LFE1
 9036 0018 00000000 		.4byte	.LFB2
 9037 001c 22000000 		.4byte	.LFE2
 9038 0020 00000000 		.4byte	.LFB3
 9039 0024 0E000000 		.4byte	.LFE3
 9040 0028 00000000 		.4byte	.LFB4
 9041 002c 0E000000 		.4byte	.LFE4
 9042 0030 00000000 		.4byte	.LFB5
 9043 0034 0E000000 		.4byte	.LFE5
 9044 0038 00000000 		.4byte	.LFB6
 9045 003c 54000000 		.4byte	.LFE6
 9046 0040 00000000 		.4byte	.LFB7
 9047 0044 1C000000 		.4byte	.LFE7
 9048 0048 00000000 		.4byte	.LFB8
 9049 004c 6A000000 		.4byte	.LFE8
 9050 0050 00000000 		.4byte	.LFB9
 9051 0054 32000000 		.4byte	.LFE9
 9052 0058 00000000 		.4byte	.LFB10
 9053 005c 62000000 		.4byte	.LFE10
 9054 0060 00000000 		.4byte	.LFB11
 9055 0064 94000000 		.4byte	.LFE11
 9056 0068 00000000 		.4byte	.LFB12
 9057 006c 62000000 		.4byte	.LFE12
 9058 0070 00000000 		.4byte	.LFB13
 9059 0074 62000000 		.4byte	.LFE13
 9060 0078 00000000 		.4byte	.LFB14
 9061 007c 62000000 		.4byte	.LFE14
 9062 0080 00000000 		.4byte	.LFB15
 9063 0084 04010000 		.4byte	.LFE15
 9064 0088 00000000 		.4byte	.LFB17
 9065 008c 7C000000 		.4byte	.LFE17
 9066 0090 00000000 		.4byte	.LFB18
 9067 0094 C0000000 		.4byte	.LFE18
 9068 0098 00000000 		.4byte	.LFB19
 9069 009c 9A000000 		.4byte	.LFE19
 9070 00a0 00000000 		.4byte	.LFB20
 9071 00a4 BC000000 		.4byte	.LFE20
ARM GAS  C:\Users\brian\AppData\Local\Temp\cclOaW4l.s 			page 181


 9072 00a8 00000000 		.4byte	.LFB21
 9073 00ac F0000000 		.4byte	.LFE21
 9074 00b0 00000000 		.4byte	.LFB22
 9075 00b4 6C010000 		.4byte	.LFE22
 9076 00b8 00000000 		.4byte	0
 9077 00bc 00000000 		.4byte	0
 9078              		.section	.debug_line,"",%progbits
 9079              	.Ldebug_line0:
 9080 0000 7E050000 		.section	.debug_str,"MS",%progbits,1
 9080      0200C501 
 9080      00000201 
 9080      FB0E0D00 
 9080      01010101 
 9081              	.LASF46:
 9082 0000 72657365 		.ascii	"reset_pulse_width_ms\000"
 9082      745F7075 
 9082      6C73655F 
 9082      77696474 
 9082      685F6D73 
 9083              	.LASF3:
 9084 0015 5F5F7569 		.ascii	"__uint8_t\000"
 9084      6E74385F 
 9084      7400
 9085              	.LASF25:
 9086 001f 62797465 		.ascii	"byte_cb\000"
 9086      5F636200 
 9087              	.LASF16:
 9088 0027 76615F6C 		.ascii	"va_list\000"
 9088      69737400 
 9089              	.LASF77:
 9090 002f 75387838 		.ascii	"u8x8_cad_empty\000"
 9090      5F636164 
 9090      5F656D70 
 9090      747900
 9091              	.LASF78:
 9092 003e 75387838 		.ascii	"u8x8_cad_110\000"
 9092      5F636164 
 9092      5F313130 
 9092      00
 9093              	.LASF10:
 9094 004b 6C6F6E67 		.ascii	"long long unsigned int\000"
 9094      206C6F6E 
 9094      6720756E 
 9094      7369676E 
 9094      65642069 
 9095              	.LASF94:
 9096 0062 75387838 		.ascii	"u8x8_byte_SendByte\000"
 9096      5F627974 
 9096      655F5365 
 9096      6E644279 
 9096      746500
 9097              	.LASF47:
 9098 0075 706F7374 		.ascii	"post_reset_wait_ms\000"
 9098      5F726573 
 9098      65745F77 
 9098      6169745F 
 9098      6D7300
ARM GAS  C:\Users\brian\AppData\Local\Temp\cclOaW4l.s 			page 182


 9099              	.LASF34:
 9100 0088 75746638 		.ascii	"utf8_state\000"
 9100      5F737461 
 9100      746500
 9101              	.LASF88:
 9102 0093 75387838 		.ascii	"u8x8_cad_st75256_i2c\000"
 9102      5F636164 
 9102      5F737437 
 9102      35323536 
 9102      5F693263 
 9103              	.LASF35:
 9104 00a8 6770696F 		.ascii	"gpio_result\000"
 9104      5F726573 
 9104      756C7400 
 9105              	.LASF74:
 9106 00b4 75387838 		.ascii	"u8x8_cad_vsendf\000"
 9106      5F636164 
 9106      5F767365 
 9106      6E646600 
 9107              	.LASF81:
 9108 00c4 75387838 		.ascii	"u8x8_cad_001\000"
 9108      5F636164 
 9108      5F303031 
 9108      00
 9109              	.LASF9:
 9110 00d1 6C6F6E67 		.ascii	"long long int\000"
 9110      206C6F6E 
 9110      6720696E 
 9110      7400
 9111              	.LASF0:
 9112 00df 7369676E 		.ascii	"signed char\000"
 9112      65642063 
 9112      68617200 
 9113              	.LASF31:
 9114 00eb 69735F66 		.ascii	"is_font_inverse_mode\000"
 9114      6F6E745F 
 9114      696E7665 
 9114      7273655F 
 9114      6D6F6465 
 9115              	.LASF96:
 9116 0100 75387838 		.ascii	"u8x8_gpio_call\000"
 9116      5F677069 
 9116      6F5F6361 
 9116      6C6C00
 9117              	.LASF23:
 9118 010f 64697370 		.ascii	"display_cb\000"
 9118      6C61795F 
 9118      636200
 9119              	.LASF97:
 9120 011a 75387838 		.ascii	"u8x8_byte_SetDC\000"
 9120      5F627974 
 9120      655F5365 
 9120      74444300 
 9121              	.LASF45:
 9122 012a 7072655F 		.ascii	"pre_chip_disable_wait_ns\000"
 9122      63686970 
 9122      5F646973 
ARM GAS  C:\Users\brian\AppData\Local\Temp\cclOaW4l.s 			page 183


 9122      61626C65 
 9122      5F776169 
 9123              	.LASF89:
 9124 0143 75387838 		.ascii	"u8x8_cad_ld7032_i2c\000"
 9124      5F636164 
 9124      5F6C6437 
 9124      3033325F 
 9124      69326300 
 9125              	.LASF6:
 9126 0157 6C6F6E67 		.ascii	"long int\000"
 9126      20696E74 
 9126      00
 9127              	.LASF79:
 9128 0160 75387838 		.ascii	"u8x8_gu800_cad_110\000"
 9128      5F677538 
 9128      30305F63 
 9128      61645F31 
 9128      313000
 9129              	.LASF19:
 9130 0173 5F5F7661 		.ascii	"__va_list\000"
 9130      5F6C6973 
 9130      7400
 9131              	.LASF76:
 9132 017d 75387838 		.ascii	"u8x8_cad_SendSequence\000"
 9132      5F636164 
 9132      5F53656E 
 9132      64536571 
 9132      75656E63 
 9133              	.LASF83:
 9134 0193 75387838 		.ascii	"u8x8_cad_st7920_spi\000"
 9134      5F636164 
 9134      5F737437 
 9134      3932305F 
 9134      73706900 
 9135              	.LASF13:
 9136 01a7 75696E74 		.ascii	"uint16_t\000"
 9136      31365F74 
 9136      00
 9137              	.LASF22:
 9138 01b0 6E657874 		.ascii	"next_cb\000"
 9138      5F636200 
 9139              	.LASF62:
 9140 01b8 75387838 		.ascii	"u8x8_char_cb\000"
 9140      5F636861 
 9140      725F6362 
 9140      00
 9141              	.LASF26:
 9142 01c5 6770696F 		.ascii	"gpio_and_delay_cb\000"
 9142      5F616E64 
 9142      5F64656C 
 9142      61795F63 
 9142      6200
 9143              	.LASF82:
 9144 01d7 75387838 		.ascii	"u8x8_cad_011\000"
 9144      5F636164 
 9144      5F303131 
 9144      00
ARM GAS  C:\Users\brian\AppData\Local\Temp\cclOaW4l.s 			page 184


 9145              	.LASF40:
 9146 01e4 75387838 		.ascii	"u8x8_display_info_t\000"
 9146      5F646973 
 9146      706C6179 
 9146      5F696E66 
 9146      6F5F7400 
 9147              	.LASF7:
 9148 01f8 5F5F7569 		.ascii	"__uint32_t\000"
 9148      6E743332 
 9148      5F7400
 9149              	.LASF48:
 9150 0203 7364615F 		.ascii	"sda_setup_time_ns\000"
 9150      73657475 
 9150      705F7469 
 9150      6D655F6E 
 9150      7300
 9151              	.LASF39:
 9152 0215 6465626F 		.ascii	"debounce_result_msg\000"
 9152      756E6365 
 9152      5F726573 
 9152      756C745F 
 9152      6D736700 
 9153              	.LASF11:
 9154 0229 756E7369 		.ascii	"unsigned int\000"
 9154      676E6564 
 9154      20696E74 
 9154      00
 9155              	.LASF64:
 9156 0236 6172675F 		.ascii	"arg_int\000"
 9156      696E7400 
 9157              	.LASF75:
 9158 023e 75387838 		.ascii	"u8x8_SendF\000"
 9158      5F53656E 
 9158      644600
 9159              	.LASF32:
 9160 0249 6932635F 		.ascii	"i2c_address\000"
 9160      61646472 
 9160      65737300 
 9161              	.LASF8:
 9162 0255 6C6F6E67 		.ascii	"long unsigned int\000"
 9162      20756E73 
 9162      69676E65 
 9162      6420696E 
 9162      7400
 9163              	.LASF70:
 9164 0267 64617461 		.ascii	"data\000"
 9164      00
 9165              	.LASF69:
 9166 026c 75387838 		.ascii	"u8x8_cad_SendData\000"
 9166      5F636164 
 9166      5F53656E 
 9166      64446174 
 9166      6100
 9167              	.LASF5:
 9168 027e 73686F72 		.ascii	"short unsigned int\000"
 9168      7420756E 
 9168      7369676E 
ARM GAS  C:\Users\brian\AppData\Local\Temp\cclOaW4l.s 			page 185


 9168      65642069 
 9168      6E7400
 9169              	.LASF37:
 9170 0291 6465626F 		.ascii	"debounce_last_pin_state\000"
 9170      756E6365 
 9170      5F6C6173 
 9170      745F7069 
 9170      6E5F7374 
 9171              	.LASF21:
 9172 02a9 64697370 		.ascii	"display_info\000"
 9172      6C61795F 
 9172      696E666F 
 9172      00
 9173              	.LASF98:
 9174 02b6 75387838 		.ascii	"u8x8_byte_SendBytes\000"
 9174      5F627974 
 9174      655F5365 
 9174      6E644279 
 9174      74657300 
 9175              	.LASF49:
 9176 02ca 73636B5F 		.ascii	"sck_pulse_width_ns\000"
 9176      70756C73 
 9176      655F7769 
 9176      6474685F 
 9176      6E7300
 9177              	.LASF20:
 9178 02dd 75387838 		.ascii	"u8x8_struct\000"
 9178      5F737472 
 9178      75637400 
 9179              	.LASF92:
 9180 02e9 75387838 		.ascii	"u8x8_cad_uc1638_i2c\000"
 9180      5F636164 
 9180      5F756331 
 9180      3633385F 
 9180      69326300 
 9181              	.LASF57:
 9182 02fd 64656661 		.ascii	"default_x_offset\000"
 9182      756C745F 
 9182      785F6F66 
 9182      66736574 
 9182      00
 9183              	.LASF29:
 9184 030e 656E636F 		.ascii	"encoding\000"
 9184      64696E67 
 9184      00
 9185              	.LASF58:
 9186 0317 666C6970 		.ascii	"flipmode_x_offset\000"
 9186      6D6F6465 
 9186      5F785F6F 
 9186      66667365 
 9186      7400
 9187              	.LASF91:
 9188 0329 69735F64 		.ascii	"is_data\000"
 9188      61746100 
 9189              	.LASF84:
 9190 0331 73697A65 		.ascii	"sizetype\000"
 9190      74797065 
ARM GAS  C:\Users\brian\AppData\Local\Temp\cclOaW4l.s 			page 186


 9190      00
 9191              	.LASF85:
 9192 033a 75387838 		.ascii	"u8x8_cad_ssd13xx_i2c\000"
 9192      5F636164 
 9192      5F737364 
 9192      31337878 
 9192      5F693263 
 9193              	.LASF17:
 9194 034f 6C6F6E67 		.ascii	"long double\000"
 9194      20646F75 
 9194      626C6500 
 9195              	.LASF15:
 9196 035b 5F5F676E 		.ascii	"__gnuc_va_list\000"
 9196      75635F76 
 9196      615F6C69 
 9196      737400
 9197              	.LASF24:
 9198 036a 6361645F 		.ascii	"cad_cb\000"
 9198      636200
 9199              	.LASF54:
 9200 0371 77726974 		.ascii	"write_pulse_width_ns\000"
 9200      655F7075 
 9200      6C73655F 
 9200      77696474 
 9200      685F6E73 
 9201              	.LASF87:
 9202 0386 696E5F74 		.ascii	"in_transfer\000"
 9202      72616E73 
 9202      66657200 
 9203              	.LASF30:
 9204 0392 785F6F66 		.ascii	"x_offset\000"
 9204      66736574 
 9204      00
 9205              	.LASF95:
 9206 039b 75387838 		.ascii	"u8x8_byte_EndTransfer\000"
 9206      5F627974 
 9206      655F456E 
 9206      64547261 
 9206      6E736665 
 9207              	.LASF56:
 9208 03b1 74696C65 		.ascii	"tile_height\000"
 9208      5F686569 
 9208      67687400 
 9209              	.LASF101:
 9210 03bd 433A5C55 		.ascii	"C:\\Users\\brian\\Documents\\PSoC Creator\\Lab7\\La"
 9210      73657273 
 9210      5C627269 
 9210      616E5C44 
 9210      6F63756D 
 9211 03ea 62372E63 		.ascii	"b7.cydsn\000"
 9211      7964736E 
 9211      00
 9212              	.LASF61:
 9213 03f3 75387838 		.ascii	"u8x8_msg_cb\000"
 9213      5F6D7367 
 9213      5F636200 
 9214              	.LASF1:
ARM GAS  C:\Users\brian\AppData\Local\Temp\cclOaW4l.s 			page 187


 9215 03ff 756E7369 		.ascii	"unsigned char\000"
 9215      676E6564 
 9215      20636861 
 9215      7200
 9216              	.LASF2:
 9217 040d 73686F72 		.ascii	"short int\000"
 9217      7420696E 
 9217      7400
 9218              	.LASF63:
 9219 0417 75387838 		.ascii	"u8x8\000"
 9219      00
 9220              	.LASF99:
 9221 041c 474E5520 		.ascii	"GNU C11 5.4.1 20160609 (release) [ARM/embedded-5-br"
 9221      43313120 
 9221      352E342E 
 9221      31203230 
 9221      31363036 
 9222 044f 616E6368 		.ascii	"anch revision 237715] -mcpu=cortex-m3 -mthumb -g -O"
 9222      20726576 
 9222      6973696F 
 9222      6E203233 
 9222      37373135 
 9223 0482 67202D66 		.ascii	"g -ffunction-sections -ffat-lto-objects\000"
 9223      66756E63 
 9223      74696F6E 
 9223      2D736563 
 9223      74696F6E 
 9224              	.LASF100:
 9225 04aa 2E2E5C75 		.ascii	"..\\u8g2\\csrc\\u8x8_cad.c\000"
 9225      3867325C 
 9225      63737263 
 9225      5C753878 
 9225      385F6361 
 9226              	.LASF53:
 9227 04c2 64617461 		.ascii	"data_setup_time_ns\000"
 9227      5F736574 
 9227      75705F74 
 9227      696D655F 
 9227      6E7300
 9228              	.LASF52:
 9229 04d5 6932635F 		.ascii	"i2c_bus_clock_100kHz\000"
 9229      6275735F 
 9229      636C6F63 
 9229      6B5F3130 
 9229      306B487A 
 9230              	.LASF14:
 9231 04ea 75696E74 		.ascii	"uint32_t\000"
 9231      33325F74 
 9231      00
 9232              	.LASF71:
 9233 04f3 75387838 		.ascii	"u8x8_cad_StartTransfer\000"
 9233      5F636164 
 9233      5F537461 
 9233      72745472 
 9233      616E7366 
 9234              	.LASF90:
 9235 050a 75387838 		.ascii	"u8x8_cad_uc16xx_i2c\000"
ARM GAS  C:\Users\brian\AppData\Local\Temp\cclOaW4l.s 			page 188


 9235      5F636164 
 9235      5F756331 
 9235      3678785F 
 9235      69326300 
 9236              	.LASF51:
 9237 051e 7370695F 		.ascii	"spi_mode\000"
 9237      6D6F6465 
 9237      00
 9238              	.LASF42:
 9239 0527 63686970 		.ascii	"chip_enable_level\000"
 9239      5F656E61 
 9239      626C655F 
 9239      6C657665 
 9239      6C00
 9240              	.LASF73:
 9241 0539 63686172 		.ascii	"char\000"
 9241      00
 9242              	.LASF4:
 9243 053e 5F5F7569 		.ascii	"__uint16_t\000"
 9243      6E743136 
 9243      5F7400
 9244              	.LASF72:
 9245 0549 75387838 		.ascii	"u8x8_cad_EndTransfer\000"
 9245      5F636164 
 9245      5F456E64 
 9245      5472616E 
 9245      73666572 
 9246              	.LASF44:
 9247 055e 706F7374 		.ascii	"post_chip_enable_wait_ns\000"
 9247      5F636869 
 9247      705F656E 
 9247      61626C65 
 9247      5F776169 
 9248              	.LASF93:
 9249 0577 75387838 		.ascii	"u8x8_byte_StartTransfer\000"
 9249      5F627974 
 9249      655F5374 
 9249      61727454 
 9249      72616E73 
 9250              	.LASF18:
 9251 058f 75387838 		.ascii	"u8x8_t\000"
 9251      5F7400
 9252              	.LASF102:
 9253 0596 5F5F6170 		.ascii	"__ap\000"
 9253      00
 9254              	.LASF27:
 9255 059b 6275735F 		.ascii	"bus_clock\000"
 9255      636C6F63 
 9255      6B00
 9256              	.LASF38:
 9257 05a5 6465626F 		.ascii	"debounce_state\000"
 9257      756E6365 
 9257      5F737461 
 9257      746500
 9258              	.LASF65:
 9259 05b4 6172675F 		.ascii	"arg_ptr\000"
 9259      70747200 
ARM GAS  C:\Users\brian\AppData\Local\Temp\cclOaW4l.s 			page 189


 9260              	.LASF43:
 9261 05bc 63686970 		.ascii	"chip_disable_level\000"
 9261      5F646973 
 9261      61626C65 
 9261      5F6C6576 
 9261      656C00
 9262              	.LASF28:
 9263 05cf 666F6E74 		.ascii	"font\000"
 9263      00
 9264              	.LASF103:
 9265 05d4 75387838 		.ascii	"u8x8_i2c_data_transfer\000"
 9265      5F693263 
 9265      5F646174 
 9265      615F7472 
 9265      616E7366 
 9266              	.LASF12:
 9267 05eb 75696E74 		.ascii	"uint8_t\000"
 9267      385F7400 
 9268              	.LASF33:
 9269 05f3 6932635F 		.ascii	"i2c_started\000"
 9269      73746172 
 9269      74656400 
 9270              	.LASF59:
 9271 05ff 70697865 		.ascii	"pixel_width\000"
 9271      6C5F7769 
 9271      64746800 
 9272              	.LASF55:
 9273 060b 74696C65 		.ascii	"tile_width\000"
 9273      5F776964 
 9273      746800
 9274              	.LASF36:
 9275 0616 6465626F 		.ascii	"debounce_default_pin_state\000"
 9275      756E6365 
 9275      5F646566 
 9275      61756C74 
 9275      5F70696E 
 9276              	.LASF86:
 9277 0631 75387838 		.ascii	"u8x8_cad_ssd13xx_fast_i2c\000"
 9277      5F636164 
 9277      5F737364 
 9277      31337878 
 9277      5F666173 
 9278              	.LASF68:
 9279 064b 75387838 		.ascii	"u8x8_cad_SendMultipleArg\000"
 9279      5F636164 
 9279      5F53656E 
 9279      644D756C 
 9279      7469706C 
 9280              	.LASF66:
 9281 0664 75387838 		.ascii	"u8x8_cad_SendCmd\000"
 9281      5F636164 
 9281      5F53656E 
 9281      64436D64 
 9281      00
 9282              	.LASF41:
 9283 0675 75387838 		.ascii	"u8x8_display_info_struct\000"
 9283      5F646973 
ARM GAS  C:\Users\brian\AppData\Local\Temp\cclOaW4l.s 			page 190


 9283      706C6179 
 9283      5F696E66 
 9283      6F5F7374 
 9284              	.LASF80:
 9285 068e 75387838 		.ascii	"u8x8_cad_100\000"
 9285      5F636164 
 9285      5F313030 
 9285      00
 9286              	.LASF67:
 9287 069b 75387838 		.ascii	"u8x8_cad_SendArg\000"
 9287      5F636164 
 9287      5F53656E 
 9287      64417267 
 9287      00
 9288              	.LASF60:
 9289 06ac 70697865 		.ascii	"pixel_height\000"
 9289      6C5F6865 
 9289      69676874 
 9289      00
 9290              	.LASF50:
 9291 06b9 73636B5F 		.ascii	"sck_clock_hz\000"
 9291      636C6F63 
 9291      6B5F687A 
 9291      00
 9292              		.ident	"GCC: (GNU Tools for ARM Embedded Processors) 5.4.1 20160609 (release) [ARM/embedded-5-bran
