ARM GAS  C:\Users\brian\AppData\Local\Temp\ccrEtcRa.s 			page 1


   1              		.syntax unified
   2              		.cpu cortex-m3
   3              		.fpu softvfp
   4              		.eabi_attribute 20, 1
   5              		.eabi_attribute 21, 1
   6              		.eabi_attribute 23, 3
   7              		.eabi_attribute 24, 1
   8              		.eabi_attribute 25, 1
   9              		.eabi_attribute 26, 1
  10              		.eabi_attribute 30, 1
  11              		.eabi_attribute 34, 1
  12              		.eabi_attribute 18, 4
  13              		.thumb
  14              		.syntax unified
  15              		.file	"u8x8_d_stdio.c"
  16              		.text
  17              	.Ltext0:
  18              		.cfi_sections	.debug_frame
  19              		.section	.text.bitmap_place_tile,"ax",%progbits
  20              		.align	2
  21              		.global	bitmap_place_tile
  22              		.thumb
  23              		.thumb_func
  24              		.type	bitmap_place_tile, %function
  25              	bitmap_place_tile:
  26              	.LFB1:
  27              		.file 1 "..\\u8g2\\csrc\\u8x8_d_stdio.c"
   1:..\u8g2\csrc/u8x8_d_stdio.c **** /*
   2:..\u8g2\csrc/u8x8_d_stdio.c **** 
   3:..\u8g2\csrc/u8x8_d_stdio.c ****   u8x8_d_stdio.c
   4:..\u8g2\csrc/u8x8_d_stdio.c **** 
   5:..\u8g2\csrc/u8x8_d_stdio.c ****   Universal 8bit Graphics Library (https://github.com/olikraus/u8g2/)
   6:..\u8g2\csrc/u8x8_d_stdio.c **** 
   7:..\u8g2\csrc/u8x8_d_stdio.c ****   Copyright (c) 2016, olikraus@gmail.com
   8:..\u8g2\csrc/u8x8_d_stdio.c ****   All rights reserved.
   9:..\u8g2\csrc/u8x8_d_stdio.c **** 
  10:..\u8g2\csrc/u8x8_d_stdio.c ****   Redistribution and use in source and binary forms, with or without modification, 
  11:..\u8g2\csrc/u8x8_d_stdio.c ****   are permitted provided that the following conditions are met:
  12:..\u8g2\csrc/u8x8_d_stdio.c **** 
  13:..\u8g2\csrc/u8x8_d_stdio.c ****   * Redistributions of source code must retain the above copyright notice, this list 
  14:..\u8g2\csrc/u8x8_d_stdio.c ****     of conditions and the following disclaimer.
  15:..\u8g2\csrc/u8x8_d_stdio.c ****     
  16:..\u8g2\csrc/u8x8_d_stdio.c ****   * Redistributions in binary form must reproduce the above copyright notice, this 
  17:..\u8g2\csrc/u8x8_d_stdio.c ****     list of conditions and the following disclaimer in the documentation and/or other 
  18:..\u8g2\csrc/u8x8_d_stdio.c ****     materials provided with the distribution.
  19:..\u8g2\csrc/u8x8_d_stdio.c **** 
  20:..\u8g2\csrc/u8x8_d_stdio.c ****   THIS SOFTWARE IS PROVIDED BY THE COPYRIGHT HOLDERS AND 
  21:..\u8g2\csrc/u8x8_d_stdio.c ****   CONTRIBUTORS "AS IS" AND ANY EXPRESS OR IMPLIED WARRANTIES, 
  22:..\u8g2\csrc/u8x8_d_stdio.c ****   INCLUDING, BUT NOT LIMITED TO, THE IMPLIED WARRANTIES OF 
  23:..\u8g2\csrc/u8x8_d_stdio.c ****   MERCHANTABILITY AND FITNESS FOR A PARTICULAR PURPOSE ARE 
  24:..\u8g2\csrc/u8x8_d_stdio.c ****   DISCLAIMED. IN NO EVENT SHALL THE COPYRIGHT HOLDER OR 
  25:..\u8g2\csrc/u8x8_d_stdio.c ****   CONTRIBUTORS BE LIABLE FOR ANY DIRECT, INDIRECT, INCIDENTAL, 
  26:..\u8g2\csrc/u8x8_d_stdio.c ****   SPECIAL, EXEMPLARY, OR CONSEQUENTIAL DAMAGES (INCLUDING, BUT 
  27:..\u8g2\csrc/u8x8_d_stdio.c ****   NOT LIMITED TO, PROCUREMENT OF SUBSTITUTE GOODS OR SERVICES; 
  28:..\u8g2\csrc/u8x8_d_stdio.c ****   LOSS OF USE, DATA, OR PROFITS; OR BUSINESS INTERRUPTION) HOWEVER 
  29:..\u8g2\csrc/u8x8_d_stdio.c ****   CAUSED AND ON ANY THEORY OF LIABILITY, WHETHER IN CONTRACT, 
  30:..\u8g2\csrc/u8x8_d_stdio.c ****   STRICT LIABILITY, OR TORT (INCLUDING NEGLIGENCE OR OTHERWISE) 
ARM GAS  C:\Users\brian\AppData\Local\Temp\ccrEtcRa.s 			page 2


  31:..\u8g2\csrc/u8x8_d_stdio.c ****   ARISING IN ANY WAY OUT OF THE USE OF THIS SOFTWARE, EVEN IF 
  32:..\u8g2\csrc/u8x8_d_stdio.c ****   ADVISED OF THE POSSIBILITY OF SUCH DAMAGE.  
  33:..\u8g2\csrc/u8x8_d_stdio.c **** 
  34:..\u8g2\csrc/u8x8_d_stdio.c **** */
  35:..\u8g2\csrc/u8x8_d_stdio.c **** 
  36:..\u8g2\csrc/u8x8_d_stdio.c **** #include "u8x8.h"
  37:..\u8g2\csrc/u8x8_d_stdio.c **** 
  38:..\u8g2\csrc/u8x8_d_stdio.c **** #include <stdio.h>
  39:..\u8g2\csrc/u8x8_d_stdio.c **** 
  40:..\u8g2\csrc/u8x8_d_stdio.c **** #define W 8
  41:..\u8g2\csrc/u8x8_d_stdio.c **** #define H 2
  42:..\u8g2\csrc/u8x8_d_stdio.c **** 
  43:..\u8g2\csrc/u8x8_d_stdio.c **** uint8_t bitmap[W*H*8];
  44:..\u8g2\csrc/u8x8_d_stdio.c **** 
  45:..\u8g2\csrc/u8x8_d_stdio.c **** void bitmap_place_tile(uint8_t x, uint8_t y, uint8_t *tile)
  46:..\u8g2\csrc/u8x8_d_stdio.c **** {
  28              		.loc 1 46 0
  29              		.cfi_startproc
  30              		@ args = 0, pretend = 0, frame = 0
  31              		@ frame_needed = 0, uses_anonymous_args = 0
  32              		@ link register save eliminated.
  33              	.LVL0:
  34 0000 70B4     		push	{r4, r5, r6}
  35              		.cfi_def_cfa_offset 12
  36              		.cfi_offset 4, -12
  37              		.cfi_offset 5, -8
  38              		.cfi_offset 6, -4
  39              	.LVL1:
  47:..\u8g2\csrc/u8x8_d_stdio.c ****   uint8_t i;
  48:..\u8g2\csrc/u8x8_d_stdio.c ****   for(i = 0; i < 8; i++ )
  40              		.loc 1 48 0
  41 0002 0023     		movs	r3, #0
  42 0004 08E0     		b	.L2
  43              	.LVL2:
  44              	.L3:
  49:..\u8g2\csrc/u8x8_d_stdio.c ****     bitmap[x*8+y*W*8+i] = tile[i];
  45              		.loc 1 49 0 discriminator 3
  46 0006 00EBC104 		add	r4, r0, r1, lsl #3
  47 000a 03EBC404 		add	r4, r3, r4, lsl #3
  48 000e D65C     		ldrb	r6, [r2, r3]	@ zero_extendqisi2
  49 0010 034D     		ldr	r5, .L5
  50 0012 2E55     		strb	r6, [r5, r4]
  48:..\u8g2\csrc/u8x8_d_stdio.c ****     bitmap[x*8+y*W*8+i] = tile[i];
  51              		.loc 1 48 0 discriminator 3
  52 0014 0133     		adds	r3, r3, #1
  53              	.LVL3:
  54 0016 DBB2     		uxtb	r3, r3
  55              	.LVL4:
  56              	.L2:
  48:..\u8g2\csrc/u8x8_d_stdio.c ****     bitmap[x*8+y*W*8+i] = tile[i];
  57              		.loc 1 48 0 is_stmt 0 discriminator 1
  58 0018 072B     		cmp	r3, #7
  59 001a F4D9     		bls	.L3
  50:..\u8g2\csrc/u8x8_d_stdio.c **** }
  60              		.loc 1 50 0 is_stmt 1
  61 001c 70BC     		pop	{r4, r5, r6}
  62              		.cfi_restore 6
ARM GAS  C:\Users\brian\AppData\Local\Temp\ccrEtcRa.s 			page 3


  63              		.cfi_restore 5
  64              		.cfi_restore 4
  65              		.cfi_def_cfa_offset 0
  66 001e 7047     		bx	lr
  67              	.L6:
  68              		.align	2
  69              	.L5:
  70 0020 00000000 		.word	bitmap
  71              		.cfi_endproc
  72              	.LFE1:
  73              		.size	bitmap_place_tile, .-bitmap_place_tile
  74              		.section	.text.bitmap_show,"ax",%progbits
  75              		.align	2
  76              		.global	bitmap_show
  77              		.thumb
  78              		.thumb_func
  79              		.type	bitmap_show, %function
  80              	bitmap_show:
  81              	.LFB2:
  51:..\u8g2\csrc/u8x8_d_stdio.c **** 
  52:..\u8g2\csrc/u8x8_d_stdio.c **** void bitmap_show(void)
  53:..\u8g2\csrc/u8x8_d_stdio.c **** {
  82              		.loc 1 53 0
  83              		.cfi_startproc
  84              		@ args = 0, pretend = 0, frame = 0
  85              		@ frame_needed = 0, uses_anonymous_args = 0
  86 0000 38B5     		push	{r3, r4, r5, lr}
  87              		.cfi_def_cfa_offset 16
  88              		.cfi_offset 3, -16
  89              		.cfi_offset 4, -12
  90              		.cfi_offset 5, -8
  91              		.cfi_offset 14, -4
  92              	.LVL5:
  54:..\u8g2\csrc/u8x8_d_stdio.c ****   int x, y;
  55:..\u8g2\csrc/u8x8_d_stdio.c ****   for( y = 0; y < H*8; y++ )
  93              		.loc 1 55 0
  94 0002 0025     		movs	r5, #0
  95 0004 1EE0     		b	.L8
  96              	.LVL6:
  97              	.L12:
  56:..\u8g2\csrc/u8x8_d_stdio.c ****   {
  57:..\u8g2\csrc/u8x8_d_stdio.c ****     for( x = 0; x < W*8; x++ )
  58:..\u8g2\csrc/u8x8_d_stdio.c ****     {
  59:..\u8g2\csrc/u8x8_d_stdio.c ****       if ( (bitmap[x+(y/8)*W*8] & (1<<((y&7)))) != 0 )
  98              		.loc 1 59 0
  99 0006 2B46     		mov	r3, r5
 100 0008 002D     		cmp	r5, #0
 101 000a 00DA     		bge	.L9
 102              	.LVL7:
 103 000c EB1D     		adds	r3, r5, #7
 104              	.LVL8:
 105              	.L9:
 106 000e DB10     		asrs	r3, r3, #3
 107 0010 04EB8313 		add	r3, r4, r3, lsl #6
 108 0014 0D4A     		ldr	r2, .L16
 109 0016 D35C     		ldrb	r3, [r2, r3]	@ zero_extendqisi2
 110 0018 05F00702 		and	r2, r5, #7
ARM GAS  C:\Users\brian\AppData\Local\Temp\ccrEtcRa.s 			page 4


 111 001c 1341     		asrs	r3, r3, r2
 112 001e 13F0010F 		tst	r3, #1
 113 0022 03D0     		beq	.L10
  60:..\u8g2\csrc/u8x8_d_stdio.c ****       {
  61:..\u8g2\csrc/u8x8_d_stdio.c **** 	printf("*");
 114              		.loc 1 61 0
 115 0024 2A20     		movs	r0, #42
 116 0026 FFF7FEFF 		bl	putchar
 117              	.LVL9:
 118 002a 02E0     		b	.L11
 119              	.L10:
  62:..\u8g2\csrc/u8x8_d_stdio.c ****       }
  63:..\u8g2\csrc/u8x8_d_stdio.c ****       else
  64:..\u8g2\csrc/u8x8_d_stdio.c ****       {
  65:..\u8g2\csrc/u8x8_d_stdio.c **** 	printf(".");
 120              		.loc 1 65 0
 121 002c 2E20     		movs	r0, #46
 122 002e FFF7FEFF 		bl	putchar
 123              	.LVL10:
 124              	.L11:
  57:..\u8g2\csrc/u8x8_d_stdio.c ****     {
 125              		.loc 1 57 0 discriminator 2
 126 0032 0134     		adds	r4, r4, #1
 127              	.LVL11:
 128 0034 00E0     		b	.L13
 129              	.LVL12:
 130              	.L14:
 131 0036 0024     		movs	r4, #0
 132              	.L13:
 133              	.LVL13:
  57:..\u8g2\csrc/u8x8_d_stdio.c ****     {
 134              		.loc 1 57 0 is_stmt 0 discriminator 1
 135 0038 3F2C     		cmp	r4, #63
 136 003a E4DD     		ble	.L12
  66:..\u8g2\csrc/u8x8_d_stdio.c ****       }
  67:..\u8g2\csrc/u8x8_d_stdio.c ****     }
  68:..\u8g2\csrc/u8x8_d_stdio.c ****     printf("\n");
 137              		.loc 1 68 0 is_stmt 1 discriminator 2
 138 003c 0A20     		movs	r0, #10
 139 003e FFF7FEFF 		bl	putchar
 140              	.LVL14:
  55:..\u8g2\csrc/u8x8_d_stdio.c ****   {
 141              		.loc 1 55 0 discriminator 2
 142 0042 0135     		adds	r5, r5, #1
 143              	.LVL15:
 144              	.L8:
  55:..\u8g2\csrc/u8x8_d_stdio.c ****   {
 145              		.loc 1 55 0 is_stmt 0 discriminator 1
 146 0044 0F2D     		cmp	r5, #15
 147 0046 F6DD     		ble	.L14
  69:..\u8g2\csrc/u8x8_d_stdio.c ****   }
  70:..\u8g2\csrc/u8x8_d_stdio.c **** }
 148              		.loc 1 70 0 is_stmt 1
 149 0048 38BD     		pop	{r3, r4, r5, pc}
 150              	.LVL16:
 151              	.L17:
 152 004a 00BF     		.align	2
ARM GAS  C:\Users\brian\AppData\Local\Temp\ccrEtcRa.s 			page 5


 153              	.L16:
 154 004c 00000000 		.word	bitmap
 155              		.cfi_endproc
 156              	.LFE2:
 157              		.size	bitmap_show, .-bitmap_show
 158              		.section	.text.u8x8_d_stdio,"ax",%progbits
 159              		.align	2
 160              		.global	u8x8_d_stdio
 161              		.thumb
 162              		.thumb_func
 163              		.type	u8x8_d_stdio, %function
 164              	u8x8_d_stdio:
 165              	.LFB3:
  71:..\u8g2\csrc/u8x8_d_stdio.c **** 
  72:..\u8g2\csrc/u8x8_d_stdio.c **** 
  73:..\u8g2\csrc/u8x8_d_stdio.c **** uint8_t u8x8_d_stdio(U8X8_UNUSED u8x8_t *u8x8, uint8_t msg, uint8_t arg_int, void *arg_ptr)
  74:..\u8g2\csrc/u8x8_d_stdio.c **** {
 166              		.loc 1 74 0
 167              		.cfi_startproc
 168              		@ args = 0, pretend = 0, frame = 0
 169              		@ frame_needed = 0, uses_anonymous_args = 0
 170              	.LVL17:
 171 0000 08B5     		push	{r3, lr}
 172              		.cfi_def_cfa_offset 8
 173              		.cfi_offset 3, -8
 174              		.cfi_offset 14, -4
  75:..\u8g2\csrc/u8x8_d_stdio.c ****   switch(msg)
 175              		.loc 1 75 0
 176 0002 0B29     		cmp	r1, #11
 177 0004 02D0     		beq	.L20
 178 0006 0F29     		cmp	r1, #15
 179 0008 04D0     		beq	.L21
 180 000a 08E0     		b	.L19
 181              	.L20:
  76:..\u8g2\csrc/u8x8_d_stdio.c ****   {
  77:..\u8g2\csrc/u8x8_d_stdio.c ****     case U8X8_MSG_DISPLAY_INIT:
  78:..\u8g2\csrc/u8x8_d_stdio.c ****       break;
  79:..\u8g2\csrc/u8x8_d_stdio.c ****     case U8X8_MSG_DISPLAY_SET_POWER_SAVE:
  80:..\u8g2\csrc/u8x8_d_stdio.c ****       if ( arg_int == 0 )
 182              		.loc 1 80 0
 183 000c 3AB9     		cbnz	r2, .L19
  81:..\u8g2\csrc/u8x8_d_stdio.c **** 	bitmap_show();
 184              		.loc 1 81 0
 185 000e FFF7FEFF 		bl	bitmap_show
 186              	.LVL18:
 187 0012 04E0     		b	.L19
 188              	.LVL19:
 189              	.L21:
  82:..\u8g2\csrc/u8x8_d_stdio.c ****       break;
  83:..\u8g2\csrc/u8x8_d_stdio.c ****     case U8X8_MSG_DISPLAY_SET_CONTRAST:
  84:..\u8g2\csrc/u8x8_d_stdio.c ****       break;
  85:..\u8g2\csrc/u8x8_d_stdio.c ****     case U8X8_MSG_DISPLAY_DRAW_TILE:      
  86:..\u8g2\csrc/u8x8_d_stdio.c ****       bitmap_place_tile(((u8x8_tile_t *)arg_ptr)->x_pos, ((u8x8_tile_t *)arg_ptr)->y_pos, ((u8x8_ti
 190              		.loc 1 86 0
 191 0014 1A68     		ldr	r2, [r3]
 192              	.LVL20:
 193 0016 9979     		ldrb	r1, [r3, #6]	@ zero_extendqisi2
ARM GAS  C:\Users\brian\AppData\Local\Temp\ccrEtcRa.s 			page 6


 194              	.LVL21:
 195 0018 5879     		ldrb	r0, [r3, #5]	@ zero_extendqisi2
 196              	.LVL22:
 197 001a FFF7FEFF 		bl	bitmap_place_tile
 198              	.LVL23:
 199              	.L19:
  87:..\u8g2\csrc/u8x8_d_stdio.c ****       break;
  88:..\u8g2\csrc/u8x8_d_stdio.c ****     default:
  89:..\u8g2\csrc/u8x8_d_stdio.c ****       break;
  90:..\u8g2\csrc/u8x8_d_stdio.c ****   }
  91:..\u8g2\csrc/u8x8_d_stdio.c ****   return 1;
  92:..\u8g2\csrc/u8x8_d_stdio.c **** }
 200              		.loc 1 92 0
 201 001e 0120     		movs	r0, #1
 202 0020 08BD     		pop	{r3, pc}
 203              		.cfi_endproc
 204              	.LFE3:
 205              		.size	u8x8_d_stdio, .-u8x8_d_stdio
 206 0022 00BF     		.section	.text.u8x8_SetupStdio,"ax",%progbits
 207              		.align	2
 208              		.global	u8x8_SetupStdio
 209              		.thumb
 210              		.thumb_func
 211              		.type	u8x8_SetupStdio, %function
 212              	u8x8_SetupStdio:
 213              	.LFB4:
  93:..\u8g2\csrc/u8x8_d_stdio.c **** 
  94:..\u8g2\csrc/u8x8_d_stdio.c **** 
  95:..\u8g2\csrc/u8x8_d_stdio.c **** 
  96:..\u8g2\csrc/u8x8_d_stdio.c **** void u8x8_SetupStdio(u8x8_t *u8x8)
  97:..\u8g2\csrc/u8x8_d_stdio.c **** {
 214              		.loc 1 97 0
 215              		.cfi_startproc
 216              		@ args = 0, pretend = 0, frame = 0
 217              		@ frame_needed = 0, uses_anonymous_args = 0
 218              	.LVL24:
 219 0000 10B5     		push	{r4, lr}
 220              		.cfi_def_cfa_offset 8
 221              		.cfi_offset 4, -8
 222              		.cfi_offset 14, -4
 223 0002 0446     		mov	r4, r0
  98:..\u8g2\csrc/u8x8_d_stdio.c ****   u8x8_SetupDefaults(u8x8);
 224              		.loc 1 98 0
 225 0004 FFF7FEFF 		bl	u8x8_SetupDefaults
 226              	.LVL25:
  99:..\u8g2\csrc/u8x8_d_stdio.c ****   u8x8->display_cb = u8x8_d_stdio;
 227              		.loc 1 99 0
 228 0008 014B     		ldr	r3, .L25
 229 000a A360     		str	r3, [r4, #8]
 230 000c 10BD     		pop	{r4, pc}
 231              	.LVL26:
 232              	.L26:
 233 000e 00BF     		.align	2
 234              	.L25:
 235 0010 00000000 		.word	u8x8_d_stdio
 236              		.cfi_endproc
 237              	.LFE4:
ARM GAS  C:\Users\brian\AppData\Local\Temp\ccrEtcRa.s 			page 7


 238              		.size	u8x8_SetupStdio, .-u8x8_SetupStdio
 239              		.comm	bitmap,128,4
 240              		.text
 241              	.Letext0:
 242              		.file 2 "c:\\program files (x86)\\cypress\\psoc creator\\4.4\\psoc creator\\import\\gnu\\arm\\5.4.
 243              		.file 3 "c:\\program files (x86)\\cypress\\psoc creator\\4.4\\psoc creator\\import\\gnu\\arm\\5.4.
 244              		.file 4 "..\\u8g2\\csrc\\u8x8.h"
 245              		.file 5 "<built-in>"