ARM GAS  C:\Users\brian\AppData\Local\Temp\ccof3ge9.s 			page 1


   1              		.syntax unified
   2              		.cpu cortex-m3
   3              		.fpu softvfp
   4              		.eabi_attribute 20, 1
   5              		.eabi_attribute 21, 1
   6              		.eabi_attribute 23, 3
   7              		.eabi_attribute 24, 1
   8              		.eabi_attribute 25, 1
   9              		.eabi_attribute 26, 1
  10              		.eabi_attribute 30, 1
  11              		.eabi_attribute 34, 1
  12              		.eabi_attribute 18, 4
  13              		.thumb
  14              		.syntax unified
  15              		.file	"u8x8_d_s1d15721.c"
  16              		.text
  17              	.Ltext0:
  18              		.cfi_sections	.debug_frame
  19              		.section	.text.u8x8_d_s1d15721_common,"ax",%progbits
  20              		.align	2
  21              		.global	u8x8_d_s1d15721_common
  22              		.thumb
  23              		.thumb_func
  24              		.type	u8x8_d_s1d15721_common, %function
  25              	u8x8_d_s1d15721_common:
  26              	.LFB0:
  27              		.file 1 "..\\u8g2\\csrc\\u8x8_d_s1d15721.c"
   1:..\u8g2\csrc/u8x8_d_s1d15721.c **** /*
   2:..\u8g2\csrc/u8x8_d_s1d15721.c **** 
   3:..\u8g2\csrc/u8x8_d_s1d15721.c ****   u8x8_d_s1d15721.c
   4:..\u8g2\csrc/u8x8_d_s1d15721.c **** 
   5:..\u8g2\csrc/u8x8_d_s1d15721.c ****   240x64 display
   6:..\u8g2\csrc/u8x8_d_s1d15721.c ****   https://github.com/olikraus/u8g2/issues/1473  
   7:..\u8g2\csrc/u8x8_d_s1d15721.c ****   http://datasheet.datasheetarchive.com/originals/library/Datasheets-ISS16/DSAIH000309343.pdf
   8:..\u8g2\csrc/u8x8_d_s1d15721.c ****   
   9:..\u8g2\csrc/u8x8_d_s1d15721.c ****   Universal 8bit Graphics Library (https://github.com/olikraus/u8g2/)
  10:..\u8g2\csrc/u8x8_d_s1d15721.c ****   
  11:..\u8g2\csrc/u8x8_d_s1d15721.c ****   Copyright (c) 2020, olikraus@gmail.com
  12:..\u8g2\csrc/u8x8_d_s1d15721.c ****   
  13:..\u8g2\csrc/u8x8_d_s1d15721.c ****   All rights reserved.
  14:..\u8g2\csrc/u8x8_d_s1d15721.c ****   
  15:..\u8g2\csrc/u8x8_d_s1d15721.c ****   Redistribution and use in source and binary forms, with or without modification, 
  16:..\u8g2\csrc/u8x8_d_s1d15721.c ****   are permitted provided that the following conditions are met:
  17:..\u8g2\csrc/u8x8_d_s1d15721.c ****   * Redistributions of source code must retain the above copyright notice, this list 
  18:..\u8g2\csrc/u8x8_d_s1d15721.c ****     of conditions and the following disclaimer.
  19:..\u8g2\csrc/u8x8_d_s1d15721.c ****     
  20:..\u8g2\csrc/u8x8_d_s1d15721.c ****   * Redistributions in binary form must reproduce the above copyright notice, this 
  21:..\u8g2\csrc/u8x8_d_s1d15721.c ****     list of conditions and the following disclaimer in the documentation and/or other 
  22:..\u8g2\csrc/u8x8_d_s1d15721.c ****     materials provided with the distribution.
  23:..\u8g2\csrc/u8x8_d_s1d15721.c ****     
  24:..\u8g2\csrc/u8x8_d_s1d15721.c ****   THIS SOFTWARE IS PROVIDED BY THE COPYRIGHT HOLDERS AND 
  25:..\u8g2\csrc/u8x8_d_s1d15721.c ****   CONTRIBUTORS "AS IS" AND ANY EXPRESS OR IMPLIED WARRANTIES, 
  26:..\u8g2\csrc/u8x8_d_s1d15721.c ****   INCLUDING, BUT NOT LIMITED TO, THE IMPLIED WARRANTIES OF 
  27:..\u8g2\csrc/u8x8_d_s1d15721.c ****   MERCHANTABILITY AND FITNESS FOR A PARTICULAR PURPOSE ARE 
  28:..\u8g2\csrc/u8x8_d_s1d15721.c ****   DISCLAIMED. IN NO EVENT SHALL THE COPYRIGHT HOLDER OR 
  29:..\u8g2\csrc/u8x8_d_s1d15721.c ****   CONTRIBUTORS BE LIABLE FOR ANY DIRECT, INDIRECT, INCIDENTAL, 
  30:..\u8g2\csrc/u8x8_d_s1d15721.c ****   SPECIAL, EXEMPLARY, OR CONSEQUENTIAL DAMAGES (INCLUDING, BUT 
ARM GAS  C:\Users\brian\AppData\Local\Temp\ccof3ge9.s 			page 2


  31:..\u8g2\csrc/u8x8_d_s1d15721.c ****   NOT LIMITED TO, PROCUREMENT OF SUBSTITUTE GOODS OR SERVICES; 
  32:..\u8g2\csrc/u8x8_d_s1d15721.c ****   LOSS OF USE, DATA, OR PROFITS; OR BUSINESS INTERRUPTION) HOWEVER 
  33:..\u8g2\csrc/u8x8_d_s1d15721.c ****   CAUSED AND ON ANY THEORY OF LIABILITY, WHETHER IN CONTRACT, 
  34:..\u8g2\csrc/u8x8_d_s1d15721.c ****   STRICT LIABILITY, OR TORT (INCLUDING NEGLIGENCE OR OTHERWISE) 
  35:..\u8g2\csrc/u8x8_d_s1d15721.c ****   ARISING IN ANY WAY OUT OF THE USE OF THIS SOFTWARE, EVEN IF 
  36:..\u8g2\csrc/u8x8_d_s1d15721.c ****   ADVISED OF THE POSSIBILITY OF SUCH DAMAGE.  
  37:..\u8g2\csrc/u8x8_d_s1d15721.c ****   
  38:..\u8g2\csrc/u8x8_d_s1d15721.c **** */
  39:..\u8g2\csrc/u8x8_d_s1d15721.c **** #include "u8x8.h"
  40:..\u8g2\csrc/u8x8_d_s1d15721.c **** 
  41:..\u8g2\csrc/u8x8_d_s1d15721.c **** static const uint8_t u8x8_d_s1d15721_powersave0_seq[] = {
  42:..\u8g2\csrc/u8x8_d_s1d15721.c ****   U8X8_START_TRANSFER(),             	/* enable chip, delay is part of the transfer start */
  43:..\u8g2\csrc/u8x8_d_s1d15721.c ****   U8X8_C(0xA8),		                /* display on */
  44:..\u8g2\csrc/u8x8_d_s1d15721.c ****   U8X8_END_TRANSFER(),             	/* disable chip */
  45:..\u8g2\csrc/u8x8_d_s1d15721.c ****   U8X8_END()             			/* end of sequence */
  46:..\u8g2\csrc/u8x8_d_s1d15721.c **** };
  47:..\u8g2\csrc/u8x8_d_s1d15721.c **** 
  48:..\u8g2\csrc/u8x8_d_s1d15721.c **** static const uint8_t u8x8_d_s1d15721_powersave1_seq[] = {
  49:..\u8g2\csrc/u8x8_d_s1d15721.c ****   U8X8_START_TRANSFER(),             	/* enable chip, delay is part of the transfer start */
  50:..\u8g2\csrc/u8x8_d_s1d15721.c ****   U8X8_C(0xA8|1),		                /* display off, enter sleep mode */
  51:..\u8g2\csrc/u8x8_d_s1d15721.c ****   U8X8_END_TRANSFER(),             	/* disable chip */
  52:..\u8g2\csrc/u8x8_d_s1d15721.c ****   U8X8_END()             			/* end of sequence */
  53:..\u8g2\csrc/u8x8_d_s1d15721.c **** };
  54:..\u8g2\csrc/u8x8_d_s1d15721.c **** 
  55:..\u8g2\csrc/u8x8_d_s1d15721.c **** static const uint8_t u8x8_d_s1d15721_flip0_seq[] = {
  56:..\u8g2\csrc/u8x8_d_s1d15721.c ****   U8X8_START_TRANSFER(),            /* enable chip, delay is part of the transfer start */
  57:..\u8g2\csrc/u8x8_d_s1d15721.c ****   U8X8_C(0xA6),            			/* LCD Mapping */
  58:..\u8g2\csrc/u8x8_d_s1d15721.c ****   U8X8_END_TRANSFER(),             	/* disable chip */
  59:..\u8g2\csrc/u8x8_d_s1d15721.c ****   U8X8_END()             			/* end of sequence */
  60:..\u8g2\csrc/u8x8_d_s1d15721.c **** };
  61:..\u8g2\csrc/u8x8_d_s1d15721.c **** 
  62:..\u8g2\csrc/u8x8_d_s1d15721.c **** static const uint8_t u8x8_d_s1d15721_flip1_seq[] = {
  63:..\u8g2\csrc/u8x8_d_s1d15721.c ****   U8X8_START_TRANSFER(),            /* enable chip, delay is part of the transfer start */
  64:..\u8g2\csrc/u8x8_d_s1d15721.c ****   U8X8_C(0xA7),            			/* LCD Mapping */
  65:..\u8g2\csrc/u8x8_d_s1d15721.c ****   U8X8_END_TRANSFER(),             	/* disable chip */
  66:..\u8g2\csrc/u8x8_d_s1d15721.c ****   U8X8_END()             			/* end of sequence */
  67:..\u8g2\csrc/u8x8_d_s1d15721.c **** };
  68:..\u8g2\csrc/u8x8_d_s1d15721.c **** 
  69:..\u8g2\csrc/u8x8_d_s1d15721.c **** uint8_t u8x8_d_s1d15721_common(u8x8_t *u8x8, uint8_t msg, uint8_t arg_int, void *arg_ptr)
  70:..\u8g2\csrc/u8x8_d_s1d15721.c **** {
  28              		.loc 1 70 0
  29              		.cfi_startproc
  30              		@ args = 0, pretend = 0, frame = 0
  31              		@ frame_needed = 0, uses_anonymous_args = 0
  32              	.LVL0:
  33 0000 F8B5     		push	{r3, r4, r5, r6, r7, lr}
  34              		.cfi_def_cfa_offset 24
  35              		.cfi_offset 3, -24
  36              		.cfi_offset 4, -20
  37              		.cfi_offset 5, -16
  38              		.cfi_offset 6, -12
  39              		.cfi_offset 7, -8
  40              		.cfi_offset 14, -4
  41 0002 0546     		mov	r5, r0
  42 0004 1446     		mov	r4, r2
  43 0006 1F46     		mov	r7, r3
  71:..\u8g2\csrc/u8x8_d_s1d15721.c ****   uint8_t x, y, c;
ARM GAS  C:\Users\brian\AppData\Local\Temp\ccof3ge9.s 			page 3


  72:..\u8g2\csrc/u8x8_d_s1d15721.c ****   uint8_t *ptr;
  73:..\u8g2\csrc/u8x8_d_s1d15721.c ****   switch(msg)
  44              		.loc 1 73 0
  45 0008 0B39     		subs	r1, r1, #11
  46              	.LVL1:
  47 000a 0429     		cmp	r1, #4
  48 000c 04D8     		bhi	.L2
  49 000e DFE801F0 		tbb	[pc, r1]
  50              	.LVL2:
  51              	.L4:
  52 0012 34       		.byte	(.L3-.L4)/2
  53 0013 03       		.byte	(.L2-.L4)/2
  54 0014 3F       		.byte	(.L5-.L4)/2
  55 0015 52       		.byte	(.L11-.L4)/2
  56 0016 05       		.byte	(.L7-.L4)/2
  57 0017 00       		.p2align 1
  58              	.L2:
  74:..\u8g2\csrc/u8x8_d_s1d15721.c ****   {
  75:..\u8g2\csrc/u8x8_d_s1d15721.c ****     case U8X8_MSG_DISPLAY_DRAW_TILE:
  76:..\u8g2\csrc/u8x8_d_s1d15721.c ****       u8x8_cad_StartTransfer(u8x8);
  77:..\u8g2\csrc/u8x8_d_s1d15721.c **** 
  78:..\u8g2\csrc/u8x8_d_s1d15721.c ****       x = ((u8x8_tile_t *)arg_ptr)->x_pos;
  79:..\u8g2\csrc/u8x8_d_s1d15721.c ****       x += u8x8->x_offset;
  80:..\u8g2\csrc/u8x8_d_s1d15721.c ****       x *= 8;
  81:..\u8g2\csrc/u8x8_d_s1d15721.c **** 
  82:..\u8g2\csrc/u8x8_d_s1d15721.c **** 	  u8x8_cad_SendCmd(u8x8, 0xB1);	//Page Address - Row
  83:..\u8g2\csrc/u8x8_d_s1d15721.c **** 	  u8x8_cad_SendArg(u8x8, (((u8x8_tile_t *)arg_ptr)->y_pos));
  84:..\u8g2\csrc/u8x8_d_s1d15721.c **** 
  85:..\u8g2\csrc/u8x8_d_s1d15721.c ****       y = ((u8x8_tile_t *)arg_ptr)->y_pos;
  86:..\u8g2\csrc/u8x8_d_s1d15721.c **** 
  87:..\u8g2\csrc/u8x8_d_s1d15721.c ****       u8x8_cad_SendCmd(u8x8, 0x13);	/* col */
  88:..\u8g2\csrc/u8x8_d_s1d15721.c ****       u8x8_cad_SendArg(u8x8, x);
  89:..\u8g2\csrc/u8x8_d_s1d15721.c **** 
  90:..\u8g2\csrc/u8x8_d_s1d15721.c **** 	  u8x8_cad_SendCmd(u8x8, 0x1D );	//Data Write
  91:..\u8g2\csrc/u8x8_d_s1d15721.c **** 
  92:..\u8g2\csrc/u8x8_d_s1d15721.c ****       c = ((u8x8_tile_t *)arg_ptr)->cnt;
  93:..\u8g2\csrc/u8x8_d_s1d15721.c ****       c *= 8;
  94:..\u8g2\csrc/u8x8_d_s1d15721.c ****       ptr = ((u8x8_tile_t *)arg_ptr)->tile_ptr;
  95:..\u8g2\csrc/u8x8_d_s1d15721.c ****       do
  96:..\u8g2\csrc/u8x8_d_s1d15721.c ****       {
  97:..\u8g2\csrc/u8x8_d_s1d15721.c **** 		u8x8_cad_SendData(u8x8, c, ptr);	/* note: SendData can not handle more than 255 bytes */
  98:..\u8g2\csrc/u8x8_d_s1d15721.c **** 		arg_int--;
  99:..\u8g2\csrc/u8x8_d_s1d15721.c ****       } while( arg_int > 0 );
 100:..\u8g2\csrc/u8x8_d_s1d15721.c **** 
 101:..\u8g2\csrc/u8x8_d_s1d15721.c ****       u8x8_cad_EndTransfer(u8x8);
 102:..\u8g2\csrc/u8x8_d_s1d15721.c ****       break;
 103:..\u8g2\csrc/u8x8_d_s1d15721.c ****     /*	handled in the calling procedure 
 104:..\u8g2\csrc/u8x8_d_s1d15721.c ****     case U8X8_MSG_DISPLAY_SETUP_MEMORY:
 105:..\u8g2\csrc/u8x8_d_s1d15721.c ****       u8x8_d_helper_display_setup_memory(u8x8, &u8x8_uc1608_128x64_display_info);
 106:..\u8g2\csrc/u8x8_d_s1d15721.c ****       break;
 107:..\u8g2\csrc/u8x8_d_s1d15721.c ****     case U8X8_MSG_DISPLAY_INIT:
 108:..\u8g2\csrc/u8x8_d_s1d15721.c ****       u8x8_d_helper_display_init(u8x8);
 109:..\u8g2\csrc/u8x8_d_s1d15721.c ****       u8x8_cad_SendSequence(u8x8, u8x8_d_uc1701_dogs102_init_seq);
 110:..\u8g2\csrc/u8x8_d_s1d15721.c ****       break;
 111:..\u8g2\csrc/u8x8_d_s1d15721.c ****     */
 112:..\u8g2\csrc/u8x8_d_s1d15721.c ****     case U8X8_MSG_DISPLAY_SET_POWER_SAVE:
 113:..\u8g2\csrc/u8x8_d_s1d15721.c ****       if ( arg_int == 0 )
ARM GAS  C:\Users\brian\AppData\Local\Temp\ccof3ge9.s 			page 4


 114:..\u8g2\csrc/u8x8_d_s1d15721.c **** 	u8x8_cad_SendSequence(u8x8, u8x8_d_s1d15721_powersave0_seq);
 115:..\u8g2\csrc/u8x8_d_s1d15721.c ****       else
 116:..\u8g2\csrc/u8x8_d_s1d15721.c **** 	u8x8_cad_SendSequence(u8x8, u8x8_d_s1d15721_powersave1_seq);
 117:..\u8g2\csrc/u8x8_d_s1d15721.c ****       break;
 118:..\u8g2\csrc/u8x8_d_s1d15721.c ****     case U8X8_MSG_DISPLAY_SET_FLIP_MODE:
 119:..\u8g2\csrc/u8x8_d_s1d15721.c ****       if ( arg_int == 0 )
 120:..\u8g2\csrc/u8x8_d_s1d15721.c ****       {
 121:..\u8g2\csrc/u8x8_d_s1d15721.c **** 	u8x8_cad_SendSequence(u8x8, u8x8_d_s1d15721_flip0_seq);
 122:..\u8g2\csrc/u8x8_d_s1d15721.c **** 	u8x8->x_offset = u8x8->display_info->default_x_offset;
 123:..\u8g2\csrc/u8x8_d_s1d15721.c ****       }
 124:..\u8g2\csrc/u8x8_d_s1d15721.c ****       else
 125:..\u8g2\csrc/u8x8_d_s1d15721.c ****       {
 126:..\u8g2\csrc/u8x8_d_s1d15721.c **** 	u8x8_cad_SendSequence(u8x8, u8x8_d_s1d15721_flip1_seq);
 127:..\u8g2\csrc/u8x8_d_s1d15721.c **** 	u8x8->x_offset = u8x8->display_info->flipmode_x_offset;
 128:..\u8g2\csrc/u8x8_d_s1d15721.c ****       }	
 129:..\u8g2\csrc/u8x8_d_s1d15721.c ****       break;
 130:..\u8g2\csrc/u8x8_d_s1d15721.c **** #ifdef U8X8_WITH_SET_CONTRAST
 131:..\u8g2\csrc/u8x8_d_s1d15721.c ****     case U8X8_MSG_DISPLAY_SET_CONTRAST:
 132:..\u8g2\csrc/u8x8_d_s1d15721.c ****       break;
 133:..\u8g2\csrc/u8x8_d_s1d15721.c **** #endif
 134:..\u8g2\csrc/u8x8_d_s1d15721.c ****     default:
 135:..\u8g2\csrc/u8x8_d_s1d15721.c ****       return 0;
  59              		.loc 1 135 0
  60 0018 0020     		movs	r0, #0
  61              	.LVL3:
  62 001a F8BD     		pop	{r3, r4, r5, r6, r7, pc}
  63              	.LVL4:
  64              	.L7:
  76:..\u8g2\csrc/u8x8_d_s1d15721.c **** 
  65              		.loc 1 76 0
  66 001c FFF7FEFF 		bl	u8x8_cad_StartTransfer
  67              	.LVL5:
  78:..\u8g2\csrc/u8x8_d_s1d15721.c ****       x += u8x8->x_offset;
  68              		.loc 1 78 0
  69 0020 7E79     		ldrb	r6, [r7, #5]	@ zero_extendqisi2
  70              	.LVL6:
  79:..\u8g2\csrc/u8x8_d_s1d15721.c ****       x *= 8;
  71              		.loc 1 79 0
  72 0022 95F82230 		ldrb	r3, [r5, #34]	@ zero_extendqisi2
  73 0026 1E44     		add	r6, r6, r3
  74              	.LVL7:
  75 0028 F6B2     		uxtb	r6, r6
  76              	.LVL8:
  80:..\u8g2\csrc/u8x8_d_s1d15721.c **** 
  77              		.loc 1 80 0
  78 002a F600     		lsls	r6, r6, #3
  79              	.LVL9:
  80 002c F6B2     		uxtb	r6, r6
  81              	.LVL10:
  82:..\u8g2\csrc/u8x8_d_s1d15721.c **** 	  u8x8_cad_SendArg(u8x8, (((u8x8_tile_t *)arg_ptr)->y_pos));
  82              		.loc 1 82 0
  83 002e B121     		movs	r1, #177
  84 0030 2846     		mov	r0, r5
  85 0032 FFF7FEFF 		bl	u8x8_cad_SendCmd
  86              	.LVL11:
  83:..\u8g2\csrc/u8x8_d_s1d15721.c **** 
  87              		.loc 1 83 0
ARM GAS  C:\Users\brian\AppData\Local\Temp\ccof3ge9.s 			page 5


  88 0036 B979     		ldrb	r1, [r7, #6]	@ zero_extendqisi2
  89 0038 2846     		mov	r0, r5
  90 003a FFF7FEFF 		bl	u8x8_cad_SendArg
  91              	.LVL12:
  87:..\u8g2\csrc/u8x8_d_s1d15721.c ****       u8x8_cad_SendArg(u8x8, x);
  92              		.loc 1 87 0
  93 003e 1321     		movs	r1, #19
  94 0040 2846     		mov	r0, r5
  95 0042 FFF7FEFF 		bl	u8x8_cad_SendCmd
  96              	.LVL13:
  88:..\u8g2\csrc/u8x8_d_s1d15721.c **** 
  97              		.loc 1 88 0
  98 0046 3146     		mov	r1, r6
  99 0048 2846     		mov	r0, r5
 100 004a FFF7FEFF 		bl	u8x8_cad_SendArg
 101              	.LVL14:
  90:..\u8g2\csrc/u8x8_d_s1d15721.c **** 
 102              		.loc 1 90 0
 103 004e 1D21     		movs	r1, #29
 104 0050 2846     		mov	r0, r5
 105 0052 FFF7FEFF 		bl	u8x8_cad_SendCmd
 106              	.LVL15:
  92:..\u8g2\csrc/u8x8_d_s1d15721.c ****       c *= 8;
 107              		.loc 1 92 0
 108 0056 3E79     		ldrb	r6, [r7, #4]	@ zero_extendqisi2
 109              	.LVL16:
  93:..\u8g2\csrc/u8x8_d_s1d15721.c ****       ptr = ((u8x8_tile_t *)arg_ptr)->tile_ptr;
 110              		.loc 1 93 0
 111 0058 F600     		lsls	r6, r6, #3
 112              	.LVL17:
 113 005a F6B2     		uxtb	r6, r6
 114              	.LVL18:
  94:..\u8g2\csrc/u8x8_d_s1d15721.c ****       do
 115              		.loc 1 94 0
 116 005c 3F68     		ldr	r7, [r7]
 117              	.LVL19:
 118              	.L8:
  97:..\u8g2\csrc/u8x8_d_s1d15721.c **** 		arg_int--;
 119              		.loc 1 97 0 discriminator 1
 120 005e 3A46     		mov	r2, r7
 121 0060 3146     		mov	r1, r6
 122 0062 2846     		mov	r0, r5
 123 0064 FFF7FEFF 		bl	u8x8_cad_SendData
 124              	.LVL20:
  98:..\u8g2\csrc/u8x8_d_s1d15721.c ****       } while( arg_int > 0 );
 125              		.loc 1 98 0 discriminator 1
 126 0068 621E     		subs	r2, r4, #1
 127              	.LVL21:
  99:..\u8g2\csrc/u8x8_d_s1d15721.c **** 
 128              		.loc 1 99 0 discriminator 1
 129 006a 12F0FF04 		ands	r4, r2, #255
 130 006e F6D1     		bne	.L8
 101:..\u8g2\csrc/u8x8_d_s1d15721.c ****       break;
 131              		.loc 1 101 0
 132 0070 2846     		mov	r0, r5
 133 0072 FFF7FEFF 		bl	u8x8_cad_EndTransfer
 134              	.LVL22:
ARM GAS  C:\Users\brian\AppData\Local\Temp\ccof3ge9.s 			page 6


 136:..\u8g2\csrc/u8x8_d_s1d15721.c ****   }
 137:..\u8g2\csrc/u8x8_d_s1d15721.c ****   return 1;
 135              		.loc 1 137 0
 136 0076 0120     		movs	r0, #1
 102:..\u8g2\csrc/u8x8_d_s1d15721.c ****     /*	handled in the calling procedure 
 137              		.loc 1 102 0
 138 0078 F8BD     		pop	{r3, r4, r5, r6, r7, pc}
 139              	.LVL23:
 140              	.L3:
 113:..\u8g2\csrc/u8x8_d_s1d15721.c **** 	u8x8_cad_SendSequence(u8x8, u8x8_d_s1d15721_powersave0_seq);
 141              		.loc 1 113 0
 142 007a 22B9     		cbnz	r2, .L9
 114:..\u8g2\csrc/u8x8_d_s1d15721.c ****       else
 143              		.loc 1 114 0
 144 007c 0F49     		ldr	r1, .L13
 145 007e FFF7FEFF 		bl	u8x8_cad_SendSequence
 146              	.LVL24:
 147              		.loc 1 137 0
 148 0082 0120     		movs	r0, #1
 149 0084 F8BD     		pop	{r3, r4, r5, r6, r7, pc}
 150              	.LVL25:
 151              	.L9:
 116:..\u8g2\csrc/u8x8_d_s1d15721.c ****       break;
 152              		.loc 1 116 0
 153 0086 0E49     		ldr	r1, .L13+4
 154 0088 FFF7FEFF 		bl	u8x8_cad_SendSequence
 155              	.LVL26:
 156              		.loc 1 137 0
 157 008c 0120     		movs	r0, #1
 158 008e F8BD     		pop	{r3, r4, r5, r6, r7, pc}
 159              	.LVL27:
 160              	.L5:
 119:..\u8g2\csrc/u8x8_d_s1d15721.c ****       {
 161              		.loc 1 119 0
 162 0090 42B9     		cbnz	r2, .L10
 121:..\u8g2\csrc/u8x8_d_s1d15721.c **** 	u8x8->x_offset = u8x8->display_info->default_x_offset;
 163              		.loc 1 121 0
 164 0092 0C49     		ldr	r1, .L13+8
 165 0094 FFF7FEFF 		bl	u8x8_cad_SendSequence
 166              	.LVL28:
 122:..\u8g2\csrc/u8x8_d_s1d15721.c ****       }
 167              		.loc 1 122 0
 168 0098 2B68     		ldr	r3, [r5]
 169 009a 9B7C     		ldrb	r3, [r3, #18]	@ zero_extendqisi2
 170 009c 85F82230 		strb	r3, [r5, #34]
 171              		.loc 1 137 0
 172 00a0 0120     		movs	r0, #1
 173 00a2 F8BD     		pop	{r3, r4, r5, r6, r7, pc}
 174              	.LVL29:
 175              	.L10:
 126:..\u8g2\csrc/u8x8_d_s1d15721.c **** 	u8x8->x_offset = u8x8->display_info->flipmode_x_offset;
 176              		.loc 1 126 0
 177 00a4 0849     		ldr	r1, .L13+12
 178 00a6 FFF7FEFF 		bl	u8x8_cad_SendSequence
 179              	.LVL30:
 127:..\u8g2\csrc/u8x8_d_s1d15721.c ****       }	
 180              		.loc 1 127 0
ARM GAS  C:\Users\brian\AppData\Local\Temp\ccof3ge9.s 			page 7


 181 00aa 2B68     		ldr	r3, [r5]
 182 00ac DB7C     		ldrb	r3, [r3, #19]	@ zero_extendqisi2
 183 00ae 85F82230 		strb	r3, [r5, #34]
 184              		.loc 1 137 0
 185 00b2 0120     		movs	r0, #1
 186 00b4 F8BD     		pop	{r3, r4, r5, r6, r7, pc}
 187              	.LVL31:
 188              	.L11:
 189 00b6 0120     		movs	r0, #1
 190              	.LVL32:
 138:..\u8g2\csrc/u8x8_d_s1d15721.c **** }
 191              		.loc 1 138 0
 192 00b8 F8BD     		pop	{r3, r4, r5, r6, r7, pc}
 193              	.LVL33:
 194              	.L14:
 195 00ba 00BF     		.align	2
 196              	.L13:
 197 00bc 00000000 		.word	.LANCHOR0
 198 00c0 08000000 		.word	.LANCHOR0+8
 199 00c4 10000000 		.word	.LANCHOR0+16
 200 00c8 18000000 		.word	.LANCHOR0+24
 201              		.cfi_endproc
 202              	.LFE0:
 203              		.size	u8x8_d_s1d15721_common, .-u8x8_d_s1d15721_common
 204              		.section	.text.u8x8_d_s1d15721_240x64,"ax",%progbits
 205              		.align	2
 206              		.global	u8x8_d_s1d15721_240x64
 207              		.thumb
 208              		.thumb_func
 209              		.type	u8x8_d_s1d15721_240x64, %function
 210              	u8x8_d_s1d15721_240x64:
 211              	.LFB1:
 139:..\u8g2\csrc/u8x8_d_s1d15721.c **** 
 140:..\u8g2\csrc/u8x8_d_s1d15721.c **** /*================================================*/
 141:..\u8g2\csrc/u8x8_d_s1d15721.c **** /* s1d15721 240x64 */
 142:..\u8g2\csrc/u8x8_d_s1d15721.c **** 
 143:..\u8g2\csrc/u8x8_d_s1d15721.c **** 
 144:..\u8g2\csrc/u8x8_d_s1d15721.c **** static const u8x8_display_info_t u8x8_s1d15721_240x64_display_info =
 145:..\u8g2\csrc/u8x8_d_s1d15721.c **** {
 146:..\u8g2\csrc/u8x8_d_s1d15721.c ****   /* chip_enable_level = */ 0,	/* low active CS */
 147:..\u8g2\csrc/u8x8_d_s1d15721.c ****   /* chip_disable_level = */ 1,
 148:..\u8g2\csrc/u8x8_d_s1d15721.c **** 
 149:..\u8g2\csrc/u8x8_d_s1d15721.c ****   /* post_chip_enable_wait_ns = */ 10,	/* */
 150:..\u8g2\csrc/u8x8_d_s1d15721.c ****   /* pre_chip_disable_wait_ns = */ 20,	        /* */
 151:..\u8g2\csrc/u8x8_d_s1d15721.c ****   /* reset_pulse_width_ms = */ 1, 	        /* */
 152:..\u8g2\csrc/u8x8_d_s1d15721.c ****   /* post_reset_wait_ms = */ 10, 	
 153:..\u8g2\csrc/u8x8_d_s1d15721.c ****   /* sda_setup_time_ns = */ 30,		/*  */
 154:..\u8g2\csrc/u8x8_d_s1d15721.c ****   /* sck_pulse_width_ns = */ 65,	/* half of cycle time  */
 155:..\u8g2\csrc/u8x8_d_s1d15721.c ****   /* sck_clock_hz = */ 8000000UL,	/* since Arduino 1.6.0, the SPI bus speed in Hz. Should be  10000
 156:..\u8g2\csrc/u8x8_d_s1d15721.c ****   /* i2c_bus_clock_100kHz = */ 4,
 157:..\u8g2\csrc/u8x8_d_s1d15721.c ****   /* data_setup_time_ns = */ 30,	         /*  */
 158:..\u8g2\csrc/u8x8_d_s1d15721.c ****   /* write_pulse_width_ns = */ 65,	/* */
 159:..\u8g2\csrc/u8x8_d_s1d15721.c ****   /* tile_width = */ 30,		                /* width of 20*8=160 pixel (30*8 = 240) */
 160:..\u8g2\csrc/u8x8_d_s1d15721.c ****   /* tile_hight = */ 8,                 /* height 8*8 = 64*/
 161:..\u8g2\csrc/u8x8_d_s1d15721.c ****   /* default_x_offset = */ 1,	
 162:..\u8g2\csrc/u8x8_d_s1d15721.c ****   /* flipmode_x_offset = */ 1,	
 163:..\u8g2\csrc/u8x8_d_s1d15721.c ****   /* pixel_width = */ 240,
ARM GAS  C:\Users\brian\AppData\Local\Temp\ccof3ge9.s 			page 8


 164:..\u8g2\csrc/u8x8_d_s1d15721.c ****   /* pixel_height = */ 64
 165:..\u8g2\csrc/u8x8_d_s1d15721.c **** };
 166:..\u8g2\csrc/u8x8_d_s1d15721.c **** 
 167:..\u8g2\csrc/u8x8_d_s1d15721.c **** static const uint8_t u8x8_d_s1d15721_240x64_init_seq[] = {
 168:..\u8g2\csrc/u8x8_d_s1d15721.c ****   U8X8_START_TRANSFER(),           	/* enable chip, delay is part of the transfer start */
 169:..\u8g2\csrc/u8x8_d_s1d15721.c ****   U8X8_C(0xC4|1),       	    	        /* (5) Common Output Status (Reverse) */
 170:..\u8g2\csrc/u8x8_d_s1d15721.c ****   U8X8_CA(0xA6, 0x01),            	/* (3) Display Normal Reverse (Normal) */
 171:..\u8g2\csrc/u8x8_d_s1d15721.c ****   U8X8_CA(0xA4, 0x00), 	           	/* (4) Display All Light (Normal) */
 172:..\u8g2\csrc/u8x8_d_s1d15721.c ****   U8X8_CAA(0x6D,0x10,0x02), 		/* (18) Duty Set Command */
 173:..\u8g2\csrc/u8x8_d_s1d15721.c ****   U8X8_CA(0x66, 0x01),           	/* (15) Display Mode, Parameter 0 (0 = Gray Scale 1 = Binary */
 174:..\u8g2\csrc/u8x8_d_s1d15721.c ****   U8X8_CA(0x39, 0x36),            	/* (16) Gray Scale Pattern Set, Pattern */
 175:..\u8g2\csrc/u8x8_d_s1d15721.c ****   U8X8_CA(0x2B, 0x07),			/* (27) LCD Drive Mode Voltage Select, Parameter */
 176:..\u8g2\csrc/u8x8_d_s1d15721.c ****   U8X8_CA(0x81, 0x0a),		        /* (28) Electronic Volume, Parameter */
 177:..\u8g2\csrc/u8x8_d_s1d15721.c ****   U8X8_CA(0x5F, 0x00),		        /* (24) Built-in Oscillator Frequency, Parameter  */
 178:..\u8g2\csrc/u8x8_d_s1d15721.c ****   U8X8_C(0xAA|1),			        /* (23) Built-in OSC On */  
 179:..\u8g2\csrc/u8x8_d_s1d15721.c ****   U8X8_CA(0x25, 0x1f),		        /* (25) Power Control Set, Parameter  */
 180:..\u8g2\csrc/u8x8_d_s1d15721.c ****   U8X8_CA(0x8A, 0x00),		        /* (6) Start Line Setup, Parameter  */
 181:..\u8g2\csrc/u8x8_d_s1d15721.c ****   U8X8_CA(0xB1, 0x00),		        /* (7) Page Address Set, Parameter  */
 182:..\u8g2\csrc/u8x8_d_s1d15721.c ****   U8X8_CA(0x13, 0x00),		        /* (8) Column Address Set  */
 183:..\u8g2\csrc/u8x8_d_s1d15721.c ****   U8X8_C(0xAE|1),			        /* (1) Display ON/OFF */  
 184:..\u8g2\csrc/u8x8_d_s1d15721.c ****   U8X8_END_TRANSFER(),           /* disable chip */
 185:..\u8g2\csrc/u8x8_d_s1d15721.c ****   U8X8_END()             			/* end of sequence */
 186:..\u8g2\csrc/u8x8_d_s1d15721.c **** };
 187:..\u8g2\csrc/u8x8_d_s1d15721.c **** 
 188:..\u8g2\csrc/u8x8_d_s1d15721.c **** uint8_t u8x8_d_s1d15721_240x64(u8x8_t *u8x8, uint8_t msg, uint8_t arg_int, void *arg_ptr)
 189:..\u8g2\csrc/u8x8_d_s1d15721.c **** {
 212              		.loc 1 189 0
 213              		.cfi_startproc
 214              		@ args = 0, pretend = 0, frame = 0
 215              		@ frame_needed = 0, uses_anonymous_args = 0
 216              	.LVL34:
 217 0000 38B5     		push	{r3, r4, r5, lr}
 218              		.cfi_def_cfa_offset 16
 219              		.cfi_offset 3, -16
 220              		.cfi_offset 4, -12
 221              		.cfi_offset 5, -8
 222              		.cfi_offset 14, -4
 223 0002 0446     		mov	r4, r0
 190:..\u8g2\csrc/u8x8_d_s1d15721.c **** 
 191:..\u8g2\csrc/u8x8_d_s1d15721.c ****   /* checking for the flip mode cmd first */
 192:..\u8g2\csrc/u8x8_d_s1d15721.c ****   if ( msg == U8X8_MSG_DISPLAY_SET_FLIP_MODE )
 224              		.loc 1 192 0
 225 0004 0D29     		cmp	r1, #13
 226 0006 12D1     		bne	.L16
 193:..\u8g2\csrc/u8x8_d_s1d15721.c ****   {
 194:..\u8g2\csrc/u8x8_d_s1d15721.c ****       if ( arg_int == 0 )
 227              		.loc 1 194 0
 228 0008 42B9     		cbnz	r2, .L17
 195:..\u8g2\csrc/u8x8_d_s1d15721.c ****       {
 196:..\u8g2\csrc/u8x8_d_s1d15721.c **** 	u8x8_cad_SendSequence(u8x8, u8x8_d_s1d15721_flip0_seq);
 229              		.loc 1 196 0
 230 000a 1749     		ldr	r1, .L23
 231              	.LVL35:
 232 000c FFF7FEFF 		bl	u8x8_cad_SendSequence
 233              	.LVL36:
 197:..\u8g2\csrc/u8x8_d_s1d15721.c **** 	u8x8->x_offset = u8x8->display_info->default_x_offset;
 234              		.loc 1 197 0
ARM GAS  C:\Users\brian\AppData\Local\Temp\ccof3ge9.s 			page 9


 235 0010 2368     		ldr	r3, [r4]
 236 0012 9B7C     		ldrb	r3, [r3, #18]	@ zero_extendqisi2
 237 0014 84F82230 		strb	r3, [r4, #34]
 198:..\u8g2\csrc/u8x8_d_s1d15721.c ****       }
 199:..\u8g2\csrc/u8x8_d_s1d15721.c ****       else
 200:..\u8g2\csrc/u8x8_d_s1d15721.c ****       {
 201:..\u8g2\csrc/u8x8_d_s1d15721.c **** 	u8x8_cad_SendSequence(u8x8, u8x8_d_s1d15721_flip1_seq);
 202:..\u8g2\csrc/u8x8_d_s1d15721.c **** 	u8x8->x_offset = u8x8->display_info->flipmode_x_offset;
 203:..\u8g2\csrc/u8x8_d_s1d15721.c ****       }	
 204:..\u8g2\csrc/u8x8_d_s1d15721.c ****       return 1;
 238              		.loc 1 204 0
 239 0018 0123     		movs	r3, #1
 240 001a 22E0     		b	.L18
 241              	.LVL37:
 242              	.L17:
 201:..\u8g2\csrc/u8x8_d_s1d15721.c **** 	u8x8->x_offset = u8x8->display_info->flipmode_x_offset;
 243              		.loc 1 201 0
 244 001c 1349     		ldr	r1, .L23+4
 245              	.LVL38:
 246 001e FFF7FEFF 		bl	u8x8_cad_SendSequence
 247              	.LVL39:
 202:..\u8g2\csrc/u8x8_d_s1d15721.c ****       }	
 248              		.loc 1 202 0
 249 0022 2368     		ldr	r3, [r4]
 250 0024 DB7C     		ldrb	r3, [r3, #19]	@ zero_extendqisi2
 251 0026 84F82230 		strb	r3, [r4, #34]
 252              		.loc 1 204 0
 253 002a 0123     		movs	r3, #1
 254 002c 19E0     		b	.L18
 255              	.LVL40:
 256              	.L16:
 257 002e 0D46     		mov	r5, r1
 205:..\u8g2\csrc/u8x8_d_s1d15721.c ****   }
 206:..\u8g2\csrc/u8x8_d_s1d15721.c ****   /* call the common procedure, this now leads to the effect, that the flip code is executed again 
 207:..\u8g2\csrc/u8x8_d_s1d15721.c ****   /* maybe we should paste the common code here to avoid this */
 208:..\u8g2\csrc/u8x8_d_s1d15721.c **** 
 209:..\u8g2\csrc/u8x8_d_s1d15721.c **** 
 210:..\u8g2\csrc/u8x8_d_s1d15721.c ****   if ( u8x8_d_s1d15721_common(u8x8, msg, arg_int, arg_ptr) == 0 )
 258              		.loc 1 210 0
 259 0030 FFF7FEFF 		bl	u8x8_d_s1d15721_common
 260              	.LVL41:
 261 0034 0346     		mov	r3, r0
 262 0036 98B9     		cbnz	r0, .L21
 211:..\u8g2\csrc/u8x8_d_s1d15721.c ****   {
 212:..\u8g2\csrc/u8x8_d_s1d15721.c ****     /* msg not handled, then try here */
 213:..\u8g2\csrc/u8x8_d_s1d15721.c ****     switch(msg)
 263              		.loc 1 213 0
 264 0038 092D     		cmp	r5, #9
 265 003a 02D0     		beq	.L19
 266 003c 0A2D     		cmp	r5, #10
 267 003e 06D0     		beq	.L20
 268 0040 0FE0     		b	.L18
 269              	.L19:
 214:..\u8g2\csrc/u8x8_d_s1d15721.c ****     {
 215:..\u8g2\csrc/u8x8_d_s1d15721.c ****       case U8X8_MSG_DISPLAY_SETUP_MEMORY:
 216:..\u8g2\csrc/u8x8_d_s1d15721.c **** 	u8x8_d_helper_display_setup_memory(u8x8, &u8x8_s1d15721_240x64_display_info);
 270              		.loc 1 216 0
ARM GAS  C:\Users\brian\AppData\Local\Temp\ccof3ge9.s 			page 10


 271 0042 0B49     		ldr	r1, .L23+8
 272 0044 2046     		mov	r0, r4
 273 0046 FFF7FEFF 		bl	u8x8_d_helper_display_setup_memory
 274              	.LVL42:
 217:..\u8g2\csrc/u8x8_d_s1d15721.c **** 	break;
 218:..\u8g2\csrc/u8x8_d_s1d15721.c ****       case U8X8_MSG_DISPLAY_INIT:
 219:..\u8g2\csrc/u8x8_d_s1d15721.c **** 	u8x8_d_helper_display_init(u8x8);
 220:..\u8g2\csrc/u8x8_d_s1d15721.c **** 	u8x8_cad_SendSequence(u8x8, u8x8_d_s1d15721_240x64_init_seq);
 221:..\u8g2\csrc/u8x8_d_s1d15721.c **** 	break;
 222:..\u8g2\csrc/u8x8_d_s1d15721.c ****       default:
 223:..\u8g2\csrc/u8x8_d_s1d15721.c **** 	return 0;		/* msg unknown */
 224:..\u8g2\csrc/u8x8_d_s1d15721.c ****     }
 225:..\u8g2\csrc/u8x8_d_s1d15721.c ****   }
 226:..\u8g2\csrc/u8x8_d_s1d15721.c ****   return 1;
 275              		.loc 1 226 0
 276 004a 0123     		movs	r3, #1
 217:..\u8g2\csrc/u8x8_d_s1d15721.c **** 	break;
 277              		.loc 1 217 0
 278 004c 09E0     		b	.L18
 279              	.L20:
 219:..\u8g2\csrc/u8x8_d_s1d15721.c **** 	u8x8_cad_SendSequence(u8x8, u8x8_d_s1d15721_240x64_init_seq);
 280              		.loc 1 219 0
 281 004e 2046     		mov	r0, r4
 282 0050 FFF7FEFF 		bl	u8x8_d_helper_display_init
 283              	.LVL43:
 220:..\u8g2\csrc/u8x8_d_s1d15721.c **** 	break;
 284              		.loc 1 220 0
 285 0054 0749     		ldr	r1, .L23+12
 286 0056 2046     		mov	r0, r4
 287 0058 FFF7FEFF 		bl	u8x8_cad_SendSequence
 288              	.LVL44:
 289              		.loc 1 226 0
 290 005c 0123     		movs	r3, #1
 221:..\u8g2\csrc/u8x8_d_s1d15721.c ****       default:
 291              		.loc 1 221 0
 292 005e 00E0     		b	.L18
 293              	.L21:
 294              		.loc 1 226 0
 295 0060 0123     		movs	r3, #1
 296              	.L18:
 227:..\u8g2\csrc/u8x8_d_s1d15721.c **** }
 297              		.loc 1 227 0
 298 0062 1846     		mov	r0, r3
 299 0064 38BD     		pop	{r3, r4, r5, pc}
 300              	.LVL45:
 301              	.L24:
 302 0066 00BF     		.align	2
 303              	.L23:
 304 0068 10000000 		.word	.LANCHOR0+16
 305 006c 18000000 		.word	.LANCHOR0+24
 306 0070 20000000 		.word	.LANCHOR0+32
 307 0074 38000000 		.word	.LANCHOR0+56
 308              		.cfi_endproc
 309              	.LFE1:
 310              		.size	u8x8_d_s1d15721_240x64, .-u8x8_d_s1d15721_240x64
 311              		.section	.rodata
 312              		.align	2
ARM GAS  C:\Users\brian\AppData\Local\Temp\ccof3ge9.s 			page 11


 313              		.set	.LANCHOR0,. + 0
 314              		.type	u8x8_d_s1d15721_powersave0_seq, %object
 315              		.size	u8x8_d_s1d15721_powersave0_seq, 5
 316              	u8x8_d_s1d15721_powersave0_seq:
 317 0000 18       		.byte	24
 318 0001 15       		.byte	21
 319 0002 A8       		.byte	-88
 320 0003 19       		.byte	25
 321 0004 FF       		.byte	-1
 322 0005 000000   		.space	3
 323              		.type	u8x8_d_s1d15721_powersave1_seq, %object
 324              		.size	u8x8_d_s1d15721_powersave1_seq, 5
 325              	u8x8_d_s1d15721_powersave1_seq:
 326 0008 18       		.byte	24
 327 0009 15       		.byte	21
 328 000a A9       		.byte	-87
 329 000b 19       		.byte	25
 330 000c FF       		.byte	-1
 331 000d 000000   		.space	3
 332              		.type	u8x8_d_s1d15721_flip0_seq, %object
 333              		.size	u8x8_d_s1d15721_flip0_seq, 5
 334              	u8x8_d_s1d15721_flip0_seq:
 335 0010 18       		.byte	24
 336 0011 15       		.byte	21
 337 0012 A6       		.byte	-90
 338 0013 19       		.byte	25
 339 0014 FF       		.byte	-1
 340 0015 000000   		.space	3
 341              		.type	u8x8_d_s1d15721_flip1_seq, %object
 342              		.size	u8x8_d_s1d15721_flip1_seq, 5
 343              	u8x8_d_s1d15721_flip1_seq:
 344 0018 18       		.byte	24
 345 0019 15       		.byte	21
 346 001a A7       		.byte	-89
 347 001b 19       		.byte	25
 348 001c FF       		.byte	-1
 349 001d 000000   		.space	3
 350              		.type	u8x8_s1d15721_240x64_display_info, %object
 351              		.size	u8x8_s1d15721_240x64_display_info, 24
 352              	u8x8_s1d15721_240x64_display_info:
 353 0020 00       		.byte	0
 354 0021 01       		.byte	1
 355 0022 0A       		.byte	10
 356 0023 14       		.byte	20
 357 0024 01       		.byte	1
 358 0025 0A       		.byte	10
 359 0026 1E       		.byte	30
 360 0027 41       		.byte	65
 361 0028 00127A00 		.word	8000000
 362 002c 00       		.byte	0
 363 002d 04       		.byte	4
 364 002e 1E       		.byte	30
 365 002f 41       		.byte	65
 366 0030 1E       		.byte	30
 367 0031 08       		.byte	8
 368 0032 01       		.byte	1
 369 0033 01       		.byte	1
ARM GAS  C:\Users\brian\AppData\Local\Temp\ccof3ge9.s 			page 12


 370 0034 F000     		.short	240
 371 0036 4000     		.short	64
 372              		.type	u8x8_d_s1d15721_240x64_init_seq, %object
 373              		.size	u8x8_d_s1d15721_240x64_init_seq, 59
 374              	u8x8_d_s1d15721_240x64_init_seq:
 375 0038 18       		.byte	24
 376 0039 15       		.byte	21
 377 003a C5       		.byte	-59
 378 003b 15       		.byte	21
 379 003c A6       		.byte	-90
 380 003d 16       		.byte	22
 381 003e 01       		.byte	1
 382 003f 15       		.byte	21
 383 0040 A4       		.byte	-92
 384 0041 16       		.byte	22
 385 0042 00       		.byte	0
 386 0043 15       		.byte	21
 387 0044 6D       		.byte	109
 388 0045 16       		.byte	22
 389 0046 10       		.byte	16
 390 0047 16       		.byte	22
 391 0048 02       		.byte	2
 392 0049 15       		.byte	21
 393 004a 66       		.byte	102
 394 004b 16       		.byte	22
 395 004c 01       		.byte	1
 396 004d 15       		.byte	21
 397 004e 39       		.byte	57
 398 004f 16       		.byte	22
 399 0050 36       		.byte	54
 400 0051 15       		.byte	21
 401 0052 2B       		.byte	43
 402 0053 16       		.byte	22
 403 0054 07       		.byte	7
 404 0055 15       		.byte	21
 405 0056 81       		.byte	-127
 406 0057 16       		.byte	22
 407 0058 0A       		.byte	10
 408 0059 15       		.byte	21
 409 005a 5F       		.byte	95
 410 005b 16       		.byte	22
 411 005c 00       		.byte	0
 412 005d 15       		.byte	21
 413 005e AB       		.byte	-85
 414 005f 15       		.byte	21
 415 0060 25       		.byte	37
 416 0061 16       		.byte	22
 417 0062 1F       		.byte	31
 418 0063 15       		.byte	21
 419 0064 8A       		.byte	-118
 420 0065 16       		.byte	22
 421 0066 00       		.byte	0
 422 0067 15       		.byte	21
 423 0068 B1       		.byte	-79
 424 0069 16       		.byte	22
 425 006a 00       		.byte	0
 426 006b 15       		.byte	21
ARM GAS  C:\Users\brian\AppData\Local\Temp\ccof3ge9.s 			page 13


 427 006c 13       		.byte	19
 428 006d 16       		.byte	22
 429 006e 00       		.byte	0
 430 006f 15       		.byte	21
 431 0070 AF       		.byte	-81
 432 0071 19       		.byte	25
 433 0072 FF       		.byte	-1
 434              		.text
 435              	.Letext0:
 436              		.file 2 "c:\\program files (x86)\\cypress\\psoc creator\\4.4\\psoc creator\\import\\gnu\\arm\\5.4.
 437              		.file 3 "c:\\program files (x86)\\cypress\\psoc creator\\4.4\\psoc creator\\import\\gnu\\arm\\5.4.
 438              		.file 4 "..\\u8g2\\csrc\\u8x8.h"