ARM GAS  C:\Users\brian\AppData\Local\Temp\ccX6ENEN.s 			page 1


   1              		.syntax unified
   2              		.cpu cortex-m3
   3              		.fpu softvfp
   4              		.eabi_attribute 20, 1
   5              		.eabi_attribute 21, 1
   6              		.eabi_attribute 23, 3
   7              		.eabi_attribute 24, 1
   8              		.eabi_attribute 25, 1
   9              		.eabi_attribute 26, 1
  10              		.eabi_attribute 30, 1
  11              		.eabi_attribute 34, 1
  12              		.eabi_attribute 18, 4
  13              		.thumb
  14              		.syntax unified
  15              		.file	"u8x8_d_sh1122.c"
  16              		.text
  17              	.Ltext0:
  18              		.cfi_sections	.debug_frame
  19              		.section	.text.u8x8_write_byte_to_16gr_device,"ax",%progbits
  20              		.align	2
  21              		.thumb
  22              		.thumb_func
  23              		.type	u8x8_write_byte_to_16gr_device, %function
  24              	u8x8_write_byte_to_16gr_device:
  25              	.LFB0:
  26              		.file 1 "..\\u8g2\\csrc\\u8x8_d_sh1122.c"
   1:..\u8g2\csrc/u8x8_d_sh1122.c **** /*
   2:..\u8g2\csrc/u8x8_d_sh1122.c **** 
   3:..\u8g2\csrc/u8x8_d_sh1122.c ****   u8x8_d_sh1122.c
   4:..\u8g2\csrc/u8x8_d_sh1122.c ****   
   5:..\u8g2\csrc/u8x8_d_sh1122.c ****   Universal 8bit Graphics Library (https://github.com/olikraus/u8g2/)
   6:..\u8g2\csrc/u8x8_d_sh1122.c **** 
   7:..\u8g2\csrc/u8x8_d_sh1122.c ****   Copyright (c) 2016, olikraus@gmail.com
   8:..\u8g2\csrc/u8x8_d_sh1122.c ****   All rights reserved.
   9:..\u8g2\csrc/u8x8_d_sh1122.c **** 
  10:..\u8g2\csrc/u8x8_d_sh1122.c ****   Redistribution and use in source and binary forms, with or without modification, 
  11:..\u8g2\csrc/u8x8_d_sh1122.c ****   are permitted provided that the following conditions are met:
  12:..\u8g2\csrc/u8x8_d_sh1122.c **** 
  13:..\u8g2\csrc/u8x8_d_sh1122.c ****   * Redistributions of source code must retain the above copyright notice, this list 
  14:..\u8g2\csrc/u8x8_d_sh1122.c ****     of conditions and the following disclaimer.
  15:..\u8g2\csrc/u8x8_d_sh1122.c ****     
  16:..\u8g2\csrc/u8x8_d_sh1122.c ****   * Redistributions in binary form must reproduce the above copyright notice, this 
  17:..\u8g2\csrc/u8x8_d_sh1122.c ****     list of conditions and the following disclaimer in the documentation and/or other 
  18:..\u8g2\csrc/u8x8_d_sh1122.c ****     materials provided with the distribution.
  19:..\u8g2\csrc/u8x8_d_sh1122.c **** 
  20:..\u8g2\csrc/u8x8_d_sh1122.c ****   THIS SOFTWARE IS PROVIDED BY THE COPYRIGHT HOLDERS AND 
  21:..\u8g2\csrc/u8x8_d_sh1122.c ****   CONTRIBUTORS "AS IS" AND ANY EXPRESS OR IMPLIED WARRANTIES, 
  22:..\u8g2\csrc/u8x8_d_sh1122.c ****   INCLUDING, BUT NOT LIMITED TO, THE IMPLIED WARRANTIES OF 
  23:..\u8g2\csrc/u8x8_d_sh1122.c ****   MERCHANTABILITY AND FITNESS FOR A PARTICULAR PURPOSE ARE 
  24:..\u8g2\csrc/u8x8_d_sh1122.c ****   DISCLAIMED. IN NO EVENT SHALL THE COPYRIGHT HOLDER OR 
  25:..\u8g2\csrc/u8x8_d_sh1122.c ****   CONTRIBUTORS BE LIABLE FOR ANY DIRECT, INDIRECT, INCIDENTAL, 
  26:..\u8g2\csrc/u8x8_d_sh1122.c ****   SPECIAL, EXEMPLARY, OR CONSEQUENTIAL DAMAGES (INCLUDING, BUT 
  27:..\u8g2\csrc/u8x8_d_sh1122.c ****   NOT LIMITED TO, PROCUREMENT OF SUBSTITUTE GOODS OR SERVICES; 
  28:..\u8g2\csrc/u8x8_d_sh1122.c ****   LOSS OF USE, DATA, OR PROFITS; OR BUSINESS INTERRUPTION) HOWEVER 
  29:..\u8g2\csrc/u8x8_d_sh1122.c ****   CAUSED AND ON ANY THEORY OF LIABILITY, WHETHER IN CONTRACT, 
  30:..\u8g2\csrc/u8x8_d_sh1122.c ****   STRICT LIABILITY, OR TORT (INCLUDING NEGLIGENCE OR OTHERWISE) 
  31:..\u8g2\csrc/u8x8_d_sh1122.c ****   ARISING IN ANY WAY OUT OF THE USE OF THIS SOFTWARE, EVEN IF 
ARM GAS  C:\Users\brian\AppData\Local\Temp\ccX6ENEN.s 			page 2


  32:..\u8g2\csrc/u8x8_d_sh1122.c ****   ADVISED OF THE POSSIBILITY OF SUCH DAMAGE.  
  33:..\u8g2\csrc/u8x8_d_sh1122.c **** 
  34:..\u8g2\csrc/u8x8_d_sh1122.c **** 
  35:..\u8g2\csrc/u8x8_d_sh1122.c ****   Copied from sh1122 mostly because of the similar RAM architecture.
  36:..\u8g2\csrc/u8x8_d_sh1122.c ****   However: Commands are very different!
  37:..\u8g2\csrc/u8x8_d_sh1122.c ****   
  38:..\u8g2\csrc/u8x8_d_sh1122.c **** */
  39:..\u8g2\csrc/u8x8_d_sh1122.c **** #include "u8x8.h"
  40:..\u8g2\csrc/u8x8_d_sh1122.c **** 
  41:..\u8g2\csrc/u8x8_d_sh1122.c **** 
  42:..\u8g2\csrc/u8x8_d_sh1122.c **** 
  43:..\u8g2\csrc/u8x8_d_sh1122.c **** 
  44:..\u8g2\csrc/u8x8_d_sh1122.c **** static const uint8_t u8x8_d_sh1122_powersave0_seq[] = {
  45:..\u8g2\csrc/u8x8_d_sh1122.c ****   U8X8_START_TRANSFER(),             	/* enable chip, delay is part of the transfer start */
  46:..\u8g2\csrc/u8x8_d_sh1122.c ****   U8X8_C(0x0af),		                /* sh1122: display on */
  47:..\u8g2\csrc/u8x8_d_sh1122.c ****   U8X8_END_TRANSFER(),             	/* disable chip */
  48:..\u8g2\csrc/u8x8_d_sh1122.c ****   U8X8_END()             			/* end of sequence */
  49:..\u8g2\csrc/u8x8_d_sh1122.c **** };
  50:..\u8g2\csrc/u8x8_d_sh1122.c **** 
  51:..\u8g2\csrc/u8x8_d_sh1122.c **** static const uint8_t u8x8_d_sh1122_powersave1_seq[] = {
  52:..\u8g2\csrc/u8x8_d_sh1122.c ****   U8X8_START_TRANSFER(),             	/* enable chip, delay is part of the transfer start */
  53:..\u8g2\csrc/u8x8_d_sh1122.c ****   U8X8_C(0x0ae),		                /* sh1122: display off */
  54:..\u8g2\csrc/u8x8_d_sh1122.c ****   U8X8_END_TRANSFER(),             	/* disable chip */
  55:..\u8g2\csrc/u8x8_d_sh1122.c ****   U8X8_END()             			/* end of sequence */
  56:..\u8g2\csrc/u8x8_d_sh1122.c **** };
  57:..\u8g2\csrc/u8x8_d_sh1122.c **** 
  58:..\u8g2\csrc/u8x8_d_sh1122.c **** 
  59:..\u8g2\csrc/u8x8_d_sh1122.c **** 
  60:..\u8g2\csrc/u8x8_d_sh1122.c **** 
  61:..\u8g2\csrc/u8x8_d_sh1122.c **** /*
  62:..\u8g2\csrc/u8x8_d_sh1122.c ****   input:
  63:..\u8g2\csrc/u8x8_d_sh1122.c ****     one tile (8 Bytes)
  64:..\u8g2\csrc/u8x8_d_sh1122.c ****   output:
  65:..\u8g2\csrc/u8x8_d_sh1122.c ****     Tile for SH1122 (32 Bytes)
  66:..\u8g2\csrc/u8x8_d_sh1122.c **** */
  67:..\u8g2\csrc/u8x8_d_sh1122.c **** 
  68:..\u8g2\csrc/u8x8_d_sh1122.c **** /*
  69:..\u8g2\csrc/u8x8_d_sh1122.c **** static uint8_t u8x8_sh1122_to32_dest_buf[32];
  70:..\u8g2\csrc/u8x8_d_sh1122.c **** 
  71:..\u8g2\csrc/u8x8_d_sh1122.c **** static uint8_t *u8x8_sh1122_8to32(U8X8_UNUSED u8x8_t *u8x8, uint8_t *ptr)
  72:..\u8g2\csrc/u8x8_d_sh1122.c **** {
  73:..\u8g2\csrc/u8x8_d_sh1122.c ****   uint8_t v;
  74:..\u8g2\csrc/u8x8_d_sh1122.c ****   uint8_t a,b;
  75:..\u8g2\csrc/u8x8_d_sh1122.c ****   uint8_t i, j;
  76:..\u8g2\csrc/u8x8_d_sh1122.c ****   uint8_t *dest;
  77:..\u8g2\csrc/u8x8_d_sh1122.c ****   
  78:..\u8g2\csrc/u8x8_d_sh1122.c ****   for( j = 0; j < 4; j++ )
  79:..\u8g2\csrc/u8x8_d_sh1122.c ****   {
  80:..\u8g2\csrc/u8x8_d_sh1122.c ****     dest = u8x8_sh1122_to32_dest_buf;
  81:..\u8g2\csrc/u8x8_d_sh1122.c ****     dest += j;
  82:..\u8g2\csrc/u8x8_d_sh1122.c ****     a =*ptr;
  83:..\u8g2\csrc/u8x8_d_sh1122.c ****     ptr++;
  84:..\u8g2\csrc/u8x8_d_sh1122.c ****     b = *ptr;
  85:..\u8g2\csrc/u8x8_d_sh1122.c ****     ptr++;
  86:..\u8g2\csrc/u8x8_d_sh1122.c ****     for( i = 0; i < 8; i++ )
  87:..\u8g2\csrc/u8x8_d_sh1122.c ****     {
  88:..\u8g2\csrc/u8x8_d_sh1122.c ****       v = 0;
ARM GAS  C:\Users\brian\AppData\Local\Temp\ccX6ENEN.s 			page 3


  89:..\u8g2\csrc/u8x8_d_sh1122.c ****       if ( a&1 ) v |= 0xf0;
  90:..\u8g2\csrc/u8x8_d_sh1122.c ****       if ( b&1 ) v |= 0x0f;
  91:..\u8g2\csrc/u8x8_d_sh1122.c ****       *dest = v;
  92:..\u8g2\csrc/u8x8_d_sh1122.c ****       dest+=4;
  93:..\u8g2\csrc/u8x8_d_sh1122.c ****       a >>= 1;
  94:..\u8g2\csrc/u8x8_d_sh1122.c ****       b >>= 1;
  95:..\u8g2\csrc/u8x8_d_sh1122.c ****     }
  96:..\u8g2\csrc/u8x8_d_sh1122.c ****   }
  97:..\u8g2\csrc/u8x8_d_sh1122.c ****   
  98:..\u8g2\csrc/u8x8_d_sh1122.c ****   return u8x8_sh1122_to32_dest_buf;
  99:..\u8g2\csrc/u8x8_d_sh1122.c **** }
 100:..\u8g2\csrc/u8x8_d_sh1122.c **** */
 101:..\u8g2\csrc/u8x8_d_sh1122.c **** 
 102:..\u8g2\csrc/u8x8_d_sh1122.c **** 
 103:..\u8g2\csrc/u8x8_d_sh1122.c **** static uint8_t u8x8_write_byte_to_16gr_device(u8x8_t *u8x8, uint8_t b)
 104:..\u8g2\csrc/u8x8_d_sh1122.c **** {
  27              		.loc 1 104 0
  28              		.cfi_startproc
  29              		@ args = 0, pretend = 0, frame = 0
  30              		@ frame_needed = 0, uses_anonymous_args = 0
  31              	.LVL0:
  32 0000 10B5     		push	{r4, lr}
  33              		.cfi_def_cfa_offset 8
  34              		.cfi_offset 4, -8
  35              		.cfi_offset 14, -4
 105:..\u8g2\csrc/u8x8_d_sh1122.c ****   static uint8_t buf[4];
 106:..\u8g2\csrc/u8x8_d_sh1122.c ****   static uint8_t map[4] = { 0, 0x00f, 0x0f0, 0x0ff };
 107:..\u8g2\csrc/u8x8_d_sh1122.c ****   buf [3] = map[b & 3];
  36              		.loc 1 107 0
  37 0002 01F00302 		and	r2, r1, #3
  38 0006 0A4B     		ldr	r3, .L3
  39 0008 9C5C     		ldrb	r4, [r3, r2]	@ zero_extendqisi2
  40 000a 0A4A     		ldr	r2, .L3+4
  41 000c D470     		strb	r4, [r2, #3]
 108:..\u8g2\csrc/u8x8_d_sh1122.c ****   b>>=2;
  42              		.loc 1 108 0
  43 000e 8908     		lsrs	r1, r1, #2
  44              	.LVL1:
 109:..\u8g2\csrc/u8x8_d_sh1122.c ****   buf [2] = map[b & 3];
  45              		.loc 1 109 0
  46 0010 01F00304 		and	r4, r1, #3
  47 0014 1C5D     		ldrb	r4, [r3, r4]	@ zero_extendqisi2
  48 0016 9470     		strb	r4, [r2, #2]
 110:..\u8g2\csrc/u8x8_d_sh1122.c ****   b>>=2;
  49              		.loc 1 110 0
  50 0018 8908     		lsrs	r1, r1, #2
  51              	.LVL2:
 111:..\u8g2\csrc/u8x8_d_sh1122.c ****   buf [1] = map[b & 3];
  52              		.loc 1 111 0
  53 001a 01F00304 		and	r4, r1, #3
  54 001e 1C5D     		ldrb	r4, [r3, r4]	@ zero_extendqisi2
  55 0020 5470     		strb	r4, [r2, #1]
  56              	.LVL3:
 112:..\u8g2\csrc/u8x8_d_sh1122.c ****   b>>=2;
 113:..\u8g2\csrc/u8x8_d_sh1122.c ****   buf [0] = map[b & 3];
  57              		.loc 1 113 0
  58 0022 8908     		lsrs	r1, r1, #2
ARM GAS  C:\Users\brian\AppData\Local\Temp\ccX6ENEN.s 			page 4


  59              	.LVL4:
  60 0024 5B5C     		ldrb	r3, [r3, r1]	@ zero_extendqisi2
  61 0026 1370     		strb	r3, [r2]
 114:..\u8g2\csrc/u8x8_d_sh1122.c ****   return u8x8_cad_SendData(u8x8, 4, buf);
  62              		.loc 1 114 0
  63 0028 0421     		movs	r1, #4
  64 002a FFF7FEFF 		bl	u8x8_cad_SendData
  65              	.LVL5:
 115:..\u8g2\csrc/u8x8_d_sh1122.c **** }
  66              		.loc 1 115 0
  67 002e 10BD     		pop	{r4, pc}
  68              	.L4:
  69              		.align	2
  70              	.L3:
  71 0030 00000000 		.word	.LANCHOR0
  72 0034 00000000 		.word	.LANCHOR1
  73              		.cfi_endproc
  74              	.LFE0:
  75              		.size	u8x8_write_byte_to_16gr_device, .-u8x8_write_byte_to_16gr_device
  76              		.section	.text.u8x8_d_sh1122_common,"ax",%progbits
  77              		.align	2
  78              		.global	u8x8_d_sh1122_common
  79              		.thumb
  80              		.thumb_func
  81              		.type	u8x8_d_sh1122_common, %function
  82              	u8x8_d_sh1122_common:
  83              	.LFB1:
 116:..\u8g2\csrc/u8x8_d_sh1122.c **** 
 117:..\u8g2\csrc/u8x8_d_sh1122.c **** uint8_t u8x8_d_sh1122_common(u8x8_t *u8x8, uint8_t msg, uint8_t arg_int, void *arg_ptr)
 118:..\u8g2\csrc/u8x8_d_sh1122.c **** {
  84              		.loc 1 118 0
  85              		.cfi_startproc
  86              		@ args = 0, pretend = 0, frame = 0
  87              		@ frame_needed = 0, uses_anonymous_args = 0
  88              	.LVL6:
  89 0000 2DE9F047 		push	{r4, r5, r6, r7, r8, r9, r10, lr}
  90              		.cfi_def_cfa_offset 32
  91              		.cfi_offset 4, -32
  92              		.cfi_offset 5, -28
  93              		.cfi_offset 6, -24
  94              		.cfi_offset 7, -20
  95              		.cfi_offset 8, -16
  96              		.cfi_offset 9, -12
  97              		.cfi_offset 10, -8
  98              		.cfi_offset 14, -4
  99 0004 0646     		mov	r6, r0
 100 0006 1446     		mov	r4, r2
 119:..\u8g2\csrc/u8x8_d_sh1122.c ****   uint8_t x; 
 120:..\u8g2\csrc/u8x8_d_sh1122.c ****   uint8_t y, c, i;
 121:..\u8g2\csrc/u8x8_d_sh1122.c ****   uint8_t *ptr;
 122:..\u8g2\csrc/u8x8_d_sh1122.c ****   switch(msg)
 101              		.loc 1 122 0
 102 0008 0E29     		cmp	r1, #14
 103 000a 11D0     		beq	.L7
 104 000c 9A46     		mov	r10, r3
 105 000e 0F29     		cmp	r1, #15
 106 0010 1ED0     		beq	.L8
ARM GAS  C:\Users\brian\AppData\Local\Temp\ccX6ENEN.s 			page 5


 107 0012 0B29     		cmp	r1, #11
 108 0014 5FD1     		bne	.L16
 123:..\u8g2\csrc/u8x8_d_sh1122.c ****   {
 124:..\u8g2\csrc/u8x8_d_sh1122.c ****     /* U8X8_MSG_DISPLAY_SETUP_MEMORY is handled by the calling function */
 125:..\u8g2\csrc/u8x8_d_sh1122.c ****     /*
 126:..\u8g2\csrc/u8x8_d_sh1122.c ****     case U8X8_MSG_DISPLAY_SETUP_MEMORY:
 127:..\u8g2\csrc/u8x8_d_sh1122.c ****       break;
 128:..\u8g2\csrc/u8x8_d_sh1122.c ****     case U8X8_MSG_DISPLAY_INIT:
 129:..\u8g2\csrc/u8x8_d_sh1122.c ****       u8x8_d_helper_display_init(u8x8);
 130:..\u8g2\csrc/u8x8_d_sh1122.c ****       u8x8_cad_SendSequence(u8x8, u8x8_d_sh1122_256x64_init_seq);
 131:..\u8g2\csrc/u8x8_d_sh1122.c ****       break;
 132:..\u8g2\csrc/u8x8_d_sh1122.c ****     */
 133:..\u8g2\csrc/u8x8_d_sh1122.c ****     case U8X8_MSG_DISPLAY_SET_POWER_SAVE:
 134:..\u8g2\csrc/u8x8_d_sh1122.c ****       if ( arg_int == 0 )
 109              		.loc 1 134 0
 110 0016 2AB9     		cbnz	r2, .L10
 135:..\u8g2\csrc/u8x8_d_sh1122.c **** 	u8x8_cad_SendSequence(u8x8, u8x8_d_sh1122_powersave0_seq);
 111              		.loc 1 135 0
 112 0018 3049     		ldr	r1, .L18
 113              	.LVL7:
 114 001a FFF7FEFF 		bl	u8x8_cad_SendSequence
 115              	.LVL8:
 136:..\u8g2\csrc/u8x8_d_sh1122.c ****       else
 137:..\u8g2\csrc/u8x8_d_sh1122.c **** 	u8x8_cad_SendSequence(u8x8, u8x8_d_sh1122_powersave1_seq);
 138:..\u8g2\csrc/u8x8_d_sh1122.c ****       break;
 139:..\u8g2\csrc/u8x8_d_sh1122.c **** #ifdef U8X8_WITH_SET_CONTRAST
 140:..\u8g2\csrc/u8x8_d_sh1122.c ****     case U8X8_MSG_DISPLAY_SET_CONTRAST:
 141:..\u8g2\csrc/u8x8_d_sh1122.c ****       u8x8_cad_StartTransfer(u8x8);
 142:..\u8g2\csrc/u8x8_d_sh1122.c ****       u8x8_cad_SendCmd(u8x8, 0x081 );
 143:..\u8g2\csrc/u8x8_d_sh1122.c ****       u8x8_cad_SendArg(u8x8, arg_int );	/* sh1122 has range from 0 to 255 */
 144:..\u8g2\csrc/u8x8_d_sh1122.c ****       u8x8_cad_EndTransfer(u8x8);
 145:..\u8g2\csrc/u8x8_d_sh1122.c ****       break;
 146:..\u8g2\csrc/u8x8_d_sh1122.c **** #endif
 147:..\u8g2\csrc/u8x8_d_sh1122.c ****     case U8X8_MSG_DISPLAY_DRAW_TILE:
 148:..\u8g2\csrc/u8x8_d_sh1122.c ****       u8x8_cad_StartTransfer(u8x8);
 149:..\u8g2\csrc/u8x8_d_sh1122.c ****       x = ((u8x8_tile_t *)arg_ptr)->x_pos;    
 150:..\u8g2\csrc/u8x8_d_sh1122.c ****       x *= 2;		// only every 4th col can be addressed
 151:..\u8g2\csrc/u8x8_d_sh1122.c ****       x += u8x8->x_offset;		
 152:..\u8g2\csrc/u8x8_d_sh1122.c ****     
 153:..\u8g2\csrc/u8x8_d_sh1122.c ****       y = (((u8x8_tile_t *)arg_ptr)->y_pos);
 154:..\u8g2\csrc/u8x8_d_sh1122.c ****       y *= 8;
 155:..\u8g2\csrc/u8x8_d_sh1122.c ****           
 156:..\u8g2\csrc/u8x8_d_sh1122.c ****       
 157:..\u8g2\csrc/u8x8_d_sh1122.c ****       c = ((u8x8_tile_t *)arg_ptr)->cnt;	/* number of tiles */
 158:..\u8g2\csrc/u8x8_d_sh1122.c ****       ptr = ((u8x8_tile_t *)arg_ptr)->tile_ptr;	/* data ptr to the tiles */
 159:..\u8g2\csrc/u8x8_d_sh1122.c ****       for( i = 0; i < 8; i++ )
 160:..\u8g2\csrc/u8x8_d_sh1122.c ****       {
 161:..\u8g2\csrc/u8x8_d_sh1122.c **** 	u8x8_cad_SendCmd(u8x8, 0x0b0 );	/* set row address */
 162:..\u8g2\csrc/u8x8_d_sh1122.c **** 	u8x8_cad_SendArg(u8x8, y);
 163:..\u8g2\csrc/u8x8_d_sh1122.c **** 	u8x8_cad_SendCmd(u8x8, x & 15 );	/* lower 4 bit*/
 164:..\u8g2\csrc/u8x8_d_sh1122.c **** 	u8x8_cad_SendCmd(u8x8, 0x010 | (x >> 4) );	/* higher 3 bit */	  
 165:..\u8g2\csrc/u8x8_d_sh1122.c **** 	c = ((u8x8_tile_t *)arg_ptr)->cnt;	/* number of tiles */
 166:..\u8g2\csrc/u8x8_d_sh1122.c **** 
 167:..\u8g2\csrc/u8x8_d_sh1122.c **** 	while (  c > 0 )
 168:..\u8g2\csrc/u8x8_d_sh1122.c **** 	{
 169:..\u8g2\csrc/u8x8_d_sh1122.c **** 	  u8x8_write_byte_to_16gr_device(u8x8, *ptr);
 170:..\u8g2\csrc/u8x8_d_sh1122.c **** 	  c--;
ARM GAS  C:\Users\brian\AppData\Local\Temp\ccX6ENEN.s 			page 6


 171:..\u8g2\csrc/u8x8_d_sh1122.c **** 	  ptr++;
 172:..\u8g2\csrc/u8x8_d_sh1122.c **** 	}
 173:..\u8g2\csrc/u8x8_d_sh1122.c **** 	y++;
 174:..\u8g2\csrc/u8x8_d_sh1122.c ****       }
 175:..\u8g2\csrc/u8x8_d_sh1122.c **** 
 176:..\u8g2\csrc/u8x8_d_sh1122.c ****       
 177:..\u8g2\csrc/u8x8_d_sh1122.c ****       u8x8_cad_EndTransfer(u8x8);
 178:..\u8g2\csrc/u8x8_d_sh1122.c ****       break;
 179:..\u8g2\csrc/u8x8_d_sh1122.c ****     default:
 180:..\u8g2\csrc/u8x8_d_sh1122.c ****       return 0;
 181:..\u8g2\csrc/u8x8_d_sh1122.c ****   }
 182:..\u8g2\csrc/u8x8_d_sh1122.c ****   return 1;
 116              		.loc 1 182 0
 117 001e 0120     		movs	r0, #1
 118 0020 BDE8F087 		pop	{r4, r5, r6, r7, r8, r9, r10, pc}
 119              	.LVL9:
 120              	.L10:
 137:..\u8g2\csrc/u8x8_d_sh1122.c ****       break;
 121              		.loc 1 137 0
 122 0024 2E49     		ldr	r1, .L18+4
 123              	.LVL10:
 124 0026 FFF7FEFF 		bl	u8x8_cad_SendSequence
 125              	.LVL11:
 126              		.loc 1 182 0
 127 002a 0120     		movs	r0, #1
 128 002c BDE8F087 		pop	{r4, r5, r6, r7, r8, r9, r10, pc}
 129              	.LVL12:
 130              	.L7:
 141:..\u8g2\csrc/u8x8_d_sh1122.c ****       u8x8_cad_SendCmd(u8x8, 0x081 );
 131              		.loc 1 141 0
 132 0030 FFF7FEFF 		bl	u8x8_cad_StartTransfer
 133              	.LVL13:
 142:..\u8g2\csrc/u8x8_d_sh1122.c ****       u8x8_cad_SendArg(u8x8, arg_int );	/* sh1122 has range from 0 to 255 */
 134              		.loc 1 142 0
 135 0034 8121     		movs	r1, #129
 136 0036 3046     		mov	r0, r6
 137 0038 FFF7FEFF 		bl	u8x8_cad_SendCmd
 138              	.LVL14:
 143:..\u8g2\csrc/u8x8_d_sh1122.c ****       u8x8_cad_EndTransfer(u8x8);
 139              		.loc 1 143 0
 140 003c 2146     		mov	r1, r4
 141 003e 3046     		mov	r0, r6
 142 0040 FFF7FEFF 		bl	u8x8_cad_SendArg
 143              	.LVL15:
 144:..\u8g2\csrc/u8x8_d_sh1122.c ****       break;
 144              		.loc 1 144 0
 145 0044 3046     		mov	r0, r6
 146 0046 FFF7FEFF 		bl	u8x8_cad_EndTransfer
 147              	.LVL16:
 148              		.loc 1 182 0
 149 004a 0120     		movs	r0, #1
 145:..\u8g2\csrc/u8x8_d_sh1122.c **** #endif
 150              		.loc 1 145 0
 151 004c BDE8F087 		pop	{r4, r5, r6, r7, r8, r9, r10, pc}
 152              	.LVL17:
 153              	.L8:
 148:..\u8g2\csrc/u8x8_d_sh1122.c ****       x = ((u8x8_tile_t *)arg_ptr)->x_pos;    
ARM GAS  C:\Users\brian\AppData\Local\Temp\ccX6ENEN.s 			page 7


 154              		.loc 1 148 0
 155 0050 FFF7FEFF 		bl	u8x8_cad_StartTransfer
 156              	.LVL18:
 149:..\u8g2\csrc/u8x8_d_sh1122.c ****       x *= 2;		// only every 4th col can be addressed
 157              		.loc 1 149 0
 158 0054 9AF80530 		ldrb	r3, [r10, #5]	@ zero_extendqisi2
 159              	.LVL19:
 150:..\u8g2\csrc/u8x8_d_sh1122.c ****       x += u8x8->x_offset;		
 160              		.loc 1 150 0
 161 0058 5B00     		lsls	r3, r3, #1
 162              	.LVL20:
 163 005a DBB2     		uxtb	r3, r3
 164              	.LVL21:
 151:..\u8g2\csrc/u8x8_d_sh1122.c ****     
 165              		.loc 1 151 0
 166 005c 96F82290 		ldrb	r9, [r6, #34]	@ zero_extendqisi2
 167 0060 4B44     		add	r3, r3, r9
 168              	.LVL22:
 169 0062 5FFA83F9 		uxtb	r9, r3
 170              	.LVL23:
 153:..\u8g2\csrc/u8x8_d_sh1122.c ****       y *= 8;
 171              		.loc 1 153 0
 172 0066 9AF80670 		ldrb	r7, [r10, #6]	@ zero_extendqisi2
 173              	.LVL24:
 154:..\u8g2\csrc/u8x8_d_sh1122.c ****           
 174              		.loc 1 154 0
 175 006a FF00     		lsls	r7, r7, #3
 176              	.LVL25:
 177 006c FFB2     		uxtb	r7, r7
 178              	.LVL26:
 158:..\u8g2\csrc/u8x8_d_sh1122.c ****       for( i = 0; i < 8; i++ )
 179              		.loc 1 158 0
 180 006e DAF80050 		ldr	r5, [r10]
 181              	.LVL27:
 159:..\u8g2\csrc/u8x8_d_sh1122.c ****       {
 182              		.loc 1 159 0
 183 0072 4FF00008 		mov	r8, #0
 184 0076 25E0     		b	.L11
 185              	.LVL28:
 186              	.L14:
 161:..\u8g2\csrc/u8x8_d_sh1122.c **** 	u8x8_cad_SendArg(u8x8, y);
 187              		.loc 1 161 0
 188 0078 B021     		movs	r1, #176
 189 007a 3046     		mov	r0, r6
 190 007c FFF7FEFF 		bl	u8x8_cad_SendCmd
 191              	.LVL29:
 162:..\u8g2\csrc/u8x8_d_sh1122.c **** 	u8x8_cad_SendCmd(u8x8, x & 15 );	/* lower 4 bit*/
 192              		.loc 1 162 0
 193 0080 3946     		mov	r1, r7
 194 0082 3046     		mov	r0, r6
 195 0084 FFF7FEFF 		bl	u8x8_cad_SendArg
 196              	.LVL30:
 163:..\u8g2\csrc/u8x8_d_sh1122.c **** 	u8x8_cad_SendCmd(u8x8, 0x010 | (x >> 4) );	/* higher 3 bit */	  
 197              		.loc 1 163 0
 198 0088 09F00F01 		and	r1, r9, #15
 199 008c 3046     		mov	r0, r6
 200 008e FFF7FEFF 		bl	u8x8_cad_SendCmd
ARM GAS  C:\Users\brian\AppData\Local\Temp\ccX6ENEN.s 			page 8


 201              	.LVL31:
 164:..\u8g2\csrc/u8x8_d_sh1122.c **** 	c = ((u8x8_tile_t *)arg_ptr)->cnt;	/* number of tiles */
 202              		.loc 1 164 0
 203 0092 4FEA1911 		lsr	r1, r9, #4
 204 0096 41F01001 		orr	r1, r1, #16
 205 009a 3046     		mov	r0, r6
 206 009c FFF7FEFF 		bl	u8x8_cad_SendCmd
 207              	.LVL32:
 165:..\u8g2\csrc/u8x8_d_sh1122.c **** 
 208              		.loc 1 165 0
 209 00a0 9AF80440 		ldrb	r4, [r10, #4]	@ zero_extendqisi2
 210              	.LVL33:
 167:..\u8g2\csrc/u8x8_d_sh1122.c **** 	{
 211              		.loc 1 167 0
 212 00a4 06E0     		b	.L12
 213              	.L13:
 169:..\u8g2\csrc/u8x8_d_sh1122.c **** 	  c--;
 214              		.loc 1 169 0
 215 00a6 15F8011B 		ldrb	r1, [r5], #1	@ zero_extendqisi2
 216              	.LVL34:
 217 00aa 3046     		mov	r0, r6
 218 00ac FFF7FEFF 		bl	u8x8_write_byte_to_16gr_device
 219              	.LVL35:
 170:..\u8g2\csrc/u8x8_d_sh1122.c **** 	  ptr++;
 220              		.loc 1 170 0
 221 00b0 013C     		subs	r4, r4, #1
 222              	.LVL36:
 223 00b2 E4B2     		uxtb	r4, r4
 224              	.LVL37:
 225              	.L12:
 167:..\u8g2\csrc/u8x8_d_sh1122.c **** 	{
 226              		.loc 1 167 0
 227 00b4 002C     		cmp	r4, #0
 228 00b6 F6D1     		bne	.L13
 173:..\u8g2\csrc/u8x8_d_sh1122.c ****       }
 229              		.loc 1 173 0 discriminator 2
 230 00b8 0137     		adds	r7, r7, #1
 231              	.LVL38:
 232 00ba FFB2     		uxtb	r7, r7
 233              	.LVL39:
 159:..\u8g2\csrc/u8x8_d_sh1122.c ****       {
 234              		.loc 1 159 0 discriminator 2
 235 00bc 08F10108 		add	r8, r8, #1
 236              	.LVL40:
 237 00c0 5FFA88F8 		uxtb	r8, r8
 238              	.LVL41:
 239              	.L11:
 159:..\u8g2\csrc/u8x8_d_sh1122.c ****       {
 240              		.loc 1 159 0 is_stmt 0 discriminator 1
 241 00c4 B8F1070F 		cmp	r8, #7
 242 00c8 D6D9     		bls	.L14
 177:..\u8g2\csrc/u8x8_d_sh1122.c ****       break;
 243              		.loc 1 177 0 is_stmt 1
 244 00ca 3046     		mov	r0, r6
 245 00cc FFF7FEFF 		bl	u8x8_cad_EndTransfer
 246              	.LVL42:
 247              		.loc 1 182 0
ARM GAS  C:\Users\brian\AppData\Local\Temp\ccX6ENEN.s 			page 9


 248 00d0 0120     		movs	r0, #1
 178:..\u8g2\csrc/u8x8_d_sh1122.c ****     default:
 249              		.loc 1 178 0
 250 00d2 BDE8F087 		pop	{r4, r5, r6, r7, r8, r9, r10, pc}
 251              	.LVL43:
 252              	.L16:
 180:..\u8g2\csrc/u8x8_d_sh1122.c ****   }
 253              		.loc 1 180 0
 254 00d6 0020     		movs	r0, #0
 255              	.LVL44:
 183:..\u8g2\csrc/u8x8_d_sh1122.c **** }
 256              		.loc 1 183 0
 257 00d8 BDE8F087 		pop	{r4, r5, r6, r7, r8, r9, r10, pc}
 258              	.LVL45:
 259              	.L19:
 260              		.align	2
 261              	.L18:
 262 00dc 04000000 		.word	.LANCHOR0+4
 263 00e0 0C000000 		.word	.LANCHOR0+12
 264              		.cfi_endproc
 265              	.LFE1:
 266              		.size	u8x8_d_sh1122_common, .-u8x8_d_sh1122_common
 267              		.section	.text.u8x8_d_sh1122_256x64,"ax",%progbits
 268              		.align	2
 269              		.global	u8x8_d_sh1122_256x64
 270              		.thumb
 271              		.thumb_func
 272              		.type	u8x8_d_sh1122_256x64, %function
 273              	u8x8_d_sh1122_256x64:
 274              	.LFB2:
 184:..\u8g2\csrc/u8x8_d_sh1122.c **** 
 185:..\u8g2\csrc/u8x8_d_sh1122.c **** /*=========================================================*/
 186:..\u8g2\csrc/u8x8_d_sh1122.c **** 
 187:..\u8g2\csrc/u8x8_d_sh1122.c **** static const uint8_t u8x8_d_sh1122_256x64_flip0_seq[] = {
 188:..\u8g2\csrc/u8x8_d_sh1122.c ****   U8X8_START_TRANSFER(),             	/* enable chip, delay is part of the transfer start */
 189:..\u8g2\csrc/u8x8_d_sh1122.c ****   U8X8_C(0x0a1),		/* remap */
 190:..\u8g2\csrc/u8x8_d_sh1122.c ****   U8X8_C(0x0c8),		/* remap */
 191:..\u8g2\csrc/u8x8_d_sh1122.c ****   U8X8_C(0x060),
 192:..\u8g2\csrc/u8x8_d_sh1122.c ****   U8X8_END_TRANSFER(),             	/* disable chip */
 193:..\u8g2\csrc/u8x8_d_sh1122.c ****   U8X8_END()             			/* end of sequence */
 194:..\u8g2\csrc/u8x8_d_sh1122.c **** };
 195:..\u8g2\csrc/u8x8_d_sh1122.c **** 
 196:..\u8g2\csrc/u8x8_d_sh1122.c **** static const uint8_t u8x8_d_sh1122_256x64_flip1_seq[] = {
 197:..\u8g2\csrc/u8x8_d_sh1122.c ****   U8X8_START_TRANSFER(),             	/* enable chip, delay is part of the transfer start */
 198:..\u8g2\csrc/u8x8_d_sh1122.c ****   U8X8_C(0x0a0),		/* remap */
 199:..\u8g2\csrc/u8x8_d_sh1122.c ****   U8X8_C(0x0c0),		/* remap */
 200:..\u8g2\csrc/u8x8_d_sh1122.c ****   U8X8_C(0x040),
 201:..\u8g2\csrc/u8x8_d_sh1122.c ****   U8X8_END_TRANSFER(),             	/* disable chip */
 202:..\u8g2\csrc/u8x8_d_sh1122.c ****   U8X8_END()             			/* end of sequence */
 203:..\u8g2\csrc/u8x8_d_sh1122.c **** };
 204:..\u8g2\csrc/u8x8_d_sh1122.c **** 
 205:..\u8g2\csrc/u8x8_d_sh1122.c **** static const u8x8_display_info_t u8x8_sh1122_256x64_display_info =
 206:..\u8g2\csrc/u8x8_d_sh1122.c **** {
 207:..\u8g2\csrc/u8x8_d_sh1122.c ****   /* chip_enable_level = */ 0,
 208:..\u8g2\csrc/u8x8_d_sh1122.c ****   /* chip_disable_level = */ 1,
 209:..\u8g2\csrc/u8x8_d_sh1122.c ****   
 210:..\u8g2\csrc/u8x8_d_sh1122.c ****   /* post_chip_enable_wait_ns = */ 20,
ARM GAS  C:\Users\brian\AppData\Local\Temp\ccX6ENEN.s 			page 10


 211:..\u8g2\csrc/u8x8_d_sh1122.c ****   /* pre_chip_disable_wait_ns = */ 10,
 212:..\u8g2\csrc/u8x8_d_sh1122.c ****   /* reset_pulse_width_ms = */ 10, 	/* sh1122: 10 us */
 213:..\u8g2\csrc/u8x8_d_sh1122.c ****   /* post_reset_wait_ms = */ 20, 	/* */
 214:..\u8g2\csrc/u8x8_d_sh1122.c ****   /* sda_setup_time_ns = */ 125,		/* sh1122: cycle time is 250ns, so use 250/2 */
 215:..\u8g2\csrc/u8x8_d_sh1122.c ****   /* sck_pulse_width_ns = */ 125,	/* sh1122: cycle time is 250ns, so use 250/2 */
 216:..\u8g2\csrc/u8x8_d_sh1122.c ****   /* sck_clock_hz = */ 40000000UL,	/* since Arduino 1.6.0, the SPI bus speed in Hz. Should be  1000
 217:..\u8g2\csrc/u8x8_d_sh1122.c ****   /* spi_mode = */ 0,		/* active high, rising edge */
 218:..\u8g2\csrc/u8x8_d_sh1122.c ****   /* i2c_bus_clock_100kHz = */ 4,
 219:..\u8g2\csrc/u8x8_d_sh1122.c ****   /* data_setup_time_ns = */ 10,
 220:..\u8g2\csrc/u8x8_d_sh1122.c ****   /* write_pulse_width_ns = */ 150,	/* sh1122: cycle time is 300ns, so use 300/2 = 150 */
 221:..\u8g2\csrc/u8x8_d_sh1122.c ****   /* tile_width = */ 32,		/* 256 pixel, so we require 32 bytes for this */
 222:..\u8g2\csrc/u8x8_d_sh1122.c ****   /* tile_hight = */ 8,
 223:..\u8g2\csrc/u8x8_d_sh1122.c ****   /* default_x_offset = */ 0,	/* this is the byte offset (there are two pixel per byte with 4 bit p
 224:..\u8g2\csrc/u8x8_d_sh1122.c ****   /* flipmode_x_offset = */ 0,
 225:..\u8g2\csrc/u8x8_d_sh1122.c ****   /* pixel_width = */ 256,
 226:..\u8g2\csrc/u8x8_d_sh1122.c ****   /* pixel_height = */ 64
 227:..\u8g2\csrc/u8x8_d_sh1122.c **** };
 228:..\u8g2\csrc/u8x8_d_sh1122.c **** 
 229:..\u8g2\csrc/u8x8_d_sh1122.c **** 
 230:..\u8g2\csrc/u8x8_d_sh1122.c **** static const uint8_t u8x8_d_sh1122_256x64_init_seq[] = {
 231:..\u8g2\csrc/u8x8_d_sh1122.c ****     
 232:..\u8g2\csrc/u8x8_d_sh1122.c ****   U8X8_DLY(1),
 233:..\u8g2\csrc/u8x8_d_sh1122.c ****   U8X8_START_TRANSFER(),             	/* enable chip, delay is part of the transfer start */
 234:..\u8g2\csrc/u8x8_d_sh1122.c ****   U8X8_DLY(1),
 235:..\u8g2\csrc/u8x8_d_sh1122.c ****   
 236:..\u8g2\csrc/u8x8_d_sh1122.c ****   U8X8_C(0xae),		                /* display off */
 237:..\u8g2\csrc/u8x8_d_sh1122.c ****   U8X8_C(0x40),				/* display start line */  
 238:..\u8g2\csrc/u8x8_d_sh1122.c ****   U8X8_C(0x0a0),		/* remap */
 239:..\u8g2\csrc/u8x8_d_sh1122.c ****   U8X8_C(0x0c0),		/* remap */
 240:..\u8g2\csrc/u8x8_d_sh1122.c ****   U8X8_CA(0x81, 0x80),			/* set display contrast  */  
 241:..\u8g2\csrc/u8x8_d_sh1122.c ****   U8X8_CA(0xa8, 0x3f),			/* multiplex ratio 1/64 Duty (0x0F~0x3F) */  
 242:..\u8g2\csrc/u8x8_d_sh1122.c ****   U8X8_CA(0xad, 0x81),			/* use buildin DC-DC with 0.6 * 500 kHz */  
 243:..\u8g2\csrc/u8x8_d_sh1122.c ****   
 244:..\u8g2\csrc/u8x8_d_sh1122.c ****   U8X8_CA(0xd5, 0x50),			/* set display clock divide ratio (lower 4 bit)/oscillator frequency (uppe
 245:..\u8g2\csrc/u8x8_d_sh1122.c ****   U8X8_CA(0xd3, 0x00),			/* display offset, shift mapping ram counter */  
 246:..\u8g2\csrc/u8x8_d_sh1122.c ****   U8X8_CA(0xd9, 0x22),			/* pre charge (lower 4 bit) and discharge(higher 4 bit) period */  
 247:..\u8g2\csrc/u8x8_d_sh1122.c ****   U8X8_CA(0xdb, 0x35),			/* VCOM deselect level */  
 248:..\u8g2\csrc/u8x8_d_sh1122.c ****   U8X8_CA(0xdc, 0x35),			/* Pre Charge output voltage */  
 249:..\u8g2\csrc/u8x8_d_sh1122.c ****   U8X8_C(0x030),				/* discharge level */
 250:..\u8g2\csrc/u8x8_d_sh1122.c **** 
 251:..\u8g2\csrc/u8x8_d_sh1122.c ****   U8X8_DLY(1),					/* delay  */
 252:..\u8g2\csrc/u8x8_d_sh1122.c **** 
 253:..\u8g2\csrc/u8x8_d_sh1122.c ****   U8X8_END_TRANSFER(),             	/* disable chip */
 254:..\u8g2\csrc/u8x8_d_sh1122.c ****   U8X8_END()             			/* end of sequence */
 255:..\u8g2\csrc/u8x8_d_sh1122.c **** };
 256:..\u8g2\csrc/u8x8_d_sh1122.c **** 
 257:..\u8g2\csrc/u8x8_d_sh1122.c **** 
 258:..\u8g2\csrc/u8x8_d_sh1122.c **** uint8_t u8x8_d_sh1122_256x64(u8x8_t *u8x8, uint8_t msg, uint8_t arg_int, void *arg_ptr)
 259:..\u8g2\csrc/u8x8_d_sh1122.c **** {
 275              		.loc 1 259 0
 276              		.cfi_startproc
 277              		@ args = 0, pretend = 0, frame = 0
 278              		@ frame_needed = 0, uses_anonymous_args = 0
 279              	.LVL46:
 280 0000 10B5     		push	{r4, lr}
 281              		.cfi_def_cfa_offset 8
 282              		.cfi_offset 4, -8
ARM GAS  C:\Users\brian\AppData\Local\Temp\ccX6ENEN.s 			page 11


 283              		.cfi_offset 14, -4
 284 0002 0446     		mov	r4, r0
 260:..\u8g2\csrc/u8x8_d_sh1122.c ****   switch(msg)
 285              		.loc 1 260 0
 286 0004 0A29     		cmp	r1, #10
 287 0006 08D0     		beq	.L22
 288 0008 0D29     		cmp	r1, #13
 289 000a 0ED0     		beq	.L23
 290 000c 0929     		cmp	r1, #9
 291 000e 1FD1     		bne	.L27
 261:..\u8g2\csrc/u8x8_d_sh1122.c ****   {
 262:..\u8g2\csrc/u8x8_d_sh1122.c ****     case U8X8_MSG_DISPLAY_SETUP_MEMORY:
 263:..\u8g2\csrc/u8x8_d_sh1122.c ****       u8x8_d_helper_display_setup_memory(u8x8, &u8x8_sh1122_256x64_display_info);
 292              		.loc 1 263 0
 293 0010 1149     		ldr	r1, .L29
 294              	.LVL47:
 295 0012 FFF7FEFF 		bl	u8x8_d_helper_display_setup_memory
 296              	.LVL48:
 264:..\u8g2\csrc/u8x8_d_sh1122.c ****       break;
 265:..\u8g2\csrc/u8x8_d_sh1122.c ****     case U8X8_MSG_DISPLAY_INIT:
 266:..\u8g2\csrc/u8x8_d_sh1122.c ****       u8x8_d_helper_display_init(u8x8);
 267:..\u8g2\csrc/u8x8_d_sh1122.c ****       u8x8_cad_SendSequence(u8x8, u8x8_d_sh1122_256x64_init_seq);
 268:..\u8g2\csrc/u8x8_d_sh1122.c ****       break;
 269:..\u8g2\csrc/u8x8_d_sh1122.c ****     case U8X8_MSG_DISPLAY_SET_FLIP_MODE:
 270:..\u8g2\csrc/u8x8_d_sh1122.c ****       if ( arg_int == 0 )
 271:..\u8g2\csrc/u8x8_d_sh1122.c ****       {
 272:..\u8g2\csrc/u8x8_d_sh1122.c **** 	u8x8_cad_SendSequence(u8x8, u8x8_d_sh1122_256x64_flip0_seq);
 273:..\u8g2\csrc/u8x8_d_sh1122.c **** 	u8x8->x_offset = u8x8->display_info->default_x_offset;
 274:..\u8g2\csrc/u8x8_d_sh1122.c ****       }
 275:..\u8g2\csrc/u8x8_d_sh1122.c ****       else
 276:..\u8g2\csrc/u8x8_d_sh1122.c ****       {
 277:..\u8g2\csrc/u8x8_d_sh1122.c **** 	u8x8_cad_SendSequence(u8x8, u8x8_d_sh1122_256x64_flip1_seq);
 278:..\u8g2\csrc/u8x8_d_sh1122.c **** 	u8x8->x_offset = u8x8->display_info->flipmode_x_offset;
 279:..\u8g2\csrc/u8x8_d_sh1122.c ****       }
 280:..\u8g2\csrc/u8x8_d_sh1122.c ****       break;
 281:..\u8g2\csrc/u8x8_d_sh1122.c ****     
 282:..\u8g2\csrc/u8x8_d_sh1122.c ****     default:
 283:..\u8g2\csrc/u8x8_d_sh1122.c ****       return u8x8_d_sh1122_common(u8x8, msg, arg_int, arg_ptr);
 284:..\u8g2\csrc/u8x8_d_sh1122.c ****   }
 285:..\u8g2\csrc/u8x8_d_sh1122.c ****   return 1;
 297              		.loc 1 285 0
 298 0016 0120     		movs	r0, #1
 264:..\u8g2\csrc/u8x8_d_sh1122.c ****       break;
 299              		.loc 1 264 0
 300 0018 10BD     		pop	{r4, pc}
 301              	.LVL49:
 302              	.L22:
 266:..\u8g2\csrc/u8x8_d_sh1122.c ****       u8x8_cad_SendSequence(u8x8, u8x8_d_sh1122_256x64_init_seq);
 303              		.loc 1 266 0
 304 001a FFF7FEFF 		bl	u8x8_d_helper_display_init
 305              	.LVL50:
 267:..\u8g2\csrc/u8x8_d_sh1122.c ****       break;
 306              		.loc 1 267 0
 307 001e 0F49     		ldr	r1, .L29+4
 308 0020 2046     		mov	r0, r4
 309 0022 FFF7FEFF 		bl	u8x8_cad_SendSequence
 310              	.LVL51:
ARM GAS  C:\Users\brian\AppData\Local\Temp\ccX6ENEN.s 			page 12


 311              		.loc 1 285 0
 312 0026 0120     		movs	r0, #1
 268:..\u8g2\csrc/u8x8_d_sh1122.c ****     case U8X8_MSG_DISPLAY_SET_FLIP_MODE:
 313              		.loc 1 268 0
 314 0028 10BD     		pop	{r4, pc}
 315              	.LVL52:
 316              	.L23:
 270:..\u8g2\csrc/u8x8_d_sh1122.c ****       {
 317              		.loc 1 270 0
 318 002a 42B9     		cbnz	r2, .L26
 272:..\u8g2\csrc/u8x8_d_sh1122.c **** 	u8x8->x_offset = u8x8->display_info->default_x_offset;
 319              		.loc 1 272 0
 320 002c 0C49     		ldr	r1, .L29+8
 321              	.LVL53:
 322 002e FFF7FEFF 		bl	u8x8_cad_SendSequence
 323              	.LVL54:
 273:..\u8g2\csrc/u8x8_d_sh1122.c ****       }
 324              		.loc 1 273 0
 325 0032 2368     		ldr	r3, [r4]
 326 0034 9B7C     		ldrb	r3, [r3, #18]	@ zero_extendqisi2
 327 0036 84F82230 		strb	r3, [r4, #34]
 328              		.loc 1 285 0
 329 003a 0120     		movs	r0, #1
 330 003c 10BD     		pop	{r4, pc}
 331              	.LVL55:
 332              	.L26:
 277:..\u8g2\csrc/u8x8_d_sh1122.c **** 	u8x8->x_offset = u8x8->display_info->flipmode_x_offset;
 333              		.loc 1 277 0
 334 003e 0949     		ldr	r1, .L29+12
 335              	.LVL56:
 336 0040 FFF7FEFF 		bl	u8x8_cad_SendSequence
 337              	.LVL57:
 278:..\u8g2\csrc/u8x8_d_sh1122.c ****       }
 338              		.loc 1 278 0
 339 0044 2368     		ldr	r3, [r4]
 340 0046 DB7C     		ldrb	r3, [r3, #19]	@ zero_extendqisi2
 341 0048 84F82230 		strb	r3, [r4, #34]
 342              		.loc 1 285 0
 343 004c 0120     		movs	r0, #1
 344 004e 10BD     		pop	{r4, pc}
 345              	.LVL58:
 346              	.L27:
 283:..\u8g2\csrc/u8x8_d_sh1122.c ****   }
 347              		.loc 1 283 0
 348 0050 FFF7FEFF 		bl	u8x8_d_sh1122_common
 349              	.LVL59:
 286:..\u8g2\csrc/u8x8_d_sh1122.c **** }
 350              		.loc 1 286 0
 351 0054 10BD     		pop	{r4, pc}
 352              	.LVL60:
 353              	.L30:
 354 0056 00BF     		.align	2
 355              	.L29:
 356 0058 14000000 		.word	.LANCHOR0+20
 357 005c 2C000000 		.word	.LANCHOR0+44
 358 0060 60000000 		.word	.LANCHOR0+96
 359 0064 6C000000 		.word	.LANCHOR0+108
ARM GAS  C:\Users\brian\AppData\Local\Temp\ccX6ENEN.s 			page 13


 360              		.cfi_endproc
 361              	.LFE2:
 362              		.size	u8x8_d_sh1122_256x64, .-u8x8_d_sh1122_256x64
 363              		.section	.rodata
 364              		.align	2
 365              		.set	.LANCHOR0,. + 0
 366              		.type	map.5686, %object
 367              		.size	map.5686, 4
 368              	map.5686:
 369 0000 00       		.byte	0
 370 0001 0F       		.byte	15
 371 0002 F0       		.byte	-16
 372 0003 FF       		.byte	-1
 373              		.type	u8x8_d_sh1122_powersave0_seq, %object
 374              		.size	u8x8_d_sh1122_powersave0_seq, 5
 375              	u8x8_d_sh1122_powersave0_seq:
 376 0004 18       		.byte	24
 377 0005 15       		.byte	21
 378 0006 AF       		.byte	-81
 379 0007 19       		.byte	25
 380 0008 FF       		.byte	-1
 381 0009 000000   		.space	3
 382              		.type	u8x8_d_sh1122_powersave1_seq, %object
 383              		.size	u8x8_d_sh1122_powersave1_seq, 5
 384              	u8x8_d_sh1122_powersave1_seq:
 385 000c 18       		.byte	24
 386 000d 15       		.byte	21
 387 000e AE       		.byte	-82
 388 000f 19       		.byte	25
 389 0010 FF       		.byte	-1
 390 0011 000000   		.space	3
 391              		.type	u8x8_sh1122_256x64_display_info, %object
 392              		.size	u8x8_sh1122_256x64_display_info, 24
 393              	u8x8_sh1122_256x64_display_info:
 394 0014 00       		.byte	0
 395 0015 01       		.byte	1
 396 0016 14       		.byte	20
 397 0017 0A       		.byte	10
 398 0018 0A       		.byte	10
 399 0019 14       		.byte	20
 400 001a 7D       		.byte	125
 401 001b 7D       		.byte	125
 402 001c 005A6202 		.word	40000000
 403 0020 00       		.byte	0
 404 0021 04       		.byte	4
 405 0022 0A       		.byte	10
 406 0023 96       		.byte	-106
 407 0024 20       		.byte	32
 408 0025 08       		.byte	8
 409 0026 00       		.byte	0
 410 0027 00       		.byte	0
 411 0028 0001     		.short	256
 412 002a 4000     		.short	64
 413              		.type	u8x8_d_sh1122_256x64_init_seq, %object
 414              		.size	u8x8_d_sh1122_256x64_init_seq, 51
 415              	u8x8_d_sh1122_256x64_init_seq:
 416 002c FE       		.byte	-2
ARM GAS  C:\Users\brian\AppData\Local\Temp\ccX6ENEN.s 			page 14


 417 002d 01       		.byte	1
 418 002e 18       		.byte	24
 419 002f FE       		.byte	-2
 420 0030 01       		.byte	1
 421 0031 15       		.byte	21
 422 0032 AE       		.byte	-82
 423 0033 15       		.byte	21
 424 0034 40       		.byte	64
 425 0035 15       		.byte	21
 426 0036 A0       		.byte	-96
 427 0037 15       		.byte	21
 428 0038 C0       		.byte	-64
 429 0039 15       		.byte	21
 430 003a 81       		.byte	-127
 431 003b 16       		.byte	22
 432 003c 80       		.byte	-128
 433 003d 15       		.byte	21
 434 003e A8       		.byte	-88
 435 003f 16       		.byte	22
 436 0040 3F       		.byte	63
 437 0041 15       		.byte	21
 438 0042 AD       		.byte	-83
 439 0043 16       		.byte	22
 440 0044 81       		.byte	-127
 441 0045 15       		.byte	21
 442 0046 D5       		.byte	-43
 443 0047 16       		.byte	22
 444 0048 50       		.byte	80
 445 0049 15       		.byte	21
 446 004a D3       		.byte	-45
 447 004b 16       		.byte	22
 448 004c 00       		.byte	0
 449 004d 15       		.byte	21
 450 004e D9       		.byte	-39
 451 004f 16       		.byte	22
 452 0050 22       		.byte	34
 453 0051 15       		.byte	21
 454 0052 DB       		.byte	-37
 455 0053 16       		.byte	22
 456 0054 35       		.byte	53
 457 0055 15       		.byte	21
 458 0056 DC       		.byte	-36
 459 0057 16       		.byte	22
 460 0058 35       		.byte	53
 461 0059 15       		.byte	21
 462 005a 30       		.byte	48
 463 005b FE       		.byte	-2
 464 005c 01       		.byte	1
 465 005d 19       		.byte	25
 466 005e FF       		.byte	-1
 467 005f 00       		.space	1
 468              		.type	u8x8_d_sh1122_256x64_flip0_seq, %object
 469              		.size	u8x8_d_sh1122_256x64_flip0_seq, 9
 470              	u8x8_d_sh1122_256x64_flip0_seq:
 471 0060 18       		.byte	24
 472 0061 15       		.byte	21
 473 0062 A1       		.byte	-95
ARM GAS  C:\Users\brian\AppData\Local\Temp\ccX6ENEN.s 			page 15


 474 0063 15       		.byte	21
 475 0064 C8       		.byte	-56
 476 0065 15       		.byte	21
 477 0066 60       		.byte	96
 478 0067 19       		.byte	25
 479 0068 FF       		.byte	-1
 480 0069 000000   		.space	3
 481              		.type	u8x8_d_sh1122_256x64_flip1_seq, %object
 482              		.size	u8x8_d_sh1122_256x64_flip1_seq, 9
 483              	u8x8_d_sh1122_256x64_flip1_seq:
 484 006c 18       		.byte	24
 485 006d 15       		.byte	21
 486 006e A0       		.byte	-96
 487 006f 15       		.byte	21
 488 0070 C0       		.byte	-64
 489 0071 15       		.byte	21
 490 0072 40       		.byte	64
 491 0073 19       		.byte	25
 492 0074 FF       		.byte	-1
 493              		.bss
 494              		.align	2
 495              		.set	.LANCHOR1,. + 0
 496              		.type	buf.5685, %object
 497              		.size	buf.5685, 4
 498              	buf.5685:
 499 0000 00000000 		.space	4
 500              		.text
 501              	.Letext0:
 502              		.file 2 "c:\\program files (x86)\\cypress\\psoc creator\\4.4\\psoc creator\\import\\gnu\\arm\\5.4.
 503              		.file 3 "c:\\program files (x86)\\cypress\\psoc creator\\4.4\\psoc creator\\import\\gnu\\arm\\5.4.
 504              		.file 4 "..\\u8g2\\csrc\\u8x8.h"