ARM GAS  C:\Users\brian\AppData\Local\Temp\cckfkOf3.s 			page 1


   1              		.syntax unified
   2              		.cpu cortex-m3
   3              		.fpu softvfp
   4              		.eabi_attribute 20, 1
   5              		.eabi_attribute 21, 1
   6              		.eabi_attribute 23, 3
   7              		.eabi_attribute 24, 1
   8              		.eabi_attribute 25, 1
   9              		.eabi_attribute 26, 1
  10              		.eabi_attribute 30, 1
  11              		.eabi_attribute 34, 1
  12              		.eabi_attribute 18, 4
  13              		.thumb
  14              		.syntax unified
  15              		.file	"u8x8_d_st75256.c"
  16              		.text
  17              	.Ltext0:
  18              		.cfi_sections	.debug_frame
  19              		.section	.text.u8x8_d_st75256_256x128_generic,"ax",%progbits
  20              		.align	2
  21              		.thumb
  22              		.thumb_func
  23              		.type	u8x8_d_st75256_256x128_generic, %function
  24              	u8x8_d_st75256_256x128_generic:
  25              	.LFB0:
  26              		.file 1 "..\\u8g2\\csrc\\u8x8_d_st75256.c"
   1:..\u8g2\csrc/u8x8_d_st75256.c **** /*
   2:..\u8g2\csrc/u8x8_d_st75256.c **** 
   3:..\u8g2\csrc/u8x8_d_st75256.c ****   u8x8_d_st75256.c
   4:..\u8g2\csrc/u8x8_d_st75256.c **** 
   5:..\u8g2\csrc/u8x8_d_st75256.c ****   Universal 8bit Graphics Library (https://github.com/olikraus/u8g2/)
   6:..\u8g2\csrc/u8x8_d_st75256.c **** 
   7:..\u8g2\csrc/u8x8_d_st75256.c ****   Copyright (c) 2017, olikraus@gmail.com
   8:..\u8g2\csrc/u8x8_d_st75256.c ****   All rights reserved.
   9:..\u8g2\csrc/u8x8_d_st75256.c **** 
  10:..\u8g2\csrc/u8x8_d_st75256.c ****   Redistribution and use in source and binary forms, with or without modification, 
  11:..\u8g2\csrc/u8x8_d_st75256.c ****   are permitted provided that the following conditions are met:
  12:..\u8g2\csrc/u8x8_d_st75256.c **** 
  13:..\u8g2\csrc/u8x8_d_st75256.c ****   * Redistributions of source code must retain the above copyright notice, this list 
  14:..\u8g2\csrc/u8x8_d_st75256.c ****     of conditions and the following disclaimer.
  15:..\u8g2\csrc/u8x8_d_st75256.c ****     
  16:..\u8g2\csrc/u8x8_d_st75256.c ****   * Redistributions in binary form must reproduce the above copyright notice, this 
  17:..\u8g2\csrc/u8x8_d_st75256.c ****     list of conditions and the following disclaimer in the documentation and/or other 
  18:..\u8g2\csrc/u8x8_d_st75256.c ****     materials provided with the distribution.
  19:..\u8g2\csrc/u8x8_d_st75256.c **** 
  20:..\u8g2\csrc/u8x8_d_st75256.c ****   THIS SOFTWARE IS PROVIDED BY THE COPYRIGHT HOLDERS AND 
  21:..\u8g2\csrc/u8x8_d_st75256.c ****   CONTRIBUTORS "AS IS" AND ANY EXPRESS OR IMPLIED WARRANTIES, 
  22:..\u8g2\csrc/u8x8_d_st75256.c ****   INCLUDING, BUT NOT LIMITED TO, THE IMPLIED WARRANTIES OF 
  23:..\u8g2\csrc/u8x8_d_st75256.c ****   MERCHANTABILITY AND FITNESS FOR A PARTICULAR PURPOSE ARE 
  24:..\u8g2\csrc/u8x8_d_st75256.c ****   DISCLAIMED. IN NO EVENT SHALL THE COPYRIGHT HOLDER OR 
  25:..\u8g2\csrc/u8x8_d_st75256.c ****   CONTRIBUTORS BE LIABLE FOR ANY DIRECT, INDIRECT, INCIDENTAL, 
  26:..\u8g2\csrc/u8x8_d_st75256.c ****   SPECIAL, EXEMPLARY, OR CONSEQUENTIAL DAMAGES (INCLUDING, BUT 
  27:..\u8g2\csrc/u8x8_d_st75256.c ****   NOT LIMITED TO, PROCUREMENT OF SUBSTITUTE GOODS OR SERVICES; 
  28:..\u8g2\csrc/u8x8_d_st75256.c ****   LOSS OF USE, DATA, OR PROFITS; OR BUSINESS INTERRUPTION) HOWEVER 
  29:..\u8g2\csrc/u8x8_d_st75256.c ****   CAUSED AND ON ANY THEORY OF LIABILITY, WHETHER IN CONTRACT, 
  30:..\u8g2\csrc/u8x8_d_st75256.c ****   STRICT LIABILITY, OR TORT (INCLUDING NEGLIGENCE OR OTHERWISE) 
  31:..\u8g2\csrc/u8x8_d_st75256.c ****   ARISING IN ANY WAY OUT OF THE USE OF THIS SOFTWARE, EVEN IF 
ARM GAS  C:\Users\brian\AppData\Local\Temp\cckfkOf3.s 			page 2


  32:..\u8g2\csrc/u8x8_d_st75256.c ****   ADVISED OF THE POSSIBILITY OF SUCH DAMAGE.  
  33:..\u8g2\csrc/u8x8_d_st75256.c **** 
  34:..\u8g2\csrc/u8x8_d_st75256.c ****   0x030	ext 00
  35:..\u8g2\csrc/u8x8_d_st75256.c ****   0x031	ext 01
  36:..\u8g2\csrc/u8x8_d_st75256.c ****   0x038	ext 10
  37:..\u8g2\csrc/u8x8_d_st75256.c ****   0x039	ext 11
  38:..\u8g2\csrc/u8x8_d_st75256.c ****   
  39:..\u8g2\csrc/u8x8_d_st75256.c ****   cad 011
  40:..\u8g2\csrc/u8x8_d_st75256.c ****   
  41:..\u8g2\csrc/u8x8_d_st75256.c ****   
  42:..\u8g2\csrc/u8x8_d_st75256.c ****   code examples:
  43:..\u8g2\csrc/u8x8_d_st75256.c ****   http://www.it610.com/article/2601023.htm
  44:..\u8g2\csrc/u8x8_d_st75256.c ****   
  45:..\u8g2\csrc/u8x8_d_st75256.c ****   normal mode:
  46:..\u8g2\csrc/u8x8_d_st75256.c **** 	0x00c	bit format
  47:..\u8g2\csrc/u8x8_d_st75256.c ****   U8X8_CA( 0xbc, 0x00 ),	data scan dir 
  48:..\u8g2\csrc/u8x8_d_st75256.c ****   U8X8_A( 0xa6 ),				
  49:..\u8g2\csrc/u8x8_d_st75256.c ****   y: 0 offset
  50:..\u8g2\csrc/u8x8_d_st75256.c ****   
  51:..\u8g2\csrc/u8x8_d_st75256.c ****   flip mode:
  52:..\u8g2\csrc/u8x8_d_st75256.c **** 	0x008	bit format
  53:..\u8g2\csrc/u8x8_d_st75256.c ****   U8X8_CA( 0xbc, 0x03 ),	data scan dir 
  54:..\u8g2\csrc/u8x8_d_st75256.c ****   U8X8_A( 0xa6 ),				
  55:..\u8g2\csrc/u8x8_d_st75256.c ****   y: 5 offset
  56:..\u8g2\csrc/u8x8_d_st75256.c **** 	
  57:..\u8g2\csrc/u8x8_d_st75256.c ****   
  58:..\u8g2\csrc/u8x8_d_st75256.c **** */
  59:..\u8g2\csrc/u8x8_d_st75256.c **** 
  60:..\u8g2\csrc/u8x8_d_st75256.c **** 
  61:..\u8g2\csrc/u8x8_d_st75256.c **** #include "u8x8.h"
  62:..\u8g2\csrc/u8x8_d_st75256.c **** 
  63:..\u8g2\csrc/u8x8_d_st75256.c **** 
  64:..\u8g2\csrc/u8x8_d_st75256.c **** /* not a real power down for the st75256... just a display off */
  65:..\u8g2\csrc/u8x8_d_st75256.c **** static const uint8_t u8x8_d_st75256_256x128_powersave0_seq[] = {
  66:..\u8g2\csrc/u8x8_d_st75256.c ****   U8X8_START_TRANSFER(),             	/* enable chip, delay is part of the transfer start */
  67:..\u8g2\csrc/u8x8_d_st75256.c ****   U8X8_C( 0x030 ),				/* select 00 commands */  
  68:..\u8g2\csrc/u8x8_d_st75256.c ****   U8X8_C( 0x94 ),				/* sleep out */
  69:..\u8g2\csrc/u8x8_d_st75256.c ****   U8X8_DLY(10),
  70:..\u8g2\csrc/u8x8_d_st75256.c ****   U8X8_C( 0xaf ),				/* display on */
  71:..\u8g2\csrc/u8x8_d_st75256.c ****   U8X8_END_TRANSFER(),             	/* disable chip */
  72:..\u8g2\csrc/u8x8_d_st75256.c ****   U8X8_END()             			/* end of sequence */
  73:..\u8g2\csrc/u8x8_d_st75256.c **** };
  74:..\u8g2\csrc/u8x8_d_st75256.c **** 
  75:..\u8g2\csrc/u8x8_d_st75256.c **** static const uint8_t u8x8_d_st75256_256x128_powersave1_seq[] = {
  76:..\u8g2\csrc/u8x8_d_st75256.c ****   U8X8_START_TRANSFER(),             	/* enable chip, delay is part of the transfer start */
  77:..\u8g2\csrc/u8x8_d_st75256.c ****   U8X8_C( 0x030 ),				/* select 00 commands */
  78:..\u8g2\csrc/u8x8_d_st75256.c ****   U8X8_C( 0xae ),				/* display off */
  79:..\u8g2\csrc/u8x8_d_st75256.c ****   U8X8_C( 0x95 ),				/* sleep in */
  80:..\u8g2\csrc/u8x8_d_st75256.c ****   U8X8_END_TRANSFER(),             	/* disable chip */
  81:..\u8g2\csrc/u8x8_d_st75256.c ****   U8X8_END()             			/* end of sequence */
  82:..\u8g2\csrc/u8x8_d_st75256.c **** };
  83:..\u8g2\csrc/u8x8_d_st75256.c **** 
  84:..\u8g2\csrc/u8x8_d_st75256.c **** static const uint8_t u8x8_d_st75256_jlx256128_flip0_seq[] = {
  85:..\u8g2\csrc/u8x8_d_st75256.c ****   U8X8_START_TRANSFER(),             	/* enable chip, delay is part of the transfer start */
  86:..\u8g2\csrc/u8x8_d_st75256.c ****   U8X8_C( 0x030 ),				/* select 00 commands */
  87:..\u8g2\csrc/u8x8_d_st75256.c ****   U8X8_CA( 0xbc, 0x00 ),			/* data scan dir */
  88:..\u8g2\csrc/u8x8_d_st75256.c ****   U8X8_A( 0xa6 ),				/* ??? */
ARM GAS  C:\Users\brian\AppData\Local\Temp\cckfkOf3.s 			page 3


  89:..\u8g2\csrc/u8x8_d_st75256.c **** 
  90:..\u8g2\csrc/u8x8_d_st75256.c ****   //U8X8_C( 0x030 ),				/* select 00 commands */
  91:..\u8g2\csrc/u8x8_d_st75256.c ****   U8X8_C( 0x00c ),				/* data format LSB top */
  92:..\u8g2\csrc/u8x8_d_st75256.c ****   U8X8_END_TRANSFER(),             	/* disable chip */
  93:..\u8g2\csrc/u8x8_d_st75256.c ****   U8X8_END()             			/* end of sequence */
  94:..\u8g2\csrc/u8x8_d_st75256.c **** };
  95:..\u8g2\csrc/u8x8_d_st75256.c **** 
  96:..\u8g2\csrc/u8x8_d_st75256.c **** static const uint8_t u8x8_d_st75256_jlx256128_flip1_seq[] = {
  97:..\u8g2\csrc/u8x8_d_st75256.c ****   U8X8_START_TRANSFER(),             	/* enable chip, delay is part of the transfer start */
  98:..\u8g2\csrc/u8x8_d_st75256.c ****   U8X8_C( 0x030 ),				/* select 00 commands */
  99:..\u8g2\csrc/u8x8_d_st75256.c ****   U8X8_CA( 0xbc, 0x03 ),			/* data scan dir */
 100:..\u8g2\csrc/u8x8_d_st75256.c ****   U8X8_A( 0xa6 ),				/* ??? */
 101:..\u8g2\csrc/u8x8_d_st75256.c **** 
 102:..\u8g2\csrc/u8x8_d_st75256.c ****   //U8X8_C( 0x030 ),				/* select 00 commands */
 103:..\u8g2\csrc/u8x8_d_st75256.c ****   U8X8_C( 0x008 ),				/* data format MSB top */
 104:..\u8g2\csrc/u8x8_d_st75256.c ****   U8X8_END_TRANSFER(),             	/* disable chip */
 105:..\u8g2\csrc/u8x8_d_st75256.c ****   U8X8_END()             			/* end of sequence */
 106:..\u8g2\csrc/u8x8_d_st75256.c **** };
 107:..\u8g2\csrc/u8x8_d_st75256.c **** 
 108:..\u8g2\csrc/u8x8_d_st75256.c **** static const uint8_t u8x8_d_st75256_jlx172104_flip0_seq[] = {
 109:..\u8g2\csrc/u8x8_d_st75256.c ****   U8X8_START_TRANSFER(),             	/* enable chip, delay is part of the transfer start */
 110:..\u8g2\csrc/u8x8_d_st75256.c ****   U8X8_C( 0x030 ),				/* select 00 commands */
 111:..\u8g2\csrc/u8x8_d_st75256.c ****   U8X8_CA( 0xbc, 0x02 ),			/* data scan dir */
 112:..\u8g2\csrc/u8x8_d_st75256.c ****   U8X8_A( 0xa6 ),				/* ??? */
 113:..\u8g2\csrc/u8x8_d_st75256.c **** 
 114:..\u8g2\csrc/u8x8_d_st75256.c ****   //U8X8_C( 0x030 ),				/* select 00 commands */
 115:..\u8g2\csrc/u8x8_d_st75256.c ****   U8X8_C( 0x00c ),				/* data format LSB top */
 116:..\u8g2\csrc/u8x8_d_st75256.c ****   U8X8_END_TRANSFER(),             	/* disable chip */
 117:..\u8g2\csrc/u8x8_d_st75256.c ****   U8X8_END()             			/* end of sequence */
 118:..\u8g2\csrc/u8x8_d_st75256.c **** };
 119:..\u8g2\csrc/u8x8_d_st75256.c **** 
 120:..\u8g2\csrc/u8x8_d_st75256.c **** static const uint8_t u8x8_d_st75256_jlx172104_flip1_seq[] = {
 121:..\u8g2\csrc/u8x8_d_st75256.c ****   U8X8_START_TRANSFER(),             	/* enable chip, delay is part of the transfer start */
 122:..\u8g2\csrc/u8x8_d_st75256.c ****   U8X8_C( 0x030 ),				/* select 00 commands */
 123:..\u8g2\csrc/u8x8_d_st75256.c ****   U8X8_CA( 0xbc, 0x01 ),			/* data scan dir */
 124:..\u8g2\csrc/u8x8_d_st75256.c ****   U8X8_A( 0xa6 ),				/* ??? */
 125:..\u8g2\csrc/u8x8_d_st75256.c **** 
 126:..\u8g2\csrc/u8x8_d_st75256.c ****   //U8X8_C( 0x030 ),				/* select 00 commands */
 127:..\u8g2\csrc/u8x8_d_st75256.c ****   U8X8_C( 0x008 ),				/* data format MSB top */
 128:..\u8g2\csrc/u8x8_d_st75256.c ****   U8X8_END_TRANSFER(),             	/* disable chip */
 129:..\u8g2\csrc/u8x8_d_st75256.c ****   U8X8_END()             			/* end of sequence */
 130:..\u8g2\csrc/u8x8_d_st75256.c **** };
 131:..\u8g2\csrc/u8x8_d_st75256.c **** 
 132:..\u8g2\csrc/u8x8_d_st75256.c **** static const uint8_t u8x8_d_st75256_jlx256160_flip0_seq[] = {
 133:..\u8g2\csrc/u8x8_d_st75256.c ****   U8X8_START_TRANSFER(),             	/* enable chip, delay is part of the transfer start */
 134:..\u8g2\csrc/u8x8_d_st75256.c ****   U8X8_C( 0x030 ),				/* select 00 commands */
 135:..\u8g2\csrc/u8x8_d_st75256.c ****   U8X8_CA( 0xbc, 0x00 ),			/* data scan dir */
 136:..\u8g2\csrc/u8x8_d_st75256.c ****   U8X8_A( 0xa6 ),				/* ??? */
 137:..\u8g2\csrc/u8x8_d_st75256.c **** 
 138:..\u8g2\csrc/u8x8_d_st75256.c ****   //U8X8_C( 0x030 ),				/* select 00 commands */
 139:..\u8g2\csrc/u8x8_d_st75256.c ****   U8X8_C( 0x00c ),				/* data format LSB top */
 140:..\u8g2\csrc/u8x8_d_st75256.c ****   U8X8_END_TRANSFER(),             	/* disable chip */
 141:..\u8g2\csrc/u8x8_d_st75256.c ****   U8X8_END()             			/* end of sequence */
 142:..\u8g2\csrc/u8x8_d_st75256.c **** };
 143:..\u8g2\csrc/u8x8_d_st75256.c **** 
 144:..\u8g2\csrc/u8x8_d_st75256.c **** static const uint8_t u8x8_d_st75256_jlx256160_flip1_seq[] = {
 145:..\u8g2\csrc/u8x8_d_st75256.c ****   U8X8_START_TRANSFER(),             	/* enable chip, delay is part of the transfer start */
ARM GAS  C:\Users\brian\AppData\Local\Temp\cckfkOf3.s 			page 4


 146:..\u8g2\csrc/u8x8_d_st75256.c ****   U8X8_C( 0x030 ),				/* select 00 commands */
 147:..\u8g2\csrc/u8x8_d_st75256.c ****   U8X8_CA( 0xbc, 0x03 ),			/* data scan dir */
 148:..\u8g2\csrc/u8x8_d_st75256.c ****   U8X8_A( 0xa6 ),				/* ??? */
 149:..\u8g2\csrc/u8x8_d_st75256.c **** 
 150:..\u8g2\csrc/u8x8_d_st75256.c ****   //U8X8_C( 0x030 ),				/* select 00 commands */
 151:..\u8g2\csrc/u8x8_d_st75256.c ****   U8X8_C( 0x008 ),				/* data format MSB top */
 152:..\u8g2\csrc/u8x8_d_st75256.c ****   U8X8_END_TRANSFER(),             	/* disable chip */
 153:..\u8g2\csrc/u8x8_d_st75256.c ****   U8X8_END()             			/* end of sequence */
 154:..\u8g2\csrc/u8x8_d_st75256.c **** };
 155:..\u8g2\csrc/u8x8_d_st75256.c **** 
 156:..\u8g2\csrc/u8x8_d_st75256.c **** 
 157:..\u8g2\csrc/u8x8_d_st75256.c **** static uint8_t u8x8_d_st75256_256x128_generic(u8x8_t *u8x8, uint8_t msg, uint8_t arg_int, void *arg
 158:..\u8g2\csrc/u8x8_d_st75256.c **** {
  27              		.loc 1 158 0
  28              		.cfi_startproc
  29              		@ args = 0, pretend = 0, frame = 0
  30              		@ frame_needed = 0, uses_anonymous_args = 0
  31              	.LVL0:
  32 0000 2DE9F041 		push	{r4, r5, r6, r7, r8, lr}
  33              		.cfi_def_cfa_offset 24
  34              		.cfi_offset 4, -24
  35              		.cfi_offset 5, -20
  36              		.cfi_offset 6, -16
  37              		.cfi_offset 7, -12
  38              		.cfi_offset 8, -8
  39              		.cfi_offset 14, -4
  40 0004 0646     		mov	r6, r0
  41 0006 1546     		mov	r5, r2
 159:..\u8g2\csrc/u8x8_d_st75256.c ****   uint8_t x, c;
 160:..\u8g2\csrc/u8x8_d_st75256.c ****   uint8_t *ptr;
 161:..\u8g2\csrc/u8x8_d_st75256.c ****   switch(msg)
  42              		.loc 1 161 0
  43 0008 0E29     		cmp	r1, #14
  44 000a 11D0     		beq	.L3
  45 000c 9846     		mov	r8, r3
  46 000e 0F29     		cmp	r1, #15
  47 0010 28D0     		beq	.L4
  48 0012 0B29     		cmp	r1, #11
  49 0014 70D1     		bne	.L10
 162:..\u8g2\csrc/u8x8_d_st75256.c ****   {
 163:..\u8g2\csrc/u8x8_d_st75256.c ****     /* handled by the calling function
 164:..\u8g2\csrc/u8x8_d_st75256.c ****     case U8X8_MSG_DISPLAY_SETUP_MEMORY:
 165:..\u8g2\csrc/u8x8_d_st75256.c ****       u8x8_d_helper_display_setup_memory(u8x8, &u8x8_st75256_256x128_display_info);
 166:..\u8g2\csrc/u8x8_d_st75256.c ****       break;
 167:..\u8g2\csrc/u8x8_d_st75256.c ****     */
 168:..\u8g2\csrc/u8x8_d_st75256.c ****     /* handled by the calling function
 169:..\u8g2\csrc/u8x8_d_st75256.c ****     case U8X8_MSG_DISPLAY_INIT:
 170:..\u8g2\csrc/u8x8_d_st75256.c ****       u8x8_d_helper_display_init(u8x8);
 171:..\u8g2\csrc/u8x8_d_st75256.c ****       u8x8_cad_SendSequence(u8x8, u8x8_d_st75256_256x128_init_seq);    
 172:..\u8g2\csrc/u8x8_d_st75256.c ****       break;
 173:..\u8g2\csrc/u8x8_d_st75256.c ****     */
 174:..\u8g2\csrc/u8x8_d_st75256.c ****     case U8X8_MSG_DISPLAY_SET_POWER_SAVE:
 175:..\u8g2\csrc/u8x8_d_st75256.c ****       if ( arg_int == 0 )
  50              		.loc 1 175 0
  51 0016 2AB9     		cbnz	r2, .L6
 176:..\u8g2\csrc/u8x8_d_st75256.c ****         u8x8_cad_SendSequence(u8x8, u8x8_d_st75256_256x128_powersave0_seq);
  52              		.loc 1 176 0
ARM GAS  C:\Users\brian\AppData\Local\Temp\cckfkOf3.s 			page 5


  53 0018 3949     		ldr	r1, .L12
  54              	.LVL1:
  55 001a FFF7FEFF 		bl	u8x8_cad_SendSequence
  56              	.LVL2:
 177:..\u8g2\csrc/u8x8_d_st75256.c ****       else
 178:..\u8g2\csrc/u8x8_d_st75256.c ****         u8x8_cad_SendSequence(u8x8, u8x8_d_st75256_256x128_powersave1_seq);
 179:..\u8g2\csrc/u8x8_d_st75256.c **** 
 180:..\u8g2\csrc/u8x8_d_st75256.c ****       break;
 181:..\u8g2\csrc/u8x8_d_st75256.c **** #ifdef U8X8_WITH_SET_CONTRAST
 182:..\u8g2\csrc/u8x8_d_st75256.c ****     case U8X8_MSG_DISPLAY_SET_CONTRAST:
 183:..\u8g2\csrc/u8x8_d_st75256.c **** 
 184:..\u8g2\csrc/u8x8_d_st75256.c ****       u8x8_cad_StartTransfer(u8x8);
 185:..\u8g2\csrc/u8x8_d_st75256.c ****       
 186:..\u8g2\csrc/u8x8_d_st75256.c ****       u8x8_cad_SendCmd(u8x8, 0x030 );
 187:..\u8g2\csrc/u8x8_d_st75256.c ****       u8x8_cad_SendCmd(u8x8, 0x081 );  /* there are 9 bit for the volume control */
 188:..\u8g2\csrc/u8x8_d_st75256.c ****       u8x8_cad_SendArg(u8x8, (arg_int & 0x1f)<<1 );	/* lower 6 bit */
 189:..\u8g2\csrc/u8x8_d_st75256.c ****       u8x8_cad_SendArg(u8x8, (arg_int>>5));		/* upper 3 bit */
 190:..\u8g2\csrc/u8x8_d_st75256.c ****       
 191:..\u8g2\csrc/u8x8_d_st75256.c ****       u8x8_cad_EndTransfer(u8x8);
 192:..\u8g2\csrc/u8x8_d_st75256.c ****       break;
 193:..\u8g2\csrc/u8x8_d_st75256.c **** #endif
 194:..\u8g2\csrc/u8x8_d_st75256.c ****     case U8X8_MSG_DISPLAY_DRAW_TILE:
 195:..\u8g2\csrc/u8x8_d_st75256.c ****       
 196:..\u8g2\csrc/u8x8_d_st75256.c ****       u8x8_cad_StartTransfer(u8x8);
 197:..\u8g2\csrc/u8x8_d_st75256.c ****       x = ((u8x8_tile_t *)arg_ptr)->x_pos;    
 198:..\u8g2\csrc/u8x8_d_st75256.c ****       x *= 8;
 199:..\u8g2\csrc/u8x8_d_st75256.c ****       
 200:..\u8g2\csrc/u8x8_d_st75256.c ****       u8x8_cad_SendCmd(u8x8, 0x030 );	/* select command set */
 201:..\u8g2\csrc/u8x8_d_st75256.c ****       u8x8_cad_SendCmd(u8x8, 0x075 );	/* row */
 202:..\u8g2\csrc/u8x8_d_st75256.c ****       u8x8_cad_SendArg(u8x8, u8x8->x_offset + (((u8x8_tile_t *)arg_ptr)->y_pos));	/* x offset is us
 203:..\u8g2\csrc/u8x8_d_st75256.c ****       u8x8_cad_SendArg(u8x8, 0x04f);
 204:..\u8g2\csrc/u8x8_d_st75256.c ****       //u8x8_cad_SendArg(u8x8, (((u8x8_tile_t *)arg_ptr)->y_pos));
 205:..\u8g2\csrc/u8x8_d_st75256.c ****       u8x8_cad_SendCmd(u8x8, 0x015 );	/* col */
 206:..\u8g2\csrc/u8x8_d_st75256.c ****       u8x8_cad_SendArg(u8x8, x);
 207:..\u8g2\csrc/u8x8_d_st75256.c ****       u8x8_cad_SendArg(u8x8, 255);
 208:..\u8g2\csrc/u8x8_d_st75256.c ****       u8x8_cad_SendCmd(u8x8, 0x05c );	
 209:..\u8g2\csrc/u8x8_d_st75256.c ****           
 210:..\u8g2\csrc/u8x8_d_st75256.c ****       do
 211:..\u8g2\csrc/u8x8_d_st75256.c ****       {
 212:..\u8g2\csrc/u8x8_d_st75256.c ****         c = ((u8x8_tile_t *)arg_ptr)->cnt;
 213:..\u8g2\csrc/u8x8_d_st75256.c ****         ptr = ((u8x8_tile_t *)arg_ptr)->tile_ptr;
 214:..\u8g2\csrc/u8x8_d_st75256.c ****         /* SendData can not handle more than 255 bytes, treat c > 31 correctly  */
 215:..\u8g2\csrc/u8x8_d_st75256.c ****         if ( c > 31 )
 216:..\u8g2\csrc/u8x8_d_st75256.c ****         {
 217:..\u8g2\csrc/u8x8_d_st75256.c ****           u8x8_cad_SendData(u8x8, 248, ptr); 	/* 31*8=248 */
 218:..\u8g2\csrc/u8x8_d_st75256.c ****           ptr+=248;
 219:..\u8g2\csrc/u8x8_d_st75256.c ****           c -= 31;
 220:..\u8g2\csrc/u8x8_d_st75256.c ****         }
 221:..\u8g2\csrc/u8x8_d_st75256.c ****         
 222:..\u8g2\csrc/u8x8_d_st75256.c ****         u8x8_cad_SendData(u8x8, c*8, ptr); 	
 223:..\u8g2\csrc/u8x8_d_st75256.c ****         arg_int--;
 224:..\u8g2\csrc/u8x8_d_st75256.c ****       } while( arg_int > 0 );
 225:..\u8g2\csrc/u8x8_d_st75256.c ****       
 226:..\u8g2\csrc/u8x8_d_st75256.c ****       u8x8_cad_EndTransfer(u8x8);
 227:..\u8g2\csrc/u8x8_d_st75256.c ****       break;
 228:..\u8g2\csrc/u8x8_d_st75256.c ****     default:
 229:..\u8g2\csrc/u8x8_d_st75256.c ****       return 0;
ARM GAS  C:\Users\brian\AppData\Local\Temp\cckfkOf3.s 			page 6


 230:..\u8g2\csrc/u8x8_d_st75256.c ****   }
 231:..\u8g2\csrc/u8x8_d_st75256.c ****   return 1;
  57              		.loc 1 231 0
  58 001e 0120     		movs	r0, #1
  59 0020 BDE8F081 		pop	{r4, r5, r6, r7, r8, pc}
  60              	.LVL3:
  61              	.L6:
 178:..\u8g2\csrc/u8x8_d_st75256.c **** 
  62              		.loc 1 178 0
  63 0024 3749     		ldr	r1, .L12+4
  64              	.LVL4:
  65 0026 FFF7FEFF 		bl	u8x8_cad_SendSequence
  66              	.LVL5:
  67              		.loc 1 231 0
  68 002a 0120     		movs	r0, #1
  69 002c BDE8F081 		pop	{r4, r5, r6, r7, r8, pc}
  70              	.LVL6:
  71              	.L3:
 184:..\u8g2\csrc/u8x8_d_st75256.c ****       
  72              		.loc 1 184 0
  73 0030 FFF7FEFF 		bl	u8x8_cad_StartTransfer
  74              	.LVL7:
 186:..\u8g2\csrc/u8x8_d_st75256.c ****       u8x8_cad_SendCmd(u8x8, 0x081 );  /* there are 9 bit for the volume control */
  75              		.loc 1 186 0
  76 0034 3021     		movs	r1, #48
  77 0036 3046     		mov	r0, r6
  78 0038 FFF7FEFF 		bl	u8x8_cad_SendCmd
  79              	.LVL8:
 187:..\u8g2\csrc/u8x8_d_st75256.c ****       u8x8_cad_SendArg(u8x8, (arg_int & 0x1f)<<1 );	/* lower 6 bit */
  80              		.loc 1 187 0
  81 003c 8121     		movs	r1, #129
  82 003e 3046     		mov	r0, r6
  83 0040 FFF7FEFF 		bl	u8x8_cad_SendCmd
  84              	.LVL9:
 188:..\u8g2\csrc/u8x8_d_st75256.c ****       u8x8_cad_SendArg(u8x8, (arg_int>>5));		/* upper 3 bit */
  85              		.loc 1 188 0
  86 0044 6900     		lsls	r1, r5, #1
  87 0046 01F03E01 		and	r1, r1, #62
  88 004a 3046     		mov	r0, r6
  89 004c FFF7FEFF 		bl	u8x8_cad_SendArg
  90              	.LVL10:
 189:..\u8g2\csrc/u8x8_d_st75256.c ****       
  91              		.loc 1 189 0
  92 0050 6909     		lsrs	r1, r5, #5
  93 0052 3046     		mov	r0, r6
  94 0054 FFF7FEFF 		bl	u8x8_cad_SendArg
  95              	.LVL11:
 191:..\u8g2\csrc/u8x8_d_st75256.c ****       break;
  96              		.loc 1 191 0
  97 0058 3046     		mov	r0, r6
  98 005a FFF7FEFF 		bl	u8x8_cad_EndTransfer
  99              	.LVL12:
 100              		.loc 1 231 0
 101 005e 0120     		movs	r0, #1
 192:..\u8g2\csrc/u8x8_d_st75256.c **** #endif
 102              		.loc 1 192 0
 103 0060 BDE8F081 		pop	{r4, r5, r6, r7, r8, pc}
ARM GAS  C:\Users\brian\AppData\Local\Temp\cckfkOf3.s 			page 7


 104              	.LVL13:
 105              	.L4:
 196:..\u8g2\csrc/u8x8_d_st75256.c ****       x = ((u8x8_tile_t *)arg_ptr)->x_pos;    
 106              		.loc 1 196 0
 107 0064 FFF7FEFF 		bl	u8x8_cad_StartTransfer
 108              	.LVL14:
 197:..\u8g2\csrc/u8x8_d_st75256.c ****       x *= 8;
 109              		.loc 1 197 0
 110 0068 98F80540 		ldrb	r4, [r8, #5]	@ zero_extendqisi2
 111              	.LVL15:
 198:..\u8g2\csrc/u8x8_d_st75256.c ****       
 112              		.loc 1 198 0
 113 006c E400     		lsls	r4, r4, #3
 114              	.LVL16:
 115 006e E4B2     		uxtb	r4, r4
 116              	.LVL17:
 200:..\u8g2\csrc/u8x8_d_st75256.c ****       u8x8_cad_SendCmd(u8x8, 0x075 );	/* row */
 117              		.loc 1 200 0
 118 0070 3021     		movs	r1, #48
 119 0072 3046     		mov	r0, r6
 120 0074 FFF7FEFF 		bl	u8x8_cad_SendCmd
 121              	.LVL18:
 201:..\u8g2\csrc/u8x8_d_st75256.c ****       u8x8_cad_SendArg(u8x8, u8x8->x_offset + (((u8x8_tile_t *)arg_ptr)->y_pos));	/* x offset is us
 122              		.loc 1 201 0
 123 0078 7521     		movs	r1, #117
 124 007a 3046     		mov	r0, r6
 125 007c FFF7FEFF 		bl	u8x8_cad_SendCmd
 126              	.LVL19:
 202:..\u8g2\csrc/u8x8_d_st75256.c ****       u8x8_cad_SendArg(u8x8, 0x04f);
 127              		.loc 1 202 0
 128 0080 96F82210 		ldrb	r1, [r6, #34]	@ zero_extendqisi2
 129 0084 98F80630 		ldrb	r3, [r8, #6]	@ zero_extendqisi2
 130 0088 1944     		add	r1, r1, r3
 131 008a C9B2     		uxtb	r1, r1
 132 008c 3046     		mov	r0, r6
 133 008e FFF7FEFF 		bl	u8x8_cad_SendArg
 134              	.LVL20:
 203:..\u8g2\csrc/u8x8_d_st75256.c ****       //u8x8_cad_SendArg(u8x8, (((u8x8_tile_t *)arg_ptr)->y_pos));
 135              		.loc 1 203 0
 136 0092 4F21     		movs	r1, #79
 137 0094 3046     		mov	r0, r6
 138 0096 FFF7FEFF 		bl	u8x8_cad_SendArg
 139              	.LVL21:
 205:..\u8g2\csrc/u8x8_d_st75256.c ****       u8x8_cad_SendArg(u8x8, x);
 140              		.loc 1 205 0
 141 009a 1521     		movs	r1, #21
 142 009c 3046     		mov	r0, r6
 143 009e FFF7FEFF 		bl	u8x8_cad_SendCmd
 144              	.LVL22:
 206:..\u8g2\csrc/u8x8_d_st75256.c ****       u8x8_cad_SendArg(u8x8, 255);
 145              		.loc 1 206 0
 146 00a2 2146     		mov	r1, r4
 147 00a4 3046     		mov	r0, r6
 148 00a6 FFF7FEFF 		bl	u8x8_cad_SendArg
 149              	.LVL23:
 207:..\u8g2\csrc/u8x8_d_st75256.c ****       u8x8_cad_SendCmd(u8x8, 0x05c );	
 150              		.loc 1 207 0
ARM GAS  C:\Users\brian\AppData\Local\Temp\cckfkOf3.s 			page 8


 151 00aa FF21     		movs	r1, #255
 152 00ac 3046     		mov	r0, r6
 153 00ae FFF7FEFF 		bl	u8x8_cad_SendArg
 154              	.LVL24:
 208:..\u8g2\csrc/u8x8_d_st75256.c ****           
 155              		.loc 1 208 0
 156 00b2 5C21     		movs	r1, #92
 157 00b4 3046     		mov	r0, r6
 158 00b6 FFF7FEFF 		bl	u8x8_cad_SendCmd
 159              	.LVL25:
 160              	.L8:
 212:..\u8g2\csrc/u8x8_d_st75256.c ****         ptr = ((u8x8_tile_t *)arg_ptr)->tile_ptr;
 161              		.loc 1 212 0
 162 00ba 98F80440 		ldrb	r4, [r8, #4]	@ zero_extendqisi2
 163              	.LVL26:
 213:..\u8g2\csrc/u8x8_d_st75256.c ****         /* SendData can not handle more than 255 bytes, treat c > 31 correctly  */
 164              		.loc 1 213 0
 165 00be D8F80070 		ldr	r7, [r8]
 166              	.LVL27:
 215:..\u8g2\csrc/u8x8_d_st75256.c ****         {
 167              		.loc 1 215 0
 168 00c2 1F2C     		cmp	r4, #31
 169 00c4 07D9     		bls	.L7
 217:..\u8g2\csrc/u8x8_d_st75256.c ****           ptr+=248;
 170              		.loc 1 217 0
 171 00c6 3A46     		mov	r2, r7
 172 00c8 F821     		movs	r1, #248
 173 00ca 3046     		mov	r0, r6
 174 00cc FFF7FEFF 		bl	u8x8_cad_SendData
 175              	.LVL28:
 218:..\u8g2\csrc/u8x8_d_st75256.c ****           c -= 31;
 176              		.loc 1 218 0
 177 00d0 F837     		adds	r7, r7, #248
 178              	.LVL29:
 219:..\u8g2\csrc/u8x8_d_st75256.c ****         }
 179              		.loc 1 219 0
 180 00d2 1F3C     		subs	r4, r4, #31
 181              	.LVL30:
 182 00d4 E4B2     		uxtb	r4, r4
 183              	.LVL31:
 184              	.L7:
 222:..\u8g2\csrc/u8x8_d_st75256.c ****         arg_int--;
 185              		.loc 1 222 0
 186 00d6 E100     		lsls	r1, r4, #3
 187 00d8 3A46     		mov	r2, r7
 188 00da 01F0F801 		and	r1, r1, #248
 189 00de 3046     		mov	r0, r6
 190 00e0 FFF7FEFF 		bl	u8x8_cad_SendData
 191              	.LVL32:
 223:..\u8g2\csrc/u8x8_d_st75256.c ****       } while( arg_int > 0 );
 192              		.loc 1 223 0
 193 00e4 6A1E     		subs	r2, r5, #1
 194              	.LVL33:
 224:..\u8g2\csrc/u8x8_d_st75256.c ****       
 195              		.loc 1 224 0
 196 00e6 12F0FF05 		ands	r5, r2, #255
 197 00ea E6D1     		bne	.L8
ARM GAS  C:\Users\brian\AppData\Local\Temp\cckfkOf3.s 			page 9


 226:..\u8g2\csrc/u8x8_d_st75256.c ****       break;
 198              		.loc 1 226 0
 199 00ec 3046     		mov	r0, r6
 200 00ee FFF7FEFF 		bl	u8x8_cad_EndTransfer
 201              	.LVL34:
 202              		.loc 1 231 0
 203 00f2 0120     		movs	r0, #1
 227:..\u8g2\csrc/u8x8_d_st75256.c ****     default:
 204              		.loc 1 227 0
 205 00f4 BDE8F081 		pop	{r4, r5, r6, r7, r8, pc}
 206              	.LVL35:
 207              	.L10:
 229:..\u8g2\csrc/u8x8_d_st75256.c ****   }
 208              		.loc 1 229 0
 209 00f8 0020     		movs	r0, #0
 210              	.LVL36:
 232:..\u8g2\csrc/u8x8_d_st75256.c **** }
 211              		.loc 1 232 0
 212 00fa BDE8F081 		pop	{r4, r5, r6, r7, r8, pc}
 213              	.LVL37:
 214              	.L13:
 215 00fe 00BF     		.align	2
 216              	.L12:
 217 0100 00000000 		.word	.LANCHOR0
 218 0104 0C000000 		.word	.LANCHOR0+12
 219              		.cfi_endproc
 220              	.LFE0:
 221              		.size	u8x8_d_st75256_256x128_generic, .-u8x8_d_st75256_256x128_generic
 222              		.section	.text.u8x8_d_st75256_jlx256128,"ax",%progbits
 223              		.align	2
 224              		.global	u8x8_d_st75256_jlx256128
 225              		.thumb
 226              		.thumb_func
 227              		.type	u8x8_d_st75256_jlx256128, %function
 228              	u8x8_d_st75256_jlx256128:
 229              	.LFB1:
 233:..\u8g2\csrc/u8x8_d_st75256.c **** 
 234:..\u8g2\csrc/u8x8_d_st75256.c **** /*=============================================*/
 235:..\u8g2\csrc/u8x8_d_st75256.c **** /* JLX256128 */
 236:..\u8g2\csrc/u8x8_d_st75256.c **** 
 237:..\u8g2\csrc/u8x8_d_st75256.c **** static const u8x8_display_info_t u8x8_st75256_256x128_display_info =
 238:..\u8g2\csrc/u8x8_d_st75256.c **** {
 239:..\u8g2\csrc/u8x8_d_st75256.c ****   /* chip_enable_level = */ 0,
 240:..\u8g2\csrc/u8x8_d_st75256.c ****   /* chip_disable_level = */ 1,
 241:..\u8g2\csrc/u8x8_d_st75256.c ****   
 242:..\u8g2\csrc/u8x8_d_st75256.c ****   /* post_chip_enable_wait_ns = */ 20,
 243:..\u8g2\csrc/u8x8_d_st75256.c ****   /* pre_chip_disable_wait_ns = */ 20,
 244:..\u8g2\csrc/u8x8_d_st75256.c ****   /* reset_pulse_width_ms = */ 5, 	
 245:..\u8g2\csrc/u8x8_d_st75256.c ****   /* post_reset_wait_ms = */ 5, 		/**/
 246:..\u8g2\csrc/u8x8_d_st75256.c ****   /* sda_setup_time_ns = */ 20,		/* */
 247:..\u8g2\csrc/u8x8_d_st75256.c ****   /* sck_pulse_width_ns = */ 40,	/*  */
 248:..\u8g2\csrc/u8x8_d_st75256.c ****   /* sck_clock_hz = */ 4000000UL,	/* since Arduino 1.6.0, the SPI bus speed in Hz. Should be  10000
 249:..\u8g2\csrc/u8x8_d_st75256.c ****   /* spi_mode = */ 0,		/* active high, rising edge */
 250:..\u8g2\csrc/u8x8_d_st75256.c ****   /* i2c_bus_clock_100kHz = */ 4,	/* 400KHz */
 251:..\u8g2\csrc/u8x8_d_st75256.c ****   /* data_setup_time_ns = */ 15,
 252:..\u8g2\csrc/u8x8_d_st75256.c ****   /* write_pulse_width_ns = */ 70,	
 253:..\u8g2\csrc/u8x8_d_st75256.c ****   /* tile_width = */ 32,
ARM GAS  C:\Users\brian\AppData\Local\Temp\cckfkOf3.s 			page 10


 254:..\u8g2\csrc/u8x8_d_st75256.c ****   /* tile_hight = */ 16,
 255:..\u8g2\csrc/u8x8_d_st75256.c ****   /* default_x_offset = */ 0,	/* must be 0, because this is checked also for normal mode */
 256:..\u8g2\csrc/u8x8_d_st75256.c ****   /* flipmode_x_offset = */ 5,		/* used as y offset */
 257:..\u8g2\csrc/u8x8_d_st75256.c ****   /* pixel_width = */ 256,
 258:..\u8g2\csrc/u8x8_d_st75256.c ****   /* pixel_height = */ 128
 259:..\u8g2\csrc/u8x8_d_st75256.c **** };
 260:..\u8g2\csrc/u8x8_d_st75256.c **** 
 261:..\u8g2\csrc/u8x8_d_st75256.c **** 
 262:..\u8g2\csrc/u8x8_d_st75256.c **** static const uint8_t u8x8_d_st75256_256x128_init_seq[] = {
 263:..\u8g2\csrc/u8x8_d_st75256.c ****   U8X8_START_TRANSFER(),             	/* enable chip, delay is part of the transfer start */
 264:..\u8g2\csrc/u8x8_d_st75256.c ****   
 265:..\u8g2\csrc/u8x8_d_st75256.c ****   U8X8_DLY(20),
 266:..\u8g2\csrc/u8x8_d_st75256.c **** 
 267:..\u8g2\csrc/u8x8_d_st75256.c ****   U8X8_C( 0x030 ),				/* select 00 commands */
 268:..\u8g2\csrc/u8x8_d_st75256.c ****   U8X8_C( 0x094 ),				/* sleep out */
 269:..\u8g2\csrc/u8x8_d_st75256.c **** 
 270:..\u8g2\csrc/u8x8_d_st75256.c ****   //U8X8_C( 0x030 ),				/* select 00 commands */
 271:..\u8g2\csrc/u8x8_d_st75256.c ****   U8X8_C( 0x0ae ),				/* display off */
 272:..\u8g2\csrc/u8x8_d_st75256.c **** 
 273:..\u8g2\csrc/u8x8_d_st75256.c ****   U8X8_C( 0x031 ),				/* select 01 commands */
 274:..\u8g2\csrc/u8x8_d_st75256.c ****   U8X8_CA( 0x0d7, 0x09f ),		/* disable auto read */  
 275:..\u8g2\csrc/u8x8_d_st75256.c **** 
 276:..\u8g2\csrc/u8x8_d_st75256.c ****   //U8X8_C( 0x031 ),				/* select 01 commands */
 277:..\u8g2\csrc/u8x8_d_st75256.c ****   U8X8_C( 0x032 ),				/* analog circuit set */
 278:..\u8g2\csrc/u8x8_d_st75256.c ****   U8X8_A( 0x000 ),				/* code example: OSC Frequency adjustment */
 279:..\u8g2\csrc/u8x8_d_st75256.c ****   U8X8_A( 0x001 ),				/* Frequency on booster capacitors 1 = 6KHz? */
 280:..\u8g2\csrc/u8x8_d_st75256.c ****   U8X8_A( 0x000 ),				/* Bias: 1: 1/13, 2: 1/12, 3: 1/11, 4:1/10, 5:1/9 */
 281:..\u8g2\csrc/u8x8_d_st75256.c ****     
 282:..\u8g2\csrc/u8x8_d_st75256.c ****   //U8X8_C( 0x031 ),				/* select 01 commands */
 283:..\u8g2\csrc/u8x8_d_st75256.c ****   U8X8_C( 0x020 ),				/* gray levels */
 284:..\u8g2\csrc/u8x8_d_st75256.c ****   U8X8_A( 0x01 ),
 285:..\u8g2\csrc/u8x8_d_st75256.c ****   U8X8_A( 0x03 ),
 286:..\u8g2\csrc/u8x8_d_st75256.c ****   U8X8_A( 0x05 ),
 287:..\u8g2\csrc/u8x8_d_st75256.c ****   U8X8_A( 0x07 ),
 288:..\u8g2\csrc/u8x8_d_st75256.c ****   U8X8_A( 0x09),
 289:..\u8g2\csrc/u8x8_d_st75256.c ****   U8X8_A( 0x0b ),
 290:..\u8g2\csrc/u8x8_d_st75256.c ****   U8X8_A( 0x0d ),
 291:..\u8g2\csrc/u8x8_d_st75256.c ****   U8X8_A( 0x10 ),
 292:..\u8g2\csrc/u8x8_d_st75256.c ****   U8X8_A( 0x11 ),
 293:..\u8g2\csrc/u8x8_d_st75256.c ****   U8X8_A( 0x13 ),
 294:..\u8g2\csrc/u8x8_d_st75256.c ****   U8X8_A( 0x15 ),
 295:..\u8g2\csrc/u8x8_d_st75256.c ****   U8X8_A( 0x17 ),
 296:..\u8g2\csrc/u8x8_d_st75256.c ****   U8X8_A( 0x19 ),
 297:..\u8g2\csrc/u8x8_d_st75256.c ****   U8X8_A( 0x1b ),
 298:..\u8g2\csrc/u8x8_d_st75256.c ****   U8X8_A( 0x1d ),
 299:..\u8g2\csrc/u8x8_d_st75256.c ****   U8X8_A( 0x1f ),
 300:..\u8g2\csrc/u8x8_d_st75256.c ****  
 301:..\u8g2\csrc/u8x8_d_st75256.c ****   
 302:..\u8g2\csrc/u8x8_d_st75256.c ****   U8X8_C( 0x030 ),				/* select 00 commands */
 303:..\u8g2\csrc/u8x8_d_st75256.c ****   U8X8_CAA(0x75, 0, 0x4f),		/* row range */
 304:..\u8g2\csrc/u8x8_d_st75256.c ****   U8X8_CAA(0x15, 0, 255),		/* col range */
 305:..\u8g2\csrc/u8x8_d_st75256.c ****   
 306:..\u8g2\csrc/u8x8_d_st75256.c ****   //U8X8_C( 0x030 ),				/* select 00 commands */
 307:..\u8g2\csrc/u8x8_d_st75256.c ****   U8X8_CA( 0xbc, 0x00 ),			/* data scan dir */
 308:..\u8g2\csrc/u8x8_d_st75256.c ****   U8X8_A( 0xa6 ),				/* ??? */
 309:..\u8g2\csrc/u8x8_d_st75256.c **** 
 310:..\u8g2\csrc/u8x8_d_st75256.c ****   //U8X8_C( 0x030 ),				/* select 00 commands */
ARM GAS  C:\Users\brian\AppData\Local\Temp\cckfkOf3.s 			page 11


 311:..\u8g2\csrc/u8x8_d_st75256.c ****   U8X8_C( 0x00c ),				/* data format LSB top */
 312:..\u8g2\csrc/u8x8_d_st75256.c **** 
 313:..\u8g2\csrc/u8x8_d_st75256.c ****   //U8X8_C( 0x030 ),				/* select 00 commands */ 
 314:..\u8g2\csrc/u8x8_d_st75256.c ****   U8X8_C( 0xca ),				/* display control, 3 args follow  */
 315:..\u8g2\csrc/u8x8_d_st75256.c ****   U8X8_A( 0x00 ),				/* 0x00: no clock division, 0x04: devide clock */
 316:..\u8g2\csrc/u8x8_d_st75256.c ****   U8X8_A( 0x7f ),				/* 1/160 duty value from the DS example code */
 317:..\u8g2\csrc/u8x8_d_st75256.c ****   U8X8_A( 0x20 ),				/* nline off */ 
 318:..\u8g2\csrc/u8x8_d_st75256.c **** 
 319:..\u8g2\csrc/u8x8_d_st75256.c ****   //U8X8_C( 0x030 ),				/* select 00 commands */ 
 320:..\u8g2\csrc/u8x8_d_st75256.c ****   U8X8_CA( 0x0f0, 0x010 ),		/* monochrome mode  = 0x010*/
 321:..\u8g2\csrc/u8x8_d_st75256.c **** 
 322:..\u8g2\csrc/u8x8_d_st75256.c ****   //U8X8_C( 0x030 ),				/* select 00 commands */
 323:..\u8g2\csrc/u8x8_d_st75256.c ****   U8X8_CAA( 0x81, 0x36, 0x05 ),	/* Volume control */
 324:..\u8g2\csrc/u8x8_d_st75256.c **** 
 325:..\u8g2\csrc/u8x8_d_st75256.c ****   //U8X8_C( 0x030 ),				/* select 00 commands */
 326:..\u8g2\csrc/u8x8_d_st75256.c ****   U8X8_CA( 0x020, 0x00b ),		/* Power control: Regulator, follower & booster on */
 327:..\u8g2\csrc/u8x8_d_st75256.c ****   U8X8_DLY(100),
 328:..\u8g2\csrc/u8x8_d_st75256.c **** 
 329:..\u8g2\csrc/u8x8_d_st75256.c ****   U8X8_END_TRANSFER(),             	/* disable chip */
 330:..\u8g2\csrc/u8x8_d_st75256.c ****   U8X8_END()             			/* end of sequence */
 331:..\u8g2\csrc/u8x8_d_st75256.c **** };
 332:..\u8g2\csrc/u8x8_d_st75256.c **** 
 333:..\u8g2\csrc/u8x8_d_st75256.c **** 
 334:..\u8g2\csrc/u8x8_d_st75256.c **** uint8_t u8x8_d_st75256_jlx256128(u8x8_t *u8x8, uint8_t msg, uint8_t arg_int, void *arg_ptr)
 335:..\u8g2\csrc/u8x8_d_st75256.c **** {
 230              		.loc 1 335 0
 231              		.cfi_startproc
 232              		@ args = 0, pretend = 0, frame = 0
 233              		@ frame_needed = 0, uses_anonymous_args = 0
 234              	.LVL38:
 235 0000 70B5     		push	{r4, r5, r6, lr}
 236              		.cfi_def_cfa_offset 16
 237              		.cfi_offset 4, -16
 238              		.cfi_offset 5, -12
 239              		.cfi_offset 6, -8
 240              		.cfi_offset 14, -4
 241 0002 0546     		mov	r5, r0
 242 0004 0C46     		mov	r4, r1
 243 0006 1646     		mov	r6, r2
 336:..\u8g2\csrc/u8x8_d_st75256.c ****   if ( u8x8_d_st75256_256x128_generic(u8x8, msg, arg_int, arg_ptr) != 0 )
 244              		.loc 1 336 0
 245 0008 FFF7FEFF 		bl	u8x8_d_st75256_256x128_generic
 246              	.LVL39:
 247 000c 50BB     		cbnz	r0, .L19
 248 000e 0346     		mov	r3, r0
 337:..\u8g2\csrc/u8x8_d_st75256.c ****     return 1;
 338:..\u8g2\csrc/u8x8_d_st75256.c ****   if ( msg == U8X8_MSG_DISPLAY_SETUP_MEMORY )
 249              		.loc 1 338 0
 250 0010 092C     		cmp	r4, #9
 251 0012 05D1     		bne	.L16
 339:..\u8g2\csrc/u8x8_d_st75256.c ****   {
 340:..\u8g2\csrc/u8x8_d_st75256.c ****     //u8x8_SetI2CAddress(u8x8, 0x078);		/* lowest I2C adr of the ST75256 */
 341:..\u8g2\csrc/u8x8_d_st75256.c ****     u8x8_d_helper_display_setup_memory(u8x8, &u8x8_st75256_256x128_display_info);
 252              		.loc 1 341 0
 253 0014 1549     		ldr	r1, .L21
 254 0016 2846     		mov	r0, r5
 255 0018 FFF7FEFF 		bl	u8x8_d_helper_display_setup_memory
ARM GAS  C:\Users\brian\AppData\Local\Temp\cckfkOf3.s 			page 12


 256              	.LVL40:
 342:..\u8g2\csrc/u8x8_d_st75256.c ****     return 1;
 257              		.loc 1 342 0
 258 001c 0123     		movs	r3, #1
 259 001e 22E0     		b	.L15
 260              	.L16:
 343:..\u8g2\csrc/u8x8_d_st75256.c ****   }
 344:..\u8g2\csrc/u8x8_d_st75256.c ****   else if ( msg == U8X8_MSG_DISPLAY_INIT )
 261              		.loc 1 344 0
 262 0020 0A2C     		cmp	r4, #10
 263 0022 08D1     		bne	.L17
 345:..\u8g2\csrc/u8x8_d_st75256.c ****   {
 346:..\u8g2\csrc/u8x8_d_st75256.c ****     u8x8_d_helper_display_init(u8x8);
 264              		.loc 1 346 0
 265 0024 2846     		mov	r0, r5
 266 0026 FFF7FEFF 		bl	u8x8_d_helper_display_init
 267              	.LVL41:
 347:..\u8g2\csrc/u8x8_d_st75256.c ****     u8x8_cad_SendSequence(u8x8, u8x8_d_st75256_256x128_init_seq);    
 268              		.loc 1 347 0
 269 002a 1149     		ldr	r1, .L21+4
 270 002c 2846     		mov	r0, r5
 271 002e FFF7FEFF 		bl	u8x8_cad_SendSequence
 272              	.LVL42:
 348:..\u8g2\csrc/u8x8_d_st75256.c ****     return 1;
 273              		.loc 1 348 0
 274 0032 0123     		movs	r3, #1
 275 0034 17E0     		b	.L15
 276              	.L17:
 349:..\u8g2\csrc/u8x8_d_st75256.c ****   }
 350:..\u8g2\csrc/u8x8_d_st75256.c ****   else if  ( msg == U8X8_MSG_DISPLAY_SET_FLIP_MODE )
 277              		.loc 1 350 0
 278 0036 0D2C     		cmp	r4, #13
 279 0038 15D1     		bne	.L15
 351:..\u8g2\csrc/u8x8_d_st75256.c ****   {
 352:..\u8g2\csrc/u8x8_d_st75256.c ****     if ( arg_int == 0 )
 280              		.loc 1 352 0
 281 003a 4EB9     		cbnz	r6, .L18
 353:..\u8g2\csrc/u8x8_d_st75256.c ****     {
 354:..\u8g2\csrc/u8x8_d_st75256.c ****       u8x8_cad_SendSequence(u8x8, u8x8_d_st75256_jlx256128_flip0_seq);
 282              		.loc 1 354 0
 283 003c 0D49     		ldr	r1, .L21+8
 284 003e 2846     		mov	r0, r5
 285 0040 FFF7FEFF 		bl	u8x8_cad_SendSequence
 286              	.LVL43:
 355:..\u8g2\csrc/u8x8_d_st75256.c ****       u8x8->x_offset = u8x8->display_info->default_x_offset;
 287              		.loc 1 355 0
 288 0044 2B68     		ldr	r3, [r5]
 289 0046 9B7C     		ldrb	r3, [r3, #18]	@ zero_extendqisi2
 290 0048 85F82230 		strb	r3, [r5, #34]
 356:..\u8g2\csrc/u8x8_d_st75256.c ****     }
 357:..\u8g2\csrc/u8x8_d_st75256.c ****     else
 358:..\u8g2\csrc/u8x8_d_st75256.c ****     {
 359:..\u8g2\csrc/u8x8_d_st75256.c ****       u8x8_cad_SendSequence(u8x8, u8x8_d_st75256_jlx256128_flip1_seq);
 360:..\u8g2\csrc/u8x8_d_st75256.c ****       u8x8->x_offset = u8x8->display_info->flipmode_x_offset;
 361:..\u8g2\csrc/u8x8_d_st75256.c ****     }
 362:..\u8g2\csrc/u8x8_d_st75256.c ****     return 1;
 291              		.loc 1 362 0
ARM GAS  C:\Users\brian\AppData\Local\Temp\cckfkOf3.s 			page 13


 292 004c 0123     		movs	r3, #1
 293 004e 0AE0     		b	.L15
 294              	.L18:
 359:..\u8g2\csrc/u8x8_d_st75256.c ****       u8x8->x_offset = u8x8->display_info->flipmode_x_offset;
 295              		.loc 1 359 0
 296 0050 0949     		ldr	r1, .L21+12
 297 0052 2846     		mov	r0, r5
 298 0054 FFF7FEFF 		bl	u8x8_cad_SendSequence
 299              	.LVL44:
 360:..\u8g2\csrc/u8x8_d_st75256.c ****     }
 300              		.loc 1 360 0
 301 0058 2B68     		ldr	r3, [r5]
 302 005a DB7C     		ldrb	r3, [r3, #19]	@ zero_extendqisi2
 303 005c 85F82230 		strb	r3, [r5, #34]
 304              		.loc 1 362 0
 305 0060 0123     		movs	r3, #1
 306 0062 00E0     		b	.L15
 307              	.L19:
 337:..\u8g2\csrc/u8x8_d_st75256.c ****   if ( msg == U8X8_MSG_DISPLAY_SETUP_MEMORY )
 308              		.loc 1 337 0
 309 0064 0123     		movs	r3, #1
 310              	.L15:
 363:..\u8g2\csrc/u8x8_d_st75256.c ****   }
 364:..\u8g2\csrc/u8x8_d_st75256.c ****   return 0;
 365:..\u8g2\csrc/u8x8_d_st75256.c **** }
 311              		.loc 1 365 0
 312 0066 1846     		mov	r0, r3
 313 0068 70BD     		pop	{r4, r5, r6, pc}
 314              	.LVL45:
 315              	.L22:
 316 006a 00BF     		.align	2
 317              	.L21:
 318 006c 18000000 		.word	.LANCHOR0+24
 319 0070 30000000 		.word	.LANCHOR0+48
 320 0074 9C000000 		.word	.LANCHOR0+156
 321 0078 AC000000 		.word	.LANCHOR0+172
 322              		.cfi_endproc
 323              	.LFE1:
 324              		.size	u8x8_d_st75256_jlx256128, .-u8x8_d_st75256_jlx256128
 325              		.section	.text.u8x8_d_st75256_wo256x128,"ax",%progbits
 326              		.align	2
 327              		.global	u8x8_d_st75256_wo256x128
 328              		.thumb
 329              		.thumb_func
 330              		.type	u8x8_d_st75256_wo256x128, %function
 331              	u8x8_d_st75256_wo256x128:
 332              	.LFB2:
 366:..\u8g2\csrc/u8x8_d_st75256.c **** 
 367:..\u8g2\csrc/u8x8_d_st75256.c **** 
 368:..\u8g2\csrc/u8x8_d_st75256.c **** 
 369:..\u8g2\csrc/u8x8_d_st75256.c **** /*=============================================*/
 370:..\u8g2\csrc/u8x8_d_st75256.c **** /* WO256X128, https://github.com/olikraus/u8g2/issues/891  */
 371:..\u8g2\csrc/u8x8_d_st75256.c **** 
 372:..\u8g2\csrc/u8x8_d_st75256.c **** static const u8x8_display_info_t u8x8_st75256_wo256x128_display_info =
 373:..\u8g2\csrc/u8x8_d_st75256.c **** {
 374:..\u8g2\csrc/u8x8_d_st75256.c ****   /* chip_enable_level = */ 0,
 375:..\u8g2\csrc/u8x8_d_st75256.c ****   /* chip_disable_level = */ 1,
ARM GAS  C:\Users\brian\AppData\Local\Temp\cckfkOf3.s 			page 14


 376:..\u8g2\csrc/u8x8_d_st75256.c ****   
 377:..\u8g2\csrc/u8x8_d_st75256.c ****   /* post_chip_enable_wait_ns = */ 20,
 378:..\u8g2\csrc/u8x8_d_st75256.c ****   /* pre_chip_disable_wait_ns = */ 20,
 379:..\u8g2\csrc/u8x8_d_st75256.c ****   /* reset_pulse_width_ms = */ 5, 	
 380:..\u8g2\csrc/u8x8_d_st75256.c ****   /* post_reset_wait_ms = */ 5, 		/**/
 381:..\u8g2\csrc/u8x8_d_st75256.c ****   /* sda_setup_time_ns = */ 20,		/* */
 382:..\u8g2\csrc/u8x8_d_st75256.c ****   /* sck_pulse_width_ns = */ 40,	/*  */
 383:..\u8g2\csrc/u8x8_d_st75256.c ****   /* sck_clock_hz = */ 4000000UL,	/* since Arduino 1.6.0, the SPI bus speed in Hz. Should be  10000
 384:..\u8g2\csrc/u8x8_d_st75256.c ****   /* spi_mode = */ 0,		/* active high, rising edge */
 385:..\u8g2\csrc/u8x8_d_st75256.c ****   /* i2c_bus_clock_100kHz = */ 4,	/* 400KHz */
 386:..\u8g2\csrc/u8x8_d_st75256.c ****   /* data_setup_time_ns = */ 15,
 387:..\u8g2\csrc/u8x8_d_st75256.c ****   /* write_pulse_width_ns = */ 70,	
 388:..\u8g2\csrc/u8x8_d_st75256.c ****   /* tile_width = */ 32,
 389:..\u8g2\csrc/u8x8_d_st75256.c ****   /* tile_hight = */ 16,
 390:..\u8g2\csrc/u8x8_d_st75256.c ****   /* default_x_offset = */ 5,	/* must be 0, because this is checked also for normal mode */
 391:..\u8g2\csrc/u8x8_d_st75256.c ****   /* flipmode_x_offset = */ 0,		/* used as y offset */
 392:..\u8g2\csrc/u8x8_d_st75256.c ****   /* pixel_width = */ 256,
 393:..\u8g2\csrc/u8x8_d_st75256.c ****   /* pixel_height = */ 128
 394:..\u8g2\csrc/u8x8_d_st75256.c **** };
 395:..\u8g2\csrc/u8x8_d_st75256.c **** 
 396:..\u8g2\csrc/u8x8_d_st75256.c **** 
 397:..\u8g2\csrc/u8x8_d_st75256.c **** static const uint8_t u8x8_d_st75256_wo256x128_init_seq[] = {
 398:..\u8g2\csrc/u8x8_d_st75256.c ****   U8X8_START_TRANSFER(),             	/* enable chip, delay is part of the transfer start */
 399:..\u8g2\csrc/u8x8_d_st75256.c ****   
 400:..\u8g2\csrc/u8x8_d_st75256.c ****   U8X8_DLY(20),
 401:..\u8g2\csrc/u8x8_d_st75256.c **** 
 402:..\u8g2\csrc/u8x8_d_st75256.c ****   U8X8_C( 0x030 ),				/* select 00 commands */
 403:..\u8g2\csrc/u8x8_d_st75256.c ****   U8X8_C( 0x094 ),				/* sleep out */
 404:..\u8g2\csrc/u8x8_d_st75256.c **** 
 405:..\u8g2\csrc/u8x8_d_st75256.c ****   //U8X8_C( 0x030 ),				/* select 00 commands */
 406:..\u8g2\csrc/u8x8_d_st75256.c ****   U8X8_C( 0x0ae ),				/* display off */
 407:..\u8g2\csrc/u8x8_d_st75256.c **** 
 408:..\u8g2\csrc/u8x8_d_st75256.c ****   U8X8_C( 0x031 ),				/* select 01 commands */
 409:..\u8g2\csrc/u8x8_d_st75256.c ****   U8X8_CA( 0x0d7, 0x09f ),		/* disable auto read */  
 410:..\u8g2\csrc/u8x8_d_st75256.c **** 
 411:..\u8g2\csrc/u8x8_d_st75256.c ****   //U8X8_C( 0x031 ),				/* select 01 commands */
 412:..\u8g2\csrc/u8x8_d_st75256.c ****   U8X8_C( 0x032 ),				/* analog circuit set */
 413:..\u8g2\csrc/u8x8_d_st75256.c ****   U8X8_A( 0x000 ),				/* code example: OSC Frequency adjustment */
 414:..\u8g2\csrc/u8x8_d_st75256.c ****   U8X8_A( 0x001 ),				/* Frequency on booster capacitors 1 = 6KHz? */
 415:..\u8g2\csrc/u8x8_d_st75256.c ****   U8X8_A( 0x000 ),				/* Bias: 1: 1/13, 2: 1/12, 3: 1/11, 4:1/10, 5:1/9 */
 416:..\u8g2\csrc/u8x8_d_st75256.c ****     
 417:..\u8g2\csrc/u8x8_d_st75256.c ****   //U8X8_C( 0x031 ),				/* select 01 commands */
 418:..\u8g2\csrc/u8x8_d_st75256.c ****   U8X8_C( 0x020 ),				/* gray levels */
 419:..\u8g2\csrc/u8x8_d_st75256.c ****   U8X8_A( 0x01 ),
 420:..\u8g2\csrc/u8x8_d_st75256.c ****   U8X8_A( 0x03 ),
 421:..\u8g2\csrc/u8x8_d_st75256.c ****   U8X8_A( 0x05 ),
 422:..\u8g2\csrc/u8x8_d_st75256.c ****   U8X8_A( 0x07 ),
 423:..\u8g2\csrc/u8x8_d_st75256.c ****   U8X8_A( 0x09),
 424:..\u8g2\csrc/u8x8_d_st75256.c ****   U8X8_A( 0x0b ),
 425:..\u8g2\csrc/u8x8_d_st75256.c ****   U8X8_A( 0x0d ),
 426:..\u8g2\csrc/u8x8_d_st75256.c ****   U8X8_A( 0x10 ),
 427:..\u8g2\csrc/u8x8_d_st75256.c ****   U8X8_A( 0x11 ),
 428:..\u8g2\csrc/u8x8_d_st75256.c ****   U8X8_A( 0x13 ),
 429:..\u8g2\csrc/u8x8_d_st75256.c ****   U8X8_A( 0x15 ),
 430:..\u8g2\csrc/u8x8_d_st75256.c ****   U8X8_A( 0x17 ),
 431:..\u8g2\csrc/u8x8_d_st75256.c ****   U8X8_A( 0x19 ),
 432:..\u8g2\csrc/u8x8_d_st75256.c ****   U8X8_A( 0x1b ),
ARM GAS  C:\Users\brian\AppData\Local\Temp\cckfkOf3.s 			page 15


 433:..\u8g2\csrc/u8x8_d_st75256.c ****   U8X8_A( 0x1d ),
 434:..\u8g2\csrc/u8x8_d_st75256.c ****   U8X8_A( 0x1f ),
 435:..\u8g2\csrc/u8x8_d_st75256.c ****  
 436:..\u8g2\csrc/u8x8_d_st75256.c ****   
 437:..\u8g2\csrc/u8x8_d_st75256.c ****   U8X8_C( 0x030 ),				/* select 00 commands */
 438:..\u8g2\csrc/u8x8_d_st75256.c ****   U8X8_CAA(0x75, 0, 0x4f),		/* row range */
 439:..\u8g2\csrc/u8x8_d_st75256.c ****   U8X8_CAA(0x15, 0, 255),		/* col range */
 440:..\u8g2\csrc/u8x8_d_st75256.c ****   
 441:..\u8g2\csrc/u8x8_d_st75256.c ****   //U8X8_C( 0x030 ),				/* select 00 commands */
 442:..\u8g2\csrc/u8x8_d_st75256.c ****   U8X8_CA( 0xbc, 0x01 ),			/* data scan dir */
 443:..\u8g2\csrc/u8x8_d_st75256.c ****   U8X8_A( 0xa6 ),				/* ??? */
 444:..\u8g2\csrc/u8x8_d_st75256.c **** 
 445:..\u8g2\csrc/u8x8_d_st75256.c ****   //U8X8_C( 0x030 ),				/* select 00 commands */
 446:..\u8g2\csrc/u8x8_d_st75256.c ****   U8X8_C( 0x008 ),				/* data format LSB top */
 447:..\u8g2\csrc/u8x8_d_st75256.c **** 
 448:..\u8g2\csrc/u8x8_d_st75256.c ****   //U8X8_C( 0x030 ),				/* select 00 commands */ 
 449:..\u8g2\csrc/u8x8_d_st75256.c ****   U8X8_C( 0xca ),				/* display control, 3 args follow  */
 450:..\u8g2\csrc/u8x8_d_st75256.c ****   U8X8_A( 0x00 ),				/* 0x00: no clock division, 0x04: devide clock */
 451:..\u8g2\csrc/u8x8_d_st75256.c ****   U8X8_A( 0x7f ),				/* 1/160 duty value from the DS example code */
 452:..\u8g2\csrc/u8x8_d_st75256.c ****   U8X8_A( 0x20 ),				/* nline off */ 
 453:..\u8g2\csrc/u8x8_d_st75256.c **** 
 454:..\u8g2\csrc/u8x8_d_st75256.c ****   //U8X8_C( 0x030 ),				/* select 00 commands */ 
 455:..\u8g2\csrc/u8x8_d_st75256.c ****   U8X8_CA( 0x0f0, 0x010 ),		/* monochrome mode  = 0x010*/
 456:..\u8g2\csrc/u8x8_d_st75256.c **** 
 457:..\u8g2\csrc/u8x8_d_st75256.c ****   //U8X8_C( 0x030 ),				/* select 00 commands */
 458:..\u8g2\csrc/u8x8_d_st75256.c ****   U8X8_CAA( 0x81, 0x36, 0x05 ),	/* Volume control */
 459:..\u8g2\csrc/u8x8_d_st75256.c **** 
 460:..\u8g2\csrc/u8x8_d_st75256.c ****   //U8X8_C( 0x030 ),				/* select 00 commands */
 461:..\u8g2\csrc/u8x8_d_st75256.c ****   U8X8_CA( 0x020, 0x00b ),		/* Power control: Regulator, follower & booster on */
 462:..\u8g2\csrc/u8x8_d_st75256.c ****   U8X8_DLY(100),
 463:..\u8g2\csrc/u8x8_d_st75256.c **** 
 464:..\u8g2\csrc/u8x8_d_st75256.c ****   U8X8_END_TRANSFER(),             	/* disable chip */
 465:..\u8g2\csrc/u8x8_d_st75256.c ****   U8X8_END()             			/* end of sequence */
 466:..\u8g2\csrc/u8x8_d_st75256.c **** };
 467:..\u8g2\csrc/u8x8_d_st75256.c **** 
 468:..\u8g2\csrc/u8x8_d_st75256.c **** 
 469:..\u8g2\csrc/u8x8_d_st75256.c **** uint8_t u8x8_d_st75256_wo256x128(u8x8_t *u8x8, uint8_t msg, uint8_t arg_int, void *arg_ptr)
 470:..\u8g2\csrc/u8x8_d_st75256.c **** {
 333              		.loc 1 470 0
 334              		.cfi_startproc
 335              		@ args = 0, pretend = 0, frame = 0
 336              		@ frame_needed = 0, uses_anonymous_args = 0
 337              	.LVL46:
 338 0000 70B5     		push	{r4, r5, r6, lr}
 339              		.cfi_def_cfa_offset 16
 340              		.cfi_offset 4, -16
 341              		.cfi_offset 5, -12
 342              		.cfi_offset 6, -8
 343              		.cfi_offset 14, -4
 344 0002 0546     		mov	r5, r0
 345 0004 0C46     		mov	r4, r1
 346 0006 1646     		mov	r6, r2
 471:..\u8g2\csrc/u8x8_d_st75256.c ****   if ( u8x8_d_st75256_256x128_generic(u8x8, msg, arg_int, arg_ptr) != 0 )
 347              		.loc 1 471 0
 348 0008 FFF7FEFF 		bl	u8x8_d_st75256_256x128_generic
 349              	.LVL47:
 350 000c 50BB     		cbnz	r0, .L28
ARM GAS  C:\Users\brian\AppData\Local\Temp\cckfkOf3.s 			page 16


 351 000e 0346     		mov	r3, r0
 472:..\u8g2\csrc/u8x8_d_st75256.c ****     return 1;
 473:..\u8g2\csrc/u8x8_d_st75256.c ****   if ( msg == U8X8_MSG_DISPLAY_SETUP_MEMORY )
 352              		.loc 1 473 0
 353 0010 092C     		cmp	r4, #9
 354 0012 05D1     		bne	.L25
 474:..\u8g2\csrc/u8x8_d_st75256.c ****   {
 475:..\u8g2\csrc/u8x8_d_st75256.c ****     //u8x8_SetI2CAddress(u8x8, 0x078);		/* lowest I2C adr of the ST75256 */
 476:..\u8g2\csrc/u8x8_d_st75256.c ****     u8x8_d_helper_display_setup_memory(u8x8, &u8x8_st75256_wo256x128_display_info);
 355              		.loc 1 476 0
 356 0014 1549     		ldr	r1, .L30
 357 0016 2846     		mov	r0, r5
 358 0018 FFF7FEFF 		bl	u8x8_d_helper_display_setup_memory
 359              	.LVL48:
 477:..\u8g2\csrc/u8x8_d_st75256.c ****     return 1;
 360              		.loc 1 477 0
 361 001c 0123     		movs	r3, #1
 362 001e 22E0     		b	.L24
 363              	.L25:
 478:..\u8g2\csrc/u8x8_d_st75256.c ****   }
 479:..\u8g2\csrc/u8x8_d_st75256.c ****   else if ( msg == U8X8_MSG_DISPLAY_INIT )
 364              		.loc 1 479 0
 365 0020 0A2C     		cmp	r4, #10
 366 0022 08D1     		bne	.L26
 480:..\u8g2\csrc/u8x8_d_st75256.c ****   {
 481:..\u8g2\csrc/u8x8_d_st75256.c ****     u8x8_d_helper_display_init(u8x8);
 367              		.loc 1 481 0
 368 0024 2846     		mov	r0, r5
 369 0026 FFF7FEFF 		bl	u8x8_d_helper_display_init
 370              	.LVL49:
 482:..\u8g2\csrc/u8x8_d_st75256.c ****     u8x8_cad_SendSequence(u8x8, u8x8_d_st75256_wo256x128_init_seq);    
 371              		.loc 1 482 0
 372 002a 1149     		ldr	r1, .L30+4
 373 002c 2846     		mov	r0, r5
 374 002e FFF7FEFF 		bl	u8x8_cad_SendSequence
 375              	.LVL50:
 483:..\u8g2\csrc/u8x8_d_st75256.c ****     return 1;
 376              		.loc 1 483 0
 377 0032 0123     		movs	r3, #1
 378 0034 17E0     		b	.L24
 379              	.L26:
 484:..\u8g2\csrc/u8x8_d_st75256.c ****   }
 485:..\u8g2\csrc/u8x8_d_st75256.c ****   else if  ( msg == U8X8_MSG_DISPLAY_SET_FLIP_MODE )
 380              		.loc 1 485 0
 381 0036 0D2C     		cmp	r4, #13
 382 0038 15D1     		bne	.L24
 486:..\u8g2\csrc/u8x8_d_st75256.c ****   {
 487:..\u8g2\csrc/u8x8_d_st75256.c ****     if ( arg_int == 0 )
 383              		.loc 1 487 0
 384 003a 4EB9     		cbnz	r6, .L27
 488:..\u8g2\csrc/u8x8_d_st75256.c ****     {
 489:..\u8g2\csrc/u8x8_d_st75256.c ****       u8x8_cad_SendSequence(u8x8, u8x8_d_st75256_jlx172104_flip1_seq);	// this matches the init seq
 385              		.loc 1 489 0
 386 003c 0D49     		ldr	r1, .L30+8
 387 003e 2846     		mov	r0, r5
 388 0040 FFF7FEFF 		bl	u8x8_cad_SendSequence
 389              	.LVL51:
ARM GAS  C:\Users\brian\AppData\Local\Temp\cckfkOf3.s 			page 17


 490:..\u8g2\csrc/u8x8_d_st75256.c ****       u8x8->x_offset = u8x8->display_info->default_x_offset;
 390              		.loc 1 490 0
 391 0044 2B68     		ldr	r3, [r5]
 392 0046 9B7C     		ldrb	r3, [r3, #18]	@ zero_extendqisi2
 393 0048 85F82230 		strb	r3, [r5, #34]
 491:..\u8g2\csrc/u8x8_d_st75256.c ****     }
 492:..\u8g2\csrc/u8x8_d_st75256.c ****     else
 493:..\u8g2\csrc/u8x8_d_st75256.c ****     {
 494:..\u8g2\csrc/u8x8_d_st75256.c ****       u8x8_cad_SendSequence(u8x8, u8x8_d_st75256_jlx172104_flip0_seq);
 495:..\u8g2\csrc/u8x8_d_st75256.c ****       u8x8->x_offset = u8x8->display_info->flipmode_x_offset;
 496:..\u8g2\csrc/u8x8_d_st75256.c ****     }
 497:..\u8g2\csrc/u8x8_d_st75256.c ****     return 1;
 394              		.loc 1 497 0
 395 004c 0123     		movs	r3, #1
 396 004e 0AE0     		b	.L24
 397              	.L27:
 494:..\u8g2\csrc/u8x8_d_st75256.c ****       u8x8->x_offset = u8x8->display_info->flipmode_x_offset;
 398              		.loc 1 494 0
 399 0050 0949     		ldr	r1, .L30+12
 400 0052 2846     		mov	r0, r5
 401 0054 FFF7FEFF 		bl	u8x8_cad_SendSequence
 402              	.LVL52:
 495:..\u8g2\csrc/u8x8_d_st75256.c ****     }
 403              		.loc 1 495 0
 404 0058 2B68     		ldr	r3, [r5]
 405 005a DB7C     		ldrb	r3, [r3, #19]	@ zero_extendqisi2
 406 005c 85F82230 		strb	r3, [r5, #34]
 407              		.loc 1 497 0
 408 0060 0123     		movs	r3, #1
 409 0062 00E0     		b	.L24
 410              	.L28:
 472:..\u8g2\csrc/u8x8_d_st75256.c ****   if ( msg == U8X8_MSG_DISPLAY_SETUP_MEMORY )
 411              		.loc 1 472 0
 412 0064 0123     		movs	r3, #1
 413              	.L24:
 498:..\u8g2\csrc/u8x8_d_st75256.c ****   }
 499:..\u8g2\csrc/u8x8_d_st75256.c ****   return 0;
 500:..\u8g2\csrc/u8x8_d_st75256.c **** }
 414              		.loc 1 500 0
 415 0066 1846     		mov	r0, r3
 416 0068 70BD     		pop	{r4, r5, r6, pc}
 417              	.LVL53:
 418              	.L31:
 419 006a 00BF     		.align	2
 420              	.L30:
 421 006c BC000000 		.word	.LANCHOR0+188
 422 0070 D4000000 		.word	.LANCHOR0+212
 423 0074 40010000 		.word	.LANCHOR0+320
 424 0078 50010000 		.word	.LANCHOR0+336
 425              		.cfi_endproc
 426              	.LFE2:
 427              		.size	u8x8_d_st75256_wo256x128, .-u8x8_d_st75256_wo256x128
 428              		.section	.text.u8x8_d_st75256_jlx25664,"ax",%progbits
 429              		.align	2
 430              		.global	u8x8_d_st75256_jlx25664
 431              		.thumb
 432              		.thumb_func
ARM GAS  C:\Users\brian\AppData\Local\Temp\cckfkOf3.s 			page 18


 433              		.type	u8x8_d_st75256_jlx25664, %function
 434              	u8x8_d_st75256_jlx25664:
 435              	.LFB3:
 501:..\u8g2\csrc/u8x8_d_st75256.c **** 
 502:..\u8g2\csrc/u8x8_d_st75256.c **** 
 503:..\u8g2\csrc/u8x8_d_st75256.c **** /*=============================================*/
 504:..\u8g2\csrc/u8x8_d_st75256.c **** /* JLX25664 */
 505:..\u8g2\csrc/u8x8_d_st75256.c **** 
 506:..\u8g2\csrc/u8x8_d_st75256.c **** static const u8x8_display_info_t u8x8_st75256_256x64_display_info =
 507:..\u8g2\csrc/u8x8_d_st75256.c **** {
 508:..\u8g2\csrc/u8x8_d_st75256.c ****   /* chip_enable_level = */ 0,
 509:..\u8g2\csrc/u8x8_d_st75256.c ****   /* chip_disable_level = */ 1,
 510:..\u8g2\csrc/u8x8_d_st75256.c ****   
 511:..\u8g2\csrc/u8x8_d_st75256.c ****   /* post_chip_enable_wait_ns = */ 20,
 512:..\u8g2\csrc/u8x8_d_st75256.c ****   /* pre_chip_disable_wait_ns = */ 20,
 513:..\u8g2\csrc/u8x8_d_st75256.c ****   /* reset_pulse_width_ms = */ 5, 	
 514:..\u8g2\csrc/u8x8_d_st75256.c ****   /* post_reset_wait_ms = */ 5, 		/**/
 515:..\u8g2\csrc/u8x8_d_st75256.c ****   /* sda_setup_time_ns = */ 20,		/* */
 516:..\u8g2\csrc/u8x8_d_st75256.c ****   /* sck_pulse_width_ns = */ 40,	/*  */
 517:..\u8g2\csrc/u8x8_d_st75256.c ****   /* sck_clock_hz = */ 4000000UL,	/* since Arduino 1.6.0, the SPI bus speed in Hz. Should be  10000
 518:..\u8g2\csrc/u8x8_d_st75256.c ****   /* spi_mode = */ 0,		/* active high, rising edge */
 519:..\u8g2\csrc/u8x8_d_st75256.c ****   /* i2c_bus_clock_100kHz = */ 4,	/* 400KHz */
 520:..\u8g2\csrc/u8x8_d_st75256.c ****   /* data_setup_time_ns = */ 15,
 521:..\u8g2\csrc/u8x8_d_st75256.c ****   /* write_pulse_width_ns = */ 70,	
 522:..\u8g2\csrc/u8x8_d_st75256.c ****   /* tile_width = */ 32,
 523:..\u8g2\csrc/u8x8_d_st75256.c ****   /* tile_hight = */ 8,
 524:..\u8g2\csrc/u8x8_d_st75256.c ****   /* default_x_offset = */ 0,	/* must be 0, because this is checked also for normal mode */
 525:..\u8g2\csrc/u8x8_d_st75256.c ****   /* flipmode_x_offset = */ 13,		/* used as y offset */
 526:..\u8g2\csrc/u8x8_d_st75256.c ****   /* pixel_width = */ 256,
 527:..\u8g2\csrc/u8x8_d_st75256.c ****   /* pixel_height = */ 64
 528:..\u8g2\csrc/u8x8_d_st75256.c **** };
 529:..\u8g2\csrc/u8x8_d_st75256.c **** 
 530:..\u8g2\csrc/u8x8_d_st75256.c **** 
 531:..\u8g2\csrc/u8x8_d_st75256.c **** static const uint8_t u8x8_d_st75256_256x64_init_seq[] = {
 532:..\u8g2\csrc/u8x8_d_st75256.c ****   U8X8_START_TRANSFER(),             	/* enable chip, delay is part of the transfer start */
 533:..\u8g2\csrc/u8x8_d_st75256.c ****   
 534:..\u8g2\csrc/u8x8_d_st75256.c ****   U8X8_DLY(20),
 535:..\u8g2\csrc/u8x8_d_st75256.c **** 
 536:..\u8g2\csrc/u8x8_d_st75256.c ****   U8X8_C( 0x030 ),				/* select 00 commands */
 537:..\u8g2\csrc/u8x8_d_st75256.c ****   U8X8_C( 0x094 ),				/* sleep out */
 538:..\u8g2\csrc/u8x8_d_st75256.c **** 
 539:..\u8g2\csrc/u8x8_d_st75256.c ****   //U8X8_C( 0x030 ),				/* select 00 commands */
 540:..\u8g2\csrc/u8x8_d_st75256.c ****   U8X8_C( 0x0ae ),				/* display off */
 541:..\u8g2\csrc/u8x8_d_st75256.c **** 
 542:..\u8g2\csrc/u8x8_d_st75256.c ****   U8X8_C( 0x031 ),				/* select 01 commands */
 543:..\u8g2\csrc/u8x8_d_st75256.c ****   U8X8_CA( 0x0d7, 0x09f ),		/* disable auto read */  
 544:..\u8g2\csrc/u8x8_d_st75256.c **** 
 545:..\u8g2\csrc/u8x8_d_st75256.c ****   //U8X8_C( 0x031 ),				/* select 01 commands */
 546:..\u8g2\csrc/u8x8_d_st75256.c ****   U8X8_C( 0x032 ),				/* analog circuit set */
 547:..\u8g2\csrc/u8x8_d_st75256.c ****   U8X8_A( 0x000 ),				/* code example: OSC Frequency adjustment */
 548:..\u8g2\csrc/u8x8_d_st75256.c ****   U8X8_A( 0x001 ),				/* Frequency on booster capacitors 1 = 6KHz? */
 549:..\u8g2\csrc/u8x8_d_st75256.c ****   U8X8_A( 0x005 ),				/* Bias: 1: 1/13, 2: 1/12, 3: 1/11, 4:1/10, 5:1/9 */
 550:..\u8g2\csrc/u8x8_d_st75256.c ****     
 551:..\u8g2\csrc/u8x8_d_st75256.c ****   //U8X8_C( 0x031 ),				/* select 01 commands */
 552:..\u8g2\csrc/u8x8_d_st75256.c ****   U8X8_C( 0x020 ),				/* gray levels */
 553:..\u8g2\csrc/u8x8_d_st75256.c ****   U8X8_A( 0x01 ),
 554:..\u8g2\csrc/u8x8_d_st75256.c ****   U8X8_A( 0x03 ),
ARM GAS  C:\Users\brian\AppData\Local\Temp\cckfkOf3.s 			page 19


 555:..\u8g2\csrc/u8x8_d_st75256.c ****   U8X8_A( 0x05 ),
 556:..\u8g2\csrc/u8x8_d_st75256.c ****   U8X8_A( 0x07 ),
 557:..\u8g2\csrc/u8x8_d_st75256.c ****   U8X8_A( 0x09),
 558:..\u8g2\csrc/u8x8_d_st75256.c ****   U8X8_A( 0x0b ),
 559:..\u8g2\csrc/u8x8_d_st75256.c ****   U8X8_A( 0x0d ),
 560:..\u8g2\csrc/u8x8_d_st75256.c ****   U8X8_A( 0x10 ),
 561:..\u8g2\csrc/u8x8_d_st75256.c ****   U8X8_A( 0x11 ),
 562:..\u8g2\csrc/u8x8_d_st75256.c ****   U8X8_A( 0x13 ),
 563:..\u8g2\csrc/u8x8_d_st75256.c ****   U8X8_A( 0x15 ),
 564:..\u8g2\csrc/u8x8_d_st75256.c ****   U8X8_A( 0x17 ),
 565:..\u8g2\csrc/u8x8_d_st75256.c ****   U8X8_A( 0x19 ),
 566:..\u8g2\csrc/u8x8_d_st75256.c ****   U8X8_A( 0x1b ),
 567:..\u8g2\csrc/u8x8_d_st75256.c ****   U8X8_A( 0x1d ),
 568:..\u8g2\csrc/u8x8_d_st75256.c ****   U8X8_A( 0x1f ),
 569:..\u8g2\csrc/u8x8_d_st75256.c ****  
 570:..\u8g2\csrc/u8x8_d_st75256.c ****   
 571:..\u8g2\csrc/u8x8_d_st75256.c ****   U8X8_C( 0x030 ),				/* select 00 commands */
 572:..\u8g2\csrc/u8x8_d_st75256.c ****   U8X8_CAA(0x75, 0, 0x1f),		/* row range */
 573:..\u8g2\csrc/u8x8_d_st75256.c ****   U8X8_CAA(0x15, 0, 255),		/* col range */
 574:..\u8g2\csrc/u8x8_d_st75256.c ****   
 575:..\u8g2\csrc/u8x8_d_st75256.c ****   //U8X8_C( 0x030 ),				/* select 00 commands */
 576:..\u8g2\csrc/u8x8_d_st75256.c ****   U8X8_CA( 0xbc, 0x00 ),			/* data scan dir */
 577:..\u8g2\csrc/u8x8_d_st75256.c ****   U8X8_A( 0xa6 ),				/* ??? */
 578:..\u8g2\csrc/u8x8_d_st75256.c **** 
 579:..\u8g2\csrc/u8x8_d_st75256.c ****   //U8X8_C( 0x030 ),				/* select 00 commands */
 580:..\u8g2\csrc/u8x8_d_st75256.c ****   U8X8_C( 0x00c ),				/* data format LSB top */
 581:..\u8g2\csrc/u8x8_d_st75256.c **** 
 582:..\u8g2\csrc/u8x8_d_st75256.c ****   //U8X8_C( 0x030 ),				/* select 00 commands */ 
 583:..\u8g2\csrc/u8x8_d_st75256.c ****   U8X8_C( 0xca ),				/* display control, 3 args follow  */
 584:..\u8g2\csrc/u8x8_d_st75256.c ****   U8X8_A( 0x00 ),				/* 0x00: no clock division, 0x04: devide clock */
 585:..\u8g2\csrc/u8x8_d_st75256.c ****   U8X8_A( 0x3f ),				/* 64 duty value from the DS example code */
 586:..\u8g2\csrc/u8x8_d_st75256.c ****   U8X8_A( 0x20 ),				/* nline off */ 
 587:..\u8g2\csrc/u8x8_d_st75256.c **** 
 588:..\u8g2\csrc/u8x8_d_st75256.c ****   //U8X8_C( 0x030 ),				/* select 00 commands */ 
 589:..\u8g2\csrc/u8x8_d_st75256.c ****   U8X8_CA( 0x0f0, 0x010 ),		/* monochrome mode  = 0x010*/
 590:..\u8g2\csrc/u8x8_d_st75256.c **** 
 591:..\u8g2\csrc/u8x8_d_st75256.c ****   //U8X8_C( 0x030 ),				/* select 00 commands */
 592:..\u8g2\csrc/u8x8_d_st75256.c ****   U8X8_CAA( 0x81, 012, 0x02 ),	/* Volume control */
 593:..\u8g2\csrc/u8x8_d_st75256.c **** 
 594:..\u8g2\csrc/u8x8_d_st75256.c ****   //U8X8_C( 0x030 ),				/* select 00 commands */
 595:..\u8g2\csrc/u8x8_d_st75256.c ****   U8X8_CA( 0x020, 0x00b ),		/* Power control: Regulator, follower & booster on */
 596:..\u8g2\csrc/u8x8_d_st75256.c ****   U8X8_DLY(100),
 597:..\u8g2\csrc/u8x8_d_st75256.c **** 
 598:..\u8g2\csrc/u8x8_d_st75256.c ****   U8X8_END_TRANSFER(),             	/* disable chip */
 599:..\u8g2\csrc/u8x8_d_st75256.c ****   U8X8_END()             			/* end of sequence */
 600:..\u8g2\csrc/u8x8_d_st75256.c **** };
 601:..\u8g2\csrc/u8x8_d_st75256.c **** 
 602:..\u8g2\csrc/u8x8_d_st75256.c **** 
 603:..\u8g2\csrc/u8x8_d_st75256.c **** uint8_t u8x8_d_st75256_jlx25664(u8x8_t *u8x8, uint8_t msg, uint8_t arg_int, void *arg_ptr)
 604:..\u8g2\csrc/u8x8_d_st75256.c **** {
 436              		.loc 1 604 0
 437              		.cfi_startproc
 438              		@ args = 0, pretend = 0, frame = 0
 439              		@ frame_needed = 0, uses_anonymous_args = 0
 440              	.LVL54:
 441 0000 70B5     		push	{r4, r5, r6, lr}
 442              		.cfi_def_cfa_offset 16
ARM GAS  C:\Users\brian\AppData\Local\Temp\cckfkOf3.s 			page 20


 443              		.cfi_offset 4, -16
 444              		.cfi_offset 5, -12
 445              		.cfi_offset 6, -8
 446              		.cfi_offset 14, -4
 447 0002 0546     		mov	r5, r0
 448 0004 0C46     		mov	r4, r1
 449 0006 1646     		mov	r6, r2
 605:..\u8g2\csrc/u8x8_d_st75256.c ****   if ( u8x8_d_st75256_256x128_generic(u8x8, msg, arg_int, arg_ptr) != 0 )
 450              		.loc 1 605 0
 451 0008 FFF7FEFF 		bl	u8x8_d_st75256_256x128_generic
 452              	.LVL55:
 453 000c 50BB     		cbnz	r0, .L37
 454 000e 0346     		mov	r3, r0
 606:..\u8g2\csrc/u8x8_d_st75256.c ****     return 1;
 607:..\u8g2\csrc/u8x8_d_st75256.c ****   if ( msg == U8X8_MSG_DISPLAY_SETUP_MEMORY )
 455              		.loc 1 607 0
 456 0010 092C     		cmp	r4, #9
 457 0012 05D1     		bne	.L34
 608:..\u8g2\csrc/u8x8_d_st75256.c ****   {
 609:..\u8g2\csrc/u8x8_d_st75256.c ****     //u8x8_SetI2CAddress(u8x8, 0x078);		/* lowest I2C adr of the ST75256 */
 610:..\u8g2\csrc/u8x8_d_st75256.c ****     u8x8_d_helper_display_setup_memory(u8x8, &u8x8_st75256_256x64_display_info);
 458              		.loc 1 610 0
 459 0014 1549     		ldr	r1, .L39
 460 0016 2846     		mov	r0, r5
 461 0018 FFF7FEFF 		bl	u8x8_d_helper_display_setup_memory
 462              	.LVL56:
 611:..\u8g2\csrc/u8x8_d_st75256.c ****     return 1;
 463              		.loc 1 611 0
 464 001c 0123     		movs	r3, #1
 465 001e 22E0     		b	.L33
 466              	.L34:
 612:..\u8g2\csrc/u8x8_d_st75256.c ****   }
 613:..\u8g2\csrc/u8x8_d_st75256.c ****   else if ( msg == U8X8_MSG_DISPLAY_INIT )
 467              		.loc 1 613 0
 468 0020 0A2C     		cmp	r4, #10
 469 0022 08D1     		bne	.L35
 614:..\u8g2\csrc/u8x8_d_st75256.c ****   {
 615:..\u8g2\csrc/u8x8_d_st75256.c ****     u8x8_d_helper_display_init(u8x8);
 470              		.loc 1 615 0
 471 0024 2846     		mov	r0, r5
 472 0026 FFF7FEFF 		bl	u8x8_d_helper_display_init
 473              	.LVL57:
 616:..\u8g2\csrc/u8x8_d_st75256.c ****     u8x8_cad_SendSequence(u8x8, u8x8_d_st75256_256x64_init_seq);    
 474              		.loc 1 616 0
 475 002a 1149     		ldr	r1, .L39+4
 476 002c 2846     		mov	r0, r5
 477 002e FFF7FEFF 		bl	u8x8_cad_SendSequence
 478              	.LVL58:
 617:..\u8g2\csrc/u8x8_d_st75256.c ****     return 1;
 479              		.loc 1 617 0
 480 0032 0123     		movs	r3, #1
 481 0034 17E0     		b	.L33
 482              	.L35:
 618:..\u8g2\csrc/u8x8_d_st75256.c ****   }
 619:..\u8g2\csrc/u8x8_d_st75256.c ****   else if  ( msg == U8X8_MSG_DISPLAY_SET_FLIP_MODE )
 483              		.loc 1 619 0
 484 0036 0D2C     		cmp	r4, #13
ARM GAS  C:\Users\brian\AppData\Local\Temp\cckfkOf3.s 			page 21


 485 0038 15D1     		bne	.L33
 620:..\u8g2\csrc/u8x8_d_st75256.c ****   {
 621:..\u8g2\csrc/u8x8_d_st75256.c ****     if ( arg_int == 0 )
 486              		.loc 1 621 0
 487 003a 4EB9     		cbnz	r6, .L36
 622:..\u8g2\csrc/u8x8_d_st75256.c ****     {
 623:..\u8g2\csrc/u8x8_d_st75256.c ****       u8x8_cad_SendSequence(u8x8, u8x8_d_st75256_jlx256128_flip0_seq);
 488              		.loc 1 623 0
 489 003c 0D49     		ldr	r1, .L39+8
 490 003e 2846     		mov	r0, r5
 491 0040 FFF7FEFF 		bl	u8x8_cad_SendSequence
 492              	.LVL59:
 624:..\u8g2\csrc/u8x8_d_st75256.c ****       u8x8->x_offset = u8x8->display_info->default_x_offset;
 493              		.loc 1 624 0
 494 0044 2B68     		ldr	r3, [r5]
 495 0046 9B7C     		ldrb	r3, [r3, #18]	@ zero_extendqisi2
 496 0048 85F82230 		strb	r3, [r5, #34]
 625:..\u8g2\csrc/u8x8_d_st75256.c ****     }
 626:..\u8g2\csrc/u8x8_d_st75256.c ****     else
 627:..\u8g2\csrc/u8x8_d_st75256.c ****     {
 628:..\u8g2\csrc/u8x8_d_st75256.c ****       u8x8_cad_SendSequence(u8x8, u8x8_d_st75256_jlx256128_flip1_seq);
 629:..\u8g2\csrc/u8x8_d_st75256.c ****       u8x8->x_offset = u8x8->display_info->flipmode_x_offset;
 630:..\u8g2\csrc/u8x8_d_st75256.c ****     }
 631:..\u8g2\csrc/u8x8_d_st75256.c ****     return 1;
 497              		.loc 1 631 0
 498 004c 0123     		movs	r3, #1
 499 004e 0AE0     		b	.L33
 500              	.L36:
 628:..\u8g2\csrc/u8x8_d_st75256.c ****       u8x8->x_offset = u8x8->display_info->flipmode_x_offset;
 501              		.loc 1 628 0
 502 0050 0949     		ldr	r1, .L39+12
 503 0052 2846     		mov	r0, r5
 504 0054 FFF7FEFF 		bl	u8x8_cad_SendSequence
 505              	.LVL60:
 629:..\u8g2\csrc/u8x8_d_st75256.c ****     }
 506              		.loc 1 629 0
 507 0058 2B68     		ldr	r3, [r5]
 508 005a DB7C     		ldrb	r3, [r3, #19]	@ zero_extendqisi2
 509 005c 85F82230 		strb	r3, [r5, #34]
 510              		.loc 1 631 0
 511 0060 0123     		movs	r3, #1
 512 0062 00E0     		b	.L33
 513              	.L37:
 606:..\u8g2\csrc/u8x8_d_st75256.c ****   if ( msg == U8X8_MSG_DISPLAY_SETUP_MEMORY )
 514              		.loc 1 606 0
 515 0064 0123     		movs	r3, #1
 516              	.L33:
 632:..\u8g2\csrc/u8x8_d_st75256.c ****   }
 633:..\u8g2\csrc/u8x8_d_st75256.c ****   return 0;
 634:..\u8g2\csrc/u8x8_d_st75256.c **** }
 517              		.loc 1 634 0
 518 0066 1846     		mov	r0, r3
 519 0068 70BD     		pop	{r4, r5, r6, pc}
 520              	.LVL61:
 521              	.L40:
 522 006a 00BF     		.align	2
 523              	.L39:
ARM GAS  C:\Users\brian\AppData\Local\Temp\cckfkOf3.s 			page 22


 524 006c 60010000 		.word	.LANCHOR0+352
 525 0070 78010000 		.word	.LANCHOR0+376
 526 0074 9C000000 		.word	.LANCHOR0+156
 527 0078 AC000000 		.word	.LANCHOR0+172
 528              		.cfi_endproc
 529              	.LFE3:
 530              		.size	u8x8_d_st75256_jlx25664, .-u8x8_d_st75256_jlx25664
 531              		.section	.text.u8x8_d_st75256_jlx172104,"ax",%progbits
 532              		.align	2
 533              		.global	u8x8_d_st75256_jlx172104
 534              		.thumb
 535              		.thumb_func
 536              		.type	u8x8_d_st75256_jlx172104, %function
 537              	u8x8_d_st75256_jlx172104:
 538              	.LFB4:
 635:..\u8g2\csrc/u8x8_d_st75256.c **** 
 636:..\u8g2\csrc/u8x8_d_st75256.c **** 
 637:..\u8g2\csrc/u8x8_d_st75256.c **** /*=============================================*/
 638:..\u8g2\csrc/u8x8_d_st75256.c **** /* JLX172104 LCD */
 639:..\u8g2\csrc/u8x8_d_st75256.c **** 
 640:..\u8g2\csrc/u8x8_d_st75256.c **** static const u8x8_display_info_t u8x8_st75256_172x104_display_info =
 641:..\u8g2\csrc/u8x8_d_st75256.c **** {
 642:..\u8g2\csrc/u8x8_d_st75256.c ****   /* chip_enable_level = */ 0,
 643:..\u8g2\csrc/u8x8_d_st75256.c ****   /* chip_disable_level = */ 1,
 644:..\u8g2\csrc/u8x8_d_st75256.c ****   
 645:..\u8g2\csrc/u8x8_d_st75256.c ****   /* post_chip_enable_wait_ns = */ 20,
 646:..\u8g2\csrc/u8x8_d_st75256.c ****   /* pre_chip_disable_wait_ns = */ 20,
 647:..\u8g2\csrc/u8x8_d_st75256.c ****   /* reset_pulse_width_ms = */ 5, 	
 648:..\u8g2\csrc/u8x8_d_st75256.c ****   /* post_reset_wait_ms = */ 5, 		/**/
 649:..\u8g2\csrc/u8x8_d_st75256.c ****   /* sda_setup_time_ns = */ 20,		/* */
 650:..\u8g2\csrc/u8x8_d_st75256.c ****   /* sck_pulse_width_ns = */ 40,	/*  */
 651:..\u8g2\csrc/u8x8_d_st75256.c ****   /* sck_clock_hz = */ 4000000UL,	/* since Arduino 1.6.0, the SPI bus speed in Hz. Should be  10000
 652:..\u8g2\csrc/u8x8_d_st75256.c ****   /* spi_mode = */ 0,		/* active high, rising edge */
 653:..\u8g2\csrc/u8x8_d_st75256.c ****   /* i2c_bus_clock_100kHz = */ 4,	/* 400KHz */
 654:..\u8g2\csrc/u8x8_d_st75256.c ****   /* data_setup_time_ns = */ 15,
 655:..\u8g2\csrc/u8x8_d_st75256.c ****   /* write_pulse_width_ns = */ 70,	
 656:..\u8g2\csrc/u8x8_d_st75256.c ****   /* tile_width = */ 22,			/* 22=176 */
 657:..\u8g2\csrc/u8x8_d_st75256.c ****   /* tile_hight = */ 13,
 658:..\u8g2\csrc/u8x8_d_st75256.c ****   /* default_x_offset = */ 84,	/*  */
 659:..\u8g2\csrc/u8x8_d_st75256.c ****   /* flipmode_x_offset = */ 0,		
 660:..\u8g2\csrc/u8x8_d_st75256.c ****   /* pixel_width = */ 172,
 661:..\u8g2\csrc/u8x8_d_st75256.c ****   /* pixel_height = */ 104
 662:..\u8g2\csrc/u8x8_d_st75256.c **** };
 663:..\u8g2\csrc/u8x8_d_st75256.c **** 
 664:..\u8g2\csrc/u8x8_d_st75256.c **** static const uint8_t u8x8_d_st75256_jlx172104_init_seq[] = {
 665:..\u8g2\csrc/u8x8_d_st75256.c ****   U8X8_START_TRANSFER(),             	/* enable chip, delay is part of the transfer start */
 666:..\u8g2\csrc/u8x8_d_st75256.c ****   
 667:..\u8g2\csrc/u8x8_d_st75256.c ****   U8X8_DLY(20),
 668:..\u8g2\csrc/u8x8_d_st75256.c **** 
 669:..\u8g2\csrc/u8x8_d_st75256.c ****   U8X8_C( 0x030 ),				/* select 00 commands */
 670:..\u8g2\csrc/u8x8_d_st75256.c ****   U8X8_C( 0x094 ),				/* sleep out */
 671:..\u8g2\csrc/u8x8_d_st75256.c **** 
 672:..\u8g2\csrc/u8x8_d_st75256.c ****   //U8X8_C( 0x030 ),				/* select 00 commands */
 673:..\u8g2\csrc/u8x8_d_st75256.c ****   U8X8_C( 0x0ae ),				/* display off */
 674:..\u8g2\csrc/u8x8_d_st75256.c **** 
 675:..\u8g2\csrc/u8x8_d_st75256.c ****   U8X8_C( 0x031 ),				/* select 01 commands */
 676:..\u8g2\csrc/u8x8_d_st75256.c ****   U8X8_CA( 0x0d7, 0x09f ),		/* disable auto read */  
ARM GAS  C:\Users\brian\AppData\Local\Temp\cckfkOf3.s 			page 23


 677:..\u8g2\csrc/u8x8_d_st75256.c **** 
 678:..\u8g2\csrc/u8x8_d_st75256.c ****   //U8X8_C( 0x031 ),				/* select 01 commands */
 679:..\u8g2\csrc/u8x8_d_st75256.c ****   U8X8_C( 0x032 ),				/* analog circuit set */
 680:..\u8g2\csrc/u8x8_d_st75256.c ****   U8X8_A( 0x000 ),				/* code example: OSC Frequency adjustment */
 681:..\u8g2\csrc/u8x8_d_st75256.c ****   U8X8_A( 0x001 ),				/* Frequency on booster capacitors 1 = 6KHz? */
 682:..\u8g2\csrc/u8x8_d_st75256.c ****   U8X8_A( 0x003 ),				/* Bias: 1: 1/13, 2: 1/12, 3: 1/11, 4:1/10, 5:1/9 */
 683:..\u8g2\csrc/u8x8_d_st75256.c ****     
 684:..\u8g2\csrc/u8x8_d_st75256.c ****   //U8X8_C( 0x031 ),				/* select 01 commands */
 685:..\u8g2\csrc/u8x8_d_st75256.c ****   U8X8_C( 0x020 ),				/* gray levels */
 686:..\u8g2\csrc/u8x8_d_st75256.c ****   U8X8_A( 0x01 ),
 687:..\u8g2\csrc/u8x8_d_st75256.c ****   U8X8_A( 0x03 ),
 688:..\u8g2\csrc/u8x8_d_st75256.c ****   U8X8_A( 0x05 ),
 689:..\u8g2\csrc/u8x8_d_st75256.c ****   U8X8_A( 0x07 ),
 690:..\u8g2\csrc/u8x8_d_st75256.c ****   U8X8_A( 0x09),
 691:..\u8g2\csrc/u8x8_d_st75256.c ****   U8X8_A( 0x0b ),
 692:..\u8g2\csrc/u8x8_d_st75256.c ****   U8X8_A( 0x0d ),
 693:..\u8g2\csrc/u8x8_d_st75256.c ****   U8X8_A( 0x10 ),
 694:..\u8g2\csrc/u8x8_d_st75256.c ****   U8X8_A( 0x11 ),
 695:..\u8g2\csrc/u8x8_d_st75256.c ****   U8X8_A( 0x13 ),
 696:..\u8g2\csrc/u8x8_d_st75256.c ****   U8X8_A( 0x15 ),
 697:..\u8g2\csrc/u8x8_d_st75256.c ****   U8X8_A( 0x17 ),
 698:..\u8g2\csrc/u8x8_d_st75256.c ****   U8X8_A( 0x19 ),
 699:..\u8g2\csrc/u8x8_d_st75256.c ****   U8X8_A( 0x1b ),
 700:..\u8g2\csrc/u8x8_d_st75256.c ****   U8X8_A( 0x1d ),
 701:..\u8g2\csrc/u8x8_d_st75256.c ****   U8X8_A( 0x1f ),
 702:..\u8g2\csrc/u8x8_d_st75256.c ****  
 703:..\u8g2\csrc/u8x8_d_st75256.c ****   
 704:..\u8g2\csrc/u8x8_d_st75256.c ****   U8X8_C( 0x030 ),				/* select 00 commands */
 705:..\u8g2\csrc/u8x8_d_st75256.c ****   U8X8_CAA(0x75, 0, 0x4f),		/* row range */
 706:..\u8g2\csrc/u8x8_d_st75256.c ****   U8X8_CAA(0x15, 0, 255),		/* col range */
 707:..\u8g2\csrc/u8x8_d_st75256.c ****   
 708:..\u8g2\csrc/u8x8_d_st75256.c ****   //U8X8_C( 0x030 ),				/* select 00 commands */
 709:..\u8g2\csrc/u8x8_d_st75256.c ****   U8X8_CA( 0xbc, 0x02 ),			/* data scan dir */
 710:..\u8g2\csrc/u8x8_d_st75256.c ****   U8X8_A( 0xa6 ),				/* ??? */
 711:..\u8g2\csrc/u8x8_d_st75256.c **** 
 712:..\u8g2\csrc/u8x8_d_st75256.c ****   //U8X8_C( 0x030 ),				/* select 00 commands */
 713:..\u8g2\csrc/u8x8_d_st75256.c ****   U8X8_C( 0x00c ),				/* data format LSB top */
 714:..\u8g2\csrc/u8x8_d_st75256.c **** 
 715:..\u8g2\csrc/u8x8_d_st75256.c ****   //U8X8_C( 0x030 ),				/* select 00 commands */ 
 716:..\u8g2\csrc/u8x8_d_st75256.c ****   U8X8_C( 0xca ),				/* display control, 3 args follow  */
 717:..\u8g2\csrc/u8x8_d_st75256.c ****   U8X8_A( 0x00 ),				/* 0x00: no clock division, 0x04: devide clock */
 718:..\u8g2\csrc/u8x8_d_st75256.c ****   U8X8_A( 0x9f ),				/* 1/160 duty value from the DS example code */
 719:..\u8g2\csrc/u8x8_d_st75256.c ****   U8X8_A( 0x20 ),				/* nline off */ 
 720:..\u8g2\csrc/u8x8_d_st75256.c **** 
 721:..\u8g2\csrc/u8x8_d_st75256.c ****   //U8X8_C( 0x030 ),				/* select 00 commands */ 
 722:..\u8g2\csrc/u8x8_d_st75256.c ****   U8X8_CA( 0x0f0, 0x010 ),		/* monochrome mode  = 0x010*/
 723:..\u8g2\csrc/u8x8_d_st75256.c **** 
 724:..\u8g2\csrc/u8x8_d_st75256.c ****   //U8X8_C( 0x030 ),				/* select 00 commands */
 725:..\u8g2\csrc/u8x8_d_st75256.c ****   U8X8_CAA( 0x81, 0x08, 0x04 ),	/* Volume control */
 726:..\u8g2\csrc/u8x8_d_st75256.c **** 
 727:..\u8g2\csrc/u8x8_d_st75256.c ****   //U8X8_C( 0x030 ),				/* select 00 commands */
 728:..\u8g2\csrc/u8x8_d_st75256.c ****   U8X8_CA( 0x020, 0x00b ),		/* Power control: Regulator, follower & booster on */
 729:..\u8g2\csrc/u8x8_d_st75256.c ****   U8X8_DLY(100),
 730:..\u8g2\csrc/u8x8_d_st75256.c **** 
 731:..\u8g2\csrc/u8x8_d_st75256.c ****   U8X8_END_TRANSFER(),             	/* disable chip */
 732:..\u8g2\csrc/u8x8_d_st75256.c ****   U8X8_END()             			/* end of sequence */
 733:..\u8g2\csrc/u8x8_d_st75256.c **** };    
ARM GAS  C:\Users\brian\AppData\Local\Temp\cckfkOf3.s 			page 24


 734:..\u8g2\csrc/u8x8_d_st75256.c **** 
 735:..\u8g2\csrc/u8x8_d_st75256.c **** 
 736:..\u8g2\csrc/u8x8_d_st75256.c **** uint8_t u8x8_d_st75256_jlx172104(u8x8_t *u8x8, uint8_t msg, uint8_t arg_int, void *arg_ptr)
 737:..\u8g2\csrc/u8x8_d_st75256.c **** {
 539              		.loc 1 737 0
 540              		.cfi_startproc
 541              		@ args = 0, pretend = 0, frame = 0
 542              		@ frame_needed = 0, uses_anonymous_args = 0
 543              	.LVL62:
 544 0000 2DE9F041 		push	{r4, r5, r6, r7, r8, lr}
 545              		.cfi_def_cfa_offset 24
 546              		.cfi_offset 4, -24
 547              		.cfi_offset 5, -20
 548              		.cfi_offset 6, -16
 549              		.cfi_offset 7, -12
 550              		.cfi_offset 8, -8
 551              		.cfi_offset 14, -4
 552 0004 0646     		mov	r6, r0
 553 0006 1546     		mov	r5, r2
 554 0008 1F46     		mov	r7, r3
 738:..\u8g2\csrc/u8x8_d_st75256.c ****   uint8_t x, c;
 739:..\u8g2\csrc/u8x8_d_st75256.c ****   uint8_t *ptr;
 740:..\u8g2\csrc/u8x8_d_st75256.c **** 
 741:..\u8g2\csrc/u8x8_d_st75256.c ****   switch(msg)
 555              		.loc 1 741 0
 556 000a 0939     		subs	r1, r1, #9
 557              	.LVL63:
 558 000c 0629     		cmp	r1, #6
 559 000e 00F2A080 		bhi	.L56
 560 0012 DFE801F0 		tbb	[pc, r1]
 561              	.LVL64:
 562              	.L44:
 563 0016 53       		.byte	(.L43-.L44)/2
 564 0017 59       		.byte	(.L45-.L44)/2
 565 0018 62       		.byte	(.L46-.L44)/2
 566 0019 9E       		.byte	(.L56-.L44)/2
 567 001a 6F       		.byte	(.L47-.L44)/2
 568 001b 84       		.byte	(.L48-.L44)/2
 569 001c 04       		.byte	(.L49-.L44)/2
 570 001d 00       		.p2align 1
 571              	.L49:
 742:..\u8g2\csrc/u8x8_d_st75256.c ****   {
 743:..\u8g2\csrc/u8x8_d_st75256.c ****             case U8X8_MSG_DISPLAY_DRAW_TILE:
 744:..\u8g2\csrc/u8x8_d_st75256.c ****               
 745:..\u8g2\csrc/u8x8_d_st75256.c ****               u8x8_cad_StartTransfer(u8x8);
 572              		.loc 1 745 0
 573 001e FFF7FEFF 		bl	u8x8_cad_StartTransfer
 574              	.LVL65:
 746:..\u8g2\csrc/u8x8_d_st75256.c ****               x = ((u8x8_tile_t *)arg_ptr)->x_pos;    
 575              		.loc 1 746 0
 576 0022 7C79     		ldrb	r4, [r7, #5]	@ zero_extendqisi2
 577              	.LVL66:
 747:..\u8g2\csrc/u8x8_d_st75256.c ****               x *= 8;
 578              		.loc 1 747 0
 579 0024 E400     		lsls	r4, r4, #3
 580              	.LVL67:
 581 0026 5FFA84F8 		uxtb	r8, r4
ARM GAS  C:\Users\brian\AppData\Local\Temp\cckfkOf3.s 			page 25


 582              	.LVL68:
 748:..\u8g2\csrc/u8x8_d_st75256.c ****               
 749:..\u8g2\csrc/u8x8_d_st75256.c ****               u8x8_cad_SendCmd(u8x8, 0x030 );	/* select command set */
 583              		.loc 1 749 0
 584 002a 3021     		movs	r1, #48
 585 002c 3046     		mov	r0, r6
 586 002e FFF7FEFF 		bl	u8x8_cad_SendCmd
 587              	.LVL69:
 750:..\u8g2\csrc/u8x8_d_st75256.c ****               u8x8_cad_SendCmd(u8x8, 0x075 );	/* row */
 588              		.loc 1 750 0
 589 0032 7521     		movs	r1, #117
 590 0034 3046     		mov	r0, r6
 591 0036 FFF7FEFF 		bl	u8x8_cad_SendCmd
 592              	.LVL70:
 751:..\u8g2\csrc/u8x8_d_st75256.c **** 	      if ( u8x8->x_offset == 0 )		/* 0 means flip mode 1, then adjust y value */
 593              		.loc 1 751 0
 594 003a 96F82230 		ldrb	r3, [r6, #34]	@ zero_extendqisi2
 595 003e 33B9     		cbnz	r3, .L50
 752:..\u8g2\csrc/u8x8_d_st75256.c **** 		u8x8_cad_SendArg(u8x8, 8+(((u8x8_tile_t *)arg_ptr)->y_pos));
 596              		.loc 1 752 0
 597 0040 B979     		ldrb	r1, [r7, #6]	@ zero_extendqisi2
 598 0042 0831     		adds	r1, r1, #8
 599 0044 C9B2     		uxtb	r1, r1
 600 0046 3046     		mov	r0, r6
 601 0048 FFF7FEFF 		bl	u8x8_cad_SendArg
 602              	.LVL71:
 603 004c 03E0     		b	.L51
 604              	.L50:
 753:..\u8g2\csrc/u8x8_d_st75256.c **** 	      else
 754:..\u8g2\csrc/u8x8_d_st75256.c **** 		u8x8_cad_SendArg(u8x8, (((u8x8_tile_t *)arg_ptr)->y_pos));
 605              		.loc 1 754 0
 606 004e B979     		ldrb	r1, [r7, #6]	@ zero_extendqisi2
 607 0050 3046     		mov	r0, r6
 608 0052 FFF7FEFF 		bl	u8x8_cad_SendArg
 609              	.LVL72:
 610              	.L51:
 755:..\u8g2\csrc/u8x8_d_st75256.c ****               u8x8_cad_SendArg(u8x8, 0x04f);
 611              		.loc 1 755 0
 612 0056 4F21     		movs	r1, #79
 613 0058 3046     		mov	r0, r6
 614 005a FFF7FEFF 		bl	u8x8_cad_SendArg
 615              	.LVL73:
 756:..\u8g2\csrc/u8x8_d_st75256.c ****               //u8x8_cad_SendArg(u8x8, (((u8x8_tile_t *)arg_ptr)->y_pos));
 757:..\u8g2\csrc/u8x8_d_st75256.c ****               u8x8_cad_SendCmd(u8x8, 0x015 );	/* col */
 616              		.loc 1 757 0
 617 005e 1521     		movs	r1, #21
 618 0060 3046     		mov	r0, r6
 619 0062 FFF7FEFF 		bl	u8x8_cad_SendCmd
 620              	.LVL74:
 758:..\u8g2\csrc/u8x8_d_st75256.c ****               u8x8_cad_SendArg(u8x8, x+u8x8->x_offset);
 621              		.loc 1 758 0
 622 0066 96F82210 		ldrb	r1, [r6, #34]	@ zero_extendqisi2
 623 006a 4144     		add	r1, r1, r8
 624 006c C9B2     		uxtb	r1, r1
 625 006e 3046     		mov	r0, r6
 626 0070 FFF7FEFF 		bl	u8x8_cad_SendArg
 627              	.LVL75:
ARM GAS  C:\Users\brian\AppData\Local\Temp\cckfkOf3.s 			page 26


 759:..\u8g2\csrc/u8x8_d_st75256.c ****               u8x8_cad_SendArg(u8x8, 255);
 628              		.loc 1 759 0
 629 0074 FF21     		movs	r1, #255
 630 0076 3046     		mov	r0, r6
 631 0078 FFF7FEFF 		bl	u8x8_cad_SendArg
 632              	.LVL76:
 760:..\u8g2\csrc/u8x8_d_st75256.c ****               u8x8_cad_SendCmd(u8x8, 0x05c );	
 633              		.loc 1 760 0
 634 007c 5C21     		movs	r1, #92
 635 007e 3046     		mov	r0, r6
 636 0080 FFF7FEFF 		bl	u8x8_cad_SendCmd
 637              	.LVL77:
 638              	.L53:
 761:..\u8g2\csrc/u8x8_d_st75256.c ****             
 762:..\u8g2\csrc/u8x8_d_st75256.c ****               
 763:..\u8g2\csrc/u8x8_d_st75256.c ****               /* this procedure assumes, that the overall width is 172 */
 764:..\u8g2\csrc/u8x8_d_st75256.c ****               do
 765:..\u8g2\csrc/u8x8_d_st75256.c ****               {
 766:..\u8g2\csrc/u8x8_d_st75256.c ****                 c = ((u8x8_tile_t *)arg_ptr)->cnt;
 639              		.loc 1 766 0
 640 0084 3B79     		ldrb	r3, [r7, #4]	@ zero_extendqisi2
 641              	.LVL78:
 767:..\u8g2\csrc/u8x8_d_st75256.c ****                 ptr = ((u8x8_tile_t *)arg_ptr)->tile_ptr;
 642              		.loc 1 767 0
 643 0086 3A68     		ldr	r2, [r7]
 644              	.LVL79:
 768:..\u8g2\csrc/u8x8_d_st75256.c ****                 c *= 8;
 645              		.loc 1 768 0
 646 0088 DB00     		lsls	r3, r3, #3
 647              	.LVL80:
 648 008a DCB2     		uxtb	r4, r3
 649              	.LVL81:
 769:..\u8g2\csrc/u8x8_d_st75256.c **** 
 770:..\u8g2\csrc/u8x8_d_st75256.c ****                 if ( c + x > 172u )
 650              		.loc 1 770 0
 651 008c 04EB0803 		add	r3, r4, r8
 652 0090 AC2B     		cmp	r3, #172
 653 0092 02D9     		bls	.L52
 654              	.LVL82:
 771:..\u8g2\csrc/u8x8_d_st75256.c ****                 {
 772:..\u8g2\csrc/u8x8_d_st75256.c ****                         c = 172u;
 773:..\u8g2\csrc/u8x8_d_st75256.c ****                         c -= x;
 655              		.loc 1 773 0
 656 0094 C8F1AC03 		rsb	r3, r8, #172
 657 0098 DCB2     		uxtb	r4, r3
 658              	.LVL83:
 659              	.L52:
 774:..\u8g2\csrc/u8x8_d_st75256.c ****                 }
 775:..\u8g2\csrc/u8x8_d_st75256.c ****                       
 776:..\u8g2\csrc/u8x8_d_st75256.c ****                 u8x8_cad_SendData(u8x8, c, ptr); 	
 660              		.loc 1 776 0
 661 009a 2146     		mov	r1, r4
 662 009c 3046     		mov	r0, r6
 663 009e FFF7FEFF 		bl	u8x8_cad_SendData
 664              	.LVL84:
 777:..\u8g2\csrc/u8x8_d_st75256.c ****                 x += c;
 665              		.loc 1 777 0
ARM GAS  C:\Users\brian\AppData\Local\Temp\cckfkOf3.s 			page 27


 666 00a2 4444     		add	r4, r4, r8
 667              	.LVL85:
 668 00a4 5FFA84F8 		uxtb	r8, r4
 669              	.LVL86:
 778:..\u8g2\csrc/u8x8_d_st75256.c ****                 arg_int--;
 670              		.loc 1 778 0
 671 00a8 013D     		subs	r5, r5, #1
 672              	.LVL87:
 779:..\u8g2\csrc/u8x8_d_st75256.c ****               } while( arg_int > 0 );
 673              		.loc 1 779 0
 674 00aa 15F0FF05 		ands	r5, r5, #255
 675              	.LVL88:
 676 00ae E9D1     		bne	.L53
 780:..\u8g2\csrc/u8x8_d_st75256.c ****               
 781:..\u8g2\csrc/u8x8_d_st75256.c ****               u8x8_cad_EndTransfer(u8x8);
 677              		.loc 1 781 0
 678 00b0 3046     		mov	r0, r6
 679 00b2 FFF7FEFF 		bl	u8x8_cad_EndTransfer
 680              	.LVL89:
 782:..\u8g2\csrc/u8x8_d_st75256.c ****               return 1;
 681              		.loc 1 782 0
 682 00b6 0120     		movs	r0, #1
 683 00b8 BDE8F081 		pop	{r4, r5, r6, r7, r8, pc}
 684              	.LVL90:
 685              	.L43:
 783:..\u8g2\csrc/u8x8_d_st75256.c ****         case U8X8_MSG_DISPLAY_SETUP_MEMORY:
 784:..\u8g2\csrc/u8x8_d_st75256.c ****             //u8x8_SetI2CAddress(u8x8, 0x078);		/* lowest I2C adr of the ST75256 */
 785:..\u8g2\csrc/u8x8_d_st75256.c ****             u8x8_d_helper_display_setup_memory(u8x8, &u8x8_st75256_172x104_display_info);
 686              		.loc 1 785 0
 687 00bc 2649     		ldr	r1, .L58
 688 00be FFF7FEFF 		bl	u8x8_d_helper_display_setup_memory
 689              	.LVL91:
 786:..\u8g2\csrc/u8x8_d_st75256.c ****             return 1;
 690              		.loc 1 786 0
 691 00c2 0120     		movs	r0, #1
 692 00c4 BDE8F081 		pop	{r4, r5, r6, r7, r8, pc}
 693              	.LVL92:
 694              	.L45:
 787:..\u8g2\csrc/u8x8_d_st75256.c ****         case U8X8_MSG_DISPLAY_INIT:
 788:..\u8g2\csrc/u8x8_d_st75256.c ****             u8x8_d_helper_display_init(u8x8);
 695              		.loc 1 788 0
 696 00c8 FFF7FEFF 		bl	u8x8_d_helper_display_init
 697              	.LVL93:
 789:..\u8g2\csrc/u8x8_d_st75256.c ****             u8x8_cad_SendSequence(u8x8, u8x8_d_st75256_jlx172104_init_seq);
 698              		.loc 1 789 0
 699 00cc 2349     		ldr	r1, .L58+4
 700 00ce 3046     		mov	r0, r6
 701 00d0 FFF7FEFF 		bl	u8x8_cad_SendSequence
 702              	.LVL94:
 790:..\u8g2\csrc/u8x8_d_st75256.c ****             return 1;
 703              		.loc 1 790 0
 704 00d4 0120     		movs	r0, #1
 705 00d6 BDE8F081 		pop	{r4, r5, r6, r7, r8, pc}
 706              	.LVL95:
 707              	.L46:
 791:..\u8g2\csrc/u8x8_d_st75256.c ****         case U8X8_MSG_DISPLAY_SET_POWER_SAVE:
 792:..\u8g2\csrc/u8x8_d_st75256.c ****               if ( arg_int == 0 )
ARM GAS  C:\Users\brian\AppData\Local\Temp\cckfkOf3.s 			page 28


 708              		.loc 1 792 0
 709 00da 2AB9     		cbnz	r2, .L54
 793:..\u8g2\csrc/u8x8_d_st75256.c ****                 u8x8_cad_SendSequence(u8x8, u8x8_d_st75256_256x128_powersave0_seq);
 710              		.loc 1 793 0
 711 00dc 2049     		ldr	r1, .L58+8
 712 00de FFF7FEFF 		bl	u8x8_cad_SendSequence
 713              	.LVL96:
 794:..\u8g2\csrc/u8x8_d_st75256.c ****               else
 795:..\u8g2\csrc/u8x8_d_st75256.c ****                 u8x8_cad_SendSequence(u8x8, u8x8_d_st75256_256x128_powersave1_seq);
 796:..\u8g2\csrc/u8x8_d_st75256.c **** 
 797:..\u8g2\csrc/u8x8_d_st75256.c ****               return 1;
 714              		.loc 1 797 0
 715 00e2 0120     		movs	r0, #1
 716 00e4 BDE8F081 		pop	{r4, r5, r6, r7, r8, pc}
 717              	.LVL97:
 718              	.L54:
 795:..\u8g2\csrc/u8x8_d_st75256.c **** 
 719              		.loc 1 795 0
 720 00e8 1E49     		ldr	r1, .L58+12
 721 00ea FFF7FEFF 		bl	u8x8_cad_SendSequence
 722              	.LVL98:
 723              		.loc 1 797 0
 724 00ee 0120     		movs	r0, #1
 725 00f0 BDE8F081 		pop	{r4, r5, r6, r7, r8, pc}
 726              	.LVL99:
 727              	.L47:
 798:..\u8g2\csrc/u8x8_d_st75256.c **** 	case U8X8_MSG_DISPLAY_SET_FLIP_MODE:
 799:..\u8g2\csrc/u8x8_d_st75256.c **** 	    if ( arg_int == 0 )
 728              		.loc 1 799 0
 729 00f4 4AB9     		cbnz	r2, .L55
 800:..\u8g2\csrc/u8x8_d_st75256.c **** 	    {
 801:..\u8g2\csrc/u8x8_d_st75256.c **** 	      u8x8_cad_SendSequence(u8x8, u8x8_d_st75256_jlx172104_flip0_seq);
 730              		.loc 1 801 0
 731 00f6 1C49     		ldr	r1, .L58+16
 732 00f8 FFF7FEFF 		bl	u8x8_cad_SendSequence
 733              	.LVL100:
 802:..\u8g2\csrc/u8x8_d_st75256.c **** 	      u8x8->x_offset = u8x8->display_info->default_x_offset;
 734              		.loc 1 802 0
 735 00fc 3368     		ldr	r3, [r6]
 736 00fe 9B7C     		ldrb	r3, [r3, #18]	@ zero_extendqisi2
 737 0100 86F82230 		strb	r3, [r6, #34]
 803:..\u8g2\csrc/u8x8_d_st75256.c **** 	    }
 804:..\u8g2\csrc/u8x8_d_st75256.c **** 	    else
 805:..\u8g2\csrc/u8x8_d_st75256.c **** 	    {
 806:..\u8g2\csrc/u8x8_d_st75256.c **** 	      u8x8_cad_SendSequence(u8x8, u8x8_d_st75256_jlx172104_flip1_seq); 
 807:..\u8g2\csrc/u8x8_d_st75256.c **** 	      u8x8->x_offset = u8x8->display_info->flipmode_x_offset;
 808:..\u8g2\csrc/u8x8_d_st75256.c **** 	    }
 809:..\u8g2\csrc/u8x8_d_st75256.c **** 	    return 1;
 738              		.loc 1 809 0
 739 0104 0120     		movs	r0, #1
 740 0106 BDE8F081 		pop	{r4, r5, r6, r7, r8, pc}
 741              	.LVL101:
 742              	.L55:
 806:..\u8g2\csrc/u8x8_d_st75256.c **** 	      u8x8->x_offset = u8x8->display_info->flipmode_x_offset;
 743              		.loc 1 806 0
 744 010a 1849     		ldr	r1, .L58+20
 745 010c FFF7FEFF 		bl	u8x8_cad_SendSequence
ARM GAS  C:\Users\brian\AppData\Local\Temp\cckfkOf3.s 			page 29


 746              	.LVL102:
 807:..\u8g2\csrc/u8x8_d_st75256.c **** 	    }
 747              		.loc 1 807 0
 748 0110 3368     		ldr	r3, [r6]
 749 0112 DB7C     		ldrb	r3, [r3, #19]	@ zero_extendqisi2
 750 0114 86F82230 		strb	r3, [r6, #34]
 751              		.loc 1 809 0
 752 0118 0120     		movs	r0, #1
 753 011a BDE8F081 		pop	{r4, r5, r6, r7, r8, pc}
 754              	.LVL103:
 755              	.L48:
 810:..\u8g2\csrc/u8x8_d_st75256.c **** 		
 811:..\u8g2\csrc/u8x8_d_st75256.c **** #ifdef U8X8_WITH_SET_CONTRAST
 812:..\u8g2\csrc/u8x8_d_st75256.c ****         case U8X8_MSG_DISPLAY_SET_CONTRAST:
 813:..\u8g2\csrc/u8x8_d_st75256.c **** 
 814:..\u8g2\csrc/u8x8_d_st75256.c ****               u8x8_cad_StartTransfer(u8x8);
 756              		.loc 1 814 0
 757 011e FFF7FEFF 		bl	u8x8_cad_StartTransfer
 758              	.LVL104:
 815:..\u8g2\csrc/u8x8_d_st75256.c ****               
 816:..\u8g2\csrc/u8x8_d_st75256.c ****               u8x8_cad_SendCmd(u8x8, 0x030 );
 759              		.loc 1 816 0
 760 0122 3021     		movs	r1, #48
 761 0124 3046     		mov	r0, r6
 762 0126 FFF7FEFF 		bl	u8x8_cad_SendCmd
 763              	.LVL105:
 817:..\u8g2\csrc/u8x8_d_st75256.c ****               u8x8_cad_SendCmd(u8x8, 0x081 );  /* there are 9 bit for the volume control */
 764              		.loc 1 817 0
 765 012a 8121     		movs	r1, #129
 766 012c 3046     		mov	r0, r6
 767 012e FFF7FEFF 		bl	u8x8_cad_SendCmd
 768              	.LVL106:
 818:..\u8g2\csrc/u8x8_d_st75256.c ****               u8x8_cad_SendArg(u8x8, (arg_int & 0x1f)<<1 );	/* lower 6 bit */
 769              		.loc 1 818 0
 770 0132 6900     		lsls	r1, r5, #1
 771 0134 01F03E01 		and	r1, r1, #62
 772 0138 3046     		mov	r0, r6
 773 013a FFF7FEFF 		bl	u8x8_cad_SendArg
 774              	.LVL107:
 819:..\u8g2\csrc/u8x8_d_st75256.c ****               u8x8_cad_SendArg(u8x8, (arg_int>>5));		/* upper 3 bit */
 775              		.loc 1 819 0
 776 013e 6909     		lsrs	r1, r5, #5
 777 0140 3046     		mov	r0, r6
 778 0142 FFF7FEFF 		bl	u8x8_cad_SendArg
 779              	.LVL108:
 820:..\u8g2\csrc/u8x8_d_st75256.c ****               
 821:..\u8g2\csrc/u8x8_d_st75256.c ****               u8x8_cad_EndTransfer(u8x8);
 780              		.loc 1 821 0
 781 0146 3046     		mov	r0, r6
 782 0148 FFF7FEFF 		bl	u8x8_cad_EndTransfer
 783              	.LVL109:
 822:..\u8g2\csrc/u8x8_d_st75256.c ****               return 1;
 784              		.loc 1 822 0
 785 014c 0120     		movs	r0, #1
 786 014e BDE8F081 		pop	{r4, r5, r6, r7, r8, pc}
 787              	.LVL110:
 788              	.L56:
ARM GAS  C:\Users\brian\AppData\Local\Temp\cckfkOf3.s 			page 30


 823:..\u8g2\csrc/u8x8_d_st75256.c **** #endif
 824:..\u8g2\csrc/u8x8_d_st75256.c ****   }
 825:..\u8g2\csrc/u8x8_d_st75256.c ****   return 0;
 789              		.loc 1 825 0
 790 0152 0020     		movs	r0, #0
 791              	.LVL111:
 826:..\u8g2\csrc/u8x8_d_st75256.c **** }
 792              		.loc 1 826 0
 793 0154 BDE8F081 		pop	{r4, r5, r6, r7, r8, pc}
 794              	.LVL112:
 795              	.L59:
 796              		.align	2
 797              	.L58:
 798 0158 E4010000 		.word	.LANCHOR0+484
 799 015c FC010000 		.word	.LANCHOR0+508
 800 0160 00000000 		.word	.LANCHOR0
 801 0164 0C000000 		.word	.LANCHOR0+12
 802 0168 50010000 		.word	.LANCHOR0+336
 803 016c 40010000 		.word	.LANCHOR0+320
 804              		.cfi_endproc
 805              	.LFE4:
 806              		.size	u8x8_d_st75256_jlx172104, .-u8x8_d_st75256_jlx172104
 807              		.section	.text.u8x8_d_st75256_jlx240160,"ax",%progbits
 808              		.align	2
 809              		.global	u8x8_d_st75256_jlx240160
 810              		.thumb
 811              		.thumb_func
 812              		.type	u8x8_d_st75256_jlx240160, %function
 813              	u8x8_d_st75256_jlx240160:
 814              	.LFB5:
 827:..\u8g2\csrc/u8x8_d_st75256.c **** 
 828:..\u8g2\csrc/u8x8_d_st75256.c **** /*=============================================*/
 829:..\u8g2\csrc/u8x8_d_st75256.c **** /* JLX240160 */
 830:..\u8g2\csrc/u8x8_d_st75256.c **** 
 831:..\u8g2\csrc/u8x8_d_st75256.c **** static const u8x8_display_info_t u8x8_st75256_240x160_display_info =
 832:..\u8g2\csrc/u8x8_d_st75256.c **** {
 833:..\u8g2\csrc/u8x8_d_st75256.c ****   /* chip_enable_level = */ 0,
 834:..\u8g2\csrc/u8x8_d_st75256.c ****   /* chip_disable_level = */ 1,
 835:..\u8g2\csrc/u8x8_d_st75256.c ****   
 836:..\u8g2\csrc/u8x8_d_st75256.c ****   /* post_chip_enable_wait_ns = */ 20,
 837:..\u8g2\csrc/u8x8_d_st75256.c ****   /* pre_chip_disable_wait_ns = */ 20,
 838:..\u8g2\csrc/u8x8_d_st75256.c ****   /* reset_pulse_width_ms = */ 5, 	
 839:..\u8g2\csrc/u8x8_d_st75256.c ****   /* post_reset_wait_ms = */ 5, 		/**/
 840:..\u8g2\csrc/u8x8_d_st75256.c ****   /* sda_setup_time_ns = */ 20,		/* */
 841:..\u8g2\csrc/u8x8_d_st75256.c ****   /* sck_pulse_width_ns = */ 40,	/*  */
 842:..\u8g2\csrc/u8x8_d_st75256.c ****   /* sck_clock_hz = */ 4000000UL,	/* since Arduino 1.6.0, the SPI bus speed in Hz. Should be  10000
 843:..\u8g2\csrc/u8x8_d_st75256.c ****   /* spi_mode = */ 0,		/* active high, rising edge */
 844:..\u8g2\csrc/u8x8_d_st75256.c ****   /* i2c_bus_clock_100kHz = */ 4,	/* 400KHz */
 845:..\u8g2\csrc/u8x8_d_st75256.c ****   /* data_setup_time_ns = */ 15,
 846:..\u8g2\csrc/u8x8_d_st75256.c ****   /* write_pulse_width_ns = */ 70,	
 847:..\u8g2\csrc/u8x8_d_st75256.c ****   /* tile_width = */ 30,
 848:..\u8g2\csrc/u8x8_d_st75256.c ****   /* tile_hight = */ 20,
 849:..\u8g2\csrc/u8x8_d_st75256.c ****   /* default_x_offset = */ 16,	/*  x offset in flipmode 0 */
 850:..\u8g2\csrc/u8x8_d_st75256.c ****   /* flipmode_x_offset = */ 0,		/* */
 851:..\u8g2\csrc/u8x8_d_st75256.c ****   /* pixel_width = */ 240,
 852:..\u8g2\csrc/u8x8_d_st75256.c ****   /* pixel_height = */ 160
 853:..\u8g2\csrc/u8x8_d_st75256.c **** };
ARM GAS  C:\Users\brian\AppData\Local\Temp\cckfkOf3.s 			page 31


 854:..\u8g2\csrc/u8x8_d_st75256.c **** 
 855:..\u8g2\csrc/u8x8_d_st75256.c **** 
 856:..\u8g2\csrc/u8x8_d_st75256.c **** static const uint8_t u8x8_d_st75256_240x160_init_seq[] = {
 857:..\u8g2\csrc/u8x8_d_st75256.c ****   U8X8_START_TRANSFER(),             	/* enable chip, delay is part of the transfer start */
 858:..\u8g2\csrc/u8x8_d_st75256.c ****   
 859:..\u8g2\csrc/u8x8_d_st75256.c ****   U8X8_DLY(20),
 860:..\u8g2\csrc/u8x8_d_st75256.c **** 
 861:..\u8g2\csrc/u8x8_d_st75256.c ****   U8X8_C( 0x030 ),				/* select 00 commands */
 862:..\u8g2\csrc/u8x8_d_st75256.c ****   U8X8_C( 0x094 ),				/* sleep out */
 863:..\u8g2\csrc/u8x8_d_st75256.c **** 
 864:..\u8g2\csrc/u8x8_d_st75256.c ****   //U8X8_C( 0x030 ),				/* select 00 commands */
 865:..\u8g2\csrc/u8x8_d_st75256.c ****   U8X8_C( 0x0ae ),				/* display off */
 866:..\u8g2\csrc/u8x8_d_st75256.c **** 
 867:..\u8g2\csrc/u8x8_d_st75256.c ****   U8X8_C( 0x031 ),				/* select 01 commands */
 868:..\u8g2\csrc/u8x8_d_st75256.c ****   U8X8_CA( 0x0d7, 0x09f ),		/* disable auto read */  
 869:..\u8g2\csrc/u8x8_d_st75256.c **** 
 870:..\u8g2\csrc/u8x8_d_st75256.c ****   //U8X8_C( 0x031 ),				/* select 01 commands */
 871:..\u8g2\csrc/u8x8_d_st75256.c ****   U8X8_C( 0x032 ),				/* analog circuit set */
 872:..\u8g2\csrc/u8x8_d_st75256.c ****   U8X8_A( 0x000 ),				/* code example: OSC Frequency adjustment */
 873:..\u8g2\csrc/u8x8_d_st75256.c ****   U8X8_A( 0x001 ),				/* Frequency on booster capacitors 1 = 6KHz? */
 874:..\u8g2\csrc/u8x8_d_st75256.c ****   U8X8_A( 0x000 ),				/* Bias: 1: 1/13, 2: 1/12, 3: 1/11, 4:1/10, 5:1/9 */
 875:..\u8g2\csrc/u8x8_d_st75256.c ****     
 876:..\u8g2\csrc/u8x8_d_st75256.c ****   //U8X8_C( 0x031 ),				/* select 01 commands */
 877:..\u8g2\csrc/u8x8_d_st75256.c ****   U8X8_C( 0x020 ),				/* gray levels */
 878:..\u8g2\csrc/u8x8_d_st75256.c ****   U8X8_A( 0x01 ),
 879:..\u8g2\csrc/u8x8_d_st75256.c ****   U8X8_A( 0x03 ),
 880:..\u8g2\csrc/u8x8_d_st75256.c ****   U8X8_A( 0x05 ),
 881:..\u8g2\csrc/u8x8_d_st75256.c ****   U8X8_A( 0x07 ),
 882:..\u8g2\csrc/u8x8_d_st75256.c ****   U8X8_A( 0x09),
 883:..\u8g2\csrc/u8x8_d_st75256.c ****   U8X8_A( 0x0b ),
 884:..\u8g2\csrc/u8x8_d_st75256.c ****   U8X8_A( 0x0d ),
 885:..\u8g2\csrc/u8x8_d_st75256.c ****   U8X8_A( 0x10 ),
 886:..\u8g2\csrc/u8x8_d_st75256.c ****   U8X8_A( 0x11 ),
 887:..\u8g2\csrc/u8x8_d_st75256.c ****   U8X8_A( 0x13 ),
 888:..\u8g2\csrc/u8x8_d_st75256.c ****   U8X8_A( 0x15 ),
 889:..\u8g2\csrc/u8x8_d_st75256.c ****   U8X8_A( 0x17 ),
 890:..\u8g2\csrc/u8x8_d_st75256.c ****   U8X8_A( 0x19 ),
 891:..\u8g2\csrc/u8x8_d_st75256.c ****   U8X8_A( 0x1b ),
 892:..\u8g2\csrc/u8x8_d_st75256.c ****   U8X8_A( 0x1d ),
 893:..\u8g2\csrc/u8x8_d_st75256.c ****   U8X8_A( 0x1f ),
 894:..\u8g2\csrc/u8x8_d_st75256.c ****  
 895:..\u8g2\csrc/u8x8_d_st75256.c ****   
 896:..\u8g2\csrc/u8x8_d_st75256.c ****   U8X8_C( 0x030 ),				/* select 00 commands */
 897:..\u8g2\csrc/u8x8_d_st75256.c ****   U8X8_CAA(0x75, 0, 0x4f),		/* row range */
 898:..\u8g2\csrc/u8x8_d_st75256.c ****   U8X8_CAA(0x15, 0, 239),		/* col range */
 899:..\u8g2\csrc/u8x8_d_st75256.c ****   
 900:..\u8g2\csrc/u8x8_d_st75256.c ****   //U8X8_C( 0x030 ),				/* select 00 commands */
 901:..\u8g2\csrc/u8x8_d_st75256.c ****   U8X8_CA( 0xbc, 0x02 ),			/* data scan dir */
 902:..\u8g2\csrc/u8x8_d_st75256.c ****   U8X8_A( 0xa6 ),				/* ??? */
 903:..\u8g2\csrc/u8x8_d_st75256.c **** 
 904:..\u8g2\csrc/u8x8_d_st75256.c ****   //U8X8_C( 0x030 ),				/* select 00 commands */
 905:..\u8g2\csrc/u8x8_d_st75256.c ****   U8X8_C( 0x00c ),				/* data format LSB top */
 906:..\u8g2\csrc/u8x8_d_st75256.c **** 
 907:..\u8g2\csrc/u8x8_d_st75256.c ****   //U8X8_C( 0x030 ),				/* select 00 commands */ 
 908:..\u8g2\csrc/u8x8_d_st75256.c ****   U8X8_C( 0xca ),				/* display control, 3 args follow  */
 909:..\u8g2\csrc/u8x8_d_st75256.c ****   U8X8_A( 0x00 ),				/* 0x00: no clock division, 0x04: devide clock */
 910:..\u8g2\csrc/u8x8_d_st75256.c ****   U8X8_A( 159 ),				/* 1/160 duty value from the DS example code */
ARM GAS  C:\Users\brian\AppData\Local\Temp\cckfkOf3.s 			page 32


 911:..\u8g2\csrc/u8x8_d_st75256.c ****   U8X8_A( 0x20 ),				/* nline off */ 
 912:..\u8g2\csrc/u8x8_d_st75256.c **** 
 913:..\u8g2\csrc/u8x8_d_st75256.c ****   //U8X8_C( 0x030 ),				/* select 00 commands */ 
 914:..\u8g2\csrc/u8x8_d_st75256.c ****   U8X8_CA( 0x0f0, 0x010 ),		/* monochrome mode  = 0x010*/
 915:..\u8g2\csrc/u8x8_d_st75256.c **** 
 916:..\u8g2\csrc/u8x8_d_st75256.c ****   //U8X8_C( 0x030 ),				/* select 00 commands */
 917:..\u8g2\csrc/u8x8_d_st75256.c ****   U8X8_CAA( 0x81, 0x18, 0x04 ),	/* Volume control */
 918:..\u8g2\csrc/u8x8_d_st75256.c **** 
 919:..\u8g2\csrc/u8x8_d_st75256.c ****   //U8X8_C( 0x030 ),				/* select 00 commands */
 920:..\u8g2\csrc/u8x8_d_st75256.c ****   U8X8_CA( 0x020, 0x00b ),		/* Power control: Regulator, follower & booster on */
 921:..\u8g2\csrc/u8x8_d_st75256.c ****   U8X8_DLY(100),
 922:..\u8g2\csrc/u8x8_d_st75256.c **** 
 923:..\u8g2\csrc/u8x8_d_st75256.c ****   U8X8_END_TRANSFER(),             	/* disable chip */
 924:..\u8g2\csrc/u8x8_d_st75256.c ****   U8X8_END()             			/* end of sequence */
 925:..\u8g2\csrc/u8x8_d_st75256.c **** };
 926:..\u8g2\csrc/u8x8_d_st75256.c **** 
 927:..\u8g2\csrc/u8x8_d_st75256.c **** 
 928:..\u8g2\csrc/u8x8_d_st75256.c **** uint8_t u8x8_d_st75256_jlx240160(u8x8_t *u8x8, uint8_t msg, uint8_t arg_int, void *arg_ptr)
 929:..\u8g2\csrc/u8x8_d_st75256.c **** {
 815              		.loc 1 929 0
 816              		.cfi_startproc
 817              		@ args = 0, pretend = 0, frame = 0
 818              		@ frame_needed = 0, uses_anonymous_args = 0
 819              	.LVL113:
 820 0000 2DE9F041 		push	{r4, r5, r6, r7, r8, lr}
 821              		.cfi_def_cfa_offset 24
 822              		.cfi_offset 4, -24
 823              		.cfi_offset 5, -20
 824              		.cfi_offset 6, -16
 825              		.cfi_offset 7, -12
 826              		.cfi_offset 8, -8
 827              		.cfi_offset 14, -4
 828 0004 0646     		mov	r6, r0
 829 0006 1546     		mov	r5, r2
 830 0008 1F46     		mov	r7, r3
 930:..\u8g2\csrc/u8x8_d_st75256.c ****   uint8_t x, c;
 931:..\u8g2\csrc/u8x8_d_st75256.c ****   uint8_t *ptr;
 932:..\u8g2\csrc/u8x8_d_st75256.c **** 
 933:..\u8g2\csrc/u8x8_d_st75256.c ****   switch(msg)
 831              		.loc 1 933 0
 832 000a 0939     		subs	r1, r1, #9
 833              	.LVL114:
 834 000c 0629     		cmp	r1, #6
 835 000e 00F2A080 		bhi	.L75
 836 0012 DFE801F0 		tbb	[pc, r1]
 837              	.LVL115:
 838              	.L63:
 839 0016 53       		.byte	(.L62-.L63)/2
 840 0017 59       		.byte	(.L64-.L63)/2
 841 0018 62       		.byte	(.L65-.L63)/2
 842 0019 9E       		.byte	(.L75-.L63)/2
 843 001a 6F       		.byte	(.L66-.L63)/2
 844 001b 84       		.byte	(.L67-.L63)/2
 845 001c 04       		.byte	(.L68-.L63)/2
 846 001d 00       		.p2align 1
 847              	.L68:
 934:..\u8g2\csrc/u8x8_d_st75256.c ****   {
ARM GAS  C:\Users\brian\AppData\Local\Temp\cckfkOf3.s 			page 33


 935:..\u8g2\csrc/u8x8_d_st75256.c ****             case U8X8_MSG_DISPLAY_DRAW_TILE:
 936:..\u8g2\csrc/u8x8_d_st75256.c ****               
 937:..\u8g2\csrc/u8x8_d_st75256.c ****               u8x8_cad_StartTransfer(u8x8);
 848              		.loc 1 937 0
 849 001e FFF7FEFF 		bl	u8x8_cad_StartTransfer
 850              	.LVL116:
 938:..\u8g2\csrc/u8x8_d_st75256.c ****               x = ((u8x8_tile_t *)arg_ptr)->x_pos;    
 851              		.loc 1 938 0
 852 0022 7C79     		ldrb	r4, [r7, #5]	@ zero_extendqisi2
 853              	.LVL117:
 939:..\u8g2\csrc/u8x8_d_st75256.c ****               x *= 8;
 854              		.loc 1 939 0
 855 0024 E400     		lsls	r4, r4, #3
 856              	.LVL118:
 857 0026 5FFA84F8 		uxtb	r8, r4
 858              	.LVL119:
 940:..\u8g2\csrc/u8x8_d_st75256.c ****               
 941:..\u8g2\csrc/u8x8_d_st75256.c ****               u8x8_cad_SendCmd(u8x8, 0x030 );	/* select command set */
 859              		.loc 1 941 0
 860 002a 3021     		movs	r1, #48
 861 002c 3046     		mov	r0, r6
 862 002e FFF7FEFF 		bl	u8x8_cad_SendCmd
 863              	.LVL120:
 942:..\u8g2\csrc/u8x8_d_st75256.c ****               u8x8_cad_SendCmd(u8x8, 0x075 );	/* row */
 864              		.loc 1 942 0
 865 0032 7521     		movs	r1, #117
 866 0034 3046     		mov	r0, r6
 867 0036 FFF7FEFF 		bl	u8x8_cad_SendCmd
 868              	.LVL121:
 943:..\u8g2\csrc/u8x8_d_st75256.c **** 	      if ( u8x8->x_offset == 0 )		/* 0 means flip mode 1 */
 869              		.loc 1 943 0
 870 003a 96F82230 		ldrb	r3, [r6, #34]	@ zero_extendqisi2
 871 003e 33B9     		cbnz	r3, .L69
 944:..\u8g2\csrc/u8x8_d_st75256.c **** 		u8x8_cad_SendArg(u8x8, 1+(((u8x8_tile_t *)arg_ptr)->y_pos));
 872              		.loc 1 944 0
 873 0040 B979     		ldrb	r1, [r7, #6]	@ zero_extendqisi2
 874 0042 0131     		adds	r1, r1, #1
 875 0044 C9B2     		uxtb	r1, r1
 876 0046 3046     		mov	r0, r6
 877 0048 FFF7FEFF 		bl	u8x8_cad_SendArg
 878              	.LVL122:
 879 004c 03E0     		b	.L70
 880              	.L69:
 945:..\u8g2\csrc/u8x8_d_st75256.c **** 	      else
 946:..\u8g2\csrc/u8x8_d_st75256.c **** 		u8x8_cad_SendArg(u8x8, (((u8x8_tile_t *)arg_ptr)->y_pos));
 881              		.loc 1 946 0
 882 004e B979     		ldrb	r1, [r7, #6]	@ zero_extendqisi2
 883 0050 3046     		mov	r0, r6
 884 0052 FFF7FEFF 		bl	u8x8_cad_SendArg
 885              	.LVL123:
 886              	.L70:
 947:..\u8g2\csrc/u8x8_d_st75256.c ****               u8x8_cad_SendArg(u8x8, 0x04f);
 887              		.loc 1 947 0
 888 0056 4F21     		movs	r1, #79
 889 0058 3046     		mov	r0, r6
 890 005a FFF7FEFF 		bl	u8x8_cad_SendArg
 891              	.LVL124:
ARM GAS  C:\Users\brian\AppData\Local\Temp\cckfkOf3.s 			page 34


 948:..\u8g2\csrc/u8x8_d_st75256.c ****               //u8x8_cad_SendArg(u8x8, (((u8x8_tile_t *)arg_ptr)->y_pos));
 949:..\u8g2\csrc/u8x8_d_st75256.c ****               u8x8_cad_SendCmd(u8x8, 0x015 );	/* col */
 892              		.loc 1 949 0
 893 005e 1521     		movs	r1, #21
 894 0060 3046     		mov	r0, r6
 895 0062 FFF7FEFF 		bl	u8x8_cad_SendCmd
 896              	.LVL125:
 950:..\u8g2\csrc/u8x8_d_st75256.c ****               u8x8_cad_SendArg(u8x8, x+u8x8->x_offset);
 897              		.loc 1 950 0
 898 0066 96F82210 		ldrb	r1, [r6, #34]	@ zero_extendqisi2
 899 006a 4144     		add	r1, r1, r8
 900 006c C9B2     		uxtb	r1, r1
 901 006e 3046     		mov	r0, r6
 902 0070 FFF7FEFF 		bl	u8x8_cad_SendArg
 903              	.LVL126:
 951:..\u8g2\csrc/u8x8_d_st75256.c ****               u8x8_cad_SendArg(u8x8, 255);
 904              		.loc 1 951 0
 905 0074 FF21     		movs	r1, #255
 906 0076 3046     		mov	r0, r6
 907 0078 FFF7FEFF 		bl	u8x8_cad_SendArg
 908              	.LVL127:
 952:..\u8g2\csrc/u8x8_d_st75256.c ****               u8x8_cad_SendCmd(u8x8, 0x05c );	
 909              		.loc 1 952 0
 910 007c 5C21     		movs	r1, #92
 911 007e 3046     		mov	r0, r6
 912 0080 FFF7FEFF 		bl	u8x8_cad_SendCmd
 913              	.LVL128:
 914              	.L72:
 953:..\u8g2\csrc/u8x8_d_st75256.c ****             
 954:..\u8g2\csrc/u8x8_d_st75256.c ****               
 955:..\u8g2\csrc/u8x8_d_st75256.c ****               do
 956:..\u8g2\csrc/u8x8_d_st75256.c ****               {
 957:..\u8g2\csrc/u8x8_d_st75256.c ****                 c = ((u8x8_tile_t *)arg_ptr)->cnt;
 915              		.loc 1 957 0
 916 0084 3B79     		ldrb	r3, [r7, #4]	@ zero_extendqisi2
 917              	.LVL129:
 958:..\u8g2\csrc/u8x8_d_st75256.c ****                 ptr = ((u8x8_tile_t *)arg_ptr)->tile_ptr;
 918              		.loc 1 958 0
 919 0086 3A68     		ldr	r2, [r7]
 920              	.LVL130:
 959:..\u8g2\csrc/u8x8_d_st75256.c ****                 c *= 8;
 921              		.loc 1 959 0
 922 0088 DB00     		lsls	r3, r3, #3
 923              	.LVL131:
 924 008a DCB2     		uxtb	r4, r3
 925              	.LVL132:
 960:..\u8g2\csrc/u8x8_d_st75256.c **** 
 961:..\u8g2\csrc/u8x8_d_st75256.c ****                 if ( c + x > 240u )
 926              		.loc 1 961 0
 927 008c 04EB0803 		add	r3, r4, r8
 928 0090 F02B     		cmp	r3, #240
 929 0092 02D9     		bls	.L71
 930              	.LVL133:
 962:..\u8g2\csrc/u8x8_d_st75256.c ****                 {
 963:..\u8g2\csrc/u8x8_d_st75256.c ****                         c = 240u;
 964:..\u8g2\csrc/u8x8_d_st75256.c ****                         c -= x;
 931              		.loc 1 964 0
ARM GAS  C:\Users\brian\AppData\Local\Temp\cckfkOf3.s 			page 35


 932 0094 C8F1F003 		rsb	r3, r8, #240
 933 0098 DCB2     		uxtb	r4, r3
 934              	.LVL134:
 935              	.L71:
 965:..\u8g2\csrc/u8x8_d_st75256.c ****                 }
 966:..\u8g2\csrc/u8x8_d_st75256.c ****                       
 967:..\u8g2\csrc/u8x8_d_st75256.c ****                 u8x8_cad_SendData(u8x8, c, ptr); 	
 936              		.loc 1 967 0
 937 009a 2146     		mov	r1, r4
 938 009c 3046     		mov	r0, r6
 939 009e FFF7FEFF 		bl	u8x8_cad_SendData
 940              	.LVL135:
 968:..\u8g2\csrc/u8x8_d_st75256.c ****                 x += c;
 941              		.loc 1 968 0
 942 00a2 4444     		add	r4, r4, r8
 943              	.LVL136:
 944 00a4 5FFA84F8 		uxtb	r8, r4
 945              	.LVL137:
 969:..\u8g2\csrc/u8x8_d_st75256.c ****                 arg_int--;
 946              		.loc 1 969 0
 947 00a8 013D     		subs	r5, r5, #1
 948              	.LVL138:
 970:..\u8g2\csrc/u8x8_d_st75256.c ****               } while( arg_int > 0 );
 949              		.loc 1 970 0
 950 00aa 15F0FF05 		ands	r5, r5, #255
 951              	.LVL139:
 952 00ae E9D1     		bne	.L72
 971:..\u8g2\csrc/u8x8_d_st75256.c ****               
 972:..\u8g2\csrc/u8x8_d_st75256.c ****               u8x8_cad_EndTransfer(u8x8);
 953              		.loc 1 972 0
 954 00b0 3046     		mov	r0, r6
 955 00b2 FFF7FEFF 		bl	u8x8_cad_EndTransfer
 956              	.LVL140:
 973:..\u8g2\csrc/u8x8_d_st75256.c ****               return 1;
 957              		.loc 1 973 0
 958 00b6 0120     		movs	r0, #1
 959 00b8 BDE8F081 		pop	{r4, r5, r6, r7, r8, pc}
 960              	.LVL141:
 961              	.L62:
 974:..\u8g2\csrc/u8x8_d_st75256.c ****         case U8X8_MSG_DISPLAY_SETUP_MEMORY:
 975:..\u8g2\csrc/u8x8_d_st75256.c ****             //u8x8_SetI2CAddress(u8x8, 0x078);		/* lowest I2C adr of the ST75256 */
 976:..\u8g2\csrc/u8x8_d_st75256.c **** 	    u8x8_d_helper_display_setup_memory(u8x8, &u8x8_st75256_240x160_display_info);
 962              		.loc 1 976 0
 963 00bc 2649     		ldr	r1, .L77
 964 00be FFF7FEFF 		bl	u8x8_d_helper_display_setup_memory
 965              	.LVL142:
 977:..\u8g2\csrc/u8x8_d_st75256.c ****             return 1;
 966              		.loc 1 977 0
 967 00c2 0120     		movs	r0, #1
 968 00c4 BDE8F081 		pop	{r4, r5, r6, r7, r8, pc}
 969              	.LVL143:
 970              	.L64:
 978:..\u8g2\csrc/u8x8_d_st75256.c ****         case U8X8_MSG_DISPLAY_INIT:
 979:..\u8g2\csrc/u8x8_d_st75256.c **** 	    u8x8_d_helper_display_init(u8x8);
 971              		.loc 1 979 0
 972 00c8 FFF7FEFF 		bl	u8x8_d_helper_display_init
 973              	.LVL144:
ARM GAS  C:\Users\brian\AppData\Local\Temp\cckfkOf3.s 			page 36


 980:..\u8g2\csrc/u8x8_d_st75256.c **** 	    u8x8_cad_SendSequence(u8x8, u8x8_d_st75256_240x160_init_seq);    
 974              		.loc 1 980 0
 975 00cc 2349     		ldr	r1, .L77+4
 976 00ce 3046     		mov	r0, r6
 977 00d0 FFF7FEFF 		bl	u8x8_cad_SendSequence
 978              	.LVL145:
 981:..\u8g2\csrc/u8x8_d_st75256.c ****             return 1;
 979              		.loc 1 981 0
 980 00d4 0120     		movs	r0, #1
 981 00d6 BDE8F081 		pop	{r4, r5, r6, r7, r8, pc}
 982              	.LVL146:
 983              	.L65:
 982:..\u8g2\csrc/u8x8_d_st75256.c ****         case U8X8_MSG_DISPLAY_SET_POWER_SAVE:
 983:..\u8g2\csrc/u8x8_d_st75256.c ****               if ( arg_int == 0 )
 984              		.loc 1 983 0
 985 00da 2AB9     		cbnz	r2, .L73
 984:..\u8g2\csrc/u8x8_d_st75256.c ****                 u8x8_cad_SendSequence(u8x8, u8x8_d_st75256_256x128_powersave0_seq);
 986              		.loc 1 984 0
 987 00dc 2049     		ldr	r1, .L77+8
 988 00de FFF7FEFF 		bl	u8x8_cad_SendSequence
 989              	.LVL147:
 985:..\u8g2\csrc/u8x8_d_st75256.c ****               else
 986:..\u8g2\csrc/u8x8_d_st75256.c ****                 u8x8_cad_SendSequence(u8x8, u8x8_d_st75256_256x128_powersave1_seq);
 987:..\u8g2\csrc/u8x8_d_st75256.c **** 
 988:..\u8g2\csrc/u8x8_d_st75256.c ****               return 1;
 990              		.loc 1 988 0
 991 00e2 0120     		movs	r0, #1
 992 00e4 BDE8F081 		pop	{r4, r5, r6, r7, r8, pc}
 993              	.LVL148:
 994              	.L73:
 986:..\u8g2\csrc/u8x8_d_st75256.c **** 
 995              		.loc 1 986 0
 996 00e8 1E49     		ldr	r1, .L77+12
 997 00ea FFF7FEFF 		bl	u8x8_cad_SendSequence
 998              	.LVL149:
 999              		.loc 1 988 0
 1000 00ee 0120     		movs	r0, #1
 1001 00f0 BDE8F081 		pop	{r4, r5, r6, r7, r8, pc}
 1002              	.LVL150:
 1003              	.L66:
 989:..\u8g2\csrc/u8x8_d_st75256.c **** 	case U8X8_MSG_DISPLAY_SET_FLIP_MODE:
 990:..\u8g2\csrc/u8x8_d_st75256.c **** 	    if ( arg_int == 0 )
 1004              		.loc 1 990 0
 1005 00f4 4AB9     		cbnz	r2, .L74
 991:..\u8g2\csrc/u8x8_d_st75256.c **** 	    {
 992:..\u8g2\csrc/u8x8_d_st75256.c **** 	      u8x8_cad_SendSequence(u8x8, u8x8_d_st75256_jlx172104_flip0_seq);
 1006              		.loc 1 992 0
 1007 00f6 1C49     		ldr	r1, .L77+16
 1008 00f8 FFF7FEFF 		bl	u8x8_cad_SendSequence
 1009              	.LVL151:
 993:..\u8g2\csrc/u8x8_d_st75256.c **** 	      u8x8->x_offset = u8x8->display_info->default_x_offset;
 1010              		.loc 1 993 0
 1011 00fc 3368     		ldr	r3, [r6]
 1012 00fe 9B7C     		ldrb	r3, [r3, #18]	@ zero_extendqisi2
 1013 0100 86F82230 		strb	r3, [r6, #34]
 994:..\u8g2\csrc/u8x8_d_st75256.c **** 	    }
 995:..\u8g2\csrc/u8x8_d_st75256.c **** 	    else
ARM GAS  C:\Users\brian\AppData\Local\Temp\cckfkOf3.s 			page 37


 996:..\u8g2\csrc/u8x8_d_st75256.c **** 	    {
 997:..\u8g2\csrc/u8x8_d_st75256.c **** 	      u8x8_cad_SendSequence(u8x8, u8x8_d_st75256_jlx172104_flip1_seq);
 998:..\u8g2\csrc/u8x8_d_st75256.c **** 	      u8x8->x_offset = u8x8->display_info->flipmode_x_offset;
 999:..\u8g2\csrc/u8x8_d_st75256.c **** 	    }
1000:..\u8g2\csrc/u8x8_d_st75256.c **** 	    return 1;
 1014              		.loc 1 1000 0
 1015 0104 0120     		movs	r0, #1
 1016 0106 BDE8F081 		pop	{r4, r5, r6, r7, r8, pc}
 1017              	.LVL152:
 1018              	.L74:
 997:..\u8g2\csrc/u8x8_d_st75256.c **** 	      u8x8->x_offset = u8x8->display_info->flipmode_x_offset;
 1019              		.loc 1 997 0
 1020 010a 1849     		ldr	r1, .L77+20
 1021 010c FFF7FEFF 		bl	u8x8_cad_SendSequence
 1022              	.LVL153:
 998:..\u8g2\csrc/u8x8_d_st75256.c **** 	    }
 1023              		.loc 1 998 0
 1024 0110 3368     		ldr	r3, [r6]
 1025 0112 DB7C     		ldrb	r3, [r3, #19]	@ zero_extendqisi2
 1026 0114 86F82230 		strb	r3, [r6, #34]
 1027              		.loc 1 1000 0
 1028 0118 0120     		movs	r0, #1
 1029 011a BDE8F081 		pop	{r4, r5, r6, r7, r8, pc}
 1030              	.LVL154:
 1031              	.L67:
1001:..\u8g2\csrc/u8x8_d_st75256.c **** 		
1002:..\u8g2\csrc/u8x8_d_st75256.c **** #ifdef U8X8_WITH_SET_CONTRAST
1003:..\u8g2\csrc/u8x8_d_st75256.c ****         case U8X8_MSG_DISPLAY_SET_CONTRAST:
1004:..\u8g2\csrc/u8x8_d_st75256.c **** 
1005:..\u8g2\csrc/u8x8_d_st75256.c ****               u8x8_cad_StartTransfer(u8x8);
 1032              		.loc 1 1005 0
 1033 011e FFF7FEFF 		bl	u8x8_cad_StartTransfer
 1034              	.LVL155:
1006:..\u8g2\csrc/u8x8_d_st75256.c ****               
1007:..\u8g2\csrc/u8x8_d_st75256.c ****               u8x8_cad_SendCmd(u8x8, 0x030 );
 1035              		.loc 1 1007 0
 1036 0122 3021     		movs	r1, #48
 1037 0124 3046     		mov	r0, r6
 1038 0126 FFF7FEFF 		bl	u8x8_cad_SendCmd
 1039              	.LVL156:
1008:..\u8g2\csrc/u8x8_d_st75256.c ****               u8x8_cad_SendCmd(u8x8, 0x081 );  /* there are 9 bit for the volume control */
 1040              		.loc 1 1008 0
 1041 012a 8121     		movs	r1, #129
 1042 012c 3046     		mov	r0, r6
 1043 012e FFF7FEFF 		bl	u8x8_cad_SendCmd
 1044              	.LVL157:
1009:..\u8g2\csrc/u8x8_d_st75256.c ****               u8x8_cad_SendArg(u8x8, (arg_int & 0x1f)<<1 );	/* lower 6 bit */
 1045              		.loc 1 1009 0
 1046 0132 6900     		lsls	r1, r5, #1
 1047 0134 01F03E01 		and	r1, r1, #62
 1048 0138 3046     		mov	r0, r6
 1049 013a FFF7FEFF 		bl	u8x8_cad_SendArg
 1050              	.LVL158:
1010:..\u8g2\csrc/u8x8_d_st75256.c ****               u8x8_cad_SendArg(u8x8, (arg_int>>5));		/* upper 3 bit */
 1051              		.loc 1 1010 0
 1052 013e 6909     		lsrs	r1, r5, #5
 1053 0140 3046     		mov	r0, r6
ARM GAS  C:\Users\brian\AppData\Local\Temp\cckfkOf3.s 			page 38


 1054 0142 FFF7FEFF 		bl	u8x8_cad_SendArg
 1055              	.LVL159:
1011:..\u8g2\csrc/u8x8_d_st75256.c ****               
1012:..\u8g2\csrc/u8x8_d_st75256.c ****               u8x8_cad_EndTransfer(u8x8);
 1056              		.loc 1 1012 0
 1057 0146 3046     		mov	r0, r6
 1058 0148 FFF7FEFF 		bl	u8x8_cad_EndTransfer
 1059              	.LVL160:
1013:..\u8g2\csrc/u8x8_d_st75256.c ****               return 1;
 1060              		.loc 1 1013 0
 1061 014c 0120     		movs	r0, #1
 1062 014e BDE8F081 		pop	{r4, r5, r6, r7, r8, pc}
 1063              	.LVL161:
 1064              	.L75:
1014:..\u8g2\csrc/u8x8_d_st75256.c **** #endif
1015:..\u8g2\csrc/u8x8_d_st75256.c ****   }
1016:..\u8g2\csrc/u8x8_d_st75256.c ****   return 0;
 1065              		.loc 1 1016 0
 1066 0152 0020     		movs	r0, #0
 1067              	.LVL162:
1017:..\u8g2\csrc/u8x8_d_st75256.c ****   
1018:..\u8g2\csrc/u8x8_d_st75256.c ****   
1019:..\u8g2\csrc/u8x8_d_st75256.c ****   
1020:..\u8g2\csrc/u8x8_d_st75256.c **** }
 1068              		.loc 1 1020 0
 1069 0154 BDE8F081 		pop	{r4, r5, r6, r7, r8, pc}
 1070              	.LVL163:
 1071              	.L78:
 1072              		.align	2
 1073              	.L77:
 1074 0158 68020000 		.word	.LANCHOR0+616
 1075 015c 80020000 		.word	.LANCHOR0+640
 1076 0160 00000000 		.word	.LANCHOR0
 1077 0164 0C000000 		.word	.LANCHOR0+12
 1078 0168 50010000 		.word	.LANCHOR0+336
 1079 016c 40010000 		.word	.LANCHOR0+320
 1080              		.cfi_endproc
 1081              	.LFE5:
 1082              		.size	u8x8_d_st75256_jlx240160, .-u8x8_d_st75256_jlx240160
 1083              		.section	.text.u8x8_d_st75256_jlx256160,"ax",%progbits
 1084              		.align	2
 1085              		.global	u8x8_d_st75256_jlx256160
 1086              		.thumb
 1087              		.thumb_func
 1088              		.type	u8x8_d_st75256_jlx256160, %function
 1089              	u8x8_d_st75256_jlx256160:
 1090              	.LFB6:
1021:..\u8g2\csrc/u8x8_d_st75256.c **** 
1022:..\u8g2\csrc/u8x8_d_st75256.c **** 
1023:..\u8g2\csrc/u8x8_d_st75256.c **** /*=============================================*/
1024:..\u8g2\csrc/u8x8_d_st75256.c **** /* JLX256160 */
1025:..\u8g2\csrc/u8x8_d_st75256.c **** 
1026:..\u8g2\csrc/u8x8_d_st75256.c **** static const u8x8_display_info_t u8x8_st75256_256x160_display_info =
1027:..\u8g2\csrc/u8x8_d_st75256.c **** {
1028:..\u8g2\csrc/u8x8_d_st75256.c ****   /* chip_enable_level = */ 0,
1029:..\u8g2\csrc/u8x8_d_st75256.c ****   /* chip_disable_level = */ 1,
1030:..\u8g2\csrc/u8x8_d_st75256.c ****   
ARM GAS  C:\Users\brian\AppData\Local\Temp\cckfkOf3.s 			page 39


1031:..\u8g2\csrc/u8x8_d_st75256.c ****   /* post_chip_enable_wait_ns = */ 20,
1032:..\u8g2\csrc/u8x8_d_st75256.c ****   /* pre_chip_disable_wait_ns = */ 20,
1033:..\u8g2\csrc/u8x8_d_st75256.c ****   /* reset_pulse_width_ms = */ 5, 	
1034:..\u8g2\csrc/u8x8_d_st75256.c ****   /* post_reset_wait_ms = */ 5, 		/**/
1035:..\u8g2\csrc/u8x8_d_st75256.c ****   /* sda_setup_time_ns = */ 20,		/* */
1036:..\u8g2\csrc/u8x8_d_st75256.c ****   /* sck_pulse_width_ns = */ 40,	/*  */
1037:..\u8g2\csrc/u8x8_d_st75256.c ****   /* sck_clock_hz = */ 4000000UL,	/* since Arduino 1.6.0, the SPI bus speed in Hz. Should be  10000
1038:..\u8g2\csrc/u8x8_d_st75256.c ****   /* spi_mode = */ 0,		/* active high, rising edge */
1039:..\u8g2\csrc/u8x8_d_st75256.c ****   /* i2c_bus_clock_100kHz = */ 4,	/* 400KHz */
1040:..\u8g2\csrc/u8x8_d_st75256.c ****   /* data_setup_time_ns = */ 15,
1041:..\u8g2\csrc/u8x8_d_st75256.c ****   /* write_pulse_width_ns = */ 70,	
1042:..\u8g2\csrc/u8x8_d_st75256.c ****   /* tile_width = */ 32,
1043:..\u8g2\csrc/u8x8_d_st75256.c ****   /* tile_hight = */ 20,
1044:..\u8g2\csrc/u8x8_d_st75256.c ****   /* default_x_offset = */ 0,
1045:..\u8g2\csrc/u8x8_d_st75256.c ****   /* flipmode_x_offset = */ 1,	/* x offset is used as y offset in flipmode */
1046:..\u8g2\csrc/u8x8_d_st75256.c ****   /* pixel_width = */ 256,
1047:..\u8g2\csrc/u8x8_d_st75256.c ****   /* pixel_height = */ 160
1048:..\u8g2\csrc/u8x8_d_st75256.c **** };
1049:..\u8g2\csrc/u8x8_d_st75256.c **** 
1050:..\u8g2\csrc/u8x8_d_st75256.c **** 
1051:..\u8g2\csrc/u8x8_d_st75256.c **** static const uint8_t u8x8_d_st75256_256x160_init_seq[] = {
1052:..\u8g2\csrc/u8x8_d_st75256.c ****   U8X8_START_TRANSFER(),             	/* enable chip, delay is part of the transfer start */
1053:..\u8g2\csrc/u8x8_d_st75256.c ****   
1054:..\u8g2\csrc/u8x8_d_st75256.c ****   U8X8_DLY(20),
1055:..\u8g2\csrc/u8x8_d_st75256.c **** 
1056:..\u8g2\csrc/u8x8_d_st75256.c ****   U8X8_C( 0x030 ),				/* select 00 commands */
1057:..\u8g2\csrc/u8x8_d_st75256.c ****   U8X8_C( 0x094 ),				/* sleep out */
1058:..\u8g2\csrc/u8x8_d_st75256.c **** 
1059:..\u8g2\csrc/u8x8_d_st75256.c ****   //U8X8_C( 0x030 ),				/* select 00 commands */
1060:..\u8g2\csrc/u8x8_d_st75256.c ****   U8X8_C( 0x0ae ),				/* display off */
1061:..\u8g2\csrc/u8x8_d_st75256.c **** 
1062:..\u8g2\csrc/u8x8_d_st75256.c ****   U8X8_C( 0x031 ),				/* select 01 commands */
1063:..\u8g2\csrc/u8x8_d_st75256.c ****   U8X8_CA( 0x0d7, 0x09f ),		/* disable auto read */  
1064:..\u8g2\csrc/u8x8_d_st75256.c **** 
1065:..\u8g2\csrc/u8x8_d_st75256.c ****   //U8X8_C( 0x031 ),				/* select 01 commands */
1066:..\u8g2\csrc/u8x8_d_st75256.c ****   U8X8_C( 0x032 ),				/* analog circuit set */
1067:..\u8g2\csrc/u8x8_d_st75256.c ****   U8X8_A( 0x000 ),				/* code example: OSC Frequency adjustment */
1068:..\u8g2\csrc/u8x8_d_st75256.c ****   U8X8_A( 0x001 ),				/* Frequency on booster capacitors 1 = 6KHz? */
1069:..\u8g2\csrc/u8x8_d_st75256.c ****   U8X8_A( 0x000 ),				/* Bias: 1: 1/13, 2: 1/12, 3: 1/11, 4:1/10, 5:1/9 */
1070:..\u8g2\csrc/u8x8_d_st75256.c ****     
1071:..\u8g2\csrc/u8x8_d_st75256.c ****   //U8X8_C( 0x031 ),				/* select 01 commands */
1072:..\u8g2\csrc/u8x8_d_st75256.c ****   U8X8_C( 0x020 ),				/* gray levels */
1073:..\u8g2\csrc/u8x8_d_st75256.c ****   U8X8_A( 0x01 ),
1074:..\u8g2\csrc/u8x8_d_st75256.c ****   U8X8_A( 0x03 ),
1075:..\u8g2\csrc/u8x8_d_st75256.c ****   U8X8_A( 0x05 ),
1076:..\u8g2\csrc/u8x8_d_st75256.c ****   U8X8_A( 0x07 ),
1077:..\u8g2\csrc/u8x8_d_st75256.c ****   U8X8_A( 0x09),
1078:..\u8g2\csrc/u8x8_d_st75256.c ****   U8X8_A( 0x0b ),
1079:..\u8g2\csrc/u8x8_d_st75256.c ****   U8X8_A( 0x0d ),
1080:..\u8g2\csrc/u8x8_d_st75256.c ****   U8X8_A( 0x10 ),
1081:..\u8g2\csrc/u8x8_d_st75256.c ****   U8X8_A( 0x11 ),
1082:..\u8g2\csrc/u8x8_d_st75256.c ****   U8X8_A( 0x13 ),
1083:..\u8g2\csrc/u8x8_d_st75256.c ****   U8X8_A( 0x15 ),
1084:..\u8g2\csrc/u8x8_d_st75256.c ****   U8X8_A( 0x17 ),
1085:..\u8g2\csrc/u8x8_d_st75256.c ****   U8X8_A( 0x19 ),
1086:..\u8g2\csrc/u8x8_d_st75256.c ****   U8X8_A( 0x1b ),
1087:..\u8g2\csrc/u8x8_d_st75256.c ****   U8X8_A( 0x1d ),
ARM GAS  C:\Users\brian\AppData\Local\Temp\cckfkOf3.s 			page 40


1088:..\u8g2\csrc/u8x8_d_st75256.c ****   U8X8_A( 0x1f ),
1089:..\u8g2\csrc/u8x8_d_st75256.c ****  
1090:..\u8g2\csrc/u8x8_d_st75256.c ****   
1091:..\u8g2\csrc/u8x8_d_st75256.c ****   U8X8_C( 0x030 ),				/* select 00 commands */
1092:..\u8g2\csrc/u8x8_d_st75256.c ****   U8X8_CAA(0x75, 0, 0x28),		/* row range */
1093:..\u8g2\csrc/u8x8_d_st75256.c ****   U8X8_CAA(0x15, 0, 0xFF),		/* col range */
1094:..\u8g2\csrc/u8x8_d_st75256.c ****   
1095:..\u8g2\csrc/u8x8_d_st75256.c ****   //U8X8_C( 0x030 ),				/* select 00 commands */
1096:..\u8g2\csrc/u8x8_d_st75256.c ****   U8X8_CA( 0xbc, 0x00 ),			/* data scan dir */
1097:..\u8g2\csrc/u8x8_d_st75256.c ****   U8X8_A( 0xa6 ),				/* ??? */
1098:..\u8g2\csrc/u8x8_d_st75256.c **** 
1099:..\u8g2\csrc/u8x8_d_st75256.c ****   //U8X8_C( 0x030 ),				/* select 00 commands */
1100:..\u8g2\csrc/u8x8_d_st75256.c ****   U8X8_C( 0x00c ),				/* data format LSB top */
1101:..\u8g2\csrc/u8x8_d_st75256.c **** 
1102:..\u8g2\csrc/u8x8_d_st75256.c ****   //U8X8_C( 0x030 ),				/* select 00 commands */ 
1103:..\u8g2\csrc/u8x8_d_st75256.c ****   U8X8_C( 0xca ),				/* display control, 3 args follow  */
1104:..\u8g2\csrc/u8x8_d_st75256.c ****   U8X8_A( 0x00 ),				/* 0x00: no clock division, 0x04: devide clock */
1105:..\u8g2\csrc/u8x8_d_st75256.c ****   U8X8_A( 159 ),				/* 1/160 duty value from the DS example code */
1106:..\u8g2\csrc/u8x8_d_st75256.c ****   U8X8_A( 0x20 ),				/* nline off */ 
1107:..\u8g2\csrc/u8x8_d_st75256.c **** 
1108:..\u8g2\csrc/u8x8_d_st75256.c ****   //U8X8_C( 0x030 ),				/* select 00 commands */ 
1109:..\u8g2\csrc/u8x8_d_st75256.c ****   U8X8_CA( 0x0f0, 0x010 ),		/* monochrome mode  = 0x010*/
1110:..\u8g2\csrc/u8x8_d_st75256.c **** 
1111:..\u8g2\csrc/u8x8_d_st75256.c ****   //U8X8_C( 0x030 ),				/* select 00 commands */
1112:..\u8g2\csrc/u8x8_d_st75256.c ****   U8X8_CAA( 0x81, 0x18, 0x05 ),	/* Volume control */
1113:..\u8g2\csrc/u8x8_d_st75256.c **** 
1114:..\u8g2\csrc/u8x8_d_st75256.c ****   //U8X8_C( 0x030 ),				/* select 00 commands */
1115:..\u8g2\csrc/u8x8_d_st75256.c ****   U8X8_CA( 0x020, 0x00b ),		/* Power control: Regulator, follower & booster on */
1116:..\u8g2\csrc/u8x8_d_st75256.c ****   U8X8_DLY(100),
1117:..\u8g2\csrc/u8x8_d_st75256.c **** 
1118:..\u8g2\csrc/u8x8_d_st75256.c ****   U8X8_END_TRANSFER(),             	/* disable chip */
1119:..\u8g2\csrc/u8x8_d_st75256.c ****   U8X8_END()             			/* end of sequence */
1120:..\u8g2\csrc/u8x8_d_st75256.c **** };
1121:..\u8g2\csrc/u8x8_d_st75256.c **** 
1122:..\u8g2\csrc/u8x8_d_st75256.c **** 
1123:..\u8g2\csrc/u8x8_d_st75256.c **** uint8_t u8x8_d_st75256_jlx256160(u8x8_t *u8x8, uint8_t msg, uint8_t arg_int, void *arg_ptr)
1124:..\u8g2\csrc/u8x8_d_st75256.c **** {
 1091              		.loc 1 1124 0
 1092              		.cfi_startproc
 1093              		@ args = 0, pretend = 0, frame = 0
 1094              		@ frame_needed = 0, uses_anonymous_args = 0
 1095              	.LVL164:
 1096 0000 2DE9F041 		push	{r4, r5, r6, r7, r8, lr}
 1097              		.cfi_def_cfa_offset 24
 1098              		.cfi_offset 4, -24
 1099              		.cfi_offset 5, -20
 1100              		.cfi_offset 6, -16
 1101              		.cfi_offset 7, -12
 1102              		.cfi_offset 8, -8
 1103              		.cfi_offset 14, -4
 1104 0004 0646     		mov	r6, r0
 1105 0006 1546     		mov	r5, r2
 1106 0008 9846     		mov	r8, r3
1125:..\u8g2\csrc/u8x8_d_st75256.c ****   uint8_t x, c;
1126:..\u8g2\csrc/u8x8_d_st75256.c ****   uint8_t *ptr;
1127:..\u8g2\csrc/u8x8_d_st75256.c **** 
1128:..\u8g2\csrc/u8x8_d_st75256.c ****   switch(msg)
ARM GAS  C:\Users\brian\AppData\Local\Temp\cckfkOf3.s 			page 41


 1107              		.loc 1 1128 0
 1108 000a 0939     		subs	r1, r1, #9
 1109              	.LVL165:
 1110 000c 0629     		cmp	r1, #6
 1111 000e 00F2A680 		bhi	.L94
 1112 0012 DFE801F0 		tbb	[pc, r1]
 1113              	.LVL166:
 1114              	.L82:
 1115 0016 59       		.byte	(.L81-.L82)/2
 1116 0017 5F       		.byte	(.L83-.L82)/2
 1117 0018 68       		.byte	(.L84-.L82)/2
 1118 0019 A4       		.byte	(.L94-.L82)/2
 1119 001a 75       		.byte	(.L85-.L82)/2
 1120 001b 8A       		.byte	(.L86-.L82)/2
 1121 001c 04       		.byte	(.L87-.L82)/2
 1122 001d 00       		.p2align 1
 1123              	.L87:
1129:..\u8g2\csrc/u8x8_d_st75256.c ****   {
1130:..\u8g2\csrc/u8x8_d_st75256.c ****             case U8X8_MSG_DISPLAY_DRAW_TILE:
1131:..\u8g2\csrc/u8x8_d_st75256.c ****               
1132:..\u8g2\csrc/u8x8_d_st75256.c ****               u8x8_cad_StartTransfer(u8x8);
 1124              		.loc 1 1132 0
 1125 001e FFF7FEFF 		bl	u8x8_cad_StartTransfer
 1126              	.LVL167:
1133:..\u8g2\csrc/u8x8_d_st75256.c ****               x = ((u8x8_tile_t *)arg_ptr)->x_pos;    
 1127              		.loc 1 1133 0
 1128 0022 98F80540 		ldrb	r4, [r8, #5]	@ zero_extendqisi2
 1129              	.LVL168:
1134:..\u8g2\csrc/u8x8_d_st75256.c ****               x *= 8;
 1130              		.loc 1 1134 0
 1131 0026 E400     		lsls	r4, r4, #3
 1132              	.LVL169:
 1133 0028 E4B2     		uxtb	r4, r4
 1134              	.LVL170:
1135:..\u8g2\csrc/u8x8_d_st75256.c ****               
1136:..\u8g2\csrc/u8x8_d_st75256.c ****               u8x8_cad_SendCmd(u8x8, 0x030 );	/* select command set */
 1135              		.loc 1 1136 0
 1136 002a 3021     		movs	r1, #48
 1137 002c 3046     		mov	r0, r6
 1138 002e FFF7FEFF 		bl	u8x8_cad_SendCmd
 1139              	.LVL171:
1137:..\u8g2\csrc/u8x8_d_st75256.c ****               u8x8_cad_SendCmd(u8x8, 0x075 );	/* row */
 1140              		.loc 1 1137 0
 1141 0032 7521     		movs	r1, #117
 1142 0034 3046     		mov	r0, r6
 1143 0036 FFF7FEFF 		bl	u8x8_cad_SendCmd
 1144              	.LVL172:
1138:..\u8g2\csrc/u8x8_d_st75256.c **** 	      if ( u8x8->x_offset == 1 )		/* 1 means flip mode 1 */
 1145              		.loc 1 1138 0
 1146 003a 96F82230 		ldrb	r3, [r6, #34]	@ zero_extendqisi2
 1147 003e 012B     		cmp	r3, #1
 1148 0040 07D1     		bne	.L88
1139:..\u8g2\csrc/u8x8_d_st75256.c **** 		u8x8_cad_SendArg(u8x8, 1+(((u8x8_tile_t *)arg_ptr)->y_pos));
 1149              		.loc 1 1139 0
 1150 0042 98F80610 		ldrb	r1, [r8, #6]	@ zero_extendqisi2
 1151 0046 0131     		adds	r1, r1, #1
 1152 0048 C9B2     		uxtb	r1, r1
ARM GAS  C:\Users\brian\AppData\Local\Temp\cckfkOf3.s 			page 42


 1153 004a 3046     		mov	r0, r6
 1154 004c FFF7FEFF 		bl	u8x8_cad_SendArg
 1155              	.LVL173:
 1156 0050 04E0     		b	.L89
 1157              	.L88:
1140:..\u8g2\csrc/u8x8_d_st75256.c **** 	      else
1141:..\u8g2\csrc/u8x8_d_st75256.c **** 		u8x8_cad_SendArg(u8x8, (((u8x8_tile_t *)arg_ptr)->y_pos));
 1158              		.loc 1 1141 0
 1159 0052 98F80610 		ldrb	r1, [r8, #6]	@ zero_extendqisi2
 1160 0056 3046     		mov	r0, r6
 1161 0058 FFF7FEFF 		bl	u8x8_cad_SendArg
 1162              	.LVL174:
 1163              	.L89:
1142:..\u8g2\csrc/u8x8_d_st75256.c ****               u8x8_cad_SendArg(u8x8, 0x04f);
 1164              		.loc 1 1142 0
 1165 005c 4F21     		movs	r1, #79
 1166 005e 3046     		mov	r0, r6
 1167 0060 FFF7FEFF 		bl	u8x8_cad_SendArg
 1168              	.LVL175:
1143:..\u8g2\csrc/u8x8_d_st75256.c ****               //u8x8_cad_SendArg(u8x8, (((u8x8_tile_t *)arg_ptr)->y_pos));
1144:..\u8g2\csrc/u8x8_d_st75256.c ****               u8x8_cad_SendCmd(u8x8, 0x015 );	/* col */
 1169              		.loc 1 1144 0
 1170 0064 1521     		movs	r1, #21
 1171 0066 3046     		mov	r0, r6
 1172 0068 FFF7FEFF 		bl	u8x8_cad_SendCmd
 1173              	.LVL176:
1145:..\u8g2\csrc/u8x8_d_st75256.c ****               u8x8_cad_SendArg(u8x8, x+u8x8->display_info->default_x_offset);
 1174              		.loc 1 1145 0
 1175 006c 3368     		ldr	r3, [r6]
 1176 006e 997C     		ldrb	r1, [r3, #18]	@ zero_extendqisi2
 1177 0070 2144     		add	r1, r1, r4
 1178 0072 C9B2     		uxtb	r1, r1
 1179 0074 3046     		mov	r0, r6
 1180 0076 FFF7FEFF 		bl	u8x8_cad_SendArg
 1181              	.LVL177:
1146:..\u8g2\csrc/u8x8_d_st75256.c ****               u8x8_cad_SendArg(u8x8, 255);
 1182              		.loc 1 1146 0
 1183 007a FF21     		movs	r1, #255
 1184 007c 3046     		mov	r0, r6
 1185 007e FFF7FEFF 		bl	u8x8_cad_SendArg
 1186              	.LVL178:
1147:..\u8g2\csrc/u8x8_d_st75256.c ****               u8x8_cad_SendCmd(u8x8, 0x05c );	
 1187              		.loc 1 1147 0
 1188 0082 5C21     		movs	r1, #92
 1189 0084 3046     		mov	r0, r6
 1190 0086 FFF7FEFF 		bl	u8x8_cad_SendCmd
 1191              	.LVL179:
 1192              	.L91:
1148:..\u8g2\csrc/u8x8_d_st75256.c ****             
1149:..\u8g2\csrc/u8x8_d_st75256.c ****               
1150:..\u8g2\csrc/u8x8_d_st75256.c ****               do
1151:..\u8g2\csrc/u8x8_d_st75256.c ****               {
1152:..\u8g2\csrc/u8x8_d_st75256.c ****                 c = ((u8x8_tile_t *)arg_ptr)->cnt;
 1193              		.loc 1 1152 0
 1194 008a 98F80440 		ldrb	r4, [r8, #4]	@ zero_extendqisi2
 1195              	.LVL180:
1153:..\u8g2\csrc/u8x8_d_st75256.c ****                 ptr = ((u8x8_tile_t *)arg_ptr)->tile_ptr;
ARM GAS  C:\Users\brian\AppData\Local\Temp\cckfkOf3.s 			page 43


 1196              		.loc 1 1153 0
 1197 008e D8F80070 		ldr	r7, [r8]
 1198              	.LVL181:
1154:..\u8g2\csrc/u8x8_d_st75256.c **** 		/* SendData can not handle more than 255 bytes, treat c > 31 correctly  */
1155:..\u8g2\csrc/u8x8_d_st75256.c **** 		if ( c > 31 )
 1199              		.loc 1 1155 0
 1200 0092 1F2C     		cmp	r4, #31
 1201 0094 07D9     		bls	.L90
1156:..\u8g2\csrc/u8x8_d_st75256.c **** 		{
1157:..\u8g2\csrc/u8x8_d_st75256.c **** 		  u8x8_cad_SendData(u8x8, 248, ptr); 	/* 31*8=248 */
 1202              		.loc 1 1157 0
 1203 0096 3A46     		mov	r2, r7
 1204 0098 F821     		movs	r1, #248
 1205 009a 3046     		mov	r0, r6
 1206 009c FFF7FEFF 		bl	u8x8_cad_SendData
 1207              	.LVL182:
1158:..\u8g2\csrc/u8x8_d_st75256.c **** 		  ptr+=248;
 1208              		.loc 1 1158 0
 1209 00a0 F837     		adds	r7, r7, #248
 1210              	.LVL183:
1159:..\u8g2\csrc/u8x8_d_st75256.c **** 		  c -= 31;
 1211              		.loc 1 1159 0
 1212 00a2 1F3C     		subs	r4, r4, #31
 1213              	.LVL184:
 1214 00a4 E4B2     		uxtb	r4, r4
 1215              	.LVL185:
 1216              	.L90:
1160:..\u8g2\csrc/u8x8_d_st75256.c **** 		}
1161:..\u8g2\csrc/u8x8_d_st75256.c **** 		
1162:..\u8g2\csrc/u8x8_d_st75256.c **** 		u8x8_cad_SendData(u8x8, c*8, ptr); 	
 1217              		.loc 1 1162 0
 1218 00a6 E100     		lsls	r1, r4, #3
 1219 00a8 3A46     		mov	r2, r7
 1220 00aa 01F0F801 		and	r1, r1, #248
 1221 00ae 3046     		mov	r0, r6
 1222 00b0 FFF7FEFF 		bl	u8x8_cad_SendData
 1223              	.LVL186:
1163:..\u8g2\csrc/u8x8_d_st75256.c ****                 arg_int--;
 1224              		.loc 1 1163 0
 1225 00b4 6A1E     		subs	r2, r5, #1
 1226              	.LVL187:
1164:..\u8g2\csrc/u8x8_d_st75256.c ****               } while( arg_int > 0 );
 1227              		.loc 1 1164 0
 1228 00b6 12F0FF05 		ands	r5, r2, #255
 1229 00ba E6D1     		bne	.L91
1165:..\u8g2\csrc/u8x8_d_st75256.c ****               
1166:..\u8g2\csrc/u8x8_d_st75256.c ****               u8x8_cad_EndTransfer(u8x8);
 1230              		.loc 1 1166 0
 1231 00bc 3046     		mov	r0, r6
 1232 00be FFF7FEFF 		bl	u8x8_cad_EndTransfer
 1233              	.LVL188:
1167:..\u8g2\csrc/u8x8_d_st75256.c ****               return 1;
 1234              		.loc 1 1167 0
 1235 00c2 0120     		movs	r0, #1
 1236 00c4 BDE8F081 		pop	{r4, r5, r6, r7, r8, pc}
 1237              	.LVL189:
 1238              	.L81:
ARM GAS  C:\Users\brian\AppData\Local\Temp\cckfkOf3.s 			page 44


1168:..\u8g2\csrc/u8x8_d_st75256.c ****         case U8X8_MSG_DISPLAY_SETUP_MEMORY:
1169:..\u8g2\csrc/u8x8_d_st75256.c ****             //u8x8_SetI2CAddress(u8x8, 0x078);		/* lowest I2C adr of the ST75256 */
1170:..\u8g2\csrc/u8x8_d_st75256.c **** 	    u8x8_d_helper_display_setup_memory(u8x8, &u8x8_st75256_256x160_display_info);
 1239              		.loc 1 1170 0
 1240 00c8 2649     		ldr	r1, .L96
 1241 00ca FFF7FEFF 		bl	u8x8_d_helper_display_setup_memory
 1242              	.LVL190:
1171:..\u8g2\csrc/u8x8_d_st75256.c ****             return 1;
 1243              		.loc 1 1171 0
 1244 00ce 0120     		movs	r0, #1
 1245 00d0 BDE8F081 		pop	{r4, r5, r6, r7, r8, pc}
 1246              	.LVL191:
 1247              	.L83:
1172:..\u8g2\csrc/u8x8_d_st75256.c ****         case U8X8_MSG_DISPLAY_INIT:
1173:..\u8g2\csrc/u8x8_d_st75256.c **** 	    u8x8_d_helper_display_init(u8x8);
 1248              		.loc 1 1173 0
 1249 00d4 FFF7FEFF 		bl	u8x8_d_helper_display_init
 1250              	.LVL192:
1174:..\u8g2\csrc/u8x8_d_st75256.c **** 	    u8x8_cad_SendSequence(u8x8, u8x8_d_st75256_256x160_init_seq);    
 1251              		.loc 1 1174 0
 1252 00d8 2349     		ldr	r1, .L96+4
 1253 00da 3046     		mov	r0, r6
 1254 00dc FFF7FEFF 		bl	u8x8_cad_SendSequence
 1255              	.LVL193:
1175:..\u8g2\csrc/u8x8_d_st75256.c ****             return 1;
 1256              		.loc 1 1175 0
 1257 00e0 0120     		movs	r0, #1
 1258 00e2 BDE8F081 		pop	{r4, r5, r6, r7, r8, pc}
 1259              	.LVL194:
 1260              	.L84:
1176:..\u8g2\csrc/u8x8_d_st75256.c ****         case U8X8_MSG_DISPLAY_SET_POWER_SAVE:
1177:..\u8g2\csrc/u8x8_d_st75256.c ****               if ( arg_int == 0 )
 1261              		.loc 1 1177 0
 1262 00e6 2AB9     		cbnz	r2, .L92
1178:..\u8g2\csrc/u8x8_d_st75256.c ****                 u8x8_cad_SendSequence(u8x8, u8x8_d_st75256_256x128_powersave0_seq);
 1263              		.loc 1 1178 0
 1264 00e8 2049     		ldr	r1, .L96+8
 1265 00ea FFF7FEFF 		bl	u8x8_cad_SendSequence
 1266              	.LVL195:
1179:..\u8g2\csrc/u8x8_d_st75256.c ****               else
1180:..\u8g2\csrc/u8x8_d_st75256.c ****                 u8x8_cad_SendSequence(u8x8, u8x8_d_st75256_256x128_powersave1_seq);
1181:..\u8g2\csrc/u8x8_d_st75256.c **** 
1182:..\u8g2\csrc/u8x8_d_st75256.c ****               return 1;
 1267              		.loc 1 1182 0
 1268 00ee 0120     		movs	r0, #1
 1269 00f0 BDE8F081 		pop	{r4, r5, r6, r7, r8, pc}
 1270              	.LVL196:
 1271              	.L92:
1180:..\u8g2\csrc/u8x8_d_st75256.c **** 
 1272              		.loc 1 1180 0
 1273 00f4 1E49     		ldr	r1, .L96+12
 1274 00f6 FFF7FEFF 		bl	u8x8_cad_SendSequence
 1275              	.LVL197:
 1276              		.loc 1 1182 0
 1277 00fa 0120     		movs	r0, #1
 1278 00fc BDE8F081 		pop	{r4, r5, r6, r7, r8, pc}
 1279              	.LVL198:
ARM GAS  C:\Users\brian\AppData\Local\Temp\cckfkOf3.s 			page 45


 1280              	.L85:
1183:..\u8g2\csrc/u8x8_d_st75256.c **** 	case U8X8_MSG_DISPLAY_SET_FLIP_MODE:
1184:..\u8g2\csrc/u8x8_d_st75256.c **** 	    if ( arg_int == 0 )
 1281              		.loc 1 1184 0
 1282 0100 4AB9     		cbnz	r2, .L93
1185:..\u8g2\csrc/u8x8_d_st75256.c **** 	    {
1186:..\u8g2\csrc/u8x8_d_st75256.c **** 	      u8x8_cad_SendSequence(u8x8, u8x8_d_st75256_jlx256160_flip0_seq);
 1283              		.loc 1 1186 0
 1284 0102 1C49     		ldr	r1, .L96+16
 1285 0104 FFF7FEFF 		bl	u8x8_cad_SendSequence
 1286              	.LVL199:
1187:..\u8g2\csrc/u8x8_d_st75256.c **** 	      u8x8->x_offset = u8x8->display_info->default_x_offset;
 1287              		.loc 1 1187 0
 1288 0108 3368     		ldr	r3, [r6]
 1289 010a 9B7C     		ldrb	r3, [r3, #18]	@ zero_extendqisi2
 1290 010c 86F82230 		strb	r3, [r6, #34]
1188:..\u8g2\csrc/u8x8_d_st75256.c **** 	    }
1189:..\u8g2\csrc/u8x8_d_st75256.c **** 	    else
1190:..\u8g2\csrc/u8x8_d_st75256.c **** 	    {
1191:..\u8g2\csrc/u8x8_d_st75256.c **** 	      u8x8_cad_SendSequence(u8x8, u8x8_d_st75256_jlx256160_flip1_seq);
1192:..\u8g2\csrc/u8x8_d_st75256.c **** 	      u8x8->x_offset = u8x8->display_info->flipmode_x_offset;
1193:..\u8g2\csrc/u8x8_d_st75256.c **** 	    }
1194:..\u8g2\csrc/u8x8_d_st75256.c **** 	    return 1;
 1291              		.loc 1 1194 0
 1292 0110 0120     		movs	r0, #1
 1293 0112 BDE8F081 		pop	{r4, r5, r6, r7, r8, pc}
 1294              	.LVL200:
 1295              	.L93:
1191:..\u8g2\csrc/u8x8_d_st75256.c **** 	      u8x8->x_offset = u8x8->display_info->flipmode_x_offset;
 1296              		.loc 1 1191 0
 1297 0116 1849     		ldr	r1, .L96+20
 1298 0118 FFF7FEFF 		bl	u8x8_cad_SendSequence
 1299              	.LVL201:
1192:..\u8g2\csrc/u8x8_d_st75256.c **** 	    }
 1300              		.loc 1 1192 0
 1301 011c 3368     		ldr	r3, [r6]
 1302 011e DB7C     		ldrb	r3, [r3, #19]	@ zero_extendqisi2
 1303 0120 86F82230 		strb	r3, [r6, #34]
 1304              		.loc 1 1194 0
 1305 0124 0120     		movs	r0, #1
 1306 0126 BDE8F081 		pop	{r4, r5, r6, r7, r8, pc}
 1307              	.LVL202:
 1308              	.L86:
1195:..\u8g2\csrc/u8x8_d_st75256.c **** 		
1196:..\u8g2\csrc/u8x8_d_st75256.c **** #ifdef U8X8_WITH_SET_CONTRAST
1197:..\u8g2\csrc/u8x8_d_st75256.c ****         case U8X8_MSG_DISPLAY_SET_CONTRAST:
1198:..\u8g2\csrc/u8x8_d_st75256.c **** 
1199:..\u8g2\csrc/u8x8_d_st75256.c ****               u8x8_cad_StartTransfer(u8x8);
 1309              		.loc 1 1199 0
 1310 012a FFF7FEFF 		bl	u8x8_cad_StartTransfer
 1311              	.LVL203:
1200:..\u8g2\csrc/u8x8_d_st75256.c ****               
1201:..\u8g2\csrc/u8x8_d_st75256.c ****               u8x8_cad_SendCmd(u8x8, 0x030 );
 1312              		.loc 1 1201 0
 1313 012e 3021     		movs	r1, #48
 1314 0130 3046     		mov	r0, r6
 1315 0132 FFF7FEFF 		bl	u8x8_cad_SendCmd
ARM GAS  C:\Users\brian\AppData\Local\Temp\cckfkOf3.s 			page 46


 1316              	.LVL204:
1202:..\u8g2\csrc/u8x8_d_st75256.c ****               u8x8_cad_SendCmd(u8x8, 0x081 );  /* there are 9 bit for the volume control */
 1317              		.loc 1 1202 0
 1318 0136 8121     		movs	r1, #129
 1319 0138 3046     		mov	r0, r6
 1320 013a FFF7FEFF 		bl	u8x8_cad_SendCmd
 1321              	.LVL205:
1203:..\u8g2\csrc/u8x8_d_st75256.c ****               u8x8_cad_SendArg(u8x8, (arg_int & 0x1f)<<1 );	/* lower 6 bit */
 1322              		.loc 1 1203 0
 1323 013e 6900     		lsls	r1, r5, #1
 1324 0140 01F03E01 		and	r1, r1, #62
 1325 0144 3046     		mov	r0, r6
 1326 0146 FFF7FEFF 		bl	u8x8_cad_SendArg
 1327              	.LVL206:
1204:..\u8g2\csrc/u8x8_d_st75256.c ****               u8x8_cad_SendArg(u8x8, (arg_int>>5));		/* upper 3 bit */
 1328              		.loc 1 1204 0
 1329 014a 6909     		lsrs	r1, r5, #5
 1330 014c 3046     		mov	r0, r6
 1331 014e FFF7FEFF 		bl	u8x8_cad_SendArg
 1332              	.LVL207:
1205:..\u8g2\csrc/u8x8_d_st75256.c ****               
1206:..\u8g2\csrc/u8x8_d_st75256.c ****               u8x8_cad_EndTransfer(u8x8);
 1333              		.loc 1 1206 0
 1334 0152 3046     		mov	r0, r6
 1335 0154 FFF7FEFF 		bl	u8x8_cad_EndTransfer
 1336              	.LVL208:
1207:..\u8g2\csrc/u8x8_d_st75256.c ****               return 1;
 1337              		.loc 1 1207 0
 1338 0158 0120     		movs	r0, #1
 1339 015a BDE8F081 		pop	{r4, r5, r6, r7, r8, pc}
 1340              	.LVL209:
 1341              	.L94:
1208:..\u8g2\csrc/u8x8_d_st75256.c **** #endif
1209:..\u8g2\csrc/u8x8_d_st75256.c ****   }
1210:..\u8g2\csrc/u8x8_d_st75256.c ****   return 0;
 1342              		.loc 1 1210 0
 1343 015e 0020     		movs	r0, #0
 1344              	.LVL210:
1211:..\u8g2\csrc/u8x8_d_st75256.c **** }
 1345              		.loc 1 1211 0
 1346 0160 BDE8F081 		pop	{r4, r5, r6, r7, r8, pc}
 1347              	.LVL211:
 1348              	.L97:
 1349              		.align	2
 1350              	.L96:
 1351 0164 EC020000 		.word	.LANCHOR0+748
 1352 0168 04030000 		.word	.LANCHOR0+772
 1353 016c 00000000 		.word	.LANCHOR0
 1354 0170 0C000000 		.word	.LANCHOR0+12
 1355 0174 70030000 		.word	.LANCHOR0+880
 1356 0178 80030000 		.word	.LANCHOR0+896
 1357              		.cfi_endproc
 1358              	.LFE6:
 1359              		.size	u8x8_d_st75256_jlx256160, .-u8x8_d_st75256_jlx256160
 1360              		.section	.text.u8x8_d_st75256_jlx256160m,"ax",%progbits
 1361              		.align	2
 1362              		.global	u8x8_d_st75256_jlx256160m
ARM GAS  C:\Users\brian\AppData\Local\Temp\cckfkOf3.s 			page 47


 1363              		.thumb
 1364              		.thumb_func
 1365              		.type	u8x8_d_st75256_jlx256160m, %function
 1366              	u8x8_d_st75256_jlx256160m:
 1367              	.LFB7:
1212:..\u8g2\csrc/u8x8_d_st75256.c **** 
1213:..\u8g2\csrc/u8x8_d_st75256.c **** 
1214:..\u8g2\csrc/u8x8_d_st75256.c **** /*=============================================*/
1215:..\u8g2\csrc/u8x8_d_st75256.c **** /* JLX256160 mirror version #930 */
1216:..\u8g2\csrc/u8x8_d_st75256.c **** 
1217:..\u8g2\csrc/u8x8_d_st75256.c **** 
1218:..\u8g2\csrc/u8x8_d_st75256.c **** static const uint8_t u8x8_d_st75256_256x160m_init_seq[] = {
1219:..\u8g2\csrc/u8x8_d_st75256.c ****   U8X8_START_TRANSFER(),             	/* enable chip, delay is part of the transfer start */
1220:..\u8g2\csrc/u8x8_d_st75256.c ****   
1221:..\u8g2\csrc/u8x8_d_st75256.c ****   U8X8_DLY(20),
1222:..\u8g2\csrc/u8x8_d_st75256.c **** 
1223:..\u8g2\csrc/u8x8_d_st75256.c ****   U8X8_C( 0x030 ),				/* select 00 commands */
1224:..\u8g2\csrc/u8x8_d_st75256.c ****   U8X8_C( 0x094 ),				/* sleep out */
1225:..\u8g2\csrc/u8x8_d_st75256.c **** 
1226:..\u8g2\csrc/u8x8_d_st75256.c ****   //U8X8_C( 0x030 ),				/* select 00 commands */
1227:..\u8g2\csrc/u8x8_d_st75256.c ****   U8X8_C( 0x0ae ),				/* display off */
1228:..\u8g2\csrc/u8x8_d_st75256.c **** 
1229:..\u8g2\csrc/u8x8_d_st75256.c ****   U8X8_C( 0x031 ),				/* select 01 commands */
1230:..\u8g2\csrc/u8x8_d_st75256.c ****   U8X8_CA( 0x0d7, 0x09f ),		/* disable auto read */  
1231:..\u8g2\csrc/u8x8_d_st75256.c **** 
1232:..\u8g2\csrc/u8x8_d_st75256.c ****   //U8X8_C( 0x031 ),				/* select 01 commands */
1233:..\u8g2\csrc/u8x8_d_st75256.c ****   U8X8_C( 0x032 ),				/* analog circuit set */
1234:..\u8g2\csrc/u8x8_d_st75256.c ****   U8X8_A( 0x000 ),				/* code example: OSC Frequency adjustment */
1235:..\u8g2\csrc/u8x8_d_st75256.c ****   U8X8_A( 0x001 ),				/* Frequency on booster capacitors 1 = 6KHz? */
1236:..\u8g2\csrc/u8x8_d_st75256.c ****   U8X8_A( 0x000 ),				/* Bias: 1: 1/13, 2: 1/12, 3: 1/11, 4:1/10, 5:1/9 */
1237:..\u8g2\csrc/u8x8_d_st75256.c ****     
1238:..\u8g2\csrc/u8x8_d_st75256.c ****   //U8X8_C( 0x031 ),				/* select 01 commands */
1239:..\u8g2\csrc/u8x8_d_st75256.c ****   U8X8_C( 0x020 ),				/* gray levels */
1240:..\u8g2\csrc/u8x8_d_st75256.c ****   U8X8_A( 0x01 ),
1241:..\u8g2\csrc/u8x8_d_st75256.c ****   U8X8_A( 0x03 ),
1242:..\u8g2\csrc/u8x8_d_st75256.c ****   U8X8_A( 0x05 ),
1243:..\u8g2\csrc/u8x8_d_st75256.c ****   U8X8_A( 0x07 ),
1244:..\u8g2\csrc/u8x8_d_st75256.c ****   U8X8_A( 0x09),
1245:..\u8g2\csrc/u8x8_d_st75256.c ****   U8X8_A( 0x0b ),
1246:..\u8g2\csrc/u8x8_d_st75256.c ****   U8X8_A( 0x0d ),
1247:..\u8g2\csrc/u8x8_d_st75256.c ****   U8X8_A( 0x10 ),
1248:..\u8g2\csrc/u8x8_d_st75256.c ****   U8X8_A( 0x11 ),
1249:..\u8g2\csrc/u8x8_d_st75256.c ****   U8X8_A( 0x13 ),
1250:..\u8g2\csrc/u8x8_d_st75256.c ****   U8X8_A( 0x15 ),
1251:..\u8g2\csrc/u8x8_d_st75256.c ****   U8X8_A( 0x17 ),
1252:..\u8g2\csrc/u8x8_d_st75256.c ****   U8X8_A( 0x19 ),
1253:..\u8g2\csrc/u8x8_d_st75256.c ****   U8X8_A( 0x1b ),
1254:..\u8g2\csrc/u8x8_d_st75256.c ****   U8X8_A( 0x1d ),
1255:..\u8g2\csrc/u8x8_d_st75256.c ****   U8X8_A( 0x1f ),
1256:..\u8g2\csrc/u8x8_d_st75256.c ****  
1257:..\u8g2\csrc/u8x8_d_st75256.c ****   
1258:..\u8g2\csrc/u8x8_d_st75256.c ****   U8X8_C( 0x030 ),				/* select 00 commands */
1259:..\u8g2\csrc/u8x8_d_st75256.c ****   U8X8_CAA(0x75, 0, 0x28),		/* row range */
1260:..\u8g2\csrc/u8x8_d_st75256.c ****   U8X8_CAA(0x15, 0, 0xFF),		/* col range */
1261:..\u8g2\csrc/u8x8_d_st75256.c ****   
1262:..\u8g2\csrc/u8x8_d_st75256.c ****   //U8X8_C( 0x030 ),				/* select 00 commands */
1263:..\u8g2\csrc/u8x8_d_st75256.c ****   U8X8_CA( 0xbc, 0x02 ),			/* data scan dir  ( CHANGED FOR MIRROR VERSION ) */
ARM GAS  C:\Users\brian\AppData\Local\Temp\cckfkOf3.s 			page 48


1264:..\u8g2\csrc/u8x8_d_st75256.c ****   U8X8_A( 0xa6 ),				/* ??? */
1265:..\u8g2\csrc/u8x8_d_st75256.c **** 
1266:..\u8g2\csrc/u8x8_d_st75256.c ****   //U8X8_C( 0x030 ),				/* select 00 commands */
1267:..\u8g2\csrc/u8x8_d_st75256.c ****   U8X8_C( 0x00c ),				/* data format LSB top */
1268:..\u8g2\csrc/u8x8_d_st75256.c **** 
1269:..\u8g2\csrc/u8x8_d_st75256.c ****   //U8X8_C( 0x030 ),				/* select 00 commands */ 
1270:..\u8g2\csrc/u8x8_d_st75256.c ****   U8X8_C( 0xca ),				/* display control, 3 args follow  */
1271:..\u8g2\csrc/u8x8_d_st75256.c ****   U8X8_A( 0x00 ),				/* 0x00: no clock division, 0x04: devide clock */
1272:..\u8g2\csrc/u8x8_d_st75256.c ****   U8X8_A( 159 ),				/* 1/160 duty value from the DS example code */
1273:..\u8g2\csrc/u8x8_d_st75256.c ****   U8X8_A( 0x20 ),				/* nline off */ 
1274:..\u8g2\csrc/u8x8_d_st75256.c **** 
1275:..\u8g2\csrc/u8x8_d_st75256.c ****   //U8X8_C( 0x030 ),				/* select 00 commands */ 
1276:..\u8g2\csrc/u8x8_d_st75256.c ****   U8X8_CA( 0x0f0, 0x010 ),		/* monochrome mode  = 0x010*/
1277:..\u8g2\csrc/u8x8_d_st75256.c **** 
1278:..\u8g2\csrc/u8x8_d_st75256.c ****   //U8X8_C( 0x030 ),				/* select 00 commands */
1279:..\u8g2\csrc/u8x8_d_st75256.c ****   U8X8_CAA( 0x81, 0x18, 0x05 ),	/* Volume control */
1280:..\u8g2\csrc/u8x8_d_st75256.c **** 
1281:..\u8g2\csrc/u8x8_d_st75256.c ****   //U8X8_C( 0x030 ),				/* select 00 commands */
1282:..\u8g2\csrc/u8x8_d_st75256.c ****   U8X8_CA( 0x020, 0x00b ),		/* Power control: Regulator, follower & booster on */
1283:..\u8g2\csrc/u8x8_d_st75256.c ****   U8X8_DLY(100),
1284:..\u8g2\csrc/u8x8_d_st75256.c **** 
1285:..\u8g2\csrc/u8x8_d_st75256.c ****   U8X8_END_TRANSFER(),             	/* disable chip */
1286:..\u8g2\csrc/u8x8_d_st75256.c ****   U8X8_END()             			/* end of sequence */
1287:..\u8g2\csrc/u8x8_d_st75256.c **** };
1288:..\u8g2\csrc/u8x8_d_st75256.c **** 
1289:..\u8g2\csrc/u8x8_d_st75256.c **** uint8_t u8x8_d_st75256_jlx256160m(u8x8_t *u8x8, uint8_t msg, uint8_t arg_int, void *arg_ptr)
1290:..\u8g2\csrc/u8x8_d_st75256.c **** {
 1368              		.loc 1 1290 0
 1369              		.cfi_startproc
 1370              		@ args = 0, pretend = 0, frame = 0
 1371              		@ frame_needed = 0, uses_anonymous_args = 0
 1372              	.LVL212:
 1373 0000 2DE9F041 		push	{r4, r5, r6, r7, r8, lr}
 1374              		.cfi_def_cfa_offset 24
 1375              		.cfi_offset 4, -24
 1376              		.cfi_offset 5, -20
 1377              		.cfi_offset 6, -16
 1378              		.cfi_offset 7, -12
 1379              		.cfi_offset 8, -8
 1380              		.cfi_offset 14, -4
 1381 0004 0646     		mov	r6, r0
 1382 0006 1546     		mov	r5, r2
 1383 0008 9846     		mov	r8, r3
1291:..\u8g2\csrc/u8x8_d_st75256.c ****   uint8_t x, c;
1292:..\u8g2\csrc/u8x8_d_st75256.c ****   uint8_t *ptr;
1293:..\u8g2\csrc/u8x8_d_st75256.c **** 
1294:..\u8g2\csrc/u8x8_d_st75256.c ****   switch(msg)
 1384              		.loc 1 1294 0
 1385 000a 0939     		subs	r1, r1, #9
 1386              	.LVL213:
 1387 000c 0629     		cmp	r1, #6
 1388 000e 00F2A680 		bhi	.L113
 1389 0012 DFE801F0 		tbb	[pc, r1]
 1390              	.LVL214:
 1391              	.L101:
 1392 0016 59       		.byte	(.L100-.L101)/2
 1393 0017 5F       		.byte	(.L102-.L101)/2
ARM GAS  C:\Users\brian\AppData\Local\Temp\cckfkOf3.s 			page 49


 1394 0018 68       		.byte	(.L103-.L101)/2
 1395 0019 A4       		.byte	(.L113-.L101)/2
 1396 001a 75       		.byte	(.L104-.L101)/2
 1397 001b 8A       		.byte	(.L105-.L101)/2
 1398 001c 04       		.byte	(.L106-.L101)/2
 1399 001d 00       		.p2align 1
 1400              	.L106:
1295:..\u8g2\csrc/u8x8_d_st75256.c ****   {
1296:..\u8g2\csrc/u8x8_d_st75256.c ****             case U8X8_MSG_DISPLAY_DRAW_TILE:
1297:..\u8g2\csrc/u8x8_d_st75256.c ****               
1298:..\u8g2\csrc/u8x8_d_st75256.c ****               u8x8_cad_StartTransfer(u8x8);
 1401              		.loc 1 1298 0
 1402 001e FFF7FEFF 		bl	u8x8_cad_StartTransfer
 1403              	.LVL215:
1299:..\u8g2\csrc/u8x8_d_st75256.c ****               x = ((u8x8_tile_t *)arg_ptr)->x_pos;    
 1404              		.loc 1 1299 0
 1405 0022 98F80540 		ldrb	r4, [r8, #5]	@ zero_extendqisi2
 1406              	.LVL216:
1300:..\u8g2\csrc/u8x8_d_st75256.c ****               x *= 8;
 1407              		.loc 1 1300 0
 1408 0026 E400     		lsls	r4, r4, #3
 1409              	.LVL217:
 1410 0028 E4B2     		uxtb	r4, r4
 1411              	.LVL218:
1301:..\u8g2\csrc/u8x8_d_st75256.c ****               
1302:..\u8g2\csrc/u8x8_d_st75256.c ****               u8x8_cad_SendCmd(u8x8, 0x030 );	/* select command set */
 1412              		.loc 1 1302 0
 1413 002a 3021     		movs	r1, #48
 1414 002c 3046     		mov	r0, r6
 1415 002e FFF7FEFF 		bl	u8x8_cad_SendCmd
 1416              	.LVL219:
1303:..\u8g2\csrc/u8x8_d_st75256.c ****               u8x8_cad_SendCmd(u8x8, 0x075 );	/* row */
 1417              		.loc 1 1303 0
 1418 0032 7521     		movs	r1, #117
 1419 0034 3046     		mov	r0, r6
 1420 0036 FFF7FEFF 		bl	u8x8_cad_SendCmd
 1421              	.LVL220:
1304:..\u8g2\csrc/u8x8_d_st75256.c **** 	      if ( u8x8->x_offset == 1 )		/* 1 means flip mode 1 */
 1422              		.loc 1 1304 0
 1423 003a 96F82230 		ldrb	r3, [r6, #34]	@ zero_extendqisi2
 1424 003e 012B     		cmp	r3, #1
 1425 0040 07D1     		bne	.L107
1305:..\u8g2\csrc/u8x8_d_st75256.c **** 		u8x8_cad_SendArg(u8x8, 1+(((u8x8_tile_t *)arg_ptr)->y_pos));
 1426              		.loc 1 1305 0
 1427 0042 98F80610 		ldrb	r1, [r8, #6]	@ zero_extendqisi2
 1428 0046 0131     		adds	r1, r1, #1
 1429 0048 C9B2     		uxtb	r1, r1
 1430 004a 3046     		mov	r0, r6
 1431 004c FFF7FEFF 		bl	u8x8_cad_SendArg
 1432              	.LVL221:
 1433 0050 04E0     		b	.L108
 1434              	.L107:
1306:..\u8g2\csrc/u8x8_d_st75256.c **** 	      else
1307:..\u8g2\csrc/u8x8_d_st75256.c **** 		u8x8_cad_SendArg(u8x8, (((u8x8_tile_t *)arg_ptr)->y_pos));
 1435              		.loc 1 1307 0
 1436 0052 98F80610 		ldrb	r1, [r8, #6]	@ zero_extendqisi2
 1437 0056 3046     		mov	r0, r6
ARM GAS  C:\Users\brian\AppData\Local\Temp\cckfkOf3.s 			page 50


 1438 0058 FFF7FEFF 		bl	u8x8_cad_SendArg
 1439              	.LVL222:
 1440              	.L108:
1308:..\u8g2\csrc/u8x8_d_st75256.c ****               u8x8_cad_SendArg(u8x8, 0x04f);
 1441              		.loc 1 1308 0
 1442 005c 4F21     		movs	r1, #79
 1443 005e 3046     		mov	r0, r6
 1444 0060 FFF7FEFF 		bl	u8x8_cad_SendArg
 1445              	.LVL223:
1309:..\u8g2\csrc/u8x8_d_st75256.c ****               //u8x8_cad_SendArg(u8x8, (((u8x8_tile_t *)arg_ptr)->y_pos));
1310:..\u8g2\csrc/u8x8_d_st75256.c ****               u8x8_cad_SendCmd(u8x8, 0x015 );	/* col */
 1446              		.loc 1 1310 0
 1447 0064 1521     		movs	r1, #21
 1448 0066 3046     		mov	r0, r6
 1449 0068 FFF7FEFF 		bl	u8x8_cad_SendCmd
 1450              	.LVL224:
1311:..\u8g2\csrc/u8x8_d_st75256.c ****               u8x8_cad_SendArg(u8x8, x+u8x8->display_info->default_x_offset);
 1451              		.loc 1 1311 0
 1452 006c 3368     		ldr	r3, [r6]
 1453 006e 997C     		ldrb	r1, [r3, #18]	@ zero_extendqisi2
 1454 0070 2144     		add	r1, r1, r4
 1455 0072 C9B2     		uxtb	r1, r1
 1456 0074 3046     		mov	r0, r6
 1457 0076 FFF7FEFF 		bl	u8x8_cad_SendArg
 1458              	.LVL225:
1312:..\u8g2\csrc/u8x8_d_st75256.c ****               u8x8_cad_SendArg(u8x8, 255);
 1459              		.loc 1 1312 0
 1460 007a FF21     		movs	r1, #255
 1461 007c 3046     		mov	r0, r6
 1462 007e FFF7FEFF 		bl	u8x8_cad_SendArg
 1463              	.LVL226:
1313:..\u8g2\csrc/u8x8_d_st75256.c ****               u8x8_cad_SendCmd(u8x8, 0x05c );	
 1464              		.loc 1 1313 0
 1465 0082 5C21     		movs	r1, #92
 1466 0084 3046     		mov	r0, r6
 1467 0086 FFF7FEFF 		bl	u8x8_cad_SendCmd
 1468              	.LVL227:
 1469              	.L110:
1314:..\u8g2\csrc/u8x8_d_st75256.c ****             
1315:..\u8g2\csrc/u8x8_d_st75256.c ****               
1316:..\u8g2\csrc/u8x8_d_st75256.c ****               do
1317:..\u8g2\csrc/u8x8_d_st75256.c ****               {
1318:..\u8g2\csrc/u8x8_d_st75256.c ****                 c = ((u8x8_tile_t *)arg_ptr)->cnt;
 1470              		.loc 1 1318 0
 1471 008a 98F80440 		ldrb	r4, [r8, #4]	@ zero_extendqisi2
 1472              	.LVL228:
1319:..\u8g2\csrc/u8x8_d_st75256.c ****                 ptr = ((u8x8_tile_t *)arg_ptr)->tile_ptr;
 1473              		.loc 1 1319 0
 1474 008e D8F80070 		ldr	r7, [r8]
 1475              	.LVL229:
1320:..\u8g2\csrc/u8x8_d_st75256.c **** 		/* SendData can not handle more than 255 bytes, treat c > 31 correctly  */
1321:..\u8g2\csrc/u8x8_d_st75256.c **** 		if ( c > 31 )
 1476              		.loc 1 1321 0
 1477 0092 1F2C     		cmp	r4, #31
 1478 0094 07D9     		bls	.L109
1322:..\u8g2\csrc/u8x8_d_st75256.c **** 		{
1323:..\u8g2\csrc/u8x8_d_st75256.c **** 		  u8x8_cad_SendData(u8x8, 248, ptr); 	/* 31*8=248 */
ARM GAS  C:\Users\brian\AppData\Local\Temp\cckfkOf3.s 			page 51


 1479              		.loc 1 1323 0
 1480 0096 3A46     		mov	r2, r7
 1481 0098 F821     		movs	r1, #248
 1482 009a 3046     		mov	r0, r6
 1483 009c FFF7FEFF 		bl	u8x8_cad_SendData
 1484              	.LVL230:
1324:..\u8g2\csrc/u8x8_d_st75256.c **** 		  ptr+=248;
 1485              		.loc 1 1324 0
 1486 00a0 F837     		adds	r7, r7, #248
 1487              	.LVL231:
1325:..\u8g2\csrc/u8x8_d_st75256.c **** 		  c -= 31;
 1488              		.loc 1 1325 0
 1489 00a2 1F3C     		subs	r4, r4, #31
 1490              	.LVL232:
 1491 00a4 E4B2     		uxtb	r4, r4
 1492              	.LVL233:
 1493              	.L109:
1326:..\u8g2\csrc/u8x8_d_st75256.c **** 		}
1327:..\u8g2\csrc/u8x8_d_st75256.c **** 		
1328:..\u8g2\csrc/u8x8_d_st75256.c **** 		u8x8_cad_SendData(u8x8, c*8, ptr); 	
 1494              		.loc 1 1328 0
 1495 00a6 E100     		lsls	r1, r4, #3
 1496 00a8 3A46     		mov	r2, r7
 1497 00aa 01F0F801 		and	r1, r1, #248
 1498 00ae 3046     		mov	r0, r6
 1499 00b0 FFF7FEFF 		bl	u8x8_cad_SendData
 1500              	.LVL234:
1329:..\u8g2\csrc/u8x8_d_st75256.c ****                 arg_int--;
 1501              		.loc 1 1329 0
 1502 00b4 6A1E     		subs	r2, r5, #1
 1503              	.LVL235:
1330:..\u8g2\csrc/u8x8_d_st75256.c ****               } while( arg_int > 0 );
 1504              		.loc 1 1330 0
 1505 00b6 12F0FF05 		ands	r5, r2, #255
 1506 00ba E6D1     		bne	.L110
1331:..\u8g2\csrc/u8x8_d_st75256.c ****               
1332:..\u8g2\csrc/u8x8_d_st75256.c ****               u8x8_cad_EndTransfer(u8x8);
 1507              		.loc 1 1332 0
 1508 00bc 3046     		mov	r0, r6
 1509 00be FFF7FEFF 		bl	u8x8_cad_EndTransfer
 1510              	.LVL236:
1333:..\u8g2\csrc/u8x8_d_st75256.c ****               return 1;
 1511              		.loc 1 1333 0
 1512 00c2 0120     		movs	r0, #1
 1513 00c4 BDE8F081 		pop	{r4, r5, r6, r7, r8, pc}
 1514              	.LVL237:
 1515              	.L100:
1334:..\u8g2\csrc/u8x8_d_st75256.c ****         case U8X8_MSG_DISPLAY_SETUP_MEMORY:
1335:..\u8g2\csrc/u8x8_d_st75256.c ****             //u8x8_SetI2CAddress(u8x8, 0x078);		/* lowest I2C adr of the ST75256 */
1336:..\u8g2\csrc/u8x8_d_st75256.c **** 	    u8x8_d_helper_display_setup_memory(u8x8, &u8x8_st75256_256x160_display_info);
 1516              		.loc 1 1336 0
 1517 00c8 2649     		ldr	r1, .L115
 1518 00ca FFF7FEFF 		bl	u8x8_d_helper_display_setup_memory
 1519              	.LVL238:
1337:..\u8g2\csrc/u8x8_d_st75256.c ****             return 1;
 1520              		.loc 1 1337 0
 1521 00ce 0120     		movs	r0, #1
ARM GAS  C:\Users\brian\AppData\Local\Temp\cckfkOf3.s 			page 52


 1522 00d0 BDE8F081 		pop	{r4, r5, r6, r7, r8, pc}
 1523              	.LVL239:
 1524              	.L102:
1338:..\u8g2\csrc/u8x8_d_st75256.c ****         case U8X8_MSG_DISPLAY_INIT:
1339:..\u8g2\csrc/u8x8_d_st75256.c **** 	    u8x8_d_helper_display_init(u8x8);
 1525              		.loc 1 1339 0
 1526 00d4 FFF7FEFF 		bl	u8x8_d_helper_display_init
 1527              	.LVL240:
1340:..\u8g2\csrc/u8x8_d_st75256.c **** 	    u8x8_cad_SendSequence(u8x8, u8x8_d_st75256_256x160m_init_seq);    
 1528              		.loc 1 1340 0
 1529 00d8 2349     		ldr	r1, .L115+4
 1530 00da 3046     		mov	r0, r6
 1531 00dc FFF7FEFF 		bl	u8x8_cad_SendSequence
 1532              	.LVL241:
1341:..\u8g2\csrc/u8x8_d_st75256.c ****             return 1;
 1533              		.loc 1 1341 0
 1534 00e0 0120     		movs	r0, #1
 1535 00e2 BDE8F081 		pop	{r4, r5, r6, r7, r8, pc}
 1536              	.LVL242:
 1537              	.L103:
1342:..\u8g2\csrc/u8x8_d_st75256.c ****         case U8X8_MSG_DISPLAY_SET_POWER_SAVE:
1343:..\u8g2\csrc/u8x8_d_st75256.c ****               if ( arg_int == 0 )
 1538              		.loc 1 1343 0
 1539 00e6 2AB9     		cbnz	r2, .L111
1344:..\u8g2\csrc/u8x8_d_st75256.c ****                 u8x8_cad_SendSequence(u8x8, u8x8_d_st75256_256x128_powersave0_seq);
 1540              		.loc 1 1344 0
 1541 00e8 2049     		ldr	r1, .L115+8
 1542 00ea FFF7FEFF 		bl	u8x8_cad_SendSequence
 1543              	.LVL243:
1345:..\u8g2\csrc/u8x8_d_st75256.c ****               else
1346:..\u8g2\csrc/u8x8_d_st75256.c ****                 u8x8_cad_SendSequence(u8x8, u8x8_d_st75256_256x128_powersave1_seq);
1347:..\u8g2\csrc/u8x8_d_st75256.c **** 
1348:..\u8g2\csrc/u8x8_d_st75256.c ****               return 1;
 1544              		.loc 1 1348 0
 1545 00ee 0120     		movs	r0, #1
 1546 00f0 BDE8F081 		pop	{r4, r5, r6, r7, r8, pc}
 1547              	.LVL244:
 1548              	.L111:
1346:..\u8g2\csrc/u8x8_d_st75256.c **** 
 1549              		.loc 1 1346 0
 1550 00f4 1E49     		ldr	r1, .L115+12
 1551 00f6 FFF7FEFF 		bl	u8x8_cad_SendSequence
 1552              	.LVL245:
 1553              		.loc 1 1348 0
 1554 00fa 0120     		movs	r0, #1
 1555 00fc BDE8F081 		pop	{r4, r5, r6, r7, r8, pc}
 1556              	.LVL246:
 1557              	.L104:
1349:..\u8g2\csrc/u8x8_d_st75256.c **** 	case U8X8_MSG_DISPLAY_SET_FLIP_MODE:
1350:..\u8g2\csrc/u8x8_d_st75256.c **** 	    if ( arg_int == 0 )
 1558              		.loc 1 1350 0
 1559 0100 4AB9     		cbnz	r2, .L112
1351:..\u8g2\csrc/u8x8_d_st75256.c **** 	    {
1352:..\u8g2\csrc/u8x8_d_st75256.c **** 	      u8x8_cad_SendSequence(u8x8, u8x8_d_st75256_jlx172104_flip0_seq);
 1560              		.loc 1 1352 0
 1561 0102 1C49     		ldr	r1, .L115+16
 1562 0104 FFF7FEFF 		bl	u8x8_cad_SendSequence
ARM GAS  C:\Users\brian\AppData\Local\Temp\cckfkOf3.s 			page 53


 1563              	.LVL247:
1353:..\u8g2\csrc/u8x8_d_st75256.c **** 	      u8x8->x_offset = u8x8->display_info->default_x_offset;
 1564              		.loc 1 1353 0
 1565 0108 3368     		ldr	r3, [r6]
 1566 010a 9B7C     		ldrb	r3, [r3, #18]	@ zero_extendqisi2
 1567 010c 86F82230 		strb	r3, [r6, #34]
1354:..\u8g2\csrc/u8x8_d_st75256.c **** 	    }
1355:..\u8g2\csrc/u8x8_d_st75256.c **** 	    else
1356:..\u8g2\csrc/u8x8_d_st75256.c **** 	    {
1357:..\u8g2\csrc/u8x8_d_st75256.c **** 	      u8x8_cad_SendSequence(u8x8, u8x8_d_st75256_jlx172104_flip1_seq);
1358:..\u8g2\csrc/u8x8_d_st75256.c **** 	      u8x8->x_offset = u8x8->display_info->flipmode_x_offset;
1359:..\u8g2\csrc/u8x8_d_st75256.c **** 	    }
1360:..\u8g2\csrc/u8x8_d_st75256.c **** 	    return 1;
 1568              		.loc 1 1360 0
 1569 0110 0120     		movs	r0, #1
 1570 0112 BDE8F081 		pop	{r4, r5, r6, r7, r8, pc}
 1571              	.LVL248:
 1572              	.L112:
1357:..\u8g2\csrc/u8x8_d_st75256.c **** 	      u8x8->x_offset = u8x8->display_info->flipmode_x_offset;
 1573              		.loc 1 1357 0
 1574 0116 1849     		ldr	r1, .L115+20
 1575 0118 FFF7FEFF 		bl	u8x8_cad_SendSequence
 1576              	.LVL249:
1358:..\u8g2\csrc/u8x8_d_st75256.c **** 	    }
 1577              		.loc 1 1358 0
 1578 011c 3368     		ldr	r3, [r6]
 1579 011e DB7C     		ldrb	r3, [r3, #19]	@ zero_extendqisi2
 1580 0120 86F82230 		strb	r3, [r6, #34]
 1581              		.loc 1 1360 0
 1582 0124 0120     		movs	r0, #1
 1583 0126 BDE8F081 		pop	{r4, r5, r6, r7, r8, pc}
 1584              	.LVL250:
 1585              	.L105:
1361:..\u8g2\csrc/u8x8_d_st75256.c **** 		
1362:..\u8g2\csrc/u8x8_d_st75256.c **** #ifdef U8X8_WITH_SET_CONTRAST
1363:..\u8g2\csrc/u8x8_d_st75256.c ****         case U8X8_MSG_DISPLAY_SET_CONTRAST:
1364:..\u8g2\csrc/u8x8_d_st75256.c **** 
1365:..\u8g2\csrc/u8x8_d_st75256.c ****               u8x8_cad_StartTransfer(u8x8);
 1586              		.loc 1 1365 0
 1587 012a FFF7FEFF 		bl	u8x8_cad_StartTransfer
 1588              	.LVL251:
1366:..\u8g2\csrc/u8x8_d_st75256.c ****               
1367:..\u8g2\csrc/u8x8_d_st75256.c ****               u8x8_cad_SendCmd(u8x8, 0x030 );
 1589              		.loc 1 1367 0
 1590 012e 3021     		movs	r1, #48
 1591 0130 3046     		mov	r0, r6
 1592 0132 FFF7FEFF 		bl	u8x8_cad_SendCmd
 1593              	.LVL252:
1368:..\u8g2\csrc/u8x8_d_st75256.c ****               u8x8_cad_SendCmd(u8x8, 0x081 );  /* there are 9 bit for the volume control */
 1594              		.loc 1 1368 0
 1595 0136 8121     		movs	r1, #129
 1596 0138 3046     		mov	r0, r6
 1597 013a FFF7FEFF 		bl	u8x8_cad_SendCmd
 1598              	.LVL253:
1369:..\u8g2\csrc/u8x8_d_st75256.c ****               u8x8_cad_SendArg(u8x8, (arg_int & 0x1f)<<1 );	/* lower 6 bit */
 1599              		.loc 1 1369 0
 1600 013e 6900     		lsls	r1, r5, #1
ARM GAS  C:\Users\brian\AppData\Local\Temp\cckfkOf3.s 			page 54


 1601 0140 01F03E01 		and	r1, r1, #62
 1602 0144 3046     		mov	r0, r6
 1603 0146 FFF7FEFF 		bl	u8x8_cad_SendArg
 1604              	.LVL254:
1370:..\u8g2\csrc/u8x8_d_st75256.c ****               u8x8_cad_SendArg(u8x8, (arg_int>>5));		/* upper 3 bit */
 1605              		.loc 1 1370 0
 1606 014a 6909     		lsrs	r1, r5, #5
 1607 014c 3046     		mov	r0, r6
 1608 014e FFF7FEFF 		bl	u8x8_cad_SendArg
 1609              	.LVL255:
1371:..\u8g2\csrc/u8x8_d_st75256.c ****               
1372:..\u8g2\csrc/u8x8_d_st75256.c ****               u8x8_cad_EndTransfer(u8x8);
 1610              		.loc 1 1372 0
 1611 0152 3046     		mov	r0, r6
 1612 0154 FFF7FEFF 		bl	u8x8_cad_EndTransfer
 1613              	.LVL256:
1373:..\u8g2\csrc/u8x8_d_st75256.c ****               return 1;
 1614              		.loc 1 1373 0
 1615 0158 0120     		movs	r0, #1
 1616 015a BDE8F081 		pop	{r4, r5, r6, r7, r8, pc}
 1617              	.LVL257:
 1618              	.L113:
1374:..\u8g2\csrc/u8x8_d_st75256.c **** #endif
1375:..\u8g2\csrc/u8x8_d_st75256.c ****   }
1376:..\u8g2\csrc/u8x8_d_st75256.c ****   return 0;
 1619              		.loc 1 1376 0
 1620 015e 0020     		movs	r0, #0
 1621              	.LVL258:
1377:..\u8g2\csrc/u8x8_d_st75256.c **** }
 1622              		.loc 1 1377 0
 1623 0160 BDE8F081 		pop	{r4, r5, r6, r7, r8, pc}
 1624              	.LVL259:
 1625              	.L116:
 1626              		.align	2
 1627              	.L115:
 1628 0164 EC020000 		.word	.LANCHOR0+748
 1629 0168 90030000 		.word	.LANCHOR0+912
 1630 016c 00000000 		.word	.LANCHOR0
 1631 0170 0C000000 		.word	.LANCHOR0+12
 1632 0174 50010000 		.word	.LANCHOR0+336
 1633 0178 40010000 		.word	.LANCHOR0+320
 1634              		.cfi_endproc
 1635              	.LFE7:
 1636              		.size	u8x8_d_st75256_jlx256160m, .-u8x8_d_st75256_jlx256160m
 1637              		.section	.text.u8x8_d_st75256_jlx256160_alt,"ax",%progbits
 1638              		.align	2
 1639              		.global	u8x8_d_st75256_jlx256160_alt
 1640              		.thumb
 1641              		.thumb_func
 1642              		.type	u8x8_d_st75256_jlx256160_alt, %function
 1643              	u8x8_d_st75256_jlx256160_alt:
 1644              	.LFB8:
1378:..\u8g2\csrc/u8x8_d_st75256.c **** 
1379:..\u8g2\csrc/u8x8_d_st75256.c **** 
1380:..\u8g2\csrc/u8x8_d_st75256.c **** 
1381:..\u8g2\csrc/u8x8_d_st75256.c **** 
1382:..\u8g2\csrc/u8x8_d_st75256.c **** /*=============================================*/
ARM GAS  C:\Users\brian\AppData\Local\Temp\cckfkOf3.s 			page 55


1383:..\u8g2\csrc/u8x8_d_st75256.c **** /* JLX256160 alternative version from issue #561 */
1384:..\u8g2\csrc/u8x8_d_st75256.c **** 
1385:..\u8g2\csrc/u8x8_d_st75256.c **** static const u8x8_display_info_t u8x8_st75256_256x160_alt_display_info =
1386:..\u8g2\csrc/u8x8_d_st75256.c **** {
1387:..\u8g2\csrc/u8x8_d_st75256.c ****   /* chip_enable_level = */ 0,
1388:..\u8g2\csrc/u8x8_d_st75256.c ****   /* chip_disable_level = */ 1,
1389:..\u8g2\csrc/u8x8_d_st75256.c ****   
1390:..\u8g2\csrc/u8x8_d_st75256.c ****   /* post_chip_enable_wait_ns = */ 20,
1391:..\u8g2\csrc/u8x8_d_st75256.c ****   /* pre_chip_disable_wait_ns = */ 20,
1392:..\u8g2\csrc/u8x8_d_st75256.c ****   /* reset_pulse_width_ms = */ 5, 	
1393:..\u8g2\csrc/u8x8_d_st75256.c ****   /* post_reset_wait_ms = */ 5, 		/**/
1394:..\u8g2\csrc/u8x8_d_st75256.c ****   /* sda_setup_time_ns = */ 20,		/* */
1395:..\u8g2\csrc/u8x8_d_st75256.c ****   /* sck_pulse_width_ns = */ 40,	/*  */
1396:..\u8g2\csrc/u8x8_d_st75256.c ****   /* sck_clock_hz = */ 4000000UL,	/* since Arduino 1.6.0, the SPI bus speed in Hz. Should be  10000
1397:..\u8g2\csrc/u8x8_d_st75256.c ****   /* spi_mode = */ 0,		/* active high, rising edge */
1398:..\u8g2\csrc/u8x8_d_st75256.c ****   /* i2c_bus_clock_100kHz = */ 4,	/* 400KHz */
1399:..\u8g2\csrc/u8x8_d_st75256.c ****   /* data_setup_time_ns = */ 15,
1400:..\u8g2\csrc/u8x8_d_st75256.c ****   /* write_pulse_width_ns = */ 70,	
1401:..\u8g2\csrc/u8x8_d_st75256.c ****   /* tile_width = */ 32,
1402:..\u8g2\csrc/u8x8_d_st75256.c ****   /* tile_hight = */ 20,
1403:..\u8g2\csrc/u8x8_d_st75256.c ****   /* default_x_offset = */ 0,	/*  x offset in flipmode 0 */
1404:..\u8g2\csrc/u8x8_d_st75256.c ****   /* flipmode_x_offset = */ 0,		/* */
1405:..\u8g2\csrc/u8x8_d_st75256.c ****   /* pixel_width = */ 256,
1406:..\u8g2\csrc/u8x8_d_st75256.c ****   /* pixel_height = */ 160
1407:..\u8g2\csrc/u8x8_d_st75256.c **** };
1408:..\u8g2\csrc/u8x8_d_st75256.c **** 
1409:..\u8g2\csrc/u8x8_d_st75256.c **** 
1410:..\u8g2\csrc/u8x8_d_st75256.c **** static const uint8_t u8x8_d_st75256_256x160_alt_init_seq[] = {
1411:..\u8g2\csrc/u8x8_d_st75256.c ****   U8X8_START_TRANSFER(),             	/* enable chip, delay is part of the transfer start */
1412:..\u8g2\csrc/u8x8_d_st75256.c ****   
1413:..\u8g2\csrc/u8x8_d_st75256.c ****   U8X8_DLY(20),
1414:..\u8g2\csrc/u8x8_d_st75256.c **** 
1415:..\u8g2\csrc/u8x8_d_st75256.c ****   U8X8_C( 0x030 ),				/* select 00 commands */
1416:..\u8g2\csrc/u8x8_d_st75256.c ****   U8X8_C( 0x094 ),				/* sleep out */
1417:..\u8g2\csrc/u8x8_d_st75256.c **** 
1418:..\u8g2\csrc/u8x8_d_st75256.c ****   //U8X8_C( 0x030 ),				/* select 00 commands */
1419:..\u8g2\csrc/u8x8_d_st75256.c ****   U8X8_C( 0x0ae ),				/* display off */
1420:..\u8g2\csrc/u8x8_d_st75256.c **** 
1421:..\u8g2\csrc/u8x8_d_st75256.c ****   U8X8_C( 0x031 ),				/* select 01 commands */
1422:..\u8g2\csrc/u8x8_d_st75256.c ****   U8X8_CA( 0x0d7, 0x09f ),		/* disable auto read */  
1423:..\u8g2\csrc/u8x8_d_st75256.c **** 
1424:..\u8g2\csrc/u8x8_d_st75256.c ****   //U8X8_C( 0x031 ),				/* select 01 commands */
1425:..\u8g2\csrc/u8x8_d_st75256.c ****   U8X8_C( 0x032 ),				/* analog circuit set */
1426:..\u8g2\csrc/u8x8_d_st75256.c ****   U8X8_A( 0x000 ),				/* code example: OSC Frequency adjustment */
1427:..\u8g2\csrc/u8x8_d_st75256.c ****   U8X8_A( 0x001 ),				/* Frequency on booster capacitors 1 = 6KHz? */
1428:..\u8g2\csrc/u8x8_d_st75256.c ****   U8X8_A( 0x000 ),				/* Bias: 1: 1/13, 2: 1/12, 3: 1/11, 4:1/10, 5:1/9 */
1429:..\u8g2\csrc/u8x8_d_st75256.c ****     
1430:..\u8g2\csrc/u8x8_d_st75256.c ****   //U8X8_C( 0x031 ),				/* select 01 commands */
1431:..\u8g2\csrc/u8x8_d_st75256.c ****   U8X8_C( 0x020 ),				/* gray levels */
1432:..\u8g2\csrc/u8x8_d_st75256.c ****   U8X8_A( 0x01 ),
1433:..\u8g2\csrc/u8x8_d_st75256.c ****   U8X8_A( 0x03 ),
1434:..\u8g2\csrc/u8x8_d_st75256.c ****   U8X8_A( 0x05 ),
1435:..\u8g2\csrc/u8x8_d_st75256.c ****   U8X8_A( 0x07 ),
1436:..\u8g2\csrc/u8x8_d_st75256.c ****   U8X8_A( 0x09),
1437:..\u8g2\csrc/u8x8_d_st75256.c ****   U8X8_A( 0x0b ),
1438:..\u8g2\csrc/u8x8_d_st75256.c ****   U8X8_A( 0x0d ),
1439:..\u8g2\csrc/u8x8_d_st75256.c ****   U8X8_A( 0x10 ),
ARM GAS  C:\Users\brian\AppData\Local\Temp\cckfkOf3.s 			page 56


1440:..\u8g2\csrc/u8x8_d_st75256.c ****   U8X8_A( 0x11 ),
1441:..\u8g2\csrc/u8x8_d_st75256.c ****   U8X8_A( 0x13 ),
1442:..\u8g2\csrc/u8x8_d_st75256.c ****   U8X8_A( 0x15 ),
1443:..\u8g2\csrc/u8x8_d_st75256.c ****   U8X8_A( 0x17 ),
1444:..\u8g2\csrc/u8x8_d_st75256.c ****   U8X8_A( 0x19 ),
1445:..\u8g2\csrc/u8x8_d_st75256.c ****   U8X8_A( 0x1b ),
1446:..\u8g2\csrc/u8x8_d_st75256.c ****   U8X8_A( 0x1d ),
1447:..\u8g2\csrc/u8x8_d_st75256.c ****   U8X8_A( 0x1f ),
1448:..\u8g2\csrc/u8x8_d_st75256.c ****  
1449:..\u8g2\csrc/u8x8_d_st75256.c ****   
1450:..\u8g2\csrc/u8x8_d_st75256.c ****   U8X8_C( 0x030 ),				/* select 00 commands */
1451:..\u8g2\csrc/u8x8_d_st75256.c ****   U8X8_CAA(0x75, 0, 0x4f),		/* row range */
1452:..\u8g2\csrc/u8x8_d_st75256.c ****   U8X8_CAA(0x15, 0, 255),		/* col range */
1453:..\u8g2\csrc/u8x8_d_st75256.c ****   
1454:..\u8g2\csrc/u8x8_d_st75256.c ****   //U8X8_C( 0x030 ),				/* select 00 commands */
1455:..\u8g2\csrc/u8x8_d_st75256.c ****   U8X8_CA( 0xbc, 0x02 ),			/* data scan dir */
1456:..\u8g2\csrc/u8x8_d_st75256.c ****   U8X8_A( 0xa6 ),				/* ??? */
1457:..\u8g2\csrc/u8x8_d_st75256.c **** 
1458:..\u8g2\csrc/u8x8_d_st75256.c ****   //U8X8_C( 0x030 ),				/* select 00 commands */
1459:..\u8g2\csrc/u8x8_d_st75256.c ****   U8X8_C( 0x00c ),				/* data format LSB top */
1460:..\u8g2\csrc/u8x8_d_st75256.c **** 
1461:..\u8g2\csrc/u8x8_d_st75256.c ****   //U8X8_C( 0x030 ),				/* select 00 commands */ 
1462:..\u8g2\csrc/u8x8_d_st75256.c ****   U8X8_C( 0xca ),				/* display control, 3 args follow  */
1463:..\u8g2\csrc/u8x8_d_st75256.c ****   U8X8_A( 0x00 ),				/* 0x00: no clock division, 0x04: devide clock */
1464:..\u8g2\csrc/u8x8_d_st75256.c ****   U8X8_A( 159 ),				/* 1/160 duty value from the DS example code */
1465:..\u8g2\csrc/u8x8_d_st75256.c ****   U8X8_A( 0x20 ),				/* nline off */ 
1466:..\u8g2\csrc/u8x8_d_st75256.c **** 
1467:..\u8g2\csrc/u8x8_d_st75256.c ****   //U8X8_C( 0x030 ),				/* select 00 commands */ 
1468:..\u8g2\csrc/u8x8_d_st75256.c ****   U8X8_CA( 0x0f0, 0x010 ),		/* monochrome mode  = 0x010*/
1469:..\u8g2\csrc/u8x8_d_st75256.c **** 
1470:..\u8g2\csrc/u8x8_d_st75256.c ****   //U8X8_C( 0x030 ),				/* select 00 commands */
1471:..\u8g2\csrc/u8x8_d_st75256.c ****   U8X8_CAA( 0x81, 0x18, 0x05 ),	/* Volume control */
1472:..\u8g2\csrc/u8x8_d_st75256.c **** 
1473:..\u8g2\csrc/u8x8_d_st75256.c ****   //U8X8_C( 0x030 ),				/* select 00 commands */
1474:..\u8g2\csrc/u8x8_d_st75256.c ****   U8X8_CA( 0x020, 0x00b ),		/* Power control: Regulator, follower & booster on */
1475:..\u8g2\csrc/u8x8_d_st75256.c ****   U8X8_DLY(100),
1476:..\u8g2\csrc/u8x8_d_st75256.c **** 
1477:..\u8g2\csrc/u8x8_d_st75256.c ****   U8X8_END_TRANSFER(),             	/* disable chip */
1478:..\u8g2\csrc/u8x8_d_st75256.c ****   U8X8_END()             			/* end of sequence */
1479:..\u8g2\csrc/u8x8_d_st75256.c **** };
1480:..\u8g2\csrc/u8x8_d_st75256.c **** 
1481:..\u8g2\csrc/u8x8_d_st75256.c **** 
1482:..\u8g2\csrc/u8x8_d_st75256.c **** uint8_t u8x8_d_st75256_jlx256160_alt(u8x8_t *u8x8, uint8_t msg, uint8_t arg_int, void *arg_ptr)
1483:..\u8g2\csrc/u8x8_d_st75256.c **** {
 1645              		.loc 1 1483 0
 1646              		.cfi_startproc
 1647              		@ args = 0, pretend = 0, frame = 0
 1648              		@ frame_needed = 0, uses_anonymous_args = 0
 1649              	.LVL260:
 1650 0000 2DE9F041 		push	{r4, r5, r6, r7, r8, lr}
 1651              		.cfi_def_cfa_offset 24
 1652              		.cfi_offset 4, -24
 1653              		.cfi_offset 5, -20
 1654              		.cfi_offset 6, -16
 1655              		.cfi_offset 7, -12
 1656              		.cfi_offset 8, -8
 1657              		.cfi_offset 14, -4
ARM GAS  C:\Users\brian\AppData\Local\Temp\cckfkOf3.s 			page 57


 1658 0004 0646     		mov	r6, r0
 1659 0006 1546     		mov	r5, r2
 1660 0008 9846     		mov	r8, r3
1484:..\u8g2\csrc/u8x8_d_st75256.c ****   uint8_t x, c;
1485:..\u8g2\csrc/u8x8_d_st75256.c ****   uint8_t *ptr;
1486:..\u8g2\csrc/u8x8_d_st75256.c **** 
1487:..\u8g2\csrc/u8x8_d_st75256.c ****   switch(msg)
 1661              		.loc 1 1487 0
 1662 000a 0939     		subs	r1, r1, #9
 1663              	.LVL261:
 1664 000c 0629     		cmp	r1, #6
 1665 000e 00F2A580 		bhi	.L132
 1666 0012 DFE801F0 		tbb	[pc, r1]
 1667              	.LVL262:
 1668              	.L120:
 1669 0016 58       		.byte	(.L119-.L120)/2
 1670 0017 5E       		.byte	(.L121-.L120)/2
 1671 0018 67       		.byte	(.L122-.L120)/2
 1672 0019 A3       		.byte	(.L132-.L120)/2
 1673 001a 74       		.byte	(.L123-.L120)/2
 1674 001b 89       		.byte	(.L124-.L120)/2
 1675 001c 04       		.byte	(.L125-.L120)/2
 1676 001d 00       		.p2align 1
 1677              	.L125:
1488:..\u8g2\csrc/u8x8_d_st75256.c ****   {
1489:..\u8g2\csrc/u8x8_d_st75256.c ****             case U8X8_MSG_DISPLAY_DRAW_TILE:
1490:..\u8g2\csrc/u8x8_d_st75256.c ****               
1491:..\u8g2\csrc/u8x8_d_st75256.c ****               u8x8_cad_StartTransfer(u8x8);
 1678              		.loc 1 1491 0
 1679 001e FFF7FEFF 		bl	u8x8_cad_StartTransfer
 1680              	.LVL263:
1492:..\u8g2\csrc/u8x8_d_st75256.c ****               x = ((u8x8_tile_t *)arg_ptr)->x_pos;    
 1681              		.loc 1 1492 0
 1682 0022 98F80540 		ldrb	r4, [r8, #5]	@ zero_extendqisi2
 1683              	.LVL264:
1493:..\u8g2\csrc/u8x8_d_st75256.c ****               x *= 8;
 1684              		.loc 1 1493 0
 1685 0026 E400     		lsls	r4, r4, #3
 1686              	.LVL265:
 1687 0028 E4B2     		uxtb	r4, r4
 1688              	.LVL266:
1494:..\u8g2\csrc/u8x8_d_st75256.c ****               
1495:..\u8g2\csrc/u8x8_d_st75256.c ****               u8x8_cad_SendCmd(u8x8, 0x030 );	/* select command set */
 1689              		.loc 1 1495 0
 1690 002a 3021     		movs	r1, #48
 1691 002c 3046     		mov	r0, r6
 1692 002e FFF7FEFF 		bl	u8x8_cad_SendCmd
 1693              	.LVL267:
1496:..\u8g2\csrc/u8x8_d_st75256.c ****               u8x8_cad_SendCmd(u8x8, 0x075 );	/* row */
 1694              		.loc 1 1496 0
 1695 0032 7521     		movs	r1, #117
 1696 0034 3046     		mov	r0, r6
 1697 0036 FFF7FEFF 		bl	u8x8_cad_SendCmd
 1698              	.LVL268:
1497:..\u8g2\csrc/u8x8_d_st75256.c **** 	      if ( u8x8->x_offset == 0 )		/* 0 means flip mode 1 */
 1699              		.loc 1 1497 0
 1700 003a 96F82230 		ldrb	r3, [r6, #34]	@ zero_extendqisi2
ARM GAS  C:\Users\brian\AppData\Local\Temp\cckfkOf3.s 			page 58


 1701 003e 3BB9     		cbnz	r3, .L126
1498:..\u8g2\csrc/u8x8_d_st75256.c **** 		u8x8_cad_SendArg(u8x8, 1+(((u8x8_tile_t *)arg_ptr)->y_pos));
 1702              		.loc 1 1498 0
 1703 0040 98F80610 		ldrb	r1, [r8, #6]	@ zero_extendqisi2
 1704 0044 0131     		adds	r1, r1, #1
 1705 0046 C9B2     		uxtb	r1, r1
 1706 0048 3046     		mov	r0, r6
 1707 004a FFF7FEFF 		bl	u8x8_cad_SendArg
 1708              	.LVL269:
 1709 004e 04E0     		b	.L127
 1710              	.L126:
1499:..\u8g2\csrc/u8x8_d_st75256.c **** 	      else
1500:..\u8g2\csrc/u8x8_d_st75256.c **** 		u8x8_cad_SendArg(u8x8, (((u8x8_tile_t *)arg_ptr)->y_pos));
 1711              		.loc 1 1500 0
 1712 0050 98F80610 		ldrb	r1, [r8, #6]	@ zero_extendqisi2
 1713 0054 3046     		mov	r0, r6
 1714 0056 FFF7FEFF 		bl	u8x8_cad_SendArg
 1715              	.LVL270:
 1716              	.L127:
1501:..\u8g2\csrc/u8x8_d_st75256.c ****               u8x8_cad_SendArg(u8x8, 0x04f);
 1717              		.loc 1 1501 0
 1718 005a 4F21     		movs	r1, #79
 1719 005c 3046     		mov	r0, r6
 1720 005e FFF7FEFF 		bl	u8x8_cad_SendArg
 1721              	.LVL271:
1502:..\u8g2\csrc/u8x8_d_st75256.c ****               //u8x8_cad_SendArg(u8x8, (((u8x8_tile_t *)arg_ptr)->y_pos));
1503:..\u8g2\csrc/u8x8_d_st75256.c ****               u8x8_cad_SendCmd(u8x8, 0x015 );	/* col */
 1722              		.loc 1 1503 0
 1723 0062 1521     		movs	r1, #21
 1724 0064 3046     		mov	r0, r6
 1725 0066 FFF7FEFF 		bl	u8x8_cad_SendCmd
 1726              	.LVL272:
1504:..\u8g2\csrc/u8x8_d_st75256.c ****               u8x8_cad_SendArg(u8x8, x+u8x8->x_offset);
 1727              		.loc 1 1504 0
 1728 006a 96F82210 		ldrb	r1, [r6, #34]	@ zero_extendqisi2
 1729 006e 2144     		add	r1, r1, r4
 1730 0070 C9B2     		uxtb	r1, r1
 1731 0072 3046     		mov	r0, r6
 1732 0074 FFF7FEFF 		bl	u8x8_cad_SendArg
 1733              	.LVL273:
1505:..\u8g2\csrc/u8x8_d_st75256.c ****               u8x8_cad_SendArg(u8x8, 255);
 1734              		.loc 1 1505 0
 1735 0078 FF21     		movs	r1, #255
 1736 007a 3046     		mov	r0, r6
 1737 007c FFF7FEFF 		bl	u8x8_cad_SendArg
 1738              	.LVL274:
1506:..\u8g2\csrc/u8x8_d_st75256.c ****               u8x8_cad_SendCmd(u8x8, 0x05c );	
 1739              		.loc 1 1506 0
 1740 0080 5C21     		movs	r1, #92
 1741 0082 3046     		mov	r0, r6
 1742 0084 FFF7FEFF 		bl	u8x8_cad_SendCmd
 1743              	.LVL275:
 1744              	.L129:
1507:..\u8g2\csrc/u8x8_d_st75256.c ****             
1508:..\u8g2\csrc/u8x8_d_st75256.c ****               
1509:..\u8g2\csrc/u8x8_d_st75256.c ****               do
1510:..\u8g2\csrc/u8x8_d_st75256.c ****               {
ARM GAS  C:\Users\brian\AppData\Local\Temp\cckfkOf3.s 			page 59


1511:..\u8g2\csrc/u8x8_d_st75256.c ****                 c = ((u8x8_tile_t *)arg_ptr)->cnt;
 1745              		.loc 1 1511 0
 1746 0088 98F80440 		ldrb	r4, [r8, #4]	@ zero_extendqisi2
 1747              	.LVL276:
1512:..\u8g2\csrc/u8x8_d_st75256.c ****                 ptr = ((u8x8_tile_t *)arg_ptr)->tile_ptr;
 1748              		.loc 1 1512 0
 1749 008c D8F80070 		ldr	r7, [r8]
 1750              	.LVL277:
1513:..\u8g2\csrc/u8x8_d_st75256.c **** 		/* SendData can not handle more than 255 bytes, treat c > 31 correctly  */
1514:..\u8g2\csrc/u8x8_d_st75256.c **** 		if ( c > 31 )
 1751              		.loc 1 1514 0
 1752 0090 1F2C     		cmp	r4, #31
 1753 0092 07D9     		bls	.L128
1515:..\u8g2\csrc/u8x8_d_st75256.c **** 		{
1516:..\u8g2\csrc/u8x8_d_st75256.c **** 		  u8x8_cad_SendData(u8x8, 248, ptr); 	/* 31*8=248 */
 1754              		.loc 1 1516 0
 1755 0094 3A46     		mov	r2, r7
 1756 0096 F821     		movs	r1, #248
 1757 0098 3046     		mov	r0, r6
 1758 009a FFF7FEFF 		bl	u8x8_cad_SendData
 1759              	.LVL278:
1517:..\u8g2\csrc/u8x8_d_st75256.c **** 		  ptr+=248;
 1760              		.loc 1 1517 0
 1761 009e F837     		adds	r7, r7, #248
 1762              	.LVL279:
1518:..\u8g2\csrc/u8x8_d_st75256.c **** 		  c -= 31;
 1763              		.loc 1 1518 0
 1764 00a0 1F3C     		subs	r4, r4, #31
 1765              	.LVL280:
 1766 00a2 E4B2     		uxtb	r4, r4
 1767              	.LVL281:
 1768              	.L128:
1519:..\u8g2\csrc/u8x8_d_st75256.c **** 		}
1520:..\u8g2\csrc/u8x8_d_st75256.c **** 		
1521:..\u8g2\csrc/u8x8_d_st75256.c **** 		u8x8_cad_SendData(u8x8, c*8, ptr); 	
 1769              		.loc 1 1521 0
 1770 00a4 E100     		lsls	r1, r4, #3
 1771 00a6 3A46     		mov	r2, r7
 1772 00a8 01F0F801 		and	r1, r1, #248
 1773 00ac 3046     		mov	r0, r6
 1774 00ae FFF7FEFF 		bl	u8x8_cad_SendData
 1775              	.LVL282:
1522:..\u8g2\csrc/u8x8_d_st75256.c ****                 arg_int--;
 1776              		.loc 1 1522 0
 1777 00b2 6A1E     		subs	r2, r5, #1
 1778              	.LVL283:
1523:..\u8g2\csrc/u8x8_d_st75256.c ****               } while( arg_int > 0 );
 1779              		.loc 1 1523 0
 1780 00b4 12F0FF05 		ands	r5, r2, #255
 1781 00b8 E6D1     		bne	.L129
1524:..\u8g2\csrc/u8x8_d_st75256.c ****               
1525:..\u8g2\csrc/u8x8_d_st75256.c ****               u8x8_cad_EndTransfer(u8x8);
 1782              		.loc 1 1525 0
 1783 00ba 3046     		mov	r0, r6
 1784 00bc FFF7FEFF 		bl	u8x8_cad_EndTransfer
 1785              	.LVL284:
1526:..\u8g2\csrc/u8x8_d_st75256.c ****               return 1;
ARM GAS  C:\Users\brian\AppData\Local\Temp\cckfkOf3.s 			page 60


 1786              		.loc 1 1526 0
 1787 00c0 0120     		movs	r0, #1
 1788 00c2 BDE8F081 		pop	{r4, r5, r6, r7, r8, pc}
 1789              	.LVL285:
 1790              	.L119:
1527:..\u8g2\csrc/u8x8_d_st75256.c ****         case U8X8_MSG_DISPLAY_SETUP_MEMORY:
1528:..\u8g2\csrc/u8x8_d_st75256.c ****             //u8x8_SetI2CAddress(u8x8, 0x078);		/* lowest I2C adr of the ST75256 */
1529:..\u8g2\csrc/u8x8_d_st75256.c **** 	    u8x8_d_helper_display_setup_memory(u8x8, &u8x8_st75256_256x160_alt_display_info);
 1791              		.loc 1 1529 0
 1792 00c6 2749     		ldr	r1, .L134
 1793 00c8 FFF7FEFF 		bl	u8x8_d_helper_display_setup_memory
 1794              	.LVL286:
1530:..\u8g2\csrc/u8x8_d_st75256.c ****             return 1;
 1795              		.loc 1 1530 0
 1796 00cc 0120     		movs	r0, #1
 1797 00ce BDE8F081 		pop	{r4, r5, r6, r7, r8, pc}
 1798              	.LVL287:
 1799              	.L121:
1531:..\u8g2\csrc/u8x8_d_st75256.c ****         case U8X8_MSG_DISPLAY_INIT:
1532:..\u8g2\csrc/u8x8_d_st75256.c **** 	    u8x8_d_helper_display_init(u8x8);
 1800              		.loc 1 1532 0
 1801 00d2 FFF7FEFF 		bl	u8x8_d_helper_display_init
 1802              	.LVL288:
1533:..\u8g2\csrc/u8x8_d_st75256.c **** 	    u8x8_cad_SendSequence(u8x8, u8x8_d_st75256_256x160_alt_init_seq);    
 1803              		.loc 1 1533 0
 1804 00d6 2449     		ldr	r1, .L134+4
 1805 00d8 3046     		mov	r0, r6
 1806 00da FFF7FEFF 		bl	u8x8_cad_SendSequence
 1807              	.LVL289:
1534:..\u8g2\csrc/u8x8_d_st75256.c ****             return 1;
 1808              		.loc 1 1534 0
 1809 00de 0120     		movs	r0, #1
 1810 00e0 BDE8F081 		pop	{r4, r5, r6, r7, r8, pc}
 1811              	.LVL290:
 1812              	.L122:
1535:..\u8g2\csrc/u8x8_d_st75256.c ****         case U8X8_MSG_DISPLAY_SET_POWER_SAVE:
1536:..\u8g2\csrc/u8x8_d_st75256.c ****               if ( arg_int == 0 )
 1813              		.loc 1 1536 0
 1814 00e4 2AB9     		cbnz	r2, .L130
1537:..\u8g2\csrc/u8x8_d_st75256.c ****                 u8x8_cad_SendSequence(u8x8, u8x8_d_st75256_256x128_powersave0_seq);
 1815              		.loc 1 1537 0
 1816 00e6 2149     		ldr	r1, .L134+8
 1817 00e8 FFF7FEFF 		bl	u8x8_cad_SendSequence
 1818              	.LVL291:
1538:..\u8g2\csrc/u8x8_d_st75256.c ****               else
1539:..\u8g2\csrc/u8x8_d_st75256.c ****                 u8x8_cad_SendSequence(u8x8, u8x8_d_st75256_256x128_powersave1_seq);
1540:..\u8g2\csrc/u8x8_d_st75256.c **** 
1541:..\u8g2\csrc/u8x8_d_st75256.c ****               return 1;
 1819              		.loc 1 1541 0
 1820 00ec 0120     		movs	r0, #1
 1821 00ee BDE8F081 		pop	{r4, r5, r6, r7, r8, pc}
 1822              	.LVL292:
 1823              	.L130:
1539:..\u8g2\csrc/u8x8_d_st75256.c **** 
 1824              		.loc 1 1539 0
 1825 00f2 1F49     		ldr	r1, .L134+12
 1826 00f4 FFF7FEFF 		bl	u8x8_cad_SendSequence
ARM GAS  C:\Users\brian\AppData\Local\Temp\cckfkOf3.s 			page 61


 1827              	.LVL293:
 1828              		.loc 1 1541 0
 1829 00f8 0120     		movs	r0, #1
 1830 00fa BDE8F081 		pop	{r4, r5, r6, r7, r8, pc}
 1831              	.LVL294:
 1832              	.L123:
1542:..\u8g2\csrc/u8x8_d_st75256.c **** 	case U8X8_MSG_DISPLAY_SET_FLIP_MODE:
1543:..\u8g2\csrc/u8x8_d_st75256.c **** 	    if ( arg_int == 0 )
 1833              		.loc 1 1543 0
 1834 00fe 4AB9     		cbnz	r2, .L131
1544:..\u8g2\csrc/u8x8_d_st75256.c **** 	    {
1545:..\u8g2\csrc/u8x8_d_st75256.c **** 	      u8x8_cad_SendSequence(u8x8, u8x8_d_st75256_jlx172104_flip0_seq);
 1835              		.loc 1 1545 0
 1836 0100 1C49     		ldr	r1, .L134+16
 1837 0102 FFF7FEFF 		bl	u8x8_cad_SendSequence
 1838              	.LVL295:
1546:..\u8g2\csrc/u8x8_d_st75256.c **** 	      u8x8->x_offset = u8x8->display_info->default_x_offset;
 1839              		.loc 1 1546 0
 1840 0106 3368     		ldr	r3, [r6]
 1841 0108 9B7C     		ldrb	r3, [r3, #18]	@ zero_extendqisi2
 1842 010a 86F82230 		strb	r3, [r6, #34]
1547:..\u8g2\csrc/u8x8_d_st75256.c **** 	    }
1548:..\u8g2\csrc/u8x8_d_st75256.c **** 	    else
1549:..\u8g2\csrc/u8x8_d_st75256.c **** 	    {
1550:..\u8g2\csrc/u8x8_d_st75256.c **** 	      u8x8_cad_SendSequence(u8x8, u8x8_d_st75256_jlx172104_flip1_seq);
1551:..\u8g2\csrc/u8x8_d_st75256.c **** 	      u8x8->x_offset = u8x8->display_info->flipmode_x_offset;
1552:..\u8g2\csrc/u8x8_d_st75256.c **** 	    }
1553:..\u8g2\csrc/u8x8_d_st75256.c **** 	    return 1;
 1843              		.loc 1 1553 0
 1844 010e 0120     		movs	r0, #1
 1845 0110 BDE8F081 		pop	{r4, r5, r6, r7, r8, pc}
 1846              	.LVL296:
 1847              	.L131:
1550:..\u8g2\csrc/u8x8_d_st75256.c **** 	      u8x8->x_offset = u8x8->display_info->flipmode_x_offset;
 1848              		.loc 1 1550 0
 1849 0114 1849     		ldr	r1, .L134+20
 1850 0116 FFF7FEFF 		bl	u8x8_cad_SendSequence
 1851              	.LVL297:
1551:..\u8g2\csrc/u8x8_d_st75256.c **** 	    }
 1852              		.loc 1 1551 0
 1853 011a 3368     		ldr	r3, [r6]
 1854 011c DB7C     		ldrb	r3, [r3, #19]	@ zero_extendqisi2
 1855 011e 86F82230 		strb	r3, [r6, #34]
 1856              		.loc 1 1553 0
 1857 0122 0120     		movs	r0, #1
 1858 0124 BDE8F081 		pop	{r4, r5, r6, r7, r8, pc}
 1859              	.LVL298:
 1860              	.L124:
1554:..\u8g2\csrc/u8x8_d_st75256.c **** 		
1555:..\u8g2\csrc/u8x8_d_st75256.c **** #ifdef U8X8_WITH_SET_CONTRAST
1556:..\u8g2\csrc/u8x8_d_st75256.c ****         case U8X8_MSG_DISPLAY_SET_CONTRAST:
1557:..\u8g2\csrc/u8x8_d_st75256.c **** 
1558:..\u8g2\csrc/u8x8_d_st75256.c ****               u8x8_cad_StartTransfer(u8x8);
 1861              		.loc 1 1558 0
 1862 0128 FFF7FEFF 		bl	u8x8_cad_StartTransfer
 1863              	.LVL299:
1559:..\u8g2\csrc/u8x8_d_st75256.c ****               
ARM GAS  C:\Users\brian\AppData\Local\Temp\cckfkOf3.s 			page 62


1560:..\u8g2\csrc/u8x8_d_st75256.c ****               u8x8_cad_SendCmd(u8x8, 0x030 );
 1864              		.loc 1 1560 0
 1865 012c 3021     		movs	r1, #48
 1866 012e 3046     		mov	r0, r6
 1867 0130 FFF7FEFF 		bl	u8x8_cad_SendCmd
 1868              	.LVL300:
1561:..\u8g2\csrc/u8x8_d_st75256.c ****               u8x8_cad_SendCmd(u8x8, 0x081 );  /* there are 9 bit for the volume control */
 1869              		.loc 1 1561 0
 1870 0134 8121     		movs	r1, #129
 1871 0136 3046     		mov	r0, r6
 1872 0138 FFF7FEFF 		bl	u8x8_cad_SendCmd
 1873              	.LVL301:
1562:..\u8g2\csrc/u8x8_d_st75256.c ****               u8x8_cad_SendArg(u8x8, (arg_int & 0x1f)<<1 );	/* lower 6 bit */
 1874              		.loc 1 1562 0
 1875 013c 6900     		lsls	r1, r5, #1
 1876 013e 01F03E01 		and	r1, r1, #62
 1877 0142 3046     		mov	r0, r6
 1878 0144 FFF7FEFF 		bl	u8x8_cad_SendArg
 1879              	.LVL302:
1563:..\u8g2\csrc/u8x8_d_st75256.c ****               u8x8_cad_SendArg(u8x8, (arg_int>>5));		/* upper 3 bit */
 1880              		.loc 1 1563 0
 1881 0148 6909     		lsrs	r1, r5, #5
 1882 014a 3046     		mov	r0, r6
 1883 014c FFF7FEFF 		bl	u8x8_cad_SendArg
 1884              	.LVL303:
1564:..\u8g2\csrc/u8x8_d_st75256.c ****               
1565:..\u8g2\csrc/u8x8_d_st75256.c ****               u8x8_cad_EndTransfer(u8x8);
 1885              		.loc 1 1565 0
 1886 0150 3046     		mov	r0, r6
 1887 0152 FFF7FEFF 		bl	u8x8_cad_EndTransfer
 1888              	.LVL304:
1566:..\u8g2\csrc/u8x8_d_st75256.c ****               return 1;
 1889              		.loc 1 1566 0
 1890 0156 0120     		movs	r0, #1
 1891 0158 BDE8F081 		pop	{r4, r5, r6, r7, r8, pc}
 1892              	.LVL305:
 1893              	.L132:
1567:..\u8g2\csrc/u8x8_d_st75256.c **** #endif
1568:..\u8g2\csrc/u8x8_d_st75256.c ****   }
1569:..\u8g2\csrc/u8x8_d_st75256.c ****   return 0;
 1894              		.loc 1 1569 0
 1895 015c 0020     		movs	r0, #0
 1896              	.LVL306:
1570:..\u8g2\csrc/u8x8_d_st75256.c **** 
1571:..\u8g2\csrc/u8x8_d_st75256.c **** } 
 1897              		.loc 1 1571 0
 1898 015e BDE8F081 		pop	{r4, r5, r6, r7, r8, pc}
 1899              	.LVL307:
 1900              	.L135:
 1901 0162 00BF     		.align	2
 1902              	.L134:
 1903 0164 FC030000 		.word	.LANCHOR0+1020
 1904 0168 14040000 		.word	.LANCHOR0+1044
 1905 016c 00000000 		.word	.LANCHOR0
 1906 0170 0C000000 		.word	.LANCHOR0+12
 1907 0174 50010000 		.word	.LANCHOR0+336
 1908 0178 40010000 		.word	.LANCHOR0+320
ARM GAS  C:\Users\brian\AppData\Local\Temp\cckfkOf3.s 			page 63


 1909              		.cfi_endproc
 1910              	.LFE8:
 1911              		.size	u8x8_d_st75256_jlx256160_alt, .-u8x8_d_st75256_jlx256160_alt
 1912              		.section	.text.u8x8_d_st75256_jlx19296,"ax",%progbits
 1913              		.align	2
 1914              		.global	u8x8_d_st75256_jlx19296
 1915              		.thumb
 1916              		.thumb_func
 1917              		.type	u8x8_d_st75256_jlx19296, %function
 1918              	u8x8_d_st75256_jlx19296:
 1919              	.LFB9:
1572:..\u8g2\csrc/u8x8_d_st75256.c **** 
1573:..\u8g2\csrc/u8x8_d_st75256.c **** 
1574:..\u8g2\csrc/u8x8_d_st75256.c **** /*=============================================*/
1575:..\u8g2\csrc/u8x8_d_st75256.c **** /* JLX19296 LCD */
1576:..\u8g2\csrc/u8x8_d_st75256.c **** 
1577:..\u8g2\csrc/u8x8_d_st75256.c **** static const u8x8_display_info_t u8x8_st75256_192x96_display_info =
1578:..\u8g2\csrc/u8x8_d_st75256.c **** {
1579:..\u8g2\csrc/u8x8_d_st75256.c ****   /* chip_enable_level = */ 0,
1580:..\u8g2\csrc/u8x8_d_st75256.c ****   /* chip_disable_level = */ 1,
1581:..\u8g2\csrc/u8x8_d_st75256.c ****   
1582:..\u8g2\csrc/u8x8_d_st75256.c ****   /* post_chip_enable_wait_ns = */ 20,
1583:..\u8g2\csrc/u8x8_d_st75256.c ****   /* pre_chip_disable_wait_ns = */ 20,
1584:..\u8g2\csrc/u8x8_d_st75256.c ****   /* reset_pulse_width_ms = */ 5, 	
1585:..\u8g2\csrc/u8x8_d_st75256.c ****   /* post_reset_wait_ms = */ 5, 		/**/
1586:..\u8g2\csrc/u8x8_d_st75256.c ****   /* sda_setup_time_ns = */ 20,		/* */
1587:..\u8g2\csrc/u8x8_d_st75256.c ****   /* sck_pulse_width_ns = */ 40,	/*  */
1588:..\u8g2\csrc/u8x8_d_st75256.c ****   /* sck_clock_hz = */ 4000000UL,	/* since Arduino 1.6.0, the SPI bus speed in Hz. Should be  10000
1589:..\u8g2\csrc/u8x8_d_st75256.c ****   /* spi_mode = */ 0,		/* active high, rising edge */
1590:..\u8g2\csrc/u8x8_d_st75256.c ****   /* i2c_bus_clock_100kHz = */ 4,	/* 400KHz */
1591:..\u8g2\csrc/u8x8_d_st75256.c ****   /* data_setup_time_ns = */ 15,
1592:..\u8g2\csrc/u8x8_d_st75256.c ****   /* write_pulse_width_ns = */ 70,	
1593:..\u8g2\csrc/u8x8_d_st75256.c ****   /* tile_width = */ 24,	
1594:..\u8g2\csrc/u8x8_d_st75256.c ****   /* tile_hight = */ 12,
1595:..\u8g2\csrc/u8x8_d_st75256.c ****   /* default_x_offset = */ 0,	/*  */
1596:..\u8g2\csrc/u8x8_d_st75256.c ****   /* flipmode_x_offset = */ 64,
1597:..\u8g2\csrc/u8x8_d_st75256.c ****   /* pixel_width = */ 192,
1598:..\u8g2\csrc/u8x8_d_st75256.c ****   /* pixel_height = */ 96
1599:..\u8g2\csrc/u8x8_d_st75256.c **** };
1600:..\u8g2\csrc/u8x8_d_st75256.c **** 
1601:..\u8g2\csrc/u8x8_d_st75256.c **** static const uint8_t u8x8_d_st75256_jlx19296_init_seq[] = {
1602:..\u8g2\csrc/u8x8_d_st75256.c ****   U8X8_START_TRANSFER(),             	/* enable chip, delay is part of the transfer start */
1603:..\u8g2\csrc/u8x8_d_st75256.c ****   
1604:..\u8g2\csrc/u8x8_d_st75256.c ****   U8X8_DLY(20),
1605:..\u8g2\csrc/u8x8_d_st75256.c **** 
1606:..\u8g2\csrc/u8x8_d_st75256.c ****   U8X8_C( 0x030 ),				/* select 00 commands */
1607:..\u8g2\csrc/u8x8_d_st75256.c ****   U8X8_C( 0x094 ),				/* sleep out */
1608:..\u8g2\csrc/u8x8_d_st75256.c **** 
1609:..\u8g2\csrc/u8x8_d_st75256.c ****   //U8X8_C( 0x030 ),				/* select 00 commands */
1610:..\u8g2\csrc/u8x8_d_st75256.c ****   U8X8_C( 0x0ae ),				/* display off */
1611:..\u8g2\csrc/u8x8_d_st75256.c **** 
1612:..\u8g2\csrc/u8x8_d_st75256.c ****   U8X8_C( 0x031 ),				/* select 01 commands */
1613:..\u8g2\csrc/u8x8_d_st75256.c ****   U8X8_CA( 0x0d7, 0x09f ),		/* disable auto read */  
1614:..\u8g2\csrc/u8x8_d_st75256.c **** 
1615:..\u8g2\csrc/u8x8_d_st75256.c ****   //U8X8_C( 0x031 ),				/* select 01 commands */
1616:..\u8g2\csrc/u8x8_d_st75256.c ****   U8X8_C( 0x032 ),				/* analog circuit set */
1617:..\u8g2\csrc/u8x8_d_st75256.c ****   U8X8_A( 0x000 ),				/* code example: OSC Frequency adjustment */
ARM GAS  C:\Users\brian\AppData\Local\Temp\cckfkOf3.s 			page 64


1618:..\u8g2\csrc/u8x8_d_st75256.c ****   U8X8_A( 0x001 ),				/* Frequency on booster capacitors 1 = 6KHz? */
1619:..\u8g2\csrc/u8x8_d_st75256.c ****   U8X8_A( 0x003 ),				/* Bias: 1: 1/13, 2: 1/12, 3: 1/11, 4:1/10, 5:1/9 */
1620:..\u8g2\csrc/u8x8_d_st75256.c ****     
1621:..\u8g2\csrc/u8x8_d_st75256.c ****   //U8X8_C( 0x031 ),				/* select 01 commands */
1622:..\u8g2\csrc/u8x8_d_st75256.c ****   U8X8_C( 0x020 ),				/* gray levels */
1623:..\u8g2\csrc/u8x8_d_st75256.c ****   U8X8_A( 0x01 ),
1624:..\u8g2\csrc/u8x8_d_st75256.c ****   U8X8_A( 0x03 ),
1625:..\u8g2\csrc/u8x8_d_st75256.c ****   U8X8_A( 0x05 ),
1626:..\u8g2\csrc/u8x8_d_st75256.c ****   U8X8_A( 0x07 ),
1627:..\u8g2\csrc/u8x8_d_st75256.c ****   U8X8_A( 0x09),
1628:..\u8g2\csrc/u8x8_d_st75256.c ****   U8X8_A( 0x0b ),
1629:..\u8g2\csrc/u8x8_d_st75256.c ****   U8X8_A( 0x0d ),
1630:..\u8g2\csrc/u8x8_d_st75256.c ****   U8X8_A( 0x10 ),
1631:..\u8g2\csrc/u8x8_d_st75256.c ****   U8X8_A( 0x11 ),
1632:..\u8g2\csrc/u8x8_d_st75256.c ****   U8X8_A( 0x13 ),
1633:..\u8g2\csrc/u8x8_d_st75256.c ****   U8X8_A( 0x15 ),
1634:..\u8g2\csrc/u8x8_d_st75256.c ****   U8X8_A( 0x17 ),
1635:..\u8g2\csrc/u8x8_d_st75256.c ****   U8X8_A( 0x19 ),
1636:..\u8g2\csrc/u8x8_d_st75256.c ****   U8X8_A( 0x1b ),
1637:..\u8g2\csrc/u8x8_d_st75256.c ****   U8X8_A( 0x1d ),
1638:..\u8g2\csrc/u8x8_d_st75256.c ****   U8X8_A( 0x1f ),
1639:..\u8g2\csrc/u8x8_d_st75256.c ****  
1640:..\u8g2\csrc/u8x8_d_st75256.c ****   
1641:..\u8g2\csrc/u8x8_d_st75256.c ****   U8X8_C( 0x030 ),				/* select 00 commands */
1642:..\u8g2\csrc/u8x8_d_st75256.c ****   U8X8_CAA(0x75, 0, 0x4f),		/* row range */
1643:..\u8g2\csrc/u8x8_d_st75256.c ****   U8X8_CAA(0x15, 0, 255),		/* col range */
1644:..\u8g2\csrc/u8x8_d_st75256.c ****   
1645:..\u8g2\csrc/u8x8_d_st75256.c ****   //U8X8_C( 0x030 ),				/* select 00 commands */
1646:..\u8g2\csrc/u8x8_d_st75256.c ****   U8X8_CA( 0xbc, 0x00 ),			/* data scan dir */
1647:..\u8g2\csrc/u8x8_d_st75256.c ****   U8X8_A( 0xa6 ),				/* ??? */
1648:..\u8g2\csrc/u8x8_d_st75256.c **** 
1649:..\u8g2\csrc/u8x8_d_st75256.c ****   //U8X8_C( 0x030 ),				/* select 00 commands */
1650:..\u8g2\csrc/u8x8_d_st75256.c ****   U8X8_C( 0x00c ),				/* data format LSB top */
1651:..\u8g2\csrc/u8x8_d_st75256.c **** 
1652:..\u8g2\csrc/u8x8_d_st75256.c ****   //U8X8_C( 0x030 ),				/* select 00 commands */ 
1653:..\u8g2\csrc/u8x8_d_st75256.c ****   U8X8_C( 0xca ),				/* display control, 3 args follow  */
1654:..\u8g2\csrc/u8x8_d_st75256.c ****   U8X8_A( 0x00 ),				/* 0x00: no clock division, 0x04: devide clock */
1655:..\u8g2\csrc/u8x8_d_st75256.c ****   U8X8_A( 0x9f ),				/* 1/160 duty value from the DS example code */
1656:..\u8g2\csrc/u8x8_d_st75256.c ****   U8X8_A( 0x20 ),				/* nline off */ 
1657:..\u8g2\csrc/u8x8_d_st75256.c **** 
1658:..\u8g2\csrc/u8x8_d_st75256.c ****   //U8X8_C( 0x030 ),				/* select 00 commands */ 
1659:..\u8g2\csrc/u8x8_d_st75256.c ****   U8X8_CA( 0x0f0, 0x010 ),		/* monochrome mode  = 0x010*/
1660:..\u8g2\csrc/u8x8_d_st75256.c **** 
1661:..\u8g2\csrc/u8x8_d_st75256.c ****   //U8X8_C( 0x030 ),				/* select 00 commands */
1662:..\u8g2\csrc/u8x8_d_st75256.c ****   U8X8_CAA( 0x81, 0x2e, 0x03 ),	/* Volume control */
1663:..\u8g2\csrc/u8x8_d_st75256.c **** 
1664:..\u8g2\csrc/u8x8_d_st75256.c ****   //U8X8_C( 0x030 ),				/* select 00 commands */
1665:..\u8g2\csrc/u8x8_d_st75256.c ****   U8X8_CA( 0x020, 0x00b ),		/* Power control: Regulator, follower & booster on */
1666:..\u8g2\csrc/u8x8_d_st75256.c ****   U8X8_DLY(100),
1667:..\u8g2\csrc/u8x8_d_st75256.c **** 
1668:..\u8g2\csrc/u8x8_d_st75256.c ****   U8X8_END_TRANSFER(),             	/* disable chip */
1669:..\u8g2\csrc/u8x8_d_st75256.c ****   U8X8_END()             			/* end of sequence */
1670:..\u8g2\csrc/u8x8_d_st75256.c **** };    
1671:..\u8g2\csrc/u8x8_d_st75256.c **** 
1672:..\u8g2\csrc/u8x8_d_st75256.c **** 
1673:..\u8g2\csrc/u8x8_d_st75256.c **** uint8_t u8x8_d_st75256_jlx19296(u8x8_t *u8x8, uint8_t msg, uint8_t arg_int, void *arg_ptr)
1674:..\u8g2\csrc/u8x8_d_st75256.c **** {
ARM GAS  C:\Users\brian\AppData\Local\Temp\cckfkOf3.s 			page 65


 1920              		.loc 1 1674 0
 1921              		.cfi_startproc
 1922              		@ args = 0, pretend = 0, frame = 0
 1923              		@ frame_needed = 0, uses_anonymous_args = 0
 1924              	.LVL308:
 1925 0000 2DE9F041 		push	{r4, r5, r6, r7, r8, lr}
 1926              		.cfi_def_cfa_offset 24
 1927              		.cfi_offset 4, -24
 1928              		.cfi_offset 5, -20
 1929              		.cfi_offset 6, -16
 1930              		.cfi_offset 7, -12
 1931              		.cfi_offset 8, -8
 1932              		.cfi_offset 14, -4
 1933 0004 0646     		mov	r6, r0
 1934 0006 1546     		mov	r5, r2
 1935 0008 1F46     		mov	r7, r3
1675:..\u8g2\csrc/u8x8_d_st75256.c ****   uint8_t x, c;
1676:..\u8g2\csrc/u8x8_d_st75256.c ****   uint8_t *ptr;
1677:..\u8g2\csrc/u8x8_d_st75256.c **** 
1678:..\u8g2\csrc/u8x8_d_st75256.c ****   switch(msg)
 1936              		.loc 1 1678 0
 1937 000a 0939     		subs	r1, r1, #9
 1938              	.LVL309:
 1939 000c 0629     		cmp	r1, #6
 1940 000e 00F2A280 		bhi	.L151
 1941 0012 DFE801F0 		tbb	[pc, r1]
 1942              	.LVL310:
 1943              	.L139:
 1944 0016 55       		.byte	(.L138-.L139)/2
 1945 0017 5B       		.byte	(.L140-.L139)/2
 1946 0018 64       		.byte	(.L141-.L139)/2
 1947 0019 A0       		.byte	(.L151-.L139)/2
 1948 001a 71       		.byte	(.L142-.L139)/2
 1949 001b 86       		.byte	(.L143-.L139)/2
 1950 001c 04       		.byte	(.L144-.L139)/2
 1951 001d 00       		.p2align 1
 1952              	.L144:
1679:..\u8g2\csrc/u8x8_d_st75256.c ****   {
1680:..\u8g2\csrc/u8x8_d_st75256.c ****             case U8X8_MSG_DISPLAY_DRAW_TILE:
1681:..\u8g2\csrc/u8x8_d_st75256.c ****               
1682:..\u8g2\csrc/u8x8_d_st75256.c ****               u8x8_cad_StartTransfer(u8x8);
 1953              		.loc 1 1682 0
 1954 001e FFF7FEFF 		bl	u8x8_cad_StartTransfer
 1955              	.LVL311:
1683:..\u8g2\csrc/u8x8_d_st75256.c ****               x = ((u8x8_tile_t *)arg_ptr)->x_pos;    
 1956              		.loc 1 1683 0
 1957 0022 7C79     		ldrb	r4, [r7, #5]	@ zero_extendqisi2
 1958              	.LVL312:
1684:..\u8g2\csrc/u8x8_d_st75256.c ****               x *= 8;
 1959              		.loc 1 1684 0
 1960 0024 E400     		lsls	r4, r4, #3
 1961              	.LVL313:
 1962 0026 5FFA84F8 		uxtb	r8, r4
 1963              	.LVL314:
1685:..\u8g2\csrc/u8x8_d_st75256.c ****               
1686:..\u8g2\csrc/u8x8_d_st75256.c ****               u8x8_cad_SendCmd(u8x8, 0x030 );	/* select command set */
 1964              		.loc 1 1686 0
ARM GAS  C:\Users\brian\AppData\Local\Temp\cckfkOf3.s 			page 66


 1965 002a 3021     		movs	r1, #48
 1966 002c 3046     		mov	r0, r6
 1967 002e FFF7FEFF 		bl	u8x8_cad_SendCmd
 1968              	.LVL315:
1687:..\u8g2\csrc/u8x8_d_st75256.c ****               u8x8_cad_SendCmd(u8x8, 0x075 );	/* row */
 1969              		.loc 1 1687 0
 1970 0032 7521     		movs	r1, #117
 1971 0034 3046     		mov	r0, r6
 1972 0036 FFF7FEFF 		bl	u8x8_cad_SendCmd
 1973              	.LVL316:
1688:..\u8g2\csrc/u8x8_d_st75256.c **** 	      if ( u8x8->x_offset == 0 )		/* 0 means flip mode 1, then adjust y value */
 1974              		.loc 1 1688 0
 1975 003a 96F82230 		ldrb	r3, [r6, #34]	@ zero_extendqisi2
 1976 003e 33B9     		cbnz	r3, .L145
1689:..\u8g2\csrc/u8x8_d_st75256.c **** 		u8x8_cad_SendArg(u8x8, 8+(((u8x8_tile_t *)arg_ptr)->y_pos));
 1977              		.loc 1 1689 0
 1978 0040 B979     		ldrb	r1, [r7, #6]	@ zero_extendqisi2
 1979 0042 0831     		adds	r1, r1, #8
 1980 0044 C9B2     		uxtb	r1, r1
 1981 0046 3046     		mov	r0, r6
 1982 0048 FFF7FEFF 		bl	u8x8_cad_SendArg
 1983              	.LVL317:
 1984 004c 05E0     		b	.L146
 1985              	.L145:
1690:..\u8g2\csrc/u8x8_d_st75256.c **** 	      else
1691:..\u8g2\csrc/u8x8_d_st75256.c **** 		u8x8_cad_SendArg(u8x8, 1+(((u8x8_tile_t *)arg_ptr)->y_pos));
 1986              		.loc 1 1691 0
 1987 004e B979     		ldrb	r1, [r7, #6]	@ zero_extendqisi2
 1988 0050 0131     		adds	r1, r1, #1
 1989 0052 C9B2     		uxtb	r1, r1
 1990 0054 3046     		mov	r0, r6
 1991 0056 FFF7FEFF 		bl	u8x8_cad_SendArg
 1992              	.LVL318:
 1993              	.L146:
1692:..\u8g2\csrc/u8x8_d_st75256.c ****               u8x8_cad_SendArg(u8x8, 0x04f);
 1994              		.loc 1 1692 0
 1995 005a 4F21     		movs	r1, #79
 1996 005c 3046     		mov	r0, r6
 1997 005e FFF7FEFF 		bl	u8x8_cad_SendArg
 1998              	.LVL319:
1693:..\u8g2\csrc/u8x8_d_st75256.c ****               //u8x8_cad_SendArg(u8x8, (((u8x8_tile_t *)arg_ptr)->y_pos));
1694:..\u8g2\csrc/u8x8_d_st75256.c ****               u8x8_cad_SendCmd(u8x8, 0x015 );	/* col */
 1999              		.loc 1 1694 0
 2000 0062 1521     		movs	r1, #21
 2001 0064 3046     		mov	r0, r6
 2002 0066 FFF7FEFF 		bl	u8x8_cad_SendCmd
 2003              	.LVL320:
1695:..\u8g2\csrc/u8x8_d_st75256.c ****               u8x8_cad_SendArg(u8x8, x+u8x8->x_offset);
 2004              		.loc 1 1695 0
 2005 006a 96F82210 		ldrb	r1, [r6, #34]	@ zero_extendqisi2
 2006 006e 4144     		add	r1, r1, r8
 2007 0070 C9B2     		uxtb	r1, r1
 2008 0072 3046     		mov	r0, r6
 2009 0074 FFF7FEFF 		bl	u8x8_cad_SendArg
 2010              	.LVL321:
1696:..\u8g2\csrc/u8x8_d_st75256.c ****               u8x8_cad_SendArg(u8x8, 255);
 2011              		.loc 1 1696 0
ARM GAS  C:\Users\brian\AppData\Local\Temp\cckfkOf3.s 			page 67


 2012 0078 FF21     		movs	r1, #255
 2013 007a 3046     		mov	r0, r6
 2014 007c FFF7FEFF 		bl	u8x8_cad_SendArg
 2015              	.LVL322:
1697:..\u8g2\csrc/u8x8_d_st75256.c ****               u8x8_cad_SendCmd(u8x8, 0x05c );	
 2016              		.loc 1 1697 0
 2017 0080 5C21     		movs	r1, #92
 2018 0082 3046     		mov	r0, r6
 2019 0084 FFF7FEFF 		bl	u8x8_cad_SendCmd
 2020              	.LVL323:
 2021              	.L148:
1698:..\u8g2\csrc/u8x8_d_st75256.c ****             
1699:..\u8g2\csrc/u8x8_d_st75256.c ****               
1700:..\u8g2\csrc/u8x8_d_st75256.c ****               do
1701:..\u8g2\csrc/u8x8_d_st75256.c ****               {
1702:..\u8g2\csrc/u8x8_d_st75256.c ****                 c = ((u8x8_tile_t *)arg_ptr)->cnt;
 2022              		.loc 1 1702 0
 2023 0088 3B79     		ldrb	r3, [r7, #4]	@ zero_extendqisi2
 2024              	.LVL324:
1703:..\u8g2\csrc/u8x8_d_st75256.c ****                 ptr = ((u8x8_tile_t *)arg_ptr)->tile_ptr;
 2025              		.loc 1 1703 0
 2026 008a 3A68     		ldr	r2, [r7]
 2027              	.LVL325:
1704:..\u8g2\csrc/u8x8_d_st75256.c ****                 c *= 8;
 2028              		.loc 1 1704 0
 2029 008c DB00     		lsls	r3, r3, #3
 2030              	.LVL326:
 2031 008e DCB2     		uxtb	r4, r3
 2032              	.LVL327:
1705:..\u8g2\csrc/u8x8_d_st75256.c **** 
1706:..\u8g2\csrc/u8x8_d_st75256.c ****                 if ( c + x > 192u )
 2033              		.loc 1 1706 0
 2034 0090 04EB0803 		add	r3, r4, r8
 2035 0094 C02B     		cmp	r3, #192
 2036 0096 02D9     		bls	.L147
 2037              	.LVL328:
1707:..\u8g2\csrc/u8x8_d_st75256.c ****                 {
1708:..\u8g2\csrc/u8x8_d_st75256.c ****                         c = 192u;
1709:..\u8g2\csrc/u8x8_d_st75256.c ****                         c -= x;
 2038              		.loc 1 1709 0
 2039 0098 C8F1C003 		rsb	r3, r8, #192
 2040 009c DCB2     		uxtb	r4, r3
 2041              	.LVL329:
 2042              	.L147:
1710:..\u8g2\csrc/u8x8_d_st75256.c ****                 }
1711:..\u8g2\csrc/u8x8_d_st75256.c ****                       
1712:..\u8g2\csrc/u8x8_d_st75256.c ****                 u8x8_cad_SendData(u8x8, c, ptr); 	
 2043              		.loc 1 1712 0
 2044 009e 2146     		mov	r1, r4
 2045 00a0 3046     		mov	r0, r6
 2046 00a2 FFF7FEFF 		bl	u8x8_cad_SendData
 2047              	.LVL330:
1713:..\u8g2\csrc/u8x8_d_st75256.c ****                 x += c;
 2048              		.loc 1 1713 0
 2049 00a6 4444     		add	r4, r4, r8
 2050              	.LVL331:
 2051 00a8 5FFA84F8 		uxtb	r8, r4
ARM GAS  C:\Users\brian\AppData\Local\Temp\cckfkOf3.s 			page 68


 2052              	.LVL332:
1714:..\u8g2\csrc/u8x8_d_st75256.c ****                 arg_int--;
 2053              		.loc 1 1714 0
 2054 00ac 013D     		subs	r5, r5, #1
 2055              	.LVL333:
1715:..\u8g2\csrc/u8x8_d_st75256.c ****               } while( arg_int > 0 );
 2056              		.loc 1 1715 0
 2057 00ae 15F0FF05 		ands	r5, r5, #255
 2058              	.LVL334:
 2059 00b2 E9D1     		bne	.L148
1716:..\u8g2\csrc/u8x8_d_st75256.c ****               
1717:..\u8g2\csrc/u8x8_d_st75256.c ****               u8x8_cad_EndTransfer(u8x8);
 2060              		.loc 1 1717 0
 2061 00b4 3046     		mov	r0, r6
 2062 00b6 FFF7FEFF 		bl	u8x8_cad_EndTransfer
 2063              	.LVL335:
1718:..\u8g2\csrc/u8x8_d_st75256.c ****               return 1;
 2064              		.loc 1 1718 0
 2065 00ba 0120     		movs	r0, #1
 2066 00bc BDE8F081 		pop	{r4, r5, r6, r7, r8, pc}
 2067              	.LVL336:
 2068              	.L138:
1719:..\u8g2\csrc/u8x8_d_st75256.c ****         case U8X8_MSG_DISPLAY_SETUP_MEMORY:
1720:..\u8g2\csrc/u8x8_d_st75256.c ****             //u8x8_SetI2CAddress(u8x8, 0x078);		/* lowest I2C adr of the ST75256 */
1721:..\u8g2\csrc/u8x8_d_st75256.c ****             u8x8_d_helper_display_setup_memory(u8x8, &u8x8_st75256_192x96_display_info);
 2069              		.loc 1 1721 0
 2070 00c0 2649     		ldr	r1, .L153
 2071 00c2 FFF7FEFF 		bl	u8x8_d_helper_display_setup_memory
 2072              	.LVL337:
1722:..\u8g2\csrc/u8x8_d_st75256.c ****             return 1;
 2073              		.loc 1 1722 0
 2074 00c6 0120     		movs	r0, #1
 2075 00c8 BDE8F081 		pop	{r4, r5, r6, r7, r8, pc}
 2076              	.LVL338:
 2077              	.L140:
1723:..\u8g2\csrc/u8x8_d_st75256.c ****         case U8X8_MSG_DISPLAY_INIT:
1724:..\u8g2\csrc/u8x8_d_st75256.c ****             u8x8_d_helper_display_init(u8x8);
 2078              		.loc 1 1724 0
 2079 00cc FFF7FEFF 		bl	u8x8_d_helper_display_init
 2080              	.LVL339:
1725:..\u8g2\csrc/u8x8_d_st75256.c ****             u8x8_cad_SendSequence(u8x8, u8x8_d_st75256_jlx19296_init_seq);
 2081              		.loc 1 1725 0
 2082 00d0 2349     		ldr	r1, .L153+4
 2083 00d2 3046     		mov	r0, r6
 2084 00d4 FFF7FEFF 		bl	u8x8_cad_SendSequence
 2085              	.LVL340:
1726:..\u8g2\csrc/u8x8_d_st75256.c ****             return 1;
 2086              		.loc 1 1726 0
 2087 00d8 0120     		movs	r0, #1
 2088 00da BDE8F081 		pop	{r4, r5, r6, r7, r8, pc}
 2089              	.LVL341:
 2090              	.L141:
1727:..\u8g2\csrc/u8x8_d_st75256.c ****         case U8X8_MSG_DISPLAY_SET_POWER_SAVE:
1728:..\u8g2\csrc/u8x8_d_st75256.c ****               if ( arg_int == 0 )
 2091              		.loc 1 1728 0
 2092 00de 2AB9     		cbnz	r2, .L149
1729:..\u8g2\csrc/u8x8_d_st75256.c ****                 u8x8_cad_SendSequence(u8x8, u8x8_d_st75256_256x128_powersave0_seq);
ARM GAS  C:\Users\brian\AppData\Local\Temp\cckfkOf3.s 			page 69


 2093              		.loc 1 1729 0
 2094 00e0 2049     		ldr	r1, .L153+8
 2095 00e2 FFF7FEFF 		bl	u8x8_cad_SendSequence
 2096              	.LVL342:
1730:..\u8g2\csrc/u8x8_d_st75256.c ****               else
1731:..\u8g2\csrc/u8x8_d_st75256.c ****                 u8x8_cad_SendSequence(u8x8, u8x8_d_st75256_256x128_powersave1_seq);
1732:..\u8g2\csrc/u8x8_d_st75256.c **** 
1733:..\u8g2\csrc/u8x8_d_st75256.c ****               return 1;
 2097              		.loc 1 1733 0
 2098 00e6 0120     		movs	r0, #1
 2099 00e8 BDE8F081 		pop	{r4, r5, r6, r7, r8, pc}
 2100              	.LVL343:
 2101              	.L149:
1731:..\u8g2\csrc/u8x8_d_st75256.c **** 
 2102              		.loc 1 1731 0
 2103 00ec 1E49     		ldr	r1, .L153+12
 2104 00ee FFF7FEFF 		bl	u8x8_cad_SendSequence
 2105              	.LVL344:
 2106              		.loc 1 1733 0
 2107 00f2 0120     		movs	r0, #1
 2108 00f4 BDE8F081 		pop	{r4, r5, r6, r7, r8, pc}
 2109              	.LVL345:
 2110              	.L142:
1734:..\u8g2\csrc/u8x8_d_st75256.c **** 	case U8X8_MSG_DISPLAY_SET_FLIP_MODE:
1735:..\u8g2\csrc/u8x8_d_st75256.c **** 	    if ( arg_int == 0 )
 2111              		.loc 1 1735 0
 2112 00f8 4AB9     		cbnz	r2, .L150
1736:..\u8g2\csrc/u8x8_d_st75256.c **** 	    {
1737:..\u8g2\csrc/u8x8_d_st75256.c **** 	      u8x8_cad_SendSequence(u8x8, u8x8_d_st75256_jlx256160_flip0_seq);
 2113              		.loc 1 1737 0
 2114 00fa 1C49     		ldr	r1, .L153+16
 2115 00fc FFF7FEFF 		bl	u8x8_cad_SendSequence
 2116              	.LVL346:
1738:..\u8g2\csrc/u8x8_d_st75256.c **** 	      u8x8->x_offset = u8x8->display_info->default_x_offset;
 2117              		.loc 1 1738 0
 2118 0100 3368     		ldr	r3, [r6]
 2119 0102 9B7C     		ldrb	r3, [r3, #18]	@ zero_extendqisi2
 2120 0104 86F82230 		strb	r3, [r6, #34]
1739:..\u8g2\csrc/u8x8_d_st75256.c **** 	    }
1740:..\u8g2\csrc/u8x8_d_st75256.c **** 	    else
1741:..\u8g2\csrc/u8x8_d_st75256.c **** 	    {
1742:..\u8g2\csrc/u8x8_d_st75256.c **** 	      u8x8_cad_SendSequence(u8x8, u8x8_d_st75256_jlx256160_flip1_seq);
1743:..\u8g2\csrc/u8x8_d_st75256.c **** 	      u8x8->x_offset = u8x8->display_info->flipmode_x_offset;
1744:..\u8g2\csrc/u8x8_d_st75256.c **** 	    }
1745:..\u8g2\csrc/u8x8_d_st75256.c **** 	    return 1;
 2121              		.loc 1 1745 0
 2122 0108 0120     		movs	r0, #1
 2123 010a BDE8F081 		pop	{r4, r5, r6, r7, r8, pc}
 2124              	.LVL347:
 2125              	.L150:
1742:..\u8g2\csrc/u8x8_d_st75256.c **** 	      u8x8->x_offset = u8x8->display_info->flipmode_x_offset;
 2126              		.loc 1 1742 0
 2127 010e 1849     		ldr	r1, .L153+20
 2128 0110 FFF7FEFF 		bl	u8x8_cad_SendSequence
 2129              	.LVL348:
1743:..\u8g2\csrc/u8x8_d_st75256.c **** 	    }
 2130              		.loc 1 1743 0
ARM GAS  C:\Users\brian\AppData\Local\Temp\cckfkOf3.s 			page 70


 2131 0114 3368     		ldr	r3, [r6]
 2132 0116 DB7C     		ldrb	r3, [r3, #19]	@ zero_extendqisi2
 2133 0118 86F82230 		strb	r3, [r6, #34]
 2134              		.loc 1 1745 0
 2135 011c 0120     		movs	r0, #1
 2136 011e BDE8F081 		pop	{r4, r5, r6, r7, r8, pc}
 2137              	.LVL349:
 2138              	.L143:
1746:..\u8g2\csrc/u8x8_d_st75256.c **** 	    /*
1747:..\u8g2\csrc/u8x8_d_st75256.c **** 	    if ( arg_int == 0 )
1748:..\u8g2\csrc/u8x8_d_st75256.c **** 	    {
1749:..\u8g2\csrc/u8x8_d_st75256.c **** 	      u8x8_cad_SendSequence(u8x8, u8x8_d_st75256_jlx172104_flip0_seq);
1750:..\u8g2\csrc/u8x8_d_st75256.c **** 	      u8x8->x_offset = u8x8->display_info->default_x_offset;
1751:..\u8g2\csrc/u8x8_d_st75256.c **** 	    }
1752:..\u8g2\csrc/u8x8_d_st75256.c **** 	    else
1753:..\u8g2\csrc/u8x8_d_st75256.c **** 	    {
1754:..\u8g2\csrc/u8x8_d_st75256.c **** 	      u8x8_cad_SendSequence(u8x8, u8x8_d_st75256_jlx172104_flip1_seq); 
1755:..\u8g2\csrc/u8x8_d_st75256.c **** 	      u8x8->x_offset = u8x8->display_info->flipmode_x_offset;
1756:..\u8g2\csrc/u8x8_d_st75256.c **** 	    }
1757:..\u8g2\csrc/u8x8_d_st75256.c **** 	    return 1;
1758:..\u8g2\csrc/u8x8_d_st75256.c **** 	    */
1759:..\u8g2\csrc/u8x8_d_st75256.c **** 		
1760:..\u8g2\csrc/u8x8_d_st75256.c **** #ifdef U8X8_WITH_SET_CONTRAST
1761:..\u8g2\csrc/u8x8_d_st75256.c ****         case U8X8_MSG_DISPLAY_SET_CONTRAST:
1762:..\u8g2\csrc/u8x8_d_st75256.c **** 
1763:..\u8g2\csrc/u8x8_d_st75256.c ****               u8x8_cad_StartTransfer(u8x8);
 2139              		.loc 1 1763 0
 2140 0122 FFF7FEFF 		bl	u8x8_cad_StartTransfer
 2141              	.LVL350:
1764:..\u8g2\csrc/u8x8_d_st75256.c ****               
1765:..\u8g2\csrc/u8x8_d_st75256.c ****               u8x8_cad_SendCmd(u8x8, 0x030 );
 2142              		.loc 1 1765 0
 2143 0126 3021     		movs	r1, #48
 2144 0128 3046     		mov	r0, r6
 2145 012a FFF7FEFF 		bl	u8x8_cad_SendCmd
 2146              	.LVL351:
1766:..\u8g2\csrc/u8x8_d_st75256.c ****               u8x8_cad_SendCmd(u8x8, 0x081 );  /* there are 9 bit for the volume control */
 2147              		.loc 1 1766 0
 2148 012e 8121     		movs	r1, #129
 2149 0130 3046     		mov	r0, r6
 2150 0132 FFF7FEFF 		bl	u8x8_cad_SendCmd
 2151              	.LVL352:
1767:..\u8g2\csrc/u8x8_d_st75256.c ****               u8x8_cad_SendArg(u8x8, (arg_int & 0x1f)<<1 );	/* lower 6 bit */
 2152              		.loc 1 1767 0
 2153 0136 6900     		lsls	r1, r5, #1
 2154 0138 01F03E01 		and	r1, r1, #62
 2155 013c 3046     		mov	r0, r6
 2156 013e FFF7FEFF 		bl	u8x8_cad_SendArg
 2157              	.LVL353:
1768:..\u8g2\csrc/u8x8_d_st75256.c ****               u8x8_cad_SendArg(u8x8, (arg_int>>5));		/* upper 3 bit */
 2158              		.loc 1 1768 0
 2159 0142 6909     		lsrs	r1, r5, #5
 2160 0144 3046     		mov	r0, r6
 2161 0146 FFF7FEFF 		bl	u8x8_cad_SendArg
 2162              	.LVL354:
1769:..\u8g2\csrc/u8x8_d_st75256.c ****               
1770:..\u8g2\csrc/u8x8_d_st75256.c ****               u8x8_cad_EndTransfer(u8x8);
ARM GAS  C:\Users\brian\AppData\Local\Temp\cckfkOf3.s 			page 71


 2163              		.loc 1 1770 0
 2164 014a 3046     		mov	r0, r6
 2165 014c FFF7FEFF 		bl	u8x8_cad_EndTransfer
 2166              	.LVL355:
1771:..\u8g2\csrc/u8x8_d_st75256.c ****               return 1;
 2167              		.loc 1 1771 0
 2168 0150 0120     		movs	r0, #1
 2169 0152 BDE8F081 		pop	{r4, r5, r6, r7, r8, pc}
 2170              	.LVL356:
 2171              	.L151:
1772:..\u8g2\csrc/u8x8_d_st75256.c **** #endif
1773:..\u8g2\csrc/u8x8_d_st75256.c ****   }
1774:..\u8g2\csrc/u8x8_d_st75256.c ****   return 0;
 2172              		.loc 1 1774 0
 2173 0156 0020     		movs	r0, #0
 2174              	.LVL357:
1775:..\u8g2\csrc/u8x8_d_st75256.c **** }
 2175              		.loc 1 1775 0
 2176 0158 BDE8F081 		pop	{r4, r5, r6, r7, r8, pc}
 2177              	.LVL358:
 2178              	.L154:
 2179              		.align	2
 2180              	.L153:
 2181 015c 80040000 		.word	.LANCHOR0+1152
 2182 0160 98040000 		.word	.LANCHOR0+1176
 2183 0164 00000000 		.word	.LANCHOR0
 2184 0168 0C000000 		.word	.LANCHOR0+12
 2185 016c 70030000 		.word	.LANCHOR0+880
 2186 0170 80030000 		.word	.LANCHOR0+896
 2187              		.cfi_endproc
 2188              	.LFE9:
 2189              		.size	u8x8_d_st75256_jlx19296, .-u8x8_d_st75256_jlx19296
 2190              		.section	.rodata
 2191              		.align	2
 2192              		.set	.LANCHOR0,. + 0
 2193              		.type	u8x8_d_st75256_256x128_powersave0_seq, %object
 2194              		.size	u8x8_d_st75256_256x128_powersave0_seq, 11
 2195              	u8x8_d_st75256_256x128_powersave0_seq:
 2196 0000 18       		.byte	24
 2197 0001 15       		.byte	21
 2198 0002 30       		.byte	48
 2199 0003 15       		.byte	21
 2200 0004 94       		.byte	-108
 2201 0005 FE       		.byte	-2
 2202 0006 0A       		.byte	10
 2203 0007 15       		.byte	21
 2204 0008 AF       		.byte	-81
 2205 0009 19       		.byte	25
 2206 000a FF       		.byte	-1
 2207 000b 00       		.space	1
 2208              		.type	u8x8_d_st75256_256x128_powersave1_seq, %object
 2209              		.size	u8x8_d_st75256_256x128_powersave1_seq, 9
 2210              	u8x8_d_st75256_256x128_powersave1_seq:
 2211 000c 18       		.byte	24
 2212 000d 15       		.byte	21
 2213 000e 30       		.byte	48
 2214 000f 15       		.byte	21
ARM GAS  C:\Users\brian\AppData\Local\Temp\cckfkOf3.s 			page 72


 2215 0010 AE       		.byte	-82
 2216 0011 15       		.byte	21
 2217 0012 95       		.byte	-107
 2218 0013 19       		.byte	25
 2219 0014 FF       		.byte	-1
 2220 0015 000000   		.space	3
 2221              		.type	u8x8_st75256_256x128_display_info, %object
 2222              		.size	u8x8_st75256_256x128_display_info, 24
 2223              	u8x8_st75256_256x128_display_info:
 2224 0018 00       		.byte	0
 2225 0019 01       		.byte	1
 2226 001a 14       		.byte	20
 2227 001b 14       		.byte	20
 2228 001c 05       		.byte	5
 2229 001d 05       		.byte	5
 2230 001e 14       		.byte	20
 2231 001f 28       		.byte	40
 2232 0020 00093D00 		.word	4000000
 2233 0024 00       		.byte	0
 2234 0025 04       		.byte	4
 2235 0026 0F       		.byte	15
 2236 0027 46       		.byte	70
 2237 0028 20       		.byte	32
 2238 0029 10       		.byte	16
 2239 002a 00       		.byte	0
 2240 002b 05       		.byte	5
 2241 002c 0001     		.short	256
 2242 002e 8000     		.short	128
 2243              		.type	u8x8_d_st75256_256x128_init_seq, %object
 2244              		.size	u8x8_d_st75256_256x128_init_seq, 105
 2245              	u8x8_d_st75256_256x128_init_seq:
 2246 0030 18       		.byte	24
 2247 0031 FE       		.byte	-2
 2248 0032 14       		.byte	20
 2249 0033 15       		.byte	21
 2250 0034 30       		.byte	48
 2251 0035 15       		.byte	21
 2252 0036 94       		.byte	-108
 2253 0037 15       		.byte	21
 2254 0038 AE       		.byte	-82
 2255 0039 15       		.byte	21
 2256 003a 31       		.byte	49
 2257 003b 15       		.byte	21
 2258 003c D7       		.byte	-41
 2259 003d 16       		.byte	22
 2260 003e 9F       		.byte	-97
 2261 003f 15       		.byte	21
 2262 0040 32       		.byte	50
 2263 0041 16       		.byte	22
 2264 0042 00       		.byte	0
 2265 0043 16       		.byte	22
 2266 0044 01       		.byte	1
 2267 0045 16       		.byte	22
 2268 0046 00       		.byte	0
 2269 0047 15       		.byte	21
 2270 0048 20       		.byte	32
 2271 0049 16       		.byte	22
ARM GAS  C:\Users\brian\AppData\Local\Temp\cckfkOf3.s 			page 73


 2272 004a 01       		.byte	1
 2273 004b 16       		.byte	22
 2274 004c 03       		.byte	3
 2275 004d 16       		.byte	22
 2276 004e 05       		.byte	5
 2277 004f 16       		.byte	22
 2278 0050 07       		.byte	7
 2279 0051 16       		.byte	22
 2280 0052 09       		.byte	9
 2281 0053 16       		.byte	22
 2282 0054 0B       		.byte	11
 2283 0055 16       		.byte	22
 2284 0056 0D       		.byte	13
 2285 0057 16       		.byte	22
 2286 0058 10       		.byte	16
 2287 0059 16       		.byte	22
 2288 005a 11       		.byte	17
 2289 005b 16       		.byte	22
 2290 005c 13       		.byte	19
 2291 005d 16       		.byte	22
 2292 005e 15       		.byte	21
 2293 005f 16       		.byte	22
 2294 0060 17       		.byte	23
 2295 0061 16       		.byte	22
 2296 0062 19       		.byte	25
 2297 0063 16       		.byte	22
 2298 0064 1B       		.byte	27
 2299 0065 16       		.byte	22
 2300 0066 1D       		.byte	29
 2301 0067 16       		.byte	22
 2302 0068 1F       		.byte	31
 2303 0069 15       		.byte	21
 2304 006a 30       		.byte	48
 2305 006b 15       		.byte	21
 2306 006c 75       		.byte	117
 2307 006d 16       		.byte	22
 2308 006e 00       		.byte	0
 2309 006f 16       		.byte	22
 2310 0070 4F       		.byte	79
 2311 0071 15       		.byte	21
 2312 0072 15       		.byte	21
 2313 0073 16       		.byte	22
 2314 0074 00       		.byte	0
 2315 0075 16       		.byte	22
 2316 0076 FF       		.byte	-1
 2317 0077 15       		.byte	21
 2318 0078 BC       		.byte	-68
 2319 0079 16       		.byte	22
 2320 007a 00       		.byte	0
 2321 007b 16       		.byte	22
 2322 007c A6       		.byte	-90
 2323 007d 15       		.byte	21
 2324 007e 0C       		.byte	12
 2325 007f 15       		.byte	21
 2326 0080 CA       		.byte	-54
 2327 0081 16       		.byte	22
 2328 0082 00       		.byte	0
ARM GAS  C:\Users\brian\AppData\Local\Temp\cckfkOf3.s 			page 74


 2329 0083 16       		.byte	22
 2330 0084 7F       		.byte	127
 2331 0085 16       		.byte	22
 2332 0086 20       		.byte	32
 2333 0087 15       		.byte	21
 2334 0088 F0       		.byte	-16
 2335 0089 16       		.byte	22
 2336 008a 10       		.byte	16
 2337 008b 15       		.byte	21
 2338 008c 81       		.byte	-127
 2339 008d 16       		.byte	22
 2340 008e 36       		.byte	54
 2341 008f 16       		.byte	22
 2342 0090 05       		.byte	5
 2343 0091 15       		.byte	21
 2344 0092 20       		.byte	32
 2345 0093 16       		.byte	22
 2346 0094 0B       		.byte	11
 2347 0095 FE       		.byte	-2
 2348 0096 64       		.byte	100
 2349 0097 19       		.byte	25
 2350 0098 FF       		.byte	-1
 2351 0099 000000   		.space	3
 2352              		.type	u8x8_d_st75256_jlx256128_flip0_seq, %object
 2353              		.size	u8x8_d_st75256_jlx256128_flip0_seq, 13
 2354              	u8x8_d_st75256_jlx256128_flip0_seq:
 2355 009c 18       		.byte	24
 2356 009d 15       		.byte	21
 2357 009e 30       		.byte	48
 2358 009f 15       		.byte	21
 2359 00a0 BC       		.byte	-68
 2360 00a1 16       		.byte	22
 2361 00a2 00       		.byte	0
 2362 00a3 16       		.byte	22
 2363 00a4 A6       		.byte	-90
 2364 00a5 15       		.byte	21
 2365 00a6 0C       		.byte	12
 2366 00a7 19       		.byte	25
 2367 00a8 FF       		.byte	-1
 2368 00a9 000000   		.space	3
 2369              		.type	u8x8_d_st75256_jlx256128_flip1_seq, %object
 2370              		.size	u8x8_d_st75256_jlx256128_flip1_seq, 13
 2371              	u8x8_d_st75256_jlx256128_flip1_seq:
 2372 00ac 18       		.byte	24
 2373 00ad 15       		.byte	21
 2374 00ae 30       		.byte	48
 2375 00af 15       		.byte	21
 2376 00b0 BC       		.byte	-68
 2377 00b1 16       		.byte	22
 2378 00b2 03       		.byte	3
 2379 00b3 16       		.byte	22
 2380 00b4 A6       		.byte	-90
 2381 00b5 15       		.byte	21
 2382 00b6 08       		.byte	8
 2383 00b7 19       		.byte	25
 2384 00b8 FF       		.byte	-1
 2385 00b9 000000   		.space	3
ARM GAS  C:\Users\brian\AppData\Local\Temp\cckfkOf3.s 			page 75


 2386              		.type	u8x8_st75256_wo256x128_display_info, %object
 2387              		.size	u8x8_st75256_wo256x128_display_info, 24
 2388              	u8x8_st75256_wo256x128_display_info:
 2389 00bc 00       		.byte	0
 2390 00bd 01       		.byte	1
 2391 00be 14       		.byte	20
 2392 00bf 14       		.byte	20
 2393 00c0 05       		.byte	5
 2394 00c1 05       		.byte	5
 2395 00c2 14       		.byte	20
 2396 00c3 28       		.byte	40
 2397 00c4 00093D00 		.word	4000000
 2398 00c8 00       		.byte	0
 2399 00c9 04       		.byte	4
 2400 00ca 0F       		.byte	15
 2401 00cb 46       		.byte	70
 2402 00cc 20       		.byte	32
 2403 00cd 10       		.byte	16
 2404 00ce 05       		.byte	5
 2405 00cf 00       		.byte	0
 2406 00d0 0001     		.short	256
 2407 00d2 8000     		.short	128
 2408              		.type	u8x8_d_st75256_wo256x128_init_seq, %object
 2409              		.size	u8x8_d_st75256_wo256x128_init_seq, 105
 2410              	u8x8_d_st75256_wo256x128_init_seq:
 2411 00d4 18       		.byte	24
 2412 00d5 FE       		.byte	-2
 2413 00d6 14       		.byte	20
 2414 00d7 15       		.byte	21
 2415 00d8 30       		.byte	48
 2416 00d9 15       		.byte	21
 2417 00da 94       		.byte	-108
 2418 00db 15       		.byte	21
 2419 00dc AE       		.byte	-82
 2420 00dd 15       		.byte	21
 2421 00de 31       		.byte	49
 2422 00df 15       		.byte	21
 2423 00e0 D7       		.byte	-41
 2424 00e1 16       		.byte	22
 2425 00e2 9F       		.byte	-97
 2426 00e3 15       		.byte	21
 2427 00e4 32       		.byte	50
 2428 00e5 16       		.byte	22
 2429 00e6 00       		.byte	0
 2430 00e7 16       		.byte	22
 2431 00e8 01       		.byte	1
 2432 00e9 16       		.byte	22
 2433 00ea 00       		.byte	0
 2434 00eb 15       		.byte	21
 2435 00ec 20       		.byte	32
 2436 00ed 16       		.byte	22
 2437 00ee 01       		.byte	1
 2438 00ef 16       		.byte	22
 2439 00f0 03       		.byte	3
 2440 00f1 16       		.byte	22
 2441 00f2 05       		.byte	5
 2442 00f3 16       		.byte	22
ARM GAS  C:\Users\brian\AppData\Local\Temp\cckfkOf3.s 			page 76


 2443 00f4 07       		.byte	7
 2444 00f5 16       		.byte	22
 2445 00f6 09       		.byte	9
 2446 00f7 16       		.byte	22
 2447 00f8 0B       		.byte	11
 2448 00f9 16       		.byte	22
 2449 00fa 0D       		.byte	13
 2450 00fb 16       		.byte	22
 2451 00fc 10       		.byte	16
 2452 00fd 16       		.byte	22
 2453 00fe 11       		.byte	17
 2454 00ff 16       		.byte	22
 2455 0100 13       		.byte	19
 2456 0101 16       		.byte	22
 2457 0102 15       		.byte	21
 2458 0103 16       		.byte	22
 2459 0104 17       		.byte	23
 2460 0105 16       		.byte	22
 2461 0106 19       		.byte	25
 2462 0107 16       		.byte	22
 2463 0108 1B       		.byte	27
 2464 0109 16       		.byte	22
 2465 010a 1D       		.byte	29
 2466 010b 16       		.byte	22
 2467 010c 1F       		.byte	31
 2468 010d 15       		.byte	21
 2469 010e 30       		.byte	48
 2470 010f 15       		.byte	21
 2471 0110 75       		.byte	117
 2472 0111 16       		.byte	22
 2473 0112 00       		.byte	0
 2474 0113 16       		.byte	22
 2475 0114 4F       		.byte	79
 2476 0115 15       		.byte	21
 2477 0116 15       		.byte	21
 2478 0117 16       		.byte	22
 2479 0118 00       		.byte	0
 2480 0119 16       		.byte	22
 2481 011a FF       		.byte	-1
 2482 011b 15       		.byte	21
 2483 011c BC       		.byte	-68
 2484 011d 16       		.byte	22
 2485 011e 01       		.byte	1
 2486 011f 16       		.byte	22
 2487 0120 A6       		.byte	-90
 2488 0121 15       		.byte	21
 2489 0122 08       		.byte	8
 2490 0123 15       		.byte	21
 2491 0124 CA       		.byte	-54
 2492 0125 16       		.byte	22
 2493 0126 00       		.byte	0
 2494 0127 16       		.byte	22
 2495 0128 7F       		.byte	127
 2496 0129 16       		.byte	22
 2497 012a 20       		.byte	32
 2498 012b 15       		.byte	21
 2499 012c F0       		.byte	-16
ARM GAS  C:\Users\brian\AppData\Local\Temp\cckfkOf3.s 			page 77


 2500 012d 16       		.byte	22
 2501 012e 10       		.byte	16
 2502 012f 15       		.byte	21
 2503 0130 81       		.byte	-127
 2504 0131 16       		.byte	22
 2505 0132 36       		.byte	54
 2506 0133 16       		.byte	22
 2507 0134 05       		.byte	5
 2508 0135 15       		.byte	21
 2509 0136 20       		.byte	32
 2510 0137 16       		.byte	22
 2511 0138 0B       		.byte	11
 2512 0139 FE       		.byte	-2
 2513 013a 64       		.byte	100
 2514 013b 19       		.byte	25
 2515 013c FF       		.byte	-1
 2516 013d 000000   		.space	3
 2517              		.type	u8x8_d_st75256_jlx172104_flip1_seq, %object
 2518              		.size	u8x8_d_st75256_jlx172104_flip1_seq, 13
 2519              	u8x8_d_st75256_jlx172104_flip1_seq:
 2520 0140 18       		.byte	24
 2521 0141 15       		.byte	21
 2522 0142 30       		.byte	48
 2523 0143 15       		.byte	21
 2524 0144 BC       		.byte	-68
 2525 0145 16       		.byte	22
 2526 0146 01       		.byte	1
 2527 0147 16       		.byte	22
 2528 0148 A6       		.byte	-90
 2529 0149 15       		.byte	21
 2530 014a 08       		.byte	8
 2531 014b 19       		.byte	25
 2532 014c FF       		.byte	-1
 2533 014d 000000   		.space	3
 2534              		.type	u8x8_d_st75256_jlx172104_flip0_seq, %object
 2535              		.size	u8x8_d_st75256_jlx172104_flip0_seq, 13
 2536              	u8x8_d_st75256_jlx172104_flip0_seq:
 2537 0150 18       		.byte	24
 2538 0151 15       		.byte	21
 2539 0152 30       		.byte	48
 2540 0153 15       		.byte	21
 2541 0154 BC       		.byte	-68
 2542 0155 16       		.byte	22
 2543 0156 02       		.byte	2
 2544 0157 16       		.byte	22
 2545 0158 A6       		.byte	-90
 2546 0159 15       		.byte	21
 2547 015a 0C       		.byte	12
 2548 015b 19       		.byte	25
 2549 015c FF       		.byte	-1
 2550 015d 000000   		.space	3
 2551              		.type	u8x8_st75256_256x64_display_info, %object
 2552              		.size	u8x8_st75256_256x64_display_info, 24
 2553              	u8x8_st75256_256x64_display_info:
 2554 0160 00       		.byte	0
 2555 0161 01       		.byte	1
 2556 0162 14       		.byte	20
ARM GAS  C:\Users\brian\AppData\Local\Temp\cckfkOf3.s 			page 78


 2557 0163 14       		.byte	20
 2558 0164 05       		.byte	5
 2559 0165 05       		.byte	5
 2560 0166 14       		.byte	20
 2561 0167 28       		.byte	40
 2562 0168 00093D00 		.word	4000000
 2563 016c 00       		.byte	0
 2564 016d 04       		.byte	4
 2565 016e 0F       		.byte	15
 2566 016f 46       		.byte	70
 2567 0170 20       		.byte	32
 2568 0171 08       		.byte	8
 2569 0172 00       		.byte	0
 2570 0173 0D       		.byte	13
 2571 0174 0001     		.short	256
 2572 0176 4000     		.short	64
 2573              		.type	u8x8_d_st75256_256x64_init_seq, %object
 2574              		.size	u8x8_d_st75256_256x64_init_seq, 105
 2575              	u8x8_d_st75256_256x64_init_seq:
 2576 0178 18       		.byte	24
 2577 0179 FE       		.byte	-2
 2578 017a 14       		.byte	20
 2579 017b 15       		.byte	21
 2580 017c 30       		.byte	48
 2581 017d 15       		.byte	21
 2582 017e 94       		.byte	-108
 2583 017f 15       		.byte	21
 2584 0180 AE       		.byte	-82
 2585 0181 15       		.byte	21
 2586 0182 31       		.byte	49
 2587 0183 15       		.byte	21
 2588 0184 D7       		.byte	-41
 2589 0185 16       		.byte	22
 2590 0186 9F       		.byte	-97
 2591 0187 15       		.byte	21
 2592 0188 32       		.byte	50
 2593 0189 16       		.byte	22
 2594 018a 00       		.byte	0
 2595 018b 16       		.byte	22
 2596 018c 01       		.byte	1
 2597 018d 16       		.byte	22
 2598 018e 05       		.byte	5
 2599 018f 15       		.byte	21
 2600 0190 20       		.byte	32
 2601 0191 16       		.byte	22
 2602 0192 01       		.byte	1
 2603 0193 16       		.byte	22
 2604 0194 03       		.byte	3
 2605 0195 16       		.byte	22
 2606 0196 05       		.byte	5
 2607 0197 16       		.byte	22
 2608 0198 07       		.byte	7
 2609 0199 16       		.byte	22
 2610 019a 09       		.byte	9
 2611 019b 16       		.byte	22
 2612 019c 0B       		.byte	11
 2613 019d 16       		.byte	22
ARM GAS  C:\Users\brian\AppData\Local\Temp\cckfkOf3.s 			page 79


 2614 019e 0D       		.byte	13
 2615 019f 16       		.byte	22
 2616 01a0 10       		.byte	16
 2617 01a1 16       		.byte	22
 2618 01a2 11       		.byte	17
 2619 01a3 16       		.byte	22
 2620 01a4 13       		.byte	19
 2621 01a5 16       		.byte	22
 2622 01a6 15       		.byte	21
 2623 01a7 16       		.byte	22
 2624 01a8 17       		.byte	23
 2625 01a9 16       		.byte	22
 2626 01aa 19       		.byte	25
 2627 01ab 16       		.byte	22
 2628 01ac 1B       		.byte	27
 2629 01ad 16       		.byte	22
 2630 01ae 1D       		.byte	29
 2631 01af 16       		.byte	22
 2632 01b0 1F       		.byte	31
 2633 01b1 15       		.byte	21
 2634 01b2 30       		.byte	48
 2635 01b3 15       		.byte	21
 2636 01b4 75       		.byte	117
 2637 01b5 16       		.byte	22
 2638 01b6 00       		.byte	0
 2639 01b7 16       		.byte	22
 2640 01b8 1F       		.byte	31
 2641 01b9 15       		.byte	21
 2642 01ba 15       		.byte	21
 2643 01bb 16       		.byte	22
 2644 01bc 00       		.byte	0
 2645 01bd 16       		.byte	22
 2646 01be FF       		.byte	-1
 2647 01bf 15       		.byte	21
 2648 01c0 BC       		.byte	-68
 2649 01c1 16       		.byte	22
 2650 01c2 00       		.byte	0
 2651 01c3 16       		.byte	22
 2652 01c4 A6       		.byte	-90
 2653 01c5 15       		.byte	21
 2654 01c6 0C       		.byte	12
 2655 01c7 15       		.byte	21
 2656 01c8 CA       		.byte	-54
 2657 01c9 16       		.byte	22
 2658 01ca 00       		.byte	0
 2659 01cb 16       		.byte	22
 2660 01cc 3F       		.byte	63
 2661 01cd 16       		.byte	22
 2662 01ce 20       		.byte	32
 2663 01cf 15       		.byte	21
 2664 01d0 F0       		.byte	-16
 2665 01d1 16       		.byte	22
 2666 01d2 10       		.byte	16
 2667 01d3 15       		.byte	21
 2668 01d4 81       		.byte	-127
 2669 01d5 16       		.byte	22
 2670 01d6 0A       		.byte	10
ARM GAS  C:\Users\brian\AppData\Local\Temp\cckfkOf3.s 			page 80


 2671 01d7 16       		.byte	22
 2672 01d8 02       		.byte	2
 2673 01d9 15       		.byte	21
 2674 01da 20       		.byte	32
 2675 01db 16       		.byte	22
 2676 01dc 0B       		.byte	11
 2677 01dd FE       		.byte	-2
 2678 01de 64       		.byte	100
 2679 01df 19       		.byte	25
 2680 01e0 FF       		.byte	-1
 2681 01e1 000000   		.space	3
 2682              		.type	u8x8_st75256_172x104_display_info, %object
 2683              		.size	u8x8_st75256_172x104_display_info, 24
 2684              	u8x8_st75256_172x104_display_info:
 2685 01e4 00       		.byte	0
 2686 01e5 01       		.byte	1
 2687 01e6 14       		.byte	20
 2688 01e7 14       		.byte	20
 2689 01e8 05       		.byte	5
 2690 01e9 05       		.byte	5
 2691 01ea 14       		.byte	20
 2692 01eb 28       		.byte	40
 2693 01ec 00093D00 		.word	4000000
 2694 01f0 00       		.byte	0
 2695 01f1 04       		.byte	4
 2696 01f2 0F       		.byte	15
 2697 01f3 46       		.byte	70
 2698 01f4 16       		.byte	22
 2699 01f5 0D       		.byte	13
 2700 01f6 54       		.byte	84
 2701 01f7 00       		.byte	0
 2702 01f8 AC00     		.short	172
 2703 01fa 6800     		.short	104
 2704              		.type	u8x8_d_st75256_jlx172104_init_seq, %object
 2705              		.size	u8x8_d_st75256_jlx172104_init_seq, 105
 2706              	u8x8_d_st75256_jlx172104_init_seq:
 2707 01fc 18       		.byte	24
 2708 01fd FE       		.byte	-2
 2709 01fe 14       		.byte	20
 2710 01ff 15       		.byte	21
 2711 0200 30       		.byte	48
 2712 0201 15       		.byte	21
 2713 0202 94       		.byte	-108
 2714 0203 15       		.byte	21
 2715 0204 AE       		.byte	-82
 2716 0205 15       		.byte	21
 2717 0206 31       		.byte	49
 2718 0207 15       		.byte	21
 2719 0208 D7       		.byte	-41
 2720 0209 16       		.byte	22
 2721 020a 9F       		.byte	-97
 2722 020b 15       		.byte	21
 2723 020c 32       		.byte	50
 2724 020d 16       		.byte	22
 2725 020e 00       		.byte	0
 2726 020f 16       		.byte	22
 2727 0210 01       		.byte	1
ARM GAS  C:\Users\brian\AppData\Local\Temp\cckfkOf3.s 			page 81


 2728 0211 16       		.byte	22
 2729 0212 03       		.byte	3
 2730 0213 15       		.byte	21
 2731 0214 20       		.byte	32
 2732 0215 16       		.byte	22
 2733 0216 01       		.byte	1
 2734 0217 16       		.byte	22
 2735 0218 03       		.byte	3
 2736 0219 16       		.byte	22
 2737 021a 05       		.byte	5
 2738 021b 16       		.byte	22
 2739 021c 07       		.byte	7
 2740 021d 16       		.byte	22
 2741 021e 09       		.byte	9
 2742 021f 16       		.byte	22
 2743 0220 0B       		.byte	11
 2744 0221 16       		.byte	22
 2745 0222 0D       		.byte	13
 2746 0223 16       		.byte	22
 2747 0224 10       		.byte	16
 2748 0225 16       		.byte	22
 2749 0226 11       		.byte	17
 2750 0227 16       		.byte	22
 2751 0228 13       		.byte	19
 2752 0229 16       		.byte	22
 2753 022a 15       		.byte	21
 2754 022b 16       		.byte	22
 2755 022c 17       		.byte	23
 2756 022d 16       		.byte	22
 2757 022e 19       		.byte	25
 2758 022f 16       		.byte	22
 2759 0230 1B       		.byte	27
 2760 0231 16       		.byte	22
 2761 0232 1D       		.byte	29
 2762 0233 16       		.byte	22
 2763 0234 1F       		.byte	31
 2764 0235 15       		.byte	21
 2765 0236 30       		.byte	48
 2766 0237 15       		.byte	21
 2767 0238 75       		.byte	117
 2768 0239 16       		.byte	22
 2769 023a 00       		.byte	0
 2770 023b 16       		.byte	22
 2771 023c 4F       		.byte	79
 2772 023d 15       		.byte	21
 2773 023e 15       		.byte	21
 2774 023f 16       		.byte	22
 2775 0240 00       		.byte	0
 2776 0241 16       		.byte	22
 2777 0242 FF       		.byte	-1
 2778 0243 15       		.byte	21
 2779 0244 BC       		.byte	-68
 2780 0245 16       		.byte	22
 2781 0246 02       		.byte	2
 2782 0247 16       		.byte	22
 2783 0248 A6       		.byte	-90
 2784 0249 15       		.byte	21
ARM GAS  C:\Users\brian\AppData\Local\Temp\cckfkOf3.s 			page 82


 2785 024a 0C       		.byte	12
 2786 024b 15       		.byte	21
 2787 024c CA       		.byte	-54
 2788 024d 16       		.byte	22
 2789 024e 00       		.byte	0
 2790 024f 16       		.byte	22
 2791 0250 9F       		.byte	-97
 2792 0251 16       		.byte	22
 2793 0252 20       		.byte	32
 2794 0253 15       		.byte	21
 2795 0254 F0       		.byte	-16
 2796 0255 16       		.byte	22
 2797 0256 10       		.byte	16
 2798 0257 15       		.byte	21
 2799 0258 81       		.byte	-127
 2800 0259 16       		.byte	22
 2801 025a 08       		.byte	8
 2802 025b 16       		.byte	22
 2803 025c 04       		.byte	4
 2804 025d 15       		.byte	21
 2805 025e 20       		.byte	32
 2806 025f 16       		.byte	22
 2807 0260 0B       		.byte	11
 2808 0261 FE       		.byte	-2
 2809 0262 64       		.byte	100
 2810 0263 19       		.byte	25
 2811 0264 FF       		.byte	-1
 2812 0265 000000   		.space	3
 2813              		.type	u8x8_st75256_240x160_display_info, %object
 2814              		.size	u8x8_st75256_240x160_display_info, 24
 2815              	u8x8_st75256_240x160_display_info:
 2816 0268 00       		.byte	0
 2817 0269 01       		.byte	1
 2818 026a 14       		.byte	20
 2819 026b 14       		.byte	20
 2820 026c 05       		.byte	5
 2821 026d 05       		.byte	5
 2822 026e 14       		.byte	20
 2823 026f 28       		.byte	40
 2824 0270 00093D00 		.word	4000000
 2825 0274 00       		.byte	0
 2826 0275 04       		.byte	4
 2827 0276 0F       		.byte	15
 2828 0277 46       		.byte	70
 2829 0278 1E       		.byte	30
 2830 0279 14       		.byte	20
 2831 027a 10       		.byte	16
 2832 027b 00       		.byte	0
 2833 027c F000     		.short	240
 2834 027e A000     		.short	160
 2835              		.type	u8x8_d_st75256_240x160_init_seq, %object
 2836              		.size	u8x8_d_st75256_240x160_init_seq, 105
 2837              	u8x8_d_st75256_240x160_init_seq:
 2838 0280 18       		.byte	24
 2839 0281 FE       		.byte	-2
 2840 0282 14       		.byte	20
 2841 0283 15       		.byte	21
ARM GAS  C:\Users\brian\AppData\Local\Temp\cckfkOf3.s 			page 83


 2842 0284 30       		.byte	48
 2843 0285 15       		.byte	21
 2844 0286 94       		.byte	-108
 2845 0287 15       		.byte	21
 2846 0288 AE       		.byte	-82
 2847 0289 15       		.byte	21
 2848 028a 31       		.byte	49
 2849 028b 15       		.byte	21
 2850 028c D7       		.byte	-41
 2851 028d 16       		.byte	22
 2852 028e 9F       		.byte	-97
 2853 028f 15       		.byte	21
 2854 0290 32       		.byte	50
 2855 0291 16       		.byte	22
 2856 0292 00       		.byte	0
 2857 0293 16       		.byte	22
 2858 0294 01       		.byte	1
 2859 0295 16       		.byte	22
 2860 0296 00       		.byte	0
 2861 0297 15       		.byte	21
 2862 0298 20       		.byte	32
 2863 0299 16       		.byte	22
 2864 029a 01       		.byte	1
 2865 029b 16       		.byte	22
 2866 029c 03       		.byte	3
 2867 029d 16       		.byte	22
 2868 029e 05       		.byte	5
 2869 029f 16       		.byte	22
 2870 02a0 07       		.byte	7
 2871 02a1 16       		.byte	22
 2872 02a2 09       		.byte	9
 2873 02a3 16       		.byte	22
 2874 02a4 0B       		.byte	11
 2875 02a5 16       		.byte	22
 2876 02a6 0D       		.byte	13
 2877 02a7 16       		.byte	22
 2878 02a8 10       		.byte	16
 2879 02a9 16       		.byte	22
 2880 02aa 11       		.byte	17
 2881 02ab 16       		.byte	22
 2882 02ac 13       		.byte	19
 2883 02ad 16       		.byte	22
 2884 02ae 15       		.byte	21
 2885 02af 16       		.byte	22
 2886 02b0 17       		.byte	23
 2887 02b1 16       		.byte	22
 2888 02b2 19       		.byte	25
 2889 02b3 16       		.byte	22
 2890 02b4 1B       		.byte	27
 2891 02b5 16       		.byte	22
 2892 02b6 1D       		.byte	29
 2893 02b7 16       		.byte	22
 2894 02b8 1F       		.byte	31
 2895 02b9 15       		.byte	21
 2896 02ba 30       		.byte	48
 2897 02bb 15       		.byte	21
 2898 02bc 75       		.byte	117
ARM GAS  C:\Users\brian\AppData\Local\Temp\cckfkOf3.s 			page 84


 2899 02bd 16       		.byte	22
 2900 02be 00       		.byte	0
 2901 02bf 16       		.byte	22
 2902 02c0 4F       		.byte	79
 2903 02c1 15       		.byte	21
 2904 02c2 15       		.byte	21
 2905 02c3 16       		.byte	22
 2906 02c4 00       		.byte	0
 2907 02c5 16       		.byte	22
 2908 02c6 EF       		.byte	-17
 2909 02c7 15       		.byte	21
 2910 02c8 BC       		.byte	-68
 2911 02c9 16       		.byte	22
 2912 02ca 02       		.byte	2
 2913 02cb 16       		.byte	22
 2914 02cc A6       		.byte	-90
 2915 02cd 15       		.byte	21
 2916 02ce 0C       		.byte	12
 2917 02cf 15       		.byte	21
 2918 02d0 CA       		.byte	-54
 2919 02d1 16       		.byte	22
 2920 02d2 00       		.byte	0
 2921 02d3 16       		.byte	22
 2922 02d4 9F       		.byte	-97
 2923 02d5 16       		.byte	22
 2924 02d6 20       		.byte	32
 2925 02d7 15       		.byte	21
 2926 02d8 F0       		.byte	-16
 2927 02d9 16       		.byte	22
 2928 02da 10       		.byte	16
 2929 02db 15       		.byte	21
 2930 02dc 81       		.byte	-127
 2931 02dd 16       		.byte	22
 2932 02de 18       		.byte	24
 2933 02df 16       		.byte	22
 2934 02e0 04       		.byte	4
 2935 02e1 15       		.byte	21
 2936 02e2 20       		.byte	32
 2937 02e3 16       		.byte	22
 2938 02e4 0B       		.byte	11
 2939 02e5 FE       		.byte	-2
 2940 02e6 64       		.byte	100
 2941 02e7 19       		.byte	25
 2942 02e8 FF       		.byte	-1
 2943 02e9 000000   		.space	3
 2944              		.type	u8x8_st75256_256x160_display_info, %object
 2945              		.size	u8x8_st75256_256x160_display_info, 24
 2946              	u8x8_st75256_256x160_display_info:
 2947 02ec 00       		.byte	0
 2948 02ed 01       		.byte	1
 2949 02ee 14       		.byte	20
 2950 02ef 14       		.byte	20
 2951 02f0 05       		.byte	5
 2952 02f1 05       		.byte	5
 2953 02f2 14       		.byte	20
 2954 02f3 28       		.byte	40
 2955 02f4 00093D00 		.word	4000000
ARM GAS  C:\Users\brian\AppData\Local\Temp\cckfkOf3.s 			page 85


 2956 02f8 00       		.byte	0
 2957 02f9 04       		.byte	4
 2958 02fa 0F       		.byte	15
 2959 02fb 46       		.byte	70
 2960 02fc 20       		.byte	32
 2961 02fd 14       		.byte	20
 2962 02fe 00       		.byte	0
 2963 02ff 01       		.byte	1
 2964 0300 0001     		.short	256
 2965 0302 A000     		.short	160
 2966              		.type	u8x8_d_st75256_256x160_init_seq, %object
 2967              		.size	u8x8_d_st75256_256x160_init_seq, 105
 2968              	u8x8_d_st75256_256x160_init_seq:
 2969 0304 18       		.byte	24
 2970 0305 FE       		.byte	-2
 2971 0306 14       		.byte	20
 2972 0307 15       		.byte	21
 2973 0308 30       		.byte	48
 2974 0309 15       		.byte	21
 2975 030a 94       		.byte	-108
 2976 030b 15       		.byte	21
 2977 030c AE       		.byte	-82
 2978 030d 15       		.byte	21
 2979 030e 31       		.byte	49
 2980 030f 15       		.byte	21
