ARM GAS  C:\Users\brian\AppData\Local\Temp\cc1Lhyrd.s 			page 1


   1              		.syntax unified
   2              		.cpu cortex-m3
   3              		.fpu softvfp
   4              		.eabi_attribute 20, 1
   5              		.eabi_attribute 21, 1
   6              		.eabi_attribute 23, 3
   7              		.eabi_attribute 24, 1
   8              		.eabi_attribute 25, 1
   9              		.eabi_attribute 26, 1
  10              		.eabi_attribute 30, 1
  11              		.eabi_attribute 34, 1
  12              		.eabi_attribute 18, 4
  13              		.thumb
  14              		.syntax unified
  15              		.file	"u8x8_d_st7565.c"
  16              		.text
  17              	.Ltext0:
  18              		.cfi_sections	.debug_frame
  19              		.section	.text.u8x8_d_st7565_common,"ax",%progbits
  20              		.align	2
  21              		.global	u8x8_d_st7565_common
  22              		.thumb
  23              		.thumb_func
  24              		.type	u8x8_d_st7565_common, %function
  25              	u8x8_d_st7565_common:
  26              	.LFB0:
  27              		.file 1 "..\\u8g2\\csrc\\u8x8_d_st7565.c"
   1:..\u8g2\csrc/u8x8_d_st7565.c **** /*
   2:..\u8g2\csrc/u8x8_d_st7565.c **** 
   3:..\u8g2\csrc/u8x8_d_st7565.c ****   u8x8_d_st7565.c
   4:..\u8g2\csrc/u8x8_d_st7565.c ****   also includes support for nt7534 
   5:..\u8g2\csrc/u8x8_d_st7565.c ****   
   6:..\u8g2\csrc/u8x8_d_st7565.c ****   Universal 8bit Graphics Library (https://github.com/olikraus/u8g2/)
   7:..\u8g2\csrc/u8x8_d_st7565.c **** 
   8:..\u8g2\csrc/u8x8_d_st7565.c ****   Copyright (c) 2016, olikraus@gmail.com
   9:..\u8g2\csrc/u8x8_d_st7565.c ****   All rights reserved.
  10:..\u8g2\csrc/u8x8_d_st7565.c **** 
  11:..\u8g2\csrc/u8x8_d_st7565.c ****   Redistribution and use in source and binary forms, with or without modification, 
  12:..\u8g2\csrc/u8x8_d_st7565.c ****   are permitted provided that the following conditions are met:
  13:..\u8g2\csrc/u8x8_d_st7565.c **** 
  14:..\u8g2\csrc/u8x8_d_st7565.c ****   * Redistributions of source code must retain the above copyright notice, this list 
  15:..\u8g2\csrc/u8x8_d_st7565.c ****     of conditions and the following disclaimer.
  16:..\u8g2\csrc/u8x8_d_st7565.c ****     
  17:..\u8g2\csrc/u8x8_d_st7565.c ****   * Redistributions in binary form must reproduce the above copyright notice, this 
  18:..\u8g2\csrc/u8x8_d_st7565.c ****     list of conditions and the following disclaimer in the documentation and/or other 
  19:..\u8g2\csrc/u8x8_d_st7565.c ****     materials provided with the distribution.
  20:..\u8g2\csrc/u8x8_d_st7565.c **** 
  21:..\u8g2\csrc/u8x8_d_st7565.c ****   THIS SOFTWARE IS PROVIDED BY THE COPYRIGHT HOLDERS AND 
  22:..\u8g2\csrc/u8x8_d_st7565.c ****   CONTRIBUTORS "AS IS" AND ANY EXPRESS OR IMPLIED WARRANTIES, 
  23:..\u8g2\csrc/u8x8_d_st7565.c ****   INCLUDING, BUT NOT LIMITED TO, THE IMPLIED WARRANTIES OF 
  24:..\u8g2\csrc/u8x8_d_st7565.c ****   MERCHANTABILITY AND FITNESS FOR A PARTICULAR PURPOSE ARE 
  25:..\u8g2\csrc/u8x8_d_st7565.c ****   DISCLAIMED. IN NO EVENT SHALL THE COPYRIGHT HOLDER OR 
  26:..\u8g2\csrc/u8x8_d_st7565.c ****   CONTRIBUTORS BE LIABLE FOR ANY DIRECT, INDIRECT, INCIDENTAL, 
  27:..\u8g2\csrc/u8x8_d_st7565.c ****   SPECIAL, EXEMPLARY, OR CONSEQUENTIAL DAMAGES (INCLUDING, BUT 
  28:..\u8g2\csrc/u8x8_d_st7565.c ****   NOT LIMITED TO, PROCUREMENT OF SUBSTITUTE GOODS OR SERVICES; 
  29:..\u8g2\csrc/u8x8_d_st7565.c ****   LOSS OF USE, DATA, OR PROFITS; OR BUSINESS INTERRUPTION) HOWEVER 
  30:..\u8g2\csrc/u8x8_d_st7565.c ****   CAUSED AND ON ANY THEORY OF LIABILITY, WHETHER IN CONTRACT, 
ARM GAS  C:\Users\brian\AppData\Local\Temp\cc1Lhyrd.s 			page 2


  31:..\u8g2\csrc/u8x8_d_st7565.c ****   STRICT LIABILITY, OR TORT (INCLUDING NEGLIGENCE OR OTHERWISE) 
  32:..\u8g2\csrc/u8x8_d_st7565.c ****   ARISING IN ANY WAY OUT OF THE USE OF THIS SOFTWARE, EVEN IF 
  33:..\u8g2\csrc/u8x8_d_st7565.c ****   ADVISED OF THE POSSIBILITY OF SUCH DAMAGE.  
  34:..\u8g2\csrc/u8x8_d_st7565.c **** 
  35:..\u8g2\csrc/u8x8_d_st7565.c ****   
  36:..\u8g2\csrc/u8x8_d_st7565.c **** */
  37:..\u8g2\csrc/u8x8_d_st7565.c **** #include "u8x8.h"
  38:..\u8g2\csrc/u8x8_d_st7565.c **** 
  39:..\u8g2\csrc/u8x8_d_st7565.c **** 
  40:..\u8g2\csrc/u8x8_d_st7565.c **** 
  41:..\u8g2\csrc/u8x8_d_st7565.c **** 
  42:..\u8g2\csrc/u8x8_d_st7565.c **** 
  43:..\u8g2\csrc/u8x8_d_st7565.c **** static const uint8_t u8x8_d_st7565_powersave0_seq[] = {
  44:..\u8g2\csrc/u8x8_d_st7565.c ****   U8X8_START_TRANSFER(),             	/* enable chip, delay is part of the transfer start */
  45:..\u8g2\csrc/u8x8_d_st7565.c ****   U8X8_C(0x0a4),		                /* all pixel off, issue 142 */
  46:..\u8g2\csrc/u8x8_d_st7565.c ****   U8X8_C(0x0af),		                /* display on */
  47:..\u8g2\csrc/u8x8_d_st7565.c ****   U8X8_END_TRANSFER(),             	/* disable chip */
  48:..\u8g2\csrc/u8x8_d_st7565.c ****   U8X8_END()             			/* end of sequence */
  49:..\u8g2\csrc/u8x8_d_st7565.c **** };
  50:..\u8g2\csrc/u8x8_d_st7565.c **** 
  51:..\u8g2\csrc/u8x8_d_st7565.c **** static const uint8_t u8x8_d_st7565_powersave1_seq[] = {
  52:..\u8g2\csrc/u8x8_d_st7565.c ****   U8X8_START_TRANSFER(),             	/* enable chip, delay is part of the transfer start */
  53:..\u8g2\csrc/u8x8_d_st7565.c ****   U8X8_C(0x0ae),		                /* display off */
  54:..\u8g2\csrc/u8x8_d_st7565.c ****   U8X8_C(0x0a5),		                /* enter powersafe: all pixel on, issue 142 */
  55:..\u8g2\csrc/u8x8_d_st7565.c ****   U8X8_END_TRANSFER(),             	/* disable chip */
  56:..\u8g2\csrc/u8x8_d_st7565.c ****   U8X8_END()             			/* end of sequence */
  57:..\u8g2\csrc/u8x8_d_st7565.c **** };
  58:..\u8g2\csrc/u8x8_d_st7565.c **** 
  59:..\u8g2\csrc/u8x8_d_st7565.c **** static const uint8_t u8x8_d_st7565_flip0_seq[] = {
  60:..\u8g2\csrc/u8x8_d_st7565.c ****   U8X8_START_TRANSFER(),             	/* enable chip, delay is part of the transfer start */
  61:..\u8g2\csrc/u8x8_d_st7565.c ****   U8X8_C(0x0a1),				/* segment remap a0/a1*/
  62:..\u8g2\csrc/u8x8_d_st7565.c ****   U8X8_C(0x0c0),				/* c0: scan dir normal, c8: reverse */
  63:..\u8g2\csrc/u8x8_d_st7565.c ****   U8X8_END_TRANSFER(),             	/* disable chip */
  64:..\u8g2\csrc/u8x8_d_st7565.c ****   U8X8_END()             			/* end of sequence */
  65:..\u8g2\csrc/u8x8_d_st7565.c **** };
  66:..\u8g2\csrc/u8x8_d_st7565.c **** 
  67:..\u8g2\csrc/u8x8_d_st7565.c **** static const uint8_t u8x8_d_st7565_flip1_seq[] = {
  68:..\u8g2\csrc/u8x8_d_st7565.c ****   U8X8_START_TRANSFER(),             	/* enable chip, delay is part of the transfer start */
  69:..\u8g2\csrc/u8x8_d_st7565.c ****   U8X8_C(0x0a0),				/* segment remap a0/a1*/
  70:..\u8g2\csrc/u8x8_d_st7565.c ****   U8X8_C(0x0c8),				/* c0: scan dir normal, c8: reverse */
  71:..\u8g2\csrc/u8x8_d_st7565.c ****   U8X8_END_TRANSFER(),             	/* disable chip */
  72:..\u8g2\csrc/u8x8_d_st7565.c ****   U8X8_END()             			/* end of sequence */
  73:..\u8g2\csrc/u8x8_d_st7565.c **** };
  74:..\u8g2\csrc/u8x8_d_st7565.c **** 
  75:..\u8g2\csrc/u8x8_d_st7565.c **** static const uint8_t u8x8_d_st7565_zflip0_seq[] = {
  76:..\u8g2\csrc/u8x8_d_st7565.c ****   U8X8_START_TRANSFER(),             	/* enable chip, delay is part of the transfer start */
  77:..\u8g2\csrc/u8x8_d_st7565.c ****   U8X8_C(0x0a1),				/* segment remap a0/a1*/
  78:..\u8g2\csrc/u8x8_d_st7565.c ****   U8X8_C(0x0c8),				/* c0: scan dir normal, c8: reverse */
  79:..\u8g2\csrc/u8x8_d_st7565.c ****   U8X8_END_TRANSFER(),             	/* disable chip */
  80:..\u8g2\csrc/u8x8_d_st7565.c ****   U8X8_END()             			/* end of sequence */
  81:..\u8g2\csrc/u8x8_d_st7565.c **** };
  82:..\u8g2\csrc/u8x8_d_st7565.c **** 
  83:..\u8g2\csrc/u8x8_d_st7565.c **** static const uint8_t u8x8_d_st7565_zflip1_seq[] = {
  84:..\u8g2\csrc/u8x8_d_st7565.c ****   U8X8_START_TRANSFER(),             	/* enable chip, delay is part of the transfer start */
  85:..\u8g2\csrc/u8x8_d_st7565.c ****   U8X8_C(0x0a0),				/* segment remap a0/a1*/
  86:..\u8g2\csrc/u8x8_d_st7565.c ****   U8X8_C(0x0c0),				/* c0: scan dir normal, c8: reverse */
  87:..\u8g2\csrc/u8x8_d_st7565.c ****   U8X8_END_TRANSFER(),             	/* disable chip */
ARM GAS  C:\Users\brian\AppData\Local\Temp\cc1Lhyrd.s 			page 3


  88:..\u8g2\csrc/u8x8_d_st7565.c ****   U8X8_END()             			/* end of sequence */
  89:..\u8g2\csrc/u8x8_d_st7565.c **** };
  90:..\u8g2\csrc/u8x8_d_st7565.c **** 
  91:..\u8g2\csrc/u8x8_d_st7565.c **** static const u8x8_display_info_t u8x8_st7565_128x64_display_info =
  92:..\u8g2\csrc/u8x8_d_st7565.c **** {
  93:..\u8g2\csrc/u8x8_d_st7565.c ****   /* chip_enable_level = */ 0,
  94:..\u8g2\csrc/u8x8_d_st7565.c ****   /* chip_disable_level = */ 1,
  95:..\u8g2\csrc/u8x8_d_st7565.c ****   
  96:..\u8g2\csrc/u8x8_d_st7565.c ****   /* post_chip_enable_wait_ns = */ 150,	/* st7565 datasheet, table 26, tcsh */
  97:..\u8g2\csrc/u8x8_d_st7565.c ****   /* pre_chip_disable_wait_ns = */ 50,	/* st7565 datasheet, table 26, tcss */
  98:..\u8g2\csrc/u8x8_d_st7565.c ****   /* reset_pulse_width_ms = */ 1, 
  99:..\u8g2\csrc/u8x8_d_st7565.c ****   /* post_reset_wait_ms = */ 1, 
 100:..\u8g2\csrc/u8x8_d_st7565.c ****   /* sda_setup_time_ns = */ 50,		/* st7565 datasheet, table 26, tsds */
 101:..\u8g2\csrc/u8x8_d_st7565.c ****   /* sck_pulse_width_ns = */ 120,	/* half of cycle time (100ns according to datasheet), AVR: below 
 102:..\u8g2\csrc/u8x8_d_st7565.c ****   /* sck_clock_hz = */ 4000000UL,	/* since Arduino 1.6.0, the SPI bus speed in Hz. Should be  10000
 103:..\u8g2\csrc/u8x8_d_st7565.c ****   /* spi_mode = */ 0,		/* active high, rising edge */
 104:..\u8g2\csrc/u8x8_d_st7565.c ****   /* i2c_bus_clock_100kHz = */ 4,
 105:..\u8g2\csrc/u8x8_d_st7565.c ****   /* data_setup_time_ns = */ 40,	/* st7565 datasheet, table 24, tds8 */
 106:..\u8g2\csrc/u8x8_d_st7565.c ****   /* write_pulse_width_ns = */ 80,	/* st7565 datasheet, table 24, tcclw */
 107:..\u8g2\csrc/u8x8_d_st7565.c ****   /* tile_width = */ 16,		/* width of 16*8=128 pixel */
 108:..\u8g2\csrc/u8x8_d_st7565.c ****   /* tile_hight = */ 8,
 109:..\u8g2\csrc/u8x8_d_st7565.c ****   /* default_x_offset = */ 0,
 110:..\u8g2\csrc/u8x8_d_st7565.c ****   /* flipmode_x_offset = */ 4,
 111:..\u8g2\csrc/u8x8_d_st7565.c ****   /* pixel_width = */ 128,
 112:..\u8g2\csrc/u8x8_d_st7565.c ****   /* pixel_height = */ 64
 113:..\u8g2\csrc/u8x8_d_st7565.c **** };
 114:..\u8g2\csrc/u8x8_d_st7565.c **** 
 115:..\u8g2\csrc/u8x8_d_st7565.c **** uint8_t u8x8_d_st7565_common(u8x8_t *u8x8, uint8_t msg, uint8_t arg_int, void *arg_ptr)
 116:..\u8g2\csrc/u8x8_d_st7565.c **** {
  28              		.loc 1 116 0
  29              		.cfi_startproc
  30              		@ args = 0, pretend = 0, frame = 0
  31              		@ frame_needed = 0, uses_anonymous_args = 0
  32              	.LVL0:
  33 0000 2DE9F041 		push	{r4, r5, r6, r7, r8, lr}
  34              		.cfi_def_cfa_offset 24
  35              		.cfi_offset 4, -24
  36              		.cfi_offset 5, -20
  37              		.cfi_offset 6, -16
  38              		.cfi_offset 7, -12
  39              		.cfi_offset 8, -8
  40              		.cfi_offset 14, -4
  41 0004 0546     		mov	r5, r0
  42 0006 1446     		mov	r4, r2
 117:..\u8g2\csrc/u8x8_d_st7565.c ****   uint8_t x, c;
 118:..\u8g2\csrc/u8x8_d_st7565.c ****   uint8_t *ptr;
 119:..\u8g2\csrc/u8x8_d_st7565.c ****   switch(msg)
  43              		.loc 1 119 0
  44 0008 0E29     		cmp	r1, #14
  45 000a 48D0     		beq	.L3
  46 000c 1F46     		mov	r7, r3
  47 000e 0F29     		cmp	r1, #15
  48 0010 02D0     		beq	.L4
  49 0012 0B29     		cmp	r1, #11
  50 0014 53D1     		bne	.L10
  51 0016 35E0     		b	.L5
  52              	.L4:
ARM GAS  C:\Users\brian\AppData\Local\Temp\cc1Lhyrd.s 			page 4


 120:..\u8g2\csrc/u8x8_d_st7565.c ****   {
 121:..\u8g2\csrc/u8x8_d_st7565.c ****     case U8X8_MSG_DISPLAY_DRAW_TILE:
 122:..\u8g2\csrc/u8x8_d_st7565.c ****       u8x8_cad_StartTransfer(u8x8);
  53              		.loc 1 122 0
  54 0018 FFF7FEFF 		bl	u8x8_cad_StartTransfer
  55              	.LVL1:
 123:..\u8g2\csrc/u8x8_d_st7565.c ****     
 124:..\u8g2\csrc/u8x8_d_st7565.c ****       x = ((u8x8_tile_t *)arg_ptr)->x_pos;
  56              		.loc 1 124 0
  57 001c 7B79     		ldrb	r3, [r7, #5]	@ zero_extendqisi2
  58              	.LVL2:
 125:..\u8g2\csrc/u8x8_d_st7565.c ****       x *= 8;
  59              		.loc 1 125 0
  60 001e DB00     		lsls	r3, r3, #3
  61              	.LVL3:
  62 0020 DBB2     		uxtb	r3, r3
  63              	.LVL4:
 126:..\u8g2\csrc/u8x8_d_st7565.c ****       x += u8x8->x_offset;
  64              		.loc 1 126 0
  65 0022 95F82280 		ldrb	r8, [r5, #34]	@ zero_extendqisi2
  66 0026 9844     		add	r8, r8, r3
  67 0028 5FFA88F8 		uxtb	r8, r8
  68              	.LVL5:
 127:..\u8g2\csrc/u8x8_d_st7565.c ****       u8x8_cad_SendCmd(u8x8, 0x010 | (x>>4) );
  69              		.loc 1 127 0
  70 002c 4FEA1811 		lsr	r1, r8, #4
  71 0030 41F01001 		orr	r1, r1, #16
  72 0034 2846     		mov	r0, r5
  73 0036 FFF7FEFF 		bl	u8x8_cad_SendCmd
  74              	.LVL6:
 128:..\u8g2\csrc/u8x8_d_st7565.c ****       u8x8_cad_SendCmd(u8x8, 0x000 | ((x&15)));
  75              		.loc 1 128 0
  76 003a 08F00F01 		and	r1, r8, #15
  77 003e 2846     		mov	r0, r5
  78 0040 FFF7FEFF 		bl	u8x8_cad_SendCmd
  79              	.LVL7:
 129:..\u8g2\csrc/u8x8_d_st7565.c ****       u8x8_cad_SendCmd(u8x8, 0x0b0 | (((u8x8_tile_t *)arg_ptr)->y_pos));
  80              		.loc 1 129 0
  81 0044 B979     		ldrb	r1, [r7, #6]	@ zero_extendqisi2
  82 0046 41F0B001 		orr	r1, r1, #176
  83 004a 2846     		mov	r0, r5
  84 004c FFF7FEFF 		bl	u8x8_cad_SendCmd
  85              	.LVL8:
 130:..\u8g2\csrc/u8x8_d_st7565.c ****     
 131:..\u8g2\csrc/u8x8_d_st7565.c ****       c = ((u8x8_tile_t *)arg_ptr)->cnt;
  86              		.loc 1 131 0
  87 0050 3E79     		ldrb	r6, [r7, #4]	@ zero_extendqisi2
  88              	.LVL9:
 132:..\u8g2\csrc/u8x8_d_st7565.c ****       c *= 8;
  89              		.loc 1 132 0
  90 0052 F600     		lsls	r6, r6, #3
  91              	.LVL10:
  92 0054 F6B2     		uxtb	r6, r6
  93              	.LVL11:
 133:..\u8g2\csrc/u8x8_d_st7565.c ****       ptr = ((u8x8_tile_t *)arg_ptr)->tile_ptr;
  94              		.loc 1 133 0
  95 0056 3F68     		ldr	r7, [r7]
ARM GAS  C:\Users\brian\AppData\Local\Temp\cc1Lhyrd.s 			page 5


  96              	.LVL12:
 134:..\u8g2\csrc/u8x8_d_st7565.c ****       /* 
 135:..\u8g2\csrc/u8x8_d_st7565.c **** 	The following if condition checks the hardware limits of the st7565 
 136:..\u8g2\csrc/u8x8_d_st7565.c **** 	controller: It is not allowed to write beyond the display limits.
 137:..\u8g2\csrc/u8x8_d_st7565.c **** 	This is in fact an issue within flip mode.
 138:..\u8g2\csrc/u8x8_d_st7565.c ****       */
 139:..\u8g2\csrc/u8x8_d_st7565.c ****       if ( c + x > 132u )
  97              		.loc 1 139 0
  98 0058 06EB0803 		add	r3, r6, r8
  99 005c 842B     		cmp	r3, #132
 100 005e 02D9     		bls	.L7
 101              	.LVL13:
 140:..\u8g2\csrc/u8x8_d_st7565.c ****       {
 141:..\u8g2\csrc/u8x8_d_st7565.c **** 	c = 132u;
 142:..\u8g2\csrc/u8x8_d_st7565.c **** 	c -= x;
 102              		.loc 1 142 0
 103 0060 C8F18406 		rsb	r6, r8, #132
 104 0064 F6B2     		uxtb	r6, r6
 105              	.LVL14:
 106              	.L7:
 143:..\u8g2\csrc/u8x8_d_st7565.c ****       }
 144:..\u8g2\csrc/u8x8_d_st7565.c ****       do
 145:..\u8g2\csrc/u8x8_d_st7565.c ****       {
 146:..\u8g2\csrc/u8x8_d_st7565.c **** 	u8x8_cad_SendData(u8x8, c, ptr);	/* note: SendData can not handle more than 255 bytes */
 107              		.loc 1 146 0 discriminator 1
 108 0066 3A46     		mov	r2, r7
 109 0068 3146     		mov	r1, r6
 110 006a 2846     		mov	r0, r5
 111 006c FFF7FEFF 		bl	u8x8_cad_SendData
 112              	.LVL15:
 147:..\u8g2\csrc/u8x8_d_st7565.c **** 	arg_int--;
 113              		.loc 1 147 0 discriminator 1
 114 0070 621E     		subs	r2, r4, #1
 115              	.LVL16:
 148:..\u8g2\csrc/u8x8_d_st7565.c ****       } while( arg_int > 0 );
 116              		.loc 1 148 0 discriminator 1
 117 0072 12F0FF04 		ands	r4, r2, #255
 118 0076 F6D1     		bne	.L7
 149:..\u8g2\csrc/u8x8_d_st7565.c ****       
 150:..\u8g2\csrc/u8x8_d_st7565.c ****       u8x8_cad_EndTransfer(u8x8);
 119              		.loc 1 150 0
 120 0078 2846     		mov	r0, r5
 121 007a FFF7FEFF 		bl	u8x8_cad_EndTransfer
 122              	.LVL17:
 151:..\u8g2\csrc/u8x8_d_st7565.c ****       break;
 152:..\u8g2\csrc/u8x8_d_st7565.c ****     /*	handled in the calling procedure 
 153:..\u8g2\csrc/u8x8_d_st7565.c ****     case U8X8_MSG_DISPLAY_SETUP_MEMORY:
 154:..\u8g2\csrc/u8x8_d_st7565.c ****       u8x8_d_helper_display_setup_memory(u8x8, &u8x8_st7565_128x64_display_info);
 155:..\u8g2\csrc/u8x8_d_st7565.c ****       break;
 156:..\u8g2\csrc/u8x8_d_st7565.c ****     case U8X8_MSG_DISPLAY_INIT:
 157:..\u8g2\csrc/u8x8_d_st7565.c ****       u8x8_d_helper_display_init(u8x8);
 158:..\u8g2\csrc/u8x8_d_st7565.c ****       u8x8_cad_SendSequence(u8x8, u8x8_d_uc1701_dogs102_init_seq);
 159:..\u8g2\csrc/u8x8_d_st7565.c ****       break;
 160:..\u8g2\csrc/u8x8_d_st7565.c ****     */
 161:..\u8g2\csrc/u8x8_d_st7565.c ****     case U8X8_MSG_DISPLAY_SET_POWER_SAVE:
 162:..\u8g2\csrc/u8x8_d_st7565.c ****       if ( arg_int == 0 )
 163:..\u8g2\csrc/u8x8_d_st7565.c **** 	u8x8_cad_SendSequence(u8x8, u8x8_d_st7565_powersave0_seq);
ARM GAS  C:\Users\brian\AppData\Local\Temp\cc1Lhyrd.s 			page 6


 164:..\u8g2\csrc/u8x8_d_st7565.c ****       else
 165:..\u8g2\csrc/u8x8_d_st7565.c **** 	u8x8_cad_SendSequence(u8x8, u8x8_d_st7565_powersave1_seq);
 166:..\u8g2\csrc/u8x8_d_st7565.c ****       break;
 167:..\u8g2\csrc/u8x8_d_st7565.c **** #ifdef U8X8_WITH_SET_CONTRAST
 168:..\u8g2\csrc/u8x8_d_st7565.c ****     case U8X8_MSG_DISPLAY_SET_CONTRAST:
 169:..\u8g2\csrc/u8x8_d_st7565.c ****       u8x8_cad_StartTransfer(u8x8);
 170:..\u8g2\csrc/u8x8_d_st7565.c ****       u8x8_cad_SendCmd(u8x8, 0x081 );
 171:..\u8g2\csrc/u8x8_d_st7565.c ****       u8x8_cad_SendArg(u8x8, arg_int >> 2 );	/* st7565 has range from 0 to 63 */
 172:..\u8g2\csrc/u8x8_d_st7565.c ****       u8x8_cad_EndTransfer(u8x8);
 173:..\u8g2\csrc/u8x8_d_st7565.c ****       break;
 174:..\u8g2\csrc/u8x8_d_st7565.c **** #endif
 175:..\u8g2\csrc/u8x8_d_st7565.c ****     default:
 176:..\u8g2\csrc/u8x8_d_st7565.c ****       return 0;
 177:..\u8g2\csrc/u8x8_d_st7565.c ****   }
 178:..\u8g2\csrc/u8x8_d_st7565.c ****   return 1;
 123              		.loc 1 178 0
 124 007e 0120     		movs	r0, #1
 151:..\u8g2\csrc/u8x8_d_st7565.c ****       break;
 125              		.loc 1 151 0
 126 0080 BDE8F081 		pop	{r4, r5, r6, r7, r8, pc}
 127              	.LVL18:
 128              	.L5:
 162:..\u8g2\csrc/u8x8_d_st7565.c **** 	u8x8_cad_SendSequence(u8x8, u8x8_d_st7565_powersave0_seq);
 129              		.loc 1 162 0
 130 0084 2AB9     		cbnz	r2, .L8
 163:..\u8g2\csrc/u8x8_d_st7565.c ****       else
 131              		.loc 1 163 0
 132 0086 0F49     		ldr	r1, .L12
 133              	.LVL19:
 134 0088 FFF7FEFF 		bl	u8x8_cad_SendSequence
 135              	.LVL20:
 136              		.loc 1 178 0
 137 008c 0120     		movs	r0, #1
 138 008e BDE8F081 		pop	{r4, r5, r6, r7, r8, pc}
 139              	.LVL21:
 140              	.L8:
 165:..\u8g2\csrc/u8x8_d_st7565.c ****       break;
 141              		.loc 1 165 0
 142 0092 0D49     		ldr	r1, .L12+4
 143              	.LVL22:
 144 0094 FFF7FEFF 		bl	u8x8_cad_SendSequence
 145              	.LVL23:
 146              		.loc 1 178 0
 147 0098 0120     		movs	r0, #1
 148 009a BDE8F081 		pop	{r4, r5, r6, r7, r8, pc}
 149              	.LVL24:
 150              	.L3:
 169:..\u8g2\csrc/u8x8_d_st7565.c ****       u8x8_cad_SendCmd(u8x8, 0x081 );
 151              		.loc 1 169 0
 152 009e FFF7FEFF 		bl	u8x8_cad_StartTransfer
 153              	.LVL25:
 170:..\u8g2\csrc/u8x8_d_st7565.c ****       u8x8_cad_SendArg(u8x8, arg_int >> 2 );	/* st7565 has range from 0 to 63 */
 154              		.loc 1 170 0
 155 00a2 8121     		movs	r1, #129
 156 00a4 2846     		mov	r0, r5
 157 00a6 FFF7FEFF 		bl	u8x8_cad_SendCmd
 158              	.LVL26:
ARM GAS  C:\Users\brian\AppData\Local\Temp\cc1Lhyrd.s 			page 7


 171:..\u8g2\csrc/u8x8_d_st7565.c ****       u8x8_cad_EndTransfer(u8x8);
 159              		.loc 1 171 0
 160 00aa A108     		lsrs	r1, r4, #2
 161 00ac 2846     		mov	r0, r5
 162 00ae FFF7FEFF 		bl	u8x8_cad_SendArg
 163              	.LVL27:
 172:..\u8g2\csrc/u8x8_d_st7565.c ****       break;
 164              		.loc 1 172 0
 165 00b2 2846     		mov	r0, r5
 166 00b4 FFF7FEFF 		bl	u8x8_cad_EndTransfer
 167              	.LVL28:
 168              		.loc 1 178 0
 169 00b8 0120     		movs	r0, #1
 173:..\u8g2\csrc/u8x8_d_st7565.c **** #endif
 170              		.loc 1 173 0
 171 00ba BDE8F081 		pop	{r4, r5, r6, r7, r8, pc}
 172              	.LVL29:
 173              	.L10:
 176:..\u8g2\csrc/u8x8_d_st7565.c ****   }
 174              		.loc 1 176 0
 175 00be 0020     		movs	r0, #0
 176              	.LVL30:
 179:..\u8g2\csrc/u8x8_d_st7565.c **** }
 177              		.loc 1 179 0
 178 00c0 BDE8F081 		pop	{r4, r5, r6, r7, r8, pc}
 179              	.LVL31:
 180              	.L13:
 181              		.align	2
 182              	.L12:
 183 00c4 00000000 		.word	.LANCHOR0
 184 00c8 08000000 		.word	.LANCHOR0+8
 185              		.cfi_endproc
 186              	.LFE0:
 187              		.size	u8x8_d_st7565_common, .-u8x8_d_st7565_common
 188              		.section	.text.u8x8_d_st7565_ea_dogm128,"ax",%progbits
 189              		.align	2
 190              		.global	u8x8_d_st7565_ea_dogm128
 191              		.thumb
 192              		.thumb_func
 193              		.type	u8x8_d_st7565_ea_dogm128, %function
 194              	u8x8_d_st7565_ea_dogm128:
 195              	.LFB1:
 180:..\u8g2\csrc/u8x8_d_st7565.c **** 
 181:..\u8g2\csrc/u8x8_d_st7565.c **** /*================================================*/
 182:..\u8g2\csrc/u8x8_d_st7565.c **** /* DOGM128 */
 183:..\u8g2\csrc/u8x8_d_st7565.c **** 
 184:..\u8g2\csrc/u8x8_d_st7565.c **** static const uint8_t u8x8_d_st7565_dogm128_init_seq[] = {
 185:..\u8g2\csrc/u8x8_d_st7565.c ****     
 186:..\u8g2\csrc/u8x8_d_st7565.c ****   U8X8_START_TRANSFER(),             	/* enable chip, delay is part of the transfer start */
 187:..\u8g2\csrc/u8x8_d_st7565.c ****   
 188:..\u8g2\csrc/u8x8_d_st7565.c ****   U8X8_C(0x0e2),            			/* soft reset */
 189:..\u8g2\csrc/u8x8_d_st7565.c ****   U8X8_C(0x0ae),		                /* display off */
 190:..\u8g2\csrc/u8x8_d_st7565.c ****   U8X8_C(0x040),		                /* set display start line to 0 */
 191:..\u8g2\csrc/u8x8_d_st7565.c ****   
 192:..\u8g2\csrc/u8x8_d_st7565.c ****   U8X8_C(0x0a1),		                /* ADC set to reverse */
 193:..\u8g2\csrc/u8x8_d_st7565.c ****   U8X8_C(0x0c0),		                /* common output mode */
 194:..\u8g2\csrc/u8x8_d_st7565.c ****   // Flipmode
ARM GAS  C:\Users\brian\AppData\Local\Temp\cc1Lhyrd.s 			page 8


 195:..\u8g2\csrc/u8x8_d_st7565.c ****   // U8X8_C(0x0a0),		                /* ADC set to reverse */
 196:..\u8g2\csrc/u8x8_d_st7565.c ****   // U8X8_C(0x0c8),		                /* common output mode */
 197:..\u8g2\csrc/u8x8_d_st7565.c ****   
 198:..\u8g2\csrc/u8x8_d_st7565.c ****   U8X8_C(0x0a6),		                /* display normal, bit val 0: LCD pixel off. */
 199:..\u8g2\csrc/u8x8_d_st7565.c ****   U8X8_C(0x0a2),		                /* LCD bias 1/9 */
 200:..\u8g2\csrc/u8x8_d_st7565.c ****   U8X8_C(0x02f),		                /* all power  control circuits on (regulator, booster and followe
 201:..\u8g2\csrc/u8x8_d_st7565.c ****   U8X8_CA(0x0f8, 0x000),		/* set booster ratio to 4x */
 202:..\u8g2\csrc/u8x8_d_st7565.c ****   U8X8_C(0x027),		                /* set V0 voltage resistor ratio to max  */
 203:..\u8g2\csrc/u8x8_d_st7565.c ****   U8X8_CA(0x081, 0x018),		/* set contrast, contrast value, EA default: 0x016 */
 204:..\u8g2\csrc/u8x8_d_st7565.c ****   
 205:..\u8g2\csrc/u8x8_d_st7565.c ****   U8X8_C(0x0ae),		                /* display off */
 206:..\u8g2\csrc/u8x8_d_st7565.c ****   U8X8_C(0x0a5),		                /* enter powersafe: all pixel on, issue 142 */
 207:..\u8g2\csrc/u8x8_d_st7565.c ****   
 208:..\u8g2\csrc/u8x8_d_st7565.c ****   U8X8_END_TRANSFER(),             	/* disable chip */
 209:..\u8g2\csrc/u8x8_d_st7565.c ****   U8X8_END()             			/* end of sequence */
 210:..\u8g2\csrc/u8x8_d_st7565.c **** };
 211:..\u8g2\csrc/u8x8_d_st7565.c **** 
 212:..\u8g2\csrc/u8x8_d_st7565.c **** uint8_t u8x8_d_st7565_ea_dogm128(u8x8_t *u8x8, uint8_t msg, uint8_t arg_int, void *arg_ptr)
 213:..\u8g2\csrc/u8x8_d_st7565.c **** {
 196              		.loc 1 213 0
 197              		.cfi_startproc
 198              		@ args = 0, pretend = 0, frame = 0
 199              		@ frame_needed = 0, uses_anonymous_args = 0
 200              	.LVL32:
 201 0000 70B5     		push	{r4, r5, r6, lr}
 202              		.cfi_def_cfa_offset 16
 203              		.cfi_offset 4, -16
 204              		.cfi_offset 5, -12
 205              		.cfi_offset 6, -8
 206              		.cfi_offset 14, -4
 207 0002 0546     		mov	r5, r0
 208 0004 0C46     		mov	r4, r1
 209 0006 1646     		mov	r6, r2
 214:..\u8g2\csrc/u8x8_d_st7565.c ****   /* call common procedure first and handle messages there */
 215:..\u8g2\csrc/u8x8_d_st7565.c ****   if ( u8x8_d_st7565_common(u8x8, msg, arg_int, arg_ptr) == 0 )
 210              		.loc 1 215 0
 211 0008 FFF7FEFF 		bl	u8x8_d_st7565_common
 212              	.LVL33:
 213 000c 50BB     		cbnz	r0, .L20
 214 000e 0346     		mov	r3, r0
 216:..\u8g2\csrc/u8x8_d_st7565.c ****   {
 217:..\u8g2\csrc/u8x8_d_st7565.c ****     /* msg not handled, then try here */
 218:..\u8g2\csrc/u8x8_d_st7565.c ****     switch(msg)
 215              		.loc 1 218 0
 216 0010 0A2C     		cmp	r4, #10
 217 0012 09D0     		beq	.L16
 218 0014 0D2C     		cmp	r4, #13
 219 0016 10D0     		beq	.L17
 220 0018 092C     		cmp	r4, #9
 221 001a 24D1     		bne	.L15
 219:..\u8g2\csrc/u8x8_d_st7565.c ****     {
 220:..\u8g2\csrc/u8x8_d_st7565.c ****       case U8X8_MSG_DISPLAY_SETUP_MEMORY:
 221:..\u8g2\csrc/u8x8_d_st7565.c **** 	u8x8_d_helper_display_setup_memory(u8x8, &u8x8_st7565_128x64_display_info);
 222              		.loc 1 221 0
 223 001c 1349     		ldr	r1, .L22
 224 001e 2846     		mov	r0, r5
 225 0020 FFF7FEFF 		bl	u8x8_d_helper_display_setup_memory
ARM GAS  C:\Users\brian\AppData\Local\Temp\cc1Lhyrd.s 			page 9


 226              	.LVL34:
 222:..\u8g2\csrc/u8x8_d_st7565.c **** 	break;
 223:..\u8g2\csrc/u8x8_d_st7565.c ****       case U8X8_MSG_DISPLAY_INIT:
 224:..\u8g2\csrc/u8x8_d_st7565.c **** 	u8x8_d_helper_display_init(u8x8);
 225:..\u8g2\csrc/u8x8_d_st7565.c **** 	u8x8_cad_SendSequence(u8x8, u8x8_d_st7565_dogm128_init_seq);
 226:..\u8g2\csrc/u8x8_d_st7565.c **** 	break;
 227:..\u8g2\csrc/u8x8_d_st7565.c ****       case U8X8_MSG_DISPLAY_SET_FLIP_MODE:
 228:..\u8g2\csrc/u8x8_d_st7565.c **** 	if ( arg_int == 0 )
 229:..\u8g2\csrc/u8x8_d_st7565.c **** 	{
 230:..\u8g2\csrc/u8x8_d_st7565.c **** 	  u8x8_cad_SendSequence(u8x8, u8x8_d_st7565_flip0_seq);
 231:..\u8g2\csrc/u8x8_d_st7565.c **** 	  u8x8->x_offset = u8x8->display_info->default_x_offset;
 232:..\u8g2\csrc/u8x8_d_st7565.c **** 	}
 233:..\u8g2\csrc/u8x8_d_st7565.c **** 	else
 234:..\u8g2\csrc/u8x8_d_st7565.c **** 	{
 235:..\u8g2\csrc/u8x8_d_st7565.c **** 	  u8x8_cad_SendSequence(u8x8, u8x8_d_st7565_flip1_seq);
 236:..\u8g2\csrc/u8x8_d_st7565.c **** 	  u8x8->x_offset = u8x8->display_info->flipmode_x_offset;
 237:..\u8g2\csrc/u8x8_d_st7565.c **** 	}	
 238:..\u8g2\csrc/u8x8_d_st7565.c **** 	break;
 239:..\u8g2\csrc/u8x8_d_st7565.c ****       default:
 240:..\u8g2\csrc/u8x8_d_st7565.c **** 	return 0;		/* msg unknown */
 241:..\u8g2\csrc/u8x8_d_st7565.c ****     }
 242:..\u8g2\csrc/u8x8_d_st7565.c ****   }
 243:..\u8g2\csrc/u8x8_d_st7565.c ****   return 1;
 227              		.loc 1 243 0
 228 0024 0123     		movs	r3, #1
 222:..\u8g2\csrc/u8x8_d_st7565.c **** 	break;
 229              		.loc 1 222 0
 230 0026 1EE0     		b	.L15
 231              	.L16:
 224:..\u8g2\csrc/u8x8_d_st7565.c **** 	u8x8_cad_SendSequence(u8x8, u8x8_d_st7565_dogm128_init_seq);
 232              		.loc 1 224 0
 233 0028 2846     		mov	r0, r5
 234 002a FFF7FEFF 		bl	u8x8_d_helper_display_init
 235              	.LVL35:
 225:..\u8g2\csrc/u8x8_d_st7565.c **** 	break;
 236              		.loc 1 225 0
 237 002e 1049     		ldr	r1, .L22+4
 238 0030 2846     		mov	r0, r5
 239 0032 FFF7FEFF 		bl	u8x8_cad_SendSequence
 240              	.LVL36:
 241              		.loc 1 243 0
 242 0036 0123     		movs	r3, #1
 226:..\u8g2\csrc/u8x8_d_st7565.c ****       case U8X8_MSG_DISPLAY_SET_FLIP_MODE:
 243              		.loc 1 226 0
 244 0038 15E0     		b	.L15
 245              	.L17:
 228:..\u8g2\csrc/u8x8_d_st7565.c **** 	{
 246              		.loc 1 228 0
 247 003a 4EB9     		cbnz	r6, .L19
 230:..\u8g2\csrc/u8x8_d_st7565.c **** 	  u8x8->x_offset = u8x8->display_info->default_x_offset;
 248              		.loc 1 230 0
 249 003c 0D49     		ldr	r1, .L22+8
 250 003e 2846     		mov	r0, r5
 251 0040 FFF7FEFF 		bl	u8x8_cad_SendSequence
 252              	.LVL37:
 231:..\u8g2\csrc/u8x8_d_st7565.c **** 	}
 253              		.loc 1 231 0
ARM GAS  C:\Users\brian\AppData\Local\Temp\cc1Lhyrd.s 			page 10


 254 0044 2B68     		ldr	r3, [r5]
 255 0046 9B7C     		ldrb	r3, [r3, #18]	@ zero_extendqisi2
 256 0048 85F82230 		strb	r3, [r5, #34]
 257              		.loc 1 243 0
 258 004c 0123     		movs	r3, #1
 259 004e 0AE0     		b	.L15
 260              	.L19:
 235:..\u8g2\csrc/u8x8_d_st7565.c **** 	  u8x8->x_offset = u8x8->display_info->flipmode_x_offset;
 261              		.loc 1 235 0
 262 0050 0949     		ldr	r1, .L22+12
 263 0052 2846     		mov	r0, r5
 264 0054 FFF7FEFF 		bl	u8x8_cad_SendSequence
 265              	.LVL38:
 236:..\u8g2\csrc/u8x8_d_st7565.c **** 	}	
 266              		.loc 1 236 0
 267 0058 2B68     		ldr	r3, [r5]
 268 005a DB7C     		ldrb	r3, [r3, #19]	@ zero_extendqisi2
 269 005c 85F82230 		strb	r3, [r5, #34]
 270              		.loc 1 243 0
 271 0060 0123     		movs	r3, #1
 272 0062 00E0     		b	.L15
 273              	.L20:
 274 0064 0123     		movs	r3, #1
 275              	.L15:
 244:..\u8g2\csrc/u8x8_d_st7565.c **** }
 276              		.loc 1 244 0
 277 0066 1846     		mov	r0, r3
 278 0068 70BD     		pop	{r4, r5, r6, pc}
 279              	.LVL39:
 280              	.L23:
 281 006a 00BF     		.align	2
 282              	.L22:
 283 006c 10000000 		.word	.LANCHOR0+16
 284 0070 28000000 		.word	.LANCHOR0+40
 285 0074 4C000000 		.word	.LANCHOR0+76
 286 0078 54000000 		.word	.LANCHOR0+84
 287              		.cfi_endproc
 288              	.LFE1:
 289              		.size	u8x8_d_st7565_ea_dogm128, .-u8x8_d_st7565_ea_dogm128
 290              		.section	.text.u8x8_d_st7565_lm6063,"ax",%progbits
 291              		.align	2
 292              		.global	u8x8_d_st7565_lm6063
 293              		.thumb
 294              		.thumb_func
 295              		.type	u8x8_d_st7565_lm6063, %function
 296              	u8x8_d_st7565_lm6063:
 297              	.LFB2:
 245:..\u8g2\csrc/u8x8_d_st7565.c **** 
 246:..\u8g2\csrc/u8x8_d_st7565.c **** 
 247:..\u8g2\csrc/u8x8_d_st7565.c **** 
 248:..\u8g2\csrc/u8x8_d_st7565.c **** /*================================================*/
 249:..\u8g2\csrc/u8x8_d_st7565.c **** /* LM6063 https://github.com/olikraus/u8g2/issues/893 */
 250:..\u8g2\csrc/u8x8_d_st7565.c **** 
 251:..\u8g2\csrc/u8x8_d_st7565.c **** static const uint8_t u8x8_d_st7565_lm6063_init_seq[] = {
 252:..\u8g2\csrc/u8x8_d_st7565.c ****     
 253:..\u8g2\csrc/u8x8_d_st7565.c ****   U8X8_START_TRANSFER(),             	/* enable chip, delay is part of the transfer start */
 254:..\u8g2\csrc/u8x8_d_st7565.c ****   
ARM GAS  C:\Users\brian\AppData\Local\Temp\cc1Lhyrd.s 			page 11


 255:..\u8g2\csrc/u8x8_d_st7565.c ****   U8X8_C(0x0e2),            			/* soft reset */
 256:..\u8g2\csrc/u8x8_d_st7565.c ****   U8X8_C(0x0ae),		                /* display off */
 257:..\u8g2\csrc/u8x8_d_st7565.c ****   U8X8_C(0x040),		                /* set display start line to 0 */
 258:..\u8g2\csrc/u8x8_d_st7565.c ****   
 259:..\u8g2\csrc/u8x8_d_st7565.c ****   U8X8_C(0x0a1),		                /* ADC set to reverse */
 260:..\u8g2\csrc/u8x8_d_st7565.c ****   U8X8_C(0x0c0),		                /* common output mode */
 261:..\u8g2\csrc/u8x8_d_st7565.c ****   // Flipmode
 262:..\u8g2\csrc/u8x8_d_st7565.c ****   // U8X8_C(0x0a0),		                /* ADC set to reverse */
 263:..\u8g2\csrc/u8x8_d_st7565.c ****   // U8X8_C(0x0c8),		                /* common output mode */
 264:..\u8g2\csrc/u8x8_d_st7565.c ****   
 265:..\u8g2\csrc/u8x8_d_st7565.c ****   U8X8_C(0x0a6),		                /* display normal, bit val 0: LCD pixel off. */
 266:..\u8g2\csrc/u8x8_d_st7565.c ****   U8X8_C(0x0a2),		                /* LCD bias 1/9 */
 267:..\u8g2\csrc/u8x8_d_st7565.c ****   U8X8_C(0x02f),		                /* all power  control circuits on (regulator, booster and followe
 268:..\u8g2\csrc/u8x8_d_st7565.c ****   U8X8_CA(0x0f8, 0x000),		/* set booster ratio to 4x */
 269:..\u8g2\csrc/u8x8_d_st7565.c ****   U8X8_C(0x027),		                /* set V0 voltage resistor ratio to max  */
 270:..\u8g2\csrc/u8x8_d_st7565.c ****   U8X8_CA(0x081, 50/4),		/* set contrast, contrast value, 40..60 seems to be good */
 271:..\u8g2\csrc/u8x8_d_st7565.c ****   
 272:..\u8g2\csrc/u8x8_d_st7565.c ****   U8X8_C(0x0ae),		                /* display off */
 273:..\u8g2\csrc/u8x8_d_st7565.c ****   U8X8_C(0x0a5),		                /* enter powersafe: all pixel on, issue 142 */
 274:..\u8g2\csrc/u8x8_d_st7565.c ****   
 275:..\u8g2\csrc/u8x8_d_st7565.c ****   U8X8_END_TRANSFER(),             	/* disable chip */
 276:..\u8g2\csrc/u8x8_d_st7565.c ****   U8X8_END()             			/* end of sequence */
 277:..\u8g2\csrc/u8x8_d_st7565.c **** };
 278:..\u8g2\csrc/u8x8_d_st7565.c **** 
 279:..\u8g2\csrc/u8x8_d_st7565.c **** uint8_t u8x8_d_st7565_lm6063(u8x8_t *u8x8, uint8_t msg, uint8_t arg_int, void *arg_ptr)
 280:..\u8g2\csrc/u8x8_d_st7565.c **** {
 298              		.loc 1 280 0
 299              		.cfi_startproc
 300              		@ args = 0, pretend = 0, frame = 0
 301              		@ frame_needed = 0, uses_anonymous_args = 0
 302              	.LVL40:
 303 0000 70B5     		push	{r4, r5, r6, lr}
 304              		.cfi_def_cfa_offset 16
 305              		.cfi_offset 4, -16
 306              		.cfi_offset 5, -12
 307              		.cfi_offset 6, -8
 308              		.cfi_offset 14, -4
 309 0002 0546     		mov	r5, r0
 310 0004 0C46     		mov	r4, r1
 311 0006 1646     		mov	r6, r2
 281:..\u8g2\csrc/u8x8_d_st7565.c ****   /* call common procedure first and handle messages there */
 282:..\u8g2\csrc/u8x8_d_st7565.c ****   if ( u8x8_d_st7565_common(u8x8, msg, arg_int, arg_ptr) == 0 )
 312              		.loc 1 282 0
 313 0008 FFF7FEFF 		bl	u8x8_d_st7565_common
 314              	.LVL41:
 315 000c 50BB     		cbnz	r0, .L30
 316 000e 0346     		mov	r3, r0
 283:..\u8g2\csrc/u8x8_d_st7565.c ****   {
 284:..\u8g2\csrc/u8x8_d_st7565.c ****     /* msg not handled, then try here */
 285:..\u8g2\csrc/u8x8_d_st7565.c ****     switch(msg)
 317              		.loc 1 285 0
 318 0010 0A2C     		cmp	r4, #10
 319 0012 09D0     		beq	.L26
 320 0014 0D2C     		cmp	r4, #13
 321 0016 10D0     		beq	.L27
 322 0018 092C     		cmp	r4, #9
 323 001a 24D1     		bne	.L25
ARM GAS  C:\Users\brian\AppData\Local\Temp\cc1Lhyrd.s 			page 12


 286:..\u8g2\csrc/u8x8_d_st7565.c ****     {
 287:..\u8g2\csrc/u8x8_d_st7565.c ****       case U8X8_MSG_DISPLAY_SETUP_MEMORY:
 288:..\u8g2\csrc/u8x8_d_st7565.c **** 	u8x8_d_helper_display_setup_memory(u8x8, &u8x8_st7565_128x64_display_info);
 324              		.loc 1 288 0
 325 001c 1349     		ldr	r1, .L32
 326 001e 2846     		mov	r0, r5
 327 0020 FFF7FEFF 		bl	u8x8_d_helper_display_setup_memory
 328              	.LVL42:
 289:..\u8g2\csrc/u8x8_d_st7565.c **** 	break;
 290:..\u8g2\csrc/u8x8_d_st7565.c ****       case U8X8_MSG_DISPLAY_INIT:
 291:..\u8g2\csrc/u8x8_d_st7565.c **** 	u8x8_d_helper_display_init(u8x8);
 292:..\u8g2\csrc/u8x8_d_st7565.c **** 	u8x8_cad_SendSequence(u8x8, u8x8_d_st7565_lm6063_init_seq);
 293:..\u8g2\csrc/u8x8_d_st7565.c **** 	break;
 294:..\u8g2\csrc/u8x8_d_st7565.c ****       case U8X8_MSG_DISPLAY_SET_FLIP_MODE:
 295:..\u8g2\csrc/u8x8_d_st7565.c **** 	if ( arg_int == 0 )
 296:..\u8g2\csrc/u8x8_d_st7565.c **** 	{
 297:..\u8g2\csrc/u8x8_d_st7565.c **** 	  u8x8_cad_SendSequence(u8x8, u8x8_d_st7565_flip0_seq);
 298:..\u8g2\csrc/u8x8_d_st7565.c **** 	  u8x8->x_offset = u8x8->display_info->default_x_offset;
 299:..\u8g2\csrc/u8x8_d_st7565.c **** 	}
 300:..\u8g2\csrc/u8x8_d_st7565.c **** 	else
 301:..\u8g2\csrc/u8x8_d_st7565.c **** 	{
 302:..\u8g2\csrc/u8x8_d_st7565.c **** 	  u8x8_cad_SendSequence(u8x8, u8x8_d_st7565_flip1_seq);
 303:..\u8g2\csrc/u8x8_d_st7565.c **** 	  u8x8->x_offset = u8x8->display_info->flipmode_x_offset;
 304:..\u8g2\csrc/u8x8_d_st7565.c **** 	}	
 305:..\u8g2\csrc/u8x8_d_st7565.c **** 	break;
 306:..\u8g2\csrc/u8x8_d_st7565.c ****       default:
 307:..\u8g2\csrc/u8x8_d_st7565.c **** 	return 0;		/* msg unknown */
 308:..\u8g2\csrc/u8x8_d_st7565.c ****     }
 309:..\u8g2\csrc/u8x8_d_st7565.c ****   }
 310:..\u8g2\csrc/u8x8_d_st7565.c ****   return 1;
 329              		.loc 1 310 0
 330 0024 0123     		movs	r3, #1
 289:..\u8g2\csrc/u8x8_d_st7565.c **** 	break;
 331              		.loc 1 289 0
 332 0026 1EE0     		b	.L25
 333              	.L26:
 291:..\u8g2\csrc/u8x8_d_st7565.c **** 	u8x8_cad_SendSequence(u8x8, u8x8_d_st7565_lm6063_init_seq);
 334              		.loc 1 291 0
 335 0028 2846     		mov	r0, r5
 336 002a FFF7FEFF 		bl	u8x8_d_helper_display_init
 337              	.LVL43:
 292:..\u8g2\csrc/u8x8_d_st7565.c **** 	break;
 338              		.loc 1 292 0
 339 002e 1049     		ldr	r1, .L32+4
 340 0030 2846     		mov	r0, r5
 341 0032 FFF7FEFF 		bl	u8x8_cad_SendSequence
 342              	.LVL44:
 343              		.loc 1 310 0
 344 0036 0123     		movs	r3, #1
 293:..\u8g2\csrc/u8x8_d_st7565.c ****       case U8X8_MSG_DISPLAY_SET_FLIP_MODE:
 345              		.loc 1 293 0
 346 0038 15E0     		b	.L25
 347              	.L27:
 295:..\u8g2\csrc/u8x8_d_st7565.c **** 	{
 348              		.loc 1 295 0
 349 003a 4EB9     		cbnz	r6, .L29
 297:..\u8g2\csrc/u8x8_d_st7565.c **** 	  u8x8->x_offset = u8x8->display_info->default_x_offset;
ARM GAS  C:\Users\brian\AppData\Local\Temp\cc1Lhyrd.s 			page 13


 350              		.loc 1 297 0
 351 003c 0D49     		ldr	r1, .L32+8
 352 003e 2846     		mov	r0, r5
 353 0040 FFF7FEFF 		bl	u8x8_cad_SendSequence
 354              	.LVL45:
 298:..\u8g2\csrc/u8x8_d_st7565.c **** 	}
 355              		.loc 1 298 0
 356 0044 2B68     		ldr	r3, [r5]
 357 0046 9B7C     		ldrb	r3, [r3, #18]	@ zero_extendqisi2
 358 0048 85F82230 		strb	r3, [r5, #34]
 359              		.loc 1 310 0
 360 004c 0123     		movs	r3, #1
 361 004e 0AE0     		b	.L25
 362              	.L29:
 302:..\u8g2\csrc/u8x8_d_st7565.c **** 	  u8x8->x_offset = u8x8->display_info->flipmode_x_offset;
 363              		.loc 1 302 0
 364 0050 0949     		ldr	r1, .L32+12
 365 0052 2846     		mov	r0, r5
 366 0054 FFF7FEFF 		bl	u8x8_cad_SendSequence
 367              	.LVL46:
 303:..\u8g2\csrc/u8x8_d_st7565.c **** 	}	
 368              		.loc 1 303 0
 369 0058 2B68     		ldr	r3, [r5]
 370 005a DB7C     		ldrb	r3, [r3, #19]	@ zero_extendqisi2
 371 005c 85F82230 		strb	r3, [r5, #34]
 372              		.loc 1 310 0
 373 0060 0123     		movs	r3, #1
 374 0062 00E0     		b	.L25
 375              	.L30:
 376 0064 0123     		movs	r3, #1
 377              	.L25:
 311:..\u8g2\csrc/u8x8_d_st7565.c **** }
 378              		.loc 1 311 0
 379 0066 1846     		mov	r0, r3
 380 0068 70BD     		pop	{r4, r5, r6, pc}
 381              	.LVL47:
 382              	.L33:
 383 006a 00BF     		.align	2
 384              	.L32:
 385 006c 10000000 		.word	.LANCHOR0+16
 386 0070 5C000000 		.word	.LANCHOR0+92
 387 0074 4C000000 		.word	.LANCHOR0+76
 388 0078 54000000 		.word	.LANCHOR0+84
 389              		.cfi_endproc
 390              	.LFE2:
 391              		.size	u8x8_d_st7565_lm6063, .-u8x8_d_st7565_lm6063
 392              		.section	.text.u8x8_d_st7565_64128n,"ax",%progbits
 393              		.align	2
 394              		.global	u8x8_d_st7565_64128n
 395              		.thumb
 396              		.thumb_func
 397              		.type	u8x8_d_st7565_64128n, %function
 398              	u8x8_d_st7565_64128n:
 399              	.LFB3:
 312:..\u8g2\csrc/u8x8_d_st7565.c **** 
 313:..\u8g2\csrc/u8x8_d_st7565.c **** 
 314:..\u8g2\csrc/u8x8_d_st7565.c **** /*================================================*/
ARM GAS  C:\Users\brian\AppData\Local\Temp\cc1Lhyrd.s 			page 14


 315:..\u8g2\csrc/u8x8_d_st7565.c **** /* Displaytech 64128n */
 316:..\u8g2\csrc/u8x8_d_st7565.c **** 
 317:..\u8g2\csrc/u8x8_d_st7565.c **** static const uint8_t u8x8_d_st7565_64128n_init_seq[] = {
 318:..\u8g2\csrc/u8x8_d_st7565.c ****     
 319:..\u8g2\csrc/u8x8_d_st7565.c ****   U8X8_START_TRANSFER(),             	/* enable chip, delay is part of the transfer start */
 320:..\u8g2\csrc/u8x8_d_st7565.c **** 
 321:..\u8g2\csrc/u8x8_d_st7565.c ****   #ifdef NOT_WORKING
 322:..\u8g2\csrc/u8x8_d_st7565.c ****   
 323:..\u8g2\csrc/u8x8_d_st7565.c ****   U8X8_C(0x0e2),            			/* soft reset */
 324:..\u8g2\csrc/u8x8_d_st7565.c ****   U8X8_C(0x0ae),		                /* display off */
 325:..\u8g2\csrc/u8x8_d_st7565.c ****   U8X8_C(0x040),		                /* set display start line to 0 */
 326:..\u8g2\csrc/u8x8_d_st7565.c ****   
 327:..\u8g2\csrc/u8x8_d_st7565.c ****   U8X8_C(0x0a1),		                /* ADC set to reverse */
 328:..\u8g2\csrc/u8x8_d_st7565.c ****   U8X8_C(0x0c0),		                /* common output mode */
 329:..\u8g2\csrc/u8x8_d_st7565.c ****   // Flipmode
 330:..\u8g2\csrc/u8x8_d_st7565.c ****   // U8X8_C(0x0a0),		                /* ADC set to reverse */
 331:..\u8g2\csrc/u8x8_d_st7565.c ****   // U8X8_C(0x0c8),		                /* common output mode */
 332:..\u8g2\csrc/u8x8_d_st7565.c ****   
 333:..\u8g2\csrc/u8x8_d_st7565.c ****   U8X8_C(0x0a6),		                /* display normal, bit val 0: LCD pixel off. */
 334:..\u8g2\csrc/u8x8_d_st7565.c ****   U8X8_C(0x0a2),		                /* LCD bias 1/9 */
 335:..\u8g2\csrc/u8x8_d_st7565.c ****   U8X8_C(0x02f),		                /* all power  control circuits on */
 336:..\u8g2\csrc/u8x8_d_st7565.c ****   //U8X8_CA(0x0f8, 0x000),		/* set booster ratio to 4x */
 337:..\u8g2\csrc/u8x8_d_st7565.c ****   //U8X8_C(0x027),		                /* set V0 voltage resistor ratio to max  */
 338:..\u8g2\csrc/u8x8_d_st7565.c **** 
 339:..\u8g2\csrc/u8x8_d_st7565.c ****   U8X8_C(0x010),                   		/* Set V0 voltage resistor ratio. Setting for controlling brig
 340:..\u8g2\csrc/u8x8_d_st7565.c ****   
 341:..\u8g2\csrc/u8x8_d_st7565.c ****   
 342:..\u8g2\csrc/u8x8_d_st7565.c ****   U8X8_CA(0x081, 0x01e),		/* set contrast, contrast value */
 343:..\u8g2\csrc/u8x8_d_st7565.c ****   
 344:..\u8g2\csrc/u8x8_d_st7565.c ****   U8X8_C(0x0ae),		                /* display off */
 345:..\u8g2\csrc/u8x8_d_st7565.c ****   U8X8_C(0x0a5),		                /* enter powersafe: all pixel on, issue 142 */
 346:..\u8g2\csrc/u8x8_d_st7565.c **** #else
 347:..\u8g2\csrc/u8x8_d_st7565.c **** 
 348:..\u8g2\csrc/u8x8_d_st7565.c **** 
 349:..\u8g2\csrc/u8x8_d_st7565.c ****   U8X8_C(0x0e2),            	   /* soft reset */
 350:..\u8g2\csrc/u8x8_d_st7565.c ****   U8X8_C(0x0A2),   				   /* 0x0a2: LCD bias 1/9 (according to Displaytech 64128N datasheet) */
 351:..\u8g2\csrc/u8x8_d_st7565.c ****   
 352:..\u8g2\csrc/u8x8_d_st7565.c ****   U8X8_C(0x0a1),		                /* ADC set to reverse */
 353:..\u8g2\csrc/u8x8_d_st7565.c ****   U8X8_C(0x0c0),		                /* common output mode */
 354:..\u8g2\csrc/u8x8_d_st7565.c ****   //U8X8_C(0x0A0),  				   /* Normal ADC Select (according to Displaytech 64128N datasheet) */
 355:..\u8g2\csrc/u8x8_d_st7565.c ****   //U8X8_C(0x0c8),                   /* common output mode: set scan direction normal operation/SHL
 356:..\u8g2\csrc/u8x8_d_st7565.c ****   
 357:..\u8g2\csrc/u8x8_d_st7565.c ****   U8X8_C(0x040),		           /* Display start line for Displaytech 64128N */
 358:..\u8g2\csrc/u8x8_d_st7565.c ****   U8X8_C(0x028 | 0x04),            /* power control: turn on voltage converter */
 359:..\u8g2\csrc/u8x8_d_st7565.c ****   U8X8_C(0x028 | 0x06),            /* power control: turn on voltage regulator */
 360:..\u8g2\csrc/u8x8_d_st7565.c ****   U8X8_C(0x028 | 0x07),            /* power control: turn on voltage follower */
 361:..\u8g2\csrc/u8x8_d_st7565.c ****   U8X8_C(0x010),                   /* Set V0 voltage resistor ratio. Setting for controlling bright
 362:..\u8g2\csrc/u8x8_d_st7565.c **** 					      /* 19 Jul 17: Not sure if this is true, cmd 0x1? is used to set the column */
 363:..\u8g2\csrc/u8x8_d_st7565.c ****   U8X8_C(0x0a6),                   /* display normal, bit val 0: LCD pixel off. */
 364:..\u8g2\csrc/u8x8_d_st7565.c ****   U8X8_C(0x081),      	           /* set contrast */
 365:..\u8g2\csrc/u8x8_d_st7565.c ****   U8X8_C(0x01e),        	       /* Contrast value. Setting for controlling brightness of Displaytec
 366:..\u8g2\csrc/u8x8_d_st7565.c ****   //U8X8_C(0x0af),		           /* display on */
 367:..\u8g2\csrc/u8x8_d_st7565.c ****   //U8X8_C(0x0a5),		           /* display all points, ST7565 */
 368:..\u8g2\csrc/u8x8_d_st7565.c ****   //U8X8_C(0x0a4),		           /* normal display */
 369:..\u8g2\csrc/u8x8_d_st7565.c **** 
 370:..\u8g2\csrc/u8x8_d_st7565.c ****   U8X8_C(0x0ae),		                /* display off */
 371:..\u8g2\csrc/u8x8_d_st7565.c **** 
ARM GAS  C:\Users\brian\AppData\Local\Temp\cc1Lhyrd.s 			page 15


 372:..\u8g2\csrc/u8x8_d_st7565.c **** 
 373:..\u8g2\csrc/u8x8_d_st7565.c **** #endif
 374:..\u8g2\csrc/u8x8_d_st7565.c **** 
 375:..\u8g2\csrc/u8x8_d_st7565.c ****   U8X8_END_TRANSFER(),             	/* disable chip */
 376:..\u8g2\csrc/u8x8_d_st7565.c ****   U8X8_END()             			/* end of sequence */
 377:..\u8g2\csrc/u8x8_d_st7565.c **** };
 378:..\u8g2\csrc/u8x8_d_st7565.c **** 
 379:..\u8g2\csrc/u8x8_d_st7565.c **** static const u8x8_display_info_t u8x8_st7565_64128n_display_info =
 380:..\u8g2\csrc/u8x8_d_st7565.c **** {
 381:..\u8g2\csrc/u8x8_d_st7565.c ****   /* chip_enable_level = */ 0,
 382:..\u8g2\csrc/u8x8_d_st7565.c ****   /* chip_disable_level = */ 1,
 383:..\u8g2\csrc/u8x8_d_st7565.c ****   
 384:..\u8g2\csrc/u8x8_d_st7565.c ****   /* post_chip_enable_wait_ns = */ 150,	/* st7565 datasheet, table 26, tcsh */
 385:..\u8g2\csrc/u8x8_d_st7565.c ****   /* pre_chip_disable_wait_ns = */ 50,	/* st7565 datasheet, table 26, tcss */
 386:..\u8g2\csrc/u8x8_d_st7565.c ****   /* reset_pulse_width_ms = */ 1, 
 387:..\u8g2\csrc/u8x8_d_st7565.c ****   /* post_reset_wait_ms = */ 1, 
 388:..\u8g2\csrc/u8x8_d_st7565.c ****   /* sda_setup_time_ns = */ 50,		/* st7565 datasheet, table 26, tsds */
 389:..\u8g2\csrc/u8x8_d_st7565.c ****   /* sck_pulse_width_ns = */ 120,	/* half of cycle time (100ns according to datasheet), AVR: below 
 390:..\u8g2\csrc/u8x8_d_st7565.c ****   /* sck_clock_hz = */ 4000000UL,	/* since Arduino 1.6.0, the SPI bus speed in Hz. Should be  10000
 391:..\u8g2\csrc/u8x8_d_st7565.c ****   /* spi_mode = */ 0,		/* active high, rising edge */
 392:..\u8g2\csrc/u8x8_d_st7565.c ****   /* i2c_bus_clock_100kHz = */ 4,
 393:..\u8g2\csrc/u8x8_d_st7565.c ****   /* data_setup_time_ns = */ 40,	/* st7565 datasheet, table 24, tds8 */
 394:..\u8g2\csrc/u8x8_d_st7565.c ****   /* write_pulse_width_ns = */ 80,	/* st7565 datasheet, table 24, tcclw */
 395:..\u8g2\csrc/u8x8_d_st7565.c ****   /* tile_width = */ 16,		/* width of 16*8=128 pixel */
 396:..\u8g2\csrc/u8x8_d_st7565.c ****   /* tile_hight = */ 8,
 397:..\u8g2\csrc/u8x8_d_st7565.c ****   /* default_x_offset = */ 4,
 398:..\u8g2\csrc/u8x8_d_st7565.c ****   /* flipmode_x_offset = */ 0,
 399:..\u8g2\csrc/u8x8_d_st7565.c ****   /* pixel_width = */ 128,
 400:..\u8g2\csrc/u8x8_d_st7565.c ****   /* pixel_height = */ 64
 401:..\u8g2\csrc/u8x8_d_st7565.c **** };
 402:..\u8g2\csrc/u8x8_d_st7565.c **** 
 403:..\u8g2\csrc/u8x8_d_st7565.c **** uint8_t u8x8_d_st7565_64128n(u8x8_t *u8x8, uint8_t msg, uint8_t arg_int, void *arg_ptr)
 404:..\u8g2\csrc/u8x8_d_st7565.c **** {
 400              		.loc 1 404 0
 401              		.cfi_startproc
 402              		@ args = 0, pretend = 0, frame = 0
 403              		@ frame_needed = 0, uses_anonymous_args = 0
 404              	.LVL48:
 405 0000 70B5     		push	{r4, r5, r6, lr}
 406              		.cfi_def_cfa_offset 16
 407              		.cfi_offset 4, -16
 408              		.cfi_offset 5, -12
 409              		.cfi_offset 6, -8
 410              		.cfi_offset 14, -4
 411 0002 0546     		mov	r5, r0
 412 0004 0C46     		mov	r4, r1
 413 0006 1646     		mov	r6, r2
 405:..\u8g2\csrc/u8x8_d_st7565.c ****   /* call common procedure first and handle messages there */
 406:..\u8g2\csrc/u8x8_d_st7565.c ****   if ( u8x8_d_st7565_common(u8x8, msg, arg_int, arg_ptr) == 0 )
 414              		.loc 1 406 0
 415 0008 FFF7FEFF 		bl	u8x8_d_st7565_common
 416              	.LVL49:
 417 000c 50BB     		cbnz	r0, .L40
 418 000e 0346     		mov	r3, r0
 407:..\u8g2\csrc/u8x8_d_st7565.c ****   {
 408:..\u8g2\csrc/u8x8_d_st7565.c ****     /* msg not handled, then try here */
 409:..\u8g2\csrc/u8x8_d_st7565.c ****     switch(msg)
ARM GAS  C:\Users\brian\AppData\Local\Temp\cc1Lhyrd.s 			page 16


 419              		.loc 1 409 0
 420 0010 0A2C     		cmp	r4, #10
 421 0012 09D0     		beq	.L36
 422 0014 0D2C     		cmp	r4, #13
 423 0016 10D0     		beq	.L37
 424 0018 092C     		cmp	r4, #9
 425 001a 24D1     		bne	.L35
 410:..\u8g2\csrc/u8x8_d_st7565.c ****     {
 411:..\u8g2\csrc/u8x8_d_st7565.c ****       case U8X8_MSG_DISPLAY_SETUP_MEMORY:
 412:..\u8g2\csrc/u8x8_d_st7565.c **** 	u8x8_d_helper_display_setup_memory(u8x8, &u8x8_st7565_64128n_display_info);
 426              		.loc 1 412 0
 427 001c 1349     		ldr	r1, .L42
 428 001e 2846     		mov	r0, r5
 429 0020 FFF7FEFF 		bl	u8x8_d_helper_display_setup_memory
 430              	.LVL50:
 413:..\u8g2\csrc/u8x8_d_st7565.c **** 	break;
 414:..\u8g2\csrc/u8x8_d_st7565.c ****       case U8X8_MSG_DISPLAY_INIT:
 415:..\u8g2\csrc/u8x8_d_st7565.c **** 	u8x8_d_helper_display_init(u8x8);
 416:..\u8g2\csrc/u8x8_d_st7565.c **** 	u8x8_cad_SendSequence(u8x8, u8x8_d_st7565_64128n_init_seq);
 417:..\u8g2\csrc/u8x8_d_st7565.c **** 	break;
 418:..\u8g2\csrc/u8x8_d_st7565.c ****       case U8X8_MSG_DISPLAY_SET_FLIP_MODE:
 419:..\u8g2\csrc/u8x8_d_st7565.c **** 	if ( arg_int == 0 )
 420:..\u8g2\csrc/u8x8_d_st7565.c **** 	{
 421:..\u8g2\csrc/u8x8_d_st7565.c **** 	  u8x8_cad_SendSequence(u8x8, u8x8_d_st7565_flip0_seq);
 422:..\u8g2\csrc/u8x8_d_st7565.c **** 	  u8x8->x_offset = u8x8->display_info->default_x_offset;
 423:..\u8g2\csrc/u8x8_d_st7565.c **** 	}
 424:..\u8g2\csrc/u8x8_d_st7565.c **** 	else
 425:..\u8g2\csrc/u8x8_d_st7565.c **** 	{
 426:..\u8g2\csrc/u8x8_d_st7565.c **** 	  u8x8_cad_SendSequence(u8x8, u8x8_d_st7565_flip1_seq);
 427:..\u8g2\csrc/u8x8_d_st7565.c **** 	  u8x8->x_offset = u8x8->display_info->flipmode_x_offset;
 428:..\u8g2\csrc/u8x8_d_st7565.c **** 	}	
 429:..\u8g2\csrc/u8x8_d_st7565.c **** 	break;
 430:..\u8g2\csrc/u8x8_d_st7565.c ****       default:
 431:..\u8g2\csrc/u8x8_d_st7565.c **** 	return 0;		/* msg unknown */
 432:..\u8g2\csrc/u8x8_d_st7565.c ****     }
 433:..\u8g2\csrc/u8x8_d_st7565.c ****   }
 434:..\u8g2\csrc/u8x8_d_st7565.c ****   return 1;
 431              		.loc 1 434 0
 432 0024 0123     		movs	r3, #1
 413:..\u8g2\csrc/u8x8_d_st7565.c **** 	break;
 433              		.loc 1 413 0
 434 0026 1EE0     		b	.L35
 435              	.L36:
 415:..\u8g2\csrc/u8x8_d_st7565.c **** 	u8x8_cad_SendSequence(u8x8, u8x8_d_st7565_64128n_init_seq);
 436              		.loc 1 415 0
 437 0028 2846     		mov	r0, r5
 438 002a FFF7FEFF 		bl	u8x8_d_helper_display_init
 439              	.LVL51:
 416:..\u8g2\csrc/u8x8_d_st7565.c **** 	break;
 440              		.loc 1 416 0
 441 002e 1049     		ldr	r1, .L42+4
 442 0030 2846     		mov	r0, r5
 443 0032 FFF7FEFF 		bl	u8x8_cad_SendSequence
 444              	.LVL52:
 445              		.loc 1 434 0
 446 0036 0123     		movs	r3, #1
 417:..\u8g2\csrc/u8x8_d_st7565.c ****       case U8X8_MSG_DISPLAY_SET_FLIP_MODE:
ARM GAS  C:\Users\brian\AppData\Local\Temp\cc1Lhyrd.s 			page 17


 447              		.loc 1 417 0
 448 0038 15E0     		b	.L35
 449              	.L37:
 419:..\u8g2\csrc/u8x8_d_st7565.c **** 	{
 450              		.loc 1 419 0
 451 003a 4EB9     		cbnz	r6, .L39
 421:..\u8g2\csrc/u8x8_d_st7565.c **** 	  u8x8->x_offset = u8x8->display_info->default_x_offset;
 452              		.loc 1 421 0
 453 003c 0D49     		ldr	r1, .L42+8
 454 003e 2846     		mov	r0, r5
 455 0040 FFF7FEFF 		bl	u8x8_cad_SendSequence
 456              	.LVL53:
 422:..\u8g2\csrc/u8x8_d_st7565.c **** 	}
 457              		.loc 1 422 0
 458 0044 2B68     		ldr	r3, [r5]
 459 0046 9B7C     		ldrb	r3, [r3, #18]	@ zero_extendqisi2
 460 0048 85F82230 		strb	r3, [r5, #34]
 461              		.loc 1 434 0
 462 004c 0123     		movs	r3, #1
 463 004e 0AE0     		b	.L35
 464              	.L39:
 426:..\u8g2\csrc/u8x8_d_st7565.c **** 	  u8x8->x_offset = u8x8->display_info->flipmode_x_offset;
 465              		.loc 1 426 0
 466 0050 0949     		ldr	r1, .L42+12
 467 0052 2846     		mov	r0, r5
 468 0054 FFF7FEFF 		bl	u8x8_cad_SendSequence
 469              	.LVL54:
 427:..\u8g2\csrc/u8x8_d_st7565.c **** 	}	
 470              		.loc 1 427 0
 471 0058 2B68     		ldr	r3, [r5]
 472 005a DB7C     		ldrb	r3, [r3, #19]	@ zero_extendqisi2
 473 005c 85F82230 		strb	r3, [r5, #34]
 474              		.loc 1 434 0
 475 0060 0123     		movs	r3, #1
 476 0062 00E0     		b	.L35
 477              	.L40:
 478 0064 0123     		movs	r3, #1
 479              	.L35:
 435:..\u8g2\csrc/u8x8_d_st7565.c **** }
 480              		.loc 1 435 0
 481 0066 1846     		mov	r0, r3
 482 0068 70BD     		pop	{r4, r5, r6, pc}
 483              	.LVL55:
 484              	.L43:
 485 006a 00BF     		.align	2
 486              	.L42:
 487 006c 80000000 		.word	.LANCHOR0+128
 488 0070 98000000 		.word	.LANCHOR0+152
 489 0074 4C000000 		.word	.LANCHOR0+76
 490 0078 54000000 		.word	.LANCHOR0+84
 491              		.cfi_endproc
 492              	.LFE3:
 493              		.size	u8x8_d_st7565_64128n, .-u8x8_d_st7565_64128n
 494              		.section	.text.u8x8_d_st7565_zolen_128x64,"ax",%progbits
 495              		.align	2
 496              		.global	u8x8_d_st7565_zolen_128x64
 497              		.thumb
ARM GAS  C:\Users\brian\AppData\Local\Temp\cc1Lhyrd.s 			page 18


 498              		.thumb_func
 499              		.type	u8x8_d_st7565_zolen_128x64, %function
 500              	u8x8_d_st7565_zolen_128x64:
 501              	.LFB4:
 436:..\u8g2\csrc/u8x8_d_st7565.c **** 
 437:..\u8g2\csrc/u8x8_d_st7565.c **** /*================================================*/
 438:..\u8g2\csrc/u8x8_d_st7565.c **** /* ZOLEN 128x64  */
 439:..\u8g2\csrc/u8x8_d_st7565.c **** 
 440:..\u8g2\csrc/u8x8_d_st7565.c **** static const uint8_t u8x8_d_st7565_zolen_128x64_init_seq[] = {
 441:..\u8g2\csrc/u8x8_d_st7565.c ****     
 442:..\u8g2\csrc/u8x8_d_st7565.c ****   U8X8_START_TRANSFER(),             	/* enable chip, delay is part of the transfer start */
 443:..\u8g2\csrc/u8x8_d_st7565.c ****   
 444:..\u8g2\csrc/u8x8_d_st7565.c ****   U8X8_C(0x0e2),            			/* soft reset */
 445:..\u8g2\csrc/u8x8_d_st7565.c ****   U8X8_C(0x0ae),		                /* display off */
 446:..\u8g2\csrc/u8x8_d_st7565.c ****   U8X8_C(0x040),		                /* set display start line to 0 */
 447:..\u8g2\csrc/u8x8_d_st7565.c ****   
 448:..\u8g2\csrc/u8x8_d_st7565.c ****   U8X8_C(0x0a1),		                /* ADC set to reverse */
 449:..\u8g2\csrc/u8x8_d_st7565.c ****   U8X8_C(0x0c8),		                /* common output mode */
 450:..\u8g2\csrc/u8x8_d_st7565.c ****   // Flipmode
 451:..\u8g2\csrc/u8x8_d_st7565.c ****   // U8X8_C(0x0a0),		                /* ADC set to reverse */
 452:..\u8g2\csrc/u8x8_d_st7565.c ****   // U8X8_C(0x0c0),		                /* common output mode */
 453:..\u8g2\csrc/u8x8_d_st7565.c ****   
 454:..\u8g2\csrc/u8x8_d_st7565.c ****   U8X8_C(0x0a6),		                /* display normal, bit val 0: LCD pixel off. */
 455:..\u8g2\csrc/u8x8_d_st7565.c ****   U8X8_C(0x0a2),		                /* LCD bias 1/9 */
 456:..\u8g2\csrc/u8x8_d_st7565.c ****   U8X8_C(0x02f),		                /* all power  control circuits on (regulator, booster and followe
 457:..\u8g2\csrc/u8x8_d_st7565.c ****   U8X8_CA(0x0f8, 0x000),		/* set booster ratio to 4x */
 458:..\u8g2\csrc/u8x8_d_st7565.c ****   U8X8_C(0x027),		                /* set V0 voltage resistor ratio to max  */
 459:..\u8g2\csrc/u8x8_d_st7565.c ****   U8X8_CA(0x081, 0x007),		/* set contrast, contrast value, EA default: 0x016 */
 460:..\u8g2\csrc/u8x8_d_st7565.c ****   
 461:..\u8g2\csrc/u8x8_d_st7565.c ****   U8X8_C(0x0ae),		                /* display off */
 462:..\u8g2\csrc/u8x8_d_st7565.c ****   U8X8_C(0x0a5),		                /* enter powersafe: all pixel on, issue 142 */
 463:..\u8g2\csrc/u8x8_d_st7565.c ****   
 464:..\u8g2\csrc/u8x8_d_st7565.c ****   U8X8_END_TRANSFER(),             	/* disable chip */
 465:..\u8g2\csrc/u8x8_d_st7565.c ****   U8X8_END()             			/* end of sequence */
 466:..\u8g2\csrc/u8x8_d_st7565.c **** };
 467:..\u8g2\csrc/u8x8_d_st7565.c **** 
 468:..\u8g2\csrc/u8x8_d_st7565.c **** uint8_t u8x8_d_st7565_zolen_128x64(u8x8_t *u8x8, uint8_t msg, uint8_t arg_int, void *arg_ptr)
 469:..\u8g2\csrc/u8x8_d_st7565.c **** {
 502              		.loc 1 469 0
 503              		.cfi_startproc
 504              		@ args = 0, pretend = 0, frame = 0
 505              		@ frame_needed = 0, uses_anonymous_args = 0
 506              	.LVL56:
 507 0000 70B5     		push	{r4, r5, r6, lr}
 508              		.cfi_def_cfa_offset 16
 509              		.cfi_offset 4, -16
 510              		.cfi_offset 5, -12
 511              		.cfi_offset 6, -8
 512              		.cfi_offset 14, -4
 513 0002 0546     		mov	r5, r0
 514 0004 0C46     		mov	r4, r1
 515 0006 1646     		mov	r6, r2
 470:..\u8g2\csrc/u8x8_d_st7565.c ****   /* call common procedure first and handle messages there */
 471:..\u8g2\csrc/u8x8_d_st7565.c ****   if ( u8x8_d_st7565_common(u8x8, msg, arg_int, arg_ptr) == 0 )
 516              		.loc 1 471 0
 517 0008 FFF7FEFF 		bl	u8x8_d_st7565_common
 518              	.LVL57:
ARM GAS  C:\Users\brian\AppData\Local\Temp\cc1Lhyrd.s 			page 19


 519 000c 50BB     		cbnz	r0, .L50
 520 000e 0346     		mov	r3, r0
 472:..\u8g2\csrc/u8x8_d_st7565.c ****   {
 473:..\u8g2\csrc/u8x8_d_st7565.c ****     /* msg not handled, then try here */
 474:..\u8g2\csrc/u8x8_d_st7565.c ****     switch(msg)
 521              		.loc 1 474 0
 522 0010 0A2C     		cmp	r4, #10
 523 0012 09D0     		beq	.L46
 524 0014 0D2C     		cmp	r4, #13
 525 0016 10D0     		beq	.L47
 526 0018 092C     		cmp	r4, #9
 527 001a 24D1     		bne	.L45
 475:..\u8g2\csrc/u8x8_d_st7565.c ****     {
 476:..\u8g2\csrc/u8x8_d_st7565.c ****       case U8X8_MSG_DISPLAY_SETUP_MEMORY:
 477:..\u8g2\csrc/u8x8_d_st7565.c **** 	u8x8_d_helper_display_setup_memory(u8x8, &u8x8_st7565_128x64_display_info);
 528              		.loc 1 477 0
 529 001c 1349     		ldr	r1, .L52
 530 001e 2846     		mov	r0, r5
 531 0020 FFF7FEFF 		bl	u8x8_d_helper_display_setup_memory
 532              	.LVL58:
 478:..\u8g2\csrc/u8x8_d_st7565.c **** 	break;
 479:..\u8g2\csrc/u8x8_d_st7565.c ****       case U8X8_MSG_DISPLAY_INIT:
 480:..\u8g2\csrc/u8x8_d_st7565.c **** 	u8x8_d_helper_display_init(u8x8);
 481:..\u8g2\csrc/u8x8_d_st7565.c **** 	u8x8_cad_SendSequence(u8x8, u8x8_d_st7565_zolen_128x64_init_seq);
 482:..\u8g2\csrc/u8x8_d_st7565.c **** 	break;
 483:..\u8g2\csrc/u8x8_d_st7565.c ****       case U8X8_MSG_DISPLAY_SET_FLIP_MODE:
 484:..\u8g2\csrc/u8x8_d_st7565.c **** 	if ( arg_int == 0 )
 485:..\u8g2\csrc/u8x8_d_st7565.c **** 	{
 486:..\u8g2\csrc/u8x8_d_st7565.c **** 	  u8x8_cad_SendSequence(u8x8, u8x8_d_st7565_zflip0_seq);
 487:..\u8g2\csrc/u8x8_d_st7565.c **** 	  u8x8->x_offset = u8x8->display_info->default_x_offset;
 488:..\u8g2\csrc/u8x8_d_st7565.c **** 	}
 489:..\u8g2\csrc/u8x8_d_st7565.c **** 	else
 490:..\u8g2\csrc/u8x8_d_st7565.c **** 	{
 491:..\u8g2\csrc/u8x8_d_st7565.c **** 	  u8x8_cad_SendSequence(u8x8, u8x8_d_st7565_zflip1_seq);
 492:..\u8g2\csrc/u8x8_d_st7565.c **** 	  u8x8->x_offset = u8x8->display_info->flipmode_x_offset;
 493:..\u8g2\csrc/u8x8_d_st7565.c **** 	}	
 494:..\u8g2\csrc/u8x8_d_st7565.c **** 	break;
 495:..\u8g2\csrc/u8x8_d_st7565.c ****       default:
 496:..\u8g2\csrc/u8x8_d_st7565.c **** 	return 0;		/* msg unknown */
 497:..\u8g2\csrc/u8x8_d_st7565.c ****     }
 498:..\u8g2\csrc/u8x8_d_st7565.c ****   }
 499:..\u8g2\csrc/u8x8_d_st7565.c ****   return 1;
 533              		.loc 1 499 0
 534 0024 0123     		movs	r3, #1
 478:..\u8g2\csrc/u8x8_d_st7565.c **** 	break;
 535              		.loc 1 478 0
 536 0026 1EE0     		b	.L45
 537              	.L46:
 480:..\u8g2\csrc/u8x8_d_st7565.c **** 	u8x8_cad_SendSequence(u8x8, u8x8_d_st7565_zolen_128x64_init_seq);
 538              		.loc 1 480 0
 539 0028 2846     		mov	r0, r5
 540 002a FFF7FEFF 		bl	u8x8_d_helper_display_init
 541              	.LVL59:
 481:..\u8g2\csrc/u8x8_d_st7565.c **** 	break;
 542              		.loc 1 481 0
 543 002e 1049     		ldr	r1, .L52+4
 544 0030 2846     		mov	r0, r5
ARM GAS  C:\Users\brian\AppData\Local\Temp\cc1Lhyrd.s 			page 20


 545 0032 FFF7FEFF 		bl	u8x8_cad_SendSequence
 546              	.LVL60:
 547              		.loc 1 499 0
 548 0036 0123     		movs	r3, #1
 482:..\u8g2\csrc/u8x8_d_st7565.c ****       case U8X8_MSG_DISPLAY_SET_FLIP_MODE:
 549              		.loc 1 482 0
 550 0038 15E0     		b	.L45
 551              	.L47:
 484:..\u8g2\csrc/u8x8_d_st7565.c **** 	{
 552              		.loc 1 484 0
 553 003a 4EB9     		cbnz	r6, .L49
 486:..\u8g2\csrc/u8x8_d_st7565.c **** 	  u8x8->x_offset = u8x8->display_info->default_x_offset;
 554              		.loc 1 486 0
 555 003c 0D49     		ldr	r1, .L52+8
 556 003e 2846     		mov	r0, r5
 557 0040 FFF7FEFF 		bl	u8x8_cad_SendSequence
 558              	.LVL61:
 487:..\u8g2\csrc/u8x8_d_st7565.c **** 	}
 559              		.loc 1 487 0
 560 0044 2B68     		ldr	r3, [r5]
 561 0046 9B7C     		ldrb	r3, [r3, #18]	@ zero_extendqisi2
 562 0048 85F82230 		strb	r3, [r5, #34]
 563              		.loc 1 499 0
 564 004c 0123     		movs	r3, #1
 565 004e 0AE0     		b	.L45
 566              	.L49:
 491:..\u8g2\csrc/u8x8_d_st7565.c **** 	  u8x8->x_offset = u8x8->display_info->flipmode_x_offset;
 567              		.loc 1 491 0
 568 0050 0949     		ldr	r1, .L52+12
 569 0052 2846     		mov	r0, r5
 570 0054 FFF7FEFF 		bl	u8x8_cad_SendSequence
 571              	.LVL62:
 492:..\u8g2\csrc/u8x8_d_st7565.c **** 	}	
 572              		.loc 1 492 0
 573 0058 2B68     		ldr	r3, [r5]
 574 005a DB7C     		ldrb	r3, [r3, #19]	@ zero_extendqisi2
 575 005c 85F82230 		strb	r3, [r5, #34]
 576              		.loc 1 499 0
 577 0060 0123     		movs	r3, #1
 578 0062 00E0     		b	.L45
 579              	.L50:
 580 0064 0123     		movs	r3, #1
 581              	.L45:
 500:..\u8g2\csrc/u8x8_d_st7565.c **** }
 582              		.loc 1 500 0
 583 0066 1846     		mov	r0, r3
 584 0068 70BD     		pop	{r4, r5, r6, pc}
 585              	.LVL63:
 586              	.L53:
 587 006a 00BF     		.align	2
 588              	.L52:
 589 006c 10000000 		.word	.LANCHOR0+16
 590 0070 B8000000 		.word	.LANCHOR0+184
 591 0074 DC000000 		.word	.LANCHOR0+220
 592 0078 E4000000 		.word	.LANCHOR0+228
 593              		.cfi_endproc
 594              	.LFE4:
ARM GAS  C:\Users\brian\AppData\Local\Temp\cc1Lhyrd.s 			page 21


 595              		.size	u8x8_d_st7565_zolen_128x64, .-u8x8_d_st7565_zolen_128x64
 596              		.section	.text.u8x8_d_st7565_nhd_c12832,"ax",%progbits
 597              		.align	2
 598              		.global	u8x8_d_st7565_nhd_c12832
 599              		.thumb
 600              		.thumb_func
 601              		.type	u8x8_d_st7565_nhd_c12832, %function
 602              	u8x8_d_st7565_nhd_c12832:
 603              	.LFB5:
 501:..\u8g2\csrc/u8x8_d_st7565.c **** 
 502:..\u8g2\csrc/u8x8_d_st7565.c **** 
 503:..\u8g2\csrc/u8x8_d_st7565.c **** 
 504:..\u8g2\csrc/u8x8_d_st7565.c **** /*================================================*/
 505:..\u8g2\csrc/u8x8_d_st7565.c **** /* NHD-C12832 */
 506:..\u8g2\csrc/u8x8_d_st7565.c **** 
 507:..\u8g2\csrc/u8x8_d_st7565.c **** static const u8x8_display_info_t u8x8_st7565_128x32_display_info =
 508:..\u8g2\csrc/u8x8_d_st7565.c **** {
 509:..\u8g2\csrc/u8x8_d_st7565.c ****   /* chip_enable_level = */ 0,
 510:..\u8g2\csrc/u8x8_d_st7565.c ****   /* chip_disable_level = */ 1,
 511:..\u8g2\csrc/u8x8_d_st7565.c ****   
 512:..\u8g2\csrc/u8x8_d_st7565.c ****   /* post_chip_enable_wait_ns = */ 150,	/* st7565 datasheet, table 26, tcsh */
 513:..\u8g2\csrc/u8x8_d_st7565.c ****   /* pre_chip_disable_wait_ns = */ 50,	/* st7565 datasheet, table 26, tcss */
 514:..\u8g2\csrc/u8x8_d_st7565.c ****   /* reset_pulse_width_ms = */ 1, 
 515:..\u8g2\csrc/u8x8_d_st7565.c ****   /* post_reset_wait_ms = */ 1, 
 516:..\u8g2\csrc/u8x8_d_st7565.c ****   /* sda_setup_time_ns = */ 50,		/* st7565 datasheet, table 26, tsds */
 517:..\u8g2\csrc/u8x8_d_st7565.c ****   /* sck_pulse_width_ns = */ 120,	/* half of cycle time (100ns according to datasheet), AVR: below 
 518:..\u8g2\csrc/u8x8_d_st7565.c ****   /* sck_clock_hz = */ 4000000UL,	/* since Arduino 1.6.0, the SPI bus speed in Hz. Should be  10000
 519:..\u8g2\csrc/u8x8_d_st7565.c ****   /* spi_mode = */ 0,		/* active high, rising edge */
 520:..\u8g2\csrc/u8x8_d_st7565.c ****   /* i2c_bus_clock_100kHz = */ 4,
 521:..\u8g2\csrc/u8x8_d_st7565.c ****   /* data_setup_time_ns = */ 40,	/* st7565 datasheet, table 24, tds8 */
 522:..\u8g2\csrc/u8x8_d_st7565.c ****   /* write_pulse_width_ns = */ 80,	/* st7565 datasheet, table 24, tcclw */
 523:..\u8g2\csrc/u8x8_d_st7565.c ****   /* tile_width = */ 16,		/* width of 16*8=128 pixel */
 524:..\u8g2\csrc/u8x8_d_st7565.c ****   /* tile_hight = */ 4,
 525:..\u8g2\csrc/u8x8_d_st7565.c ****   /* default_x_offset = */ 4,
 526:..\u8g2\csrc/u8x8_d_st7565.c ****   /* flipmode_x_offset = */ 0,
 527:..\u8g2\csrc/u8x8_d_st7565.c ****   /* pixel_width = */ 128,
 528:..\u8g2\csrc/u8x8_d_st7565.c ****   /* pixel_height = */ 32
 529:..\u8g2\csrc/u8x8_d_st7565.c **** };
 530:..\u8g2\csrc/u8x8_d_st7565.c **** 
 531:..\u8g2\csrc/u8x8_d_st7565.c **** 
 532:..\u8g2\csrc/u8x8_d_st7565.c **** static const uint8_t u8x8_d_st7565_nhd_c12832_init_seq[] = {
 533:..\u8g2\csrc/u8x8_d_st7565.c ****     
 534:..\u8g2\csrc/u8x8_d_st7565.c ****   U8X8_START_TRANSFER(),             	/* enable chip, delay is part of the transfer start */
 535:..\u8g2\csrc/u8x8_d_st7565.c ****   
 536:..\u8g2\csrc/u8x8_d_st7565.c ****   U8X8_C(0x0e2),            			/* soft reset */
 537:..\u8g2\csrc/u8x8_d_st7565.c ****   U8X8_C(0x0ae),		                /* display off */
 538:..\u8g2\csrc/u8x8_d_st7565.c ****   U8X8_C(0x040),		                /* set display start line to 0 */
 539:..\u8g2\csrc/u8x8_d_st7565.c ****   
 540:..\u8g2\csrc/u8x8_d_st7565.c ****   U8X8_C(0x0a1),		                /* ADC set to reverse */
 541:..\u8g2\csrc/u8x8_d_st7565.c ****   U8X8_C(0x0c0),		                /* common output mode */
 542:..\u8g2\csrc/u8x8_d_st7565.c ****   // Flipmode
 543:..\u8g2\csrc/u8x8_d_st7565.c ****   //U8X8_C(0x0a0),		                /* ADC set to reverse */
 544:..\u8g2\csrc/u8x8_d_st7565.c ****   //U8X8_C(0x0c8),		                /* common output mode */
 545:..\u8g2\csrc/u8x8_d_st7565.c ****   
 546:..\u8g2\csrc/u8x8_d_st7565.c ****   U8X8_C(0x0a6),		                /* display normal, bit val 0: LCD pixel off. */
 547:..\u8g2\csrc/u8x8_d_st7565.c ****   U8X8_C(0x0a2),		                /* LCD bias 1/9 */
 548:..\u8g2\csrc/u8x8_d_st7565.c ****   U8X8_C(0x02f),		                /* all power  control circuits on */
ARM GAS  C:\Users\brian\AppData\Local\Temp\cc1Lhyrd.s 			page 22


 549:..\u8g2\csrc/u8x8_d_st7565.c ****   U8X8_CA(0x0f8, 0x000),		/* set booster ratio to 4x */
 550:..\u8g2\csrc/u8x8_d_st7565.c ****   U8X8_C(0x023),		                /* set V0 voltage resistor ratio to large*/
 551:..\u8g2\csrc/u8x8_d_st7565.c ****   U8X8_CA(0x081, 0x00a),		/* set contrast, contrast value NHD C12832 */
 552:..\u8g2\csrc/u8x8_d_st7565.c ****   
 553:..\u8g2\csrc/u8x8_d_st7565.c ****   U8X8_C(0x0ae),		                /* display off */
 554:..\u8g2\csrc/u8x8_d_st7565.c ****   U8X8_C(0x0a5),		                /* enter powersafe: all pixel on, issue 142 */
 555:..\u8g2\csrc/u8x8_d_st7565.c ****   
 556:..\u8g2\csrc/u8x8_d_st7565.c ****   U8X8_END_TRANSFER(),             	/* disable chip */
 557:..\u8g2\csrc/u8x8_d_st7565.c ****   U8X8_END()             			/* end of sequence */
 558:..\u8g2\csrc/u8x8_d_st7565.c **** };
 559:..\u8g2\csrc/u8x8_d_st7565.c **** 
 560:..\u8g2\csrc/u8x8_d_st7565.c **** uint8_t u8x8_d_st7565_nhd_c12832(u8x8_t *u8x8, uint8_t msg, uint8_t arg_int, void *arg_ptr)
 561:..\u8g2\csrc/u8x8_d_st7565.c **** {
 604              		.loc 1 561 0
 605              		.cfi_startproc
 606              		@ args = 0, pretend = 0, frame = 0
 607              		@ frame_needed = 0, uses_anonymous_args = 0
 608              	.LVL64:
 609 0000 70B5     		push	{r4, r5, r6, lr}
 610              		.cfi_def_cfa_offset 16
 611              		.cfi_offset 4, -16
 612              		.cfi_offset 5, -12
 613              		.cfi_offset 6, -8
 614              		.cfi_offset 14, -4
 615 0002 0546     		mov	r5, r0
 616 0004 0C46     		mov	r4, r1
 617 0006 1646     		mov	r6, r2
 562:..\u8g2\csrc/u8x8_d_st7565.c ****   /* call common procedure first and handle messages there */
 563:..\u8g2\csrc/u8x8_d_st7565.c ****   if ( u8x8_d_st7565_common(u8x8, msg, arg_int, arg_ptr) == 0 )
 618              		.loc 1 563 0
 619 0008 FFF7FEFF 		bl	u8x8_d_st7565_common
 620              	.LVL65:
 621 000c 50BB     		cbnz	r0, .L60
 622 000e 0346     		mov	r3, r0
 564:..\u8g2\csrc/u8x8_d_st7565.c ****   {
 565:..\u8g2\csrc/u8x8_d_st7565.c ****     /* msg not handled, then try here */
 566:..\u8g2\csrc/u8x8_d_st7565.c ****     switch(msg)
 623              		.loc 1 566 0
 624 0010 0A2C     		cmp	r4, #10
 625 0012 09D0     		beq	.L56
 626 0014 0D2C     		cmp	r4, #13
 627 0016 10D0     		beq	.L57
 628 0018 092C     		cmp	r4, #9
 629 001a 24D1     		bne	.L55
 567:..\u8g2\csrc/u8x8_d_st7565.c ****     {
 568:..\u8g2\csrc/u8x8_d_st7565.c ****       case U8X8_MSG_DISPLAY_SETUP_MEMORY:
 569:..\u8g2\csrc/u8x8_d_st7565.c **** 	u8x8_d_helper_display_setup_memory(u8x8, &u8x8_st7565_128x32_display_info);
 630              		.loc 1 569 0
 631 001c 1349     		ldr	r1, .L62
 632 001e 2846     		mov	r0, r5
 633 0020 FFF7FEFF 		bl	u8x8_d_helper_display_setup_memory
 634              	.LVL66:
 570:..\u8g2\csrc/u8x8_d_st7565.c **** 	break;
 571:..\u8g2\csrc/u8x8_d_st7565.c ****       case U8X8_MSG_DISPLAY_INIT:
 572:..\u8g2\csrc/u8x8_d_st7565.c **** 	u8x8_d_helper_display_init(u8x8);
 573:..\u8g2\csrc/u8x8_d_st7565.c **** 	u8x8_cad_SendSequence(u8x8, u8x8_d_st7565_nhd_c12832_init_seq);
 574:..\u8g2\csrc/u8x8_d_st7565.c **** 	break;
ARM GAS  C:\Users\brian\AppData\Local\Temp\cc1Lhyrd.s 			page 23


 575:..\u8g2\csrc/u8x8_d_st7565.c ****       case U8X8_MSG_DISPLAY_SET_FLIP_MODE:
 576:..\u8g2\csrc/u8x8_d_st7565.c **** 	if ( arg_int == 0 )
 577:..\u8g2\csrc/u8x8_d_st7565.c **** 	{
 578:..\u8g2\csrc/u8x8_d_st7565.c **** 	  u8x8_cad_SendSequence(u8x8, u8x8_d_st7565_flip0_seq);
 579:..\u8g2\csrc/u8x8_d_st7565.c **** 	  u8x8->x_offset = u8x8->display_info->default_x_offset;
 580:..\u8g2\csrc/u8x8_d_st7565.c **** 	}
 581:..\u8g2\csrc/u8x8_d_st7565.c **** 	else
 582:..\u8g2\csrc/u8x8_d_st7565.c **** 	{
 583:..\u8g2\csrc/u8x8_d_st7565.c **** 	  u8x8_cad_SendSequence(u8x8, u8x8_d_st7565_flip1_seq);
 584:..\u8g2\csrc/u8x8_d_st7565.c **** 	  u8x8->x_offset = u8x8->display_info->flipmode_x_offset;
 585:..\u8g2\csrc/u8x8_d_st7565.c **** 	}	
 586:..\u8g2\csrc/u8x8_d_st7565.c **** 	break;
 587:..\u8g2\csrc/u8x8_d_st7565.c ****       default:
 588:..\u8g2\csrc/u8x8_d_st7565.c **** 	return 0;		/* msg unknown */
 589:..\u8g2\csrc/u8x8_d_st7565.c ****     }
 590:..\u8g2\csrc/u8x8_d_st7565.c ****   }
 591:..\u8g2\csrc/u8x8_d_st7565.c ****   return 1;
 635              		.loc 1 591 0
 636 0024 0123     		movs	r3, #1
 570:..\u8g2\csrc/u8x8_d_st7565.c **** 	break;
 637              		.loc 1 570 0
 638 0026 1EE0     		b	.L55
 639              	.L56:
 572:..\u8g2\csrc/u8x8_d_st7565.c **** 	u8x8_cad_SendSequence(u8x8, u8x8_d_st7565_nhd_c12832_init_seq);
 640              		.loc 1 572 0
 641 0028 2846     		mov	r0, r5
 642 002a FFF7FEFF 		bl	u8x8_d_helper_display_init
 643              	.LVL67:
 573:..\u8g2\csrc/u8x8_d_st7565.c **** 	break;
 644              		.loc 1 573 0
 645 002e 1049     		ldr	r1, .L62+4
 646 0030 2846     		mov	r0, r5
 647 0032 FFF7FEFF 		bl	u8x8_cad_SendSequence
 648              	.LVL68:
 649              		.loc 1 591 0
 650 0036 0123     		movs	r3, #1
 574:..\u8g2\csrc/u8x8_d_st7565.c ****       case U8X8_MSG_DISPLAY_SET_FLIP_MODE:
 651              		.loc 1 574 0
 652 0038 15E0     		b	.L55
 653              	.L57:
 576:..\u8g2\csrc/u8x8_d_st7565.c **** 	{
 654              		.loc 1 576 0
 655 003a 4EB9     		cbnz	r6, .L59
 578:..\u8g2\csrc/u8x8_d_st7565.c **** 	  u8x8->x_offset = u8x8->display_info->default_x_offset;
 656              		.loc 1 578 0
 657 003c 0D49     		ldr	r1, .L62+8
 658 003e 2846     		mov	r0, r5
 659 0040 FFF7FEFF 		bl	u8x8_cad_SendSequence
 660              	.LVL69:
 579:..\u8g2\csrc/u8x8_d_st7565.c **** 	}
 661              		.loc 1 579 0
 662 0044 2B68     		ldr	r3, [r5]
 663 0046 9B7C     		ldrb	r3, [r3, #18]	@ zero_extendqisi2
 664 0048 85F82230 		strb	r3, [r5, #34]
 665              		.loc 1 591 0
 666 004c 0123     		movs	r3, #1
 667 004e 0AE0     		b	.L55
ARM GAS  C:\Users\brian\AppData\Local\Temp\cc1Lhyrd.s 			page 24


 668              	.L59:
 583:..\u8g2\csrc/u8x8_d_st7565.c **** 	  u8x8->x_offset = u8x8->display_info->flipmode_x_offset;
 669              		.loc 1 583 0
 670 0050 0949     		ldr	r1, .L62+12
 671 0052 2846     		mov	r0, r5
 672 0054 FFF7FEFF 		bl	u8x8_cad_SendSequence
 673              	.LVL70:
 584:..\u8g2\csrc/u8x8_d_st7565.c **** 	}	
 674              		.loc 1 584 0
 675 0058 2B68     		ldr	r3, [r5]
 676 005a DB7C     		ldrb	r3, [r3, #19]	@ zero_extendqisi2
 677 005c 85F82230 		strb	r3, [r5, #34]
 678              		.loc 1 591 0
 679 0060 0123     		movs	r3, #1
 680 0062 00E0     		b	.L55
 681              	.L60:
 682 0064 0123     		movs	r3, #1
 683              	.L55:
 592:..\u8g2\csrc/u8x8_d_st7565.c **** }
 684              		.loc 1 592 0
 685 0066 1846     		mov	r0, r3
 686 0068 70BD     		pop	{r4, r5, r6, pc}
 687              	.LVL71:
 688              	.L63:
 689 006a 00BF     		.align	2
 690              	.L62:
 691 006c EC000000 		.word	.LANCHOR0+236
 692 0070 04010000 		.word	.LANCHOR0+260
 693 0074 4C000000 		.word	.LANCHOR0+76
 694 0078 54000000 		.word	.LANCHOR0+84
 695              		.cfi_endproc
 696              	.LFE5:
 697              		.size	u8x8_d_st7565_nhd_c12832, .-u8x8_d_st7565_nhd_c12832
 698              		.section	.text.u8x8_d_st7565_nhd_c12864,"ax",%progbits
 699              		.align	2
 700              		.global	u8x8_d_st7565_nhd_c12864
 701              		.thumb
 702              		.thumb_func
 703              		.type	u8x8_d_st7565_nhd_c12864, %function
 704              	u8x8_d_st7565_nhd_c12864:
 705              	.LFB6:
 593:..\u8g2\csrc/u8x8_d_st7565.c **** 
 594:..\u8g2\csrc/u8x8_d_st7565.c **** /*================================================*/
 595:..\u8g2\csrc/u8x8_d_st7565.c **** /* NHD-C12864 */
 596:..\u8g2\csrc/u8x8_d_st7565.c **** 
 597:..\u8g2\csrc/u8x8_d_st7565.c **** static const u8x8_display_info_t u8x8_st7565_nhd_c12864_display_info =
 598:..\u8g2\csrc/u8x8_d_st7565.c **** {
 599:..\u8g2\csrc/u8x8_d_st7565.c ****   /* chip_enable_level = */ 0,
 600:..\u8g2\csrc/u8x8_d_st7565.c ****   /* chip_disable_level = */ 1,
 601:..\u8g2\csrc/u8x8_d_st7565.c ****   
 602:..\u8g2\csrc/u8x8_d_st7565.c ****   /* post_chip_enable_wait_ns = */ 150,	/* st7565 datasheet, table 26, tcsh */
 603:..\u8g2\csrc/u8x8_d_st7565.c ****   /* pre_chip_disable_wait_ns = */ 50,	/* st7565 datasheet, table 26, tcss */
 604:..\u8g2\csrc/u8x8_d_st7565.c ****   /* reset_pulse_width_ms = */ 1, 
 605:..\u8g2\csrc/u8x8_d_st7565.c ****   /* post_reset_wait_ms = */ 1, 
 606:..\u8g2\csrc/u8x8_d_st7565.c ****   /* sda_setup_time_ns = */ 50,		/* st7565 datasheet, table 26, tsds */
 607:..\u8g2\csrc/u8x8_d_st7565.c ****   /* sck_pulse_width_ns = */ 120,	/* half of cycle time (100ns according to datasheet), AVR: below 
 608:..\u8g2\csrc/u8x8_d_st7565.c ****   /* sck_clock_hz = */ 4000000UL,	/* since Arduino 1.6.0, the SPI bus speed in Hz. Should be  10000
ARM GAS  C:\Users\brian\AppData\Local\Temp\cc1Lhyrd.s 			page 25


 609:..\u8g2\csrc/u8x8_d_st7565.c ****   /* spi_mode = */ 0,		/* active high, rising edge */
 610:..\u8g2\csrc/u8x8_d_st7565.c ****   /* i2c_bus_clock_100kHz = */ 4,
 611:..\u8g2\csrc/u8x8_d_st7565.c ****   /* data_setup_time_ns = */ 40,	/* st7565 datasheet, table 24, tds8 */
 612:..\u8g2\csrc/u8x8_d_st7565.c ****   /* write_pulse_width_ns = */ 80,	/* st7565 datasheet, table 24, tcclw */
 613:..\u8g2\csrc/u8x8_d_st7565.c ****   /* tile_width = */ 16,		/* width of 16*8=128 pixel */
 614:..\u8g2\csrc/u8x8_d_st7565.c ****   /* tile_hight = */ 8,
 615:..\u8g2\csrc/u8x8_d_st7565.c ****   /* default_x_offset = */ 4,
 616:..\u8g2\csrc/u8x8_d_st7565.c ****   /* flipmode_x_offset = */ 0,
 617:..\u8g2\csrc/u8x8_d_st7565.c ****   /* pixel_width = */ 128,
 618:..\u8g2\csrc/u8x8_d_st7565.c ****   /* pixel_height = */ 64
 619:..\u8g2\csrc/u8x8_d_st7565.c **** };
 620:..\u8g2\csrc/u8x8_d_st7565.c **** 
 621:..\u8g2\csrc/u8x8_d_st7565.c **** 
 622:..\u8g2\csrc/u8x8_d_st7565.c **** static const uint8_t u8x8_d_st7565_nhd_c12864_init_seq[] = {
 623:..\u8g2\csrc/u8x8_d_st7565.c ****     
 624:..\u8g2\csrc/u8x8_d_st7565.c ****   U8X8_START_TRANSFER(),             	/* enable chip, delay is part of the transfer start */
 625:..\u8g2\csrc/u8x8_d_st7565.c ****   
 626:..\u8g2\csrc/u8x8_d_st7565.c ****   U8X8_C(0x0e2),            			/* soft reset */
 627:..\u8g2\csrc/u8x8_d_st7565.c ****   U8X8_C(0x0ae),		                /* display off */
 628:..\u8g2\csrc/u8x8_d_st7565.c ****   U8X8_C(0x040),		                /* set display start line to 0 */
 629:..\u8g2\csrc/u8x8_d_st7565.c ****   
 630:..\u8g2\csrc/u8x8_d_st7565.c ****   U8X8_C(0x0a1),		                /* ADC set to reverse */
 631:..\u8g2\csrc/u8x8_d_st7565.c ****   U8X8_C(0x0c0),		                /* common output mode */
 632:..\u8g2\csrc/u8x8_d_st7565.c ****   // Flipmode
 633:..\u8g2\csrc/u8x8_d_st7565.c ****   //U8X8_C(0x0a0),		                /* ADC set to reverse */
 634:..\u8g2\csrc/u8x8_d_st7565.c ****   //U8X8_C(0x0c8),		                /* common output mode */
 635:..\u8g2\csrc/u8x8_d_st7565.c ****   
 636:..\u8g2\csrc/u8x8_d_st7565.c ****   U8X8_C(0x0a6),		                /* display normal, bit val 0: LCD pixel off. */
 637:..\u8g2\csrc/u8x8_d_st7565.c ****   U8X8_C(0x0a2),		                /* LCD bias 1/9 */
 638:..\u8g2\csrc/u8x8_d_st7565.c ****   U8X8_C(0x02f),		                /* all power  control circuits on */
 639:..\u8g2\csrc/u8x8_d_st7565.c ****   U8X8_CA(0x0f8, 0x000),		/* set booster ratio to 4x */
 640:..\u8g2\csrc/u8x8_d_st7565.c ****   U8X8_C(0x023),		                /* set V0 voltage resistor ratio to large*/
 641:..\u8g2\csrc/u8x8_d_st7565.c ****   U8X8_CA(0x081, 180),			/* set contrast, contrast value NHD C12864, see issue 186, increased contr
 642:..\u8g2\csrc/u8x8_d_st7565.c ****   
 643:..\u8g2\csrc/u8x8_d_st7565.c ****   U8X8_C(0x0ae),		                /* display off */
 644:..\u8g2\csrc/u8x8_d_st7565.c ****   U8X8_C(0x0a5),		                /* enter powersafe: all pixel on, issue 142 */
 645:..\u8g2\csrc/u8x8_d_st7565.c ****   
 646:..\u8g2\csrc/u8x8_d_st7565.c ****   U8X8_END_TRANSFER(),             	/* disable chip */
 647:..\u8g2\csrc/u8x8_d_st7565.c ****   U8X8_END()             			/* end of sequence */
 648:..\u8g2\csrc/u8x8_d_st7565.c **** };
 649:..\u8g2\csrc/u8x8_d_st7565.c **** 
 650:..\u8g2\csrc/u8x8_d_st7565.c **** uint8_t u8x8_d_st7565_nhd_c12864(u8x8_t *u8x8, uint8_t msg, uint8_t arg_int, void *arg_ptr)
 651:..\u8g2\csrc/u8x8_d_st7565.c **** {
 706              		.loc 1 651 0
 707              		.cfi_startproc
 708              		@ args = 0, pretend = 0, frame = 0
 709              		@ frame_needed = 0, uses_anonymous_args = 0
 710              	.LVL72:
 711 0000 70B5     		push	{r4, r5, r6, lr}
 712              		.cfi_def_cfa_offset 16
 713              		.cfi_offset 4, -16
 714              		.cfi_offset 5, -12
 715              		.cfi_offset 6, -8
 716              		.cfi_offset 14, -4
 717 0002 0546     		mov	r5, r0
 718 0004 0C46     		mov	r4, r1
 719 0006 1646     		mov	r6, r2
ARM GAS  C:\Users\brian\AppData\Local\Temp\cc1Lhyrd.s 			page 26


 652:..\u8g2\csrc/u8x8_d_st7565.c ****   /* call common procedure first and handle messages there */
 653:..\u8g2\csrc/u8x8_d_st7565.c ****   if ( u8x8_d_st7565_common(u8x8, msg, arg_int, arg_ptr) == 0 )
 720              		.loc 1 653 0
 721 0008 FFF7FEFF 		bl	u8x8_d_st7565_common
 722              	.LVL73:
 723 000c 50BB     		cbnz	r0, .L70
 724 000e 0346     		mov	r3, r0
 654:..\u8g2\csrc/u8x8_d_st7565.c ****   {
 655:..\u8g2\csrc/u8x8_d_st7565.c ****     /* msg not handled, then try here */
 656:..\u8g2\csrc/u8x8_d_st7565.c ****     switch(msg)
 725              		.loc 1 656 0
 726 0010 0A2C     		cmp	r4, #10
 727 0012 09D0     		beq	.L66
 728 0014 0D2C     		cmp	r4, #13
 729 0016 10D0     		beq	.L67
 730 0018 092C     		cmp	r4, #9
 731 001a 24D1     		bne	.L65
 657:..\u8g2\csrc/u8x8_d_st7565.c ****     {
 658:..\u8g2\csrc/u8x8_d_st7565.c ****       case U8X8_MSG_DISPLAY_SETUP_MEMORY:
 659:..\u8g2\csrc/u8x8_d_st7565.c **** 	u8x8_d_helper_display_setup_memory(u8x8, &u8x8_st7565_nhd_c12864_display_info);
 732              		.loc 1 659 0
 733 001c 1349     		ldr	r1, .L72
 734 001e 2846     		mov	r0, r5
 735 0020 FFF7FEFF 		bl	u8x8_d_helper_display_setup_memory
 736              	.LVL74:
 660:..\u8g2\csrc/u8x8_d_st7565.c **** 	break;
 661:..\u8g2\csrc/u8x8_d_st7565.c ****       case U8X8_MSG_DISPLAY_INIT:
 662:..\u8g2\csrc/u8x8_d_st7565.c **** 	u8x8_d_helper_display_init(u8x8);
 663:..\u8g2\csrc/u8x8_d_st7565.c **** 	u8x8_cad_SendSequence(u8x8, u8x8_d_st7565_nhd_c12864_init_seq);
 664:..\u8g2\csrc/u8x8_d_st7565.c **** 	break;
 665:..\u8g2\csrc/u8x8_d_st7565.c ****       case U8X8_MSG_DISPLAY_SET_FLIP_MODE:
 666:..\u8g2\csrc/u8x8_d_st7565.c **** 	if ( arg_int == 0 )
 667:..\u8g2\csrc/u8x8_d_st7565.c **** 	{
 668:..\u8g2\csrc/u8x8_d_st7565.c **** 	  u8x8_cad_SendSequence(u8x8, u8x8_d_st7565_flip0_seq);
 669:..\u8g2\csrc/u8x8_d_st7565.c **** 	  u8x8->x_offset = u8x8->display_info->default_x_offset;
 670:..\u8g2\csrc/u8x8_d_st7565.c **** 	}
 671:..\u8g2\csrc/u8x8_d_st7565.c **** 	else
 672:..\u8g2\csrc/u8x8_d_st7565.c **** 	{
 673:..\u8g2\csrc/u8x8_d_st7565.c **** 	  u8x8_cad_SendSequence(u8x8, u8x8_d_st7565_flip1_seq);
 674:..\u8g2\csrc/u8x8_d_st7565.c **** 	  u8x8->x_offset = u8x8->display_info->flipmode_x_offset;
 675:..\u8g2\csrc/u8x8_d_st7565.c **** 	}	
 676:..\u8g2\csrc/u8x8_d_st7565.c **** 	break;
 677:..\u8g2\csrc/u8x8_d_st7565.c ****       default:
 678:..\u8g2\csrc/u8x8_d_st7565.c **** 	return 0;		/* msg unknown */
 679:..\u8g2\csrc/u8x8_d_st7565.c ****     }
 680:..\u8g2\csrc/u8x8_d_st7565.c ****   }
 681:..\u8g2\csrc/u8x8_d_st7565.c ****   return 1;
 737              		.loc 1 681 0
 738 0024 0123     		movs	r3, #1
 660:..\u8g2\csrc/u8x8_d_st7565.c **** 	break;
 739              		.loc 1 660 0
 740 0026 1EE0     		b	.L65
 741              	.L66:
 662:..\u8g2\csrc/u8x8_d_st7565.c **** 	u8x8_cad_SendSequence(u8x8, u8x8_d_st7565_nhd_c12864_init_seq);
 742              		.loc 1 662 0
 743 0028 2846     		mov	r0, r5
 744 002a FFF7FEFF 		bl	u8x8_d_helper_display_init
ARM GAS  C:\Users\brian\AppData\Local\Temp\cc1Lhyrd.s 			page 27


 745              	.LVL75:
 663:..\u8g2\csrc/u8x8_d_st7565.c **** 	break;
 746              		.loc 1 663 0
 747 002e 1049     		ldr	r1, .L72+4
 748 0030 2846     		mov	r0, r5
 749 0032 FFF7FEFF 		bl	u8x8_cad_SendSequence
 750              	.LVL76:
 751              		.loc 1 681 0
 752 0036 0123     		movs	r3, #1
 664:..\u8g2\csrc/u8x8_d_st7565.c ****       case U8X8_MSG_DISPLAY_SET_FLIP_MODE:
 753              		.loc 1 664 0
 754 0038 15E0     		b	.L65
 755              	.L67:
 666:..\u8g2\csrc/u8x8_d_st7565.c **** 	{
 756              		.loc 1 666 0
 757 003a 4EB9     		cbnz	r6, .L69
 668:..\u8g2\csrc/u8x8_d_st7565.c **** 	  u8x8->x_offset = u8x8->display_info->default_x_offset;
 758              		.loc 1 668 0
 759 003c 0D49     		ldr	r1, .L72+8
 760 003e 2846     		mov	r0, r5
 761 0040 FFF7FEFF 		bl	u8x8_cad_SendSequence
 762              	.LVL77:
 669:..\u8g2\csrc/u8x8_d_st7565.c **** 	}
 763              		.loc 1 669 0
 764 0044 2B68     		ldr	r3, [r5]
 765 0046 9B7C     		ldrb	r3, [r3, #18]	@ zero_extendqisi2
 766 0048 85F82230 		strb	r3, [r5, #34]
 767              		.loc 1 681 0
 768 004c 0123     		movs	r3, #1
 769 004e 0AE0     		b	.L65
 770              	.L69:
 673:..\u8g2\csrc/u8x8_d_st7565.c **** 	  u8x8->x_offset = u8x8->display_info->flipmode_x_offset;
 771              		.loc 1 673 0
 772 0050 0949     		ldr	r1, .L72+12
 773 0052 2846     		mov	r0, r5
 774 0054 FFF7FEFF 		bl	u8x8_cad_SendSequence
 775              	.LVL78:
 674:..\u8g2\csrc/u8x8_d_st7565.c **** 	}	
 776              		.loc 1 674 0
 777 0058 2B68     		ldr	r3, [r5]
 778 005a DB7C     		ldrb	r3, [r3, #19]	@ zero_extendqisi2
 779 005c 85F82230 		strb	r3, [r5, #34]
 780              		.loc 1 681 0
 781 0060 0123     		movs	r3, #1
 782 0062 00E0     		b	.L65
 783              	.L70:
 784 0064 0123     		movs	r3, #1
 785              	.L65:
 682:..\u8g2\csrc/u8x8_d_st7565.c **** }
 786              		.loc 1 682 0
 787 0066 1846     		mov	r0, r3
 788 0068 70BD     		pop	{r4, r5, r6, pc}
 789              	.LVL79:
 790              	.L73:
 791 006a 00BF     		.align	2
 792              	.L72:
 793 006c 28010000 		.word	.LANCHOR0+296
ARM GAS  C:\Users\brian\AppData\Local\Temp\cc1Lhyrd.s 			page 28


 794 0070 40010000 		.word	.LANCHOR0+320
 795 0074 4C000000 		.word	.LANCHOR0+76
 796 0078 54000000 		.word	.LANCHOR0+84
 797              		.cfi_endproc
 798              	.LFE6:
 799              		.size	u8x8_d_st7565_nhd_c12864, .-u8x8_d_st7565_nhd_c12864
 800              		.section	.text.u8x8_d_st7565_jlx12864,"ax",%progbits
 801              		.align	2
 802              		.global	u8x8_d_st7565_jlx12864
 803              		.thumb
 804              		.thumb_func
 805              		.type	u8x8_d_st7565_jlx12864, %function
 806              	u8x8_d_st7565_jlx12864:
 807              	.LFB7:
 683:..\u8g2\csrc/u8x8_d_st7565.c **** /*================================================*/
 684:..\u8g2\csrc/u8x8_d_st7565.c **** /* JLX12864 */
 685:..\u8g2\csrc/u8x8_d_st7565.c **** 
 686:..\u8g2\csrc/u8x8_d_st7565.c **** uint8_t u8x8_d_st7565_jlx12864(u8x8_t *u8x8, uint8_t msg, uint8_t arg_int, void *arg_ptr)
 687:..\u8g2\csrc/u8x8_d_st7565.c **** {
 808              		.loc 1 687 0
 809              		.cfi_startproc
 810              		@ args = 0, pretend = 0, frame = 0
 811              		@ frame_needed = 0, uses_anonymous_args = 0
 812              	.LVL80:
 813 0000 08B5     		push	{r3, lr}
 814              		.cfi_def_cfa_offset 8
 815              		.cfi_offset 3, -8
 816              		.cfi_offset 14, -4
 688:..\u8g2\csrc/u8x8_d_st7565.c ****   return u8x8_d_st7565_nhd_c12864(u8x8, msg, arg_int, arg_ptr);
 817              		.loc 1 688 0
 818 0002 FFF7FEFF 		bl	u8x8_d_st7565_nhd_c12864
 819              	.LVL81:
 689:..\u8g2\csrc/u8x8_d_st7565.c **** }
 820              		.loc 1 689 0
 821 0006 08BD     		pop	{r3, pc}
 822              		.cfi_endproc
 823              	.LFE7:
 824              		.size	u8x8_d_st7565_jlx12864, .-u8x8_d_st7565_jlx12864
 825              		.section	.text.u8x8_d_st7565_lm6059,"ax",%progbits
 826              		.align	2
 827              		.global	u8x8_d_st7565_lm6059
 828              		.thumb
 829              		.thumb_func
 830              		.type	u8x8_d_st7565_lm6059, %function
 831              	u8x8_d_st7565_lm6059:
 832              	.LFB8:
 690:..\u8g2\csrc/u8x8_d_st7565.c **** 
 691:..\u8g2\csrc/u8x8_d_st7565.c **** 
 692:..\u8g2\csrc/u8x8_d_st7565.c **** /*================================================*/
 693:..\u8g2\csrc/u8x8_d_st7565.c **** /* LM6059 (Adafruit)... probably this is a ST7567 display */
 694:..\u8g2\csrc/u8x8_d_st7565.c **** 
 695:..\u8g2\csrc/u8x8_d_st7565.c **** static const uint8_t u8x8_d_st7565_lm6059_init_seq[] = {
 696:..\u8g2\csrc/u8x8_d_st7565.c ****     
 697:..\u8g2\csrc/u8x8_d_st7565.c ****   U8X8_START_TRANSFER(),             	/* enable chip, delay is part of the transfer start */
 698:..\u8g2\csrc/u8x8_d_st7565.c ****   
 699:..\u8g2\csrc/u8x8_d_st7565.c ****   U8X8_C(0x0e2),            			/* soft reset */
 700:..\u8g2\csrc/u8x8_d_st7565.c ****   U8X8_C(0x0ae),		                /* display off */
ARM GAS  C:\Users\brian\AppData\Local\Temp\cc1Lhyrd.s 			page 29


 701:..\u8g2\csrc/u8x8_d_st7565.c ****   U8X8_C(0x060),		                /* set display start line to ... */
 702:..\u8g2\csrc/u8x8_d_st7565.c ****   
 703:..\u8g2\csrc/u8x8_d_st7565.c ****   U8X8_C(0x0a0),		                /* ADC set to reverse */
 704:..\u8g2\csrc/u8x8_d_st7565.c ****   U8X8_C(0x0c8),		                /* common output mode */
 705:..\u8g2\csrc/u8x8_d_st7565.c ****   //U8X8_C(0x0a1),		                /* ADC set to reverse */
 706:..\u8g2\csrc/u8x8_d_st7565.c ****   //U8X8_C(0x0c0),		                /* common output mode */
 707:..\u8g2\csrc/u8x8_d_st7565.c ****   // Flipmode
 708:..\u8g2\csrc/u8x8_d_st7565.c ****   // U8X8_C(0x0a0),		                /* ADC set to reverse */
 709:..\u8g2\csrc/u8x8_d_st7565.c ****   // U8X8_C(0x0c8),		                /* common output mode */
 710:..\u8g2\csrc/u8x8_d_st7565.c ****   
 711:..\u8g2\csrc/u8x8_d_st7565.c ****   U8X8_C(0x0a6),		                /* display normal, bit val 0: LCD pixel off. */
 712:..\u8g2\csrc/u8x8_d_st7565.c ****   U8X8_C(0x0a3),		                /* LCD bias 1/9 */
 713:..\u8g2\csrc/u8x8_d_st7565.c ****   U8X8_C(0x02f),		                /* all power  control circuits on (regulator, booster and followe
 714:..\u8g2\csrc/u8x8_d_st7565.c ****   U8X8_CA(0x0f8, 0x000),		/* set booster ratio to 4x (ST7567 feature) */
 715:..\u8g2\csrc/u8x8_d_st7565.c ****   U8X8_C(0x027),		                /* set V0 voltage resistor ratio to max  */
 716:..\u8g2\csrc/u8x8_d_st7565.c ****   U8X8_CA(0x081, 0x018),		/* set contrast, contrast value, EA default: 0x016 */
 717:..\u8g2\csrc/u8x8_d_st7565.c ****   
 718:..\u8g2\csrc/u8x8_d_st7565.c ****   U8X8_C(0x0ae),		                /* display off */
 719:..\u8g2\csrc/u8x8_d_st7565.c ****   U8X8_C(0x0a5),		                /* enter powersafe: all pixel on, issue 142 */
 720:..\u8g2\csrc/u8x8_d_st7565.c ****   
 721:..\u8g2\csrc/u8x8_d_st7565.c ****   U8X8_END_TRANSFER(),             	/* disable chip */
 722:..\u8g2\csrc/u8x8_d_st7565.c ****   U8X8_END()             			/* end of sequence */
 723:..\u8g2\csrc/u8x8_d_st7565.c **** };
 724:..\u8g2\csrc/u8x8_d_st7565.c **** 
 725:..\u8g2\csrc/u8x8_d_st7565.c **** static const u8x8_display_info_t u8x8_st7565_lm6059_display_info =
 726:..\u8g2\csrc/u8x8_d_st7565.c **** {
 727:..\u8g2\csrc/u8x8_d_st7565.c ****   /* chip_enable_level = */ 0,
 728:..\u8g2\csrc/u8x8_d_st7565.c ****   /* chip_disable_level = */ 1,
 729:..\u8g2\csrc/u8x8_d_st7565.c ****   
 730:..\u8g2\csrc/u8x8_d_st7565.c ****   /* post_chip_enable_wait_ns = */ 150,	/* st7565 datasheet, table 26, tcsh */
 731:..\u8g2\csrc/u8x8_d_st7565.c ****   /* pre_chip_disable_wait_ns = */ 50,	/* st7565 datasheet, table 26, tcss */
 732:..\u8g2\csrc/u8x8_d_st7565.c ****   /* reset_pulse_width_ms = */ 1, 
 733:..\u8g2\csrc/u8x8_d_st7565.c ****   /* post_reset_wait_ms = */ 1, 
 734:..\u8g2\csrc/u8x8_d_st7565.c ****   /* sda_setup_time_ns = */ 50,		/* st7565 datasheet, table 26, tsds */
 735:..\u8g2\csrc/u8x8_d_st7565.c ****   /* sck_pulse_width_ns = */ 120,	/* half of cycle time (100ns according to datasheet), AVR: below 
 736:..\u8g2\csrc/u8x8_d_st7565.c ****   /* sck_clock_hz = */ 4000000UL,	/* since Arduino 1.6.0, the SPI bus speed in Hz. Should be  10000
 737:..\u8g2\csrc/u8x8_d_st7565.c ****   /* spi_mode = */ 0,		/* active high, rising edge */
 738:..\u8g2\csrc/u8x8_d_st7565.c ****   /* i2c_bus_clock_100kHz = */ 4,
 739:..\u8g2\csrc/u8x8_d_st7565.c ****   /* data_setup_time_ns = */ 40,	/* st7565 datasheet, table 24, tds8 */
 740:..\u8g2\csrc/u8x8_d_st7565.c ****   /* write_pulse_width_ns = */ 80,	/* st7565 datasheet, table 24, tcclw */
 741:..\u8g2\csrc/u8x8_d_st7565.c ****   /* tile_width = */ 16,		/* width of 16*8=128 pixel */
 742:..\u8g2\csrc/u8x8_d_st7565.c ****   /* tile_hight = */ 8,
 743:..\u8g2\csrc/u8x8_d_st7565.c ****   /* default_x_offset = */ 1,	/* not sure... */
 744:..\u8g2\csrc/u8x8_d_st7565.c ****   /* flipmode_x_offset = */ 3,
 745:..\u8g2\csrc/u8x8_d_st7565.c ****   /* pixel_width = */ 128,
 746:..\u8g2\csrc/u8x8_d_st7565.c ****   /* pixel_height = */ 64
 747:..\u8g2\csrc/u8x8_d_st7565.c **** };
 748:..\u8g2\csrc/u8x8_d_st7565.c **** 
 749:..\u8g2\csrc/u8x8_d_st7565.c **** uint8_t u8x8_d_st7565_lm6059(u8x8_t *u8x8, uint8_t msg, uint8_t arg_int, void *arg_ptr)
 750:..\u8g2\csrc/u8x8_d_st7565.c **** {
 833              		.loc 1 750 0
 834              		.cfi_startproc
 835              		@ args = 0, pretend = 0, frame = 0
 836              		@ frame_needed = 0, uses_anonymous_args = 0
 837              	.LVL82:
 838 0000 70B5     		push	{r4, r5, r6, lr}
 839              		.cfi_def_cfa_offset 16
ARM GAS  C:\Users\brian\AppData\Local\Temp\cc1Lhyrd.s 			page 30


 840              		.cfi_offset 4, -16
 841              		.cfi_offset 5, -12
 842              		.cfi_offset 6, -8
 843              		.cfi_offset 14, -4
 844 0002 0546     		mov	r5, r0
 845 0004 0C46     		mov	r4, r1
 846 0006 1646     		mov	r6, r2
 751:..\u8g2\csrc/u8x8_d_st7565.c ****   /* call common procedure first and handle messages there */
 752:..\u8g2\csrc/u8x8_d_st7565.c ****   if ( u8x8_d_st7565_common(u8x8, msg, arg_int, arg_ptr) == 0 )
 847              		.loc 1 752 0
 848 0008 FFF7FEFF 		bl	u8x8_d_st7565_common
 849              	.LVL83:
 850 000c 50BB     		cbnz	r0, .L82
 851 000e 0346     		mov	r3, r0
 753:..\u8g2\csrc/u8x8_d_st7565.c ****   {
 754:..\u8g2\csrc/u8x8_d_st7565.c ****     /* msg not handled, then try here */
 755:..\u8g2\csrc/u8x8_d_st7565.c ****     switch(msg)
 852              		.loc 1 755 0
 853 0010 0A2C     		cmp	r4, #10
 854 0012 09D0     		beq	.L78
 855 0014 0D2C     		cmp	r4, #13
 856 0016 10D0     		beq	.L79
 857 0018 092C     		cmp	r4, #9
 858 001a 24D1     		bne	.L77
 756:..\u8g2\csrc/u8x8_d_st7565.c ****     {
 757:..\u8g2\csrc/u8x8_d_st7565.c ****       case U8X8_MSG_DISPLAY_SETUP_MEMORY:
 758:..\u8g2\csrc/u8x8_d_st7565.c **** 	u8x8_d_helper_display_setup_memory(u8x8, &u8x8_st7565_lm6059_display_info);
 859              		.loc 1 758 0
 860 001c 1349     		ldr	r1, .L84
 861 001e 2846     		mov	r0, r5
 862 0020 FFF7FEFF 		bl	u8x8_d_helper_display_setup_memory
 863              	.LVL84:
 759:..\u8g2\csrc/u8x8_d_st7565.c **** 	break;
 760:..\u8g2\csrc/u8x8_d_st7565.c ****       case U8X8_MSG_DISPLAY_INIT:
 761:..\u8g2\csrc/u8x8_d_st7565.c **** 	u8x8_d_helper_display_init(u8x8);
 762:..\u8g2\csrc/u8x8_d_st7565.c **** 	u8x8_cad_SendSequence(u8x8, u8x8_d_st7565_lm6059_init_seq);
 763:..\u8g2\csrc/u8x8_d_st7565.c **** 	break;
 764:..\u8g2\csrc/u8x8_d_st7565.c ****       case U8X8_MSG_DISPLAY_SET_FLIP_MODE:
 765:..\u8g2\csrc/u8x8_d_st7565.c **** 	if ( arg_int == 0 )
 766:..\u8g2\csrc/u8x8_d_st7565.c **** 	{
 767:..\u8g2\csrc/u8x8_d_st7565.c **** 	  u8x8_cad_SendSequence(u8x8, u8x8_d_st7565_flip1_seq);
 768:..\u8g2\csrc/u8x8_d_st7565.c **** 	  u8x8->x_offset = u8x8->display_info->default_x_offset;
 769:..\u8g2\csrc/u8x8_d_st7565.c **** 	}
 770:..\u8g2\csrc/u8x8_d_st7565.c **** 	else
 771:..\u8g2\csrc/u8x8_d_st7565.c **** 	{
 772:..\u8g2\csrc/u8x8_d_st7565.c **** 	  u8x8_cad_SendSequence(u8x8, u8x8_d_st7565_flip0_seq);
 773:..\u8g2\csrc/u8x8_d_st7565.c **** 	  u8x8->x_offset = u8x8->display_info->flipmode_x_offset;
 774:..\u8g2\csrc/u8x8_d_st7565.c **** 	}	
 775:..\u8g2\csrc/u8x8_d_st7565.c **** 	break;
 776:..\u8g2\csrc/u8x8_d_st7565.c ****       default:
 777:..\u8g2\csrc/u8x8_d_st7565.c **** 	return 0;		/* msg unknown */
 778:..\u8g2\csrc/u8x8_d_st7565.c ****     }
 779:..\u8g2\csrc/u8x8_d_st7565.c ****   }
 780:..\u8g2\csrc/u8x8_d_st7565.c ****   return 1;
 864              		.loc 1 780 0
 865 0024 0123     		movs	r3, #1
 759:..\u8g2\csrc/u8x8_d_st7565.c **** 	break;
ARM GAS  C:\Users\brian\AppData\Local\Temp\cc1Lhyrd.s 			page 31


 866              		.loc 1 759 0
 867 0026 1EE0     		b	.L77
 868              	.L78:
 761:..\u8g2\csrc/u8x8_d_st7565.c **** 	u8x8_cad_SendSequence(u8x8, u8x8_d_st7565_lm6059_init_seq);
 869              		.loc 1 761 0
 870 0028 2846     		mov	r0, r5
 871 002a FFF7FEFF 		bl	u8x8_d_helper_display_init
 872              	.LVL85:
 762:..\u8g2\csrc/u8x8_d_st7565.c **** 	break;
 873              		.loc 1 762 0
 874 002e 1049     		ldr	r1, .L84+4
 875 0030 2846     		mov	r0, r5
 876 0032 FFF7FEFF 		bl	u8x8_cad_SendSequence
 877              	.LVL86:
 878              		.loc 1 780 0
 879 0036 0123     		movs	r3, #1
 763:..\u8g2\csrc/u8x8_d_st7565.c ****       case U8X8_MSG_DISPLAY_SET_FLIP_MODE:
 880              		.loc 1 763 0
 881 0038 15E0     		b	.L77
 882              	.L79:
 765:..\u8g2\csrc/u8x8_d_st7565.c **** 	{
 883              		.loc 1 765 0
 884 003a 4EB9     		cbnz	r6, .L81
 767:..\u8g2\csrc/u8x8_d_st7565.c **** 	  u8x8->x_offset = u8x8->display_info->default_x_offset;
 885              		.loc 1 767 0
 886 003c 0D49     		ldr	r1, .L84+8
 887 003e 2846     		mov	r0, r5
 888 0040 FFF7FEFF 		bl	u8x8_cad_SendSequence
 889              	.LVL87:
 768:..\u8g2\csrc/u8x8_d_st7565.c **** 	}
 890              		.loc 1 768 0
 891 0044 2B68     		ldr	r3, [r5]
 892 0046 9B7C     		ldrb	r3, [r3, #18]	@ zero_extendqisi2
 893 0048 85F82230 		strb	r3, [r5, #34]
 894              		.loc 1 780 0
 895 004c 0123     		movs	r3, #1
 896 004e 0AE0     		b	.L77
 897              	.L81:
 772:..\u8g2\csrc/u8x8_d_st7565.c **** 	  u8x8->x_offset = u8x8->display_info->flipmode_x_offset;
 898              		.loc 1 772 0
 899 0050 0949     		ldr	r1, .L84+12
 900 0052 2846     		mov	r0, r5
 901 0054 FFF7FEFF 		bl	u8x8_cad_SendSequence
 902              	.LVL88:
 773:..\u8g2\csrc/u8x8_d_st7565.c **** 	}	
 903              		.loc 1 773 0
 904 0058 2B68     		ldr	r3, [r5]
 905 005a DB7C     		ldrb	r3, [r3, #19]	@ zero_extendqisi2
 906 005c 85F82230 		strb	r3, [r5, #34]
 907              		.loc 1 780 0
 908 0060 0123     		movs	r3, #1
 909 0062 00E0     		b	.L77
 910              	.L82:
 911 0064 0123     		movs	r3, #1
 912              	.L77:
 781:..\u8g2\csrc/u8x8_d_st7565.c **** }
 913              		.loc 1 781 0
ARM GAS  C:\Users\brian\AppData\Local\Temp\cc1Lhyrd.s 			page 32


 914 0066 1846     		mov	r0, r3
 915 0068 70BD     		pop	{r4, r5, r6, pc}
 916              	.LVL89:
 917              	.L85:
 918 006a 00BF     		.align	2
 919              	.L84:
 920 006c 64010000 		.word	.LANCHOR0+356
 921 0070 7C010000 		.word	.LANCHOR0+380
 922 0074 54000000 		.word	.LANCHOR0+84
 923 0078 4C000000 		.word	.LANCHOR0+76
 924              		.cfi_endproc
 925              	.LFE8:
 926              		.size	u8x8_d_st7565_lm6059, .-u8x8_d_st7565_lm6059
 927              		.section	.text.u8x8_d_st7565_ks0713,"ax",%progbits
 928              		.align	2
 929              		.global	u8x8_d_st7565_ks0713
 930              		.thumb
 931              		.thumb_func
 932              		.type	u8x8_d_st7565_ks0713, %function
 933              	u8x8_d_st7565_ks0713:
 934              	.LFB9:
 782:..\u8g2\csrc/u8x8_d_st7565.c **** 
 783:..\u8g2\csrc/u8x8_d_st7565.c **** /*================================================*/
 784:..\u8g2\csrc/u8x8_d_st7565.c **** /* https://github.com/olikraus/u8g2/issues/1314 */
 785:..\u8g2\csrc/u8x8_d_st7565.c **** /* KS0713 controller, takeover from LM6059 */
 786:..\u8g2\csrc/u8x8_d_st7565.c **** 
 787:..\u8g2\csrc/u8x8_d_st7565.c **** static const uint8_t u8x8_d_st7565_ks0713_init_seq[] = {
 788:..\u8g2\csrc/u8x8_d_st7565.c ****     
 789:..\u8g2\csrc/u8x8_d_st7565.c ****   U8X8_START_TRANSFER(),             /* enable chip, delay is part of the transfer start */
 790:..\u8g2\csrc/u8x8_d_st7565.c ****   U8X8_C(0x0ae),		                /* display off */
 791:..\u8g2\csrc/u8x8_d_st7565.c ****   U8X8_C(0x0e2),            			 /* soft reset */
 792:..\u8g2\csrc/u8x8_d_st7565.c ****   U8X8_C(0x0a3),		                /* LCD bias 1/9 */
 793:..\u8g2\csrc/u8x8_d_st7565.c ****   U8X8_C(0x0a0),		                /* ADC set to reverse */
 794:..\u8g2\csrc/u8x8_d_st7565.c ****   U8X8_C(0x0c0),		                /* common output mode */
 795:..\u8g2\csrc/u8x8_d_st7565.c ****   U8X8_C(0x02f),		                /* all power  control circuits on (regulator, booster and followe
 796:..\u8g2\csrc/u8x8_d_st7565.c ****   U8X8_C(0x026),		                /* set V0 voltage resistor ratio to max  */
 797:..\u8g2\csrc/u8x8_d_st7565.c ****   U8X8_C(0x0a6),		                /* display normal, bit val 0: LCD pixel off. */
 798:..\u8g2\csrc/u8x8_d_st7565.c ****   U8X8_CA(0x081, 0x010),		       /* set contrast, contrast value, EA default: 0x016 */
 799:..\u8g2\csrc/u8x8_d_st7565.c ****   U8X8_C(0x0af),		                /* display on */
 800:..\u8g2\csrc/u8x8_d_st7565.c ****   U8X8_END_TRANSFER(),             	/* disable chip */
 801:..\u8g2\csrc/u8x8_d_st7565.c ****   U8X8_END()             			/* end of sequence */
 802:..\u8g2\csrc/u8x8_d_st7565.c **** };
 803:..\u8g2\csrc/u8x8_d_st7565.c **** 
 804:..\u8g2\csrc/u8x8_d_st7565.c **** uint8_t u8x8_d_st7565_ks0713(u8x8_t *u8x8, uint8_t msg, uint8_t arg_int, void *arg_ptr)
 805:..\u8g2\csrc/u8x8_d_st7565.c **** {
 935              		.loc 1 805 0
 936              		.cfi_startproc
 937              		@ args = 0, pretend = 0, frame = 0
 938              		@ frame_needed = 0, uses_anonymous_args = 0
 939              	.LVL90:
 940 0000 70B5     		push	{r4, r5, r6, lr}
 941              		.cfi_def_cfa_offset 16
 942              		.cfi_offset 4, -16
 943              		.cfi_offset 5, -12
 944              		.cfi_offset 6, -8
 945              		.cfi_offset 14, -4
 946 0002 0546     		mov	r5, r0
ARM GAS  C:\Users\brian\AppData\Local\Temp\cc1Lhyrd.s 			page 33


 947 0004 0C46     		mov	r4, r1
 948 0006 1646     		mov	r6, r2
 806:..\u8g2\csrc/u8x8_d_st7565.c ****   /* call common procedure first and handle messages there */
 807:..\u8g2\csrc/u8x8_d_st7565.c ****   if ( u8x8_d_st7565_common(u8x8, msg, arg_int, arg_ptr) == 0 )
 949              		.loc 1 807 0
 950 0008 FFF7FEFF 		bl	u8x8_d_st7565_common
 951              	.LVL91:
 952 000c 50BB     		cbnz	r0, .L92
 953 000e 0346     		mov	r3, r0
 808:..\u8g2\csrc/u8x8_d_st7565.c ****   {
 809:..\u8g2\csrc/u8x8_d_st7565.c ****     /* msg not handled, then try here */
 810:..\u8g2\csrc/u8x8_d_st7565.c ****     switch(msg)
 954              		.loc 1 810 0
 955 0010 0A2C     		cmp	r4, #10
 956 0012 09D0     		beq	.L88
 957 0014 0D2C     		cmp	r4, #13
 958 0016 10D0     		beq	.L89
 959 0018 092C     		cmp	r4, #9
 960 001a 24D1     		bne	.L87
 811:..\u8g2\csrc/u8x8_d_st7565.c ****     {
 812:..\u8g2\csrc/u8x8_d_st7565.c ****       case U8X8_MSG_DISPLAY_SETUP_MEMORY:
 813:..\u8g2\csrc/u8x8_d_st7565.c **** 	u8x8_d_helper_display_setup_memory(u8x8, &u8x8_st7565_lm6059_display_info);
 961              		.loc 1 813 0
 962 001c 1349     		ldr	r1, .L94
 963 001e 2846     		mov	r0, r5
 964 0020 FFF7FEFF 		bl	u8x8_d_helper_display_setup_memory
 965              	.LVL92:
 814:..\u8g2\csrc/u8x8_d_st7565.c **** 	break;
 815:..\u8g2\csrc/u8x8_d_st7565.c ****       case U8X8_MSG_DISPLAY_INIT:
 816:..\u8g2\csrc/u8x8_d_st7565.c **** 	u8x8_d_helper_display_init(u8x8);
 817:..\u8g2\csrc/u8x8_d_st7565.c **** 	u8x8_cad_SendSequence(u8x8, u8x8_d_st7565_ks0713_init_seq);
 818:..\u8g2\csrc/u8x8_d_st7565.c **** 	break;
 819:..\u8g2\csrc/u8x8_d_st7565.c ****       case U8X8_MSG_DISPLAY_SET_FLIP_MODE:
 820:..\u8g2\csrc/u8x8_d_st7565.c **** 	if ( arg_int == 0 )
 821:..\u8g2\csrc/u8x8_d_st7565.c **** 	{
 822:..\u8g2\csrc/u8x8_d_st7565.c **** 	  u8x8_cad_SendSequence(u8x8, u8x8_d_st7565_flip1_seq);
 823:..\u8g2\csrc/u8x8_d_st7565.c **** 	  u8x8->x_offset = u8x8->display_info->default_x_offset;
 824:..\u8g2\csrc/u8x8_d_st7565.c **** 	}
 825:..\u8g2\csrc/u8x8_d_st7565.c **** 	else
 826:..\u8g2\csrc/u8x8_d_st7565.c **** 	{
 827:..\u8g2\csrc/u8x8_d_st7565.c **** 	  u8x8_cad_SendSequence(u8x8, u8x8_d_st7565_flip0_seq);
 828:..\u8g2\csrc/u8x8_d_st7565.c **** 	  u8x8->x_offset = u8x8->display_info->flipmode_x_offset;
 829:..\u8g2\csrc/u8x8_d_st7565.c **** 	}	
 830:..\u8g2\csrc/u8x8_d_st7565.c **** 	break;
 831:..\u8g2\csrc/u8x8_d_st7565.c ****       default:
 832:..\u8g2\csrc/u8x8_d_st7565.c **** 	return 0;		/* msg unknown */
 833:..\u8g2\csrc/u8x8_d_st7565.c ****     }
 834:..\u8g2\csrc/u8x8_d_st7565.c ****   }
 835:..\u8g2\csrc/u8x8_d_st7565.c ****   return 1;
 966              		.loc 1 835 0
 967 0024 0123     		movs	r3, #1
 814:..\u8g2\csrc/u8x8_d_st7565.c **** 	break;
 968              		.loc 1 814 0
 969 0026 1EE0     		b	.L87
 970              	.L88:
 816:..\u8g2\csrc/u8x8_d_st7565.c **** 	u8x8_cad_SendSequence(u8x8, u8x8_d_st7565_ks0713_init_seq);
 971              		.loc 1 816 0
ARM GAS  C:\Users\brian\AppData\Local\Temp\cc1Lhyrd.s 			page 34


 972 0028 2846     		mov	r0, r5
 973 002a FFF7FEFF 		bl	u8x8_d_helper_display_init
 974              	.LVL93:
 817:..\u8g2\csrc/u8x8_d_st7565.c **** 	break;
 975              		.loc 1 817 0
 976 002e 1049     		ldr	r1, .L94+4
 977 0030 2846     		mov	r0, r5
 978 0032 FFF7FEFF 		bl	u8x8_cad_SendSequence
 979              	.LVL94:
 980              		.loc 1 835 0
 981 0036 0123     		movs	r3, #1
 818:..\u8g2\csrc/u8x8_d_st7565.c ****       case U8X8_MSG_DISPLAY_SET_FLIP_MODE:
 982              		.loc 1 818 0
 983 0038 15E0     		b	.L87
 984              	.L89:
 820:..\u8g2\csrc/u8x8_d_st7565.c **** 	{
 985              		.loc 1 820 0
 986 003a 4EB9     		cbnz	r6, .L91
 822:..\u8g2\csrc/u8x8_d_st7565.c **** 	  u8x8->x_offset = u8x8->display_info->default_x_offset;
 987              		.loc 1 822 0
 988 003c 0D49     		ldr	r1, .L94+8
 989 003e 2846     		mov	r0, r5
 990 0040 FFF7FEFF 		bl	u8x8_cad_SendSequence
 991              	.LVL95:
 823:..\u8g2\csrc/u8x8_d_st7565.c **** 	}
 992              		.loc 1 823 0
 993 0044 2B68     		ldr	r3, [r5]
 994 0046 9B7C     		ldrb	r3, [r3, #18]	@ zero_extendqisi2
 995 0048 85F82230 		strb	r3, [r5, #34]
 996              		.loc 1 835 0
 997 004c 0123     		movs	r3, #1
 998 004e 0AE0     		b	.L87
 999              	.L91:
 827:..\u8g2\csrc/u8x8_d_st7565.c **** 	  u8x8->x_offset = u8x8->display_info->flipmode_x_offset;
 1000              		.loc 1 827 0
 1001 0050 0949     		ldr	r1, .L94+12
 1002 0052 2846     		mov	r0, r5
 1003 0054 FFF7FEFF 		bl	u8x8_cad_SendSequence
 1004              	.LVL96:
 828:..\u8g2\csrc/u8x8_d_st7565.c **** 	}	
 1005              		.loc 1 828 0
 1006 0058 2B68     		ldr	r3, [r5]
 1007 005a DB7C     		ldrb	r3, [r3, #19]	@ zero_extendqisi2
 1008 005c 85F82230 		strb	r3, [r5, #34]
 1009              		.loc 1 835 0
 1010 0060 0123     		movs	r3, #1
 1011 0062 00E0     		b	.L87
 1012              	.L92:
 1013 0064 0123     		movs	r3, #1
 1014              	.L87:
 836:..\u8g2\csrc/u8x8_d_st7565.c **** }
 1015              		.loc 1 836 0
 1016 0066 1846     		mov	r0, r3
 1017 0068 70BD     		pop	{r4, r5, r6, pc}
 1018              	.LVL97:
 1019              	.L95:
 1020 006a 00BF     		.align	2
ARM GAS  C:\Users\brian\AppData\Local\Temp\cc1Lhyrd.s 			page 35


 1021              	.L94:
 1022 006c 64010000 		.word	.LANCHOR0+356
 1023 0070 A0010000 		.word	.LANCHOR0+416
 1024 0074 54000000 		.word	.LANCHOR0+84
 1025 0078 4C000000 		.word	.LANCHOR0+76
 1026              		.cfi_endproc
 1027              	.LFE9:
 1028              		.size	u8x8_d_st7565_ks0713, .-u8x8_d_st7565_ks0713
 1029              		.section	.text.u8x8_d_st7565_lx12864,"ax",%progbits
 1030              		.align	2
 1031              		.global	u8x8_d_st7565_lx12864
 1032              		.thumb
 1033              		.thumb_func
 1034              		.type	u8x8_d_st7565_lx12864, %function
 1035              	u8x8_d_st7565_lx12864:
 1036              	.LFB10:
 837:..\u8g2\csrc/u8x8_d_st7565.c **** 
 838:..\u8g2\csrc/u8x8_d_st7565.c **** 
 839:..\u8g2\csrc/u8x8_d_st7565.c **** /*================================================*/
 840:..\u8g2\csrc/u8x8_d_st7565.c **** /* LX12864 issue 576 */
 841:..\u8g2\csrc/u8x8_d_st7565.c **** 
 842:..\u8g2\csrc/u8x8_d_st7565.c **** static const uint8_t u8x8_d_st7565_lx12864_init_seq[] = {
 843:..\u8g2\csrc/u8x8_d_st7565.c ****     
 844:..\u8g2\csrc/u8x8_d_st7565.c ****   U8X8_START_TRANSFER(),             	/* enable chip, delay is part of the transfer start */
 845:..\u8g2\csrc/u8x8_d_st7565.c ****   
 846:..\u8g2\csrc/u8x8_d_st7565.c ****   U8X8_C(0x0e2),            			/* soft reset */
 847:..\u8g2\csrc/u8x8_d_st7565.c ****   U8X8_C(0x0ae),		                /* display off */
 848:..\u8g2\csrc/u8x8_d_st7565.c ****   U8X8_C(0x060),		                /* set display start line to ... */
 849:..\u8g2\csrc/u8x8_d_st7565.c ****   
 850:..\u8g2\csrc/u8x8_d_st7565.c ****   U8X8_C(0x0a0),		                /* ADC set to reverse */
 851:..\u8g2\csrc/u8x8_d_st7565.c ****   U8X8_C(0x0c8),		                /* common output mode */
 852:..\u8g2\csrc/u8x8_d_st7565.c ****   //U8X8_C(0x0a1),		                /* ADC set to reverse */
 853:..\u8g2\csrc/u8x8_d_st7565.c ****   //U8X8_C(0x0c0),		                /* common output mode */
 854:..\u8g2\csrc/u8x8_d_st7565.c ****   // Flipmode
 855:..\u8g2\csrc/u8x8_d_st7565.c ****   // U8X8_C(0x0a0),		                /* ADC set to reverse */
 856:..\u8g2\csrc/u8x8_d_st7565.c ****   // U8X8_C(0x0c8),		                /* common output mode */
 857:..\u8g2\csrc/u8x8_d_st7565.c ****   
 858:..\u8g2\csrc/u8x8_d_st7565.c ****   U8X8_C(0x0a6),		                /* display normal, bit val 0: LCD pixel off. */
 859:..\u8g2\csrc/u8x8_d_st7565.c ****   U8X8_C(0x0a2),		                /* LCD bias 1/9 */
 860:..\u8g2\csrc/u8x8_d_st7565.c ****   U8X8_C(0x02f),		                /* all power  control circuits on (regulator, booster and followe
 861:..\u8g2\csrc/u8x8_d_st7565.c ****   U8X8_CA(0x0f8, 0x000),		/* set booster ratio to 4x (ST7567 feature) */
 862:..\u8g2\csrc/u8x8_d_st7565.c ****   U8X8_C(0x027),		                /* set V0 voltage resistor ratio to max  */
 863:..\u8g2\csrc/u8x8_d_st7565.c ****   U8X8_CA(0x081, 0x008),		/* set contrast, contrast value */
 864:..\u8g2\csrc/u8x8_d_st7565.c ****   
 865:..\u8g2\csrc/u8x8_d_st7565.c ****   U8X8_C(0x0ae),		                /* display off */
 866:..\u8g2\csrc/u8x8_d_st7565.c ****   U8X8_C(0x0a5),		                /* enter powersafe: all pixel on, issue 142 */
 867:..\u8g2\csrc/u8x8_d_st7565.c ****   
 868:..\u8g2\csrc/u8x8_d_st7565.c ****   U8X8_END_TRANSFER(),             	/* disable chip */
 869:..\u8g2\csrc/u8x8_d_st7565.c ****   U8X8_END()             			/* end of sequence */
 870:..\u8g2\csrc/u8x8_d_st7565.c **** };
 871:..\u8g2\csrc/u8x8_d_st7565.c **** 
 872:..\u8g2\csrc/u8x8_d_st7565.c **** static const u8x8_display_info_t u8x8_st7565_lx12864_display_info =
 873:..\u8g2\csrc/u8x8_d_st7565.c **** {
 874:..\u8g2\csrc/u8x8_d_st7565.c ****   /* chip_enable_level = */ 0,
 875:..\u8g2\csrc/u8x8_d_st7565.c ****   /* chip_disable_level = */ 1,
 876:..\u8g2\csrc/u8x8_d_st7565.c ****   
 877:..\u8g2\csrc/u8x8_d_st7565.c ****   /* post_chip_enable_wait_ns = */ 150,	/* st7565 datasheet, table 26, tcsh */
ARM GAS  C:\Users\brian\AppData\Local\Temp\cc1Lhyrd.s 			page 36


 878:..\u8g2\csrc/u8x8_d_st7565.c ****   /* pre_chip_disable_wait_ns = */ 50,	/* st7565 datasheet, table 26, tcss */
 879:..\u8g2\csrc/u8x8_d_st7565.c ****   /* reset_pulse_width_ms = */ 1, 
 880:..\u8g2\csrc/u8x8_d_st7565.c ****   /* post_reset_wait_ms = */ 1, 
 881:..\u8g2\csrc/u8x8_d_st7565.c ****   /* sda_setup_time_ns = */ 50,		/* st7565 datasheet, table 26, tsds */
 882:..\u8g2\csrc/u8x8_d_st7565.c ****   /* sck_pulse_width_ns = */ 120,	/* half of cycle time (100ns according to datasheet), AVR: below 
 883:..\u8g2\csrc/u8x8_d_st7565.c ****   /* sck_clock_hz = */ 4000000UL,	/* since Arduino 1.6.0, the SPI bus speed in Hz. Should be  10000
 884:..\u8g2\csrc/u8x8_d_st7565.c ****   /* spi_mode = */ 0,		/* active high, rising edge */
 885:..\u8g2\csrc/u8x8_d_st7565.c ****   /* i2c_bus_clock_100kHz = */ 4,
 886:..\u8g2\csrc/u8x8_d_st7565.c ****   /* data_setup_time_ns = */ 40,	/* st7565 datasheet, table 24, tds8 */
 887:..\u8g2\csrc/u8x8_d_st7565.c ****   /* write_pulse_width_ns = */ 80,	/* st7565 datasheet, table 24, tcclw */
 888:..\u8g2\csrc/u8x8_d_st7565.c ****   /* tile_width = */ 16,		/* width of 16*8=128 pixel */
 889:..\u8g2\csrc/u8x8_d_st7565.c ****   /* tile_hight = */ 8,
 890:..\u8g2\csrc/u8x8_d_st7565.c ****   /* default_x_offset = */ 1,	/* not sure... */
 891:..\u8g2\csrc/u8x8_d_st7565.c ****   /* flipmode_x_offset = */ 3,
 892:..\u8g2\csrc/u8x8_d_st7565.c ****   /* pixel_width = */ 128,
 893:..\u8g2\csrc/u8x8_d_st7565.c ****   /* pixel_height = */ 64
 894:..\u8g2\csrc/u8x8_d_st7565.c **** };
 895:..\u8g2\csrc/u8x8_d_st7565.c **** 
 896:..\u8g2\csrc/u8x8_d_st7565.c **** uint8_t u8x8_d_st7565_lx12864(u8x8_t *u8x8, uint8_t msg, uint8_t arg_int, void *arg_ptr)
 897:..\u8g2\csrc/u8x8_d_st7565.c **** {
 1037              		.loc 1 897 0
 1038              		.cfi_startproc
 1039              		@ args = 0, pretend = 0, frame = 0
 1040              		@ frame_needed = 0, uses_anonymous_args = 0
 1041              	.LVL98:
 1042 0000 70B5     		push	{r4, r5, r6, lr}
 1043              		.cfi_def_cfa_offset 16
 1044              		.cfi_offset 4, -16
 1045              		.cfi_offset 5, -12
 1046              		.cfi_offset 6, -8
 1047              		.cfi_offset 14, -4
 1048 0002 0546     		mov	r5, r0
 1049 0004 0C46     		mov	r4, r1
 1050 0006 1646     		mov	r6, r2
 898:..\u8g2\csrc/u8x8_d_st7565.c ****   /* call common procedure first and handle messages there */
 899:..\u8g2\csrc/u8x8_d_st7565.c ****   if ( u8x8_d_st7565_common(u8x8, msg, arg_int, arg_ptr) == 0 )
 1051              		.loc 1 899 0
 1052 0008 FFF7FEFF 		bl	u8x8_d_st7565_common
 1053              	.LVL99:
 1054 000c 50BB     		cbnz	r0, .L102
 1055 000e 0346     		mov	r3, r0
 900:..\u8g2\csrc/u8x8_d_st7565.c ****   {
 901:..\u8g2\csrc/u8x8_d_st7565.c ****     /* msg not handled, then try here */
 902:..\u8g2\csrc/u8x8_d_st7565.c ****     switch(msg)
 1056              		.loc 1 902 0
 1057 0010 0A2C     		cmp	r4, #10
 1058 0012 09D0     		beq	.L98
 1059 0014 0D2C     		cmp	r4, #13
 1060 0016 10D0     		beq	.L99
 1061 0018 092C     		cmp	r4, #9
 1062 001a 24D1     		bne	.L97
 903:..\u8g2\csrc/u8x8_d_st7565.c ****     {
 904:..\u8g2\csrc/u8x8_d_st7565.c ****       case U8X8_MSG_DISPLAY_SETUP_MEMORY:
 905:..\u8g2\csrc/u8x8_d_st7565.c **** 	u8x8_d_helper_display_setup_memory(u8x8, &u8x8_st7565_lx12864_display_info);
 1063              		.loc 1 905 0
 1064 001c 1349     		ldr	r1, .L104
 1065 001e 2846     		mov	r0, r5
ARM GAS  C:\Users\brian\AppData\Local\Temp\cc1Lhyrd.s 			page 37


 1066 0020 FFF7FEFF 		bl	u8x8_d_helper_display_setup_memory
 1067              	.LVL100:
 906:..\u8g2\csrc/u8x8_d_st7565.c **** 	break;
 907:..\u8g2\csrc/u8x8_d_st7565.c ****       case U8X8_MSG_DISPLAY_INIT:
 908:..\u8g2\csrc/u8x8_d_st7565.c **** 	u8x8_d_helper_display_init(u8x8);
 909:..\u8g2\csrc/u8x8_d_st7565.c **** 	u8x8_cad_SendSequence(u8x8, u8x8_d_st7565_lx12864_init_seq);
 910:..\u8g2\csrc/u8x8_d_st7565.c **** 	break;
 911:..\u8g2\csrc/u8x8_d_st7565.c ****       case U8X8_MSG_DISPLAY_SET_FLIP_MODE:
 912:..\u8g2\csrc/u8x8_d_st7565.c **** 	if ( arg_int == 0 )
 913:..\u8g2\csrc/u8x8_d_st7565.c **** 	{
 914:..\u8g2\csrc/u8x8_d_st7565.c **** 	  u8x8_cad_SendSequence(u8x8, u8x8_d_st7565_flip1_seq);
 915:..\u8g2\csrc/u8x8_d_st7565.c **** 	  u8x8->x_offset = u8x8->display_info->default_x_offset;
 916:..\u8g2\csrc/u8x8_d_st7565.c **** 	}
 917:..\u8g2\csrc/u8x8_d_st7565.c **** 	else
 918:..\u8g2\csrc/u8x8_d_st7565.c **** 	{
 919:..\u8g2\csrc/u8x8_d_st7565.c **** 	  u8x8_cad_SendSequence(u8x8, u8x8_d_st7565_flip0_seq);
 920:..\u8g2\csrc/u8x8_d_st7565.c **** 	  u8x8->x_offset = u8x8->display_info->flipmode_x_offset;
 921:..\u8g2\csrc/u8x8_d_st7565.c **** 	}	
 922:..\u8g2\csrc/u8x8_d_st7565.c **** 	break;
 923:..\u8g2\csrc/u8x8_d_st7565.c ****       default:
 924:..\u8g2\csrc/u8x8_d_st7565.c **** 	return 0;		/* msg unknown */
 925:..\u8g2\csrc/u8x8_d_st7565.c ****     }
 926:..\u8g2\csrc/u8x8_d_st7565.c ****   }
 927:..\u8g2\csrc/u8x8_d_st7565.c ****   return 1;
 1068              		.loc 1 927 0
 1069 0024 0123     		movs	r3, #1
 906:..\u8g2\csrc/u8x8_d_st7565.c **** 	break;
 1070              		.loc 1 906 0
 1071 0026 1EE0     		b	.L97
 1072              	.L98:
 908:..\u8g2\csrc/u8x8_d_st7565.c **** 	u8x8_cad_SendSequence(u8x8, u8x8_d_st7565_lx12864_init_seq);
 1073              		.loc 1 908 0
 1074 0028 2846     		mov	r0, r5
 1075 002a FFF7FEFF 		bl	u8x8_d_helper_display_init
 1076              	.LVL101:
 909:..\u8g2\csrc/u8x8_d_st7565.c **** 	break;
 1077              		.loc 1 909 0
 1078 002e 1049     		ldr	r1, .L104+4
 1079 0030 2846     		mov	r0, r5
 1080 0032 FFF7FEFF 		bl	u8x8_cad_SendSequence
 1081              	.LVL102:
 1082              		.loc 1 927 0
 1083 0036 0123     		movs	r3, #1
 910:..\u8g2\csrc/u8x8_d_st7565.c ****       case U8X8_MSG_DISPLAY_SET_FLIP_MODE:
 1084              		.loc 1 910 0
 1085 0038 15E0     		b	.L97
 1086              	.L99:
 912:..\u8g2\csrc/u8x8_d_st7565.c **** 	{
 1087              		.loc 1 912 0
 1088 003a 4EB9     		cbnz	r6, .L101
 914:..\u8g2\csrc/u8x8_d_st7565.c **** 	  u8x8->x_offset = u8x8->display_info->default_x_offset;
 1089              		.loc 1 914 0
 1090 003c 0D49     		ldr	r1, .L104+8
 1091 003e 2846     		mov	r0, r5
 1092 0040 FFF7FEFF 		bl	u8x8_cad_SendSequence
 1093              	.LVL103:
 915:..\u8g2\csrc/u8x8_d_st7565.c **** 	}
ARM GAS  C:\Users\brian\AppData\Local\Temp\cc1Lhyrd.s 			page 38


 1094              		.loc 1 915 0
 1095 0044 2B68     		ldr	r3, [r5]
 1096 0046 9B7C     		ldrb	r3, [r3, #18]	@ zero_extendqisi2
 1097 0048 85F82230 		strb	r3, [r5, #34]
 1098              		.loc 1 927 0
 1099 004c 0123     		movs	r3, #1
 1100 004e 0AE0     		b	.L97
 1101              	.L101:
 919:..\u8g2\csrc/u8x8_d_st7565.c **** 	  u8x8->x_offset = u8x8->display_info->flipmode_x_offset;
 1102              		.loc 1 919 0
 1103 0050 0949     		ldr	r1, .L104+12
 1104 0052 2846     		mov	r0, r5
 1105 0054 FFF7FEFF 		bl	u8x8_cad_SendSequence
 1106              	.LVL104:
 920:..\u8g2\csrc/u8x8_d_st7565.c **** 	}	
 1107              		.loc 1 920 0
 1108 0058 2B68     		ldr	r3, [r5]
 1109 005a DB7C     		ldrb	r3, [r3, #19]	@ zero_extendqisi2
 1110 005c 85F82230 		strb	r3, [r5, #34]
 1111              		.loc 1 927 0
 1112 0060 0123     		movs	r3, #1
 1113 0062 00E0     		b	.L97
 1114              	.L102:
 1115 0064 0123     		movs	r3, #1
 1116              	.L97:
 928:..\u8g2\csrc/u8x8_d_st7565.c **** }
 1117              		.loc 1 928 0
 1118 0066 1846     		mov	r0, r3
 1119 0068 70BD     		pop	{r4, r5, r6, pc}
 1120              	.LVL105:
 1121              	.L105:
 1122 006a 00BF     		.align	2
 1123              	.L104:
 1124 006c BC010000 		.word	.LANCHOR0+444
 1125 0070 D4010000 		.word	.LANCHOR0+468
 1126 0074 54000000 		.word	.LANCHOR0+84
 1127 0078 4C000000 		.word	.LANCHOR0+76
 1128              		.cfi_endproc
 1129              	.LFE10:
 1130              		.size	u8x8_d_st7565_lx12864, .-u8x8_d_st7565_lx12864
 1131              		.section	.text.u8x8_d_st7565_erc12864,"ax",%progbits
 1132              		.align	2
 1133              		.global	u8x8_d_st7565_erc12864
 1134              		.thumb
 1135              		.thumb_func
 1136              		.type	u8x8_d_st7565_erc12864, %function
 1137              	u8x8_d_st7565_erc12864:
 1138              	.LFB11:
 929:..\u8g2\csrc/u8x8_d_st7565.c **** 
 930:..\u8g2\csrc/u8x8_d_st7565.c **** 
 931:..\u8g2\csrc/u8x8_d_st7565.c **** /*================================================*/
 932:..\u8g2\csrc/u8x8_d_st7565.c **** /* ERC12864-1 (buydisplay.com) */
 933:..\u8g2\csrc/u8x8_d_st7565.c **** 
 934:..\u8g2\csrc/u8x8_d_st7565.c **** static const uint8_t u8x8_d_st7565_erc12864_init_seq[] = {
 935:..\u8g2\csrc/u8x8_d_st7565.c ****     
 936:..\u8g2\csrc/u8x8_d_st7565.c ****   U8X8_START_TRANSFER(),             	/* enable chip, delay is part of the transfer start */
 937:..\u8g2\csrc/u8x8_d_st7565.c ****   
ARM GAS  C:\Users\brian\AppData\Local\Temp\cc1Lhyrd.s 			page 39


 938:..\u8g2\csrc/u8x8_d_st7565.c ****   U8X8_C(0x0e2),            			/* soft reset */
 939:..\u8g2\csrc/u8x8_d_st7565.c ****   U8X8_C(0x0ae),		                /* display off */
 940:..\u8g2\csrc/u8x8_d_st7565.c ****   U8X8_C(0x040),		                /* set display start line to ... */
 941:..\u8g2\csrc/u8x8_d_st7565.c ****   
 942:..\u8g2\csrc/u8x8_d_st7565.c ****   U8X8_C(0x0a0),		                /* ADC set to reverse */
 943:..\u8g2\csrc/u8x8_d_st7565.c ****   U8X8_C(0x0c8),		                /* common output mode */
 944:..\u8g2\csrc/u8x8_d_st7565.c ****   //U8X8_C(0x0a1),		                /* ADC set to reverse */
 945:..\u8g2\csrc/u8x8_d_st7565.c ****   //U8X8_C(0x0c0),		                /* common output mode */
 946:..\u8g2\csrc/u8x8_d_st7565.c ****   // Flipmode
 947:..\u8g2\csrc/u8x8_d_st7565.c ****   // U8X8_C(0x0a0),		                /* ADC set to reverse */
 948:..\u8g2\csrc/u8x8_d_st7565.c ****   // U8X8_C(0x0c8),		                /* common output mode */
 949:..\u8g2\csrc/u8x8_d_st7565.c ****   
 950:..\u8g2\csrc/u8x8_d_st7565.c ****   U8X8_C(0x0a6),		                /* display normal, bit val 0: LCD pixel off. */
 951:..\u8g2\csrc/u8x8_d_st7565.c ****   U8X8_C(0x0a3),		                /* LCD bias 1/9 */
 952:..\u8g2\csrc/u8x8_d_st7565.c ****   U8X8_C(0x02f),		                /* all power  control circuits on (regulator, booster and followe
 953:..\u8g2\csrc/u8x8_d_st7565.c ****   U8X8_CA(0x0f8, 0x000),		/* set booster ratio to 4x (ST7567 feature)*/
 954:..\u8g2\csrc/u8x8_d_st7565.c ****   U8X8_C(0x027),		                /* set V0 voltage resistor ratio to max  */
 955:..\u8g2\csrc/u8x8_d_st7565.c ****   U8X8_CA(0x081, 0x018),		/* set contrast, contrast value, EA default: 0x016 */
 956:..\u8g2\csrc/u8x8_d_st7565.c ****   
 957:..\u8g2\csrc/u8x8_d_st7565.c ****   U8X8_C(0x0ae),		                /* display off */
 958:..\u8g2\csrc/u8x8_d_st7565.c ****   U8X8_C(0x0a5),		                /* enter powersafe: all pixel on, issue 142 */
 959:..\u8g2\csrc/u8x8_d_st7565.c ****   
 960:..\u8g2\csrc/u8x8_d_st7565.c ****   U8X8_END_TRANSFER(),             	/* disable chip */
 961:..\u8g2\csrc/u8x8_d_st7565.c ****   U8X8_END()             			/* end of sequence */
 962:..\u8g2\csrc/u8x8_d_st7565.c **** };
 963:..\u8g2\csrc/u8x8_d_st7565.c **** 
 964:..\u8g2\csrc/u8x8_d_st7565.c **** static const u8x8_display_info_t u8x8_st7565_erc12864_display_info =
 965:..\u8g2\csrc/u8x8_d_st7565.c **** {
 966:..\u8g2\csrc/u8x8_d_st7565.c ****   /* chip_enable_level = */ 0,
 967:..\u8g2\csrc/u8x8_d_st7565.c ****   /* chip_disable_level = */ 1,
 968:..\u8g2\csrc/u8x8_d_st7565.c ****   
 969:..\u8g2\csrc/u8x8_d_st7565.c ****   /* post_chip_enable_wait_ns = */ 150,	/* st7565 datasheet, table 26, tcsh */
 970:..\u8g2\csrc/u8x8_d_st7565.c ****   /* pre_chip_disable_wait_ns = */ 50,	/* st7565 datasheet, table 26, tcss */
 971:..\u8g2\csrc/u8x8_d_st7565.c ****   /* reset_pulse_width_ms = */ 1, 
 972:..\u8g2\csrc/u8x8_d_st7565.c ****   /* post_reset_wait_ms = */ 1, 
 973:..\u8g2\csrc/u8x8_d_st7565.c ****   /* sda_setup_time_ns = */ 50,		/* st7565 datasheet, table 26, tsds */
 974:..\u8g2\csrc/u8x8_d_st7565.c ****   /* sck_pulse_width_ns = */ 120,	/* half of cycle time (100ns according to datasheet), AVR: below 
 975:..\u8g2\csrc/u8x8_d_st7565.c ****   /* sck_clock_hz = */ 4000000UL,	/* since Arduino 1.6.0, the SPI bus speed in Hz. Should be  10000
 976:..\u8g2\csrc/u8x8_d_st7565.c ****   /* spi_mode = */ 0,		/* active high, rising edge */
 977:..\u8g2\csrc/u8x8_d_st7565.c ****   /* i2c_bus_clock_100kHz = */ 4,
 978:..\u8g2\csrc/u8x8_d_st7565.c ****   /* data_setup_time_ns = */ 40,	/* st7565 datasheet, table 24, tds8 */
 979:..\u8g2\csrc/u8x8_d_st7565.c ****   /* write_pulse_width_ns = */ 80,	/* st7565 datasheet, table 24, tcclw */
 980:..\u8g2\csrc/u8x8_d_st7565.c ****   /* tile_width = */ 16,		/* width of 16*8=128 pixel */
 981:..\u8g2\csrc/u8x8_d_st7565.c ****   /* tile_hight = */ 8,
 982:..\u8g2\csrc/u8x8_d_st7565.c ****   /* default_x_offset = */ 0,
 983:..\u8g2\csrc/u8x8_d_st7565.c ****   /* flipmode_x_offset = */ 4,
 984:..\u8g2\csrc/u8x8_d_st7565.c ****   /* pixel_width = */ 128,
 985:..\u8g2\csrc/u8x8_d_st7565.c ****   /* pixel_height = */ 64
 986:..\u8g2\csrc/u8x8_d_st7565.c **** };
 987:..\u8g2\csrc/u8x8_d_st7565.c **** 
 988:..\u8g2\csrc/u8x8_d_st7565.c **** uint8_t u8x8_d_st7565_erc12864(u8x8_t *u8x8, uint8_t msg, uint8_t arg_int, void *arg_ptr)
 989:..\u8g2\csrc/u8x8_d_st7565.c **** {
 1139              		.loc 1 989 0
 1140              		.cfi_startproc
 1141              		@ args = 0, pretend = 0, frame = 0
 1142              		@ frame_needed = 0, uses_anonymous_args = 0
 1143              	.LVL106:
ARM GAS  C:\Users\brian\AppData\Local\Temp\cc1Lhyrd.s 			page 40


 1144 0000 70B5     		push	{r4, r5, r6, lr}
 1145              		.cfi_def_cfa_offset 16
 1146              		.cfi_offset 4, -16
 1147              		.cfi_offset 5, -12
 1148              		.cfi_offset 6, -8
 1149              		.cfi_offset 14, -4
 1150 0002 0546     		mov	r5, r0
 1151 0004 0C46     		mov	r4, r1
 1152 0006 1646     		mov	r6, r2
 990:..\u8g2\csrc/u8x8_d_st7565.c ****   /* call common procedure first and handle messages there */
 991:..\u8g2\csrc/u8x8_d_st7565.c ****   if ( u8x8_d_st7565_common(u8x8, msg, arg_int, arg_ptr) == 0 )
 1153              		.loc 1 991 0
 1154 0008 FFF7FEFF 		bl	u8x8_d_st7565_common
 1155              	.LVL107:
 1156 000c 50BB     		cbnz	r0, .L112
 1157 000e 0346     		mov	r3, r0
 992:..\u8g2\csrc/u8x8_d_st7565.c ****   {
 993:..\u8g2\csrc/u8x8_d_st7565.c ****     /* msg not handled, then try here */
 994:..\u8g2\csrc/u8x8_d_st7565.c ****     switch(msg)
 1158              		.loc 1 994 0
 1159 0010 0A2C     		cmp	r4, #10
 1160 0012 09D0     		beq	.L108
 1161 0014 0D2C     		cmp	r4, #13
 1162 0016 10D0     		beq	.L109
 1163 0018 092C     		cmp	r4, #9
 1164 001a 24D1     		bne	.L107
 995:..\u8g2\csrc/u8x8_d_st7565.c ****     {
 996:..\u8g2\csrc/u8x8_d_st7565.c ****       case U8X8_MSG_DISPLAY_SETUP_MEMORY:
 997:..\u8g2\csrc/u8x8_d_st7565.c **** 	u8x8_d_helper_display_setup_memory(u8x8, &u8x8_st7565_erc12864_display_info);
 1165              		.loc 1 997 0
 1166 001c 1349     		ldr	r1, .L114
 1167 001e 2846     		mov	r0, r5
 1168 0020 FFF7FEFF 		bl	u8x8_d_helper_display_setup_memory
 1169              	.LVL108:
 998:..\u8g2\csrc/u8x8_d_st7565.c **** 	break;
 999:..\u8g2\csrc/u8x8_d_st7565.c ****       case U8X8_MSG_DISPLAY_INIT:
1000:..\u8g2\csrc/u8x8_d_st7565.c **** 	u8x8_d_helper_display_init(u8x8);
1001:..\u8g2\csrc/u8x8_d_st7565.c **** 	u8x8_cad_SendSequence(u8x8, u8x8_d_st7565_erc12864_init_seq);
1002:..\u8g2\csrc/u8x8_d_st7565.c **** 	break;
1003:..\u8g2\csrc/u8x8_d_st7565.c ****       case U8X8_MSG_DISPLAY_SET_FLIP_MODE:
1004:..\u8g2\csrc/u8x8_d_st7565.c **** 	if ( arg_int == 0 )
1005:..\u8g2\csrc/u8x8_d_st7565.c **** 	{
1006:..\u8g2\csrc/u8x8_d_st7565.c **** 	  u8x8_cad_SendSequence(u8x8, u8x8_d_st7565_flip1_seq);
1007:..\u8g2\csrc/u8x8_d_st7565.c **** 	  u8x8->x_offset = u8x8->display_info->default_x_offset;
1008:..\u8g2\csrc/u8x8_d_st7565.c **** 	}
1009:..\u8g2\csrc/u8x8_d_st7565.c **** 	else
1010:..\u8g2\csrc/u8x8_d_st7565.c **** 	{
1011:..\u8g2\csrc/u8x8_d_st7565.c **** 	  u8x8_cad_SendSequence(u8x8, u8x8_d_st7565_flip0_seq);
1012:..\u8g2\csrc/u8x8_d_st7565.c **** 	  u8x8->x_offset = u8x8->display_info->flipmode_x_offset;
1013:..\u8g2\csrc/u8x8_d_st7565.c **** 	}	
1014:..\u8g2\csrc/u8x8_d_st7565.c **** 	break;
1015:..\u8g2\csrc/u8x8_d_st7565.c ****       default:
1016:..\u8g2\csrc/u8x8_d_st7565.c **** 	return 0;		/* msg unknown */
1017:..\u8g2\csrc/u8x8_d_st7565.c ****     }
1018:..\u8g2\csrc/u8x8_d_st7565.c ****   }
1019:..\u8g2\csrc/u8x8_d_st7565.c ****   return 1;
 1170              		.loc 1 1019 0
ARM GAS  C:\Users\brian\AppData\Local\Temp\cc1Lhyrd.s 			page 41


 1171 0024 0123     		movs	r3, #1
 998:..\u8g2\csrc/u8x8_d_st7565.c **** 	break;
 1172              		.loc 1 998 0
 1173 0026 1EE0     		b	.L107
 1174              	.L108:
1000:..\u8g2\csrc/u8x8_d_st7565.c **** 	u8x8_cad_SendSequence(u8x8, u8x8_d_st7565_erc12864_init_seq);
 1175              		.loc 1 1000 0
 1176 0028 2846     		mov	r0, r5
 1177 002a FFF7FEFF 		bl	u8x8_d_helper_display_init
 1178              	.LVL109:
1001:..\u8g2\csrc/u8x8_d_st7565.c **** 	break;
 1179              		.loc 1 1001 0
 1180 002e 1049     		ldr	r1, .L114+4
 1181 0030 2846     		mov	r0, r5
 1182 0032 FFF7FEFF 		bl	u8x8_cad_SendSequence
 1183              	.LVL110:
 1184              		.loc 1 1019 0
 1185 0036 0123     		movs	r3, #1
1002:..\u8g2\csrc/u8x8_d_st7565.c ****       case U8X8_MSG_DISPLAY_SET_FLIP_MODE:
 1186              		.loc 1 1002 0
 1187 0038 15E0     		b	.L107
 1188              	.L109:
1004:..\u8g2\csrc/u8x8_d_st7565.c **** 	{
 1189              		.loc 1 1004 0
 1190 003a 4EB9     		cbnz	r6, .L111
1006:..\u8g2\csrc/u8x8_d_st7565.c **** 	  u8x8->x_offset = u8x8->display_info->default_x_offset;
 1191              		.loc 1 1006 0
 1192 003c 0D49     		ldr	r1, .L114+8
 1193 003e 2846     		mov	r0, r5
 1194 0040 FFF7FEFF 		bl	u8x8_cad_SendSequence
 1195              	.LVL111:
1007:..\u8g2\csrc/u8x8_d_st7565.c **** 	}
 1196              		.loc 1 1007 0
 1197 0044 2B68     		ldr	r3, [r5]
 1198 0046 9B7C     		ldrb	r3, [r3, #18]	@ zero_extendqisi2
 1199 0048 85F82230 		strb	r3, [r5, #34]
 1200              		.loc 1 1019 0
 1201 004c 0123     		movs	r3, #1
 1202 004e 0AE0     		b	.L107
 1203              	.L111:
1011:..\u8g2\csrc/u8x8_d_st7565.c **** 	  u8x8->x_offset = u8x8->display_info->flipmode_x_offset;
 1204              		.loc 1 1011 0
 1205 0050 0949     		ldr	r1, .L114+12
 1206 0052 2846     		mov	r0, r5
 1207 0054 FFF7FEFF 		bl	u8x8_cad_SendSequence
 1208              	.LVL112:
1012:..\u8g2\csrc/u8x8_d_st7565.c **** 	}	
 1209              		.loc 1 1012 0
 1210 0058 2B68     		ldr	r3, [r5]
 1211 005a DB7C     		ldrb	r3, [r3, #19]	@ zero_extendqisi2
 1212 005c 85F82230 		strb	r3, [r5, #34]
 1213              		.loc 1 1019 0
 1214 0060 0123     		movs	r3, #1
 1215 0062 00E0     		b	.L107
 1216              	.L112:
 1217 0064 0123     		movs	r3, #1
 1218              	.L107:
ARM GAS  C:\Users\brian\AppData\Local\Temp\cc1Lhyrd.s 			page 42


1020:..\u8g2\csrc/u8x8_d_st7565.c **** }
 1219              		.loc 1 1020 0
 1220 0066 1846     		mov	r0, r3
 1221 0068 70BD     		pop	{r4, r5, r6, pc}
 1222              	.LVL113:
 1223              	.L115:
 1224 006a 00BF     		.align	2
 1225              	.L114:
 1226 006c F8010000 		.word	.LANCHOR0+504
 1227 0070 10020000 		.word	.LANCHOR0+528
 1228 0074 54000000 		.word	.LANCHOR0+84
 1229 0078 4C000000 		.word	.LANCHOR0+76
 1230              		.cfi_endproc
 1231              	.LFE11:
 1232              		.size	u8x8_d_st7565_erc12864, .-u8x8_d_st7565_erc12864
 1233              		.section	.text.u8x8_d_st7565_erc12864_alt,"ax",%progbits
 1234              		.align	2
 1235              		.global	u8x8_d_st7565_erc12864_alt
 1236              		.thumb
 1237              		.thumb_func
 1238              		.type	u8x8_d_st7565_erc12864_alt, %function
 1239              	u8x8_d_st7565_erc12864_alt:
 1240              	.LFB12:
1021:..\u8g2\csrc/u8x8_d_st7565.c **** 
1022:..\u8g2\csrc/u8x8_d_st7565.c **** 
1023:..\u8g2\csrc/u8x8_d_st7565.c **** 
1024:..\u8g2\csrc/u8x8_d_st7565.c **** 
1025:..\u8g2\csrc/u8x8_d_st7565.c **** /*================================================*/
1026:..\u8g2\csrc/u8x8_d_st7565.c **** /* ERC12864-1 alternative version, suggested in issue 790 */
1027:..\u8g2\csrc/u8x8_d_st7565.c **** 
1028:..\u8g2\csrc/u8x8_d_st7565.c **** static const uint8_t u8x8_d_st7565_erc12864_alt_init_seq[] = {
1029:..\u8g2\csrc/u8x8_d_st7565.c **** 
1030:..\u8g2\csrc/u8x8_d_st7565.c **** 
1031:..\u8g2\csrc/u8x8_d_st7565.c ****   // original sequence 
1032:..\u8g2\csrc/u8x8_d_st7565.c ****   
1033:..\u8g2\csrc/u8x8_d_st7565.c ****   // U8X8_START_TRANSFER(),             	/* enable chip, delay is part of the transfer start */
1034:..\u8g2\csrc/u8x8_d_st7565.c ****   
1035:..\u8g2\csrc/u8x8_d_st7565.c ****   // U8X8_C(0x0e2),            			/* soft reset */
1036:..\u8g2\csrc/u8x8_d_st7565.c ****   // U8X8_C(0x0ae),		                /* display off */
1037:..\u8g2\csrc/u8x8_d_st7565.c ****   // U8X8_C(0x040),		                /* set display start line to ... */
1038:..\u8g2\csrc/u8x8_d_st7565.c ****   
1039:..\u8g2\csrc/u8x8_d_st7565.c ****   // U8X8_C(0x0a0),		                /* ADC set to reverse */
1040:..\u8g2\csrc/u8x8_d_st7565.c ****   // U8X8_C(0x0c8),		                /* common output mode */
1041:..\u8g2\csrc/u8x8_d_st7565.c ****   
1042:..\u8g2\csrc/u8x8_d_st7565.c ****   // U8X8_C(0x0a6),		                /* display normal, bit val 0: LCD pixel off. */
1043:..\u8g2\csrc/u8x8_d_st7565.c ****   // U8X8_C(0x0a3),		                /* LCD bias 1/9 */
1044:..\u8g2\csrc/u8x8_d_st7565.c ****   // U8X8_C(0x02f),		                /* all power  control circuits on (regulator, booster and foll
1045:..\u8g2\csrc/u8x8_d_st7565.c ****   // U8X8_CA(0x0f8, 0x000),		/* set booster ratio to 4x (ST7567 feature)*/
1046:..\u8g2\csrc/u8x8_d_st7565.c ****   // U8X8_C(0x027),		                /* set V0 voltage resistor ratio to max  */
1047:..\u8g2\csrc/u8x8_d_st7565.c ****   // U8X8_CA(0x081, 0x018),		/* set contrast, contrast value, EA default: 0x016 */
1048:..\u8g2\csrc/u8x8_d_st7565.c ****   
1049:..\u8g2\csrc/u8x8_d_st7565.c ****   // U8X8_C(0x0ae),		                /* display off */
1050:..\u8g2\csrc/u8x8_d_st7565.c ****   // U8X8_C(0x0a5),		                /* enter powersafe: all pixel on, issue 142 */
1051:..\u8g2\csrc/u8x8_d_st7565.c ****   
1052:..\u8g2\csrc/u8x8_d_st7565.c ****   // U8X8_END_TRANSFER(),             	/* disable chip */
1053:..\u8g2\csrc/u8x8_d_st7565.c ****   // U8X8_END()             			/* end of sequence */
1054:..\u8g2\csrc/u8x8_d_st7565.c ****   
ARM GAS  C:\Users\brian\AppData\Local\Temp\cc1Lhyrd.s 			page 43


1055:..\u8g2\csrc/u8x8_d_st7565.c **** 
1056:..\u8g2\csrc/u8x8_d_st7565.c **** 
1057:..\u8g2\csrc/u8x8_d_st7565.c ****   // suggested in https://github.com/olikraus/u8g2/issues/790
1058:..\u8g2\csrc/u8x8_d_st7565.c ****   
1059:..\u8g2\csrc/u8x8_d_st7565.c ****   U8X8_START_TRANSFER(),             	/* enable chip, delay is part of the transfer start */
1060:..\u8g2\csrc/u8x8_d_st7565.c ****   
1061:..\u8g2\csrc/u8x8_d_st7565.c ****   U8X8_C(0x0e2),            			/* soft reset */
1062:..\u8g2\csrc/u8x8_d_st7565.c ****   U8X8_C(0x0ae),		                /* display off */
1063:..\u8g2\csrc/u8x8_d_st7565.c ****   U8X8_C(0x040),		                /* set display start line to ... */
1064:..\u8g2\csrc/u8x8_d_st7565.c ****   
1065:..\u8g2\csrc/u8x8_d_st7565.c ****   U8X8_C(0x0a0),		                /* ADC set to reverse */
1066:..\u8g2\csrc/u8x8_d_st7565.c ****   U8X8_C(0x0c8),		                /* common output mode */
1067:..\u8g2\csrc/u8x8_d_st7565.c ****   
1068:..\u8g2\csrc/u8x8_d_st7565.c ****   U8X8_C(0x0a6),		                /* display normal, bit val 0: LCD pixel off. */
1069:..\u8g2\csrc/u8x8_d_st7565.c ****   U8X8_C(0x0a2),		                /* LCD bias 1/9 - *** Changed by Ismail - was 0xa3 - 1/7 bias we 
1070:..\u8g2\csrc/u8x8_d_st7565.c ****   U8X8_C(0x02f),		                /* all power  control circuits on (regulator, booster and followe
1071:..\u8g2\csrc/u8x8_d_st7565.c ****   U8X8_CA(0x0f8, 0x000),		/* set booster ratio to 4x (ST7567 feature)*/
1072:..\u8g2\csrc/u8x8_d_st7565.c ****   U8X8_C(0x027),		                /* set V0 voltage resistor ratio to max  */
1073:..\u8g2\csrc/u8x8_d_st7565.c ****   U8X8_CA(0x081, 0x05),		       /* set contrast, contrast value, EA default: 0x016 - *** Changed by
1074:..\u8g2\csrc/u8x8_d_st7565.c ****   
1075:..\u8g2\csrc/u8x8_d_st7565.c ****   U8X8_C(0x0ae),		                /* display off */
1076:..\u8g2\csrc/u8x8_d_st7565.c ****   U8X8_C(0x0a5),		                /* enter powersafe: all pixel on, issue 142 */
1077:..\u8g2\csrc/u8x8_d_st7565.c ****   
1078:..\u8g2\csrc/u8x8_d_st7565.c ****   U8X8_END_TRANSFER(),             	/* disable chip */
1079:..\u8g2\csrc/u8x8_d_st7565.c ****   U8X8_END()             			/* end of sequence */
1080:..\u8g2\csrc/u8x8_d_st7565.c ****   
1081:..\u8g2\csrc/u8x8_d_st7565.c **** };
1082:..\u8g2\csrc/u8x8_d_st7565.c **** 
1083:..\u8g2\csrc/u8x8_d_st7565.c **** 
1084:..\u8g2\csrc/u8x8_d_st7565.c **** uint8_t u8x8_d_st7565_erc12864_alt(u8x8_t *u8x8, uint8_t msg, uint8_t arg_int, void *arg_ptr)
1085:..\u8g2\csrc/u8x8_d_st7565.c **** {
 1241              		.loc 1 1085 0
 1242              		.cfi_startproc
 1243              		@ args = 0, pretend = 0, frame = 0
 1244              		@ frame_needed = 0, uses_anonymous_args = 0
 1245              	.LVL114:
 1246 0000 70B5     		push	{r4, r5, r6, lr}
 1247              		.cfi_def_cfa_offset 16
 1248              		.cfi_offset 4, -16
 1249              		.cfi_offset 5, -12
 1250              		.cfi_offset 6, -8
 1251              		.cfi_offset 14, -4
 1252 0002 0546     		mov	r5, r0
 1253 0004 0C46     		mov	r4, r1
 1254 0006 1646     		mov	r6, r2
1086:..\u8g2\csrc/u8x8_d_st7565.c ****   /* call common procedure first and handle messages there */
1087:..\u8g2\csrc/u8x8_d_st7565.c ****   if ( u8x8_d_st7565_common(u8x8, msg, arg_int, arg_ptr) == 0 )
 1255              		.loc 1 1087 0
 1256 0008 FFF7FEFF 		bl	u8x8_d_st7565_common
 1257              	.LVL115:
 1258 000c 50BB     		cbnz	r0, .L122
 1259 000e 0346     		mov	r3, r0
1088:..\u8g2\csrc/u8x8_d_st7565.c ****   {
1089:..\u8g2\csrc/u8x8_d_st7565.c ****     /* msg not handled, then try here */
1090:..\u8g2\csrc/u8x8_d_st7565.c ****     switch(msg)
 1260              		.loc 1 1090 0
 1261 0010 0A2C     		cmp	r4, #10
ARM GAS  C:\Users\brian\AppData\Local\Temp\cc1Lhyrd.s 			page 44


 1262 0012 09D0     		beq	.L118
 1263 0014 0D2C     		cmp	r4, #13
 1264 0016 10D0     		beq	.L119
 1265 0018 092C     		cmp	r4, #9
 1266 001a 24D1     		bne	.L117
1091:..\u8g2\csrc/u8x8_d_st7565.c ****     {
1092:..\u8g2\csrc/u8x8_d_st7565.c ****       case U8X8_MSG_DISPLAY_SETUP_MEMORY:
1093:..\u8g2\csrc/u8x8_d_st7565.c **** 	u8x8_d_helper_display_setup_memory(u8x8, &u8x8_st7565_erc12864_display_info);
 1267              		.loc 1 1093 0
 1268 001c 1349     		ldr	r1, .L124
 1269 001e 2846     		mov	r0, r5
 1270 0020 FFF7FEFF 		bl	u8x8_d_helper_display_setup_memory
 1271              	.LVL116:
1094:..\u8g2\csrc/u8x8_d_st7565.c **** 	break;
1095:..\u8g2\csrc/u8x8_d_st7565.c ****       case U8X8_MSG_DISPLAY_INIT:
1096:..\u8g2\csrc/u8x8_d_st7565.c **** 	u8x8_d_helper_display_init(u8x8);
1097:..\u8g2\csrc/u8x8_d_st7565.c **** 	u8x8_cad_SendSequence(u8x8, u8x8_d_st7565_erc12864_alt_init_seq);
1098:..\u8g2\csrc/u8x8_d_st7565.c **** 	break;
1099:..\u8g2\csrc/u8x8_d_st7565.c ****       case U8X8_MSG_DISPLAY_SET_FLIP_MODE:
1100:..\u8g2\csrc/u8x8_d_st7565.c **** 	if ( arg_int == 0 )
1101:..\u8g2\csrc/u8x8_d_st7565.c **** 	{
1102:..\u8g2\csrc/u8x8_d_st7565.c **** 	  u8x8_cad_SendSequence(u8x8, u8x8_d_st7565_flip1_seq);
1103:..\u8g2\csrc/u8x8_d_st7565.c **** 	  u8x8->x_offset = u8x8->display_info->default_x_offset;
1104:..\u8g2\csrc/u8x8_d_st7565.c **** 	}
1105:..\u8g2\csrc/u8x8_d_st7565.c **** 	else
1106:..\u8g2\csrc/u8x8_d_st7565.c **** 	{
1107:..\u8g2\csrc/u8x8_d_st7565.c **** 	  u8x8_cad_SendSequence(u8x8, u8x8_d_st7565_flip0_seq);
1108:..\u8g2\csrc/u8x8_d_st7565.c **** 	  u8x8->x_offset = u8x8->display_info->flipmode_x_offset;
1109:..\u8g2\csrc/u8x8_d_st7565.c **** 	}	
1110:..\u8g2\csrc/u8x8_d_st7565.c **** 	break;
1111:..\u8g2\csrc/u8x8_d_st7565.c ****       default:
1112:..\u8g2\csrc/u8x8_d_st7565.c **** 	return 0;		/* msg unknown */
1113:..\u8g2\csrc/u8x8_d_st7565.c ****     }
1114:..\u8g2\csrc/u8x8_d_st7565.c ****   }
1115:..\u8g2\csrc/u8x8_d_st7565.c ****   return 1;
 1272              		.loc 1 1115 0
 1273 0024 0123     		movs	r3, #1
1094:..\u8g2\csrc/u8x8_d_st7565.c **** 	break;
 1274              		.loc 1 1094 0
 1275 0026 1EE0     		b	.L117
 1276              	.L118:
1096:..\u8g2\csrc/u8x8_d_st7565.c **** 	u8x8_cad_SendSequence(u8x8, u8x8_d_st7565_erc12864_alt_init_seq);
 1277              		.loc 1 1096 0
 1278 0028 2846     		mov	r0, r5
 1279 002a FFF7FEFF 		bl	u8x8_d_helper_display_init
 1280              	.LVL117:
1097:..\u8g2\csrc/u8x8_d_st7565.c **** 	break;
 1281              		.loc 1 1097 0
 1282 002e 1049     		ldr	r1, .L124+4
 1283 0030 2846     		mov	r0, r5
 1284 0032 FFF7FEFF 		bl	u8x8_cad_SendSequence
 1285              	.LVL118:
 1286              		.loc 1 1115 0
 1287 0036 0123     		movs	r3, #1
1098:..\u8g2\csrc/u8x8_d_st7565.c ****       case U8X8_MSG_DISPLAY_SET_FLIP_MODE:
 1288              		.loc 1 1098 0
 1289 0038 15E0     		b	.L117
ARM GAS  C:\Users\brian\AppData\Local\Temp\cc1Lhyrd.s 			page 45


 1290              	.L119:
1100:..\u8g2\csrc/u8x8_d_st7565.c **** 	{
 1291              		.loc 1 1100 0
 1292 003a 4EB9     		cbnz	r6, .L121
1102:..\u8g2\csrc/u8x8_d_st7565.c **** 	  u8x8->x_offset = u8x8->display_info->default_x_offset;
 1293              		.loc 1 1102 0
 1294 003c 0D49     		ldr	r1, .L124+8
 1295 003e 2846     		mov	r0, r5
 1296 0040 FFF7FEFF 		bl	u8x8_cad_SendSequence
 1297              	.LVL119:
1103:..\u8g2\csrc/u8x8_d_st7565.c **** 	}
 1298              		.loc 1 1103 0
 1299 0044 2B68     		ldr	r3, [r5]
 1300 0046 9B7C     		ldrb	r3, [r3, #18]	@ zero_extendqisi2
 1301 0048 85F82230 		strb	r3, [r5, #34]
 1302              		.loc 1 1115 0
 1303 004c 0123     		movs	r3, #1
 1304 004e 0AE0     		b	.L117
 1305              	.L121:
1107:..\u8g2\csrc/u8x8_d_st7565.c **** 	  u8x8->x_offset = u8x8->display_info->flipmode_x_offset;
 1306              		.loc 1 1107 0
 1307 0050 0949     		ldr	r1, .L124+12
 1308 0052 2846     		mov	r0, r5
 1309 0054 FFF7FEFF 		bl	u8x8_cad_SendSequence
 1310              	.LVL120:
1108:..\u8g2\csrc/u8x8_d_st7565.c **** 	}	
 1311              		.loc 1 1108 0
 1312 0058 2B68     		ldr	r3, [r5]
 1313 005a DB7C     		ldrb	r3, [r3, #19]	@ zero_extendqisi2
 1314 005c 85F82230 		strb	r3, [r5, #34]
 1315              		.loc 1 1115 0
 1316 0060 0123     		movs	r3, #1
 1317 0062 00E0     		b	.L117
 1318              	.L122:
 1319 0064 0123     		movs	r3, #1
 1320              	.L117:
1116:..\u8g2\csrc/u8x8_d_st7565.c **** }
 1321              		.loc 1 1116 0
 1322 0066 1846     		mov	r0, r3
 1323 0068 70BD     		pop	{r4, r5, r6, pc}
 1324              	.LVL121:
 1325              	.L125:
 1326 006a 00BF     		.align	2
 1327              	.L124:
 1328 006c F8010000 		.word	.LANCHOR0+504
 1329 0070 34020000 		.word	.LANCHOR0+564
 1330 0074 54000000 		.word	.LANCHOR0+84
 1331 0078 4C000000 		.word	.LANCHOR0+76
 1332              		.cfi_endproc
 1333              	.LFE12:
 1334              		.size	u8x8_d_st7565_erc12864_alt, .-u8x8_d_st7565_erc12864_alt
 1335              		.section	.text.u8x8_d_nt7534_tg12864r,"ax",%progbits
 1336              		.align	2
 1337              		.global	u8x8_d_nt7534_tg12864r
 1338              		.thumb
 1339              		.thumb_func
 1340              		.type	u8x8_d_nt7534_tg12864r, %function
ARM GAS  C:\Users\brian\AppData\Local\Temp\cc1Lhyrd.s 			page 46


 1341              	u8x8_d_nt7534_tg12864r:
 1342              	.LFB13:
1117:..\u8g2\csrc/u8x8_d_st7565.c **** 
1118:..\u8g2\csrc/u8x8_d_st7565.c **** 
1119:..\u8g2\csrc/u8x8_d_st7565.c **** 
1120:..\u8g2\csrc/u8x8_d_st7565.c **** 
1121:..\u8g2\csrc/u8x8_d_st7565.c **** /*================================================*/
1122:..\u8g2\csrc/u8x8_d_st7565.c **** /* NT7534, TG12864R */
1123:..\u8g2\csrc/u8x8_d_st7565.c **** /* The NT7534 has an extended command set for the ST7565, however this is not used. */
1124:..\u8g2\csrc/u8x8_d_st7565.c **** /* The TG12864R display is also shifted in lines, like the LM6059/Adafruit display */
1125:..\u8g2\csrc/u8x8_d_st7565.c **** /* However contrast seems to be different */
1126:..\u8g2\csrc/u8x8_d_st7565.c **** 
1127:..\u8g2\csrc/u8x8_d_st7565.c **** static const uint8_t u8x8_d_nt7534_tg12864r_init_seq[] = {
1128:..\u8g2\csrc/u8x8_d_st7565.c ****     
1129:..\u8g2\csrc/u8x8_d_st7565.c ****   U8X8_START_TRANSFER(),             	/* enable chip, delay is part of the transfer start */
1130:..\u8g2\csrc/u8x8_d_st7565.c ****   
1131:..\u8g2\csrc/u8x8_d_st7565.c ****   U8X8_C(0x0e2),            			/* soft reset */
1132:..\u8g2\csrc/u8x8_d_st7565.c ****   U8X8_C(0x0ae),		                /* display off */
1133:..\u8g2\csrc/u8x8_d_st7565.c ****   U8X8_C(0x060),		                /* set display start line to ... */
1134:..\u8g2\csrc/u8x8_d_st7565.c ****   
1135:..\u8g2\csrc/u8x8_d_st7565.c ****   U8X8_C(0x0a0),		                /* ADC set to reverse */
1136:..\u8g2\csrc/u8x8_d_st7565.c ****   U8X8_C(0x0c8),		                /* common output mode */
1137:..\u8g2\csrc/u8x8_d_st7565.c ****   // Flipmode
1138:..\u8g2\csrc/u8x8_d_st7565.c ****   //U8X8_C(0x0a1),		                /* ADC set to reverse */
1139:..\u8g2\csrc/u8x8_d_st7565.c ****   //U8X8_C(0x0c0),		                /* common output mode */
1140:..\u8g2\csrc/u8x8_d_st7565.c ****   
1141:..\u8g2\csrc/u8x8_d_st7565.c ****   U8X8_C(0x0a6),		                /* display normal, bit val 0: LCD pixel off. */
1142:..\u8g2\csrc/u8x8_d_st7565.c ****   U8X8_C(0x0a3),		                /* LCD bias 1/9 */
1143:..\u8g2\csrc/u8x8_d_st7565.c ****   U8X8_C(0x02f),		                /* all power  control circuits on (regulator, booster and followe
1144:..\u8g2\csrc/u8x8_d_st7565.c ****   //U8X8_CA(0x0f8, 0x000),		/* set booster ratio to 4x (ST7567 feature)*/
1145:..\u8g2\csrc/u8x8_d_st7565.c ****   U8X8_C(0x027),		                /* set V0 voltage resistor ratio to max  */
1146:..\u8g2\csrc/u8x8_d_st7565.c ****   U8X8_CA(0x081, 0x009),		/* set contrast, contrast value, EA default: 0x016 */
1147:..\u8g2\csrc/u8x8_d_st7565.c ****   
1148:..\u8g2\csrc/u8x8_d_st7565.c ****   U8X8_C(0x0ae),		                /* display off */
1149:..\u8g2\csrc/u8x8_d_st7565.c ****   U8X8_C(0x0a5),		                /* enter powersafe: all pixel on, issue 142 */
1150:..\u8g2\csrc/u8x8_d_st7565.c ****   
1151:..\u8g2\csrc/u8x8_d_st7565.c ****   U8X8_END_TRANSFER(),             	/* disable chip */
1152:..\u8g2\csrc/u8x8_d_st7565.c ****   U8X8_END()             			/* end of sequence */
1153:..\u8g2\csrc/u8x8_d_st7565.c **** };
1154:..\u8g2\csrc/u8x8_d_st7565.c **** 
1155:..\u8g2\csrc/u8x8_d_st7565.c **** uint8_t u8x8_d_nt7534_tg12864r(u8x8_t *u8x8, uint8_t msg, uint8_t arg_int, void *arg_ptr)
1156:..\u8g2\csrc/u8x8_d_st7565.c **** {
 1343              		.loc 1 1156 0
 1344              		.cfi_startproc
 1345              		@ args = 0, pretend = 0, frame = 0
 1346              		@ frame_needed = 0, uses_anonymous_args = 0
 1347              	.LVL122:
 1348 0000 70B5     		push	{r4, r5, r6, lr}
 1349              		.cfi_def_cfa_offset 16
 1350              		.cfi_offset 4, -16
 1351              		.cfi_offset 5, -12
 1352              		.cfi_offset 6, -8
 1353              		.cfi_offset 14, -4
 1354 0002 0546     		mov	r5, r0
 1355 0004 0C46     		mov	r4, r1
 1356 0006 1646     		mov	r6, r2
1157:..\u8g2\csrc/u8x8_d_st7565.c ****   /* call common procedure first and handle messages there */
ARM GAS  C:\Users\brian\AppData\Local\Temp\cc1Lhyrd.s 			page 47


1158:..\u8g2\csrc/u8x8_d_st7565.c ****   if ( u8x8_d_st7565_common(u8x8, msg, arg_int, arg_ptr) == 0 )
 1357              		.loc 1 1158 0
 1358 0008 FFF7FEFF 		bl	u8x8_d_st7565_common
 1359              	.LVL123:
 1360 000c 50BB     		cbnz	r0, .L132
 1361 000e 0346     		mov	r3, r0
1159:..\u8g2\csrc/u8x8_d_st7565.c ****   {
1160:..\u8g2\csrc/u8x8_d_st7565.c ****     /* msg not handled, then try here */
1161:..\u8g2\csrc/u8x8_d_st7565.c ****     switch(msg)
 1362              		.loc 1 1161 0
 1363 0010 0A2C     		cmp	r4, #10
 1364 0012 09D0     		beq	.L128
 1365 0014 0D2C     		cmp	r4, #13
 1366 0016 10D0     		beq	.L129
 1367 0018 092C     		cmp	r4, #9
 1368 001a 24D1     		bne	.L127
1162:..\u8g2\csrc/u8x8_d_st7565.c ****     {
1163:..\u8g2\csrc/u8x8_d_st7565.c ****       case U8X8_MSG_DISPLAY_SETUP_MEMORY:
1164:..\u8g2\csrc/u8x8_d_st7565.c **** 	/* reuse the LM6059 data structure... this display seems to have similar shifts and offsets */
1165:..\u8g2\csrc/u8x8_d_st7565.c **** 	u8x8_d_helper_display_setup_memory(u8x8, &u8x8_st7565_lm6059_display_info);
 1369              		.loc 1 1165 0
 1370 001c 1349     		ldr	r1, .L134
 1371 001e 2846     		mov	r0, r5
 1372 0020 FFF7FEFF 		bl	u8x8_d_helper_display_setup_memory
 1373              	.LVL124:
1166:..\u8g2\csrc/u8x8_d_st7565.c **** 	break;
1167:..\u8g2\csrc/u8x8_d_st7565.c ****       case U8X8_MSG_DISPLAY_INIT:
1168:..\u8g2\csrc/u8x8_d_st7565.c **** 	u8x8_d_helper_display_init(u8x8);
1169:..\u8g2\csrc/u8x8_d_st7565.c ****       
1170:..\u8g2\csrc/u8x8_d_st7565.c **** 	//u8x8_cad_SendSequence(u8x8, u8x8_d_st7565_lm6059_init_seq);
1171:..\u8g2\csrc/u8x8_d_st7565.c **** 	u8x8_cad_SendSequence(u8x8, u8x8_d_nt7534_tg12864r_init_seq);
1172:..\u8g2\csrc/u8x8_d_st7565.c **** 	break;
1173:..\u8g2\csrc/u8x8_d_st7565.c ****       case U8X8_MSG_DISPLAY_SET_FLIP_MODE:
1174:..\u8g2\csrc/u8x8_d_st7565.c **** 	if ( arg_int == 0 )
1175:..\u8g2\csrc/u8x8_d_st7565.c **** 	{
1176:..\u8g2\csrc/u8x8_d_st7565.c **** 	  u8x8_cad_SendSequence(u8x8, u8x8_d_st7565_flip1_seq);
1177:..\u8g2\csrc/u8x8_d_st7565.c **** 	  u8x8->x_offset = u8x8->display_info->default_x_offset;
1178:..\u8g2\csrc/u8x8_d_st7565.c **** 	}
1179:..\u8g2\csrc/u8x8_d_st7565.c **** 	else
1180:..\u8g2\csrc/u8x8_d_st7565.c **** 	{
1181:..\u8g2\csrc/u8x8_d_st7565.c **** 	  u8x8_cad_SendSequence(u8x8, u8x8_d_st7565_flip0_seq);
1182:..\u8g2\csrc/u8x8_d_st7565.c **** 	  u8x8->x_offset = u8x8->display_info->flipmode_x_offset;
1183:..\u8g2\csrc/u8x8_d_st7565.c **** 	}	
1184:..\u8g2\csrc/u8x8_d_st7565.c **** 	break;
1185:..\u8g2\csrc/u8x8_d_st7565.c ****       default:
1186:..\u8g2\csrc/u8x8_d_st7565.c **** 	return 0;		/* msg unknown */
1187:..\u8g2\csrc/u8x8_d_st7565.c ****     }
1188:..\u8g2\csrc/u8x8_d_st7565.c ****   }
1189:..\u8g2\csrc/u8x8_d_st7565.c ****   return 1;
 1374              		.loc 1 1189 0
 1375 0024 0123     		movs	r3, #1
1166:..\u8g2\csrc/u8x8_d_st7565.c **** 	break;
 1376              		.loc 1 1166 0
 1377 0026 1EE0     		b	.L127
 1378              	.L128:
1168:..\u8g2\csrc/u8x8_d_st7565.c ****       
 1379              		.loc 1 1168 0
ARM GAS  C:\Users\brian\AppData\Local\Temp\cc1Lhyrd.s 			page 48


 1380 0028 2846     		mov	r0, r5
 1381 002a FFF7FEFF 		bl	u8x8_d_helper_display_init
 1382              	.LVL125:
1171:..\u8g2\csrc/u8x8_d_st7565.c **** 	break;
 1383              		.loc 1 1171 0
 1384 002e 1049     		ldr	r1, .L134+4
 1385 0030 2846     		mov	r0, r5
 1386 0032 FFF7FEFF 		bl	u8x8_cad_SendSequence
 1387              	.LVL126:
 1388              		.loc 1 1189 0
 1389 0036 0123     		movs	r3, #1
1172:..\u8g2\csrc/u8x8_d_st7565.c ****       case U8X8_MSG_DISPLAY_SET_FLIP_MODE:
 1390              		.loc 1 1172 0
 1391 0038 15E0     		b	.L127
 1392              	.L129:
1174:..\u8g2\csrc/u8x8_d_st7565.c **** 	{
 1393              		.loc 1 1174 0
 1394 003a 4EB9     		cbnz	r6, .L131
1176:..\u8g2\csrc/u8x8_d_st7565.c **** 	  u8x8->x_offset = u8x8->display_info->default_x_offset;
 1395              		.loc 1 1176 0
 1396 003c 0D49     		ldr	r1, .L134+8
 1397 003e 2846     		mov	r0, r5
 1398 0040 FFF7FEFF 		bl	u8x8_cad_SendSequence
 1399              	.LVL127:
1177:..\u8g2\csrc/u8x8_d_st7565.c **** 	}
 1400              		.loc 1 1177 0
 1401 0044 2B68     		ldr	r3, [r5]
 1402 0046 9B7C     		ldrb	r3, [r3, #18]	@ zero_extendqisi2
 1403 0048 85F82230 		strb	r3, [r5, #34]
 1404              		.loc 1 1189 0
 1405 004c 0123     		movs	r3, #1
 1406 004e 0AE0     		b	.L127
 1407              	.L131:
1181:..\u8g2\csrc/u8x8_d_st7565.c **** 	  u8x8->x_offset = u8x8->display_info->flipmode_x_offset;
 1408              		.loc 1 1181 0
 1409 0050 0949     		ldr	r1, .L134+12
 1410 0052 2846     		mov	r0, r5
 1411 0054 FFF7FEFF 		bl	u8x8_cad_SendSequence
 1412              	.LVL128:
1182:..\u8g2\csrc/u8x8_d_st7565.c **** 	}	
 1413              		.loc 1 1182 0
 1414 0058 2B68     		ldr	r3, [r5]
 1415 005a DB7C     		ldrb	r3, [r3, #19]	@ zero_extendqisi2
 1416 005c 85F82230 		strb	r3, [r5, #34]
 1417              		.loc 1 1189 0
 1418 0060 0123     		movs	r3, #1
 1419 0062 00E0     		b	.L127
 1420              	.L132:
 1421 0064 0123     		movs	r3, #1
 1422              	.L127:
1190:..\u8g2\csrc/u8x8_d_st7565.c **** }
 1423              		.loc 1 1190 0
 1424 0066 1846     		mov	r0, r3
 1425 0068 70BD     		pop	{r4, r5, r6, pc}
 1426              	.LVL129:
 1427              	.L135:
 1428 006a 00BF     		.align	2
ARM GAS  C:\Users\brian\AppData\Local\Temp\cc1Lhyrd.s 			page 49


 1429              	.L134:
 1430 006c 64010000 		.word	.LANCHOR0+356
 1431 0070 58020000 		.word	.LANCHOR0+600
 1432 0074 54000000 		.word	.LANCHOR0+84
 1433 0078 4C000000 		.word	.LANCHOR0+76
 1434              		.cfi_endproc
 1435              	.LFE13:
 1436              		.size	u8x8_d_nt7534_tg12864r, .-u8x8_d_nt7534_tg12864r
 1437              		.section	.text.u8x8_d_st7565_ea_dogm132,"ax",%progbits
 1438              		.align	2
 1439              		.global	u8x8_d_st7565_ea_dogm132
 1440              		.thumb
 1441              		.thumb_func
 1442              		.type	u8x8_d_st7565_ea_dogm132, %function
 1443              	u8x8_d_st7565_ea_dogm132:
 1444              	.LFB14:
1191:..\u8g2\csrc/u8x8_d_st7565.c **** 
1192:..\u8g2\csrc/u8x8_d_st7565.c **** 
1193:..\u8g2\csrc/u8x8_d_st7565.c **** /*================================================*/
1194:..\u8g2\csrc/u8x8_d_st7565.c **** /* EA DOGM132 */
1195:..\u8g2\csrc/u8x8_d_st7565.c **** 
1196:..\u8g2\csrc/u8x8_d_st7565.c **** static const u8x8_display_info_t u8x8_st7565_dogm132_display_info =
1197:..\u8g2\csrc/u8x8_d_st7565.c **** {
1198:..\u8g2\csrc/u8x8_d_st7565.c ****   /* chip_enable_level = */ 0,
1199:..\u8g2\csrc/u8x8_d_st7565.c ****   /* chip_disable_level = */ 1,
1200:..\u8g2\csrc/u8x8_d_st7565.c ****   
1201:..\u8g2\csrc/u8x8_d_st7565.c ****   /* post_chip_enable_wait_ns = */ 150,	/* st7565 datasheet, table 26, tcsh */
1202:..\u8g2\csrc/u8x8_d_st7565.c ****   /* pre_chip_disable_wait_ns = */ 50,	/* st7565 datasheet, table 26, tcss */
1203:..\u8g2\csrc/u8x8_d_st7565.c ****   /* reset_pulse_width_ms = */ 1, 
1204:..\u8g2\csrc/u8x8_d_st7565.c ****   /* post_reset_wait_ms = */ 1, 
1205:..\u8g2\csrc/u8x8_d_st7565.c ****   /* sda_setup_time_ns = */ 50,		/* st7565 datasheet, table 26, tsds */
1206:..\u8g2\csrc/u8x8_d_st7565.c ****   /* sck_pulse_width_ns = */ 120,	/* half of cycle time (100ns according to datasheet), AVR: below 
1207:..\u8g2\csrc/u8x8_d_st7565.c ****   /* sck_clock_hz = */ 4000000UL,	/* since Arduino 1.6.0, the SPI bus speed in Hz. Should be  10000
1208:..\u8g2\csrc/u8x8_d_st7565.c ****   /* spi_mode = */ 0,		/* active high, rising edge */
1209:..\u8g2\csrc/u8x8_d_st7565.c ****   /* i2c_bus_clock_100kHz = */ 4,
1210:..\u8g2\csrc/u8x8_d_st7565.c ****   /* data_setup_time_ns = */ 40,	/* st7565 datasheet, table 24, tds8 */
1211:..\u8g2\csrc/u8x8_d_st7565.c ****   /* write_pulse_width_ns = */ 80,	/* st7565 datasheet, table 24, tcclw */
1212:..\u8g2\csrc/u8x8_d_st7565.c ****   /* tile_width = */ 17,		/* width of 16*8=136 pixel */
1213:..\u8g2\csrc/u8x8_d_st7565.c ****   /* tile_hight = */ 4,
1214:..\u8g2\csrc/u8x8_d_st7565.c ****   /* default_x_offset = */ 0,
1215:..\u8g2\csrc/u8x8_d_st7565.c ****   /* flipmode_x_offset = */ 0,
1216:..\u8g2\csrc/u8x8_d_st7565.c ****   /* pixel_width = */ 132,
1217:..\u8g2\csrc/u8x8_d_st7565.c ****   /* pixel_height = */ 32
1218:..\u8g2\csrc/u8x8_d_st7565.c **** };
1219:..\u8g2\csrc/u8x8_d_st7565.c **** 
1220:..\u8g2\csrc/u8x8_d_st7565.c **** 
1221:..\u8g2\csrc/u8x8_d_st7565.c **** static const uint8_t u8x8_d_st7565_dogm132_init_seq[] = {
1222:..\u8g2\csrc/u8x8_d_st7565.c ****     
1223:..\u8g2\csrc/u8x8_d_st7565.c ****   U8X8_START_TRANSFER(),             	/* enable chip, delay is part of the transfer start */
1224:..\u8g2\csrc/u8x8_d_st7565.c ****   
1225:..\u8g2\csrc/u8x8_d_st7565.c ****   U8X8_C(0x0e2),            			/* soft reset */
1226:..\u8g2\csrc/u8x8_d_st7565.c ****   U8X8_C(0x0ae),		                /* display off */
1227:..\u8g2\csrc/u8x8_d_st7565.c ****   U8X8_C(0x040),		                /* set display start line to 0 */
1228:..\u8g2\csrc/u8x8_d_st7565.c ****   
1229:..\u8g2\csrc/u8x8_d_st7565.c ****   U8X8_C(0x0a1),		                /* ADC set to reverse */
1230:..\u8g2\csrc/u8x8_d_st7565.c ****   U8X8_C(0x0c0),		                /* common output mode */
1231:..\u8g2\csrc/u8x8_d_st7565.c ****   // Flipmode
ARM GAS  C:\Users\brian\AppData\Local\Temp\cc1Lhyrd.s 			page 50


1232:..\u8g2\csrc/u8x8_d_st7565.c ****   //U8X8_C(0x0a0),		                /* ADC set to reverse */
1233:..\u8g2\csrc/u8x8_d_st7565.c ****   //U8X8_C(0x0c8),		                /* common output mode */
1234:..\u8g2\csrc/u8x8_d_st7565.c ****   
1235:..\u8g2\csrc/u8x8_d_st7565.c ****   U8X8_C(0x0a6),		                /* display normal, bit val 0: LCD pixel off. */
1236:..\u8g2\csrc/u8x8_d_st7565.c ****   U8X8_C(0x0a2),		                /* LCD bias 1/9 */
1237:..\u8g2\csrc/u8x8_d_st7565.c ****   U8X8_C(0x02f),		                /* all power  control circuits on */
1238:..\u8g2\csrc/u8x8_d_st7565.c ****   U8X8_CA(0x0f8, 0x000),		/* set booster ratio to 4x */
1239:..\u8g2\csrc/u8x8_d_st7565.c ****   U8X8_C(0x023),		                /* set V0 voltage resistor ratio to large*/
1240:..\u8g2\csrc/u8x8_d_st7565.c ****   U8X8_CA(0x081, 0x01f),		/* set contrast, contrast value EA DOGM132 */
1241:..\u8g2\csrc/u8x8_d_st7565.c ****   
1242:..\u8g2\csrc/u8x8_d_st7565.c ****   U8X8_C(0x0ae),		                /* display off */
1243:..\u8g2\csrc/u8x8_d_st7565.c ****   U8X8_C(0x0a5),		                /* enter powersafe: all pixel on, issue 142 */
1244:..\u8g2\csrc/u8x8_d_st7565.c ****   
1245:..\u8g2\csrc/u8x8_d_st7565.c ****   U8X8_END_TRANSFER(),             	/* disable chip */
1246:..\u8g2\csrc/u8x8_d_st7565.c ****   U8X8_END()             			/* end of sequence */
1247:..\u8g2\csrc/u8x8_d_st7565.c **** };
1248:..\u8g2\csrc/u8x8_d_st7565.c **** 
1249:..\u8g2\csrc/u8x8_d_st7565.c **** uint8_t u8x8_d_st7565_ea_dogm132(u8x8_t *u8x8, uint8_t msg, uint8_t arg_int, void *arg_ptr)
1250:..\u8g2\csrc/u8x8_d_st7565.c **** {
 1445              		.loc 1 1250 0
 1446              		.cfi_startproc
 1447              		@ args = 0, pretend = 0, frame = 0
 1448              		@ frame_needed = 0, uses_anonymous_args = 0
 1449              	.LVL130:
 1450 0000 70B5     		push	{r4, r5, r6, lr}
 1451              		.cfi_def_cfa_offset 16
 1452              		.cfi_offset 4, -16
 1453              		.cfi_offset 5, -12
 1454              		.cfi_offset 6, -8
 1455              		.cfi_offset 14, -4
 1456 0002 0546     		mov	r5, r0
 1457 0004 0C46     		mov	r4, r1
 1458 0006 1646     		mov	r6, r2
1251:..\u8g2\csrc/u8x8_d_st7565.c ****   /* call common procedure first and handle messages there */
1252:..\u8g2\csrc/u8x8_d_st7565.c ****   if ( u8x8_d_st7565_common(u8x8, msg, arg_int, arg_ptr) == 0 )
 1459              		.loc 1 1252 0
 1460 0008 FFF7FEFF 		bl	u8x8_d_st7565_common
 1461              	.LVL131:
 1462 000c 50BB     		cbnz	r0, .L142
 1463 000e 0346     		mov	r3, r0
1253:..\u8g2\csrc/u8x8_d_st7565.c ****   {
1254:..\u8g2\csrc/u8x8_d_st7565.c ****     /* msg not handled, then try here */
1255:..\u8g2\csrc/u8x8_d_st7565.c ****     switch(msg)
 1464              		.loc 1 1255 0
 1465 0010 0A2C     		cmp	r4, #10
 1466 0012 09D0     		beq	.L138
 1467 0014 0D2C     		cmp	r4, #13
 1468 0016 10D0     		beq	.L139
 1469 0018 092C     		cmp	r4, #9
 1470 001a 24D1     		bne	.L137
1256:..\u8g2\csrc/u8x8_d_st7565.c ****     {
1257:..\u8g2\csrc/u8x8_d_st7565.c ****       case U8X8_MSG_DISPLAY_SETUP_MEMORY:
1258:..\u8g2\csrc/u8x8_d_st7565.c **** 	u8x8_d_helper_display_setup_memory(u8x8, &u8x8_st7565_dogm132_display_info);
 1471              		.loc 1 1258 0
 1472 001c 1349     		ldr	r1, .L144
 1473 001e 2846     		mov	r0, r5
 1474 0020 FFF7FEFF 		bl	u8x8_d_helper_display_setup_memory
ARM GAS  C:\Users\brian\AppData\Local\Temp\cc1Lhyrd.s 			page 51


 1475              	.LVL132:
1259:..\u8g2\csrc/u8x8_d_st7565.c **** 	break;
1260:..\u8g2\csrc/u8x8_d_st7565.c ****       case U8X8_MSG_DISPLAY_INIT:
1261:..\u8g2\csrc/u8x8_d_st7565.c **** 	u8x8_d_helper_display_init(u8x8);
1262:..\u8g2\csrc/u8x8_d_st7565.c **** 	u8x8_cad_SendSequence(u8x8, u8x8_d_st7565_dogm132_init_seq);
1263:..\u8g2\csrc/u8x8_d_st7565.c **** 	break;
1264:..\u8g2\csrc/u8x8_d_st7565.c ****       case U8X8_MSG_DISPLAY_SET_FLIP_MODE:
1265:..\u8g2\csrc/u8x8_d_st7565.c **** 	if ( arg_int == 0 )
1266:..\u8g2\csrc/u8x8_d_st7565.c **** 	{
1267:..\u8g2\csrc/u8x8_d_st7565.c **** 	  u8x8_cad_SendSequence(u8x8, u8x8_d_st7565_flip0_seq);
1268:..\u8g2\csrc/u8x8_d_st7565.c **** 	  u8x8->x_offset = u8x8->display_info->default_x_offset;
1269:..\u8g2\csrc/u8x8_d_st7565.c **** 	}
1270:..\u8g2\csrc/u8x8_d_st7565.c **** 	else
1271:..\u8g2\csrc/u8x8_d_st7565.c **** 	{
1272:..\u8g2\csrc/u8x8_d_st7565.c **** 	  u8x8_cad_SendSequence(u8x8, u8x8_d_st7565_flip1_seq);
1273:..\u8g2\csrc/u8x8_d_st7565.c **** 	  u8x8->x_offset = u8x8->display_info->flipmode_x_offset;
1274:..\u8g2\csrc/u8x8_d_st7565.c **** 	}	
1275:..\u8g2\csrc/u8x8_d_st7565.c **** 	break;
1276:..\u8g2\csrc/u8x8_d_st7565.c ****       default:
1277:..\u8g2\csrc/u8x8_d_st7565.c **** 	return 0;		/* msg unknown */
1278:..\u8g2\csrc/u8x8_d_st7565.c ****     }
1279:..\u8g2\csrc/u8x8_d_st7565.c ****   }
1280:..\u8g2\csrc/u8x8_d_st7565.c ****   return 1;
 1476              		.loc 1 1280 0
 1477 0024 0123     		movs	r3, #1
1259:..\u8g2\csrc/u8x8_d_st7565.c **** 	break;
 1478              		.loc 1 1259 0
 1479 0026 1EE0     		b	.L137
 1480              	.L138:
1261:..\u8g2\csrc/u8x8_d_st7565.c **** 	u8x8_cad_SendSequence(u8x8, u8x8_d_st7565_dogm132_init_seq);
 1481              		.loc 1 1261 0
 1482 0028 2846     		mov	r0, r5
 1483 002a FFF7FEFF 		bl	u8x8_d_helper_display_init
 1484              	.LVL133:
1262:..\u8g2\csrc/u8x8_d_st7565.c **** 	break;
 1485              		.loc 1 1262 0
 1486 002e 1049     		ldr	r1, .L144+4
 1487 0030 2846     		mov	r0, r5
 1488 0032 FFF7FEFF 		bl	u8x8_cad_SendSequence
 1489              	.LVL134:
 1490              		.loc 1 1280 0
 1491 0036 0123     		movs	r3, #1
1263:..\u8g2\csrc/u8x8_d_st7565.c ****       case U8X8_MSG_DISPLAY_SET_FLIP_MODE:
 1492              		.loc 1 1263 0
 1493 0038 15E0     		b	.L137
 1494              	.L139:
1265:..\u8g2\csrc/u8x8_d_st7565.c **** 	{
 1495              		.loc 1 1265 0
 1496 003a 4EB9     		cbnz	r6, .L141
1267:..\u8g2\csrc/u8x8_d_st7565.c **** 	  u8x8->x_offset = u8x8->display_info->default_x_offset;
 1497              		.loc 1 1267 0
 1498 003c 0D49     		ldr	r1, .L144+8
 1499 003e 2846     		mov	r0, r5
 1500 0040 FFF7FEFF 		bl	u8x8_cad_SendSequence
 1501              	.LVL135:
1268:..\u8g2\csrc/u8x8_d_st7565.c **** 	}
 1502              		.loc 1 1268 0
ARM GAS  C:\Users\brian\AppData\Local\Temp\cc1Lhyrd.s 			page 52


 1503 0044 2B68     		ldr	r3, [r5]
 1504 0046 9B7C     		ldrb	r3, [r3, #18]	@ zero_extendqisi2
 1505 0048 85F82230 		strb	r3, [r5, #34]
 1506              		.loc 1 1280 0
 1507 004c 0123     		movs	r3, #1
 1508 004e 0AE0     		b	.L137
 1509              	.L141:
1272:..\u8g2\csrc/u8x8_d_st7565.c **** 	  u8x8->x_offset = u8x8->display_info->flipmode_x_offset;
 1510              		.loc 1 1272 0
 1511 0050 0949     		ldr	r1, .L144+12
 1512 0052 2846     		mov	r0, r5
 1513 0054 FFF7FEFF 		bl	u8x8_cad_SendSequence
 1514              	.LVL136:
1273:..\u8g2\csrc/u8x8_d_st7565.c **** 	}	
 1515              		.loc 1 1273 0
 1516 0058 2B68     		ldr	r3, [r5]
 1517 005a DB7C     		ldrb	r3, [r3, #19]	@ zero_extendqisi2
 1518 005c 85F82230 		strb	r3, [r5, #34]
 1519              		.loc 1 1280 0
 1520 0060 0123     		movs	r3, #1
 1521 0062 00E0     		b	.L137
 1522              	.L142:
 1523 0064 0123     		movs	r3, #1
 1524              	.L137:
1281:..\u8g2\csrc/u8x8_d_st7565.c **** }
 1525              		.loc 1 1281 0
 1526 0066 1846     		mov	r0, r3
 1527 0068 70BD     		pop	{r4, r5, r6, pc}
 1528              	.LVL137:
 1529              	.L145:
 1530 006a 00BF     		.align	2
 1531              	.L144:
 1532 006c 78020000 		.word	.LANCHOR0+632
 1533 0070 90020000 		.word	.LANCHOR0+656
 1534 0074 4C000000 		.word	.LANCHOR0+76
 1535 0078 54000000 		.word	.LANCHOR0+84
 1536              		.cfi_endproc
 1537              	.LFE14:
 1538              		.size	u8x8_d_st7565_ea_dogm132, .-u8x8_d_st7565_ea_dogm132
 1539              		.section	.rodata
 1540              		.align	2
 1541              		.set	.LANCHOR0,. + 0
 1542              		.type	u8x8_d_st7565_powersave0_seq, %object
 1543              		.size	u8x8_d_st7565_powersave0_seq, 7
 1544              	u8x8_d_st7565_powersave0_seq:
 1545 0000 18       		.byte	24
 1546 0001 15       		.byte	21
 1547 0002 A4       		.byte	-92
 1548 0003 15       		.byte	21
 1549 0004 AF       		.byte	-81
 1550 0005 19       		.byte	25
 1551 0006 FF       		.byte	-1
 1552 0007 00       		.space	1
 1553              		.type	u8x8_d_st7565_powersave1_seq, %object
 1554              		.size	u8x8_d_st7565_powersave1_seq, 7
 1555              	u8x8_d_st7565_powersave1_seq:
 1556 0008 18       		.byte	24
ARM GAS  C:\Users\brian\AppData\Local\Temp\cc1Lhyrd.s 			page 53


 1557 0009 15       		.byte	21
 1558 000a AE       		.byte	-82
 1559 000b 15       		.byte	21
 1560 000c A5       		.byte	-91
 1561 000d 19       		.byte	25
 1562 000e FF       		.byte	-1
 1563 000f 00       		.space	1
 1564              		.type	u8x8_st7565_128x64_display_info, %object
 1565              		.size	u8x8_st7565_128x64_display_info, 24
 1566              	u8x8_st7565_128x64_display_info:
 1567 0010 00       		.byte	0
 1568 0011 01       		.byte	1
 1569 0012 96       		.byte	-106
 1570 0013 32       		.byte	50
 1571 0014 01       		.byte	1
 1572 0015 01       		.byte	1
 1573 0016 32       		.byte	50
 1574 0017 78       		.byte	120
 1575 0018 00093D00 		.word	4000000
 1576 001c 00       		.byte	0
 1577 001d 04       		.byte	4
 1578 001e 28       		.byte	40
 1579 001f 50       		.byte	80
 1580 0020 10       		.byte	16
 1581 0021 08       		.byte	8
 1582 0022 00       		.byte	0
 1583 0023 04       		.byte	4
 1584 0024 8000     		.short	128
 1585 0026 4000     		.short	64
 1586              		.type	u8x8_d_st7565_dogm128_init_seq, %object
 1587              		.size	u8x8_d_st7565_dogm128_init_seq, 33
 1588              	u8x8_d_st7565_dogm128_init_seq:
 1589 0028 18       		.byte	24
 1590 0029 15       		.byte	21
 1591 002a E2       		.byte	-30
 1592 002b 15       		.byte	21
 1593 002c AE       		.byte	-82
 1594 002d 15       		.byte	21
 1595 002e 40       		.byte	64
 1596 002f 15       		.byte	21
 1597 0030 A1       		.byte	-95
 1598 0031 15       		.byte	21
 1599 0032 C0       		.byte	-64
 1600 0033 15       		.byte	21
 1601 0034 A6       		.byte	-90
 1602 0035 15       		.byte	21
 1603 0036 A2       		.byte	-94
 1604 0037 15       		.byte	21
 1605 0038 2F       		.byte	47
 1606 0039 15       		.byte	21
 1607 003a F8       		.byte	-8
 1608 003b 16       		.byte	22
 1609 003c 00       		.byte	0
 1610 003d 15       		.byte	21
 1611 003e 27       		.byte	39
 1612 003f 15       		.byte	21
 1613 0040 81       		.byte	-127
ARM GAS  C:\Users\brian\AppData\Local\Temp\cc1Lhyrd.s 			page 54


 1614 0041 16       		.byte	22
 1615 0042 18       		.byte	24
 1616 0043 15       		.byte	21
 1617 0044 AE       		.byte	-82
 1618 0045 15       		.byte	21
 1619 0046 A5       		.byte	-91
 1620 0047 19       		.byte	25
 1621 0048 FF       		.byte	-1
 1622 0049 000000   		.space	3
 1623              		.type	u8x8_d_st7565_flip0_seq, %object
 1624              		.size	u8x8_d_st7565_flip0_seq, 7
 1625              	u8x8_d_st7565_flip0_seq:
 1626 004c 18       		.byte	24
 1627 004d 15       		.byte	21
 1628 004e A1       		.byte	-95
 1629 004f 15       		.byte	21
 1630 0050 C0       		.byte	-64
 1631 0051 19       		.byte	25
 1632 0052 FF       		.byte	-1
 1633 0053 00       		.space	1
 1634              		.type	u8x8_d_st7565_flip1_seq, %object
 1635              		.size	u8x8_d_st7565_flip1_seq, 7
 1636              	u8x8_d_st7565_flip1_seq:
 1637 0054 18       		.byte	24
 1638 0055 15       		.byte	21
 1639 0056 A0       		.byte	-96
 1640 0057 15       		.byte	21
 1641 0058 C8       		.byte	-56
 1642 0059 19       		.byte	25
 1643 005a FF       		.byte	-1
 1644 005b 00       		.space	1
 1645              		.type	u8x8_d_st7565_lm6063_init_seq, %object
 1646              		.size	u8x8_d_st7565_lm6063_init_seq, 33
 1647              	u8x8_d_st7565_lm6063_init_seq:
 1648 005c 18       		.byte	24
 1649 005d 15       		.byte	21
 1650 005e E2       		.byte	-30
 1651 005f 15       		.byte	21
 1652 0060 AE       		.byte	-82
 1653 0061 15       		.byte	21
 1654 0062 40       		.byte	64
 1655 0063 15       		.byte	21
 1656 0064 A1       		.byte	-95
 1657 0065 15       		.byte	21
 1658 0066 C0       		.byte	-64
 1659 0067 15       		.byte	21
 1660 0068 A6       		.byte	-90
 1661 0069 15       		.byte	21
 1662 006a A2       		.byte	-94
 1663 006b 15       		.byte	21
 1664 006c 2F       		.byte	47
 1665 006d 15       		.byte	21
 1666 006e F8       		.byte	-8
 1667 006f 16       		.byte	22
 1668 0070 00       		.byte	0
 1669 0071 15       		.byte	21
 1670 0072 27       		.byte	39
ARM GAS  C:\Users\brian\AppData\Local\Temp\cc1Lhyrd.s 			page 55


 1671 0073 15       		.byte	21
 1672 0074 81       		.byte	-127
 1673 0075 16       		.byte	22
 1674 0076 0C       		.byte	12
 1675 0077 15       		.byte	21
 1676 0078 AE       		.byte	-82
 1677 0079 15       		.byte	21
 1678 007a A5       		.byte	-91
 1679 007b 19       		.byte	25
 1680 007c FF       		.byte	-1
 1681 007d 000000   		.space	3
 1682              		.type	u8x8_st7565_64128n_display_info, %object
 1683              		.size	u8x8_st7565_64128n_display_info, 24
 1684              	u8x8_st7565_64128n_display_info:
 1685 0080 00       		.byte	0
 1686 0081 01       		.byte	1
 1687 0082 96       		.byte	-106
 1688 0083 32       		.byte	50
 1689 0084 01       		.byte	1
 1690 0085 01       		.byte	1
 1691 0086 32       		.byte	50
 1692 0087 78       		.byte	120
 1693 0088 00093D00 		.word	4000000
 1694 008c 00       		.byte	0
 1695 008d 04       		.byte	4
 1696 008e 28       		.byte	40
 1697 008f 50       		.byte	80
 1698 0090 10       		.byte	16
 1699 0091 08       		.byte	8
 1700 0092 04       		.byte	4
 1701 0093 00       		.byte	0
 1702 0094 8000     		.short	128
 1703 0096 4000     		.short	64
 1704              		.type	u8x8_d_st7565_64128n_init_seq, %object
 1705              		.size	u8x8_d_st7565_64128n_init_seq, 29
 1706              	u8x8_d_st7565_64128n_init_seq:
 1707 0098 18       		.byte	24
 1708 0099 15       		.byte	21
 1709 009a E2       		.byte	-30
 1710 009b 15       		.byte	21
 1711 009c A2       		.byte	-94
 1712 009d 15       		.byte	21
 1713 009e A1       		.byte	-95
 1714 009f 15       		.byte	21
 1715 00a0 C0       		.byte	-64
 1716 00a1 15       		.byte	21
 1717 00a2 40       		.byte	64
 1718 00a3 15       		.byte	21
 1719 00a4 2C       		.byte	44
 1720 00a5 15       		.byte	21
 1721 00a6 2E       		.byte	46
 1722 00a7 15       		.byte	21
 1723 00a8 2F       		.byte	47
 1724 00a9 15       		.byte	21
 1725 00aa 10       		.byte	16
 1726 00ab 15       		.byte	21
 1727 00ac A6       		.byte	-90
ARM GAS  C:\Users\brian\AppData\Local\Temp\cc1Lhyrd.s 			page 56


 1728 00ad 15       		.byte	21
 1729 00ae 81       		.byte	-127
 1730 00af 15       		.byte	21
 1731 00b0 1E       		.byte	30
 1732 00b1 15       		.byte	21
 1733 00b2 AE       		.byte	-82
 1734 00b3 19       		.byte	25
 1735 00b4 FF       		.byte	-1
 1736 00b5 000000   		.space	3
 1737              		.type	u8x8_d_st7565_zolen_128x64_init_seq, %object
 1738              		.size	u8x8_d_st7565_zolen_128x64_init_seq, 33
 1739              	u8x8_d_st7565_zolen_128x64_init_seq:
 1740 00b8 18       		.byte	24
 1741 00b9 15       		.byte	21
 1742 00ba E2       		.byte	-30
 1743 00bb 15       		.byte	21
 1744 00bc AE       		.byte	-82
 1745 00bd 15       		.byte	21
 1746 00be 40       		.byte	64
 1747 00bf 15       		.byte	21
 1748 00c0 A1       		.byte	-95
 1749 00c1 15       		.byte	21
 1750 00c2 C8       		.byte	-56
 1751 00c3 15       		.byte	21
 1752 00c4 A6       		.byte	-90
 1753 00c5 15       		.byte	21
 1754 00c6 A2       		.byte	-94
 1755 00c7 15       		.byte	21
 1756 00c8 2F       		.byte	47
 1757 00c9 15       		.byte	21
 1758 00ca F8       		.byte	-8
 1759 00cb 16       		.byte	22
 1760 00cc 00       		.byte	0
 1761 00cd 15       		.byte	21
 1762 00ce 27       		.byte	39
 1763 00cf 15       		.byte	21
 1764 00d0 81       		.byte	-127
 1765 00d1 16       		.byte	22
 1766 00d2 07       		.byte	7
 1767 00d3 15       		.byte	21
 1768 00d4 AE       		.byte	-82
 1769 00d5 15       		.byte	21
 1770 00d6 A5       		.byte	-91
 1771 00d7 19       		.byte	25
 1772 00d8 FF       		.byte	-1
 1773 00d9 000000   		.space	3
 1774              		.type	u8x8_d_st7565_zflip0_seq, %object
 1775              		.size	u8x8_d_st7565_zflip0_seq, 7
 1776              	u8x8_d_st7565_zflip0_seq:
 1777 00dc 18       		.byte	24
 1778 00dd 15       		.byte	21
 1779 00de A1       		.byte	-95
 1780 00df 15       		.byte	21
 1781 00e0 C8       		.byte	-56
 1782 00e1 19       		.byte	25
 1783 00e2 FF       		.byte	-1
 1784 00e3 00       		.space	1
ARM GAS  C:\Users\brian\AppData\Local\Temp\cc1Lhyrd.s 			page 57


 1785              		.type	u8x8_d_st7565_zflip1_seq, %object
 1786              		.size	u8x8_d_st7565_zflip1_seq, 7
 1787              	u8x8_d_st7565_zflip1_seq:
 1788 00e4 18       		.byte	24
 1789 00e5 15       		.byte	21
 1790 00e6 A0       		.byte	-96
 1791 00e7 15       		.byte	21
 1792 00e8 C0       		.byte	-64
 1793 00e9 19       		.byte	25
 1794 00ea FF       		.byte	-1
 1795 00eb 00       		.space	1
 1796              		.type	u8x8_st7565_128x32_display_info, %object
 1797              		.size	u8x8_st7565_128x32_display_info, 24
 1798              	u8x8_st7565_128x32_display_info:
 1799 00ec 00       		.byte	0
 1800 00ed 01       		.byte	1
 1801 00ee 96       		.byte	-106
 1802 00ef 32       		.byte	50
 1803 00f0 01       		.byte	1
 1804 00f1 01       		.byte	1
 1805 00f2 32       		.byte	50
 1806 00f3 78       		.byte	120
 1807 00f4 00093D00 		.word	4000000
 1808 00f8 00       		.byte	0
 1809 00f9 04       		.byte	4
 1810 00fa 28       		.byte	40
 1811 00fb 50       		.byte	80
 1812 00fc 10       		.byte	16
 1813 00fd 04       		.byte	4
 1814 00fe 04       		.byte	4
 1815 00ff 00       		.byte	0
 1816 0100 8000     		.short	128
 1817 0102 2000     		.short	32
 1818              		.type	u8x8_d_st7565_nhd_c12832_init_seq, %object
 1819              		.size	u8x8_d_st7565_nhd_c12832_init_seq, 33
 1820              	u8x8_d_st7565_nhd_c12832_init_seq:
 1821 0104 18       		.byte	24
 1822 0105 15       		.byte	21
 1823 0106 E2       		.byte	-30
 1824 0107 15       		.byte	21
 1825 0108 AE       		.byte	-82
 1826 0109 15       		.byte	21
 1827 010a 40       		.byte	64
 1828 010b 15       		.byte	21
 1829 010c A1       		.byte	-95
 1830 010d 15       		.byte	21
 1831 010e C0       		.byte	-64
 1832 010f 15       		.byte	21
 1833 0110 A6       		.byte	-90
 1834 0111 15       		.byte	21
 1835 0112 A2       		.byte	-94
 1836 0113 15       		.byte	21
 1837 0114 2F       		.byte	47
 1838 0115 15       		.byte	21
 1839 0116 F8       		.byte	-8
 1840 0117 16       		.byte	22
 1841 0118 00       		.byte	0
ARM GAS  C:\Users\brian\AppData\Local\Temp\cc1Lhyrd.s 			page 58


 1842 0119 15       		.byte	21
 1843 011a 23       		.byte	35
 1844 011b 15       		.byte	21
 1845 011c 81       		.byte	-127
 1846 011d 16       		.byte	22
 1847 011e 0A       		.byte	10
 1848 011f 15       		.byte	21
 1849 0120 AE       		.byte	-82
 1850 0121 15       		.byte	21
 1851 0122 A5       		.byte	-91
 1852 0123 19       		.byte	25
 1853 0124 FF       		.byte	-1
 1854 0125 000000   		.space	3
 1855              		.type	u8x8_st7565_nhd_c12864_display_info, %object
 1856              		.size	u8x8_st7565_nhd_c12864_display_info, 24
 1857              	u8x8_st7565_nhd_c12864_display_info:
 1858 0128 00       		.byte	0
 1859 0129 01       		.byte	1
 1860 012a 96       		.byte	-106
 1861 012b 32       		.byte	50
 1862 012c 01       		.byte	1
 1863 012d 01       		.byte	1
 1864 012e 32       		.byte	50
 1865 012f 78       		.byte	120
 1866 0130 00093D00 		.word	4000000
 1867 0134 00       		.byte	0
 1868 0135 04       		.byte	4
 1869 0136 28       		.byte	40
 1870 0137 50       		.byte	80
 1871 0138 10       		.byte	16
 1872 0139 08       		.byte	8
 1873 013a 04       		.byte	4
 1874 013b 00       		.byte	0
 1875 013c 8000     		.short	128
 1876 013e 4000     		.short	64
 1877              		.type	u8x8_d_st7565_nhd_c12864_init_seq, %object
 1878              		.size	u8x8_d_st7565_nhd_c12864_init_seq, 33
 1879              	u8x8_d_st7565_nhd_c12864_init_seq:
 1880 0140 18       		.byte	24
 1881 0141 15       		.byte	21
 1882 0142 E2       		.byte	-30
 1883 0143 15       		.byte	21
 1884 0144 AE       		.byte	-82
 1885 0145 15       		.byte	21
 1886 0146 40       		.byte	64
 1887 0147 15       		.byte	21
 1888 0148 A1       		.byte	-95
 1889 0149 15       		.byte	21
 1890 014a C0       		.byte	-64
 1891 014b 15       		.byte	21
 1892 014c A6       		.byte	-90
 1893 014d 15       		.byte	21
 1894 014e A2       		.byte	-94
 1895 014f 15       		.byte	21
 1896 0150 2F       		.byte	47
 1897 0151 15       		.byte	21
 1898 0152 F8       		.byte	-8
ARM GAS  C:\Users\brian\AppData\Local\Temp\cc1Lhyrd.s 			page 59


 1899 0153 16       		.byte	22
 1900 0154 00       		.byte	0
 1901 0155 15       		.byte	21
 1902 0156 23       		.byte	35
 1903 0157 15       		.byte	21
 1904 0158 81       		.byte	-127
 1905 0159 16       		.byte	22
 1906 015a B4       		.byte	-76
 1907 015b 15       		.byte	21
 1908 015c AE       		.byte	-82
 1909 015d 15       		.byte	21
 1910 015e A5       		.byte	-91
 1911 015f 19       		.byte	25
 1912 0160 FF       		.byte	-1
 1913 0161 000000   		.space	3
 1914              		.type	u8x8_st7565_lm6059_display_info, %object
 1915              		.size	u8x8_st7565_lm6059_display_info, 24
 1916              	u8x8_st7565_lm6059_display_info:
 1917 0164 00       		.byte	0
 1918 0165 01       		.byte	1
 1919 0166 96       		.byte	-106
 1920 0167 32       		.byte	50
 1921 0168 01       		.byte	1
 1922 0169 01       		.byte	1
 1923 016a 32       		.byte	50
 1924 016b 78       		.byte	120
 1925 016c 00093D00 		.word	4000000
 1926 0170 00       		.byte	0
 1927 0171 04       		.byte	4
 1928 0172 28       		.byte	40
 1929 0173 50       		.byte	80
 1930 0174 10       		.byte	16
 1931 0175 08       		.byte	8
 1932 0176 01       		.byte	1
 1933 0177 03       		.byte	3
 1934 0178 8000     		.short	128
 1935 017a 4000     		.short	64
 1936              		.type	u8x8_d_st7565_lm6059_init_seq, %object
 1937              		.size	u8x8_d_st7565_lm6059_init_seq, 33
 1938              	u8x8_d_st7565_lm6059_init_seq:
 1939 017c 18       		.byte	24
 1940 017d 15       		.byte	21
 1941 017e E2       		.byte	-30
 1942 017f 15       		.byte	21
 1943 0180 AE       		.byte	-82
 1944 0181 15       		.byte	21
 1945 0182 60       		.byte	96
 1946 0183 15       		.byte	21
 1947 0184 A0       		.byte	-96
 1948 0185 15       		.byte	21
 1949 0186 C8       		.byte	-56
 1950 0187 15       		.byte	21
 1951 0188 A6       		.byte	-90
 1952 0189 15       		.byte	21
 1953 018a A3       		.byte	-93
 1954 018b 15       		.byte	21
 1955 018c 2F       		.byte	47
ARM GAS  C:\Users\brian\AppData\Local\Temp\cc1Lhyrd.s 			page 60


 1956 018d 15       		.byte	21
 1957 018e F8       		.byte	-8
 1958 018f 16       		.byte	22
 1959 0190 00       		.byte	0
 1960 0191 15       		.byte	21
 1961 0192 27       		.byte	39
 1962 0193 15       		.byte	21
 1963 0194 81       		.byte	-127
 1964 0195 16       		.byte	22
 1965 0196 18       		.byte	24
 1966 0197 15       		.byte	21
 1967 0198 AE       		.byte	-82
 1968 0199 15       		.byte	21
 1969 019a A5       		.byte	-91
 1970 019b 19       		.byte	25
 1971 019c FF       		.byte	-1
 1972 019d 000000   		.space	3
 1973              		.type	u8x8_d_st7565_ks0713_init_seq, %object
 1974              		.size	u8x8_d_st7565_ks0713_init_seq, 25
 1975              	u8x8_d_st7565_ks0713_init_seq:
 1976 01a0 18       		.byte	24
 1977 01a1 15       		.byte	21
 1978 01a2 AE       		.byte	-82
 1979 01a3 15       		.byte	21
 1980 01a4 E2       		.byte	-30
 1981 01a5 15       		.byte	21
 1982 01a6 A3       		.byte	-93
 1983 01a7 15       		.byte	21
 1984 01a8 A0       		.byte	-96
 1985 01a9 15       		.byte	21
 1986 01aa C0       		.byte	-64
 1987 01ab 15       		.byte	21
 1988 01ac 2F       		.byte	47
 1989 01ad 15       		.byte	21
 1990 01ae 26       		.byte	38
 1991 01af 15       		.byte	21
 1992 01b0 A6       		.byte	-90
 1993 01b1 15       		.byte	21
 1994 01b2 81       		.byte	-127
 1995 01b3 16       		.byte	22
 1996 01b4 10       		.byte	16
 1997 01b5 15       		.byte	21
 1998 01b6 AF       		.byte	-81
 1999 01b7 19       		.byte	25
 2000 01b8 FF       		.byte	-1
 2001 01b9 000000   		.space	3
 2002              		.type	u8x8_st7565_lx12864_display_info, %object
 2003              		.size	u8x8_st7565_lx12864_display_info, 24
 2004              	u8x8_st7565_lx12864_display_info:
 2005 01bc 00       		.byte	0
 2006 01bd 01       		.byte	1
 2007 01be 96       		.byte	-106
 2008 01bf 32       		.byte	50
 2009 01c0 01       		.byte	1
 2010 01c1 01       		.byte	1
 2011 01c2 32       		.byte	50
 2012 01c3 78       		.byte	120
ARM GAS  C:\Users\brian\AppData\Local\Temp\cc1Lhyrd.s 			page 61


 2013 01c4 00093D00 		.word	4000000
 2014 01c8 00       		.byte	0
 2015 01c9 04       		.byte	4
 2016 01ca 28       		.byte	40
 2017 01cb 50       		.byte	80
 2018 01cc 10       		.byte	16
 2019 01cd 08       		.byte	8
 2020 01ce 01       		.byte	1
 2021 01cf 03       		.byte	3
 2022 01d0 8000     		.short	128
 2023 01d2 4000     		.short	64
 2024              		.type	u8x8_d_st7565_lx12864_init_seq, %object
 2025              		.size	u8x8_d_st7565_lx12864_init_seq, 33
 2026              	u8x8_d_st7565_lx12864_init_seq:
 2027 01d4 18       		.byte	24
 2028 01d5 15       		.byte	21
 2029 01d6 E2       		.byte	-30
 2030 01d7 15       		.byte	21
 2031 01d8 AE       		.byte	-82
 2032 01d9 15       		.byte	21
 2033 01da 60       		.byte	96
 2034 01db 15       		.byte	21
 2035 01dc A0       		.byte	-96
 2036 01dd 15       		.byte	21
 2037 01de C8       		.byte	-56
 2038 01df 15       		.byte	21
 2039 01e0 A6       		.byte	-90
 2040 01e1 15       		.byte	21
 2041 01e2 A2       		.byte	-94
 2042 01e3 15       		.byte	21
 2043 01e4 2F       		.byte	47
 2044 01e5 15       		.byte	21
 2045 01e6 F8       		.byte	-8
 2046 01e7 16       		.byte	22
 2047 01e8 00       		.byte	0
 2048 01e9 15       		.byte	21
 2049 01ea 27       		.byte	39
 2050 01eb 15       		.byte	21
 2051 01ec 81       		.byte	-127
 2052 01ed 16       		.byte	22
 2053 01ee 08       		.byte	8
 2054 01ef 15       		.byte	21
 2055 01f0 AE       		.byte	-82
 2056 01f1 15       		.byte	21
 2057 01f2 A5       		.byte	-91
 2058 01f3 19       		.byte	25
 2059 01f4 FF       		.byte	-1
 2060 01f5 000000   		.space	3
 2061              		.type	u8x8_st7565_erc12864_display_info, %object
 2062              		.size	u8x8_st7565_erc12864_display_info, 24
 2063              	u8x8_st7565_erc12864_display_info:
 2064 01f8 00       		.byte	0
 2065 01f9 01       		.byte	1
 2066 01fa 96       		.byte	-106
 2067 01fb 32       		.byte	50
 2068 01fc 01       		.byte	1
 2069 01fd 01       		.byte	1
ARM GAS  C:\Users\brian\AppData\Local\Temp\cc1Lhyrd.s 			page 62


 2070 01fe 32       		.byte	50
 2071 01ff 78       		.byte	120
 2072 0200 00093D00 		.word	4000000
 2073 0204 00       		.byte	0
 2074 0205 04       		.byte	4
 2075 0206 28       		.byte	40
 2076 0207 50       		.byte	80
 2077 0208 10       		.byte	16
 2078 0209 08       		.byte	8
 2079 020a 00       		.byte	0
 2080 020b 04       		.byte	4
 2081 020c 8000     		.short	128
 2082 020e 4000     		.short	64
 2083              		.type	u8x8_d_st7565_erc12864_init_seq, %object
 2084              		.size	u8x8_d_st7565_erc12864_init_seq, 33
 2085              	u8x8_d_st7565_erc12864_init_seq:
 2086 0210 18       		.byte	24
 2087 0211 15       		.byte	21
 2088 0212 E2       		.byte	-30
 2089 0213 15       		.byte	21
 2090 0214 AE       		.byte	-82
 2091 0215 15       		.byte	21
 2092 0216 40       		.byte	64
 2093 0217 15       		.byte	21
 2094 0218 A0       		.byte	-96
 2095 0219 15       		.byte	21
 2096 021a C8       		.byte	-56
 2097 021b 15       		.byte	21
 2098 021c A6       		.byte	-90
 2099 021d 15       		.byte	21
 2100 021e A3       		.byte	-93
 2101 021f 15       		.byte	21
 2102 0220 2F       		.byte	47
 2103 0221 15       		.byte	21
 2104 0222 F8       		.byte	-8
 2105 0223 16       		.byte	22
 2106 0224 00       		.byte	0
 2107 0225 15       		.byte	21
 2108 0226 27       		.byte	39
 2109 0227 15       		.byte	21
 2110 0228 81       		.byte	-127
 2111 0229 16       		.byte	22
 2112 022a 18       		.byte	24
 2113 022b 15       		.byte	21
 2114 022c AE       		.byte	-82
 2115 022d 15       		.byte	21
 2116 022e A5       		.byte	-91
 2117 022f 19       		.byte	25
 2118 0230 FF       		.byte	-1
 2119 0231 000000   		.space	3
 2120              		.type	u8x8_d_st7565_erc12864_alt_init_seq, %object
 2121              		.size	u8x8_d_st7565_erc12864_alt_init_seq, 33
 2122              	u8x8_d_st7565_erc12864_alt_init_seq:
 2123 0234 18       		.byte	24
 2124 0235 15       		.byte	21
 2125 0236 E2       		.byte	-30
 2126 0237 15       		.byte	21
ARM GAS  C:\Users\brian\AppData\Local\Temp\cc1Lhyrd.s 			page 63


 2127 0238 AE       		.byte	-82
 2128 0239 15       		.byte	21
 2129 023a 40       		.byte	64
 2130 023b 15       		.byte	21
 2131 023c A0       		.byte	-96
 2132 023d 15       		.byte	21
 2133 023e C8       		.byte	-56
 2134 023f 15       		.byte	21
 2135 0240 A6       		.byte	-90
 2136 0241 15       		.byte	21
 2137 0242 A2       		.byte	-94
 2138 0243 15       		.byte	21
 2139 0244 2F       		.byte	47
 2140 0245 15       		.byte	21
 2141 0246 F8       		.byte	-8
 2142 0247 16       		.byte	22
 2143 0248 00       		.byte	0
 2144 0249 15       		.byte	21
 2145 024a 27       		.byte	39
 2146 024b 15       		.byte	21
 2147 024c 81       		.byte	-127
 2148 024d 16       		.byte	22
 2149 024e 05       		.byte	5
 2150 024f 15       		.byte	21
 2151 0250 AE       		.byte	-82
 2152 0251 15       		.byte	21
 2153 0252 A5       		.byte	-91
 2154 0253 19       		.byte	25
 2155 0254 FF       		.byte	-1
 2156 0255 000000   		.space	3
 2157              		.type	u8x8_d_nt7534_tg12864r_init_seq, %object
 2158              		.size	u8x8_d_nt7534_tg12864r_init_seq, 29
 2159              	u8x8_d_nt7534_tg12864r_init_seq:
 2160 0258 18       		.byte	24
 2161 0259 15       		.byte	21
 2162 025a E2       		.byte	-30
 2163 025b 15       		.byte	21
 2164 025c AE       		.byte	-82
 2165 025d 15       		.byte	21
 2166 025e 60       		.byte	96
 2167 025f 15       		.byte	21
 2168 0260 A0       		.byte	-96
 2169 0261 15       		.byte	21
 2170 0262 C8       		.byte	-56
 2171 0263 15       		.byte	21
 2172 0264 A6       		.byte	-90
 2173 0265 15       		.byte	21
 2174 0266 A3       		.byte	-93
 2175 0267 15       		.byte	21
 2176 0268 2F       		.byte	47
 2177 0269 15       		.byte	21
 2178 026a 27       		.byte	39
 2179 026b 15       		.byte	21
 2180 026c 81       		.byte	-127
 2181 026d 16       		.byte	22
 2182 026e 09       		.byte	9
 2183 026f 15       		.byte	21
ARM GAS  C:\Users\brian\AppData\Local\Temp\cc1Lhyrd.s 			page 64


 2184 0270 AE       		.byte	-82
 2185 0271 15       		.byte	21
 2186 0272 A5       		.byte	-91
 2187 0273 19       		.byte	25
 2188 0274 FF       		.byte	-1
 2189 0275 000000   		.space	3
 2190              		.type	u8x8_st7565_dogm132_display_info, %object
 2191              		.size	u8x8_st7565_dogm132_display_info, 24
 2192              	u8x8_st7565_dogm132_display_info:
 2193 0278 00       		.byte	0
 2194 0279 01       		.byte	1
 2195 027a 96       		.byte	-106
 2196 027b 32       		.byte	50
 2197 027c 01       		.byte	1
 2198 027d 01       		.byte	1
 2199 027e 32       		.byte	50
 2200 027f 78       		.byte	120
 2201 0280 00093D00 		.word	4000000
 2202 0284 00       		.byte	0
 2203 0285 04       		.byte	4
 2204 0286 28       		.byte	40
 2205 0287 50       		.byte	80
 2206 0288 11       		.byte	17
 2207 0289 04       		.byte	4
 2208 028a 00       		.byte	0
 2209 028b 00       		.byte	0
 2210 028c 8400     		.short	132
 2211 028e 2000     		.short	32
 2212              		.type	u8x8_d_st7565_dogm132_init_seq, %object
 2213              		.size	u8x8_d_st7565_dogm132_init_seq, 33
 2214              	u8x8_d_st7565_dogm132_init_seq:
 2215 0290 18       		.byte	24
 2216 0291 15       		.byte	21
 2217 0292 E2       		.byte	-30
 2218 0293 15       		.byte	21
 2219 0294 AE       		.byte	-82
 2220 0295 15       		.byte	21
 2221 0296 40       		.byte	64
 2222 0297 15       		.byte	21
 2223 0298 A1       		.byte	-95
 2224 0299 15       		.byte	21
 2225 029a C0       		.byte	-64
 2226 029b 15       		.byte	21
 2227 029c A6       		.byte	-90
 2228 029d 15       		.byte	21
 2229 029e A2       		.byte	-94
 2230 029f 15       		.byte	21
 2231 02a0 2F       		.byte	47
 2232 02a1 15       		.byte	21
 2233 02a2 F8       		.byte	-8
 2234 02a3 16       		.byte	22
 2235 02a4 00       		.byte	0
 2236 02a5 15       		.byte	21
 2237 02a6 23       		.byte	35
 2238 02a7 15       		.byte	21
 2239 02a8 81       		.byte	-127
 2240 02a9 16       		.byte	22
ARM GAS  C:\Users\brian\AppData\Local\Temp\cc1Lhyrd.s 			page 65


 2241 02aa 1F       		.byte	31
 2242 02ab 15       		.byte	21
 2243 02ac AE       		.byte	-82
 2244 02ad 15       		.byte	21
 2245 02ae A5       		.byte	-91
 2246 02af 19       		.byte	25
 2247 02b0 FF       		.byte	-1
 2248              		.text
 2249              	.Letext0:
 2250              		.file 2 "c:\\program files (x86)\\cypress\\psoc creator\\4.4\\psoc creator\\import\\gnu\\arm\\5.4.
 2251              		.file 3 "c:\\program files (x86)\\cypress\\psoc creator\\4.4\\psoc creator\\import\\gnu\\arm\\5.4.
 2252              		.file 4 "..\\u8g2\\csrc\\u8x8.h"
 2253              		.section	.debug_info,"",%progbits
 2254              	.Ldebug_info0:
 2255 0000 AD150000 		.4byte	0x15ad
 2256 0004 0400     		.2byte	0x4
 2257 0006 00000000 		.4byte	.Ldebug_abbrev0
 2258 000a 04       		.byte	0x4
 2259 000b 01       		.uleb128 0x1
 2260 000c 4E060000 		.4byte	.LASF119
 2261 0010 0C       		.byte	0xc
 2262 0011 9C090000 		.4byte	.LASF120
 2263 0015 78050000 		.4byte	.LASF121
 2264 0019 00000000 		.4byte	.Ldebug_ranges0+0
 2265 001d 00000000 		.4byte	0
 2266 0021 00000000 		.4byte	.Ldebug_line0
 2267 0025 02       		.uleb128 0x2
 2268 0026 01       		.byte	0x1
 2269 0027 06       		.byte	0x6
 2270 0028 0E010000 		.4byte	.LASF0
 2271 002c 03       		.uleb128 0x3
 2272 002d 2E000000 		.4byte	.LASF3
 2273 0031 02       		.byte	0x2
 2274 0032 1D       		.byte	0x1d
 2275 0033 37000000 		.4byte	0x37
 2276 0037 02       		.uleb128 0x2
 2277 0038 01       		.byte	0x1
 2278 0039 08       		.byte	0x8
 2279 003a EF050000 		.4byte	.LASF1
 2280 003e 02       		.uleb128 0x2
 2281 003f 02       		.byte	0x2
 2282 0040 05       		.byte	0x5
 2283 0041 1F060000 		.4byte	.LASF2
 2284 0045 03       		.uleb128 0x3
 2285 0046 7A070000 		.4byte	.LASF4
 2286 004a 02       		.byte	0x2
 2287 004b 2B       		.byte	0x2b
 2288 004c 50000000 		.4byte	0x50
 2289 0050 02       		.uleb128 0x2
 2290 0051 02       		.byte	0x2
 2291 0052 07       		.byte	0x7
 2292 0053 B4030000 		.4byte	.LASF5
 2293 0057 02       		.uleb128 0x2
 2294 0058 04       		.byte	0x4
 2295 0059 05       		.byte	0x5
 2296 005a A5010000 		.4byte	.LASF6
 2297 005e 03       		.uleb128 0x3
ARM GAS  C:\Users\brian\AppData\Local\Temp\cc1Lhyrd.s 			page 66


 2298 005f 41020000 		.4byte	.LASF7
 2299 0063 02       		.byte	0x2
 2300 0064 41       		.byte	0x41
 2301 0065 69000000 		.4byte	0x69
 2302 0069 02       		.uleb128 0x2
 2303 006a 04       		.byte	0x4
 2304 006b 07       		.byte	0x7
 2305 006c E1020000 		.4byte	.LASF8
 2306 0070 02       		.uleb128 0x2
 2307 0071 08       		.byte	0x8
 2308 0072 05       		.byte	0x5
 2309 0073 00010000 		.4byte	.LASF9
 2310 0077 02       		.uleb128 0x2
 2311 0078 08       		.byte	0x8
 2312 0079 07       		.byte	0x7
 2313 007a 70000000 		.4byte	.LASF10
 2314 007e 04       		.uleb128 0x4
 2315 007f 04       		.byte	0x4
 2316 0080 05       		.byte	0x5
 2317 0081 696E7400 		.ascii	"int\000"
 2318 0085 02       		.uleb128 0x2
 2319 0086 04       		.byte	0x4
 2320 0087 07       		.byte	0x7
 2321 0088 C0020000 		.4byte	.LASF11
 2322 008c 03       		.uleb128 0x3
 2323 008d 46080000 		.4byte	.LASF12
 2324 0091 03       		.byte	0x3
 2325 0092 18       		.byte	0x18
 2326 0093 2C000000 		.4byte	0x2c
 2327 0097 03       		.uleb128 0x3
 2328 0098 C4010000 		.4byte	.LASF13
 2329 009c 03       		.byte	0x3
 2330 009d 24       		.byte	0x24
 2331 009e 45000000 		.4byte	0x45
 2332 00a2 03       		.uleb128 0x3
 2333 00a3 1B070000 		.4byte	.LASF14
 2334 00a7 03       		.byte	0x3
 2335 00a8 30       		.byte	0x30
 2336 00a9 5E000000 		.4byte	0x5e
 2337 00ad 05       		.uleb128 0x5
 2338 00ae 04       		.byte	0x4
 2339 00af 02       		.uleb128 0x2
 2340 00b0 08       		.byte	0x8
 2341 00b1 04       		.byte	0x4
 2342 00b2 E0040000 		.4byte	.LASF15
 2343 00b6 03       		.uleb128 0x3
 2344 00b7 CA070000 		.4byte	.LASF16
 2345 00bb 04       		.byte	0x4
 2346 00bc CD       		.byte	0xcd
 2347 00bd C1000000 		.4byte	0xc1
 2348 00c1 06       		.uleb128 0x6
 2349 00c2 55040000 		.4byte	.LASF37
 2350 00c6 2C       		.byte	0x2c
 2351 00c7 04       		.byte	0x4
 2352 00c8 5001     		.2byte	0x150
 2353 00ca C6010000 		.4byte	0x1c6
 2354 00ce 07       		.uleb128 0x7
ARM GAS  C:\Users\brian\AppData\Local\Temp\cc1Lhyrd.s 			page 67


 2355 00cf 35040000 		.4byte	.LASF17
 2356 00d3 04       		.byte	0x4
 2357 00d4 5201     		.2byte	0x152
 2358 00d6 74030000 		.4byte	0x374
 2359 00da 00       		.byte	0
 2360 00db 07       		.uleb128 0x7
 2361 00dc CD010000 		.4byte	.LASF18
 2362 00e0 04       		.byte	0x4
 2363 00e1 5301     		.2byte	0x153
 2364 00e3 49030000 		.4byte	0x349
 2365 00e7 04       		.byte	0x4
 2366 00e8 07       		.uleb128 0x7
 2367 00e9 2F010000 		.4byte	.LASF19
 2368 00ed 04       		.byte	0x4
 2369 00ee 5401     		.2byte	0x154
 2370 00f0 14030000 		.4byte	0x314
 2371 00f4 08       		.byte	0x8
 2372 00f5 07       		.uleb128 0x7
 2373 00f6 EC040000 		.4byte	.LASF20
 2374 00fa 04       		.byte	0x4
 2375 00fb 5501     		.2byte	0x155
 2376 00fd 14030000 		.4byte	0x314
 2377 0101 0C       		.byte	0xc
 2378 0102 07       		.uleb128 0x7
 2379 0103 38000000 		.4byte	.LASF21
 2380 0107 04       		.byte	0x4
 2381 0108 5601     		.2byte	0x156
 2382 010a 14030000 		.4byte	0x314
 2383 010e 10       		.byte	0x10
 2384 010f 07       		.uleb128 0x7
 2385 0110 E2010000 		.4byte	.LASF22
 2386 0114 04       		.byte	0x4
 2387 0115 5701     		.2byte	0x157
 2388 0117 14030000 		.4byte	0x314
 2389 011b 14       		.byte	0x14
 2390 011c 07       		.uleb128 0x7
 2391 011d D1070000 		.4byte	.LASF23
 2392 0121 04       		.byte	0x4
 2393 0122 5801     		.2byte	0x158
 2394 0124 A2000000 		.4byte	0xa2
 2395 0128 18       		.byte	0x18
 2396 0129 07       		.uleb128 0x7
 2397 012a 05080000 		.4byte	.LASF24
 2398 012e 04       		.byte	0x4
 2399 012f 5901     		.2byte	0x159
 2400 0131 7F030000 		.4byte	0x37f
 2401 0135 1C       		.byte	0x1c
 2402 0136 07       		.uleb128 0x7
 2403 0137 8F040000 		.4byte	.LASF25
 2404 013b 04       		.byte	0x4
 2405 013c 5A01     		.2byte	0x15a
 2406 013e 97000000 		.4byte	0x97
 2407 0142 20       		.byte	0x20
 2408 0143 07       		.uleb128 0x7
 2409 0144 26050000 		.4byte	.LASF26
 2410 0148 04       		.byte	0x4
 2411 0149 5B01     		.2byte	0x15b
ARM GAS  C:\Users\brian\AppData\Local\Temp\cc1Lhyrd.s 			page 68


 2412 014b 8C000000 		.4byte	0x8c
 2413 014f 22       		.byte	0x22
 2414 0150 07       		.uleb128 0x7
 2415 0151 1A010000 		.4byte	.LASF27
 2416 0155 04       		.byte	0x4
 2417 0156 5C01     		.2byte	0x15c
 2418 0158 8C000000 		.4byte	0x8c
 2419 015c 23       		.byte	0x23
 2420 015d 07       		.uleb128 0x7
 2421 015e D5020000 		.4byte	.LASF28
 2422 0162 04       		.byte	0x4
 2423 0163 5D01     		.2byte	0x15d
 2424 0165 8C000000 		.4byte	0x8c
 2425 0169 24       		.byte	0x24
 2426 016a 07       		.uleb128 0x7
 2427 016b 4E080000 		.4byte	.LASF29
 2428 016f 04       		.byte	0x4
 2429 0170 6001     		.2byte	0x160
 2430 0172 8C000000 		.4byte	0x8c
 2431 0176 25       		.byte	0x25
 2432 0177 07       		.uleb128 0x7
 2433 0178 D1000000 		.4byte	.LASF30
 2434 017c 04       		.byte	0x4
 2435 017d 6201     		.2byte	0x162
 2436 017f 8C000000 		.4byte	0x8c
 2437 0183 26       		.byte	0x26
 2438 0184 07       		.uleb128 0x7
 2439 0185 F4000000 		.4byte	.LASF31
 2440 0189 04       		.byte	0x4
 2441 018a 6301     		.2byte	0x163
 2442 018c 8C000000 		.4byte	0x8c
 2443 0190 27       		.byte	0x27
 2444 0191 07       		.uleb128 0x7
 2445 0192 CB080000 		.4byte	.LASF32
 2446 0196 04       		.byte	0x4
 2447 0197 6401     		.2byte	0x164
 2448 0199 8C000000 		.4byte	0x8c
 2449 019d 28       		.byte	0x28
 2450 019e 07       		.uleb128 0x7
 2451 019f 1D040000 		.4byte	.LASF33
 2452 01a3 04       		.byte	0x4
 2453 01a4 6501     		.2byte	0x165
 2454 01a6 8C000000 		.4byte	0x8c
 2455 01aa 29       		.byte	0x29
 2456 01ab 07       		.uleb128 0x7
 2457 01ac DB070000 		.4byte	.LASF34
 2458 01b0 04       		.byte	0x4
 2459 01b1 6601     		.2byte	0x166
 2460 01b3 8C000000 		.4byte	0x8c
 2461 01b7 2A       		.byte	0x2a
 2462 01b8 07       		.uleb128 0x7
 2463 01b9 AC020000 		.4byte	.LASF35
 2464 01bd 04       		.byte	0x4
 2465 01be 6701     		.2byte	0x167
 2466 01c0 8C000000 		.4byte	0x8c
 2467 01c4 2B       		.byte	0x2b
 2468 01c5 00       		.byte	0
ARM GAS  C:\Users\brian\AppData\Local\Temp\cc1Lhyrd.s 			page 69


 2469 01c6 03       		.uleb128 0x3
 2470 01c7 2D020000 		.4byte	.LASF36
 2471 01cb 04       		.byte	0x4
 2472 01cc CE       		.byte	0xce
 2473 01cd D1010000 		.4byte	0x1d1
 2474 01d1 08       		.uleb128 0x8
 2475 01d2 1C090000 		.4byte	.LASF38
 2476 01d6 18       		.byte	0x18
 2477 01d7 04       		.byte	0x4
 2478 01d8 E7       		.byte	0xe7
 2479 01d9 CC020000 		.4byte	0x2cc
 2480 01dd 09       		.uleb128 0x9
 2481 01de 5F070000 		.4byte	.LASF39
 2482 01e2 04       		.byte	0x4
 2483 01e3 EB       		.byte	0xeb
 2484 01e4 8C000000 		.4byte	0x8c
 2485 01e8 00       		.byte	0
 2486 01e9 09       		.uleb128 0x9
 2487 01ea F2070000 		.4byte	.LASF40
 2488 01ee 04       		.byte	0x4
 2489 01ef EC       		.byte	0xec
 2490 01f0 8C000000 		.4byte	0x8c
 2491 01f4 01       		.byte	0x1
 2492 01f5 09       		.uleb128 0x9
 2493 01f6 9A070000 		.4byte	.LASF41
 2494 01fa 04       		.byte	0x4
 2495 01fb EE       		.byte	0xee
 2496 01fc 8C000000 		.4byte	0x8c
 2497 0200 02       		.byte	0x2
 2498 0201 09       		.uleb128 0x9
 2499 0202 5A010000 		.4byte	.LASF42
 2500 0206 04       		.byte	0x4
 2501 0207 EF       		.byte	0xef
 2502 0208 8C000000 		.4byte	0x8c
 2503 020c 03       		.byte	0x3
 2504 020d 09       		.uleb128 0x9
 2505 020e 19000000 		.4byte	.LASF43
 2506 0212 04       		.byte	0x4
 2507 0213 F0       		.byte	0xf0
 2508 0214 8C000000 		.4byte	0x8c
 2509 0218 04       		.byte	0x4
 2510 0219 09       		.uleb128 0x9
 2511 021a BE000000 		.4byte	.LASF44
 2512 021e 04       		.byte	0x4
 2513 021f F1       		.byte	0xf1
 2514 0220 8C000000 		.4byte	0x8c
 2515 0224 05       		.byte	0x5
 2516 0225 09       		.uleb128 0x9
 2517 0226 65020000 		.4byte	.LASF45
 2518 022a 04       		.byte	0x4
 2519 022b F8       		.byte	0xf8
 2520 022c 8C000000 		.4byte	0x8c
 2521 0230 06       		.byte	0x6
 2522 0231 09       		.uleb128 0x9
 2523 0232 42040000 		.4byte	.LASF46
 2524 0236 04       		.byte	0x4
 2525 0237 FC       		.byte	0xfc
ARM GAS  C:\Users\brian\AppData\Local\Temp\cc1Lhyrd.s 			page 70


 2526 0238 8C000000 		.4byte	0x8c
 2527 023c 07       		.byte	0x7
 2528 023d 09       		.uleb128 0x9
 2529 023e C6090000 		.4byte	.LASF47
 2530 0242 04       		.byte	0x4
 2531 0243 FF       		.byte	0xff
 2532 0244 A2000000 		.4byte	0xa2
 2533 0248 08       		.byte	0x8
 2534 0249 07       		.uleb128 0x7
 2535 024a 56070000 		.4byte	.LASF48
 2536 024e 04       		.byte	0x4
 2537 024f 0901     		.2byte	0x109
 2538 0251 8C000000 		.4byte	0x8c
 2539 0255 0C       		.byte	0xc
 2540 0256 07       		.uleb128 0x7
 2541 0257 06070000 		.4byte	.LASF49
 2542 025b 04       		.byte	0x4
 2543 025c 0C01     		.2byte	0x10c
 2544 025e 8C000000 		.4byte	0x8c
 2545 0262 0D       		.byte	0xd
 2546 0263 07       		.uleb128 0x7
 2547 0264 F3060000 		.4byte	.LASF50
 2548 0268 04       		.byte	0x4
 2549 0269 1201     		.2byte	0x112
 2550 026b 8C000000 		.4byte	0x8c
 2551 026f 0E       		.byte	0xe
 2552 0270 07       		.uleb128 0x7
 2553 0271 F3040000 		.4byte	.LASF51
 2554 0275 04       		.byte	0x4
 2555 0276 1401     		.2byte	0x114
 2556 0278 8C000000 		.4byte	0x8c
 2557 027c 0F       		.byte	0xf
 2558 027d 07       		.uleb128 0x7
 2559 027e C0080000 		.4byte	.LASF52
 2560 0282 04       		.byte	0x4
 2561 0283 1701     		.2byte	0x117
 2562 0285 8C000000 		.4byte	0x8c
 2563 0289 10       		.byte	0x10
 2564 028a 07       		.uleb128 0x7
 2565 028b 6C050000 		.4byte	.LASF53
 2566 028f 04       		.byte	0x4
 2567 0290 1801     		.2byte	0x118
 2568 0292 8C000000 		.4byte	0x8c
 2569 0296 11       		.byte	0x11
 2570 0297 07       		.uleb128 0x7
 2571 0298 7E040000 		.4byte	.LASF54
 2572 029c 04       		.byte	0x4
 2573 029d 1A01     		.2byte	0x11a
 2574 029f 8C000000 		.4byte	0x8c
 2575 02a3 12       		.byte	0x12
 2576 02a4 07       		.uleb128 0x7
 2577 02a5 AD040000 		.4byte	.LASF55
 2578 02a9 04       		.byte	0x4
 2579 02aa 1B01     		.2byte	0x11b
 2580 02ac 8C000000 		.4byte	0x8c
 2581 02b0 13       		.byte	0x13
 2582 02b1 07       		.uleb128 0x7
ARM GAS  C:\Users\brian\AppData\Local\Temp\cc1Lhyrd.s 			page 71


 2583 02b2 73080000 		.4byte	.LASF56
 2584 02b6 04       		.byte	0x4
 2585 02b7 2301     		.2byte	0x123
 2586 02b9 97000000 		.4byte	0x97
 2587 02bd 14       		.byte	0x14
 2588 02be 07       		.uleb128 0x7
 2589 02bf B9090000 		.4byte	.LASF57
 2590 02c3 04       		.byte	0x4
 2591 02c4 2401     		.2byte	0x124
 2592 02c6 97000000 		.4byte	0x97
 2593 02ca 16       		.byte	0x16
 2594 02cb 00       		.byte	0
 2595 02cc 03       		.uleb128 0x3
 2596 02cd A0020000 		.4byte	.LASF58
 2597 02d1 04       		.byte	0x4
 2598 02d2 CF       		.byte	0xcf
 2599 02d3 D7020000 		.4byte	0x2d7
 2600 02d7 08       		.uleb128 0x8
 2601 02d8 5F000000 		.4byte	.LASF59
 2602 02dc 08       		.byte	0x8
 2603 02dd 04       		.byte	0x4
 2604 02de DE       		.byte	0xde
 2605 02df 14030000 		.4byte	0x314
 2606 02e3 09       		.uleb128 0x9
 2607 02e4 71070000 		.4byte	.LASF60
 2608 02e8 04       		.byte	0x4
 2609 02e9 E0       		.byte	0xe0
 2610 02ea 6E030000 		.4byte	0x36e
 2611 02ee 00       		.byte	0
 2612 02ef 0A       		.uleb128 0xa
 2613 02f0 636E7400 		.ascii	"cnt\000"
 2614 02f4 04       		.byte	0x4
 2615 02f5 E1       		.byte	0xe1
 2616 02f6 8C000000 		.4byte	0x8c
 2617 02fa 04       		.byte	0x4
 2618 02fb 09       		.uleb128 0x9
 2619 02fc 9A020000 		.4byte	.LASF61
 2620 0300 04       		.byte	0x4
 2621 0301 E2       		.byte	0xe2
 2622 0302 8C000000 		.4byte	0x8c
 2623 0306 05       		.byte	0x5
 2624 0307 09       		.uleb128 0x9
 2625 0308 E6080000 		.4byte	.LASF62
 2626 030c 04       		.byte	0x4
 2627 030d E3       		.byte	0xe3
 2628 030e 8C000000 		.4byte	0x8c
 2629 0312 06       		.byte	0x6
 2630 0313 00       		.byte	0
 2631 0314 03       		.uleb128 0x3
 2632 0315 CC050000 		.4byte	.LASF63
 2633 0319 04       		.byte	0x4
 2634 031a D1       		.byte	0xd1
 2635 031b 1F030000 		.4byte	0x31f
 2636 031f 0B       		.uleb128 0xb
 2637 0320 04       		.byte	0x4
 2638 0321 25030000 		.4byte	0x325
 2639 0325 0C       		.uleb128 0xc
ARM GAS  C:\Users\brian\AppData\Local\Temp\cc1Lhyrd.s 			page 72


 2640 0326 8C000000 		.4byte	0x8c
 2641 032a 43030000 		.4byte	0x343
 2642 032e 0D       		.uleb128 0xd
 2643 032f 43030000 		.4byte	0x343
 2644 0333 0D       		.uleb128 0xd
 2645 0334 8C000000 		.4byte	0x8c
 2646 0338 0D       		.uleb128 0xd
 2647 0339 8C000000 		.4byte	0x8c
 2648 033d 0D       		.uleb128 0xd
 2649 033e AD000000 		.4byte	0xad
 2650 0342 00       		.byte	0
 2651 0343 0B       		.uleb128 0xb
 2652 0344 04       		.byte	0x4
 2653 0345 B6000000 		.4byte	0xb6
 2654 0349 03       		.uleb128 0x3
 2655 034a D5010000 		.4byte	.LASF64
 2656 034e 04       		.byte	0x4
 2657 034f D2       		.byte	0xd2
 2658 0350 54030000 		.4byte	0x354
 2659 0354 0B       		.uleb128 0xb
 2660 0355 04       		.byte	0x4
 2661 0356 5A030000 		.4byte	0x35a
 2662 035a 0C       		.uleb128 0xc
 2663 035b 97000000 		.4byte	0x97
 2664 035f 6E030000 		.4byte	0x36e
 2665 0363 0D       		.uleb128 0xd
 2666 0364 43030000 		.4byte	0x343
 2667 0368 0D       		.uleb128 0xd
 2668 0369 8C000000 		.4byte	0x8c
 2669 036d 00       		.byte	0
 2670 036e 0B       		.uleb128 0xb
 2671 036f 04       		.byte	0x4
 2672 0370 8C000000 		.4byte	0x8c
 2673 0374 0B       		.uleb128 0xb
 2674 0375 04       		.byte	0x4
 2675 0376 7A030000 		.4byte	0x37a
 2676 037a 0E       		.uleb128 0xe
 2677 037b C6010000 		.4byte	0x1c6
 2678 037f 0B       		.uleb128 0xb
 2679 0380 04       		.byte	0x4
 2680 0381 85030000 		.4byte	0x385
 2681 0385 0E       		.uleb128 0xe
 2682 0386 8C000000 		.4byte	0x8c
 2683 038a 0F       		.uleb128 0xf
 2684 038b 73010000 		.4byte	.LASF68
 2685 038f 01       		.byte	0x1
 2686 0390 73       		.byte	0x73
 2687 0391 8C000000 		.4byte	0x8c
 2688 0395 00000000 		.4byte	.LFB0
 2689 0399 CC000000 		.4byte	.LFE0-.LFB0
 2690 039d 01       		.uleb128 0x1
 2691 039e 9C       		.byte	0x9c
 2692 039f 11050000 		.4byte	0x511
 2693 03a3 10       		.uleb128 0x10
 2694 03a4 29060000 		.4byte	.LASF65
 2695 03a8 01       		.byte	0x1
 2696 03a9 73       		.byte	0x73
ARM GAS  C:\Users\brian\AppData\Local\Temp\cc1Lhyrd.s 			page 73


 2697 03aa 43030000 		.4byte	0x343
 2698 03ae 00000000 		.4byte	.LLST0
 2699 03b2 11       		.uleb128 0x11
 2700 03b3 6D736700 		.ascii	"msg\000"
 2701 03b7 01       		.byte	0x1
 2702 03b8 73       		.byte	0x73
 2703 03b9 8C000000 		.4byte	0x8c
 2704 03bd 84000000 		.4byte	.LLST1
 2705 03c1 10       		.uleb128 0x10
 2706 03c2 CD020000 		.4byte	.LASF66
 2707 03c6 01       		.byte	0x1
 2708 03c7 73       		.byte	0x73
 2709 03c8 8C000000 		.4byte	0x8c
 2710 03cc FB000000 		.4byte	.LLST2
 2711 03d0 10       		.uleb128 0x10
 2712 03d1 EA070000 		.4byte	.LASF67
 2713 03d5 01       		.byte	0x1
 2714 03d6 73       		.byte	0x73
 2715 03d7 AD000000 		.4byte	0xad
 2716 03db 88010000 		.4byte	.LLST3
 2717 03df 12       		.uleb128 0x12
 2718 03e0 7800     		.ascii	"x\000"
 2719 03e2 01       		.byte	0x1
 2720 03e3 75       		.byte	0x75
 2721 03e4 8C000000 		.4byte	0x8c
 2722 03e8 04020000 		.4byte	.LLST4
 2723 03ec 12       		.uleb128 0x12
 2724 03ed 6300     		.ascii	"c\000"
 2725 03ef 01       		.byte	0x1
 2726 03f0 75       		.byte	0x75
 2727 03f1 8C000000 		.4byte	0x8c
 2728 03f5 39020000 		.4byte	.LLST5
 2729 03f9 12       		.uleb128 0x12
 2730 03fa 70747200 		.ascii	"ptr\000"
 2731 03fe 01       		.byte	0x1
 2732 03ff 76       		.byte	0x76
 2733 0400 6E030000 		.4byte	0x36e
 2734 0404 7B020000 		.4byte	.LLST6
 2735 0408 13       		.uleb128 0x13
 2736 0409 1C000000 		.4byte	.LVL1
 2737 040d 50150000 		.4byte	0x1550
 2738 0411 14       		.uleb128 0x14
 2739 0412 3A000000 		.4byte	.LVL6
 2740 0416 5C150000 		.4byte	0x155c
 2741 041a 2F040000 		.4byte	0x42f
 2742 041e 15       		.uleb128 0x15
 2743 041f 01       		.uleb128 0x1
 2744 0420 50       		.byte	0x50
 2745 0421 02       		.uleb128 0x2
 2746 0422 75       		.byte	0x75
 2747 0423 00       		.sleb128 0
 2748 0424 15       		.uleb128 0x15
 2749 0425 01       		.uleb128 0x1
 2750 0426 51       		.byte	0x51
 2751 0427 06       		.uleb128 0x6
 2752 0428 78       		.byte	0x78
 2753 0429 00       		.sleb128 0
ARM GAS  C:\Users\brian\AppData\Local\Temp\cc1Lhyrd.s 			page 74


 2754 042a 34       		.byte	0x34
 2755 042b 25       		.byte	0x25
 2756 042c 40       		.byte	0x40
 2757 042d 21       		.byte	0x21
 2758 042e 00       		.byte	0
 2759 042f 14       		.uleb128 0x14
 2760 0430 44000000 		.4byte	.LVL7
 2761 0434 5C150000 		.4byte	0x155c
 2762 0438 4B040000 		.4byte	0x44b
 2763 043c 15       		.uleb128 0x15
 2764 043d 01       		.uleb128 0x1
 2765 043e 50       		.byte	0x50
 2766 043f 02       		.uleb128 0x2
 2767 0440 75       		.byte	0x75
 2768 0441 00       		.sleb128 0
 2769 0442 15       		.uleb128 0x15
 2770 0443 01       		.uleb128 0x1
 2771 0444 51       		.byte	0x51
 2772 0445 04       		.uleb128 0x4
 2773 0446 78       		.byte	0x78
 2774 0447 00       		.sleb128 0
 2775 0448 3F       		.byte	0x3f
 2776 0449 1A       		.byte	0x1a
 2777 044a 00       		.byte	0
 2778 044b 14       		.uleb128 0x14
 2779 044c 50000000 		.4byte	.LVL8
 2780 0450 5C150000 		.4byte	0x155c
 2781 0454 5F040000 		.4byte	0x45f
 2782 0458 15       		.uleb128 0x15
 2783 0459 01       		.uleb128 0x1
 2784 045a 50       		.byte	0x50
 2785 045b 02       		.uleb128 0x2
 2786 045c 75       		.byte	0x75
 2787 045d 00       		.sleb128 0
 2788 045e 00       		.byte	0
 2789 045f 14       		.uleb128 0x14
 2790 0460 70000000 		.4byte	.LVL15
 2791 0464 68150000 		.4byte	0x1568
 2792 0468 7F040000 		.4byte	0x47f
 2793 046c 15       		.uleb128 0x15
 2794 046d 01       		.uleb128 0x1
 2795 046e 50       		.byte	0x50
 2796 046f 02       		.uleb128 0x2
 2797 0470 75       		.byte	0x75
 2798 0471 00       		.sleb128 0
 2799 0472 15       		.uleb128 0x15
 2800 0473 01       		.uleb128 0x1
 2801 0474 51       		.byte	0x51
 2802 0475 02       		.uleb128 0x2
 2803 0476 76       		.byte	0x76
 2804 0477 00       		.sleb128 0
 2805 0478 15       		.uleb128 0x15
 2806 0479 01       		.uleb128 0x1
 2807 047a 52       		.byte	0x52
 2808 047b 02       		.uleb128 0x2
 2809 047c 77       		.byte	0x77
 2810 047d 00       		.sleb128 0
ARM GAS  C:\Users\brian\AppData\Local\Temp\cc1Lhyrd.s 			page 75


 2811 047e 00       		.byte	0
 2812 047f 14       		.uleb128 0x14
 2813 0480 7E000000 		.4byte	.LVL17
 2814 0484 74150000 		.4byte	0x1574
 2815 0488 93040000 		.4byte	0x493
 2816 048c 15       		.uleb128 0x15
 2817 048d 01       		.uleb128 0x1
 2818 048e 50       		.byte	0x50
 2819 048f 02       		.uleb128 0x2
 2820 0490 75       		.byte	0x75
 2821 0491 00       		.sleb128 0
 2822 0492 00       		.byte	0
 2823 0493 14       		.uleb128 0x14
 2824 0494 8C000000 		.4byte	.LVL20
 2825 0498 80150000 		.4byte	0x1580
 2826 049c AA040000 		.4byte	0x4aa
 2827 04a0 15       		.uleb128 0x15
 2828 04a1 01       		.uleb128 0x1
 2829 04a2 51       		.byte	0x51
 2830 04a3 05       		.uleb128 0x5
 2831 04a4 03       		.byte	0x3
 2832 04a5 00000000 		.4byte	.LANCHOR0
 2833 04a9 00       		.byte	0
 2834 04aa 14       		.uleb128 0x14
 2835 04ab 98000000 		.4byte	.LVL23
 2836 04af 80150000 		.4byte	0x1580
 2837 04b3 C1040000 		.4byte	0x4c1
 2838 04b7 15       		.uleb128 0x15
 2839 04b8 01       		.uleb128 0x1
 2840 04b9 51       		.byte	0x51
 2841 04ba 05       		.uleb128 0x5
 2842 04bb 03       		.byte	0x3
 2843 04bc 08000000 		.4byte	.LANCHOR0+8
 2844 04c0 00       		.byte	0
 2845 04c1 13       		.uleb128 0x13
 2846 04c2 A2000000 		.4byte	.LVL25
 2847 04c6 50150000 		.4byte	0x1550
 2848 04ca 14       		.uleb128 0x14
 2849 04cb AA000000 		.4byte	.LVL26
 2850 04cf 5C150000 		.4byte	0x155c
 2851 04d3 E4040000 		.4byte	0x4e4
 2852 04d7 15       		.uleb128 0x15
 2853 04d8 01       		.uleb128 0x1
 2854 04d9 50       		.byte	0x50
 2855 04da 02       		.uleb128 0x2
 2856 04db 75       		.byte	0x75
 2857 04dc 00       		.sleb128 0
 2858 04dd 15       		.uleb128 0x15
 2859 04de 01       		.uleb128 0x1
 2860 04df 51       		.byte	0x51
 2861 04e0 02       		.uleb128 0x2
 2862 04e1 09       		.byte	0x9
 2863 04e2 81       		.byte	0x81
 2864 04e3 00       		.byte	0
 2865 04e4 14       		.uleb128 0x14
 2866 04e5 B2000000 		.4byte	.LVL27
 2867 04e9 8C150000 		.4byte	0x158c
ARM GAS  C:\Users\brian\AppData\Local\Temp\cc1Lhyrd.s 			page 76


 2868 04ed 00050000 		.4byte	0x500
 2869 04f1 15       		.uleb128 0x15
 2870 04f2 01       		.uleb128 0x1
 2871 04f3 50       		.byte	0x50
 2872 04f4 02       		.uleb128 0x2
 2873 04f5 75       		.byte	0x75
 2874 04f6 00       		.sleb128 0
 2875 04f7 15       		.uleb128 0x15
 2876 04f8 01       		.uleb128 0x1
 2877 04f9 51       		.byte	0x51
 2878 04fa 04       		.uleb128 0x4
 2879 04fb 74       		.byte	0x74
 2880 04fc 00       		.sleb128 0
 2881 04fd 32       		.byte	0x32
 2882 04fe 25       		.byte	0x25
 2883 04ff 00       		.byte	0
 2884 0500 16       		.uleb128 0x16
 2885 0501 B8000000 		.4byte	.LVL28
 2886 0505 74150000 		.4byte	0x1574
 2887 0509 15       		.uleb128 0x15
 2888 050a 01       		.uleb128 0x1
 2889 050b 50       		.byte	0x50
 2890 050c 02       		.uleb128 0x2
 2891 050d 75       		.byte	0x75
 2892 050e 00       		.sleb128 0
 2893 050f 00       		.byte	0
 2894 0510 00       		.byte	0
 2895 0511 0F       		.uleb128 0xf
 2896 0512 4C020000 		.4byte	.LASF69
 2897 0516 01       		.byte	0x1
 2898 0517 D4       		.byte	0xd4
 2899 0518 8C000000 		.4byte	0x8c
 2900 051c 00000000 		.4byte	.LFB1
 2901 0520 7C000000 		.4byte	.LFE1-.LFB1
 2902 0524 01       		.uleb128 0x1
 2903 0525 9C       		.byte	0x9c
 2904 0526 12060000 		.4byte	0x612
 2905 052a 10       		.uleb128 0x10
 2906 052b 29060000 		.4byte	.LASF65
 2907 052f 01       		.byte	0x1
 2908 0530 D4       		.byte	0xd4
 2909 0531 43030000 		.4byte	0x343
 2910 0535 8E020000 		.4byte	.LLST7
 2911 0539 11       		.uleb128 0x11
 2912 053a 6D736700 		.ascii	"msg\000"
 2913 053e 01       		.byte	0x1
 2914 053f D4       		.byte	0xd4
 2915 0540 8C000000 		.4byte	0x8c
 2916 0544 BA020000 		.4byte	.LLST8
 2917 0548 10       		.uleb128 0x10
 2918 0549 CD020000 		.4byte	.LASF66
 2919 054d 01       		.byte	0x1
 2920 054e D4       		.byte	0xd4
 2921 054f 8C000000 		.4byte	0x8c
 2922 0553 DB020000 		.4byte	.LLST9
 2923 0557 10       		.uleb128 0x10
 2924 0558 EA070000 		.4byte	.LASF67
ARM GAS  C:\Users\brian\AppData\Local\Temp\cc1Lhyrd.s 			page 77


 2925 055c 01       		.byte	0x1
 2926 055d D4       		.byte	0xd4
 2927 055e AD000000 		.4byte	0xad
 2928 0562 FC020000 		.4byte	.LLST10
 2929 0566 14       		.uleb128 0x14
 2930 0567 0C000000 		.4byte	.LVL33
 2931 056b 8A030000 		.4byte	0x38a
 2932 056f 8D050000 		.4byte	0x58d
 2933 0573 15       		.uleb128 0x15
 2934 0574 01       		.uleb128 0x1
 2935 0575 50       		.byte	0x50
 2936 0576 02       		.uleb128 0x2
 2937 0577 75       		.byte	0x75
 2938 0578 00       		.sleb128 0
 2939 0579 15       		.uleb128 0x15
 2940 057a 01       		.uleb128 0x1
 2941 057b 51       		.byte	0x51
 2942 057c 02       		.uleb128 0x2
 2943 057d 74       		.byte	0x74
 2944 057e 00       		.sleb128 0
 2945 057f 15       		.uleb128 0x15
 2946 0580 01       		.uleb128 0x1
 2947 0581 52       		.byte	0x52
 2948 0582 02       		.uleb128 0x2
 2949 0583 76       		.byte	0x76
 2950 0584 00       		.sleb128 0
 2951 0585 15       		.uleb128 0x15
 2952 0586 01       		.uleb128 0x1
 2953 0587 53       		.byte	0x53
 2954 0588 03       		.uleb128 0x3
 2955 0589 F3       		.byte	0xf3
 2956 058a 01       		.uleb128 0x1
 2957 058b 53       		.byte	0x53
 2958 058c 00       		.byte	0
 2959 058d 14       		.uleb128 0x14
 2960 058e 24000000 		.4byte	.LVL34
 2961 0592 98150000 		.4byte	0x1598
 2962 0596 AA050000 		.4byte	0x5aa
 2963 059a 15       		.uleb128 0x15
 2964 059b 01       		.uleb128 0x1
 2965 059c 50       		.byte	0x50
 2966 059d 02       		.uleb128 0x2
 2967 059e 75       		.byte	0x75
 2968 059f 00       		.sleb128 0
 2969 05a0 15       		.uleb128 0x15
 2970 05a1 01       		.uleb128 0x1
 2971 05a2 51       		.byte	0x51
 2972 05a3 05       		.uleb128 0x5
 2973 05a4 03       		.byte	0x3
 2974 05a5 10000000 		.4byte	.LANCHOR0+16
 2975 05a9 00       		.byte	0
 2976 05aa 14       		.uleb128 0x14
 2977 05ab 2E000000 		.4byte	.LVL35
 2978 05af A4150000 		.4byte	0x15a4
 2979 05b3 BE050000 		.4byte	0x5be
 2980 05b7 15       		.uleb128 0x15
 2981 05b8 01       		.uleb128 0x1
ARM GAS  C:\Users\brian\AppData\Local\Temp\cc1Lhyrd.s 			page 78


 2982 05b9 50       		.byte	0x50
 2983 05ba 02       		.uleb128 0x2
 2984 05bb 75       		.byte	0x75
 2985 05bc 00       		.sleb128 0
 2986 05bd 00       		.byte	0
 2987 05be 14       		.uleb128 0x14
 2988 05bf 36000000 		.4byte	.LVL36
 2989 05c3 80150000 		.4byte	0x1580
 2990 05c7 DB050000 		.4byte	0x5db
 2991 05cb 15       		.uleb128 0x15
 2992 05cc 01       		.uleb128 0x1
 2993 05cd 50       		.byte	0x50
 2994 05ce 02       		.uleb128 0x2
 2995 05cf 75       		.byte	0x75
 2996 05d0 00       		.sleb128 0
 2997 05d1 15       		.uleb128 0x15
 2998 05d2 01       		.uleb128 0x1
 2999 05d3 51       		.byte	0x51
 3000 05d4 05       		.uleb128 0x5
 3001 05d5 03       		.byte	0x3
 3002 05d6 28000000 		.4byte	.LANCHOR0+40
 3003 05da 00       		.byte	0
 3004 05db 14       		.uleb128 0x14
 3005 05dc 44000000 		.4byte	.LVL37
 3006 05e0 80150000 		.4byte	0x1580
 3007 05e4 F8050000 		.4byte	0x5f8
 3008 05e8 15       		.uleb128 0x15
 3009 05e9 01       		.uleb128 0x1
 3010 05ea 50       		.byte	0x50
 3011 05eb 02       		.uleb128 0x2
 3012 05ec 75       		.byte	0x75
 3013 05ed 00       		.sleb128 0
 3014 05ee 15       		.uleb128 0x15
 3015 05ef 01       		.uleb128 0x1
 3016 05f0 51       		.byte	0x51
 3017 05f1 05       		.uleb128 0x5
 3018 05f2 03       		.byte	0x3
 3019 05f3 4C000000 		.4byte	.LANCHOR0+76
 3020 05f7 00       		.byte	0
 3021 05f8 16       		.uleb128 0x16
 3022 05f9 58000000 		.4byte	.LVL38
 3023 05fd 80150000 		.4byte	0x1580
 3024 0601 15       		.uleb128 0x15
 3025 0602 01       		.uleb128 0x1
 3026 0603 50       		.byte	0x50
 3027 0604 02       		.uleb128 0x2
 3028 0605 75       		.byte	0x75
 3029 0606 00       		.sleb128 0
 3030 0607 15       		.uleb128 0x15
 3031 0608 01       		.uleb128 0x1
 3032 0609 51       		.byte	0x51
 3033 060a 05       		.uleb128 0x5
 3034 060b 03       		.byte	0x3
 3035 060c 54000000 		.4byte	.LANCHOR0+84
 3036 0610 00       		.byte	0
 3037 0611 00       		.byte	0
 3038 0612 17       		.uleb128 0x17
ARM GAS  C:\Users\brian\AppData\Local\Temp\cc1Lhyrd.s 			page 79


 3039 0613 9F030000 		.4byte	.LASF70
 3040 0617 01       		.byte	0x1
 3041 0618 1701     		.2byte	0x117
 3042 061a 8C000000 		.4byte	0x8c
 3043 061e 00000000 		.4byte	.LFB2
 3044 0622 7C000000 		.4byte	.LFE2-.LFB2
 3045 0626 01       		.uleb128 0x1
 3046 0627 9C       		.byte	0x9c
 3047 0628 18070000 		.4byte	0x718
 3048 062c 18       		.uleb128 0x18
 3049 062d 29060000 		.4byte	.LASF65
 3050 0631 01       		.byte	0x1
 3051 0632 1701     		.2byte	0x117
 3052 0634 43030000 		.4byte	0x343
 3053 0638 1D030000 		.4byte	.LLST11
 3054 063c 19       		.uleb128 0x19
 3055 063d 6D736700 		.ascii	"msg\000"
 3056 0641 01       		.byte	0x1
 3057 0642 1701     		.2byte	0x117
 3058 0644 8C000000 		.4byte	0x8c
 3059 0648 49030000 		.4byte	.LLST12
 3060 064c 18       		.uleb128 0x18
 3061 064d CD020000 		.4byte	.LASF66
 3062 0651 01       		.byte	0x1
 3063 0652 1701     		.2byte	0x117
 3064 0654 8C000000 		.4byte	0x8c
 3065 0658 6A030000 		.4byte	.LLST13
 3066 065c 18       		.uleb128 0x18
 3067 065d EA070000 		.4byte	.LASF67
 3068 0661 01       		.byte	0x1
 3069 0662 1701     		.2byte	0x117
 3070 0664 AD000000 		.4byte	0xad
 3071 0668 8B030000 		.4byte	.LLST14
 3072 066c 14       		.uleb128 0x14
 3073 066d 0C000000 		.4byte	.LVL41
 3074 0671 8A030000 		.4byte	0x38a
 3075 0675 93060000 		.4byte	0x693
 3076 0679 15       		.uleb128 0x15
 3077 067a 01       		.uleb128 0x1
 3078 067b 50       		.byte	0x50
 3079 067c 02       		.uleb128 0x2
 3080 067d 75       		.byte	0x75
 3081 067e 00       		.sleb128 0
 3082 067f 15       		.uleb128 0x15
 3083 0680 01       		.uleb128 0x1
 3084 0681 51       		.byte	0x51
 3085 0682 02       		.uleb128 0x2
 3086 0683 74       		.byte	0x74
 3087 0684 00       		.sleb128 0
 3088 0685 15       		.uleb128 0x15
 3089 0686 01       		.uleb128 0x1
 3090 0687 52       		.byte	0x52
 3091 0688 02       		.uleb128 0x2
 3092 0689 76       		.byte	0x76
 3093 068a 00       		.sleb128 0
 3094 068b 15       		.uleb128 0x15
 3095 068c 01       		.uleb128 0x1
ARM GAS  C:\Users\brian\AppData\Local\Temp\cc1Lhyrd.s 			page 80


 3096 068d 53       		.byte	0x53
 3097 068e 03       		.uleb128 0x3
 3098 068f F3       		.byte	0xf3
 3099 0690 01       		.uleb128 0x1
 3100 0691 53       		.byte	0x53
 3101 0692 00       		.byte	0
 3102 0693 14       		.uleb128 0x14
 3103 0694 24000000 		.4byte	.LVL42
 3104 0698 98150000 		.4byte	0x1598
 3105 069c B0060000 		.4byte	0x6b0
 3106 06a0 15       		.uleb128 0x15
 3107 06a1 01       		.uleb128 0x1
 3108 06a2 50       		.byte	0x50
 3109 06a3 02       		.uleb128 0x2
 3110 06a4 75       		.byte	0x75
 3111 06a5 00       		.sleb128 0
 3112 06a6 15       		.uleb128 0x15
 3113 06a7 01       		.uleb128 0x1
 3114 06a8 51       		.byte	0x51
 3115 06a9 05       		.uleb128 0x5
 3116 06aa 03       		.byte	0x3
 3117 06ab 10000000 		.4byte	.LANCHOR0+16
 3118 06af 00       		.byte	0
 3119 06b0 14       		.uleb128 0x14
 3120 06b1 2E000000 		.4byte	.LVL43
 3121 06b5 A4150000 		.4byte	0x15a4
 3122 06b9 C4060000 		.4byte	0x6c4
 3123 06bd 15       		.uleb128 0x15
 3124 06be 01       		.uleb128 0x1
 3125 06bf 50       		.byte	0x50
 3126 06c0 02       		.uleb128 0x2
 3127 06c1 75       		.byte	0x75
 3128 06c2 00       		.sleb128 0
 3129 06c3 00       		.byte	0
 3130 06c4 14       		.uleb128 0x14
 3131 06c5 36000000 		.4byte	.LVL44
 3132 06c9 80150000 		.4byte	0x1580
 3133 06cd E1060000 		.4byte	0x6e1
 3134 06d1 15       		.uleb128 0x15
 3135 06d2 01       		.uleb128 0x1
 3136 06d3 50       		.byte	0x50
 3137 06d4 02       		.uleb128 0x2
 3138 06d5 75       		.byte	0x75
 3139 06d6 00       		.sleb128 0
 3140 06d7 15       		.uleb128 0x15
 3141 06d8 01       		.uleb128 0x1
 3142 06d9 51       		.byte	0x51
 3143 06da 05       		.uleb128 0x5
 3144 06db 03       		.byte	0x3
 3145 06dc 5C000000 		.4byte	.LANCHOR0+92
 3146 06e0 00       		.byte	0
 3147 06e1 14       		.uleb128 0x14
 3148 06e2 44000000 		.4byte	.LVL45
 3149 06e6 80150000 		.4byte	0x1580
 3150 06ea FE060000 		.4byte	0x6fe
 3151 06ee 15       		.uleb128 0x15
 3152 06ef 01       		.uleb128 0x1
ARM GAS  C:\Users\brian\AppData\Local\Temp\cc1Lhyrd.s 			page 81


 3153 06f0 50       		.byte	0x50
 3154 06f1 02       		.uleb128 0x2
 3155 06f2 75       		.byte	0x75
 3156 06f3 00       		.sleb128 0
 3157 06f4 15       		.uleb128 0x15
 3158 06f5 01       		.uleb128 0x1
 3159 06f6 51       		.byte	0x51
 3160 06f7 05       		.uleb128 0x5
 3161 06f8 03       		.byte	0x3
 3162 06f9 4C000000 		.4byte	.LANCHOR0+76
 3163 06fd 00       		.byte	0
 3164 06fe 16       		.uleb128 0x16
 3165 06ff 58000000 		.4byte	.LVL46
 3166 0703 80150000 		.4byte	0x1580
 3167 0707 15       		.uleb128 0x15
 3168 0708 01       		.uleb128 0x1
 3169 0709 50       		.byte	0x50
 3170 070a 02       		.uleb128 0x2
 3171 070b 75       		.byte	0x75
 3172 070c 00       		.sleb128 0
 3173 070d 15       		.uleb128 0x15
 3174 070e 01       		.uleb128 0x1
 3175 070f 51       		.byte	0x51
 3176 0710 05       		.uleb128 0x5
 3177 0711 03       		.byte	0x3
 3178 0712 54000000 		.4byte	.LANCHOR0+84
 3179 0716 00       		.byte	0
 3180 0717 00       		.byte	0
 3181 0718 17       		.uleb128 0x17
 3182 0719 87000000 		.4byte	.LASF71
 3183 071d 01       		.byte	0x1
 3184 071e 9301     		.2byte	0x193
 3185 0720 8C000000 		.4byte	0x8c
 3186 0724 00000000 		.4byte	.LFB3
 3187 0728 7C000000 		.4byte	.LFE3-.LFB3
 3188 072c 01       		.uleb128 0x1
 3189 072d 9C       		.byte	0x9c
 3190 072e 1E080000 		.4byte	0x81e
 3191 0732 18       		.uleb128 0x18
 3192 0733 29060000 		.4byte	.LASF65
 3193 0737 01       		.byte	0x1
 3194 0738 9301     		.2byte	0x193
 3195 073a 43030000 		.4byte	0x343
 3196 073e AC030000 		.4byte	.LLST15
 3197 0742 19       		.uleb128 0x19
 3198 0743 6D736700 		.ascii	"msg\000"
 3199 0747 01       		.byte	0x1
 3200 0748 9301     		.2byte	0x193
 3201 074a 8C000000 		.4byte	0x8c
 3202 074e D8030000 		.4byte	.LLST16
 3203 0752 18       		.uleb128 0x18
 3204 0753 CD020000 		.4byte	.LASF66
 3205 0757 01       		.byte	0x1
 3206 0758 9301     		.2byte	0x193
 3207 075a 8C000000 		.4byte	0x8c
 3208 075e F9030000 		.4byte	.LLST17
 3209 0762 18       		.uleb128 0x18
ARM GAS  C:\Users\brian\AppData\Local\Temp\cc1Lhyrd.s 			page 82


 3210 0763 EA070000 		.4byte	.LASF67
 3211 0767 01       		.byte	0x1
 3212 0768 9301     		.2byte	0x193
 3213 076a AD000000 		.4byte	0xad
 3214 076e 1A040000 		.4byte	.LLST18
 3215 0772 14       		.uleb128 0x14
 3216 0773 0C000000 		.4byte	.LVL49
 3217 0777 8A030000 		.4byte	0x38a
 3218 077b 99070000 		.4byte	0x799
 3219 077f 15       		.uleb128 0x15
 3220 0780 01       		.uleb128 0x1
 3221 0781 50       		.byte	0x50
 3222 0782 02       		.uleb128 0x2
 3223 0783 75       		.byte	0x75
 3224 0784 00       		.sleb128 0
 3225 0785 15       		.uleb128 0x15
 3226 0786 01       		.uleb128 0x1
 3227 0787 51       		.byte	0x51
 3228 0788 02       		.uleb128 0x2
 3229 0789 74       		.byte	0x74
 3230 078a 00       		.sleb128 0
 3231 078b 15       		.uleb128 0x15
 3232 078c 01       		.uleb128 0x1
 3233 078d 52       		.byte	0x52
 3234 078e 02       		.uleb128 0x2
 3235 078f 76       		.byte	0x76
 3236 0790 00       		.sleb128 0
 3237 0791 15       		.uleb128 0x15
 3238 0792 01       		.uleb128 0x1
 3239 0793 53       		.byte	0x53
 3240 0794 03       		.uleb128 0x3
 3241 0795 F3       		.byte	0xf3
 3242 0796 01       		.uleb128 0x1
 3243 0797 53       		.byte	0x53
 3244 0798 00       		.byte	0
 3245 0799 14       		.uleb128 0x14
 3246 079a 24000000 		.4byte	.LVL50
 3247 079e 98150000 		.4byte	0x1598
 3248 07a2 B6070000 		.4byte	0x7b6
 3249 07a6 15       		.uleb128 0x15
 3250 07a7 01       		.uleb128 0x1
 3251 07a8 50       		.byte	0x50
 3252 07a9 02       		.uleb128 0x2
 3253 07aa 75       		.byte	0x75
 3254 07ab 00       		.sleb128 0
 3255 07ac 15       		.uleb128 0x15
 3256 07ad 01       		.uleb128 0x1
 3257 07ae 51       		.byte	0x51
 3258 07af 05       		.uleb128 0x5
 3259 07b0 03       		.byte	0x3
 3260 07b1 80000000 		.4byte	.LANCHOR0+128
 3261 07b5 00       		.byte	0
 3262 07b6 14       		.uleb128 0x14
 3263 07b7 2E000000 		.4byte	.LVL51
 3264 07bb A4150000 		.4byte	0x15a4
 3265 07bf CA070000 		.4byte	0x7ca
 3266 07c3 15       		.uleb128 0x15
ARM GAS  C:\Users\brian\AppData\Local\Temp\cc1Lhyrd.s 			page 83


 3267 07c4 01       		.uleb128 0x1
 3268 07c5 50       		.byte	0x50
 3269 07c6 02       		.uleb128 0x2
 3270 07c7 75       		.byte	0x75
 3271 07c8 00       		.sleb128 0
 3272 07c9 00       		.byte	0
 3273 07ca 14       		.uleb128 0x14
 3274 07cb 36000000 		.4byte	.LVL52
 3275 07cf 80150000 		.4byte	0x1580
 3276 07d3 E7070000 		.4byte	0x7e7
 3277 07d7 15       		.uleb128 0x15
 3278 07d8 01       		.uleb128 0x1
 3279 07d9 50       		.byte	0x50
 3280 07da 02       		.uleb128 0x2
 3281 07db 75       		.byte	0x75
 3282 07dc 00       		.sleb128 0
 3283 07dd 15       		.uleb128 0x15
 3284 07de 01       		.uleb128 0x1
 3285 07df 51       		.byte	0x51
 3286 07e0 05       		.uleb128 0x5
 3287 07e1 03       		.byte	0x3
 3288 07e2 98000000 		.4byte	.LANCHOR0+152
 3289 07e6 00       		.byte	0
 3290 07e7 14       		.uleb128 0x14
 3291 07e8 44000000 		.4byte	.LVL53
 3292 07ec 80150000 		.4byte	0x1580
 3293 07f0 04080000 		.4byte	0x804
 3294 07f4 15       		.uleb128 0x15
 3295 07f5 01       		.uleb128 0x1
 3296 07f6 50       		.byte	0x50
 3297 07f7 02       		.uleb128 0x2
 3298 07f8 75       		.byte	0x75
 3299 07f9 00       		.sleb128 0
 3300 07fa 15       		.uleb128 0x15
 3301 07fb 01       		.uleb128 0x1
 3302 07fc 51       		.byte	0x51
 3303 07fd 05       		.uleb128 0x5
 3304 07fe 03       		.byte	0x3
 3305 07ff 4C000000 		.4byte	.LANCHOR0+76
 3306 0803 00       		.byte	0
 3307 0804 16       		.uleb128 0x16
 3308 0805 58000000 		.4byte	.LVL54
 3309 0809 80150000 		.4byte	0x1580
 3310 080d 15       		.uleb128 0x15
 3311 080e 01       		.uleb128 0x1
 3312 080f 50       		.byte	0x50
 3313 0810 02       		.uleb128 0x2
 3314 0811 75       		.byte	0x75
 3315 0812 00       		.sleb128 0
 3316 0813 15       		.uleb128 0x15
 3317 0814 01       		.uleb128 0x1
 3318 0815 51       		.byte	0x51
 3319 0816 05       		.uleb128 0x5
 3320 0817 03       		.byte	0x3
 3321 0818 54000000 		.4byte	.LANCHOR0+84
 3322 081c 00       		.byte	0
 3323 081d 00       		.byte	0
ARM GAS  C:\Users\brian\AppData\Local\Temp\cc1Lhyrd.s 			page 84


 3324 081e 17       		.uleb128 0x17
 3325 081f 0A080000 		.4byte	.LASF72
 3326 0823 01       		.byte	0x1
 3327 0824 D401     		.2byte	0x1d4
 3328 0826 8C000000 		.4byte	0x8c
 3329 082a 00000000 		.4byte	.LFB4
 3330 082e 7C000000 		.4byte	.LFE4-.LFB4
 3331 0832 01       		.uleb128 0x1
 3332 0833 9C       		.byte	0x9c
 3333 0834 24090000 		.4byte	0x924
 3334 0838 18       		.uleb128 0x18
 3335 0839 29060000 		.4byte	.LASF65
 3336 083d 01       		.byte	0x1
 3337 083e D401     		.2byte	0x1d4
 3338 0840 43030000 		.4byte	0x343
 3339 0844 3B040000 		.4byte	.LLST19
 3340 0848 19       		.uleb128 0x19
 3341 0849 6D736700 		.ascii	"msg\000"
 3342 084d 01       		.byte	0x1
 3343 084e D401     		.2byte	0x1d4
 3344 0850 8C000000 		.4byte	0x8c
 3345 0854 67040000 		.4byte	.LLST20
 3346 0858 18       		.uleb128 0x18
 3347 0859 CD020000 		.4byte	.LASF66
 3348 085d 01       		.byte	0x1
 3349 085e D401     		.2byte	0x1d4
 3350 0860 8C000000 		.4byte	0x8c
 3351 0864 88040000 		.4byte	.LLST21
 3352 0868 18       		.uleb128 0x18
 3353 0869 EA070000 		.4byte	.LASF67
 3354 086d 01       		.byte	0x1
 3355 086e D401     		.2byte	0x1d4
 3356 0870 AD000000 		.4byte	0xad
 3357 0874 A9040000 		.4byte	.LLST22
 3358 0878 14       		.uleb128 0x14
 3359 0879 0C000000 		.4byte	.LVL57
 3360 087d 8A030000 		.4byte	0x38a
 3361 0881 9F080000 		.4byte	0x89f
 3362 0885 15       		.uleb128 0x15
 3363 0886 01       		.uleb128 0x1
 3364 0887 50       		.byte	0x50
 3365 0888 02       		.uleb128 0x2
 3366 0889 75       		.byte	0x75
 3367 088a 00       		.sleb128 0
 3368 088b 15       		.uleb128 0x15
 3369 088c 01       		.uleb128 0x1
 3370 088d 51       		.byte	0x51
 3371 088e 02       		.uleb128 0x2
 3372 088f 74       		.byte	0x74
 3373 0890 00       		.sleb128 0
 3374 0891 15       		.uleb128 0x15
 3375 0892 01       		.uleb128 0x1
 3376 0893 52       		.byte	0x52
 3377 0894 02       		.uleb128 0x2
 3378 0895 76       		.byte	0x76
 3379 0896 00       		.sleb128 0
 3380 0897 15       		.uleb128 0x15
ARM GAS  C:\Users\brian\AppData\Local\Temp\cc1Lhyrd.s 			page 85


 3381 0898 01       		.uleb128 0x1
 3382 0899 53       		.byte	0x53
 3383 089a 03       		.uleb128 0x3
 3384 089b F3       		.byte	0xf3
 3385 089c 01       		.uleb128 0x1
 3386 089d 53       		.byte	0x53
 3387 089e 00       		.byte	0
 3388 089f 14       		.uleb128 0x14
 3389 08a0 24000000 		.4byte	.LVL58
 3390 08a4 98150000 		.4byte	0x1598
 3391 08a8 BC080000 		.4byte	0x8bc
 3392 08ac 15       		.uleb128 0x15
 3393 08ad 01       		.uleb128 0x1
 3394 08ae 50       		.byte	0x50
 3395 08af 02       		.uleb128 0x2
 3396 08b0 75       		.byte	0x75
 3397 08b1 00       		.sleb128 0
 3398 08b2 15       		.uleb128 0x15
 3399 08b3 01       		.uleb128 0x1
 3400 08b4 51       		.byte	0x51
 3401 08b5 05       		.uleb128 0x5
 3402 08b6 03       		.byte	0x3
 3403 08b7 10000000 		.4byte	.LANCHOR0+16
 3404 08bb 00       		.byte	0
 3405 08bc 14       		.uleb128 0x14
 3406 08bd 2E000000 		.4byte	.LVL59
 3407 08c1 A4150000 		.4byte	0x15a4
 3408 08c5 D0080000 		.4byte	0x8d0
 3409 08c9 15       		.uleb128 0x15
 3410 08ca 01       		.uleb128 0x1
 3411 08cb 50       		.byte	0x50
 3412 08cc 02       		.uleb128 0x2
 3413 08cd 75       		.byte	0x75
 3414 08ce 00       		.sleb128 0
 3415 08cf 00       		.byte	0
 3416 08d0 14       		.uleb128 0x14
 3417 08d1 36000000 		.4byte	.LVL60
 3418 08d5 80150000 		.4byte	0x1580
 3419 08d9 ED080000 		.4byte	0x8ed
 3420 08dd 15       		.uleb128 0x15
 3421 08de 01       		.uleb128 0x1
 3422 08df 50       		.byte	0x50
 3423 08e0 02       		.uleb128 0x2
 3424 08e1 75       		.byte	0x75
 3425 08e2 00       		.sleb128 0
 3426 08e3 15       		.uleb128 0x15
 3427 08e4 01       		.uleb128 0x1
 3428 08e5 51       		.byte	0x51
 3429 08e6 05       		.uleb128 0x5
 3430 08e7 03       		.byte	0x3
 3431 08e8 B8000000 		.4byte	.LANCHOR0+184
 3432 08ec 00       		.byte	0
 3433 08ed 14       		.uleb128 0x14
 3434 08ee 44000000 		.4byte	.LVL61
 3435 08f2 80150000 		.4byte	0x1580
 3436 08f6 0A090000 		.4byte	0x90a
 3437 08fa 15       		.uleb128 0x15
ARM GAS  C:\Users\brian\AppData\Local\Temp\cc1Lhyrd.s 			page 86


 3438 08fb 01       		.uleb128 0x1
 3439 08fc 50       		.byte	0x50
 3440 08fd 02       		.uleb128 0x2
 3441 08fe 75       		.byte	0x75
 3442 08ff 00       		.sleb128 0
 3443 0900 15       		.uleb128 0x15
 3444 0901 01       		.uleb128 0x1
 3445 0902 51       		.byte	0x51
 3446 0903 05       		.uleb128 0x5
 3447 0904 03       		.byte	0x3
 3448 0905 DC000000 		.4byte	.LANCHOR0+220
 3449 0909 00       		.byte	0
 3450 090a 16       		.uleb128 0x16
 3451 090b 58000000 		.4byte	.LVL62
 3452 090f 80150000 		.4byte	0x1580
 3453 0913 15       		.uleb128 0x15
 3454 0914 01       		.uleb128 0x1
 3455 0915 50       		.byte	0x50
 3456 0916 02       		.uleb128 0x2
 3457 0917 75       		.byte	0x75
 3458 0918 00       		.sleb128 0
 3459 0919 15       		.uleb128 0x15
 3460 091a 01       		.uleb128 0x1
 3461 091b 51       		.byte	0x51
 3462 091c 05       		.uleb128 0x5
 3463 091d 03       		.byte	0x3
 3464 091e E4000000 		.4byte	.LANCHOR0+228
 3465 0922 00       		.byte	0
 3466 0923 00       		.byte	0
 3467 0924 17       		.uleb128 0x17
 3468 0925 00000000 		.4byte	.LASF73
 3469 0929 01       		.byte	0x1
 3470 092a 3002     		.2byte	0x230
 3471 092c 8C000000 		.4byte	0x8c
 3472 0930 00000000 		.4byte	.LFB5
 3473 0934 7C000000 		.4byte	.LFE5-.LFB5
 3474 0938 01       		.uleb128 0x1
 3475 0939 9C       		.byte	0x9c
 3476 093a 2A0A0000 		.4byte	0xa2a
 3477 093e 18       		.uleb128 0x18
 3478 093f 29060000 		.4byte	.LASF65
 3479 0943 01       		.byte	0x1
 3480 0944 3002     		.2byte	0x230
 3481 0946 43030000 		.4byte	0x343
 3482 094a CA040000 		.4byte	.LLST23
 3483 094e 19       		.uleb128 0x19
 3484 094f 6D736700 		.ascii	"msg\000"
 3485 0953 01       		.byte	0x1
 3486 0954 3002     		.2byte	0x230
 3487 0956 8C000000 		.4byte	0x8c
 3488 095a F6040000 		.4byte	.LLST24
 3489 095e 18       		.uleb128 0x18
 3490 095f CD020000 		.4byte	.LASF66
 3491 0963 01       		.byte	0x1
 3492 0964 3002     		.2byte	0x230
 3493 0966 8C000000 		.4byte	0x8c
 3494 096a 17050000 		.4byte	.LLST25
ARM GAS  C:\Users\brian\AppData\Local\Temp\cc1Lhyrd.s 			page 87


 3495 096e 18       		.uleb128 0x18
 3496 096f EA070000 		.4byte	.LASF67
 3497 0973 01       		.byte	0x1
 3498 0974 3002     		.2byte	0x230
 3499 0976 AD000000 		.4byte	0xad
 3500 097a 38050000 		.4byte	.LLST26
 3501 097e 14       		.uleb128 0x14
 3502 097f 0C000000 		.4byte	.LVL65
 3503 0983 8A030000 		.4byte	0x38a
 3504 0987 A5090000 		.4byte	0x9a5
 3505 098b 15       		.uleb128 0x15
 3506 098c 01       		.uleb128 0x1
 3507 098d 50       		.byte	0x50
 3508 098e 02       		.uleb128 0x2
 3509 098f 75       		.byte	0x75
 3510 0990 00       		.sleb128 0
 3511 0991 15       		.uleb128 0x15
 3512 0992 01       		.uleb128 0x1
 3513 0993 51       		.byte	0x51
 3514 0994 02       		.uleb128 0x2
 3515 0995 74       		.byte	0x74
 3516 0996 00       		.sleb128 0
 3517 0997 15       		.uleb128 0x15
 3518 0998 01       		.uleb128 0x1
 3519 0999 52       		.byte	0x52
 3520 099a 02       		.uleb128 0x2
 3521 099b 76       		.byte	0x76
 3522 099c 00       		.sleb128 0
 3523 099d 15       		.uleb128 0x15
 3524 099e 01       		.uleb128 0x1
 3525 099f 53       		.byte	0x53
 3526 09a0 03       		.uleb128 0x3
 3527 09a1 F3       		.byte	0xf3
 3528 09a2 01       		.uleb128 0x1
 3529 09a3 53       		.byte	0x53
 3530 09a4 00       		.byte	0
 3531 09a5 14       		.uleb128 0x14
 3532 09a6 24000000 		.4byte	.LVL66
 3533 09aa 98150000 		.4byte	0x1598
 3534 09ae C2090000 		.4byte	0x9c2
 3535 09b2 15       		.uleb128 0x15
 3536 09b3 01       		.uleb128 0x1
 3537 09b4 50       		.byte	0x50
 3538 09b5 02       		.uleb128 0x2
 3539 09b6 75       		.byte	0x75
 3540 09b7 00       		.sleb128 0
 3541 09b8 15       		.uleb128 0x15
 3542 09b9 01       		.uleb128 0x1
 3543 09ba 51       		.byte	0x51
 3544 09bb 05       		.uleb128 0x5
 3545 09bc 03       		.byte	0x3
 3546 09bd EC000000 		.4byte	.LANCHOR0+236
 3547 09c1 00       		.byte	0
 3548 09c2 14       		.uleb128 0x14
 3549 09c3 2E000000 		.4byte	.LVL67
 3550 09c7 A4150000 		.4byte	0x15a4
 3551 09cb D6090000 		.4byte	0x9d6
ARM GAS  C:\Users\brian\AppData\Local\Temp\cc1Lhyrd.s 			page 88


 3552 09cf 15       		.uleb128 0x15
 3553 09d0 01       		.uleb128 0x1
 3554 09d1 50       		.byte	0x50
 3555 09d2 02       		.uleb128 0x2
 3556 09d3 75       		.byte	0x75
 3557 09d4 00       		.sleb128 0
 3558 09d5 00       		.byte	0
 3559 09d6 14       		.uleb128 0x14
 3560 09d7 36000000 		.4byte	.LVL68
 3561 09db 80150000 		.4byte	0x1580
 3562 09df F3090000 		.4byte	0x9f3
 3563 09e3 15       		.uleb128 0x15
 3564 09e4 01       		.uleb128 0x1
 3565 09e5 50       		.byte	0x50
 3566 09e6 02       		.uleb128 0x2
 3567 09e7 75       		.byte	0x75
 3568 09e8 00       		.sleb128 0
 3569 09e9 15       		.uleb128 0x15
 3570 09ea 01       		.uleb128 0x1
 3571 09eb 51       		.byte	0x51
 3572 09ec 05       		.uleb128 0x5
 3573 09ed 03       		.byte	0x3
 3574 09ee 04010000 		.4byte	.LANCHOR0+260
 3575 09f2 00       		.byte	0
 3576 09f3 14       		.uleb128 0x14
 3577 09f4 44000000 		.4byte	.LVL69
 3578 09f8 80150000 		.4byte	0x1580
 3579 09fc 100A0000 		.4byte	0xa10
 3580 0a00 15       		.uleb128 0x15
 3581 0a01 01       		.uleb128 0x1
 3582 0a02 50       		.byte	0x50
 3583 0a03 02       		.uleb128 0x2
 3584 0a04 75       		.byte	0x75
 3585 0a05 00       		.sleb128 0
 3586 0a06 15       		.uleb128 0x15
 3587 0a07 01       		.uleb128 0x1
 3588 0a08 51       		.byte	0x51
 3589 0a09 05       		.uleb128 0x5
 3590 0a0a 03       		.byte	0x3
 3591 0a0b 4C000000 		.4byte	.LANCHOR0+76
 3592 0a0f 00       		.byte	0
 3593 0a10 16       		.uleb128 0x16
 3594 0a11 58000000 		.4byte	.LVL70
 3595 0a15 80150000 		.4byte	0x1580
 3596 0a19 15       		.uleb128 0x15
 3597 0a1a 01       		.uleb128 0x1
 3598 0a1b 50       		.byte	0x50
 3599 0a1c 02       		.uleb128 0x2
 3600 0a1d 75       		.byte	0x75
 3601 0a1e 00       		.sleb128 0
 3602 0a1f 15       		.uleb128 0x15
 3603 0a20 01       		.uleb128 0x1
 3604 0a21 51       		.byte	0x51
 3605 0a22 05       		.uleb128 0x5
 3606 0a23 03       		.byte	0x3
 3607 0a24 54000000 		.4byte	.LANCHOR0+84
 3608 0a28 00       		.byte	0
ARM GAS  C:\Users\brian\AppData\Local\Temp\cc1Lhyrd.s 			page 89


 3609 0a29 00       		.byte	0
 3610 0a2a 17       		.uleb128 0x17
 3611 0a2b C7030000 		.4byte	.LASF74
 3612 0a2f 01       		.byte	0x1
 3613 0a30 8A02     		.2byte	0x28a
 3614 0a32 8C000000 		.4byte	0x8c
 3615 0a36 00000000 		.4byte	.LFB6
 3616 0a3a 7C000000 		.4byte	.LFE6-.LFB6
 3617 0a3e 01       		.uleb128 0x1
 3618 0a3f 9C       		.byte	0x9c
 3619 0a40 300B0000 		.4byte	0xb30
 3620 0a44 18       		.uleb128 0x18
 3621 0a45 29060000 		.4byte	.LASF65
 3622 0a49 01       		.byte	0x1
 3623 0a4a 8A02     		.2byte	0x28a
 3624 0a4c 43030000 		.4byte	0x343
 3625 0a50 59050000 		.4byte	.LLST27
 3626 0a54 19       		.uleb128 0x19
 3627 0a55 6D736700 		.ascii	"msg\000"
 3628 0a59 01       		.byte	0x1
 3629 0a5a 8A02     		.2byte	0x28a
 3630 0a5c 8C000000 		.4byte	0x8c
 3631 0a60 85050000 		.4byte	.LLST28
 3632 0a64 18       		.uleb128 0x18
 3633 0a65 CD020000 		.4byte	.LASF66
 3634 0a69 01       		.byte	0x1
 3635 0a6a 8A02     		.2byte	0x28a
 3636 0a6c 8C000000 		.4byte	0x8c
 3637 0a70 A6050000 		.4byte	.LLST29
 3638 0a74 18       		.uleb128 0x18
 3639 0a75 EA070000 		.4byte	.LASF67
 3640 0a79 01       		.byte	0x1
 3641 0a7a 8A02     		.2byte	0x28a
 3642 0a7c AD000000 		.4byte	0xad
 3643 0a80 C7050000 		.4byte	.LLST30
 3644 0a84 14       		.uleb128 0x14
 3645 0a85 0C000000 		.4byte	.LVL73
 3646 0a89 8A030000 		.4byte	0x38a
 3647 0a8d AB0A0000 		.4byte	0xaab
 3648 0a91 15       		.uleb128 0x15
 3649 0a92 01       		.uleb128 0x1
 3650 0a93 50       		.byte	0x50
 3651 0a94 02       		.uleb128 0x2
 3652 0a95 75       		.byte	0x75
 3653 0a96 00       		.sleb128 0
 3654 0a97 15       		.uleb128 0x15
 3655 0a98 01       		.uleb128 0x1
 3656 0a99 51       		.byte	0x51
 3657 0a9a 02       		.uleb128 0x2
 3658 0a9b 74       		.byte	0x74
 3659 0a9c 00       		.sleb128 0
 3660 0a9d 15       		.uleb128 0x15
 3661 0a9e 01       		.uleb128 0x1
 3662 0a9f 52       		.byte	0x52
 3663 0aa0 02       		.uleb128 0x2
 3664 0aa1 76       		.byte	0x76
 3665 0aa2 00       		.sleb128 0
ARM GAS  C:\Users\brian\AppData\Local\Temp\cc1Lhyrd.s 			page 90


 3666 0aa3 15       		.uleb128 0x15
 3667 0aa4 01       		.uleb128 0x1
 3668 0aa5 53       		.byte	0x53
 3669 0aa6 03       		.uleb128 0x3
 3670 0aa7 F3       		.byte	0xf3
 3671 0aa8 01       		.uleb128 0x1
 3672 0aa9 53       		.byte	0x53
 3673 0aaa 00       		.byte	0
 3674 0aab 14       		.uleb128 0x14
 3675 0aac 24000000 		.4byte	.LVL74
 3676 0ab0 98150000 		.4byte	0x1598
 3677 0ab4 C80A0000 		.4byte	0xac8
 3678 0ab8 15       		.uleb128 0x15
 3679 0ab9 01       		.uleb128 0x1
 3680 0aba 50       		.byte	0x50
 3681 0abb 02       		.uleb128 0x2
 3682 0abc 75       		.byte	0x75
 3683 0abd 00       		.sleb128 0
 3684 0abe 15       		.uleb128 0x15
 3685 0abf 01       		.uleb128 0x1
 3686 0ac0 51       		.byte	0x51
 3687 0ac1 05       		.uleb128 0x5
 3688 0ac2 03       		.byte	0x3
 3689 0ac3 28010000 		.4byte	.LANCHOR0+296
 3690 0ac7 00       		.byte	0
 3691 0ac8 14       		.uleb128 0x14
 3692 0ac9 2E000000 		.4byte	.LVL75
 3693 0acd A4150000 		.4byte	0x15a4
 3694 0ad1 DC0A0000 		.4byte	0xadc
 3695 0ad5 15       		.uleb128 0x15
 3696 0ad6 01       		.uleb128 0x1
 3697 0ad7 50       		.byte	0x50
 3698 0ad8 02       		.uleb128 0x2
 3699 0ad9 75       		.byte	0x75
 3700 0ada 00       		.sleb128 0
 3701 0adb 00       		.byte	0
 3702 0adc 14       		.uleb128 0x14
 3703 0add 36000000 		.4byte	.LVL76
 3704 0ae1 80150000 		.4byte	0x1580
 3705 0ae5 F90A0000 		.4byte	0xaf9
 3706 0ae9 15       		.uleb128 0x15
 3707 0aea 01       		.uleb128 0x1
 3708 0aeb 50       		.byte	0x50
 3709 0aec 02       		.uleb128 0x2
 3710 0aed 75       		.byte	0x75
 3711 0aee 00       		.sleb128 0
 3712 0aef 15       		.uleb128 0x15
 3713 0af0 01       		.uleb128 0x1
 3714 0af1 51       		.byte	0x51
 3715 0af2 05       		.uleb128 0x5
 3716 0af3 03       		.byte	0x3
 3717 0af4 40010000 		.4byte	.LANCHOR0+320
 3718 0af8 00       		.byte	0
 3719 0af9 14       		.uleb128 0x14
 3720 0afa 44000000 		.4byte	.LVL77
 3721 0afe 80150000 		.4byte	0x1580
 3722 0b02 160B0000 		.4byte	0xb16
ARM GAS  C:\Users\brian\AppData\Local\Temp\cc1Lhyrd.s 			page 91


 3723 0b06 15       		.uleb128 0x15
 3724 0b07 01       		.uleb128 0x1
 3725 0b08 50       		.byte	0x50
 3726 0b09 02       		.uleb128 0x2
 3727 0b0a 75       		.byte	0x75
 3728 0b0b 00       		.sleb128 0
 3729 0b0c 15       		.uleb128 0x15
 3730 0b0d 01       		.uleb128 0x1
 3731 0b0e 51       		.byte	0x51
 3732 0b0f 05       		.uleb128 0x5
 3733 0b10 03       		.byte	0x3
 3734 0b11 4C000000 		.4byte	.LANCHOR0+76
 3735 0b15 00       		.byte	0
 3736 0b16 16       		.uleb128 0x16
 3737 0b17 58000000 		.4byte	.LVL78
 3738 0b1b 80150000 		.4byte	0x1580
 3739 0b1f 15       		.uleb128 0x15
 3740 0b20 01       		.uleb128 0x1
 3741 0b21 50       		.byte	0x50
 3742 0b22 02       		.uleb128 0x2
 3743 0b23 75       		.byte	0x75
 3744 0b24 00       		.sleb128 0
 3745 0b25 15       		.uleb128 0x15
 3746 0b26 01       		.uleb128 0x1
 3747 0b27 51       		.byte	0x51
 3748 0b28 05       		.uleb128 0x5
 3749 0b29 03       		.byte	0x3
 3750 0b2a 54000000 		.4byte	.LANCHOR0+84
 3751 0b2e 00       		.byte	0
 3752 0b2f 00       		.byte	0
 3753 0b30 17       		.uleb128 0x17
 3754 0b31 B3070000 		.4byte	.LASF75
 3755 0b35 01       		.byte	0x1
 3756 0b36 AE02     		.2byte	0x2ae
 3757 0b38 8C000000 		.4byte	0x8c
 3758 0b3c 00000000 		.4byte	.LFB7
 3759 0b40 08000000 		.4byte	.LFE7-.LFB7
 3760 0b44 01       		.uleb128 0x1
 3761 0b45 9C       		.byte	0x9c
 3762 0b46 A30B0000 		.4byte	0xba3
 3763 0b4a 18       		.uleb128 0x18
 3764 0b4b 29060000 		.4byte	.LASF65
 3765 0b4f 01       		.byte	0x1
 3766 0b50 AE02     		.2byte	0x2ae
 3767 0b52 43030000 		.4byte	0x343
 3768 0b56 E8050000 		.4byte	.LLST31
 3769 0b5a 19       		.uleb128 0x19
 3770 0b5b 6D736700 		.ascii	"msg\000"
 3771 0b5f 01       		.byte	0x1
 3772 0b60 AE02     		.2byte	0x2ae
 3773 0b62 8C000000 		.4byte	0x8c
 3774 0b66 09060000 		.4byte	.LLST32
 3775 0b6a 18       		.uleb128 0x18
 3776 0b6b CD020000 		.4byte	.LASF66
 3777 0b6f 01       		.byte	0x1
 3778 0b70 AE02     		.2byte	0x2ae
 3779 0b72 8C000000 		.4byte	0x8c
ARM GAS  C:\Users\brian\AppData\Local\Temp\cc1Lhyrd.s 			page 92


 3780 0b76 2A060000 		.4byte	.LLST33
 3781 0b7a 18       		.uleb128 0x18
 3782 0b7b EA070000 		.4byte	.LASF67
 3783 0b7f 01       		.byte	0x1
 3784 0b80 AE02     		.2byte	0x2ae
 3785 0b82 AD000000 		.4byte	0xad
 3786 0b86 4B060000 		.4byte	.LLST34
 3787 0b8a 16       		.uleb128 0x16
 3788 0b8b 06000000 		.4byte	.LVL81
 3789 0b8f 2A0A0000 		.4byte	0xa2a
 3790 0b93 15       		.uleb128 0x15
 3791 0b94 01       		.uleb128 0x1
 3792 0b95 50       		.byte	0x50
 3793 0b96 03       		.uleb128 0x3
 3794 0b97 F3       		.byte	0xf3
 3795 0b98 01       		.uleb128 0x1
 3796 0b99 50       		.byte	0x50
 3797 0b9a 15       		.uleb128 0x15
 3798 0b9b 01       		.uleb128 0x1
 3799 0b9c 53       		.byte	0x53
 3800 0b9d 03       		.uleb128 0x3
 3801 0b9e F3       		.byte	0xf3
 3802 0b9f 01       		.uleb128 0x1
 3803 0ba0 53       		.byte	0x53
 3804 0ba1 00       		.byte	0
 3805 0ba2 00       		.byte	0
 3806 0ba3 17       		.uleb128 0x17
 3807 0ba4 18020000 		.4byte	.LASF76
 3808 0ba8 01       		.byte	0x1
 3809 0ba9 ED02     		.2byte	0x2ed
 3810 0bab 8C000000 		.4byte	0x8c
 3811 0baf 00000000 		.4byte	.LFB8
 3812 0bb3 7C000000 		.4byte	.LFE8-.LFB8
 3813 0bb7 01       		.uleb128 0x1
 3814 0bb8 9C       		.byte	0x9c
 3815 0bb9 A90C0000 		.4byte	0xca9
 3816 0bbd 18       		.uleb128 0x18
 3817 0bbe 29060000 		.4byte	.LASF65
 3818 0bc2 01       		.byte	0x1
 3819 0bc3 ED02     		.2byte	0x2ed
 3820 0bc5 43030000 		.4byte	0x343
 3821 0bc9 6C060000 		.4byte	.LLST35
 3822 0bcd 19       		.uleb128 0x19
 3823 0bce 6D736700 		.ascii	"msg\000"
 3824 0bd2 01       		.byte	0x1
 3825 0bd3 ED02     		.2byte	0x2ed
 3826 0bd5 8C000000 		.4byte	0x8c
 3827 0bd9 98060000 		.4byte	.LLST36
 3828 0bdd 18       		.uleb128 0x18
 3829 0bde CD020000 		.4byte	.LASF66
 3830 0be2 01       		.byte	0x1
 3831 0be3 ED02     		.2byte	0x2ed
 3832 0be5 8C000000 		.4byte	0x8c
 3833 0be9 B9060000 		.4byte	.LLST37
 3834 0bed 18       		.uleb128 0x18
 3835 0bee EA070000 		.4byte	.LASF67
 3836 0bf2 01       		.byte	0x1
ARM GAS  C:\Users\brian\AppData\Local\Temp\cc1Lhyrd.s 			page 93


 3837 0bf3 ED02     		.2byte	0x2ed
 3838 0bf5 AD000000 		.4byte	0xad
 3839 0bf9 DA060000 		.4byte	.LLST38
 3840 0bfd 14       		.uleb128 0x14
 3841 0bfe 0C000000 		.4byte	.LVL83
 3842 0c02 8A030000 		.4byte	0x38a
 3843 0c06 240C0000 		.4byte	0xc24
 3844 0c0a 15       		.uleb128 0x15
 3845 0c0b 01       		.uleb128 0x1
 3846 0c0c 50       		.byte	0x50
 3847 0c0d 02       		.uleb128 0x2
 3848 0c0e 75       		.byte	0x75
 3849 0c0f 00       		.sleb128 0
 3850 0c10 15       		.uleb128 0x15
 3851 0c11 01       		.uleb128 0x1
 3852 0c12 51       		.byte	0x51
 3853 0c13 02       		.uleb128 0x2
 3854 0c14 74       		.byte	0x74
 3855 0c15 00       		.sleb128 0
 3856 0c16 15       		.uleb128 0x15
 3857 0c17 01       		.uleb128 0x1
 3858 0c18 52       		.byte	0x52
 3859 0c19 02       		.uleb128 0x2
 3860 0c1a 76       		.byte	0x76
 3861 0c1b 00       		.sleb128 0
 3862 0c1c 15       		.uleb128 0x15
 3863 0c1d 01       		.uleb128 0x1
 3864 0c1e 53       		.byte	0x53
 3865 0c1f 03       		.uleb128 0x3
 3866 0c20 F3       		.byte	0xf3
 3867 0c21 01       		.uleb128 0x1
 3868 0c22 53       		.byte	0x53
 3869 0c23 00       		.byte	0
 3870 0c24 14       		.uleb128 0x14
 3871 0c25 24000000 		.4byte	.LVL84
 3872 0c29 98150000 		.4byte	0x1598
 3873 0c2d 410C0000 		.4byte	0xc41
 3874 0c31 15       		.uleb128 0x15
 3875 0c32 01       		.uleb128 0x1
 3876 0c33 50       		.byte	0x50
 3877 0c34 02       		.uleb128 0x2
 3878 0c35 75       		.byte	0x75
 3879 0c36 00       		.sleb128 0
 3880 0c37 15       		.uleb128 0x15
 3881 0c38 01       		.uleb128 0x1
 3882 0c39 51       		.byte	0x51
 3883 0c3a 05       		.uleb128 0x5
 3884 0c3b 03       		.byte	0x3
 3885 0c3c 64010000 		.4byte	.LANCHOR0+356
 3886 0c40 00       		.byte	0
 3887 0c41 14       		.uleb128 0x14
 3888 0c42 2E000000 		.4byte	.LVL85
 3889 0c46 A4150000 		.4byte	0x15a4
 3890 0c4a 550C0000 		.4byte	0xc55
 3891 0c4e 15       		.uleb128 0x15
 3892 0c4f 01       		.uleb128 0x1
 3893 0c50 50       		.byte	0x50
ARM GAS  C:\Users\brian\AppData\Local\Temp\cc1Lhyrd.s 			page 94


 3894 0c51 02       		.uleb128 0x2
 3895 0c52 75       		.byte	0x75
 3896 0c53 00       		.sleb128 0
 3897 0c54 00       		.byte	0
 3898 0c55 14       		.uleb128 0x14
 3899 0c56 36000000 		.4byte	.LVL86
 3900 0c5a 80150000 		.4byte	0x1580
 3901 0c5e 720C0000 		.4byte	0xc72
 3902 0c62 15       		.uleb128 0x15
 3903 0c63 01       		.uleb128 0x1
 3904 0c64 50       		.byte	0x50
 3905 0c65 02       		.uleb128 0x2
 3906 0c66 75       		.byte	0x75
 3907 0c67 00       		.sleb128 0
 3908 0c68 15       		.uleb128 0x15
 3909 0c69 01       		.uleb128 0x1
 3910 0c6a 51       		.byte	0x51
 3911 0c6b 05       		.uleb128 0x5
 3912 0c6c 03       		.byte	0x3
 3913 0c6d 7C010000 		.4byte	.LANCHOR0+380
 3914 0c71 00       		.byte	0
 3915 0c72 14       		.uleb128 0x14
 3916 0c73 44000000 		.4byte	.LVL87
 3917 0c77 80150000 		.4byte	0x1580
 3918 0c7b 8F0C0000 		.4byte	0xc8f
 3919 0c7f 15       		.uleb128 0x15
 3920 0c80 01       		.uleb128 0x1
 3921 0c81 50       		.byte	0x50
 3922 0c82 02       		.uleb128 0x2
 3923 0c83 75       		.byte	0x75
 3924 0c84 00       		.sleb128 0
 3925 0c85 15       		.uleb128 0x15
 3926 0c86 01       		.uleb128 0x1
 3927 0c87 51       		.byte	0x51
 3928 0c88 05       		.uleb128 0x5
 3929 0c89 03       		.byte	0x3
 3930 0c8a 54000000 		.4byte	.LANCHOR0+84
 3931 0c8e 00       		.byte	0
 3932 0c8f 16       		.uleb128 0x16
 3933 0c90 58000000 		.4byte	.LVL88
 3934 0c94 80150000 		.4byte	0x1580
 3935 0c98 15       		.uleb128 0x15
 3936 0c99 01       		.uleb128 0x1
 3937 0c9a 50       		.byte	0x50
 3938 0c9b 02       		.uleb128 0x2
 3939 0c9c 75       		.byte	0x75
 3940 0c9d 00       		.sleb128 0
 3941 0c9e 15       		.uleb128 0x15
 3942 0c9f 01       		.uleb128 0x1
 3943 0ca0 51       		.byte	0x51
 3944 0ca1 05       		.uleb128 0x5
 3945 0ca2 03       		.byte	0x3
 3946 0ca3 4C000000 		.4byte	.LANCHOR0+76
 3947 0ca7 00       		.byte	0
 3948 0ca8 00       		.byte	0
 3949 0ca9 17       		.uleb128 0x17
 3950 0caa 98040000 		.4byte	.LASF77
ARM GAS  C:\Users\brian\AppData\Local\Temp\cc1Lhyrd.s 			page 95


 3951 0cae 01       		.byte	0x1
 3952 0caf 2403     		.2byte	0x324
 3953 0cb1 8C000000 		.4byte	0x8c
 3954 0cb5 00000000 		.4byte	.LFB9
 3955 0cb9 7C000000 		.4byte	.LFE9-.LFB9
 3956 0cbd 01       		.uleb128 0x1
 3957 0cbe 9C       		.byte	0x9c
 3958 0cbf AF0D0000 		.4byte	0xdaf
 3959 0cc3 18       		.uleb128 0x18
 3960 0cc4 29060000 		.4byte	.LASF65
 3961 0cc8 01       		.byte	0x1
 3962 0cc9 2403     		.2byte	0x324
 3963 0ccb 43030000 		.4byte	0x343
 3964 0ccf FB060000 		.4byte	.LLST39
 3965 0cd3 19       		.uleb128 0x19
 3966 0cd4 6D736700 		.ascii	"msg\000"
 3967 0cd8 01       		.byte	0x1
 3968 0cd9 2403     		.2byte	0x324
 3969 0cdb 8C000000 		.4byte	0x8c
 3970 0cdf 27070000 		.4byte	.LLST40
 3971 0ce3 18       		.uleb128 0x18
 3972 0ce4 CD020000 		.4byte	.LASF66
 3973 0ce8 01       		.byte	0x1
 3974 0ce9 2403     		.2byte	0x324
 3975 0ceb 8C000000 		.4byte	0x8c
 3976 0cef 48070000 		.4byte	.LLST41
 3977 0cf3 18       		.uleb128 0x18
 3978 0cf4 EA070000 		.4byte	.LASF67
 3979 0cf8 01       		.byte	0x1
 3980 0cf9 2403     		.2byte	0x324
 3981 0cfb AD000000 		.4byte	0xad
 3982 0cff 69070000 		.4byte	.LLST42
 3983 0d03 14       		.uleb128 0x14
 3984 0d04 0C000000 		.4byte	.LVL91
 3985 0d08 8A030000 		.4byte	0x38a
 3986 0d0c 2A0D0000 		.4byte	0xd2a
 3987 0d10 15       		.uleb128 0x15
 3988 0d11 01       		.uleb128 0x1
 3989 0d12 50       		.byte	0x50
 3990 0d13 02       		.uleb128 0x2
 3991 0d14 75       		.byte	0x75
 3992 0d15 00       		.sleb128 0
 3993 0d16 15       		.uleb128 0x15
 3994 0d17 01       		.uleb128 0x1
 3995 0d18 51       		.byte	0x51
 3996 0d19 02       		.uleb128 0x2
 3997 0d1a 74       		.byte	0x74
 3998 0d1b 00       		.sleb128 0
 3999 0d1c 15       		.uleb128 0x15
 4000 0d1d 01       		.uleb128 0x1
 4001 0d1e 52       		.byte	0x52
 4002 0d1f 02       		.uleb128 0x2
 4003 0d20 76       		.byte	0x76
 4004 0d21 00       		.sleb128 0
 4005 0d22 15       		.uleb128 0x15
 4006 0d23 01       		.uleb128 0x1
 4007 0d24 53       		.byte	0x53
ARM GAS  C:\Users\brian\AppData\Local\Temp\cc1Lhyrd.s 			page 96


 4008 0d25 03       		.uleb128 0x3
 4009 0d26 F3       		.byte	0xf3
 4010 0d27 01       		.uleb128 0x1
 4011 0d28 53       		.byte	0x53
 4012 0d29 00       		.byte	0
 4013 0d2a 14       		.uleb128 0x14
 4014 0d2b 24000000 		.4byte	.LVL92
 4015 0d2f 98150000 		.4byte	0x1598
 4016 0d33 470D0000 		.4byte	0xd47
 4017 0d37 15       		.uleb128 0x15
 4018 0d38 01       		.uleb128 0x1
 4019 0d39 50       		.byte	0x50
 4020 0d3a 02       		.uleb128 0x2
 4021 0d3b 75       		.byte	0x75
 4022 0d3c 00       		.sleb128 0
 4023 0d3d 15       		.uleb128 0x15
 4024 0d3e 01       		.uleb128 0x1
 4025 0d3f 51       		.byte	0x51
 4026 0d40 05       		.uleb128 0x5
 4027 0d41 03       		.byte	0x3
 4028 0d42 64010000 		.4byte	.LANCHOR0+356
 4029 0d46 00       		.byte	0
 4030 0d47 14       		.uleb128 0x14
 4031 0d48 2E000000 		.4byte	.LVL93
 4032 0d4c A4150000 		.4byte	0x15a4
 4033 0d50 5B0D0000 		.4byte	0xd5b
 4034 0d54 15       		.uleb128 0x15
 4035 0d55 01       		.uleb128 0x1
 4036 0d56 50       		.byte	0x50
 4037 0d57 02       		.uleb128 0x2
 4038 0d58 75       		.byte	0x75
 4039 0d59 00       		.sleb128 0
 4040 0d5a 00       		.byte	0
 4041 0d5b 14       		.uleb128 0x14
 4042 0d5c 36000000 		.4byte	.LVL94
 4043 0d60 80150000 		.4byte	0x1580
 4044 0d64 780D0000 		.4byte	0xd78
 4045 0d68 15       		.uleb128 0x15
 4046 0d69 01       		.uleb128 0x1
 4047 0d6a 50       		.byte	0x50
 4048 0d6b 02       		.uleb128 0x2
 4049 0d6c 75       		.byte	0x75
 4050 0d6d 00       		.sleb128 0
 4051 0d6e 15       		.uleb128 0x15
 4052 0d6f 01       		.uleb128 0x1
 4053 0d70 51       		.byte	0x51
 4054 0d71 05       		.uleb128 0x5
 4055 0d72 03       		.byte	0x3
 4056 0d73 A0010000 		.4byte	.LANCHOR0+416
 4057 0d77 00       		.byte	0
 4058 0d78 14       		.uleb128 0x14
 4059 0d79 44000000 		.4byte	.LVL95
 4060 0d7d 80150000 		.4byte	0x1580
 4061 0d81 950D0000 		.4byte	0xd95
 4062 0d85 15       		.uleb128 0x15
 4063 0d86 01       		.uleb128 0x1
 4064 0d87 50       		.byte	0x50
ARM GAS  C:\Users\brian\AppData\Local\Temp\cc1Lhyrd.s 			page 97


 4065 0d88 02       		.uleb128 0x2
 4066 0d89 75       		.byte	0x75
 4067 0d8a 00       		.sleb128 0
 4068 0d8b 15       		.uleb128 0x15
 4069 0d8c 01       		.uleb128 0x1
 4070 0d8d 51       		.byte	0x51
 4071 0d8e 05       		.uleb128 0x5
 4072 0d8f 03       		.byte	0x3
 4073 0d90 54000000 		.4byte	.LANCHOR0+84
 4074 0d94 00       		.byte	0
 4075 0d95 16       		.uleb128 0x16
 4076 0d96 58000000 		.4byte	.LVL96
 4077 0d9a 80150000 		.4byte	0x1580
 4078 0d9e 15       		.uleb128 0x15
 4079 0d9f 01       		.uleb128 0x1
 4080 0da0 50       		.byte	0x50
 4081 0da1 02       		.uleb128 0x2
 4082 0da2 75       		.byte	0x75
 4083 0da3 00       		.sleb128 0
 4084 0da4 15       		.uleb128 0x15
 4085 0da5 01       		.uleb128 0x1
 4086 0da6 51       		.byte	0x51
 4087 0da7 05       		.uleb128 0x5
 4088 0da8 03       		.byte	0x3
 4089 0da9 4C000000 		.4byte	.LANCHOR0+76
 4090 0dad 00       		.byte	0
 4091 0dae 00       		.byte	0
 4092 0daf 17       		.uleb128 0x17
 4093 0db0 66090000 		.4byte	.LASF78
 4094 0db4 01       		.byte	0x1
 4095 0db5 8003     		.2byte	0x380
 4096 0db7 8C000000 		.4byte	0x8c
 4097 0dbb 00000000 		.4byte	.LFB10
 4098 0dbf 7C000000 		.4byte	.LFE10-.LFB10
 4099 0dc3 01       		.uleb128 0x1
 4100 0dc4 9C       		.byte	0x9c
 4101 0dc5 B50E0000 		.4byte	0xeb5
 4102 0dc9 18       		.uleb128 0x18
 4103 0dca 29060000 		.4byte	.LASF65
 4104 0dce 01       		.byte	0x1
 4105 0dcf 8003     		.2byte	0x380
 4106 0dd1 43030000 		.4byte	0x343
 4107 0dd5 8A070000 		.4byte	.LLST43
 4108 0dd9 19       		.uleb128 0x19
 4109 0dda 6D736700 		.ascii	"msg\000"
 4110 0dde 01       		.byte	0x1
 4111 0ddf 8003     		.2byte	0x380
 4112 0de1 8C000000 		.4byte	0x8c
 4113 0de5 B6070000 		.4byte	.LLST44
 4114 0de9 18       		.uleb128 0x18
 4115 0dea CD020000 		.4byte	.LASF66
 4116 0dee 01       		.byte	0x1
 4117 0def 8003     		.2byte	0x380
 4118 0df1 8C000000 		.4byte	0x8c
 4119 0df5 D7070000 		.4byte	.LLST45
 4120 0df9 18       		.uleb128 0x18
 4121 0dfa EA070000 		.4byte	.LASF67
ARM GAS  C:\Users\brian\AppData\Local\Temp\cc1Lhyrd.s 			page 98


 4122 0dfe 01       		.byte	0x1
 4123 0dff 8003     		.2byte	0x380
 4124 0e01 AD000000 		.4byte	0xad
 4125 0e05 F8070000 		.4byte	.LLST46
 4126 0e09 14       		.uleb128 0x14
 4127 0e0a 0C000000 		.4byte	.LVL99
 4128 0e0e 8A030000 		.4byte	0x38a
 4129 0e12 300E0000 		.4byte	0xe30
 4130 0e16 15       		.uleb128 0x15
 4131 0e17 01       		.uleb128 0x1
 4132 0e18 50       		.byte	0x50
 4133 0e19 02       		.uleb128 0x2
 4134 0e1a 75       		.byte	0x75
 4135 0e1b 00       		.sleb128 0
 4136 0e1c 15       		.uleb128 0x15
 4137 0e1d 01       		.uleb128 0x1
 4138 0e1e 51       		.byte	0x51
 4139 0e1f 02       		.uleb128 0x2
 4140 0e20 74       		.byte	0x74
 4141 0e21 00       		.sleb128 0
 4142 0e22 15       		.uleb128 0x15
 4143 0e23 01       		.uleb128 0x1
 4144 0e24 52       		.byte	0x52
 4145 0e25 02       		.uleb128 0x2
 4146 0e26 76       		.byte	0x76
 4147 0e27 00       		.sleb128 0
 4148 0e28 15       		.uleb128 0x15
 4149 0e29 01       		.uleb128 0x1
 4150 0e2a 53       		.byte	0x53
 4151 0e2b 03       		.uleb128 0x3
 4152 0e2c F3       		.byte	0xf3
 4153 0e2d 01       		.uleb128 0x1
 4154 0e2e 53       		.byte	0x53
 4155 0e2f 00       		.byte	0
 4156 0e30 14       		.uleb128 0x14
 4157 0e31 24000000 		.4byte	.LVL100
 4158 0e35 98150000 		.4byte	0x1598
 4159 0e39 4D0E0000 		.4byte	0xe4d
 4160 0e3d 15       		.uleb128 0x15
 4161 0e3e 01       		.uleb128 0x1
 4162 0e3f 50       		.byte	0x50
 4163 0e40 02       		.uleb128 0x2
 4164 0e41 75       		.byte	0x75
 4165 0e42 00       		.sleb128 0
 4166 0e43 15       		.uleb128 0x15
 4167 0e44 01       		.uleb128 0x1
 4168 0e45 51       		.byte	0x51
 4169 0e46 05       		.uleb128 0x5
 4170 0e47 03       		.byte	0x3
 4171 0e48 BC010000 		.4byte	.LANCHOR0+444
 4172 0e4c 00       		.byte	0
 4173 0e4d 14       		.uleb128 0x14
 4174 0e4e 2E000000 		.4byte	.LVL101
 4175 0e52 A4150000 		.4byte	0x15a4
 4176 0e56 610E0000 		.4byte	0xe61
 4177 0e5a 15       		.uleb128 0x15
 4178 0e5b 01       		.uleb128 0x1
ARM GAS  C:\Users\brian\AppData\Local\Temp\cc1Lhyrd.s 			page 99


 4179 0e5c 50       		.byte	0x50
 4180 0e5d 02       		.uleb128 0x2
 4181 0e5e 75       		.byte	0x75
 4182 0e5f 00       		.sleb128 0
 4183 0e60 00       		.byte	0
 4184 0e61 14       		.uleb128 0x14
 4185 0e62 36000000 		.4byte	.LVL102
 4186 0e66 80150000 		.4byte	0x1580
 4187 0e6a 7E0E0000 		.4byte	0xe7e
 4188 0e6e 15       		.uleb128 0x15
 4189 0e6f 01       		.uleb128 0x1
 4190 0e70 50       		.byte	0x50
 4191 0e71 02       		.uleb128 0x2
 4192 0e72 75       		.byte	0x75
 4193 0e73 00       		.sleb128 0
 4194 0e74 15       		.uleb128 0x15
 4195 0e75 01       		.uleb128 0x1
 4196 0e76 51       		.byte	0x51
 4197 0e77 05       		.uleb128 0x5
 4198 0e78 03       		.byte	0x3
 4199 0e79 D4010000 		.4byte	.LANCHOR0+468
 4200 0e7d 00       		.byte	0
 4201 0e7e 14       		.uleb128 0x14
 4202 0e7f 44000000 		.4byte	.LVL103
 4203 0e83 80150000 		.4byte	0x1580
 4204 0e87 9B0E0000 		.4byte	0xe9b
 4205 0e8b 15       		.uleb128 0x15
 4206 0e8c 01       		.uleb128 0x1
 4207 0e8d 50       		.byte	0x50
 4208 0e8e 02       		.uleb128 0x2
 4209 0e8f 75       		.byte	0x75
 4210 0e90 00       		.sleb128 0
 4211 0e91 15       		.uleb128 0x15
 4212 0e92 01       		.uleb128 0x1
 4213 0e93 51       		.byte	0x51
 4214 0e94 05       		.uleb128 0x5
 4215 0e95 03       		.byte	0x3
 4216 0e96 54000000 		.4byte	.LANCHOR0+84
 4217 0e9a 00       		.byte	0
 4218 0e9b 16       		.uleb128 0x16
 4219 0e9c 58000000 		.4byte	.LVL104
 4220 0ea0 80150000 		.4byte	0x1580
 4221 0ea4 15       		.uleb128 0x15
 4222 0ea5 01       		.uleb128 0x1
 4223 0ea6 50       		.byte	0x50
 4224 0ea7 02       		.uleb128 0x2
 4225 0ea8 75       		.byte	0x75
 4226 0ea9 00       		.sleb128 0
 4227 0eaa 15       		.uleb128 0x15
 4228 0eab 01       		.uleb128 0x1
 4229 0eac 51       		.byte	0x51
 4230 0ead 05       		.uleb128 0x5
 4231 0eae 03       		.byte	0x3
 4232 0eaf 4C000000 		.4byte	.LANCHOR0+76
 4233 0eb3 00       		.byte	0
 4234 0eb4 00       		.byte	0
 4235 0eb5 17       		.uleb128 0x17
ARM GAS  C:\Users\brian\AppData\Local\Temp\cc1Lhyrd.s 			page 100


 4236 0eb6 DC060000 		.4byte	.LASF79
 4237 0eba 01       		.byte	0x1
 4238 0ebb DC03     		.2byte	0x3dc
 4239 0ebd 8C000000 		.4byte	0x8c
 4240 0ec1 00000000 		.4byte	.LFB11
 4241 0ec5 7C000000 		.4byte	.LFE11-.LFB11
 4242 0ec9 01       		.uleb128 0x1
 4243 0eca 9C       		.byte	0x9c
 4244 0ecb BB0F0000 		.4byte	0xfbb
 4245 0ecf 18       		.uleb128 0x18
 4246 0ed0 29060000 		.4byte	.LASF65
 4247 0ed4 01       		.byte	0x1
 4248 0ed5 DC03     		.2byte	0x3dc
 4249 0ed7 43030000 		.4byte	0x343
 4250 0edb 19080000 		.4byte	.LLST47
 4251 0edf 19       		.uleb128 0x19
 4252 0ee0 6D736700 		.ascii	"msg\000"
 4253 0ee4 01       		.byte	0x1
 4254 0ee5 DC03     		.2byte	0x3dc
 4255 0ee7 8C000000 		.4byte	0x8c
 4256 0eeb 45080000 		.4byte	.LLST48
 4257 0eef 18       		.uleb128 0x18
 4258 0ef0 CD020000 		.4byte	.LASF66
 4259 0ef4 01       		.byte	0x1
 4260 0ef5 DC03     		.2byte	0x3dc
 4261 0ef7 8C000000 		.4byte	0x8c
 4262 0efb 66080000 		.4byte	.LLST49
 4263 0eff 18       		.uleb128 0x18
 4264 0f00 EA070000 		.4byte	.LASF67
 4265 0f04 01       		.byte	0x1
 4266 0f05 DC03     		.2byte	0x3dc
 4267 0f07 AD000000 		.4byte	0xad
 4268 0f0b 87080000 		.4byte	.LLST50
 4269 0f0f 14       		.uleb128 0x14
 4270 0f10 0C000000 		.4byte	.LVL107
 4271 0f14 8A030000 		.4byte	0x38a
 4272 0f18 360F0000 		.4byte	0xf36
 4273 0f1c 15       		.uleb128 0x15
 4274 0f1d 01       		.uleb128 0x1
 4275 0f1e 50       		.byte	0x50
 4276 0f1f 02       		.uleb128 0x2
 4277 0f20 75       		.byte	0x75
 4278 0f21 00       		.sleb128 0
 4279 0f22 15       		.uleb128 0x15
 4280 0f23 01       		.uleb128 0x1
 4281 0f24 51       		.byte	0x51
 4282 0f25 02       		.uleb128 0x2
 4283 0f26 74       		.byte	0x74
 4284 0f27 00       		.sleb128 0
 4285 0f28 15       		.uleb128 0x15
 4286 0f29 01       		.uleb128 0x1
 4287 0f2a 52       		.byte	0x52
 4288 0f2b 02       		.uleb128 0x2
 4289 0f2c 76       		.byte	0x76
 4290 0f2d 00       		.sleb128 0
 4291 0f2e 15       		.uleb128 0x15
 4292 0f2f 01       		.uleb128 0x1
ARM GAS  C:\Users\brian\AppData\Local\Temp\cc1Lhyrd.s 			page 101


 4293 0f30 53       		.byte	0x53
 4294 0f31 03       		.uleb128 0x3
 4295 0f32 F3       		.byte	0xf3
 4296 0f33 01       		.uleb128 0x1
 4297 0f34 53       		.byte	0x53
 4298 0f35 00       		.byte	0
 4299 0f36 14       		.uleb128 0x14
 4300 0f37 24000000 		.4byte	.LVL108
 4301 0f3b 98150000 		.4byte	0x1598
 4302 0f3f 530F0000 		.4byte	0xf53
 4303 0f43 15       		.uleb128 0x15
 4304 0f44 01       		.uleb128 0x1
 4305 0f45 50       		.byte	0x50
 4306 0f46 02       		.uleb128 0x2
 4307 0f47 75       		.byte	0x75
 4308 0f48 00       		.sleb128 0
 4309 0f49 15       		.uleb128 0x15
 4310 0f4a 01       		.uleb128 0x1
 4311 0f4b 51       		.byte	0x51
 4312 0f4c 05       		.uleb128 0x5
 4313 0f4d 03       		.byte	0x3
 4314 0f4e F8010000 		.4byte	.LANCHOR0+504
 4315 0f52 00       		.byte	0
 4316 0f53 14       		.uleb128 0x14
 4317 0f54 2E000000 		.4byte	.LVL109
 4318 0f58 A4150000 		.4byte	0x15a4
 4319 0f5c 670F0000 		.4byte	0xf67
 4320 0f60 15       		.uleb128 0x15
 4321 0f61 01       		.uleb128 0x1
 4322 0f62 50       		.byte	0x50
 4323 0f63 02       		.uleb128 0x2
 4324 0f64 75       		.byte	0x75
 4325 0f65 00       		.sleb128 0
 4326 0f66 00       		.byte	0
 4327 0f67 14       		.uleb128 0x14
 4328 0f68 36000000 		.4byte	.LVL110
 4329 0f6c 80150000 		.4byte	0x1580
 4330 0f70 840F0000 		.4byte	0xf84
 4331 0f74 15       		.uleb128 0x15
 4332 0f75 01       		.uleb128 0x1
 4333 0f76 50       		.byte	0x50
 4334 0f77 02       		.uleb128 0x2
 4335 0f78 75       		.byte	0x75
 4336 0f79 00       		.sleb128 0
 4337 0f7a 15       		.uleb128 0x15
 4338 0f7b 01       		.uleb128 0x1
 4339 0f7c 51       		.byte	0x51
 4340 0f7d 05       		.uleb128 0x5
 4341 0f7e 03       		.byte	0x3
 4342 0f7f 10020000 		.4byte	.LANCHOR0+528
 4343 0f83 00       		.byte	0
 4344 0f84 14       		.uleb128 0x14
 4345 0f85 44000000 		.4byte	.LVL111
 4346 0f89 80150000 		.4byte	0x1580
 4347 0f8d A10F0000 		.4byte	0xfa1
 4348 0f91 15       		.uleb128 0x15
 4349 0f92 01       		.uleb128 0x1
ARM GAS  C:\Users\brian\AppData\Local\Temp\cc1Lhyrd.s 			page 102


 4350 0f93 50       		.byte	0x50
 4351 0f94 02       		.uleb128 0x2
 4352 0f95 75       		.byte	0x75
 4353 0f96 00       		.sleb128 0
 4354 0f97 15       		.uleb128 0x15
 4355 0f98 01       		.uleb128 0x1
 4356 0f99 51       		.byte	0x51
 4357 0f9a 05       		.uleb128 0x5
 4358 0f9b 03       		.byte	0x3
 4359 0f9c 54000000 		.4byte	.LANCHOR0+84
 4360 0fa0 00       		.byte	0
 4361 0fa1 16       		.uleb128 0x16
 4362 0fa2 58000000 		.4byte	.LVL112
 4363 0fa6 80150000 		.4byte	0x1580
 4364 0faa 15       		.uleb128 0x15
 4365 0fab 01       		.uleb128 0x1
 4366 0fac 50       		.byte	0x50
 4367 0fad 02       		.uleb128 0x2
 4368 0fae 75       		.byte	0x75
 4369 0faf 00       		.sleb128 0
 4370 0fb0 15       		.uleb128 0x15
 4371 0fb1 01       		.uleb128 0x1
 4372 0fb2 51       		.byte	0x51
 4373 0fb3 05       		.uleb128 0x5
 4374 0fb4 03       		.byte	0x3
 4375 0fb5 4C000000 		.4byte	.LANCHOR0+76
 4376 0fb9 00       		.byte	0
 4377 0fba 00       		.byte	0
 4378 0fbb 17       		.uleb128 0x17
 4379 0fbc 3B070000 		.4byte	.LASF80
 4380 0fc0 01       		.byte	0x1
 4381 0fc1 3C04     		.2byte	0x43c
 4382 0fc3 8C000000 		.4byte	0x8c
 4383 0fc7 00000000 		.4byte	.LFB12
 4384 0fcb 7C000000 		.4byte	.LFE12-.LFB12
 4385 0fcf 01       		.uleb128 0x1
 4386 0fd0 9C       		.byte	0x9c
 4387 0fd1 C1100000 		.4byte	0x10c1
 4388 0fd5 18       		.uleb128 0x18
 4389 0fd6 29060000 		.4byte	.LASF65
 4390 0fda 01       		.byte	0x1
 4391 0fdb 3C04     		.2byte	0x43c
 4392 0fdd 43030000 		.4byte	0x343
 4393 0fe1 A8080000 		.4byte	.LLST51
 4394 0fe5 19       		.uleb128 0x19
 4395 0fe6 6D736700 		.ascii	"msg\000"
 4396 0fea 01       		.byte	0x1
 4397 0feb 3C04     		.2byte	0x43c
 4398 0fed 8C000000 		.4byte	0x8c
 4399 0ff1 D4080000 		.4byte	.LLST52
 4400 0ff5 18       		.uleb128 0x18
 4401 0ff6 CD020000 		.4byte	.LASF66
 4402 0ffa 01       		.byte	0x1
 4403 0ffb 3C04     		.2byte	0x43c
 4404 0ffd 8C000000 		.4byte	0x8c
 4405 1001 F5080000 		.4byte	.LLST53
 4406 1005 18       		.uleb128 0x18
ARM GAS  C:\Users\brian\AppData\Local\Temp\cc1Lhyrd.s 			page 103


 4407 1006 EA070000 		.4byte	.LASF67
 4408 100a 01       		.byte	0x1
 4409 100b 3C04     		.2byte	0x43c
 4410 100d AD000000 		.4byte	0xad
 4411 1011 16090000 		.4byte	.LLST54
 4412 1015 14       		.uleb128 0x14
 4413 1016 0C000000 		.4byte	.LVL115
 4414 101a 8A030000 		.4byte	0x38a
 4415 101e 3C100000 		.4byte	0x103c
 4416 1022 15       		.uleb128 0x15
 4417 1023 01       		.uleb128 0x1
 4418 1024 50       		.byte	0x50
 4419 1025 02       		.uleb128 0x2
 4420 1026 75       		.byte	0x75
 4421 1027 00       		.sleb128 0
 4422 1028 15       		.uleb128 0x15
 4423 1029 01       		.uleb128 0x1
 4424 102a 51       		.byte	0x51
 4425 102b 02       		.uleb128 0x2
 4426 102c 74       		.byte	0x74
 4427 102d 00       		.sleb128 0
 4428 102e 15       		.uleb128 0x15
 4429 102f 01       		.uleb128 0x1
 4430 1030 52       		.byte	0x52
 4431 1031 02       		.uleb128 0x2
 4432 1032 76       		.byte	0x76
 4433 1033 00       		.sleb128 0
 4434 1034 15       		.uleb128 0x15
 4435 1035 01       		.uleb128 0x1
 4436 1036 53       		.byte	0x53
 4437 1037 03       		.uleb128 0x3
 4438 1038 F3       		.byte	0xf3
 4439 1039 01       		.uleb128 0x1
 4440 103a 53       		.byte	0x53
 4441 103b 00       		.byte	0
 4442 103c 14       		.uleb128 0x14
 4443 103d 24000000 		.4byte	.LVL116
 4444 1041 98150000 		.4byte	0x1598
 4445 1045 59100000 		.4byte	0x1059
 4446 1049 15       		.uleb128 0x15
 4447 104a 01       		.uleb128 0x1
 4448 104b 50       		.byte	0x50
 4449 104c 02       		.uleb128 0x2
 4450 104d 75       		.byte	0x75
 4451 104e 00       		.sleb128 0
 4452 104f 15       		.uleb128 0x15
 4453 1050 01       		.uleb128 0x1
 4454 1051 51       		.byte	0x51
 4455 1052 05       		.uleb128 0x5
 4456 1053 03       		.byte	0x3
 4457 1054 F8010000 		.4byte	.LANCHOR0+504
 4458 1058 00       		.byte	0
 4459 1059 14       		.uleb128 0x14
 4460 105a 2E000000 		.4byte	.LVL117
 4461 105e A4150000 		.4byte	0x15a4
 4462 1062 6D100000 		.4byte	0x106d
 4463 1066 15       		.uleb128 0x15
ARM GAS  C:\Users\brian\AppData\Local\Temp\cc1Lhyrd.s 			page 104


 4464 1067 01       		.uleb128 0x1
 4465 1068 50       		.byte	0x50
 4466 1069 02       		.uleb128 0x2
 4467 106a 75       		.byte	0x75
 4468 106b 00       		.sleb128 0
 4469 106c 00       		.byte	0
 4470 106d 14       		.uleb128 0x14
 4471 106e 36000000 		.4byte	.LVL118
 4472 1072 80150000 		.4byte	0x1580
 4473 1076 8A100000 		.4byte	0x108a
 4474 107a 15       		.uleb128 0x15
 4475 107b 01       		.uleb128 0x1
 4476 107c 50       		.byte	0x50
 4477 107d 02       		.uleb128 0x2
 4478 107e 75       		.byte	0x75
 4479 107f 00       		.sleb128 0
 4480 1080 15       		.uleb128 0x15
 4481 1081 01       		.uleb128 0x1
 4482 1082 51       		.byte	0x51
 4483 1083 05       		.uleb128 0x5
 4484 1084 03       		.byte	0x3
 4485 1085 34020000 		.4byte	.LANCHOR0+564
 4486 1089 00       		.byte	0
 4487 108a 14       		.uleb128 0x14
 4488 108b 44000000 		.4byte	.LVL119
 4489 108f 80150000 		.4byte	0x1580
 4490 1093 A7100000 		.4byte	0x10a7
 4491 1097 15       		.uleb128 0x15
 4492 1098 01       		.uleb128 0x1
 4493 1099 50       		.byte	0x50
 4494 109a 02       		.uleb128 0x2
 4495 109b 75       		.byte	0x75
 4496 109c 00       		.sleb128 0
 4497 109d 15       		.uleb128 0x15
 4498 109e 01       		.uleb128 0x1
 4499 109f 51       		.byte	0x51
 4500 10a0 05       		.uleb128 0x5
 4501 10a1 03       		.byte	0x3
 4502 10a2 54000000 		.4byte	.LANCHOR0+84
 4503 10a6 00       		.byte	0
 4504 10a7 16       		.uleb128 0x16
 4505 10a8 58000000 		.4byte	.LVL120
 4506 10ac 80150000 		.4byte	0x1580
 4507 10b0 15       		.uleb128 0x15
 4508 10b1 01       		.uleb128 0x1
 4509 10b2 50       		.byte	0x50
 4510 10b3 02       		.uleb128 0x2
 4511 10b4 75       		.byte	0x75
 4512 10b5 00       		.sleb128 0
 4513 10b6 15       		.uleb128 0x15
 4514 10b7 01       		.uleb128 0x1
 4515 10b8 51       		.byte	0x51
 4516 10b9 05       		.uleb128 0x5
 4517 10ba 03       		.byte	0x3
 4518 10bb 4C000000 		.4byte	.LANCHOR0+76
 4519 10bf 00       		.byte	0
 4520 10c0 00       		.byte	0
ARM GAS  C:\Users\brian\AppData\Local\Temp\cc1Lhyrd.s 			page 105


 4521 10c1 17       		.uleb128 0x17
 4522 10c2 D8050000 		.4byte	.LASF81
 4523 10c6 01       		.byte	0x1
 4524 10c7 8304     		.2byte	0x483
 4525 10c9 8C000000 		.4byte	0x8c
 4526 10cd 00000000 		.4byte	.LFB13
 4527 10d1 7C000000 		.4byte	.LFE13-.LFB13
 4528 10d5 01       		.uleb128 0x1
 4529 10d6 9C       		.byte	0x9c
 4530 10d7 C7110000 		.4byte	0x11c7
 4531 10db 18       		.uleb128 0x18
 4532 10dc 29060000 		.4byte	.LASF65
 4533 10e0 01       		.byte	0x1
 4534 10e1 8304     		.2byte	0x483
 4535 10e3 43030000 		.4byte	0x343
 4536 10e7 37090000 		.4byte	.LLST55
 4537 10eb 19       		.uleb128 0x19
 4538 10ec 6D736700 		.ascii	"msg\000"
 4539 10f0 01       		.byte	0x1
 4540 10f1 8304     		.2byte	0x483
 4541 10f3 8C000000 		.4byte	0x8c
 4542 10f7 63090000 		.4byte	.LLST56
 4543 10fb 18       		.uleb128 0x18
 4544 10fc CD020000 		.4byte	.LASF66
 4545 1100 01       		.byte	0x1
 4546 1101 8304     		.2byte	0x483
 4547 1103 8C000000 		.4byte	0x8c
 4548 1107 84090000 		.4byte	.LLST57
 4549 110b 18       		.uleb128 0x18
 4550 110c EA070000 		.4byte	.LASF67
 4551 1110 01       		.byte	0x1
 4552 1111 8304     		.2byte	0x483
 4553 1113 AD000000 		.4byte	0xad
 4554 1117 A5090000 		.4byte	.LLST58
 4555 111b 14       		.uleb128 0x14
 4556 111c 0C000000 		.4byte	.LVL123
 4557 1120 8A030000 		.4byte	0x38a
 4558 1124 42110000 		.4byte	0x1142
 4559 1128 15       		.uleb128 0x15
 4560 1129 01       		.uleb128 0x1
 4561 112a 50       		.byte	0x50
 4562 112b 02       		.uleb128 0x2
 4563 112c 75       		.byte	0x75
 4564 112d 00       		.sleb128 0
 4565 112e 15       		.uleb128 0x15
 4566 112f 01       		.uleb128 0x1
 4567 1130 51       		.byte	0x51
 4568 1131 02       		.uleb128 0x2
 4569 1132 74       		.byte	0x74
 4570 1133 00       		.sleb128 0
 4571 1134 15       		.uleb128 0x15
 4572 1135 01       		.uleb128 0x1
 4573 1136 52       		.byte	0x52
 4574 1137 02       		.uleb128 0x2
 4575 1138 76       		.byte	0x76
 4576 1139 00       		.sleb128 0
 4577 113a 15       		.uleb128 0x15
ARM GAS  C:\Users\brian\AppData\Local\Temp\cc1Lhyrd.s 			page 106


 4578 113b 01       		.uleb128 0x1
 4579 113c 53       		.byte	0x53
 4580 113d 03       		.uleb128 0x3
 4581 113e F3       		.byte	0xf3
 4582 113f 01       		.uleb128 0x1
 4583 1140 53       		.byte	0x53
 4584 1141 00       		.byte	0
 4585 1142 14       		.uleb128 0x14
 4586 1143 24000000 		.4byte	.LVL124
 4587 1147 98150000 		.4byte	0x1598
 4588 114b 5F110000 		.4byte	0x115f
 4589 114f 15       		.uleb128 0x15
 4590 1150 01       		.uleb128 0x1
 4591 1151 50       		.byte	0x50
 4592 1152 02       		.uleb128 0x2
 4593 1153 75       		.byte	0x75
 4594 1154 00       		.sleb128 0
 4595 1155 15       		.uleb128 0x15
 4596 1156 01       		.uleb128 0x1
 4597 1157 51       		.byte	0x51
 4598 1158 05       		.uleb128 0x5
 4599 1159 03       		.byte	0x3
 4600 115a 64010000 		.4byte	.LANCHOR0+356
 4601 115e 00       		.byte	0
 4602 115f 14       		.uleb128 0x14
 4603 1160 2E000000 		.4byte	.LVL125
 4604 1164 A4150000 		.4byte	0x15a4
 4605 1168 73110000 		.4byte	0x1173
 4606 116c 15       		.uleb128 0x15
 4607 116d 01       		.uleb128 0x1
 4608 116e 50       		.byte	0x50
 4609 116f 02       		.uleb128 0x2
 4610 1170 75       		.byte	0x75
 4611 1171 00       		.sleb128 0
 4612 1172 00       		.byte	0
 4613 1173 14       		.uleb128 0x14
 4614 1174 36000000 		.4byte	.LVL126
 4615 1178 80150000 		.4byte	0x1580
 4616 117c 90110000 		.4byte	0x1190
 4617 1180 15       		.uleb128 0x15
 4618 1181 01       		.uleb128 0x1
 4619 1182 50       		.byte	0x50
 4620 1183 02       		.uleb128 0x2
 4621 1184 75       		.byte	0x75
 4622 1185 00       		.sleb128 0
 4623 1186 15       		.uleb128 0x15
 4624 1187 01       		.uleb128 0x1
 4625 1188 51       		.byte	0x51
 4626 1189 05       		.uleb128 0x5
 4627 118a 03       		.byte	0x3
 4628 118b 58020000 		.4byte	.LANCHOR0+600
 4629 118f 00       		.byte	0
 4630 1190 14       		.uleb128 0x14
 4631 1191 44000000 		.4byte	.LVL127
 4632 1195 80150000 		.4byte	0x1580
 4633 1199 AD110000 		.4byte	0x11ad
 4634 119d 15       		.uleb128 0x15
ARM GAS  C:\Users\brian\AppData\Local\Temp\cc1Lhyrd.s 			page 107


 4635 119e 01       		.uleb128 0x1
 4636 119f 50       		.byte	0x50
 4637 11a0 02       		.uleb128 0x2
 4638 11a1 75       		.byte	0x75
 4639 11a2 00       		.sleb128 0
 4640 11a3 15       		.uleb128 0x15
 4641 11a4 01       		.uleb128 0x1
 4642 11a5 51       		.byte	0x51
 4643 11a6 05       		.uleb128 0x5
 4644 11a7 03       		.byte	0x3
 4645 11a8 54000000 		.4byte	.LANCHOR0+84
 4646 11ac 00       		.byte	0
 4647 11ad 16       		.uleb128 0x16
 4648 11ae 58000000 		.4byte	.LVL128
 4649 11b2 80150000 		.4byte	0x1580
 4650 11b6 15       		.uleb128 0x15
 4651 11b7 01       		.uleb128 0x1
 4652 11b8 50       		.byte	0x50
 4653 11b9 02       		.uleb128 0x2
 4654 11ba 75       		.byte	0x75
 4655 11bb 00       		.sleb128 0
 4656 11bc 15       		.uleb128 0x15
 4657 11bd 01       		.uleb128 0x1
 4658 11be 51       		.byte	0x51
 4659 11bf 05       		.uleb128 0x5
 4660 11c0 03       		.byte	0x3
 4661 11c1 4C000000 		.4byte	.LANCHOR0+76
 4662 11c5 00       		.byte	0
 4663 11c6 00       		.byte	0
 4664 11c7 17       		.uleb128 0x17
 4665 11c8 E0030000 		.4byte	.LASF82
 4666 11cc 01       		.byte	0x1
 4667 11cd E104     		.2byte	0x4e1
 4668 11cf 8C000000 		.4byte	0x8c
 4669 11d3 00000000 		.4byte	.LFB14
 4670 11d7 7C000000 		.4byte	.LFE14-.LFB14
 4671 11db 01       		.uleb128 0x1
 4672 11dc 9C       		.byte	0x9c
 4673 11dd CD120000 		.4byte	0x12cd
 4674 11e1 18       		.uleb128 0x18
 4675 11e2 29060000 		.4byte	.LASF65
 4676 11e6 01       		.byte	0x1
 4677 11e7 E104     		.2byte	0x4e1
 4678 11e9 43030000 		.4byte	0x343
 4679 11ed C6090000 		.4byte	.LLST59
 4680 11f1 19       		.uleb128 0x19
 4681 11f2 6D736700 		.ascii	"msg\000"
 4682 11f6 01       		.byte	0x1
 4683 11f7 E104     		.2byte	0x4e1
 4684 11f9 8C000000 		.4byte	0x8c
 4685 11fd F2090000 		.4byte	.LLST60
 4686 1201 18       		.uleb128 0x18
 4687 1202 CD020000 		.4byte	.LASF66
 4688 1206 01       		.byte	0x1
 4689 1207 E104     		.2byte	0x4e1
 4690 1209 8C000000 		.4byte	0x8c
 4691 120d 130A0000 		.4byte	.LLST61
ARM GAS  C:\Users\brian\AppData\Local\Temp\cc1Lhyrd.s 			page 108


 4692 1211 18       		.uleb128 0x18
 4693 1212 EA070000 		.4byte	.LASF67
 4694 1216 01       		.byte	0x1
 4695 1217 E104     		.2byte	0x4e1
 4696 1219 AD000000 		.4byte	0xad
 4697 121d 340A0000 		.4byte	.LLST62
 4698 1221 14       		.uleb128 0x14
 4699 1222 0C000000 		.4byte	.LVL131
 4700 1226 8A030000 		.4byte	0x38a
 4701 122a 48120000 		.4byte	0x1248
 4702 122e 15       		.uleb128 0x15
 4703 122f 01       		.uleb128 0x1
 4704 1230 50       		.byte	0x50
 4705 1231 02       		.uleb128 0x2
 4706 1232 75       		.byte	0x75
 4707 1233 00       		.sleb128 0
 4708 1234 15       		.uleb128 0x15
 4709 1235 01       		.uleb128 0x1
 4710 1236 51       		.byte	0x51
 4711 1237 02       		.uleb128 0x2
 4712 1238 74       		.byte	0x74
 4713 1239 00       		.sleb128 0
 4714 123a 15       		.uleb128 0x15
 4715 123b 01       		.uleb128 0x1
 4716 123c 52       		.byte	0x52
 4717 123d 02       		.uleb128 0x2
 4718 123e 76       		.byte	0x76
 4719 123f 00       		.sleb128 0
 4720 1240 15       		.uleb128 0x15
 4721 1241 01       		.uleb128 0x1
 4722 1242 53       		.byte	0x53
 4723 1243 03       		.uleb128 0x3
 4724 1244 F3       		.byte	0xf3
 4725 1245 01       		.uleb128 0x1
 4726 1246 53       		.byte	0x53
 4727 1247 00       		.byte	0
 4728 1248 14       		.uleb128 0x14
 4729 1249 24000000 		.4byte	.LVL132
 4730 124d 98150000 		.4byte	0x1598
 4731 1251 65120000 		.4byte	0x1265
 4732 1255 15       		.uleb128 0x15
 4733 1256 01       		.uleb128 0x1
 4734 1257 50       		.byte	0x50
 4735 1258 02       		.uleb128 0x2
 4736 1259 75       		.byte	0x75
 4737 125a 00       		.sleb128 0
 4738 125b 15       		.uleb128 0x15
 4739 125c 01       		.uleb128 0x1
 4740 125d 51       		.byte	0x51
 4741 125e 05       		.uleb128 0x5
 4742 125f 03       		.byte	0x3
 4743 1260 78020000 		.4byte	.LANCHOR0+632
 4744 1264 00       		.byte	0
 4745 1265 14       		.uleb128 0x14
 4746 1266 2E000000 		.4byte	.LVL133
 4747 126a A4150000 		.4byte	0x15a4
 4748 126e 79120000 		.4byte	0x1279
ARM GAS  C:\Users\brian\AppData\Local\Temp\cc1Lhyrd.s 			page 109


 4749 1272 15       		.uleb128 0x15
 4750 1273 01       		.uleb128 0x1
 4751 1274 50       		.byte	0x50
 4752 1275 02       		.uleb128 0x2
 4753 1276 75       		.byte	0x75
 4754 1277 00       		.sleb128 0
 4755 1278 00       		.byte	0
 4756 1279 14       		.uleb128 0x14
 4757 127a 36000000 		.4byte	.LVL134
 4758 127e 80150000 		.4byte	0x1580
 4759 1282 96120000 		.4byte	0x1296
 4760 1286 15       		.uleb128 0x15
 4761 1287 01       		.uleb128 0x1
 4762 1288 50       		.byte	0x50
 4763 1289 02       		.uleb128 0x2
 4764 128a 75       		.byte	0x75
 4765 128b 00       		.sleb128 0
 4766 128c 15       		.uleb128 0x15
 4767 128d 01       		.uleb128 0x1
 4768 128e 51       		.byte	0x51
 4769 128f 05       		.uleb128 0x5
 4770 1290 03       		.byte	0x3
 4771 1291 90020000 		.4byte	.LANCHOR0+656
 4772 1295 00       		.byte	0
 4773 1296 14       		.uleb128 0x14
 4774 1297 44000000 		.4byte	.LVL135
 4775 129b 80150000 		.4byte	0x1580
 4776 129f B3120000 		.4byte	0x12b3
 4777 12a3 15       		.uleb128 0x15
 4778 12a4 01       		.uleb128 0x1
 4779 12a5 50       		.byte	0x50
 4780 12a6 02       		.uleb128 0x2
 4781 12a7 75       		.byte	0x75
 4782 12a8 00       		.sleb128 0
 4783 12a9 15       		.uleb128 0x15
 4784 12aa 01       		.uleb128 0x1
 4785 12ab 51       		.byte	0x51
 4786 12ac 05       		.uleb128 0x5
 4787 12ad 03       		.byte	0x3
 4788 12ae 4C000000 		.4byte	.LANCHOR0+76
 4789 12b2 00       		.byte	0
 4790 12b3 16       		.uleb128 0x16
 4791 12b4 58000000 		.4byte	.LVL136
 4792 12b8 80150000 		.4byte	0x1580
 4793 12bc 15       		.uleb128 0x15
 4794 12bd 01       		.uleb128 0x1
 4795 12be 50       		.byte	0x50
 4796 12bf 02       		.uleb128 0x2
 4797 12c0 75       		.byte	0x75
 4798 12c1 00       		.sleb128 0
 4799 12c2 15       		.uleb128 0x15
 4800 12c3 01       		.uleb128 0x1
 4801 12c4 51       		.byte	0x51
 4802 12c5 05       		.uleb128 0x5
 4803 12c6 03       		.byte	0x3
 4804 12c7 54000000 		.4byte	.LANCHOR0+84
 4805 12cb 00       		.byte	0
ARM GAS  C:\Users\brian\AppData\Local\Temp\cc1Lhyrd.s 			page 110


 4806 12cc 00       		.byte	0
 4807 12cd 1A       		.uleb128 0x1a
 4808 12ce 85030000 		.4byte	0x385
 4809 12d2 DD120000 		.4byte	0x12dd
 4810 12d6 1B       		.uleb128 0x1b
 4811 12d7 DD120000 		.4byte	0x12dd
 4812 12db 06       		.byte	0x6
 4813 12dc 00       		.byte	0
 4814 12dd 02       		.uleb128 0x2
 4815 12de 04       		.byte	0x4
 4816 12df 07       		.byte	0x7
 4817 12e0 D7040000 		.4byte	.LASF83
 4818 12e4 1C       		.uleb128 0x1c
 4819 12e5 61040000 		.4byte	.LASF84
 4820 12e9 01       		.byte	0x1
 4821 12ea 2B       		.byte	0x2b
 4822 12eb F5120000 		.4byte	0x12f5
 4823 12ef 05       		.uleb128 0x5
 4824 12f0 03       		.byte	0x3
 4825 12f1 00000000 		.4byte	u8x8_d_st7565_powersave0_seq
 4826 12f5 0E       		.uleb128 0xe
 4827 12f6 CD120000 		.4byte	0x12cd
 4828 12fa 1C       		.uleb128 0x1c
 4829 12fb 88010000 		.4byte	.LASF85
 4830 12ff 01       		.byte	0x1
 4831 1300 33       		.byte	0x33
 4832 1301 0B130000 		.4byte	0x130b
 4833 1305 05       		.uleb128 0x5
 4834 1306 03       		.byte	0x3
 4835 1307 08000000 		.4byte	u8x8_d_st7565_powersave1_seq
 4836 130b 0E       		.uleb128 0xe
 4837 130c CD120000 		.4byte	0x12cd
 4838 1310 1C       		.uleb128 0x1c
 4839 1311 BF040000 		.4byte	.LASF86
 4840 1315 01       		.byte	0x1
 4841 1316 3B       		.byte	0x3b
 4842 1317 21130000 		.4byte	0x1321
 4843 131b 05       		.uleb128 0x5
 4844 131c 03       		.byte	0x3
 4845 131d 4C000000 		.4byte	u8x8_d_st7565_flip0_seq
 4846 1321 0E       		.uleb128 0xe
 4847 1322 CD120000 		.4byte	0x12cd
 4848 1326 1C       		.uleb128 0x1c
 4849 1327 DC000000 		.4byte	.LASF87
 4850 132b 01       		.byte	0x1
 4851 132c 43       		.byte	0x43
 4852 132d 37130000 		.4byte	0x1337
 4853 1331 05       		.uleb128 0x5
 4854 1332 03       		.byte	0x3
 4855 1333 54000000 		.4byte	u8x8_d_st7565_flip1_seq
 4856 1337 0E       		.uleb128 0xe
 4857 1338 CD120000 		.4byte	0x12cd
 4858 133c 1C       		.uleb128 0x1c
 4859 133d 5A080000 		.4byte	.LASF88
 4860 1341 01       		.byte	0x1
 4861 1342 4B       		.byte	0x4b
 4862 1343 4D130000 		.4byte	0x134d
ARM GAS  C:\Users\brian\AppData\Local\Temp\cc1Lhyrd.s 			page 111


 4863 1347 05       		.uleb128 0x5
 4864 1348 03       		.byte	0x3
 4865 1349 DC000000 		.4byte	u8x8_d_st7565_zflip0_seq
 4866 134d 0E       		.uleb128 0xe
 4867 134e CD120000 		.4byte	0x12cd
 4868 1352 1C       		.uleb128 0x1c
 4869 1353 17030000 		.4byte	.LASF89
 4870 1357 01       		.byte	0x1
 4871 1358 53       		.byte	0x53
 4872 1359 63130000 		.4byte	0x1363
 4873 135d 05       		.uleb128 0x5
 4874 135e 03       		.byte	0x3
 4875 135f E4000000 		.4byte	u8x8_d_st7565_zflip1_seq
 4876 1363 0E       		.uleb128 0xe
 4877 1364 CD120000 		.4byte	0x12cd
 4878 1368 1C       		.uleb128 0x1c
 4879 1369 4F030000 		.4byte	.LASF90
 4880 136d 01       		.byte	0x1
 4881 136e 5B       		.byte	0x5b
 4882 136f 7A030000 		.4byte	0x37a
 4883 1373 05       		.uleb128 0x5
 4884 1374 03       		.byte	0x3
 4885 1375 10000000 		.4byte	u8x8_st7565_128x64_display_info
 4886 1379 1A       		.uleb128 0x1a
 4887 137a 85030000 		.4byte	0x385
 4888 137e 89130000 		.4byte	0x1389
 4889 1382 1B       		.uleb128 0x1b
 4890 1383 DD120000 		.4byte	0x12dd
 4891 1387 20       		.byte	0x20
 4892 1388 00       		.byte	0
 4893 1389 1C       		.uleb128 0x1c
 4894 138a FD080000 		.4byte	.LASF91
 4895 138e 01       		.byte	0x1
 4896 138f B8       		.byte	0xb8
 4897 1390 9A130000 		.4byte	0x139a
 4898 1394 05       		.uleb128 0x5
 4899 1395 03       		.byte	0x3
 4900 1396 28000000 		.4byte	u8x8_d_st7565_dogm128_init_seq
 4901 139a 0E       		.uleb128 0xe
 4902 139b 79130000 		.4byte	0x1379
 4903 139f 1C       		.uleb128 0x1c
 4904 13a0 D3090000 		.4byte	.LASF92
 4905 13a4 01       		.byte	0x1
 4906 13a5 FB       		.byte	0xfb
 4907 13a6 B0130000 		.4byte	0x13b0
 4908 13aa 05       		.uleb128 0x5
 4909 13ab 03       		.byte	0x3
 4910 13ac 5C000000 		.4byte	u8x8_d_st7565_lm6063_init_seq
 4911 13b0 0E       		.uleb128 0xe
 4912 13b1 79130000 		.4byte	0x1379
 4913 13b5 1A       		.uleb128 0x1a
 4914 13b6 85030000 		.4byte	0x385
 4915 13ba C5130000 		.4byte	0x13c5
 4916 13be 1B       		.uleb128 0x1b
 4917 13bf DD120000 		.4byte	0x12dd
 4918 13c3 1C       		.byte	0x1c
 4919 13c4 00       		.byte	0
ARM GAS  C:\Users\brian\AppData\Local\Temp\cc1Lhyrd.s 			page 112


 4920 13c5 1D       		.uleb128 0x1d
 4921 13c6 6F030000 		.4byte	.LASF93
 4922 13ca 01       		.byte	0x1
 4923 13cb 3D01     		.2byte	0x13d
 4924 13cd D7130000 		.4byte	0x13d7
 4925 13d1 05       		.uleb128 0x5
 4926 13d2 03       		.byte	0x3
 4927 13d3 98000000 		.4byte	u8x8_d_st7565_64128n_init_seq
 4928 13d7 0E       		.uleb128 0xe
 4929 13d8 B5130000 		.4byte	0x13b5
 4930 13dc 1D       		.uleb128 0x1d
 4931 13dd 35090000 		.4byte	.LASF94
 4932 13e1 01       		.byte	0x1
 4933 13e2 7B01     		.2byte	0x17b
 4934 13e4 7A030000 		.4byte	0x37a
 4935 13e8 05       		.uleb128 0x5
 4936 13e9 03       		.byte	0x3
 4937 13ea 80000000 		.4byte	u8x8_st7565_64128n_display_info
 4938 13ee 1D       		.uleb128 0x1d
 4939 13ef F3020000 		.4byte	.LASF95
 4940 13f3 01       		.byte	0x1
 4941 13f4 B801     		.2byte	0x1b8
 4942 13f6 00140000 		.4byte	0x1400
 4943 13fa 05       		.uleb128 0x5
 4944 13fb 03       		.byte	0x3
 4945 13fc B8000000 		.4byte	u8x8_d_st7565_zolen_128x64_init_seq
 4946 1400 0E       		.uleb128 0xe
 4947 1401 79130000 		.4byte	0x1379
 4948 1405 1D       		.uleb128 0x1d
 4949 1406 2E060000 		.4byte	.LASF96
 4950 140a 01       		.byte	0x1
 4951 140b FB01     		.2byte	0x1fb
 4952 140d 7A030000 		.4byte	0x37a
 4953 1411 05       		.uleb128 0x5
 4954 1412 03       		.byte	0x3
 4955 1413 EC000000 		.4byte	u8x8_st7565_128x32_display_info
 4956 1417 1D       		.uleb128 0x1d
 4957 1418 FD050000 		.4byte	.LASF97
 4958 141c 01       		.byte	0x1
 4959 141d 1402     		.2byte	0x214
 4960 141f 29140000 		.4byte	0x1429
 4961 1423 05       		.uleb128 0x5
 4962 1424 03       		.byte	0x3
 4963 1425 04010000 		.4byte	u8x8_d_st7565_nhd_c12832_init_seq
 4964 1429 0E       		.uleb128 0xe
 4965 142a 79130000 		.4byte	0x1379
 4966 142e 1D       		.uleb128 0x1d
 4967 142f F9030000 		.4byte	.LASF98
 4968 1433 01       		.byte	0x1
 4969 1434 5502     		.2byte	0x255
 4970 1436 7A030000 		.4byte	0x37a
 4971 143a 05       		.uleb128 0x5
 4972 143b 03       		.byte	0x3
 4973 143c 28010000 		.4byte	u8x8_st7565_nhd_c12864_display_info
 4974 1440 1D       		.uleb128 0x1d
 4975 1441 4A050000 		.4byte	.LASF99
 4976 1445 01       		.byte	0x1
ARM GAS  C:\Users\brian\AppData\Local\Temp\cc1Lhyrd.s 			page 113


 4977 1446 6E02     		.2byte	0x26e
 4978 1448 52140000 		.4byte	0x1452
 4979 144c 05       		.uleb128 0x5
 4980 144d 03       		.byte	0x3
 4981 144e 40010000 		.4byte	u8x8_d_st7565_nhd_c12864_init_seq
 4982 1452 0E       		.uleb128 0xe
 4983 1453 79130000 		.4byte	0x1379
 4984 1457 1D       		.uleb128 0x1d
 4985 1458 08050000 		.4byte	.LASF100
 4986 145c 01       		.byte	0x1
 4987 145d B702     		.2byte	0x2b7
 4988 145f 69140000 		.4byte	0x1469
 4989 1463 05       		.uleb128 0x5
 4990 1464 03       		.byte	0x3
 4991 1465 7C010000 		.4byte	u8x8_d_st7565_lm6059_init_seq
 4992 1469 0E       		.uleb128 0xe
 4993 146a 79130000 		.4byte	0x1379
 4994 146e 1D       		.uleb128 0x1d
 4995 146f 3A010000 		.4byte	.LASF101
 4996 1473 01       		.byte	0x1
 4997 1474 D502     		.2byte	0x2d5
 4998 1476 7A030000 		.4byte	0x37a
 4999 147a 05       		.uleb128 0x5
 5000 147b 03       		.byte	0x3
 5001 147c 64010000 		.4byte	u8x8_st7565_lm6059_display_info
 5002 1480 1A       		.uleb128 0x1a
 5003 1481 85030000 		.4byte	0x385
 5004 1485 90140000 		.4byte	0x1490
 5005 1489 1B       		.uleb128 0x1b
 5006 148a DD120000 		.4byte	0x12dd
 5007 148e 18       		.byte	0x18
 5008 148f 00       		.byte	0
 5009 1490 1D       		.uleb128 0x1d
 5010 1491 AE050000 		.4byte	.LASF102
 5011 1495 01       		.byte	0x1
 5012 1496 1303     		.2byte	0x313
 5013 1498 A2140000 		.4byte	0x14a2
 5014 149c 05       		.uleb128 0x5
 5015 149d 03       		.byte	0x3
 5016 149e A0010000 		.4byte	u8x8_d_st7565_ks0713_init_seq
 5017 14a2 0E       		.uleb128 0xe
 5018 14a3 80140000 		.4byte	0x1480
 5019 14a7 1D       		.uleb128 0x1d
 5020 14a8 40000000 		.4byte	.LASF103
 5021 14ac 01       		.byte	0x1
 5022 14ad 4A03     		.2byte	0x34a
 5023 14af B9140000 		.4byte	0x14b9
 5024 14b3 05       		.uleb128 0x5
 5025 14b4 03       		.byte	0x3
 5026 14b5 D4010000 		.4byte	u8x8_d_st7565_lx12864_init_seq
 5027 14b9 0E       		.uleb128 0xe
 5028 14ba 79130000 		.4byte	0x1379
 5029 14be 1D       		.uleb128 0x1d
 5030 14bf 25080000 		.4byte	.LASF104
 5031 14c3 01       		.byte	0x1
 5032 14c4 6803     		.2byte	0x368
 5033 14c6 7A030000 		.4byte	0x37a
ARM GAS  C:\Users\brian\AppData\Local\Temp\cc1Lhyrd.s 			page 114


 5034 14ca 05       		.uleb128 0x5
 5035 14cb 03       		.byte	0x3
 5036 14cc BC010000 		.4byte	u8x8_st7565_lx12864_display_info
 5037 14d0 1D       		.uleb128 0x1d
 5038 14d1 7C090000 		.4byte	.LASF105
 5039 14d5 01       		.byte	0x1
 5040 14d6 A603     		.2byte	0x3a6
 5041 14d8 E2140000 		.4byte	0x14e2
 5042 14dc 05       		.uleb128 0x5
 5043 14dd 03       		.byte	0x3
 5044 14de 10020000 		.4byte	u8x8_d_st7565_erc12864_init_seq
 5045 14e2 0E       		.uleb128 0xe
 5046 14e3 79130000 		.4byte	0x1379
 5047 14e7 1D       		.uleb128 0x1d
 5048 14e8 9C000000 		.4byte	.LASF106
 5049 14ec 01       		.byte	0x1
 5050 14ed C403     		.2byte	0x3c4
 5051 14ef 7A030000 		.4byte	0x37a
 5052 14f3 05       		.uleb128 0x5
 5053 14f4 03       		.byte	0x3
 5054 14f5 F8010000 		.4byte	u8x8_st7565_erc12864_display_info
 5055 14f9 1D       		.uleb128 0x1d
 5056 14fa F4010000 		.4byte	.LASF107
 5057 14fe 01       		.byte	0x1
 5058 14ff 0404     		.2byte	0x404
 5059 1501 0B150000 		.4byte	0x150b
 5060 1505 05       		.uleb128 0x5
 5061 1506 03       		.byte	0x3
 5062 1507 34020000 		.4byte	u8x8_d_st7565_erc12864_alt_init_seq
 5063 150b 0E       		.uleb128 0xe
 5064 150c 79130000 		.4byte	0x1379
 5065 1510 1D       		.uleb128 0x1d
 5066 1511 7F080000 		.4byte	.LASF108
 5067 1515 01       		.byte	0x1
 5068 1516 6704     		.2byte	0x467
 5069 1518 22150000 		.4byte	0x1522
 5070 151c 05       		.uleb128 0x5
 5071 151d 03       		.byte	0x3
 5072 151e 58020000 		.4byte	u8x8_d_nt7534_tg12864r_init_seq
 5073 1522 0E       		.uleb128 0xe
 5074 1523 B5130000 		.4byte	0x13b5
 5075 1527 1D       		.uleb128 0x1d
 5076 1528 9F080000 		.4byte	.LASF109
 5077 152c 01       		.byte	0x1
 5078 152d AC04     		.2byte	0x4ac
 5079 152f 7A030000 		.4byte	0x37a
 5080 1533 05       		.uleb128 0x5
 5081 1534 03       		.byte	0x3
 5082 1535 78020000 		.4byte	u8x8_st7565_dogm132_display_info
 5083 1539 1D       		.uleb128 0x1d
 5084 153a 30030000 		.4byte	.LASF110
 5085 153e 01       		.byte	0x1
 5086 153f C504     		.2byte	0x4c5
 5087 1541 4B150000 		.4byte	0x154b
 5088 1545 05       		.uleb128 0x5
 5089 1546 03       		.byte	0x3
 5090 1547 90020000 		.4byte	u8x8_d_st7565_dogm132_init_seq
ARM GAS  C:\Users\brian\AppData\Local\Temp\cc1Lhyrd.s 			page 115


 5091 154b 0E       		.uleb128 0xe
 5092 154c 79130000 		.4byte	0x1379
 5093 1550 1E       		.uleb128 0x1e
 5094 1551 24070000 		.4byte	.LASF111
 5095 1555 24070000 		.4byte	.LASF111
 5096 1559 04       		.byte	0x4
 5097 155a 6B02     		.2byte	0x26b
 5098 155c 1E       		.uleb128 0x1e
 5099 155d EC080000 		.4byte	.LASF112
 5100 1561 EC080000 		.4byte	.LASF112
 5101 1565 04       		.byte	0x4
 5102 1566 6702     		.2byte	0x267
 5103 1568 1E       		.uleb128 0x1e
 5104 1569 8D030000 		.4byte	.LASF113
 5105 156d 8D030000 		.4byte	.LASF113
 5106 1571 04       		.byte	0x4
 5107 1572 6A02     		.2byte	0x26a
 5108 1574 1E       		.uleb128 0x1e
 5109 1575 85070000 		.4byte	.LASF114
 5110 1579 85070000 		.4byte	.LASF114
 5111 157d 04       		.byte	0x4
 5112 157e 6C02     		.2byte	0x26c
 5113 1580 1E       		.uleb128 0x1e
 5114 1581 AE010000 		.4byte	.LASF115
 5115 1585 AE010000 		.4byte	.LASF115
 5116 1589 04       		.byte	0x4
 5117 158a 8A02     		.2byte	0x28a
 5118 158c 1E       		.uleb128 0x1e
 5119 158d 55090000 		.4byte	.LASF116
 5120 1591 55090000 		.4byte	.LASF116
 5121 1595 04       		.byte	0x4
 5122 1596 6802     		.2byte	0x268
 5123 1598 1E       		.uleb128 0x1e
 5124 1599 77020000 		.4byte	.LASF117
 5125 159d 77020000 		.4byte	.LASF117
 5126 15a1 04       		.byte	0x4
 5127 15a2 AE01     		.2byte	0x1ae
 5128 15a4 1E       		.uleb128 0x1e
 5129 15a5 2F050000 		.4byte	.LASF118
 5130 15a9 2F050000 		.4byte	.LASF118
 5131 15ad 04       		.byte	0x4
 5132 15ae AF01     		.2byte	0x1af
 5133 15b0 00       		.byte	0
 5134              		.section	.debug_abbrev,"",%progbits
 5135              	.Ldebug_abbrev0:
 5136 0000 01       		.uleb128 0x1
 5137 0001 11       		.uleb128 0x11
 5138 0002 01       		.byte	0x1
 5139 0003 25       		.uleb128 0x25
 5140 0004 0E       		.uleb128 0xe
 5141 0005 13       		.uleb128 0x13
 5142 0006 0B       		.uleb128 0xb
 5143 0007 03       		.uleb128 0x3
 5144 0008 0E       		.uleb128 0xe
 5145 0009 1B       		.uleb128 0x1b
 5146 000a 0E       		.uleb128 0xe
 5147 000b 55       		.uleb128 0x55
ARM GAS  C:\Users\brian\AppData\Local\Temp\cc1Lhyrd.s 			page 116


 5148 000c 17       		.uleb128 0x17
 5149 000d 11       		.uleb128 0x11
 5150 000e 01       		.uleb128 0x1
 5151 000f 10       		.uleb128 0x10
 5152 0010 17       		.uleb128 0x17
 5153 0011 00       		.byte	0
 5154 0012 00       		.byte	0
 5155 0013 02       		.uleb128 0x2
 5156 0014 24       		.uleb128 0x24
 5157 0015 00       		.byte	0
 5158 0016 0B       		.uleb128 0xb
 5159 0017 0B       		.uleb128 0xb
 5160 0018 3E       		.uleb128 0x3e
 5161 0019 0B       		.uleb128 0xb
 5162 001a 03       		.uleb128 0x3
 5163 001b 0E       		.uleb128 0xe
 5164 001c 00       		.byte	0
 5165 001d 00       		.byte	0
 5166 001e 03       		.uleb128 0x3
 5167 001f 16       		.uleb128 0x16
 5168 0020 00       		.byte	0
 5169 0021 03       		.uleb128 0x3
 5170 0022 0E       		.uleb128 0xe
 5171 0023 3A       		.uleb128 0x3a
 5172 0024 0B       		.uleb128 0xb
 5173 0025 3B       		.uleb128 0x3b
 5174 0026 0B       		.uleb128 0xb
 5175 0027 49       		.uleb128 0x49
 5176 0028 13       		.uleb128 0x13
 5177 0029 00       		.byte	0
 5178 002a 00       		.byte	0
 5179 002b 04       		.uleb128 0x4
 5180 002c 24       		.uleb128 0x24
 5181 002d 00       		.byte	0
 5182 002e 0B       		.uleb128 0xb
 5183 002f 0B       		.uleb128 0xb
 5184 0030 3E       		.uleb128 0x3e
 5185 0031 0B       		.uleb128 0xb
 5186 0032 03       		.uleb128 0x3
 5187 0033 08       		.uleb128 0x8
 5188 0034 00       		.byte	0
 5189 0035 00       		.byte	0
 5190 0036 05       		.uleb128 0x5
 5191 0037 0F       		.uleb128 0xf
 5192 0038 00       		.byte	0
 5193 0039 0B       		.uleb128 0xb
 5194 003a 0B       		.uleb128 0xb
 5195 003b 00       		.byte	0
 5196 003c 00       		.byte	0
 5197 003d 06       		.uleb128 0x6
 5198 003e 13       		.uleb128 0x13
 5199 003f 01       		.byte	0x1
 5200 0040 03       		.uleb128 0x3
 5201 0041 0E       		.uleb128 0xe
 5202 0042 0B       		.uleb128 0xb
 5203 0043 0B       		.uleb128 0xb
 5204 0044 3A       		.uleb128 0x3a
ARM GAS  C:\Users\brian\AppData\Local\Temp\cc1Lhyrd.s 			page 117


 5205 0045 0B       		.uleb128 0xb
 5206 0046 3B       		.uleb128 0x3b
 5207 0047 05       		.uleb128 0x5
 5208 0048 01       		.uleb128 0x1
 5209 0049 13       		.uleb128 0x13
 5210 004a 00       		.byte	0
 5211 004b 00       		.byte	0
 5212 004c 07       		.uleb128 0x7
 5213 004d 0D       		.uleb128 0xd
 5214 004e 00       		.byte	0
 5215 004f 03       		.uleb128 0x3
 5216 0050 0E       		.uleb128 0xe
 5217 0051 3A       		.uleb128 0x3a
 5218 0052 0B       		.uleb128 0xb
 5219 0053 3B       		.uleb128 0x3b
 5220 0054 05       		.uleb128 0x5
 5221 0055 49       		.uleb128 0x49
 5222 0056 13       		.uleb128 0x13
 5223 0057 38       		.uleb128 0x38
 5224 0058 0B       		.uleb128 0xb
 5225 0059 00       		.byte	0
 5226 005a 00       		.byte	0
 5227 005b 08       		.uleb128 0x8
 5228 005c 13       		.uleb128 0x13
 5229 005d 01       		.byte	0x1
 5230 005e 03       		.uleb128 0x3
 5231 005f 0E       		.uleb128 0xe
 5232 0060 0B       		.uleb128 0xb
 5233 0061 0B       		.uleb128 0xb
 5234 0062 3A       		.uleb128 0x3a
 5235 0063 0B       		.uleb128 0xb
 5236 0064 3B       		.uleb128 0x3b
 5237 0065 0B       		.uleb128 0xb
 5238 0066 01       		.uleb128 0x1
 5239 0067 13       		.uleb128 0x13
 5240 0068 00       		.byte	0
 5241 0069 00       		.byte	0
 5242 006a 09       		.uleb128 0x9
 5243 006b 0D       		.uleb128 0xd
 5244 006c 00       		.byte	0
 5245 006d 03       		.uleb128 0x3
 5246 006e 0E       		.uleb128 0xe
 5247 006f 3A       		.uleb128 0x3a
 5248 0070 0B       		.uleb128 0xb
 5249 0071 3B       		.uleb128 0x3b
 5250 0072 0B       		.uleb128 0xb
 5251 0073 49       		.uleb128 0x49
 5252 0074 13       		.uleb128 0x13
 5253 0075 38       		.uleb128 0x38
 5254 0076 0B       		.uleb128 0xb
 5255 0077 00       		.byte	0
 5256 0078 00       		.byte	0
 5257 0079 0A       		.uleb128 0xa
 5258 007a 0D       		.uleb128 0xd
 5259 007b 00       		.byte	0
 5260 007c 03       		.uleb128 0x3
 5261 007d 08       		.uleb128 0x8
ARM GAS  C:\Users\brian\AppData\Local\Temp\cc1Lhyrd.s 			page 118


 5262 007e 3A       		.uleb128 0x3a
 5263 007f 0B       		.uleb128 0xb
 5264 0080 3B       		.uleb128 0x3b
 5265 0081 0B       		.uleb128 0xb
 5266 0082 49       		.uleb128 0x49
 5267 0083 13       		.uleb128 0x13
 5268 0084 38       		.uleb128 0x38
 5269 0085 0B       		.uleb128 0xb
 5270 0086 00       		.byte	0
 5271 0087 00       		.byte	0
 5272 0088 0B       		.uleb128 0xb
 5273 0089 0F       		.uleb128 0xf
 5274 008a 00       		.byte	0
 5275 008b 0B       		.uleb128 0xb
 5276 008c 0B       		.uleb128 0xb
 5277 008d 49       		.uleb128 0x49
 5278 008e 13       		.uleb128 0x13
 5279 008f 00       		.byte	0
 5280 0090 00       		.byte	0
 5281 0091 0C       		.uleb128 0xc
 5282 0092 15       		.uleb128 0x15
 5283 0093 01       		.byte	0x1
 5284 0094 27       		.uleb128 0x27
 5285 0095 19       		.uleb128 0x19
 5286 0096 49       		.uleb128 0x49
 5287 0097 13       		.uleb128 0x13
 5288 0098 01       		.uleb128 0x1
 5289 0099 13       		.uleb128 0x13
 5290 009a 00       		.byte	0
 5291 009b 00       		.byte	0
 5292 009c 0D       		.uleb128 0xd
 5293 009d 05       		.uleb128 0x5
 5294 009e 00       		.byte	0
 5295 009f 49       		.uleb128 0x49
 5296 00a0 13       		.uleb128 0x13
 5297 00a1 00       		.byte	0
 5298 00a2 00       		.byte	0
 5299 00a3 0E       		.uleb128 0xe
 5300 00a4 26       		.uleb128 0x26
 5301 00a5 00       		.byte	0
 5302 00a6 49       		.uleb128 0x49
 5303 00a7 13       		.uleb128 0x13
 5304 00a8 00       		.byte	0
 5305 00a9 00       		.byte	0
 5306 00aa 0F       		.uleb128 0xf
 5307 00ab 2E       		.uleb128 0x2e
 5308 00ac 01       		.byte	0x1
 5309 00ad 3F       		.uleb128 0x3f
 5310 00ae 19       		.uleb128 0x19
 5311 00af 03       		.uleb128 0x3
 5312 00b0 0E       		.uleb128 0xe
 5313 00b1 3A       		.uleb128 0x3a
 5314 00b2 0B       		.uleb128 0xb
 5315 00b3 3B       		.uleb128 0x3b
 5316 00b4 0B       		.uleb128 0xb
 5317 00b5 27       		.uleb128 0x27
 5318 00b6 19       		.uleb128 0x19
ARM GAS  C:\Users\brian\AppData\Local\Temp\cc1Lhyrd.s 			page 119


 5319 00b7 49       		.uleb128 0x49
 5320 00b8 13       		.uleb128 0x13
 5321 00b9 11       		.uleb128 0x11
 5322 00ba 01       		.uleb128 0x1
 5323 00bb 12       		.uleb128 0x12
 5324 00bc 06       		.uleb128 0x6
 5325 00bd 40       		.uleb128 0x40
 5326 00be 18       		.uleb128 0x18
 5327 00bf 9742     		.uleb128 0x2117
 5328 00c1 19       		.uleb128 0x19
 5329 00c2 01       		.uleb128 0x1
 5330 00c3 13       		.uleb128 0x13
 5331 00c4 00       		.byte	0
 5332 00c5 00       		.byte	0
 5333 00c6 10       		.uleb128 0x10
 5334 00c7 05       		.uleb128 0x5
 5335 00c8 00       		.byte	0
 5336 00c9 03       		.uleb128 0x3
 5337 00ca 0E       		.uleb128 0xe
 5338 00cb 3A       		.uleb128 0x3a
 5339 00cc 0B       		.uleb128 0xb
 5340 00cd 3B       		.uleb128 0x3b
 5341 00ce 0B       		.uleb128 0xb
 5342 00cf 49       		.uleb128 0x49
 5343 00d0 13       		.uleb128 0x13
 5344 00d1 02       		.uleb128 0x2
 5345 00d2 17       		.uleb128 0x17
 5346 00d3 00       		.byte	0
 5347 00d4 00       		.byte	0
 5348 00d5 11       		.uleb128 0x11
 5349 00d6 05       		.uleb128 0x5
 5350 00d7 00       		.byte	0
 5351 00d8 03       		.uleb128 0x3
 5352 00d9 08       		.uleb128 0x8
 5353 00da 3A       		.uleb128 0x3a
 5354 00db 0B       		.uleb128 0xb
 5355 00dc 3B       		.uleb128 0x3b
 5356 00dd 0B       		.uleb128 0xb
 5357 00de 49       		.uleb128 0x49
 5358 00df 13       		.uleb128 0x13
 5359 00e0 02       		.uleb128 0x2
 5360 00e1 17       		.uleb128 0x17
 5361 00e2 00       		.byte	0
 5362 00e3 00       		.byte	0
 5363 00e4 12       		.uleb128 0x12
 5364 00e5 34       		.uleb128 0x34
 5365 00e6 00       		.byte	0
 5366 00e7 03       		.uleb128 0x3
 5367 00e8 08       		.uleb128 0x8
 5368 00e9 3A       		.uleb128 0x3a
 5369 00ea 0B       		.uleb128 0xb
 5370 00eb 3B       		.uleb128 0x3b
 5371 00ec 0B       		.uleb128 0xb
 5372 00ed 49       		.uleb128 0x49
 5373 00ee 13       		.uleb128 0x13
 5374 00ef 02       		.uleb128 0x2
 5375 00f0 17       		.uleb128 0x17
ARM GAS  C:\Users\brian\AppData\Local\Temp\cc1Lhyrd.s 			page 120


 5376 00f1 00       		.byte	0
 5377 00f2 00       		.byte	0
 5378 00f3 13       		.uleb128 0x13
 5379 00f4 898201   		.uleb128 0x4109
 5380 00f7 00       		.byte	0
 5381 00f8 11       		.uleb128 0x11
 5382 00f9 01       		.uleb128 0x1
 5383 00fa 31       		.uleb128 0x31
 5384 00fb 13       		.uleb128 0x13
 5385 00fc 00       		.byte	0
 5386 00fd 00       		.byte	0
 5387 00fe 14       		.uleb128 0x14
 5388 00ff 898201   		.uleb128 0x4109
 5389 0102 01       		.byte	0x1
 5390 0103 11       		.uleb128 0x11
 5391 0104 01       		.uleb128 0x1
 5392 0105 31       		.uleb128 0x31
 5393 0106 13       		.uleb128 0x13
 5394 0107 01       		.uleb128 0x1
 5395 0108 13       		.uleb128 0x13
 5396 0109 00       		.byte	0
 5397 010a 00       		.byte	0
 5398 010b 15       		.uleb128 0x15
 5399 010c 8A8201   		.uleb128 0x410a
 5400 010f 00       		.byte	0
 5401 0110 02       		.uleb128 0x2
 5402 0111 18       		.uleb128 0x18
 5403 0112 9142     		.uleb128 0x2111
 5404 0114 18       		.uleb128 0x18
 5405 0115 00       		.byte	0
 5406 0116 00       		.byte	0
 5407 0117 16       		.uleb128 0x16
 5408 0118 898201   		.uleb128 0x4109
 5409 011b 01       		.byte	0x1
 5410 011c 11       		.uleb128 0x11
 5411 011d 01       		.uleb128 0x1
 5412 011e 31       		.uleb128 0x31
 5413 011f 13       		.uleb128 0x13
 5414 0120 00       		.byte	0
 5415 0121 00       		.byte	0
 5416 0122 17       		.uleb128 0x17
 5417 0123 2E       		.uleb128 0x2e
 5418 0124 01       		.byte	0x1
 5419 0125 3F       		.uleb128 0x3f
 5420 0126 19       		.uleb128 0x19
 5421 0127 03       		.uleb128 0x3
 5422 0128 0E       		.uleb128 0xe
 5423 0129 3A       		.uleb128 0x3a
 5424 012a 0B       		.uleb128 0xb
 5425 012b 3B       		.uleb128 0x3b
 5426 012c 05       		.uleb128 0x5
 5427 012d 27       		.uleb128 0x27
 5428 012e 19       		.uleb128 0x19
 5429 012f 49       		.uleb128 0x49
 5430 0130 13       		.uleb128 0x13
 5431 0131 11       		.uleb128 0x11
 5432 0132 01       		.uleb128 0x1
ARM GAS  C:\Users\brian\AppData\Local\Temp\cc1Lhyrd.s 			page 121


 5433 0133 12       		.uleb128 0x12
 5434 0134 06       		.uleb128 0x6
 5435 0135 40       		.uleb128 0x40
 5436 0136 18       		.uleb128 0x18
 5437 0137 9742     		.uleb128 0x2117
 5438 0139 19       		.uleb128 0x19
 5439 013a 01       		.uleb128 0x1
 5440 013b 13       		.uleb128 0x13
 5441 013c 00       		.byte	0
 5442 013d 00       		.byte	0
 5443 013e 18       		.uleb128 0x18
 5444 013f 05       		.uleb128 0x5
 5445 0140 00       		.byte	0
 5446 0141 03       		.uleb128 0x3
 5447 0142 0E       		.uleb128 0xe
 5448 0143 3A       		.uleb128 0x3a
 5449 0144 0B       		.uleb128 0xb
 5450 0145 3B       		.uleb128 0x3b
 5451 0146 05       		.uleb128 0x5
 5452 0147 49       		.uleb128 0x49
 5453 0148 13       		.uleb128 0x13
 5454 0149 02       		.uleb128 0x2
 5455 014a 17       		.uleb128 0x17
 5456 014b 00       		.byte	0
 5457 014c 00       		.byte	0
 5458 014d 19       		.uleb128 0x19
 5459 014e 05       		.uleb128 0x5
 5460 014f 00       		.byte	0
 5461 0150 03       		.uleb128 0x3
 5462 0151 08       		.uleb128 0x8
 5463 0152 3A       		.uleb128 0x3a
 5464 0153 0B       		.uleb128 0xb
 5465 0154 3B       		.uleb128 0x3b
 5466 0155 05       		.uleb128 0x5
 5467 0156 49       		.uleb128 0x49
 5468 0157 13       		.uleb128 0x13
 5469 0158 02       		.uleb128 0x2
 5470 0159 17       		.uleb128 0x17
 5471 015a 00       		.byte	0
 5472 015b 00       		.byte	0
 5473 015c 1A       		.uleb128 0x1a
 5474 015d 01       		.uleb128 0x1
 5475 015e 01       		.byte	0x1
 5476 015f 49       		.uleb128 0x49
 5477 0160 13       		.uleb128 0x13
 5478 0161 01       		.uleb128 0x1
 5479 0162 13       		.uleb128 0x13
 5480 0163 00       		.byte	0
 5481 0164 00       		.byte	0
 5482 0165 1B       		.uleb128 0x1b
 5483 0166 21       		.uleb128 0x21
 5484 0167 00       		.byte	0
 5485 0168 49       		.uleb128 0x49
 5486 0169 13       		.uleb128 0x13
 5487 016a 2F       		.uleb128 0x2f
 5488 016b 0B       		.uleb128 0xb
 5489 016c 00       		.byte	0
ARM GAS  C:\Users\brian\AppData\Local\Temp\cc1Lhyrd.s 			page 122


 5490 016d 00       		.byte	0
 5491 016e 1C       		.uleb128 0x1c
 5492 016f 34       		.uleb128 0x34
 5493 0170 00       		.byte	0
 5494 0171 03       		.uleb128 0x3
 5495 0172 0E       		.uleb128 0xe
 5496 0173 3A       		.uleb128 0x3a
 5497 0174 0B       		.uleb128 0xb
 5498 0175 3B       		.uleb128 0x3b
 5499 0176 0B       		.uleb128 0xb
 5500 0177 49       		.uleb128 0x49
 5501 0178 13       		.uleb128 0x13
 5502 0179 02       		.uleb128 0x2
 5503 017a 18       		.uleb128 0x18
 5504 017b 00       		.byte	0
 5505 017c 00       		.byte	0
 5506 017d 1D       		.uleb128 0x1d
 5507 017e 34       		.uleb128 0x34
 5508 017f 00       		.byte	0
 5509 0180 03       		.uleb128 0x3
 5510 0181 0E       		.uleb128 0xe
 5511 0182 3A       		.uleb128 0x3a
 5512 0183 0B       		.uleb128 0xb
 5513 0184 3B       		.uleb128 0x3b
 5514 0185 05       		.uleb128 0x5
 5515 0186 49       		.uleb128 0x49
 5516 0187 13       		.uleb128 0x13
 5517 0188 02       		.uleb128 0x2
 5518 0189 18       		.uleb128 0x18
 5519 018a 00       		.byte	0
 5520 018b 00       		.byte	0
 5521 018c 1E       		.uleb128 0x1e
 5522 018d 2E       		.uleb128 0x2e
 5523 018e 00       		.byte	0
 5524 018f 3F       		.uleb128 0x3f
 5525 0190 19       		.uleb128 0x19
 5526 0191 3C       		.uleb128 0x3c
 5527 0192 19       		.uleb128 0x19
 5528 0193 6E       		.uleb128 0x6e
 5529 0194 0E       		.uleb128 0xe
 5530 0195 03       		.uleb128 0x3
 5531 0196 0E       		.uleb128 0xe
 5532 0197 3A       		.uleb128 0x3a
 5533 0198 0B       		.uleb128 0xb
 5534 0199 3B       		.uleb128 0x3b
 5535 019a 05       		.uleb128 0x5
 5536 019b 00       		.byte	0
 5537 019c 00       		.byte	0
 5538 019d 00       		.byte	0
 5539              		.section	.debug_loc,"",%progbits
 5540              	.Ldebug_loc0:
 5541              	.LLST0:
 5542 0000 00000000 		.4byte	.LVL0
 5543 0004 1B000000 		.4byte	.LVL1-1
 5544 0008 0100     		.2byte	0x1
 5545 000a 50       		.byte	0x50
 5546 000b 1B000000 		.4byte	.LVL1-1
ARM GAS  C:\Users\brian\AppData\Local\Temp\cc1Lhyrd.s 			page 123


 5547 000f 84000000 		.4byte	.LVL18
 5548 0013 0100     		.2byte	0x1
 5549 0015 55       		.byte	0x55
 5550 0016 84000000 		.4byte	.LVL18
 5551 001a 8B000000 		.4byte	.LVL20-1
 5552 001e 0100     		.2byte	0x1
 5553 0020 50       		.byte	0x50
 5554 0021 8B000000 		.4byte	.LVL20-1
 5555 0025 92000000 		.4byte	.LVL21
 5556 0029 0100     		.2byte	0x1
 5557 002b 55       		.byte	0x55
 5558 002c 92000000 		.4byte	.LVL21
 5559 0030 97000000 		.4byte	.LVL23-1
 5560 0034 0100     		.2byte	0x1
 5561 0036 50       		.byte	0x50
 5562 0037 97000000 		.4byte	.LVL23-1
 5563 003b 9E000000 		.4byte	.LVL24
 5564 003f 0100     		.2byte	0x1
 5565 0041 55       		.byte	0x55
 5566 0042 9E000000 		.4byte	.LVL24
 5567 0046 A1000000 		.4byte	.LVL25-1
 5568 004a 0100     		.2byte	0x1
 5569 004c 50       		.byte	0x50
 5570 004d A1000000 		.4byte	.LVL25-1
 5571 0051 BE000000 		.4byte	.LVL29
 5572 0055 0100     		.2byte	0x1
 5573 0057 55       		.byte	0x55
 5574 0058 BE000000 		.4byte	.LVL29
 5575 005c C0000000 		.4byte	.LVL30
 5576 0060 0100     		.2byte	0x1
 5577 0062 50       		.byte	0x50
 5578 0063 C0000000 		.4byte	.LVL30
 5579 0067 C4000000 		.4byte	.LVL31
 5580 006b 0100     		.2byte	0x1
 5581 006d 55       		.byte	0x55
 5582 006e C4000000 		.4byte	.LVL31
 5583 0072 CC000000 		.4byte	.LFE0
 5584 0076 0400     		.2byte	0x4
 5585 0078 F3       		.byte	0xf3
 5586 0079 01       		.uleb128 0x1
 5587 007a 50       		.byte	0x50
 5588 007b 9F       		.byte	0x9f
 5589 007c 00000000 		.4byte	0
 5590 0080 00000000 		.4byte	0
 5591              	.LLST1:
 5592 0084 00000000 		.4byte	.LVL0
 5593 0088 1B000000 		.4byte	.LVL1-1
 5594 008c 0100     		.2byte	0x1
 5595 008e 51       		.byte	0x51
 5596 008f 1B000000 		.4byte	.LVL1-1
 5597 0093 84000000 		.4byte	.LVL18
 5598 0097 0400     		.2byte	0x4
 5599 0099 F3       		.byte	0xf3
 5600 009a 01       		.uleb128 0x1
 5601 009b 51       		.byte	0x51
 5602 009c 9F       		.byte	0x9f
 5603 009d 84000000 		.4byte	.LVL18
ARM GAS  C:\Users\brian\AppData\Local\Temp\cc1Lhyrd.s 			page 124


 5604 00a1 88000000 		.4byte	.LVL19
 5605 00a5 0100     		.2byte	0x1
 5606 00a7 51       		.byte	0x51
 5607 00a8 88000000 		.4byte	.LVL19
 5608 00ac 92000000 		.4byte	.LVL21
 5609 00b0 0400     		.2byte	0x4
 5610 00b2 F3       		.byte	0xf3
 5611 00b3 01       		.uleb128 0x1
 5612 00b4 51       		.byte	0x51
 5613 00b5 9F       		.byte	0x9f
 5614 00b6 92000000 		.4byte	.LVL21
 5615 00ba 94000000 		.4byte	.LVL22
 5616 00be 0100     		.2byte	0x1
 5617 00c0 51       		.byte	0x51
 5618 00c1 94000000 		.4byte	.LVL22
 5619 00c5 9E000000 		.4byte	.LVL24
 5620 00c9 0400     		.2byte	0x4
 5621 00cb F3       		.byte	0xf3
 5622 00cc 01       		.uleb128 0x1
 5623 00cd 51       		.byte	0x51
 5624 00ce 9F       		.byte	0x9f
 5625 00cf 9E000000 		.4byte	.LVL24
 5626 00d3 A1000000 		.4byte	.LVL25-1
 5627 00d7 0100     		.2byte	0x1
 5628 00d9 51       		.byte	0x51
 5629 00da A1000000 		.4byte	.LVL25-1
 5630 00de BE000000 		.4byte	.LVL29
 5631 00e2 0400     		.2byte	0x4
 5632 00e4 F3       		.byte	0xf3
 5633 00e5 01       		.uleb128 0x1
 5634 00e6 51       		.byte	0x51
 5635 00e7 9F       		.byte	0x9f
 5636 00e8 BE000000 		.4byte	.LVL29
 5637 00ec CC000000 		.4byte	.LFE0
 5638 00f0 0100     		.2byte	0x1
 5639 00f2 51       		.byte	0x51
 5640 00f3 00000000 		.4byte	0
 5641 00f7 00000000 		.4byte	0
 5642              	.LLST2:
 5643 00fb 00000000 		.4byte	.LVL0
 5644 00ff 1B000000 		.4byte	.LVL1-1
 5645 0103 0100     		.2byte	0x1
 5646 0105 52       		.byte	0x52
 5647 0106 1B000000 		.4byte	.LVL1-1
 5648 010a 66000000 		.4byte	.LVL14
 5649 010e 0400     		.2byte	0x4
 5650 0110 F3       		.byte	0xf3
 5651 0111 01       		.uleb128 0x1
 5652 0112 52       		.byte	0x52
 5653 0113 9F       		.byte	0x9f
 5654 0114 66000000 		.4byte	.LVL14
 5655 0118 72000000 		.4byte	.LVL16
 5656 011c 0100     		.2byte	0x1
 5657 011e 54       		.byte	0x54
 5658 011f 72000000 		.4byte	.LVL16
 5659 0123 7D000000 		.4byte	.LVL17-1
 5660 0127 0100     		.2byte	0x1
ARM GAS  C:\Users\brian\AppData\Local\Temp\cc1Lhyrd.s 			page 125


 5661 0129 52       		.byte	0x52
 5662 012a 84000000 		.4byte	.LVL18
 5663 012e 8B000000 		.4byte	.LVL20-1
 5664 0132 0100     		.2byte	0x1
 5665 0134 52       		.byte	0x52
 5666 0135 8B000000 		.4byte	.LVL20-1
 5667 0139 92000000 		.4byte	.LVL21
 5668 013d 0400     		.2byte	0x4
 5669 013f F3       		.byte	0xf3
 5670 0140 01       		.uleb128 0x1
 5671 0141 52       		.byte	0x52
 5672 0142 9F       		.byte	0x9f
 5673 0143 92000000 		.4byte	.LVL21
 5674 0147 97000000 		.4byte	.LVL23-1
 5675 014b 0100     		.2byte	0x1
 5676 014d 52       		.byte	0x52
 5677 014e 97000000 		.4byte	.LVL23-1
 5678 0152 9E000000 		.4byte	.LVL24
 5679 0156 0400     		.2byte	0x4
 5680 0158 F3       		.byte	0xf3
 5681 0159 01       		.uleb128 0x1
 5682 015a 52       		.byte	0x52
 5683 015b 9F       		.byte	0x9f
 5684 015c 9E000000 		.4byte	.LVL24
 5685 0160 A1000000 		.4byte	.LVL25-1
 5686 0164 0100     		.2byte	0x1
 5687 0166 52       		.byte	0x52
 5688 0167 A1000000 		.4byte	.LVL25-1
 5689 016b BE000000 		.4byte	.LVL29
 5690 016f 0400     		.2byte	0x4
 5691 0171 F3       		.byte	0xf3
 5692 0172 01       		.uleb128 0x1
 5693 0173 52       		.byte	0x52
 5694 0174 9F       		.byte	0x9f
 5695 0175 BE000000 		.4byte	.LVL29
 5696 0179 CC000000 		.4byte	.LFE0
 5697 017d 0100     		.2byte	0x1
 5698 017f 52       		.byte	0x52
 5699 0180 00000000 		.4byte	0
 5700 0184 00000000 		.4byte	0
 5701              	.LLST3:
 5702 0188 00000000 		.4byte	.LVL0
 5703 018c 1B000000 		.4byte	.LVL1-1
 5704 0190 0100     		.2byte	0x1
 5705 0192 53       		.byte	0x53
 5706 0193 1B000000 		.4byte	.LVL1-1
 5707 0197 58000000 		.4byte	.LVL12
 5708 019b 0100     		.2byte	0x1
 5709 019d 57       		.byte	0x57
 5710 019e 58000000 		.4byte	.LVL12
 5711 01a2 84000000 		.4byte	.LVL18
 5712 01a6 0400     		.2byte	0x4
 5713 01a8 F3       		.byte	0xf3
 5714 01a9 01       		.uleb128 0x1
 5715 01aa 53       		.byte	0x53
 5716 01ab 9F       		.byte	0x9f
 5717 01ac 84000000 		.4byte	.LVL18
ARM GAS  C:\Users\brian\AppData\Local\Temp\cc1Lhyrd.s 			page 126


 5718 01b0 8B000000 		.4byte	.LVL20-1
 5719 01b4 0100     		.2byte	0x1
 5720 01b6 53       		.byte	0x53
 5721 01b7 8B000000 		.4byte	.LVL20-1
 5722 01bb 92000000 		.4byte	.LVL21
 5723 01bf 0100     		.2byte	0x1
 5724 01c1 57       		.byte	0x57
 5725 01c2 92000000 		.4byte	.LVL21
 5726 01c6 97000000 		.4byte	.LVL23-1
 5727 01ca 0100     		.2byte	0x1
 5728 01cc 53       		.byte	0x53
 5729 01cd 97000000 		.4byte	.LVL23-1
 5730 01d1 9E000000 		.4byte	.LVL24
 5731 01d5 0100     		.2byte	0x1
 5732 01d7 57       		.byte	0x57
 5733 01d8 9E000000 		.4byte	.LVL24
 5734 01dc A1000000 		.4byte	.LVL25-1
 5735 01e0 0100     		.2byte	0x1
 5736 01e2 53       		.byte	0x53
 5737 01e3 A1000000 		.4byte	.LVL25-1
 5738 01e7 BE000000 		.4byte	.LVL29
 5739 01eb 0400     		.2byte	0x4
 5740 01ed F3       		.byte	0xf3
 5741 01ee 01       		.uleb128 0x1
 5742 01ef 53       		.byte	0x53
 5743 01f0 9F       		.byte	0x9f
 5744 01f1 BE000000 		.4byte	.LVL29
 5745 01f5 CC000000 		.4byte	.LFE0
 5746 01f9 0100     		.2byte	0x1
 5747 01fb 53       		.byte	0x53
 5748 01fc 00000000 		.4byte	0
 5749 0200 00000000 		.4byte	0
 5750              	.LLST4:
 5751 0204 1E000000 		.4byte	.LVL2
 5752 0208 20000000 		.4byte	.LVL3
 5753 020c 0100     		.2byte	0x1
 5754 020e 53       		.byte	0x53
 5755 020f 20000000 		.4byte	.LVL3
 5756 0213 22000000 		.4byte	.LVL4
 5757 0217 0200     		.2byte	0x2
 5758 0219 77       		.byte	0x77
 5759 021a 05       		.sleb128 5
 5760 021b 22000000 		.4byte	.LVL4
 5761 021f 2C000000 		.4byte	.LVL5
 5762 0223 0100     		.2byte	0x1
 5763 0225 53       		.byte	0x53
 5764 0226 2C000000 		.4byte	.LVL5
 5765 022a 84000000 		.4byte	.LVL18
 5766 022e 0100     		.2byte	0x1
 5767 0230 58       		.byte	0x58
 5768 0231 00000000 		.4byte	0
 5769 0235 00000000 		.4byte	0
 5770              	.LLST5:
 5771 0239 52000000 		.4byte	.LVL9
 5772 023d 54000000 		.4byte	.LVL10
 5773 0241 0100     		.2byte	0x1
 5774 0243 56       		.byte	0x56
ARM GAS  C:\Users\brian\AppData\Local\Temp\cc1Lhyrd.s 			page 127


 5775 0244 54000000 		.4byte	.LVL10
 5776 0248 56000000 		.4byte	.LVL11
 5777 024c 0200     		.2byte	0x2
 5778 024e 77       		.byte	0x77
 5779 024f 04       		.sleb128 4
 5780 0250 56000000 		.4byte	.LVL11
 5781 0254 60000000 		.4byte	.LVL13
 5782 0258 0100     		.2byte	0x1
 5783 025a 56       		.byte	0x56
 5784 025b 60000000 		.4byte	.LVL13
 5785 025f 66000000 		.4byte	.LVL14
 5786 0263 0300     		.2byte	0x3
 5787 0265 09       		.byte	0x9
 5788 0266 84       		.byte	0x84
 5789 0267 9F       		.byte	0x9f
 5790 0268 66000000 		.4byte	.LVL14
 5791 026c 84000000 		.4byte	.LVL18
 5792 0270 0100     		.2byte	0x1
 5793 0272 56       		.byte	0x56
 5794 0273 00000000 		.4byte	0
 5795 0277 00000000 		.4byte	0
 5796              	.LLST6:
 5797 027b 58000000 		.4byte	.LVL12
 5798 027f 84000000 		.4byte	.LVL18
 5799 0283 0100     		.2byte	0x1
 5800 0285 57       		.byte	0x57
 5801 0286 00000000 		.4byte	0
 5802 028a 00000000 		.4byte	0
 5803              	.LLST7:
 5804 028e 00000000 		.4byte	.LVL32
 5805 0292 0B000000 		.4byte	.LVL33-1
 5806 0296 0100     		.2byte	0x1
 5807 0298 50       		.byte	0x50
 5808 0299 0B000000 		.4byte	.LVL33-1
 5809 029d 6A000000 		.4byte	.LVL39
 5810 02a1 0100     		.2byte	0x1
 5811 02a3 55       		.byte	0x55
 5812 02a4 6A000000 		.4byte	.LVL39
 5813 02a8 7C000000 		.4byte	.LFE1
 5814 02ac 0400     		.2byte	0x4
 5815 02ae F3       		.byte	0xf3
 5816 02af 01       		.uleb128 0x1
 5817 02b0 50       		.byte	0x50
 5818 02b1 9F       		.byte	0x9f
 5819 02b2 00000000 		.4byte	0
 5820 02b6 00000000 		.4byte	0
 5821              	.LLST8:
 5822 02ba 00000000 		.4byte	.LVL32
 5823 02be 0B000000 		.4byte	.LVL33-1
 5824 02c2 0100     		.2byte	0x1
 5825 02c4 51       		.byte	0x51
 5826 02c5 0B000000 		.4byte	.LVL33-1
 5827 02c9 7C000000 		.4byte	.LFE1
 5828 02cd 0400     		.2byte	0x4
 5829 02cf F3       		.byte	0xf3
 5830 02d0 01       		.uleb128 0x1
 5831 02d1 51       		.byte	0x51
ARM GAS  C:\Users\brian\AppData\Local\Temp\cc1Lhyrd.s 			page 128


 5832 02d2 9F       		.byte	0x9f
 5833 02d3 00000000 		.4byte	0
 5834 02d7 00000000 		.4byte	0
 5835              	.LLST9:
 5836 02db 00000000 		.4byte	.LVL32
 5837 02df 0B000000 		.4byte	.LVL33-1
 5838 02e3 0100     		.2byte	0x1
 5839 02e5 52       		.byte	0x52
 5840 02e6 0B000000 		.4byte	.LVL33-1
 5841 02ea 7C000000 		.4byte	.LFE1
 5842 02ee 0400     		.2byte	0x4
 5843 02f0 F3       		.byte	0xf3
 5844 02f1 01       		.uleb128 0x1
 5845 02f2 52       		.byte	0x52
 5846 02f3 9F       		.byte	0x9f
 5847 02f4 00000000 		.4byte	0
 5848 02f8 00000000 		.4byte	0
 5849              	.LLST10:
 5850 02fc 00000000 		.4byte	.LVL32
 5851 0300 0B000000 		.4byte	.LVL33-1
 5852 0304 0100     		.2byte	0x1
 5853 0306 53       		.byte	0x53
 5854 0307 0B000000 		.4byte	.LVL33-1
 5855 030b 7C000000 		.4byte	.LFE1
 5856 030f 0400     		.2byte	0x4
 5857 0311 F3       		.byte	0xf3
 5858 0312 01       		.uleb128 0x1
 5859 0313 53       		.byte	0x53
 5860 0314 9F       		.byte	0x9f
 5861 0315 00000000 		.4byte	0
 5862 0319 00000000 		.4byte	0
 5863              	.LLST11:
 5864 031d 00000000 		.4byte	.LVL40
 5865 0321 0B000000 		.4byte	.LVL41-1
 5866 0325 0100     		.2byte	0x1
 5867 0327 50       		.byte	0x50
 5868 0328 0B000000 		.4byte	.LVL41-1
 5869 032c 6A000000 		.4byte	.LVL47
 5870 0330 0100     		.2byte	0x1
 5871 0332 55       		.byte	0x55
 5872 0333 6A000000 		.4byte	.LVL47
 5873 0337 7C000000 		.4byte	.LFE2
 5874 033b 0400     		.2byte	0x4
 5875 033d F3       		.byte	0xf3
 5876 033e 01       		.uleb128 0x1
 5877 033f 50       		.byte	0x50
 5878 0340 9F       		.byte	0x9f
 5879 0341 00000000 		.4byte	0
 5880 0345 00000000 		.4byte	0
 5881              	.LLST12:
 5882 0349 00000000 		.4byte	.LVL40
 5883 034d 0B000000 		.4byte	.LVL41-1
 5884 0351 0100     		.2byte	0x1
 5885 0353 51       		.byte	0x51
 5886 0354 0B000000 		.4byte	.LVL41-1
 5887 0358 7C000000 		.4byte	.LFE2
 5888 035c 0400     		.2byte	0x4
ARM GAS  C:\Users\brian\AppData\Local\Temp\cc1Lhyrd.s 			page 129


 5889 035e F3       		.byte	0xf3
 5890 035f 01       		.uleb128 0x1
 5891 0360 51       		.byte	0x51
 5892 0361 9F       		.byte	0x9f
 5893 0362 00000000 		.4byte	0
 5894 0366 00000000 		.4byte	0
 5895              	.LLST13:
 5896 036a 00000000 		.4byte	.LVL40
 5897 036e 0B000000 		.4byte	.LVL41-1
 5898 0372 0100     		.2byte	0x1
 5899 0374 52       		.byte	0x52
 5900 0375 0B000000 		.4byte	.LVL41-1
 5901 0379 7C000000 		.4byte	.LFE2
 5902 037d 0400     		.2byte	0x4
 5903 037f F3       		.byte	0xf3
 5904 0380 01       		.uleb128 0x1
 5905 0381 52       		.byte	0x52
 5906 0382 9F       		.byte	0x9f
 5907 0383 00000000 		.4byte	0
 5908 0387 00000000 		.4byte	0
 5909              	.LLST14:
 5910 038b 00000000 		.4byte	.LVL40
 5911 038f 0B000000 		.4byte	.LVL41-1
 5912 0393 0100     		.2byte	0x1
 5913 0395 53       		.byte	0x53
 5914 0396 0B000000 		.4byte	.LVL41-1
 5915 039a 7C000000 		.4byte	.LFE2
 5916 039e 0400     		.2byte	0x4
 5917 03a0 F3       		.byte	0xf3
 5918 03a1 01       		.uleb128 0x1
 5919 03a2 53       		.byte	0x53
 5920 03a3 9F       		.byte	0x9f
 5921 03a4 00000000 		.4byte	0
 5922 03a8 00000000 		.4byte	0
 5923              	.LLST15:
 5924 03ac 00000000 		.4byte	.LVL48
 5925 03b0 0B000000 		.4byte	.LVL49-1
 5926 03b4 0100     		.2byte	0x1
 5927 03b6 50       		.byte	0x50
 5928 03b7 0B000000 		.4byte	.LVL49-1
 5929 03bb 6A000000 		.4byte	.LVL55
 5930 03bf 0100     		.2byte	0x1
 5931 03c1 55       		.byte	0x55
 5932 03c2 6A000000 		.4byte	.LVL55
 5933 03c6 7C000000 		.4byte	.LFE3
 5934 03ca 0400     		.2byte	0x4
 5935 03cc F3       		.byte	0xf3
 5936 03cd 01       		.uleb128 0x1
 5937 03ce 50       		.byte	0x50
 5938 03cf 9F       		.byte	0x9f
 5939 03d0 00000000 		.4byte	0
 5940 03d4 00000000 		.4byte	0
 5941              	.LLST16:
 5942 03d8 00000000 		.4byte	.LVL48
 5943 03dc 0B000000 		.4byte	.LVL49-1
 5944 03e0 0100     		.2byte	0x1
 5945 03e2 51       		.byte	0x51
ARM GAS  C:\Users\brian\AppData\Local\Temp\cc1Lhyrd.s 			page 130


 5946 03e3 0B000000 		.4byte	.LVL49-1
 5947 03e7 7C000000 		.4byte	.LFE3
 5948 03eb 0400     		.2byte	0x4
 5949 03ed F3       		.byte	0xf3
 5950 03ee 01       		.uleb128 0x1
 5951 03ef 51       		.byte	0x51
 5952 03f0 9F       		.byte	0x9f
 5953 03f1 00000000 		.4byte	0
 5954 03f5 00000000 		.4byte	0
 5955              	.LLST17:
 5956 03f9 00000000 		.4byte	.LVL48
 5957 03fd 0B000000 		.4byte	.LVL49-1
 5958 0401 0100     		.2byte	0x1
 5959 0403 52       		.byte	0x52
 5960 0404 0B000000 		.4byte	.LVL49-1
 5961 0408 7C000000 		.4byte	.LFE3
 5962 040c 0400     		.2byte	0x4
 5963 040e F3       		.byte	0xf3
 5964 040f 01       		.uleb128 0x1
 5965 0410 52       		.byte	0x52
 5966 0411 9F       		.byte	0x9f
 5967 0412 00000000 		.4byte	0
 5968 0416 00000000 		.4byte	0
 5969              	.LLST18:
 5970 041a 00000000 		.4byte	.LVL48
 5971 041e 0B000000 		.4byte	.LVL49-1
 5972 0422 0100     		.2byte	0x1
 5973 0424 53       		.byte	0x53
 5974 0425 0B000000 		.4byte	.LVL49-1
 5975 0429 7C000000 		.4byte	.LFE3
 5976 042d 0400     		.2byte	0x4
 5977 042f F3       		.byte	0xf3
 5978 0430 01       		.uleb128 0x1
 5979 0431 53       		.byte	0x53
 5980 0432 9F       		.byte	0x9f
 5981 0433 00000000 		.4byte	0
 5982 0437 00000000 		.4byte	0
 5983              	.LLST19:
 5984 043b 00000000 		.4byte	.LVL56
 5985 043f 0B000000 		.4byte	.LVL57-1
 5986 0443 0100     		.2byte	0x1
 5987 0445 50       		.byte	0x50
 5988 0446 0B000000 		.4byte	.LVL57-1
 5989 044a 6A000000 		.4byte	.LVL63
 5990 044e 0100     		.2byte	0x1
 5991 0450 55       		.byte	0x55
 5992 0451 6A000000 		.4byte	.LVL63
 5993 0455 7C000000 		.4byte	.LFE4
 5994 0459 0400     		.2byte	0x4
 5995 045b F3       		.byte	0xf3
 5996 045c 01       		.uleb128 0x1
 5997 045d 50       		.byte	0x50
 5998 045e 9F       		.byte	0x9f
 5999 045f 00000000 		.4byte	0
 6000 0463 00000000 		.4byte	0
 6001              	.LLST20:
 6002 0467 00000000 		.4byte	.LVL56
ARM GAS  C:\Users\brian\AppData\Local\Temp\cc1Lhyrd.s 			page 131


 6003 046b 0B000000 		.4byte	.LVL57-1
 6004 046f 0100     		.2byte	0x1
 6005 0471 51       		.byte	0x51
 6006 0472 0B000000 		.4byte	.LVL57-1
 6007 0476 7C000000 		.4byte	.LFE4
 6008 047a 0400     		.2byte	0x4
 6009 047c F3       		.byte	0xf3
 6010 047d 01       		.uleb128 0x1
 6011 047e 51       		.byte	0x51
 6012 047f 9F       		.byte	0x9f
 6013 0480 00000000 		.4byte	0
 6014 0484 00000000 		.4byte	0
 6015              	.LLST21:
 6016 0488 00000000 		.4byte	.LVL56
 6017 048c 0B000000 		.4byte	.LVL57-1
 6018 0490 0100     		.2byte	0x1
 6019 0492 52       		.byte	0x52
 6020 0493 0B000000 		.4byte	.LVL57-1
 6021 0497 7C000000 		.4byte	.LFE4
 6022 049b 0400     		.2byte	0x4
 6023 049d F3       		.byte	0xf3
 6024 049e 01       		.uleb128 0x1
 6025 049f 52       		.byte	0x52
 6026 04a0 9F       		.byte	0x9f
 6027 04a1 00000000 		.4byte	0
 6028 04a5 00000000 		.4byte	0
 6029              	.LLST22:
 6030 04a9 00000000 		.4byte	.LVL56
 6031 04ad 0B000000 		.4byte	.LVL57-1
 6032 04b1 0100     		.2byte	0x1
 6033 04b3 53       		.byte	0x53
 6034 04b4 0B000000 		.4byte	.LVL57-1
 6035 04b8 7C000000 		.4byte	.LFE4
 6036 04bc 0400     		.2byte	0x4
 6037 04be F3       		.byte	0xf3
 6038 04bf 01       		.uleb128 0x1
 6039 04c0 53       		.byte	0x53
 6040 04c1 9F       		.byte	0x9f
 6041 04c2 00000000 		.4byte	0
 6042 04c6 00000000 		.4byte	0
 6043              	.LLST23:
 6044 04ca 00000000 		.4byte	.LVL64
 6045 04ce 0B000000 		.4byte	.LVL65-1
 6046 04d2 0100     		.2byte	0x1
 6047 04d4 50       		.byte	0x50
 6048 04d5 0B000000 		.4byte	.LVL65-1
 6049 04d9 6A000000 		.4byte	.LVL71
 6050 04dd 0100     		.2byte	0x1
 6051 04df 55       		.byte	0x55
 6052 04e0 6A000000 		.4byte	.LVL71
 6053 04e4 7C000000 		.4byte	.LFE5
 6054 04e8 0400     		.2byte	0x4
 6055 04ea F3       		.byte	0xf3
 6056 04eb 01       		.uleb128 0x1
 6057 04ec 50       		.byte	0x50
 6058 04ed 9F       		.byte	0x9f
 6059 04ee 00000000 		.4byte	0
ARM GAS  C:\Users\brian\AppData\Local\Temp\cc1Lhyrd.s 			page 132


 6060 04f2 00000000 		.4byte	0
 6061              	.LLST24:
 6062 04f6 00000000 		.4byte	.LVL64
 6063 04fa 0B000000 		.4byte	.LVL65-1
 6064 04fe 0100     		.2byte	0x1
 6065 0500 51       		.byte	0x51
 6066 0501 0B000000 		.4byte	.LVL65-1
 6067 0505 7C000000 		.4byte	.LFE5
 6068 0509 0400     		.2byte	0x4
 6069 050b F3       		.byte	0xf3
 6070 050c 01       		.uleb128 0x1
 6071 050d 51       		.byte	0x51
 6072 050e 9F       		.byte	0x9f
 6073 050f 00000000 		.4byte	0
 6074 0513 00000000 		.4byte	0
 6075              	.LLST25:
 6076 0517 00000000 		.4byte	.LVL64
 6077 051b 0B000000 		.4byte	.LVL65-1
 6078 051f 0100     		.2byte	0x1
 6079 0521 52       		.byte	0x52
 6080 0522 0B000000 		.4byte	.LVL65-1
 6081 0526 7C000000 		.4byte	.LFE5
 6082 052a 0400     		.2byte	0x4
 6083 052c F3       		.byte	0xf3
 6084 052d 01       		.uleb128 0x1
 6085 052e 52       		.byte	0x52
 6086 052f 9F       		.byte	0x9f
 6087 0530 00000000 		.4byte	0
 6088 0534 00000000 		.4byte	0
 6089              	.LLST26:
 6090 0538 00000000 		.4byte	.LVL64
 6091 053c 0B000000 		.4byte	.LVL65-1
 6092 0540 0100     		.2byte	0x1
 6093 0542 53       		.byte	0x53
 6094 0543 0B000000 		.4byte	.LVL65-1
 6095 0547 7C000000 		.4byte	.LFE5
 6096 054b 0400     		.2byte	0x4
 6097 054d F3       		.byte	0xf3
 6098 054e 01       		.uleb128 0x1
 6099 054f 53       		.byte	0x53
 6100 0550 9F       		.byte	0x9f
 6101 0551 00000000 		.4byte	0
 6102 0555 00000000 		.4byte	0
 6103              	.LLST27:
 6104 0559 00000000 		.4byte	.LVL72
 6105 055d 0B000000 		.4byte	.LVL73-1
 6106 0561 0100     		.2byte	0x1
 6107 0563 50       		.byte	0x50
 6108 0564 0B000000 		.4byte	.LVL73-1
 6109 0568 6A000000 		.4byte	.LVL79
 6110 056c 0100     		.2byte	0x1
 6111 056e 55       		.byte	0x55
 6112 056f 6A000000 		.4byte	.LVL79
 6113 0573 7C000000 		.4byte	.LFE6
 6114 0577 0400     		.2byte	0x4
 6115 0579 F3       		.byte	0xf3
 6116 057a 01       		.uleb128 0x1
ARM GAS  C:\Users\brian\AppData\Local\Temp\cc1Lhyrd.s 			page 133


 6117 057b 50       		.byte	0x50
 6118 057c 9F       		.byte	0x9f
 6119 057d 00000000 		.4byte	0
 6120 0581 00000000 		.4byte	0
 6121              	.LLST28:
 6122 0585 00000000 		.4byte	.LVL72
 6123 0589 0B000000 		.4byte	.LVL73-1
 6124 058d 0100     		.2byte	0x1
 6125 058f 51       		.byte	0x51
 6126 0590 0B000000 		.4byte	.LVL73-1
 6127 0594 7C000000 		.4byte	.LFE6
 6128 0598 0400     		.2byte	0x4
 6129 059a F3       		.byte	0xf3
 6130 059b 01       		.uleb128 0x1
 6131 059c 51       		.byte	0x51
 6132 059d 9F       		.byte	0x9f
 6133 059e 00000000 		.4byte	0
 6134 05a2 00000000 		.4byte	0
 6135              	.LLST29:
 6136 05a6 00000000 		.4byte	.LVL72
 6137 05aa 0B000000 		.4byte	.LVL73-1
 6138 05ae 0100     		.2byte	0x1
 6139 05b0 52       		.byte	0x52
 6140 05b1 0B000000 		.4byte	.LVL73-1
 6141 05b5 7C000000 		.4byte	.LFE6
 6142 05b9 0400     		.2byte	0x4
 6143 05bb F3       		.byte	0xf3
 6144 05bc 01       		.uleb128 0x1
 6145 05bd 52       		.byte	0x52
 6146 05be 9F       		.byte	0x9f
 6147 05bf 00000000 		.4byte	0
 6148 05c3 00000000 		.4byte	0
 6149              	.LLST30:
 6150 05c7 00000000 		.4byte	.LVL72
 6151 05cb 0B000000 		.4byte	.LVL73-1
 6152 05cf 0100     		.2byte	0x1
 6153 05d1 53       		.byte	0x53
 6154 05d2 0B000000 		.4byte	.LVL73-1
 6155 05d6 7C000000 		.4byte	.LFE6
 6156 05da 0400     		.2byte	0x4
 6157 05dc F3       		.byte	0xf3
 6158 05dd 01       		.uleb128 0x1
 6159 05de 53       		.byte	0x53
 6160 05df 9F       		.byte	0x9f
 6161 05e0 00000000 		.4byte	0
 6162 05e4 00000000 		.4byte	0
 6163              	.LLST31:
 6164 05e8 00000000 		.4byte	.LVL80
 6165 05ec 05000000 		.4byte	.LVL81-1
 6166 05f0 0100     		.2byte	0x1
 6167 05f2 50       		.byte	0x50
 6168 05f3 05000000 		.4byte	.LVL81-1
 6169 05f7 08000000 		.4byte	.LFE7
 6170 05fb 0400     		.2byte	0x4
 6171 05fd F3       		.byte	0xf3
 6172 05fe 01       		.uleb128 0x1
 6173 05ff 50       		.byte	0x50
ARM GAS  C:\Users\brian\AppData\Local\Temp\cc1Lhyrd.s 			page 134


 6174 0600 9F       		.byte	0x9f
 6175 0601 00000000 		.4byte	0
 6176 0605 00000000 		.4byte	0
 6177              	.LLST32:
 6178 0609 00000000 		.4byte	.LVL80
 6179 060d 05000000 		.4byte	.LVL81-1
 6180 0611 0100     		.2byte	0x1
 6181 0613 51       		.byte	0x51
 6182 0614 05000000 		.4byte	.LVL81-1
 6183 0618 08000000 		.4byte	.LFE7
 6184 061c 0400     		.2byte	0x4
 6185 061e F3       		.byte	0xf3
 6186 061f 01       		.uleb128 0x1
 6187 0620 51       		.byte	0x51
 6188 0621 9F       		.byte	0x9f
 6189 0622 00000000 		.4byte	0
 6190 0626 00000000 		.4byte	0
 6191              	.LLST33:
 6192 062a 00000000 		.4byte	.LVL80
 6193 062e 05000000 		.4byte	.LVL81-1
 6194 0632 0100     		.2byte	0x1
 6195 0634 52       		.byte	0x52
 6196 0635 05000000 		.4byte	.LVL81-1
 6197 0639 08000000 		.4byte	.LFE7
 6198 063d 0400     		.2byte	0x4
 6199 063f F3       		.byte	0xf3
 6200 0640 01       		.uleb128 0x1
 6201 0641 52       		.byte	0x52
 6202 0642 9F       		.byte	0x9f
 6203 0643 00000000 		.4byte	0
 6204 0647 00000000 		.4byte	0
 6205              	.LLST34:
 6206 064b 00000000 		.4byte	.LVL80
 6207 064f 05000000 		.4byte	.LVL81-1
 6208 0653 0100     		.2byte	0x1
 6209 0655 53       		.byte	0x53
 6210 0656 05000000 		.4byte	.LVL81-1
 6211 065a 08000000 		.4byte	.LFE7
 6212 065e 0400     		.2byte	0x4
 6213 0660 F3       		.byte	0xf3
 6214 0661 01       		.uleb128 0x1
 6215 0662 53       		.byte	0x53
 6216 0663 9F       		.byte	0x9f
 6217 0664 00000000 		.4byte	0
 6218 0668 00000000 		.4byte	0
 6219              	.LLST35:
 6220 066c 00000000 		.4byte	.LVL82
 6221 0670 0B000000 		.4byte	.LVL83-1
 6222 0674 0100     		.2byte	0x1
 6223 0676 50       		.byte	0x50
 6224 0677 0B000000 		.4byte	.LVL83-1
 6225 067b 6A000000 		.4byte	.LVL89
 6226 067f 0100     		.2byte	0x1
 6227 0681 55       		.byte	0x55
 6228 0682 6A000000 		.4byte	.LVL89
 6229 0686 7C000000 		.4byte	.LFE8
 6230 068a 0400     		.2byte	0x4
ARM GAS  C:\Users\brian\AppData\Local\Temp\cc1Lhyrd.s 			page 135


 6231 068c F3       		.byte	0xf3
 6232 068d 01       		.uleb128 0x1
 6233 068e 50       		.byte	0x50
 6234 068f 9F       		.byte	0x9f
 6235 0690 00000000 		.4byte	0
 6236 0694 00000000 		.4byte	0
 6237              	.LLST36:
 6238 0698 00000000 		.4byte	.LVL82
 6239 069c 0B000000 		.4byte	.LVL83-1
 6240 06a0 0100     		.2byte	0x1
 6241 06a2 51       		.byte	0x51
 6242 06a3 0B000000 		.4byte	.LVL83-1
 6243 06a7 7C000000 		.4byte	.LFE8
 6244 06ab 0400     		.2byte	0x4
 6245 06ad F3       		.byte	0xf3
 6246 06ae 01       		.uleb128 0x1
 6247 06af 51       		.byte	0x51
 6248 06b0 9F       		.byte	0x9f
 6249 06b1 00000000 		.4byte	0
 6250 06b5 00000000 		.4byte	0
 6251              	.LLST37:
 6252 06b9 00000000 		.4byte	.LVL82
 6253 06bd 0B000000 		.4byte	.LVL83-1
 6254 06c1 0100     		.2byte	0x1
 6255 06c3 52       		.byte	0x52
 6256 06c4 0B000000 		.4byte	.LVL83-1
 6257 06c8 7C000000 		.4byte	.LFE8
 6258 06cc 0400     		.2byte	0x4
 6259 06ce F3       		.byte	0xf3
 6260 06cf 01       		.uleb128 0x1
 6261 06d0 52       		.byte	0x52
 6262 06d1 9F       		.byte	0x9f
 6263 06d2 00000000 		.4byte	0
 6264 06d6 00000000 		.4byte	0
 6265              	.LLST38:
 6266 06da 00000000 		.4byte	.LVL82
 6267 06de 0B000000 		.4byte	.LVL83-1
 6268 06e2 0100     		.2byte	0x1
 6269 06e4 53       		.byte	0x53
 6270 06e5 0B000000 		.4byte	.LVL83-1
 6271 06e9 7C000000 		.4byte	.LFE8
 6272 06ed 0400     		.2byte	0x4
 6273 06ef F3       		.byte	0xf3
 6274 06f0 01       		.uleb128 0x1
 6275 06f1 53       		.byte	0x53
 6276 06f2 9F       		.byte	0x9f
 6277 06f3 00000000 		.4byte	0
 6278 06f7 00000000 		.4byte	0
 6279              	.LLST39:
 6280 06fb 00000000 		.4byte	.LVL90
 6281 06ff 0B000000 		.4byte	.LVL91-1
 6282 0703 0100     		.2byte	0x1
 6283 0705 50       		.byte	0x50
 6284 0706 0B000000 		.4byte	.LVL91-1
 6285 070a 6A000000 		.4byte	.LVL97
 6286 070e 0100     		.2byte	0x1
 6287 0710 55       		.byte	0x55
ARM GAS  C:\Users\brian\AppData\Local\Temp\cc1Lhyrd.s 			page 136


 6288 0711 6A000000 		.4byte	.LVL97
 6289 0715 7C000000 		.4byte	.LFE9
 6290 0719 0400     		.2byte	0x4
 6291 071b F3       		.byte	0xf3
 6292 071c 01       		.uleb128 0x1
 6293 071d 50       		.byte	0x50
 6294 071e 9F       		.byte	0x9f
 6295 071f 00000000 		.4byte	0
 6296 0723 00000000 		.4byte	0
 6297              	.LLST40:
 6298 0727 00000000 		.4byte	.LVL90
 6299 072b 0B000000 		.4byte	.LVL91-1
 6300 072f 0100     		.2byte	0x1
 6301 0731 51       		.byte	0x51
 6302 0732 0B000000 		.4byte	.LVL91-1
 6303 0736 7C000000 		.4byte	.LFE9
 6304 073a 0400     		.2byte	0x4
 6305 073c F3       		.byte	0xf3
 6306 073d 01       		.uleb128 0x1
 6307 073e 51       		.byte	0x51
 6308 073f 9F       		.byte	0x9f
 6309 0740 00000000 		.4byte	0
 6310 0744 00000000 		.4byte	0
 6311              	.LLST41:
 6312 0748 00000000 		.4byte	.LVL90
 6313 074c 0B000000 		.4byte	.LVL91-1
 6314 0750 0100     		.2byte	0x1
 6315 0752 52       		.byte	0x52
 6316 0753 0B000000 		.4byte	.LVL91-1
 6317 0757 7C000000 		.4byte	.LFE9
 6318 075b 0400     		.2byte	0x4
 6319 075d F3       		.byte	0xf3
 6320 075e 01       		.uleb128 0x1
 6321 075f 52       		.byte	0x52
 6322 0760 9F       		.byte	0x9f
 6323 0761 00000000 		.4byte	0
 6324 0765 00000000 		.4byte	0
 6325              	.LLST42:
 6326 0769 00000000 		.4byte	.LVL90
 6327 076d 0B000000 		.4byte	.LVL91-1
 6328 0771 0100     		.2byte	0x1
 6329 0773 53       		.byte	0x53
 6330 0774 0B000000 		.4byte	.LVL91-1
 6331 0778 7C000000 		.4byte	.LFE9
 6332 077c 0400     		.2byte	0x4
 6333 077e F3       		.byte	0xf3
 6334 077f 01       		.uleb128 0x1
 6335 0780 53       		.byte	0x53
 6336 0781 9F       		.byte	0x9f
 6337 0782 00000000 		.4byte	0
 6338 0786 00000000 		.4byte	0
 6339              	.LLST43:
 6340 078a 00000000 		.4byte	.LVL98
 6341 078e 0B000000 		.4byte	.LVL99-1
 6342 0792 0100     		.2byte	0x1
 6343 0794 50       		.byte	0x50
 6344 0795 0B000000 		.4byte	.LVL99-1
ARM GAS  C:\Users\brian\AppData\Local\Temp\cc1Lhyrd.s 			page 137


 6345 0799 6A000000 		.4byte	.LVL105
 6346 079d 0100     		.2byte	0x1
 6347 079f 55       		.byte	0x55
 6348 07a0 6A000000 		.4byte	.LVL105
 6349 07a4 7C000000 		.4byte	.LFE10
 6350 07a8 0400     		.2byte	0x4
 6351 07aa F3       		.byte	0xf3
 6352 07ab 01       		.uleb128 0x1
 6353 07ac 50       		.byte	0x50
 6354 07ad 9F       		.byte	0x9f
 6355 07ae 00000000 		.4byte	0
 6356 07b2 00000000 		.4byte	0
 6357              	.LLST44:
 6358 07b6 00000000 		.4byte	.LVL98
 6359 07ba 0B000000 		.4byte	.LVL99-1
 6360 07be 0100     		.2byte	0x1
 6361 07c0 51       		.byte	0x51
 6362 07c1 0B000000 		.4byte	.LVL99-1
 6363 07c5 7C000000 		.4byte	.LFE10
 6364 07c9 0400     		.2byte	0x4
 6365 07cb F3       		.byte	0xf3
 6366 07cc 01       		.uleb128 0x1
 6367 07cd 51       		.byte	0x51
 6368 07ce 9F       		.byte	0x9f
 6369 07cf 00000000 		.4byte	0
 6370 07d3 00000000 		.4byte	0
 6371              	.LLST45:
 6372 07d7 00000000 		.4byte	.LVL98
 6373 07db 0B000000 		.4byte	.LVL99-1
 6374 07df 0100     		.2byte	0x1
 6375 07e1 52       		.byte	0x52
 6376 07e2 0B000000 		.4byte	.LVL99-1
 6377 07e6 7C000000 		.4byte	.LFE10
 6378 07ea 0400     		.2byte	0x4
 6379 07ec F3       		.byte	0xf3
 6380 07ed 01       		.uleb128 0x1
 6381 07ee 52       		.byte	0x52
 6382 07ef 9F       		.byte	0x9f
 6383 07f0 00000000 		.4byte	0
 6384 07f4 00000000 		.4byte	0
 6385              	.LLST46:
 6386 07f8 00000000 		.4byte	.LVL98
 6387 07fc 0B000000 		.4byte	.LVL99-1
 6388 0800 0100     		.2byte	0x1
 6389 0802 53       		.byte	0x53
 6390 0803 0B000000 		.4byte	.LVL99-1
 6391 0807 7C000000 		.4byte	.LFE10
 6392 080b 0400     		.2byte	0x4
 6393 080d F3       		.byte	0xf3
 6394 080e 01       		.uleb128 0x1
 6395 080f 53       		.byte	0x53
 6396 0810 9F       		.byte	0x9f
 6397 0811 00000000 		.4byte	0
 6398 0815 00000000 		.4byte	0
 6399              	.LLST47:
 6400 0819 00000000 		.4byte	.LVL106
 6401 081d 0B000000 		.4byte	.LVL107-1
ARM GAS  C:\Users\brian\AppData\Local\Temp\cc1Lhyrd.s 			page 138


 6402 0821 0100     		.2byte	0x1
 6403 0823 50       		.byte	0x50
 6404 0824 0B000000 		.4byte	.LVL107-1
 6405 0828 6A000000 		.4byte	.LVL113
 6406 082c 0100     		.2byte	0x1
 6407 082e 55       		.byte	0x55
 6408 082f 6A000000 		.4byte	.LVL113
 6409 0833 7C000000 		.4byte	.LFE11
 6410 0837 0400     		.2byte	0x4
 6411 0839 F3       		.byte	0xf3
 6412 083a 01       		.uleb128 0x1
 6413 083b 50       		.byte	0x50
 6414 083c 9F       		.byte	0x9f
 6415 083d 00000000 		.4byte	0
 6416 0841 00000000 		.4byte	0
 6417              	.LLST48:
 6418 0845 00000000 		.4byte	.LVL106
 6419 0849 0B000000 		.4byte	.LVL107-1
 6420 084d 0100     		.2byte	0x1
 6421 084f 51       		.byte	0x51
 6422 0850 0B000000 		.4byte	.LVL107-1
 6423 0854 7C000000 		.4byte	.LFE11
 6424 0858 0400     		.2byte	0x4
 6425 085a F3       		.byte	0xf3
 6426 085b 01       		.uleb128 0x1
 6427 085c 51       		.byte	0x51
 6428 085d 9F       		.byte	0x9f
 6429 085e 00000000 		.4byte	0
 6430 0862 00000000 		.4byte	0
 6431              	.LLST49:
 6432 0866 00000000 		.4byte	.LVL106
 6433 086a 0B000000 		.4byte	.LVL107-1
 6434 086e 0100     		.2byte	0x1
 6435 0870 52       		.byte	0x52
 6436 0871 0B000000 		.4byte	.LVL107-1
 6437 0875 7C000000 		.4byte	.LFE11
 6438 0879 0400     		.2byte	0x4
 6439 087b F3       		.byte	0xf3
 6440 087c 01       		.uleb128 0x1
 6441 087d 52       		.byte	0x52
 6442 087e 9F       		.byte	0x9f
 6443 087f 00000000 		.4byte	0
 6444 0883 00000000 		.4byte	0
 6445              	.LLST50:
 6446 0887 00000000 		.4byte	.LVL106
 6447 088b 0B000000 		.4byte	.LVL107-1
 6448 088f 0100     		.2byte	0x1
 6449 0891 53       		.byte	0x53
 6450 0892 0B000000 		.4byte	.LVL107-1
 6451 0896 7C000000 		.4byte	.LFE11
 6452 089a 0400     		.2byte	0x4
 6453 089c F3       		.byte	0xf3
 6454 089d 01       		.uleb128 0x1
 6455 089e 53       		.byte	0x53
 6456 089f 9F       		.byte	0x9f
 6457 08a0 00000000 		.4byte	0
 6458 08a4 00000000 		.4byte	0
ARM GAS  C:\Users\brian\AppData\Local\Temp\cc1Lhyrd.s 			page 139


 6459              	.LLST51:
 6460 08a8 00000000 		.4byte	.LVL114
 6461 08ac 0B000000 		.4byte	.LVL115-1
 6462 08b0 0100     		.2byte	0x1
 6463 08b2 50       		.byte	0x50
 6464 08b3 0B000000 		.4byte	.LVL115-1
 6465 08b7 6A000000 		.4byte	.LVL121
 6466 08bb 0100     		.2byte	0x1
 6467 08bd 55       		.byte	0x55
 6468 08be 6A000000 		.4byte	.LVL121
 6469 08c2 7C000000 		.4byte	.LFE12
 6470 08c6 0400     		.2byte	0x4
 6471 08c8 F3       		.byte	0xf3
 6472 08c9 01       		.uleb128 0x1
 6473 08ca 50       		.byte	0x50
 6474 08cb 9F       		.byte	0x9f
 6475 08cc 00000000 		.4byte	0
 6476 08d0 00000000 		.4byte	0
 6477              	.LLST52:
 6478 08d4 00000000 		.4byte	.LVL114
 6479 08d8 0B000000 		.4byte	.LVL115-1
 6480 08dc 0100     		.2byte	0x1
 6481 08de 51       		.byte	0x51
 6482 08df 0B000000 		.4byte	.LVL115-1
 6483 08e3 7C000000 		.4byte	.LFE12
 6484 08e7 0400     		.2byte	0x4
 6485 08e9 F3       		.byte	0xf3
 6486 08ea 01       		.uleb128 0x1
 6487 08eb 51       		.byte	0x51
 6488 08ec 9F       		.byte	0x9f
 6489 08ed 00000000 		.4byte	0
 6490 08f1 00000000 		.4byte	0
 6491              	.LLST53:
 6492 08f5 00000000 		.4byte	.LVL114
 6493 08f9 0B000000 		.4byte	.LVL115-1
 6494 08fd 0100     		.2byte	0x1
 6495 08ff 52       		.byte	0x52
 6496 0900 0B000000 		.4byte	.LVL115-1
 6497 0904 7C000000 		.4byte	.LFE12
 6498 0908 0400     		.2byte	0x4
 6499 090a F3       		.byte	0xf3
 6500 090b 01       		.uleb128 0x1
 6501 090c 52       		.byte	0x52
 6502 090d 9F       		.byte	0x9f
 6503 090e 00000000 		.4byte	0
 6504 0912 00000000 		.4byte	0
 6505              	.LLST54:
 6506 0916 00000000 		.4byte	.LVL114
 6507 091a 0B000000 		.4byte	.LVL115-1
 6508 091e 0100     		.2byte	0x1
 6509 0920 53       		.byte	0x53
 6510 0921 0B000000 		.4byte	.LVL115-1
 6511 0925 7C000000 		.4byte	.LFE12
 6512 0929 0400     		.2byte	0x4
 6513 092b F3       		.byte	0xf3
 6514 092c 01       		.uleb128 0x1
 6515 092d 53       		.byte	0x53
ARM GAS  C:\Users\brian\AppData\Local\Temp\cc1Lhyrd.s 			page 140


 6516 092e 9F       		.byte	0x9f
 6517 092f 00000000 		.4byte	0
 6518 0933 00000000 		.4byte	0
 6519              	.LLST55:
 6520 0937 00000000 		.4byte	.LVL122
 6521 093b 0B000000 		.4byte	.LVL123-1
 6522 093f 0100     		.2byte	0x1
 6523 0941 50       		.byte	0x50
 6524 0942 0B000000 		.4byte	.LVL123-1
 6525 0946 6A000000 		.4byte	.LVL129
 6526 094a 0100     		.2byte	0x1
 6527 094c 55       		.byte	0x55
 6528 094d 6A000000 		.4byte	.LVL129
 6529 0951 7C000000 		.4byte	.LFE13
 6530 0955 0400     		.2byte	0x4
 6531 0957 F3       		.byte	0xf3
 6532 0958 01       		.uleb128 0x1
 6533 0959 50       		.byte	0x50
 6534 095a 9F       		.byte	0x9f
 6535 095b 00000000 		.4byte	0
 6536 095f 00000000 		.4byte	0
 6537              	.LLST56:
 6538 0963 00000000 		.4byte	.LVL122
 6539 0967 0B000000 		.4byte	.LVL123-1
 6540 096b 0100     		.2byte	0x1
 6541 096d 51       		.byte	0x51
 6542 096e 0B000000 		.4byte	.LVL123-1
 6543 0972 7C000000 		.4byte	.LFE13
 6544 0976 0400     		.2byte	0x4
 6545 0978 F3       		.byte	0xf3
 6546 0979 01       		.uleb128 0x1
 6547 097a 51       		.byte	0x51
 6548 097b 9F       		.byte	0x9f
 6549 097c 00000000 		.4byte	0
 6550 0980 00000000 		.4byte	0
 6551              	.LLST57:
 6552 0984 00000000 		.4byte	.LVL122
 6553 0988 0B000000 		.4byte	.LVL123-1
 6554 098c 0100     		.2byte	0x1
 6555 098e 52       		.byte	0x52
 6556 098f 0B000000 		.4byte	.LVL123-1
 6557 0993 7C000000 		.4byte	.LFE13
 6558 0997 0400     		.2byte	0x4
 6559 0999 F3       		.byte	0xf3
 6560 099a 01       		.uleb128 0x1
 6561 099b 52       		.byte	0x52
 6562 099c 9F       		.byte	0x9f
 6563 099d 00000000 		.4byte	0
 6564 09a1 00000000 		.4byte	0
 6565              	.LLST58:
 6566 09a5 00000000 		.4byte	.LVL122
 6567 09a9 0B000000 		.4byte	.LVL123-1
 6568 09ad 0100     		.2byte	0x1
 6569 09af 53       		.byte	0x53
 6570 09b0 0B000000 		.4byte	.LVL123-1
 6571 09b4 7C000000 		.4byte	.LFE13
 6572 09b8 0400     		.2byte	0x4
ARM GAS  C:\Users\brian\AppData\Local\Temp\cc1Lhyrd.s 			page 141


 6573 09ba F3       		.byte	0xf3
 6574 09bb 01       		.uleb128 0x1
 6575 09bc 53       		.byte	0x53
 6576 09bd 9F       		.byte	0x9f
 6577 09be 00000000 		.4byte	0
 6578 09c2 00000000 		.4byte	0
 6579              	.LLST59:
 6580 09c6 00000000 		.4byte	.LVL130
 6581 09ca 0B000000 		.4byte	.LVL131-1
 6582 09ce 0100     		.2byte	0x1
 6583 09d0 50       		.byte	0x50
 6584 09d1 0B000000 		.4byte	.LVL131-1
 6585 09d5 6A000000 		.4byte	.LVL137
 6586 09d9 0100     		.2byte	0x1
 6587 09db 55       		.byte	0x55
 6588 09dc 6A000000 		.4byte	.LVL137
 6589 09e0 7C000000 		.4byte	.LFE14
 6590 09e4 0400     		.2byte	0x4
 6591 09e6 F3       		.byte	0xf3
 6592 09e7 01       		.uleb128 0x1
 6593 09e8 50       		.byte	0x50
 6594 09e9 9F       		.byte	0x9f
 6595 09ea 00000000 		.4byte	0
 6596 09ee 00000000 		.4byte	0
 6597              	.LLST60:
 6598 09f2 00000000 		.4byte	.LVL130
 6599 09f6 0B000000 		.4byte	.LVL131-1
 6600 09fa 0100     		.2byte	0x1
 6601 09fc 51       		.byte	0x51
 6602 09fd 0B000000 		.4byte	.LVL131-1
 6603 0a01 7C000000 		.4byte	.LFE14
 6604 0a05 0400     		.2byte	0x4
 6605 0a07 F3       		.byte	0xf3
 6606 0a08 01       		.uleb128 0x1
 6607 0a09 51       		.byte	0x51
 6608 0a0a 9F       		.byte	0x9f
 6609 0a0b 00000000 		.4byte	0
 6610 0a0f 00000000 		.4byte	0
 6611              	.LLST61:
 6612 0a13 00000000 		.4byte	.LVL130
 6613 0a17 0B000000 		.4byte	.LVL131-1
 6614 0a1b 0100     		.2byte	0x1
 6615 0a1d 52       		.byte	0x52
 6616 0a1e 0B000000 		.4byte	.LVL131-1
 6617 0a22 7C000000 		.4byte	.LFE14
 6618 0a26 0400     		.2byte	0x4
 6619 0a28 F3       		.byte	0xf3
 6620 0a29 01       		.uleb128 0x1
 6621 0a2a 52       		.byte	0x52
 6622 0a2b 9F       		.byte	0x9f
 6623 0a2c 00000000 		.4byte	0
 6624 0a30 00000000 		.4byte	0
 6625              	.LLST62:
 6626 0a34 00000000 		.4byte	.LVL130
 6627 0a38 0B000000 		.4byte	.LVL131-1
 6628 0a3c 0100     		.2byte	0x1
 6629 0a3e 53       		.byte	0x53
ARM GAS  C:\Users\brian\AppData\Local\Temp\cc1Lhyrd.s 			page 142


 6630 0a3f 0B000000 		.4byte	.LVL131-1
 6631 0a43 7C000000 		.4byte	.LFE14
 6632 0a47 0400     		.2byte	0x4
 6633 0a49 F3       		.byte	0xf3
 6634 0a4a 01       		.uleb128 0x1
 6635 0a4b 53       		.byte	0x53
 6636 0a4c 9F       		.byte	0x9f
 6637 0a4d 00000000 		.4byte	0
 6638 0a51 00000000 		.4byte	0
 6639              		.section	.debug_aranges,"",%progbits
 6640 0000 8C000000 		.4byte	0x8c
 6641 0004 0200     		.2byte	0x2
 6642 0006 00000000 		.4byte	.Ldebug_info0
 6643 000a 04       		.byte	0x4
 6644 000b 00       		.byte	0
 6645 000c 0000     		.2byte	0
 6646 000e 0000     		.2byte	0
 6647 0010 00000000 		.4byte	.LFB0
 6648 0014 CC000000 		.4byte	.LFE0-.LFB0
 6649 0018 00000000 		.4byte	.LFB1
 6650 001c 7C000000 		.4byte	.LFE1-.LFB1
 6651 0020 00000000 		.4byte	.LFB2
 6652 0024 7C000000 		.4byte	.LFE2-.LFB2
 6653 0028 00000000 		.4byte	.LFB3
 6654 002c 7C000000 		.4byte	.LFE3-.LFB3
 6655 0030 00000000 		.4byte	.LFB4
 6656 0034 7C000000 		.4byte	.LFE4-.LFB4
 6657 0038 00000000 		.4byte	.LFB5
 6658 003c 7C000000 		.4byte	.LFE5-.LFB5
 6659 0040 00000000 		.4byte	.LFB6
 6660 0044 7C000000 		.4byte	.LFE6-.LFB6
 6661 0048 00000000 		.4byte	.LFB7
 6662 004c 08000000 		.4byte	.LFE7-.LFB7
 6663 0050 00000000 		.4byte	.LFB8
 6664 0054 7C000000 		.4byte	.LFE8-.LFB8
 6665 0058 00000000 		.4byte	.LFB9
 6666 005c 7C000000 		.4byte	.LFE9-.LFB9
 6667 0060 00000000 		.4byte	.LFB10
 6668 0064 7C000000 		.4byte	.LFE10-.LFB10
 6669 0068 00000000 		.4byte	.LFB11
 6670 006c 7C000000 		.4byte	.LFE11-.LFB11
 6671 0070 00000000 		.4byte	.LFB12
 6672 0074 7C000000 		.4byte	.LFE12-.LFB12
 6673 0078 00000000 		.4byte	.LFB13
 6674 007c 7C000000 		.4byte	.LFE13-.LFB13
 6675 0080 00000000 		.4byte	.LFB14
 6676 0084 7C000000 		.4byte	.LFE14-.LFB14
 6677 0088 00000000 		.4byte	0
 6678 008c 00000000 		.4byte	0
 6679              		.section	.debug_ranges,"",%progbits
 6680              	.Ldebug_ranges0:
 6681 0000 00000000 		.4byte	.LFB0
 6682 0004 CC000000 		.4byte	.LFE0
 6683 0008 00000000 		.4byte	.LFB1
 6684 000c 7C000000 		.4byte	.LFE1
 6685 0010 00000000 		.4byte	.LFB2
 6686 0014 7C000000 		.4byte	.LFE2
ARM GAS  C:\Users\brian\AppData\Local\Temp\cc1Lhyrd.s 			page 143


 6687 0018 00000000 		.4byte	.LFB3
 6688 001c 7C000000 		.4byte	.LFE3
 6689 0020 00000000 		.4byte	.LFB4
 6690 0024 7C000000 		.4byte	.LFE4
 6691 0028 00000000 		.4byte	.LFB5
 6692 002c 7C000000 		.4byte	.LFE5
 6693 0030 00000000 		.4byte	.LFB6
 6694 0034 7C000000 		.4byte	.LFE6
 6695 0038 00000000 		.4byte	.LFB7
 6696 003c 08000000 		.4byte	.LFE7
 6697 0040 00000000 		.4byte	.LFB8
 6698 0044 7C000000 		.4byte	.LFE8
 6699 0048 00000000 		.4byte	.LFB9
 6700 004c 7C000000 		.4byte	.LFE9
 6701 0050 00000000 		.4byte	.LFB10
 6702 0054 7C000000 		.4byte	.LFE10
 6703 0058 00000000 		.4byte	.LFB11
 6704 005c 7C000000 		.4byte	.LFE11
 6705 0060 00000000 		.4byte	.LFB12
 6706 0064 7C000000 		.4byte	.LFE12
 6707 0068 00000000 		.4byte	.LFB13
 6708 006c 7C000000 		.4byte	.LFE13
 6709 0070 00000000 		.4byte	.LFB14
 6710 0074 7C000000 		.4byte	.LFE14
 6711 0078 00000000 		.4byte	0
 6712 007c 00000000 		.4byte	0
 6713              		.section	.debug_line,"",%progbits
 6714              	.Ldebug_line0:
 6715 0000 E5030000 		.section	.debug_str,"MS",%progbits,1
 6715      02003A01 
 6715      00000201 
 6715      FB0E0D00 
 6715      01010101 
 6716              	.LASF73:
 6717 0000 75387838 		.ascii	"u8x8_d_st7565_nhd_c12832\000"
 6717      5F645F73 
 6717      74373536 
 6717      355F6E68 
 6717      645F6331 
 6718              	.LASF43:
 6719 0019 72657365 		.ascii	"reset_pulse_width_ms\000"
 6719      745F7075 
 6719      6C73655F 
 6719      77696474 
 6719      685F6D73 
 6720              	.LASF3:
 6721 002e 5F5F7569 		.ascii	"__uint8_t\000"
 6721      6E74385F 
 6721      7400
 6722              	.LASF21:
 6723 0038 62797465 		.ascii	"byte_cb\000"
 6723      5F636200 
 6724              	.LASF103:
 6725 0040 75387838 		.ascii	"u8x8_d_st7565_lx12864_init_seq\000"
 6725      5F645F73 
 6725      74373536 
 6725      355F6C78 
ARM GAS  C:\Users\brian\AppData\Local\Temp\cc1Lhyrd.s 			page 144


 6725      31323836 
 6726              	.LASF59:
 6727 005f 75387838 		.ascii	"u8x8_tile_struct\000"
 6727      5F74696C 
 6727      655F7374 
 6727      72756374 
 6727      00
 6728              	.LASF10:
 6729 0070 6C6F6E67 		.ascii	"long long unsigned int\000"
 6729      206C6F6E 
 6729      6720756E 
 6729      7369676E 
 6729      65642069 
 6730              	.LASF71:
 6731 0087 75387838 		.ascii	"u8x8_d_st7565_64128n\000"
 6731      5F645F73 
 6731      74373536 
 6731      355F3634 
 6731      3132386E 
 6732              	.LASF106:
 6733 009c 75387838 		.ascii	"u8x8_st7565_erc12864_display_info\000"
 6733      5F737437 
 6733      3536355F 
 6733      65726331 
 6733      32383634 
 6734              	.LASF44:
 6735 00be 706F7374 		.ascii	"post_reset_wait_ms\000"
 6735      5F726573 
 6735      65745F77 
 6735      6169745F 
 6735      6D7300
 6736              	.LASF30:
 6737 00d1 75746638 		.ascii	"utf8_state\000"
 6737      5F737461 
 6737      746500
 6738              	.LASF87:
 6739 00dc 75387838 		.ascii	"u8x8_d_st7565_flip1_seq\000"
 6739      5F645F73 
 6739      74373536 
 6739      355F666C 
 6739      6970315F 
 6740              	.LASF31:
 6741 00f4 6770696F 		.ascii	"gpio_result\000"
 6741      5F726573 
 6741      756C7400 
 6742              	.LASF9:
 6743 0100 6C6F6E67 		.ascii	"long long int\000"
 6743      206C6F6E 
 6743      6720696E 
 6743      7400
 6744              	.LASF0:
 6745 010e 7369676E 		.ascii	"signed char\000"
 6745      65642063 
 6745      68617200 
 6746              	.LASF27:
 6747 011a 69735F66 		.ascii	"is_font_inverse_mode\000"
 6747      6F6E745F 
ARM GAS  C:\Users\brian\AppData\Local\Temp\cc1Lhyrd.s 			page 145


 6747      696E7665 
 6747      7273655F 
 6747      6D6F6465 
 6748              	.LASF19:
 6749 012f 64697370 		.ascii	"display_cb\000"
 6749      6C61795F 
 6749      636200
 6750              	.LASF101:
 6751 013a 75387838 		.ascii	"u8x8_st7565_lm6059_display_info\000"
 6751      5F737437 
 6751      3536355F 
 6751      6C6D3630 
 6751      35395F64 
 6752              	.LASF42:
 6753 015a 7072655F 		.ascii	"pre_chip_disable_wait_ns\000"
 6753      63686970 
 6753      5F646973 
 6753      61626C65 
 6753      5F776169 
 6754              	.LASF68:
 6755 0173 75387838 		.ascii	"u8x8_d_st7565_common\000"
 6755      5F645F73 
 6755      74373536 
 6755      355F636F 
 6755      6D6D6F6E 
 6756              	.LASF85:
 6757 0188 75387838 		.ascii	"u8x8_d_st7565_powersave1_seq\000"
 6757      5F645F73 
 6757      74373536 
 6757      355F706F 
 6757      77657273 
 6758              	.LASF6:
 6759 01a5 6C6F6E67 		.ascii	"long int\000"
 6759      20696E74 
 6759      00
 6760              	.LASF115:
 6761 01ae 75387838 		.ascii	"u8x8_cad_SendSequence\000"
 6761      5F636164 
 6761      5F53656E 
 6761      64536571 
 6761      75656E63 
 6762              	.LASF13:
 6763 01c4 75696E74 		.ascii	"uint16_t\000"
 6763      31365F74 
 6763      00
 6764              	.LASF18:
 6765 01cd 6E657874 		.ascii	"next_cb\000"
 6765      5F636200 
 6766              	.LASF64:
 6767 01d5 75387838 		.ascii	"u8x8_char_cb\000"
 6767      5F636861 
 6767      725F6362 
 6767      00
 6768              	.LASF22:
 6769 01e2 6770696F 		.ascii	"gpio_and_delay_cb\000"
 6769      5F616E64 
 6769      5F64656C 
ARM GAS  C:\Users\brian\AppData\Local\Temp\cc1Lhyrd.s 			page 146


 6769      61795F63 
 6769      6200
 6770              	.LASF107:
 6771 01f4 75387838 		.ascii	"u8x8_d_st7565_erc12864_alt_init_seq\000"
 6771      5F645F73 
 6771      74373536 
 6771      355F6572 
 6771      63313238 
 6772              	.LASF76:
 6773 0218 75387838 		.ascii	"u8x8_d_st7565_lm6059\000"
 6773      5F645F73 
 6773      74373536 
 6773      355F6C6D 
 6773      36303539 
 6774              	.LASF36:
 6775 022d 75387838 		.ascii	"u8x8_display_info_t\000"
 6775      5F646973 
 6775      706C6179 
 6775      5F696E66 
 6775      6F5F7400 
 6776              	.LASF7:
 6777 0241 5F5F7569 		.ascii	"__uint32_t\000"
 6777      6E743332 
 6777      5F7400
 6778              	.LASF69:
 6779 024c 75387838 		.ascii	"u8x8_d_st7565_ea_dogm128\000"
 6779      5F645F73 
 6779      74373536 
 6779      355F6561 
 6779      5F646F67 
 6780              	.LASF45:
 6781 0265 7364615F 		.ascii	"sda_setup_time_ns\000"
 6781      73657475 
 6781      705F7469 
 6781      6D655F6E 
 6781      7300
 6782              	.LASF117:
 6783 0277 75387838 		.ascii	"u8x8_d_helper_display_setup_memory\000"
 6783      5F645F68 
 6783      656C7065 
 6783      725F6469 
 6783      73706C61 
 6784              	.LASF61:
 6785 029a 785F706F 		.ascii	"x_pos\000"
 6785      7300
 6786              	.LASF58:
 6787 02a0 75387838 		.ascii	"u8x8_tile_t\000"
 6787      5F74696C 
 6787      655F7400 
 6788              	.LASF35:
 6789 02ac 6465626F 		.ascii	"debounce_result_msg\000"
 6789      756E6365 
 6789      5F726573 
 6789      756C745F 
 6789      6D736700 
 6790              	.LASF11:
 6791 02c0 756E7369 		.ascii	"unsigned int\000"
ARM GAS  C:\Users\brian\AppData\Local\Temp\cc1Lhyrd.s 			page 147


 6791      676E6564 
 6791      20696E74 
 6791      00
 6792              	.LASF66:
 6793 02cd 6172675F 		.ascii	"arg_int\000"
 6793      696E7400 
 6794              	.LASF28:
 6795 02d5 6932635F 		.ascii	"i2c_address\000"
 6795      61646472 
 6795      65737300 
 6796              	.LASF8:
 6797 02e1 6C6F6E67 		.ascii	"long unsigned int\000"
 6797      20756E73 
 6797      69676E65 
 6797      6420696E 
 6797      7400
 6798              	.LASF95:
 6799 02f3 75387838 		.ascii	"u8x8_d_st7565_zolen_128x64_init_seq\000"
 6799      5F645F73 
 6799      74373536 
 6799      355F7A6F 
 6799      6C656E5F 
 6800              	.LASF89:
 6801 0317 75387838 		.ascii	"u8x8_d_st7565_zflip1_seq\000"
 6801      5F645F73 
 6801      74373536 
 6801      355F7A66 
 6801      6C697031 
 6802              	.LASF110:
 6803 0330 75387838 		.ascii	"u8x8_d_st7565_dogm132_init_seq\000"
 6803      5F645F73 
 6803      74373536 
 6803      355F646F 
 6803      676D3133 
 6804              	.LASF90:
 6805 034f 75387838 		.ascii	"u8x8_st7565_128x64_display_info\000"
 6805      5F737437 
 6805      3536355F 
 6805      31323878 
 6805      36345F64 
 6806              	.LASF93:
 6807 036f 75387838 		.ascii	"u8x8_d_st7565_64128n_init_seq\000"
 6807      5F645F73 
 6807      74373536 
 6807      355F3634 
 6807      3132386E 
 6808              	.LASF113:
 6809 038d 75387838 		.ascii	"u8x8_cad_SendData\000"
 6809      5F636164 
 6809      5F53656E 
 6809      64446174 
 6809      6100
 6810              	.LASF70:
 6811 039f 75387838 		.ascii	"u8x8_d_st7565_lm6063\000"
 6811      5F645F73 
 6811      74373536 
 6811      355F6C6D 
ARM GAS  C:\Users\brian\AppData\Local\Temp\cc1Lhyrd.s 			page 148


 6811      36303633 
 6812              	.LASF5:
 6813 03b4 73686F72 		.ascii	"short unsigned int\000"
 6813      7420756E 
 6813      7369676E 
 6813      65642069 
 6813      6E7400
 6814              	.LASF74:
 6815 03c7 75387838 		.ascii	"u8x8_d_st7565_nhd_c12864\000"
 6815      5F645F73 
 6815      74373536 
 6815      355F6E68 
 6815      645F6331 
 6816              	.LASF82:
 6817 03e0 75387838 		.ascii	"u8x8_d_st7565_ea_dogm132\000"
 6817      5F645F73 
 6817      74373536 
 6817      355F6561 
 6817      5F646F67 
 6818              	.LASF98:
 6819 03f9 75387838 		.ascii	"u8x8_st7565_nhd_c12864_display_info\000"
 6819      5F737437 
 6819      3536355F 
 6819      6E68645F 
 6819      63313238 
 6820              	.LASF33:
 6821 041d 6465626F 		.ascii	"debounce_last_pin_state\000"
 6821      756E6365 
 6821      5F6C6173 
 6821      745F7069 
 6821      6E5F7374 
 6822              	.LASF17:
 6823 0435 64697370 		.ascii	"display_info\000"
 6823      6C61795F 
 6823      696E666F 
 6823      00
 6824              	.LASF46:
 6825 0442 73636B5F 		.ascii	"sck_pulse_width_ns\000"
 6825      70756C73 
 6825      655F7769 
 6825      6474685F 
 6825      6E7300
 6826              	.LASF37:
 6827 0455 75387838 		.ascii	"u8x8_struct\000"
 6827      5F737472 
 6827      75637400 
 6828              	.LASF84:
 6829 0461 75387838 		.ascii	"u8x8_d_st7565_powersave0_seq\000"
 6829      5F645F73 
 6829      74373536 
 6829      355F706F 
 6829      77657273 
 6830              	.LASF54:
 6831 047e 64656661 		.ascii	"default_x_offset\000"
 6831      756C745F 
 6831      785F6F66 
 6831      66736574 
ARM GAS  C:\Users\brian\AppData\Local\Temp\cc1Lhyrd.s 			page 149


 6831      00
 6832              	.LASF25:
 6833 048f 656E636F 		.ascii	"encoding\000"
 6833      64696E67 
 6833      00
 6834              	.LASF77:
 6835 0498 75387838 		.ascii	"u8x8_d_st7565_ks0713\000"
 6835      5F645F73 
 6835      74373536 
 6835      355F6B73 
 6835      30373133 
 6836              	.LASF55:
 6837 04ad 666C6970 		.ascii	"flipmode_x_offset\000"
 6837      6D6F6465 
 6837      5F785F6F 
 6837      66667365 
 6837      7400
 6838              	.LASF86:
 6839 04bf 75387838 		.ascii	"u8x8_d_st7565_flip0_seq\000"
 6839      5F645F73 
 6839      74373536 
 6839      355F666C 
 6839      6970305F 
 6840              	.LASF83:
 6841 04d7 73697A65 		.ascii	"sizetype\000"
 6841      74797065 
 6841      00
 6842              	.LASF15:
 6843 04e0 6C6F6E67 		.ascii	"long double\000"
 6843      20646F75 
 6843      626C6500 
 6844              	.LASF20:
 6845 04ec 6361645F 		.ascii	"cad_cb\000"
 6845      636200
 6846              	.LASF51:
 6847 04f3 77726974 		.ascii	"write_pulse_width_ns\000"
 6847      655F7075 
 6847      6C73655F 
 6847      77696474 
 6847      685F6E73 
 6848              	.LASF100:
 6849 0508 75387838 		.ascii	"u8x8_d_st7565_lm6059_init_seq\000"
 6849      5F645F73 
 6849      74373536 
 6849      355F6C6D 
 6849      36303539 
 6850              	.LASF26:
 6851 0526 785F6F66 		.ascii	"x_offset\000"
 6851      66736574 
 6851      00
 6852              	.LASF118:
 6853 052f 75387838 		.ascii	"u8x8_d_helper_display_init\000"
 6853      5F645F68 
 6853      656C7065 
 6853      725F6469 
 6853      73706C61 
 6854              	.LASF99:
ARM GAS  C:\Users\brian\AppData\Local\Temp\cc1Lhyrd.s 			page 150


 6855 054a 75387838 		.ascii	"u8x8_d_st7565_nhd_c12864_init_seq\000"
 6855      5F645F73 
 6855      74373536 
 6855      355F6E68 
 6855      645F6331 
 6856              	.LASF53:
 6857 056c 74696C65 		.ascii	"tile_height\000"
 6857      5F686569 
 6857      67687400 
 6858              	.LASF121:
 6859 0578 433A5C55 		.ascii	"C:\\Users\\brian\\Documents\\PSoC Creator\\Lab7\\La"
 6859      73657273 
 6859      5C627269 
 6859      616E5C44 
 6859      6F63756D 
 6860 05a5 62372E63 		.ascii	"b7.cydsn\000"
 6860      7964736E 
 6860      00
 6861              	.LASF102:
 6862 05ae 75387838 		.ascii	"u8x8_d_st7565_ks0713_init_seq\000"
 6862      5F645F73 
 6862      74373536 
 6862      355F6B73 
 6862      30373133 
 6863              	.LASF63:
 6864 05cc 75387838 		.ascii	"u8x8_msg_cb\000"
 6864      5F6D7367 
 6864      5F636200 
 6865              	.LASF81:
 6866 05d8 75387838 		.ascii	"u8x8_d_nt7534_tg12864r\000"
 6866      5F645F6E 
 6866      74373533 
 6866      345F7467 
 6866      31323836 
 6867              	.LASF1:
 6868 05ef 756E7369 		.ascii	"unsigned char\000"
 6868      676E6564 
 6868      20636861 
 6868      7200
 6869              	.LASF97:
 6870 05fd 75387838 		.ascii	"u8x8_d_st7565_nhd_c12832_init_seq\000"
 6870      5F645F73 
 6870      74373536 
 6870      355F6E68 
 6870      645F6331 
 6871              	.LASF2:
 6872 061f 73686F72 		.ascii	"short int\000"
 6872      7420696E 
 6872      7400
 6873              	.LASF65:
 6874 0629 75387838 		.ascii	"u8x8\000"
 6874      00
 6875              	.LASF96:
 6876 062e 75387838 		.ascii	"u8x8_st7565_128x32_display_info\000"
 6876      5F737437 
 6876      3536355F 
 6876      31323878 
ARM GAS  C:\Users\brian\AppData\Local\Temp\cc1Lhyrd.s 			page 151


 6876      33325F64 
 6877              	.LASF119:
 6878 064e 474E5520 		.ascii	"GNU C11 5.4.1 20160609 (release) [ARM/embedded-5-br"
 6878      43313120 
 6878      352E342E 
 6878      31203230 
 6878      31363036 
 6879 0681 616E6368 		.ascii	"anch revision 237715] -mcpu=cortex-m3 -mthumb -g -O"
 6879      20726576 
 6879      6973696F 
 6879      6E203233 
 6879      37373135 
 6880 06b4 67202D66 		.ascii	"g -ffunction-sections -ffat-lto-objects\000"
 6880      66756E63 
 6880      74696F6E 
 6880      2D736563 
 6880      74696F6E 
 6881              	.LASF79:
 6882 06dc 75387838 		.ascii	"u8x8_d_st7565_erc12864\000"
 6882      5F645F73 
 6882      74373536 
 6882      355F6572 
 6882      63313238 
 6883              	.LASF50:
 6884 06f3 64617461 		.ascii	"data_setup_time_ns\000"
 6884      5F736574 
 6884      75705F74 
 6884      696D655F 
 6884      6E7300
 6885              	.LASF49:
 6886 0706 6932635F 		.ascii	"i2c_bus_clock_100kHz\000"
 6886      6275735F 
 6886      636C6F63 
 6886      6B5F3130 
 6886      306B487A 
 6887              	.LASF14:
 6888 071b 75696E74 		.ascii	"uint32_t\000"
 6888      33325F74 
 6888      00
 6889              	.LASF111:
 6890 0724 75387838 		.ascii	"u8x8_cad_StartTransfer\000"
 6890      5F636164 
 6890      5F537461 
 6890      72745472 
 6890      616E7366 
 6891              	.LASF80:
 6892 073b 75387838 		.ascii	"u8x8_d_st7565_erc12864_alt\000"
 6892      5F645F73 
 6892      74373536 
 6892      355F6572 
 6892      63313238 
 6893              	.LASF48:
 6894 0756 7370695F 		.ascii	"spi_mode\000"
 6894      6D6F6465 
 6894      00
 6895              	.LASF39:
 6896 075f 63686970 		.ascii	"chip_enable_level\000"
ARM GAS  C:\Users\brian\AppData\Local\Temp\cc1Lhyrd.s 			page 152


 6896      5F656E61 
 6896      626C655F 
 6896      6C657665 
 6896      6C00
 6897              	.LASF60:
 6898 0771 74696C65 		.ascii	"tile_ptr\000"
 6898      5F707472 
 6898      00
 6899              	.LASF4:
 6900 077a 5F5F7569 		.ascii	"__uint16_t\000"
 6900      6E743136 
 6900      5F7400
 6901              	.LASF114:
 6902 0785 75387838 		.ascii	"u8x8_cad_EndTransfer\000"
 6902      5F636164 
 6902      5F456E64 
 6902      5472616E 
 6902      73666572 
 6903              	.LASF41:
 6904 079a 706F7374 		.ascii	"post_chip_enable_wait_ns\000"
 6904      5F636869 
 6904      705F656E 
 6904      61626C65 
 6904      5F776169 
 6905              	.LASF75:
 6906 07b3 75387838 		.ascii	"u8x8_d_st7565_jlx12864\000"
 6906      5F645F73 
 6906      74373536 
 6906      355F6A6C 
 6906      78313238 
 6907              	.LASF16:
 6908 07ca 75387838 		.ascii	"u8x8_t\000"
 6908      5F7400
 6909              	.LASF23:
 6910 07d1 6275735F 		.ascii	"bus_clock\000"
 6910      636C6F63 
 6910      6B00
 6911              	.LASF34:
 6912 07db 6465626F 		.ascii	"debounce_state\000"
 6912      756E6365 
 6912      5F737461 
 6912      746500
 6913              	.LASF67:
 6914 07ea 6172675F 		.ascii	"arg_ptr\000"
 6914      70747200 
 6915              	.LASF40:
 6916 07f2 63686970 		.ascii	"chip_disable_level\000"
 6916      5F646973 
 6916      61626C65 
 6916      5F6C6576 
 6916      656C00
 6917              	.LASF24:
 6918 0805 666F6E74 		.ascii	"font\000"
 6918      00
 6919              	.LASF72:
 6920 080a 75387838 		.ascii	"u8x8_d_st7565_zolen_128x64\000"
 6920      5F645F73 
ARM GAS  C:\Users\brian\AppData\Local\Temp\cc1Lhyrd.s 			page 153


 6920      74373536 
 6920      355F7A6F 
 6920      6C656E5F 
 6921              	.LASF104:
 6922 0825 75387838 		.ascii	"u8x8_st7565_lx12864_display_info\000"
 6922      5F737437 
 6922      3536355F 
 6922      6C783132 
 6922      3836345F 
 6923              	.LASF12:
 6924 0846 75696E74 		.ascii	"uint8_t\000"
 6924      385F7400 
 6925              	.LASF29:
 6926 084e 6932635F 		.ascii	"i2c_started\000"
 6926      73746172 
 6926      74656400 
 6927              	.LASF88:
 6928 085a 75387838 		.ascii	"u8x8_d_st7565_zflip0_seq\000"
 6928      5F645F73 
 6928      74373536 
 6928      355F7A66 
 6928      6C697030 
 6929              	.LASF56:
 6930 0873 70697865 		.ascii	"pixel_width\000"
 6930      6C5F7769 
 6930      64746800 
 6931              	.LASF108:
 6932 087f 75387838 		.ascii	"u8x8_d_nt7534_tg12864r_init_seq\000"
 6932      5F645F6E 
 6932      74373533 
 6932      345F7467 
 6932      31323836 
 6933              	.LASF109:
 6934 089f 75387838 		.ascii	"u8x8_st7565_dogm132_display_info\000"
 6934      5F737437 
 6934      3536355F 
 6934      646F676D 
 6934      3133325F 
 6935              	.LASF52:
 6936 08c0 74696C65 		.ascii	"tile_width\000"
 6936      5F776964 
 6936      746800
 6937              	.LASF32:
 6938 08cb 6465626F 		.ascii	"debounce_default_pin_state\000"
 6938      756E6365 
 6938      5F646566 
 6938      61756C74 
 6938      5F70696E 
 6939              	.LASF62:
 6940 08e6 795F706F 		.ascii	"y_pos\000"
 6940      7300
 6941              	.LASF112:
 6942 08ec 75387838 		.ascii	"u8x8_cad_SendCmd\000"
 6942      5F636164 
 6942      5F53656E 
 6942      64436D64 
 6942      00
ARM GAS  C:\Users\brian\AppData\Local\Temp\cc1Lhyrd.s 			page 154


 6943              	.LASF91:
 6944 08fd 75387838 		.ascii	"u8x8_d_st7565_dogm128_init_seq\000"
 6944      5F645F73 
 6944      74373536 
 6944      355F646F 
 6944      676D3132 
 6945              	.LASF38:
 6946 091c 75387838 		.ascii	"u8x8_display_info_struct\000"
 6946      5F646973 
 6946      706C6179 
 6946      5F696E66 
 6946      6F5F7374 
 6947              	.LASF94:
 6948 0935 75387838 		.ascii	"u8x8_st7565_64128n_display_info\000"
 6948      5F737437 
 6948      3536355F 
 6948      36343132 
 6948      386E5F64 
 6949              	.LASF116:
 6950 0955 75387838 		.ascii	"u8x8_cad_SendArg\000"
 6950      5F636164 
 6950      5F53656E 
 6950      64417267 
 6950      00
 6951              	.LASF78:
 6952 0966 75387838 		.ascii	"u8x8_d_st7565_lx12864\000"
 6952      5F645F73 
 6952      74373536 
 6952      355F6C78 
 6952      31323836 
 6953              	.LASF105:
 6954 097c 75387838 		.ascii	"u8x8_d_st7565_erc12864_init_seq\000"
 6954      5F645F73 
 6954      74373536 
 6954      355F6572 
 6954      63313238 
 6955              	.LASF120:
 6956 099c 2E2E5C75 		.ascii	"..\\u8g2\\csrc\\u8x8_d_st7565.c\000"
 6956      3867325C 
 6956      63737263 
 6956      5C753878 
 6956      385F645F 
 6957              	.LASF57:
 6958 09b9 70697865 		.ascii	"pixel_height\000"
 6958      6C5F6865 
 6958      69676874 
 6958      00
 6959              	.LASF47:
 6960 09c6 73636B5F 		.ascii	"sck_clock_hz\000"
 6960      636C6F63 
 6960      6B5F687A 
 6960      00
 6961              	.LASF92:
 6962 09d3 75387838 		.ascii	"u8x8_d_st7565_lm6063_init_seq\000"
 6962      5F645F73 
 6962      74373536 
 6962      355F6C6D 
ARM GAS  C:\Users\brian\AppData\Local\Temp\cc1Lhyrd.s 			page 155


 6962      36303633 
 6963              		.ident	"GCC: (GNU Tools for ARM Embedded Processors) 5.4.1 20160609 (release) [ARM/embedded-5-bran
