ARM GAS  C:\Users\brian\AppData\Local\Temp\ccgpwfRy.s 			page 1


   1              		.syntax unified
   2              		.cpu cortex-m3
   3              		.fpu softvfp
   4              		.eabi_attribute 20, 1
   5              		.eabi_attribute 21, 1
   6              		.eabi_attribute 23, 3
   7              		.eabi_attribute 24, 1
   8              		.eabi_attribute 25, 1
   9              		.eabi_attribute 26, 1
  10              		.eabi_attribute 30, 1
  11              		.eabi_attribute 34, 1
  12              		.eabi_attribute 18, 4
  13              		.thumb
  14              		.syntax unified
  15              		.file	"u8x8_d_ls013b7dh03.c"
  16              		.text
  17              	.Ltext0:
  18              		.cfi_sections	.debug_frame
  19              		.section	.text.u8x8_d_ls013b7dh03_128x128,"ax",%progbits
  20              		.align	2
  21              		.global	u8x8_d_ls013b7dh03_128x128
  22              		.thumb
  23              		.thumb_func
  24              		.type	u8x8_d_ls013b7dh03_128x128, %function
  25              	u8x8_d_ls013b7dh03_128x128:
  26              	.LFB0:
  27              		.file 1 "..\\u8g2\\csrc\\u8x8_d_ls013b7dh03.c"
   1:..\u8g2\csrc/u8x8_d_ls013b7dh03.c **** /*
   2:..\u8g2\csrc/u8x8_d_ls013b7dh03.c **** 
   3:..\u8g2\csrc/u8x8_d_ls013b7dh03.c ****   u8x8_d_ls013b7dh03.c
   4:..\u8g2\csrc/u8x8_d_ls013b7dh03.c ****   
   5:..\u8g2\csrc/u8x8_d_ls013b7dh03.c ****   Universal 8bit Graphics Library (https://github.com/olikraus/u8g2/)
   6:..\u8g2\csrc/u8x8_d_ls013b7dh03.c **** 
   7:..\u8g2\csrc/u8x8_d_ls013b7dh03.c ****   Copyright (c) 2016, olikraus@gmail.com
   8:..\u8g2\csrc/u8x8_d_ls013b7dh03.c ****   All rights reserved.
   9:..\u8g2\csrc/u8x8_d_ls013b7dh03.c **** 
  10:..\u8g2\csrc/u8x8_d_ls013b7dh03.c ****   Redistribution and use in source and binary forms, with or without modification, 
  11:..\u8g2\csrc/u8x8_d_ls013b7dh03.c ****   are permitted provided that the following conditions are met:
  12:..\u8g2\csrc/u8x8_d_ls013b7dh03.c **** 
  13:..\u8g2\csrc/u8x8_d_ls013b7dh03.c ****   * Redistributions of source code must retain the above copyright notice, this list 
  14:..\u8g2\csrc/u8x8_d_ls013b7dh03.c ****     of conditions and the following disclaimer.
  15:..\u8g2\csrc/u8x8_d_ls013b7dh03.c ****     
  16:..\u8g2\csrc/u8x8_d_ls013b7dh03.c ****   * Redistributions in binary form must reproduce the above copyright notice, this 
  17:..\u8g2\csrc/u8x8_d_ls013b7dh03.c ****     list of conditions and the following disclaimer in the documentation and/or other 
  18:..\u8g2\csrc/u8x8_d_ls013b7dh03.c ****     materials provided with the distribution.
  19:..\u8g2\csrc/u8x8_d_ls013b7dh03.c **** 
  20:..\u8g2\csrc/u8x8_d_ls013b7dh03.c ****   THIS SOFTWARE IS PROVIDED BY THE COPYRIGHT HOLDERS AND 
  21:..\u8g2\csrc/u8x8_d_ls013b7dh03.c ****   CONTRIBUTORS "AS IS" AND ANY EXPRESS OR IMPLIED WARRANTIES, 
  22:..\u8g2\csrc/u8x8_d_ls013b7dh03.c ****   INCLUDING, BUT NOT LIMITED TO, THE IMPLIED WARRANTIES OF 
  23:..\u8g2\csrc/u8x8_d_ls013b7dh03.c ****   MERCHANTABILITY AND FITNESS FOR A PARTICULAR PURPOSE ARE 
  24:..\u8g2\csrc/u8x8_d_ls013b7dh03.c ****   DISCLAIMED. IN NO EVENT SHALL THE COPYRIGHT HOLDER OR 
  25:..\u8g2\csrc/u8x8_d_ls013b7dh03.c ****   CONTRIBUTORS BE LIABLE FOR ANY DIRECT, INDIRECT, INCIDENTAL, 
  26:..\u8g2\csrc/u8x8_d_ls013b7dh03.c ****   SPECIAL, EXEMPLARY, OR CONSEQUENTIAL DAMAGES (INCLUDING, BUT 
  27:..\u8g2\csrc/u8x8_d_ls013b7dh03.c ****   NOT LIMITED TO, PROCUREMENT OF SUBSTITUTE GOODS OR SERVICES; 
  28:..\u8g2\csrc/u8x8_d_ls013b7dh03.c ****   LOSS OF USE, DATA, OR PROFITS; OR BUSINESS INTERRUPTION) HOWEVER 
  29:..\u8g2\csrc/u8x8_d_ls013b7dh03.c ****   CAUSED AND ON ANY THEORY OF LIABILITY, WHETHER IN CONTRACT, 
  30:..\u8g2\csrc/u8x8_d_ls013b7dh03.c ****   STRICT LIABILITY, OR TORT (INCLUDING NEGLIGENCE OR OTHERWISE) 
ARM GAS  C:\Users\brian\AppData\Local\Temp\ccgpwfRy.s 			page 2


  31:..\u8g2\csrc/u8x8_d_ls013b7dh03.c ****   ARISING IN ANY WAY OUT OF THE USE OF THIS SOFTWARE, EVEN IF 
  32:..\u8g2\csrc/u8x8_d_ls013b7dh03.c ****   ADVISED OF THE POSSIBILITY OF SUCH DAMAGE.  
  33:..\u8g2\csrc/u8x8_d_ls013b7dh03.c **** 
  34:..\u8g2\csrc/u8x8_d_ls013b7dh03.c **** 
  35:..\u8g2\csrc/u8x8_d_ls013b7dh03.c ****   The LS013B7DH02 is a simple display and controller
  36:..\u8g2\csrc/u8x8_d_ls013b7dh03.c ****   --> no support for contrast adjustment, flip and power down.
  37:..\u8g2\csrc/u8x8_d_ls013b7dh03.c **** */
  38:..\u8g2\csrc/u8x8_d_ls013b7dh03.c **** 
  39:..\u8g2\csrc/u8x8_d_ls013b7dh03.c **** #include "u8x8.h"
  40:..\u8g2\csrc/u8x8_d_ls013b7dh03.c **** 
  41:..\u8g2\csrc/u8x8_d_ls013b7dh03.c **** #define SWAP8(a) ((((a) & 0x80) >> 7) | (((a) & 0x40) >> 5) | (((a) & 0x20) >> 3) | (((a) & 0x10) >
  42:..\u8g2\csrc/u8x8_d_ls013b7dh03.c **** 
  43:..\u8g2\csrc/u8x8_d_ls013b7dh03.c **** #define LS013B7DH03_CMD_UPDATE     (0x01)
  44:..\u8g2\csrc/u8x8_d_ls013b7dh03.c **** #define LS013B7DH03_CMD_ALL_CLEAR  (0x04)
  45:..\u8g2\csrc/u8x8_d_ls013b7dh03.c **** #define LS013B7DH03_VAL_TRAILER    (0x00)
  46:..\u8g2\csrc/u8x8_d_ls013b7dh03.c **** 
  47:..\u8g2\csrc/u8x8_d_ls013b7dh03.c **** static const u8x8_display_info_t u8x8_ls013b7dh03_128x128_display_info =
  48:..\u8g2\csrc/u8x8_d_ls013b7dh03.c **** {
  49:..\u8g2\csrc/u8x8_d_ls013b7dh03.c ****   /* chip_enable_level = */ 1,
  50:..\u8g2\csrc/u8x8_d_ls013b7dh03.c ****   /* chip_disable_level = */ 0,
  51:..\u8g2\csrc/u8x8_d_ls013b7dh03.c ****   /* post_chip_enable_wait_ns = */ 50,
  52:..\u8g2\csrc/u8x8_d_ls013b7dh03.c ****   /* pre_chip_disable_wait_ns = */ 50,
  53:..\u8g2\csrc/u8x8_d_ls013b7dh03.c ****   /* reset_pulse_width_ms = */ 1,
  54:..\u8g2\csrc/u8x8_d_ls013b7dh03.c ****   /* post_reset_wait_ms = */ 6,
  55:..\u8g2\csrc/u8x8_d_ls013b7dh03.c ****   /* sda_setup_time_ns = */ 227,	/* 227 nsec according to the datasheet */		
  56:..\u8g2\csrc/u8x8_d_ls013b7dh03.c ****   /* sck_pulse_width_ns = */  255,	/* 450 nsec according to the datasheet */
  57:..\u8g2\csrc/u8x8_d_ls013b7dh03.c ****   /* sck_clock_hz = */ 1000000UL,	/* since Arduino 1.6.0, the SPI bus speed in Hz. Should be  10000
  58:..\u8g2\csrc/u8x8_d_ls013b7dh03.c ****   /* spi_mode = */ 2,		/* active low, rising edge */
  59:..\u8g2\csrc/u8x8_d_ls013b7dh03.c ****   /* i2c_bus_clock_100kHz = */ 4,
  60:..\u8g2\csrc/u8x8_d_ls013b7dh03.c ****   /* data_setup_time_ns = */ 100,
  61:..\u8g2\csrc/u8x8_d_ls013b7dh03.c ****   /* write_pulse_width_ns = */ 100,
  62:..\u8g2\csrc/u8x8_d_ls013b7dh03.c ****   /* tile_width = */ 16,
  63:..\u8g2\csrc/u8x8_d_ls013b7dh03.c ****   /* tile_hight = */ 16,
  64:..\u8g2\csrc/u8x8_d_ls013b7dh03.c ****   /* default_x_offset = */ 0,
  65:..\u8g2\csrc/u8x8_d_ls013b7dh03.c ****   /* flipmode_x_offset = */ 0,
  66:..\u8g2\csrc/u8x8_d_ls013b7dh03.c ****   /* pixel_width = */ 128,
  67:..\u8g2\csrc/u8x8_d_ls013b7dh03.c ****   /* pixel_height = */ 128
  68:..\u8g2\csrc/u8x8_d_ls013b7dh03.c **** };
  69:..\u8g2\csrc/u8x8_d_ls013b7dh03.c **** 
  70:..\u8g2\csrc/u8x8_d_ls013b7dh03.c **** uint8_t u8x8_d_ls013b7dh03_128x128(u8x8_t *u8x8, uint8_t msg, U8X8_UNUSED uint8_t arg_int, void *ar
  71:..\u8g2\csrc/u8x8_d_ls013b7dh03.c **** {
  28              		.loc 1 71 0
  29              		.cfi_startproc
  30              		@ args = 0, pretend = 0, frame = 0
  31              		@ frame_needed = 0, uses_anonymous_args = 0
  32              	.LVL0:
  33 0000 2DE9F047 		push	{r4, r5, r6, r7, r8, r9, r10, lr}
  34              		.cfi_def_cfa_offset 32
  35              		.cfi_offset 4, -32
  36              		.cfi_offset 5, -28
  37              		.cfi_offset 6, -24
  38              		.cfi_offset 7, -20
  39              		.cfi_offset 8, -16
  40              		.cfi_offset 9, -12
  41              		.cfi_offset 10, -8
  42              		.cfi_offset 14, -4
  43 0004 0546     		mov	r5, r0
ARM GAS  C:\Users\brian\AppData\Local\Temp\ccgpwfRy.s 			page 3


  72:..\u8g2\csrc/u8x8_d_ls013b7dh03.c ****   uint8_t y, c, i;
  73:..\u8g2\csrc/u8x8_d_ls013b7dh03.c ****   uint8_t *ptr;
  74:..\u8g2\csrc/u8x8_d_ls013b7dh03.c ****   switch(msg)
  44              		.loc 1 74 0
  45 0006 0939     		subs	r1, r1, #9
  46              	.LVL1:
  47 0008 0629     		cmp	r1, #6
  48 000a 05D8     		bhi	.L2
  49 000c DFE801F0 		tbb	[pc, r1]
  50              	.LVL2:
  51              	.L4:
  52 0010 07       		.byte	(.L3-.L4)/2
  53 0011 0D       		.byte	(.L5-.L4)/2
  54 0012 73       		.byte	(.L10-.L4)/2
  55 0013 04       		.byte	(.L2-.L4)/2
  56 0014 04       		.byte	(.L2-.L4)/2
  57 0015 04       		.byte	(.L2-.L4)/2
  58 0016 20       		.byte	(.L7-.L4)/2
  59 0017 00       		.p2align 1
  60              	.L2:
  75:..\u8g2\csrc/u8x8_d_ls013b7dh03.c ****   {
  76:..\u8g2\csrc/u8x8_d_ls013b7dh03.c ****     case U8X8_MSG_DISPLAY_SETUP_MEMORY:
  77:..\u8g2\csrc/u8x8_d_ls013b7dh03.c ****       u8x8_d_helper_display_setup_memory(u8x8, &u8x8_ls013b7dh03_128x128_display_info);
  78:..\u8g2\csrc/u8x8_d_ls013b7dh03.c ****       break;
  79:..\u8g2\csrc/u8x8_d_ls013b7dh03.c ****     case U8X8_MSG_DISPLAY_INIT:
  80:..\u8g2\csrc/u8x8_d_ls013b7dh03.c ****       u8x8_d_helper_display_init(u8x8);
  81:..\u8g2\csrc/u8x8_d_ls013b7dh03.c **** 
  82:..\u8g2\csrc/u8x8_d_ls013b7dh03.c ****       /* clear screen */
  83:..\u8g2\csrc/u8x8_d_ls013b7dh03.c ****       u8x8_cad_StartTransfer(u8x8);
  84:..\u8g2\csrc/u8x8_d_ls013b7dh03.c ****       u8x8_cad_SendCmd(u8x8, SWAP8(LS013B7DH03_CMD_ALL_CLEAR) );
  85:..\u8g2\csrc/u8x8_d_ls013b7dh03.c ****       u8x8_cad_SendCmd(u8x8, LS013B7DH03_VAL_TRAILER);
  86:..\u8g2\csrc/u8x8_d_ls013b7dh03.c ****       u8x8_cad_EndTransfer(u8x8);
  87:..\u8g2\csrc/u8x8_d_ls013b7dh03.c **** 
  88:..\u8g2\csrc/u8x8_d_ls013b7dh03.c ****       break;
  89:..\u8g2\csrc/u8x8_d_ls013b7dh03.c ****     case U8X8_MSG_DISPLAY_SET_POWER_SAVE:
  90:..\u8g2\csrc/u8x8_d_ls013b7dh03.c ****       /* not available for the ls013b7dh03 */
  91:..\u8g2\csrc/u8x8_d_ls013b7dh03.c ****       break;
  92:..\u8g2\csrc/u8x8_d_ls013b7dh03.c ****     case U8X8_MSG_DISPLAY_DRAW_TILE:
  93:..\u8g2\csrc/u8x8_d_ls013b7dh03.c ****       /* each tile is 8 lines, with the data starting at the left edge */
  94:..\u8g2\csrc/u8x8_d_ls013b7dh03.c ****       y = ((((u8x8_tile_t *)arg_ptr)->y_pos) * 8) + 1;
  95:..\u8g2\csrc/u8x8_d_ls013b7dh03.c **** 
  96:..\u8g2\csrc/u8x8_d_ls013b7dh03.c ****       c = ((u8x8_tile_t *)arg_ptr)->cnt;
  97:..\u8g2\csrc/u8x8_d_ls013b7dh03.c ****       ptr = ((u8x8_tile_t *)arg_ptr)->tile_ptr;
  98:..\u8g2\csrc/u8x8_d_ls013b7dh03.c **** 
  99:..\u8g2\csrc/u8x8_d_ls013b7dh03.c ****       /* send data mode byte */
 100:..\u8g2\csrc/u8x8_d_ls013b7dh03.c ****       u8x8_cad_StartTransfer(u8x8);
 101:..\u8g2\csrc/u8x8_d_ls013b7dh03.c ****       u8x8_cad_SendCmd(u8x8, SWAP8(LS013B7DH03_CMD_UPDATE) );
 102:..\u8g2\csrc/u8x8_d_ls013b7dh03.c **** 
 103:..\u8g2\csrc/u8x8_d_ls013b7dh03.c ****       /* send 8 lines of 16 bytes (=128 pixels) */
 104:..\u8g2\csrc/u8x8_d_ls013b7dh03.c ****       for( i = 0; i < 8; i++ )
 105:..\u8g2\csrc/u8x8_d_ls013b7dh03.c ****       {
 106:..\u8g2\csrc/u8x8_d_ls013b7dh03.c ****         u8x8_cad_SendCmd(u8x8, SWAP8(y + i) );
 107:..\u8g2\csrc/u8x8_d_ls013b7dh03.c ****         u8x8_cad_SendData(u8x8, c, ptr);
 108:..\u8g2\csrc/u8x8_d_ls013b7dh03.c ****         u8x8_cad_SendCmd(u8x8, LS013B7DH03_VAL_TRAILER);
 109:..\u8g2\csrc/u8x8_d_ls013b7dh03.c **** 
 110:..\u8g2\csrc/u8x8_d_ls013b7dh03.c ****         ptr += c;
 111:..\u8g2\csrc/u8x8_d_ls013b7dh03.c ****       }
ARM GAS  C:\Users\brian\AppData\Local\Temp\ccgpwfRy.s 			page 4


 112:..\u8g2\csrc/u8x8_d_ls013b7dh03.c **** 
 113:..\u8g2\csrc/u8x8_d_ls013b7dh03.c ****       /* finish with a trailing byte */
 114:..\u8g2\csrc/u8x8_d_ls013b7dh03.c ****       u8x8_cad_SendCmd(u8x8, LS013B7DH03_VAL_TRAILER);
 115:..\u8g2\csrc/u8x8_d_ls013b7dh03.c ****       u8x8_cad_EndTransfer(u8x8);
 116:..\u8g2\csrc/u8x8_d_ls013b7dh03.c **** 
 117:..\u8g2\csrc/u8x8_d_ls013b7dh03.c ****       break;
 118:..\u8g2\csrc/u8x8_d_ls013b7dh03.c ****     default:
 119:..\u8g2\csrc/u8x8_d_ls013b7dh03.c ****       return 0;
  61              		.loc 1 119 0
  62 0018 0020     		movs	r0, #0
  63              	.LVL3:
  64 001a BDE8F087 		pop	{r4, r5, r6, r7, r8, r9, r10, pc}
  65              	.LVL4:
  66              	.L3:
  77:..\u8g2\csrc/u8x8_d_ls013b7dh03.c ****       break;
  67              		.loc 1 77 0
  68 001e 3749     		ldr	r1, .L12
  69 0020 FFF7FEFF 		bl	u8x8_d_helper_display_setup_memory
  70              	.LVL5:
 120:..\u8g2\csrc/u8x8_d_ls013b7dh03.c ****   }
 121:..\u8g2\csrc/u8x8_d_ls013b7dh03.c ****   return 1;
  71              		.loc 1 121 0
  72 0024 0120     		movs	r0, #1
  78:..\u8g2\csrc/u8x8_d_ls013b7dh03.c ****     case U8X8_MSG_DISPLAY_INIT:
  73              		.loc 1 78 0
  74 0026 BDE8F087 		pop	{r4, r5, r6, r7, r8, r9, r10, pc}
  75              	.LVL6:
  76              	.L5:
  80:..\u8g2\csrc/u8x8_d_ls013b7dh03.c **** 
  77              		.loc 1 80 0
  78 002a FFF7FEFF 		bl	u8x8_d_helper_display_init
  79              	.LVL7:
  83:..\u8g2\csrc/u8x8_d_ls013b7dh03.c ****       u8x8_cad_SendCmd(u8x8, SWAP8(LS013B7DH03_CMD_ALL_CLEAR) );
  80              		.loc 1 83 0
  81 002e 2846     		mov	r0, r5
  82 0030 FFF7FEFF 		bl	u8x8_cad_StartTransfer
  83              	.LVL8:
  84:..\u8g2\csrc/u8x8_d_ls013b7dh03.c ****       u8x8_cad_SendCmd(u8x8, LS013B7DH03_VAL_TRAILER);
  84              		.loc 1 84 0
  85 0034 2021     		movs	r1, #32
  86 0036 2846     		mov	r0, r5
  87 0038 FFF7FEFF 		bl	u8x8_cad_SendCmd
  88              	.LVL9:
  85:..\u8g2\csrc/u8x8_d_ls013b7dh03.c ****       u8x8_cad_EndTransfer(u8x8);
  89              		.loc 1 85 0
  90 003c 0021     		movs	r1, #0
  91 003e 2846     		mov	r0, r5
  92 0040 FFF7FEFF 		bl	u8x8_cad_SendCmd
  93              	.LVL10:
  86:..\u8g2\csrc/u8x8_d_ls013b7dh03.c **** 
  94              		.loc 1 86 0
  95 0044 2846     		mov	r0, r5
  96 0046 FFF7FEFF 		bl	u8x8_cad_EndTransfer
  97              	.LVL11:
  98              		.loc 1 121 0
  99 004a 0120     		movs	r0, #1
  88:..\u8g2\csrc/u8x8_d_ls013b7dh03.c ****     case U8X8_MSG_DISPLAY_SET_POWER_SAVE:
ARM GAS  C:\Users\brian\AppData\Local\Temp\ccgpwfRy.s 			page 5


 100              		.loc 1 88 0
 101 004c BDE8F087 		pop	{r4, r5, r6, r7, r8, r9, r10, pc}
 102              	.LVL12:
 103              	.L7:
  94:..\u8g2\csrc/u8x8_d_ls013b7dh03.c **** 
 104              		.loc 1 94 0
 105 0050 93F80680 		ldrb	r8, [r3, #6]	@ zero_extendqisi2
 106 0054 4FEAC808 		lsl	r8, r8, #3
 107 0058 08F10108 		add	r8, r8, #1
 108 005c 5FFA88F8 		uxtb	r8, r8
 109              	.LVL13:
  96:..\u8g2\csrc/u8x8_d_ls013b7dh03.c ****       ptr = ((u8x8_tile_t *)arg_ptr)->tile_ptr;
 110              		.loc 1 96 0
 111 0060 1F79     		ldrb	r7, [r3, #4]	@ zero_extendqisi2
 112              	.LVL14:
  97:..\u8g2\csrc/u8x8_d_ls013b7dh03.c **** 
 113              		.loc 1 97 0
 114 0062 1E68     		ldr	r6, [r3]
 115              	.LVL15:
 100:..\u8g2\csrc/u8x8_d_ls013b7dh03.c ****       u8x8_cad_SendCmd(u8x8, SWAP8(LS013B7DH03_CMD_UPDATE) );
 116              		.loc 1 100 0
 117 0064 FFF7FEFF 		bl	u8x8_cad_StartTransfer
 118              	.LVL16:
 101:..\u8g2\csrc/u8x8_d_ls013b7dh03.c **** 
 119              		.loc 1 101 0
 120 0068 8021     		movs	r1, #128
 121 006a 2846     		mov	r0, r5
 122 006c FFF7FEFF 		bl	u8x8_cad_SendCmd
 123              	.LVL17:
 104:..\u8g2\csrc/u8x8_d_ls013b7dh03.c ****       {
 124              		.loc 1 104 0
 125 0070 0024     		movs	r4, #0
 126 0072 34E0     		b	.L8
 127              	.LVL18:
 128              	.L9:
 106:..\u8g2\csrc/u8x8_d_ls013b7dh03.c ****         u8x8_cad_SendData(u8x8, c, ptr);
 129              		.loc 1 106 0 discriminator 3
 130 0074 08EB0403 		add	r3, r8, r4
 131 0078 5911     		asrs	r1, r3, #5
 132 007a 4FEAE309 		asr	r9, r3, #3
 133 007e 4FEA630C 		asr	ip, r3, #1
 134 0082 4FEA430E 		lsl	lr, r3, #1
 135 0086 D800     		lsls	r0, r3, #3
 136 0088 5A01     		lsls	r2, r3, #5
 137 008a C3F3C01A 		ubfx	r10, r3, #7, #1
 138 008e 01F00201 		and	r1, r1, #2
 139 0092 4AEA0101 		orr	r1, r10, r1
 140 0096 09F00409 		and	r9, r9, #4
 141 009a 41EA0901 		orr	r1, r1, r9
 142 009e 0CF0080C 		and	ip, ip, #8
 143 00a2 41EA0C01 		orr	r1, r1, ip
 144 00a6 0EF0100E 		and	lr, lr, #16
 145 00aa 41EA0E01 		orr	r1, r1, lr
 146 00ae 00F02000 		and	r0, r0, #32
 147 00b2 0143     		orrs	r1, r1, r0
 148 00b4 02F04002 		and	r2, r2, #64
 149 00b8 1143     		orrs	r1, r1, r2
ARM GAS  C:\Users\brian\AppData\Local\Temp\ccgpwfRy.s 			page 6


 150 00ba 41EAC311 		orr	r1, r1, r3, lsl #7
 151 00be C9B2     		uxtb	r1, r1
 152 00c0 2846     		mov	r0, r5
 153 00c2 FFF7FEFF 		bl	u8x8_cad_SendCmd
 154              	.LVL19:
 107:..\u8g2\csrc/u8x8_d_ls013b7dh03.c ****         u8x8_cad_SendCmd(u8x8, LS013B7DH03_VAL_TRAILER);
 155              		.loc 1 107 0 discriminator 3
 156 00c6 3246     		mov	r2, r6
 157 00c8 3946     		mov	r1, r7
 158 00ca 2846     		mov	r0, r5
 159 00cc FFF7FEFF 		bl	u8x8_cad_SendData
 160              	.LVL20:
 108:..\u8g2\csrc/u8x8_d_ls013b7dh03.c **** 
 161              		.loc 1 108 0 discriminator 3
 162 00d0 0021     		movs	r1, #0
 163 00d2 2846     		mov	r0, r5
 164 00d4 FFF7FEFF 		bl	u8x8_cad_SendCmd
 165              	.LVL21:
 110:..\u8g2\csrc/u8x8_d_ls013b7dh03.c ****       }
 166              		.loc 1 110 0 discriminator 3
 167 00d8 3E44     		add	r6, r6, r7
 168              	.LVL22:
 104:..\u8g2\csrc/u8x8_d_ls013b7dh03.c ****       {
 169              		.loc 1 104 0 discriminator 3
 170 00da 0134     		adds	r4, r4, #1
 171              	.LVL23:
 172 00dc E4B2     		uxtb	r4, r4
 173              	.LVL24:
 174              	.L8:
 104:..\u8g2\csrc/u8x8_d_ls013b7dh03.c ****       {
 175              		.loc 1 104 0 is_stmt 0 discriminator 1
 176 00de 072C     		cmp	r4, #7
 177 00e0 C8D9     		bls	.L9
 114:..\u8g2\csrc/u8x8_d_ls013b7dh03.c ****       u8x8_cad_EndTransfer(u8x8);
 178              		.loc 1 114 0 is_stmt 1
 179 00e2 0021     		movs	r1, #0
 180 00e4 2846     		mov	r0, r5
 181 00e6 FFF7FEFF 		bl	u8x8_cad_SendCmd
 182              	.LVL25:
 115:..\u8g2\csrc/u8x8_d_ls013b7dh03.c **** 
 183              		.loc 1 115 0
 184 00ea 2846     		mov	r0, r5
 185 00ec FFF7FEFF 		bl	u8x8_cad_EndTransfer
 186              	.LVL26:
 187              		.loc 1 121 0
 188 00f0 0120     		movs	r0, #1
 117:..\u8g2\csrc/u8x8_d_ls013b7dh03.c ****     default:
 189              		.loc 1 117 0
 190 00f2 BDE8F087 		pop	{r4, r5, r6, r7, r8, r9, r10, pc}
 191              	.LVL27:
 192              	.L10:
 193              		.loc 1 121 0
 194 00f6 0120     		movs	r0, #1
 195              	.LVL28:
 122:..\u8g2\csrc/u8x8_d_ls013b7dh03.c **** }
 196              		.loc 1 122 0
 197 00f8 BDE8F087 		pop	{r4, r5, r6, r7, r8, r9, r10, pc}
ARM GAS  C:\Users\brian\AppData\Local\Temp\ccgpwfRy.s 			page 7


 198              	.LVL29:
 199              	.L13:
 200              		.align	2
 201              	.L12:
 202 00fc 00000000 		.word	.LANCHOR0
 203              		.cfi_endproc
 204              	.LFE0:
 205              		.size	u8x8_d_ls013b7dh03_128x128, .-u8x8_d_ls013b7dh03_128x128
 206              		.section	.text.u8x8_d_ls027b7dh01_400x240,"ax",%progbits
 207              		.align	2
 208              		.global	u8x8_d_ls027b7dh01_400x240
 209              		.thumb
 210              		.thumb_func
 211              		.type	u8x8_d_ls027b7dh01_400x240, %function
 212              	u8x8_d_ls027b7dh01_400x240:
 213              	.LFB1:
 123:..\u8g2\csrc/u8x8_d_ls013b7dh03.c **** 
 124:..\u8g2\csrc/u8x8_d_ls013b7dh03.c **** 
 125:..\u8g2\csrc/u8x8_d_ls013b7dh03.c **** static const u8x8_display_info_t u8x8_ls027b7dh01_400x240_display_info =
 126:..\u8g2\csrc/u8x8_d_ls013b7dh03.c **** {
 127:..\u8g2\csrc/u8x8_d_ls013b7dh03.c ****   /* chip_enable_level = */ 1,
 128:..\u8g2\csrc/u8x8_d_ls013b7dh03.c ****   /* chip_disable_level = */ 0,
 129:..\u8g2\csrc/u8x8_d_ls013b7dh03.c ****   /* post_chip_enable_wait_ns = */ 50,
 130:..\u8g2\csrc/u8x8_d_ls013b7dh03.c ****   /* pre_chip_disable_wait_ns = */ 50,
 131:..\u8g2\csrc/u8x8_d_ls013b7dh03.c ****   /* reset_pulse_width_ms = */ 1,
 132:..\u8g2\csrc/u8x8_d_ls013b7dh03.c ****   /* post_reset_wait_ms = */ 6,
 133:..\u8g2\csrc/u8x8_d_ls013b7dh03.c ****   /* sda_setup_time_ns = */ 227,	/* 227 nsec according to the datasheet */		
 134:..\u8g2\csrc/u8x8_d_ls013b7dh03.c ****   /* sck_pulse_width_ns = */  255,	/* 450 nsec according to the datasheet */
 135:..\u8g2\csrc/u8x8_d_ls013b7dh03.c ****   /* sck_clock_hz = */ 1000000UL,	/* since Arduino 1.6.0, the SPI bus speed in Hz. Should be  10000
 136:..\u8g2\csrc/u8x8_d_ls013b7dh03.c ****   /* spi_mode = */ 2,		/* active low, rising edge */
 137:..\u8g2\csrc/u8x8_d_ls013b7dh03.c ****   /* i2c_bus_clock_100kHz = */ 4,
 138:..\u8g2\csrc/u8x8_d_ls013b7dh03.c ****   /* data_setup_time_ns = */ 100,
 139:..\u8g2\csrc/u8x8_d_ls013b7dh03.c ****   /* write_pulse_width_ns = */ 100,
 140:..\u8g2\csrc/u8x8_d_ls013b7dh03.c ****   /* tile_width = */ 50,
 141:..\u8g2\csrc/u8x8_d_ls013b7dh03.c ****   /* tile_hight = */ 30,
 142:..\u8g2\csrc/u8x8_d_ls013b7dh03.c ****   /* default_x_offset = */ 0,
 143:..\u8g2\csrc/u8x8_d_ls013b7dh03.c ****   /* flipmode_x_offset = */ 0,
 144:..\u8g2\csrc/u8x8_d_ls013b7dh03.c ****   /* pixel_width = */ 400,
 145:..\u8g2\csrc/u8x8_d_ls013b7dh03.c ****   /* pixel_height = */ 240
 146:..\u8g2\csrc/u8x8_d_ls013b7dh03.c **** };
 147:..\u8g2\csrc/u8x8_d_ls013b7dh03.c **** 
 148:..\u8g2\csrc/u8x8_d_ls013b7dh03.c **** uint8_t u8x8_d_ls027b7dh01_400x240(u8x8_t *u8x8, uint8_t msg, U8X8_UNUSED uint8_t arg_int, void *ar
 149:..\u8g2\csrc/u8x8_d_ls013b7dh03.c **** {
 214              		.loc 1 149 0
 215              		.cfi_startproc
 216              		@ args = 0, pretend = 0, frame = 0
 217              		@ frame_needed = 0, uses_anonymous_args = 0
 218              	.LVL30:
 219 0000 08B5     		push	{r3, lr}
 220              		.cfi_def_cfa_offset 8
 221              		.cfi_offset 3, -8
 222              		.cfi_offset 14, -4
 150:..\u8g2\csrc/u8x8_d_ls013b7dh03.c ****   switch(msg)
 223              		.loc 1 150 0
 224 0002 0929     		cmp	r1, #9
 225 0004 04D1     		bne	.L18
 151:..\u8g2\csrc/u8x8_d_ls013b7dh03.c ****   {
ARM GAS  C:\Users\brian\AppData\Local\Temp\ccgpwfRy.s 			page 8


 152:..\u8g2\csrc/u8x8_d_ls013b7dh03.c ****     case U8X8_MSG_DISPLAY_SETUP_MEMORY:
 153:..\u8g2\csrc/u8x8_d_ls013b7dh03.c ****       u8x8_d_helper_display_setup_memory(u8x8, &u8x8_ls027b7dh01_400x240_display_info);
 226              		.loc 1 153 0
 227 0006 0449     		ldr	r1, .L20
 228              	.LVL31:
 229 0008 FFF7FEFF 		bl	u8x8_d_helper_display_setup_memory
 230              	.LVL32:
 154:..\u8g2\csrc/u8x8_d_ls013b7dh03.c ****       break;
 155:..\u8g2\csrc/u8x8_d_ls013b7dh03.c ****     default:
 156:..\u8g2\csrc/u8x8_d_ls013b7dh03.c ****       return u8x8_d_ls013b7dh03_128x128(u8x8, msg, arg_int, arg_ptr);
 157:..\u8g2\csrc/u8x8_d_ls013b7dh03.c ****   }    
 158:..\u8g2\csrc/u8x8_d_ls013b7dh03.c ****   return 1;
 231              		.loc 1 158 0
 232 000c 0120     		movs	r0, #1
 233 000e 08BD     		pop	{r3, pc}
 234              	.LVL33:
 235              	.L18:
 156:..\u8g2\csrc/u8x8_d_ls013b7dh03.c ****   }    
 236              		.loc 1 156 0
 237 0010 FFF7FEFF 		bl	u8x8_d_ls013b7dh03_128x128
 238              	.LVL34:
 159:..\u8g2\csrc/u8x8_d_ls013b7dh03.c **** }
 239              		.loc 1 159 0
 240 0014 08BD     		pop	{r3, pc}
 241              	.L21:
 242 0016 00BF     		.align	2
 243              	.L20:
 244 0018 18000000 		.word	.LANCHOR0+24
 245              		.cfi_endproc
 246              	.LFE1:
 247              		.size	u8x8_d_ls027b7dh01_400x240, .-u8x8_d_ls027b7dh01_400x240
 248              		.section	.text.u8x8_d_ls027b7dh01_m0_400x240,"ax",%progbits
 249              		.align	2
 250              		.global	u8x8_d_ls027b7dh01_m0_400x240
 251              		.thumb
 252              		.thumb_func
 253              		.type	u8x8_d_ls027b7dh01_m0_400x240, %function
 254              	u8x8_d_ls027b7dh01_m0_400x240:
 255              	.LFB2:
 160:..\u8g2\csrc/u8x8_d_ls013b7dh03.c **** 
 161:..\u8g2\csrc/u8x8_d_ls013b7dh03.c **** static const u8x8_display_info_t u8x8_ls027b7dh01_m0_400x240_display_info =
 162:..\u8g2\csrc/u8x8_d_ls013b7dh03.c **** {
 163:..\u8g2\csrc/u8x8_d_ls013b7dh03.c ****   /* chip_enable_level = */ 1,
 164:..\u8g2\csrc/u8x8_d_ls013b7dh03.c ****   /* chip_disable_level = */ 0,
 165:..\u8g2\csrc/u8x8_d_ls013b7dh03.c ****   /* post_chip_enable_wait_ns = */ 50,
 166:..\u8g2\csrc/u8x8_d_ls013b7dh03.c ****   /* pre_chip_disable_wait_ns = */ 50,
 167:..\u8g2\csrc/u8x8_d_ls013b7dh03.c ****   /* reset_pulse_width_ms = */ 1,
 168:..\u8g2\csrc/u8x8_d_ls013b7dh03.c ****   /* post_reset_wait_ms = */ 6,
 169:..\u8g2\csrc/u8x8_d_ls013b7dh03.c ****   /* sda_setup_time_ns = */ 227,	/* 227 nsec according to the datasheet */		
 170:..\u8g2\csrc/u8x8_d_ls013b7dh03.c ****   /* sck_pulse_width_ns = */  255,	/* 450 nsec according to the datasheet */
 171:..\u8g2\csrc/u8x8_d_ls013b7dh03.c ****   /* sck_clock_hz = */ 1000000UL,	/* since Arduino 1.6.0, the SPI bus speed in Hz. Should be  10000
 172:..\u8g2\csrc/u8x8_d_ls013b7dh03.c ****   /* spi_mode = */ 0,		/* active low, rising edge */
 173:..\u8g2\csrc/u8x8_d_ls013b7dh03.c ****   /* i2c_bus_clock_100kHz = */ 4,
 174:..\u8g2\csrc/u8x8_d_ls013b7dh03.c ****   /* data_setup_time_ns = */ 100,
 175:..\u8g2\csrc/u8x8_d_ls013b7dh03.c ****   /* write_pulse_width_ns = */ 100,
 176:..\u8g2\csrc/u8x8_d_ls013b7dh03.c ****   /* tile_width = */ 50,
 177:..\u8g2\csrc/u8x8_d_ls013b7dh03.c ****   /* tile_hight = */ 30,
ARM GAS  C:\Users\brian\AppData\Local\Temp\ccgpwfRy.s 			page 9


 178:..\u8g2\csrc/u8x8_d_ls013b7dh03.c ****   /* default_x_offset = */ 0,
 179:..\u8g2\csrc/u8x8_d_ls013b7dh03.c ****   /* flipmode_x_offset = */ 0,
 180:..\u8g2\csrc/u8x8_d_ls013b7dh03.c ****   /* pixel_width = */ 400,
 181:..\u8g2\csrc/u8x8_d_ls013b7dh03.c ****   /* pixel_height = */ 240
 182:..\u8g2\csrc/u8x8_d_ls013b7dh03.c **** };
 183:..\u8g2\csrc/u8x8_d_ls013b7dh03.c **** 
 184:..\u8g2\csrc/u8x8_d_ls013b7dh03.c **** uint8_t u8x8_d_ls027b7dh01_m0_400x240(u8x8_t *u8x8, uint8_t msg, U8X8_UNUSED uint8_t arg_int, void 
 185:..\u8g2\csrc/u8x8_d_ls013b7dh03.c **** {
 256              		.loc 1 185 0
 257              		.cfi_startproc
 258              		@ args = 0, pretend = 0, frame = 0
 259              		@ frame_needed = 0, uses_anonymous_args = 0
 260              	.LVL35:
 261 0000 08B5     		push	{r3, lr}
 262              		.cfi_def_cfa_offset 8
 263              		.cfi_offset 3, -8
 264              		.cfi_offset 14, -4
 186:..\u8g2\csrc/u8x8_d_ls013b7dh03.c ****   switch(msg)
 265              		.loc 1 186 0
 266 0002 0929     		cmp	r1, #9
 267 0004 04D1     		bne	.L26
 187:..\u8g2\csrc/u8x8_d_ls013b7dh03.c ****   {
 188:..\u8g2\csrc/u8x8_d_ls013b7dh03.c ****     case U8X8_MSG_DISPLAY_SETUP_MEMORY:
 189:..\u8g2\csrc/u8x8_d_ls013b7dh03.c ****       u8x8_d_helper_display_setup_memory(u8x8, &u8x8_ls027b7dh01_m0_400x240_display_info);
 268              		.loc 1 189 0
 269 0006 0449     		ldr	r1, .L28
 270              	.LVL36:
 271 0008 FFF7FEFF 		bl	u8x8_d_helper_display_setup_memory
 272              	.LVL37:
 190:..\u8g2\csrc/u8x8_d_ls013b7dh03.c ****       break;
 191:..\u8g2\csrc/u8x8_d_ls013b7dh03.c ****     default:
 192:..\u8g2\csrc/u8x8_d_ls013b7dh03.c ****       return u8x8_d_ls013b7dh03_128x128(u8x8, msg, arg_int, arg_ptr);
 193:..\u8g2\csrc/u8x8_d_ls013b7dh03.c ****   }    
 194:..\u8g2\csrc/u8x8_d_ls013b7dh03.c ****   return 1;
 273              		.loc 1 194 0
 274 000c 0120     		movs	r0, #1
 275 000e 08BD     		pop	{r3, pc}
 276              	.LVL38:
 277              	.L26:
 192:..\u8g2\csrc/u8x8_d_ls013b7dh03.c ****   }    
 278              		.loc 1 192 0
 279 0010 FFF7FEFF 		bl	u8x8_d_ls013b7dh03_128x128
 280              	.LVL39:
 195:..\u8g2\csrc/u8x8_d_ls013b7dh03.c **** }
 281              		.loc 1 195 0
 282 0014 08BD     		pop	{r3, pc}
 283              	.L29:
 284 0016 00BF     		.align	2
 285              	.L28:
 286 0018 30000000 		.word	.LANCHOR0+48
 287              		.cfi_endproc
 288              	.LFE2:
 289              		.size	u8x8_d_ls027b7dh01_m0_400x240, .-u8x8_d_ls027b7dh01_m0_400x240
 290              		.section	.text.u8x8_d_ls013b7dh05_144x168,"ax",%progbits
 291              		.align	2
 292              		.global	u8x8_d_ls013b7dh05_144x168
 293              		.thumb
ARM GAS  C:\Users\brian\AppData\Local\Temp\ccgpwfRy.s 			page 10


 294              		.thumb_func
 295              		.type	u8x8_d_ls013b7dh05_144x168, %function
 296              	u8x8_d_ls013b7dh05_144x168:
 297              	.LFB3:
 196:..\u8g2\csrc/u8x8_d_ls013b7dh03.c **** 
 197:..\u8g2\csrc/u8x8_d_ls013b7dh03.c **** 
 198:..\u8g2\csrc/u8x8_d_ls013b7dh03.c **** static const u8x8_display_info_t u8x8_ls013b7dh05_144x168_display_info =
 199:..\u8g2\csrc/u8x8_d_ls013b7dh03.c **** {
 200:..\u8g2\csrc/u8x8_d_ls013b7dh03.c ****   /* chip_enable_level = */ 1,
 201:..\u8g2\csrc/u8x8_d_ls013b7dh03.c ****   /* chip_disable_level = */ 0,
 202:..\u8g2\csrc/u8x8_d_ls013b7dh03.c ****   /* post_chip_enable_wait_ns = */ 50,
 203:..\u8g2\csrc/u8x8_d_ls013b7dh03.c ****   /* pre_chip_disable_wait_ns = */ 50,
 204:..\u8g2\csrc/u8x8_d_ls013b7dh03.c ****   /* reset_pulse_width_ms = */ 1,
 205:..\u8g2\csrc/u8x8_d_ls013b7dh03.c ****   /* post_reset_wait_ms = */ 6,
 206:..\u8g2\csrc/u8x8_d_ls013b7dh03.c ****   /* sda_setup_time_ns = */ 227,	/* 227 nsec according to the datasheet */		
 207:..\u8g2\csrc/u8x8_d_ls013b7dh03.c ****   /* sck_pulse_width_ns = */  255,	/* 450 nsec according to the datasheet */
 208:..\u8g2\csrc/u8x8_d_ls013b7dh03.c ****   /* sck_clock_hz = */ 1000000UL,	/* since Arduino 1.6.0, the SPI bus speed in Hz. Should be  10000
 209:..\u8g2\csrc/u8x8_d_ls013b7dh03.c ****   /* spi_mode = */ 2,		/* active low, rising edge */
 210:..\u8g2\csrc/u8x8_d_ls013b7dh03.c ****   /* i2c_bus_clock_100kHz = */ 4,
 211:..\u8g2\csrc/u8x8_d_ls013b7dh03.c ****   /* data_setup_time_ns = */ 100,
 212:..\u8g2\csrc/u8x8_d_ls013b7dh03.c ****   /* write_pulse_width_ns = */ 100,
 213:..\u8g2\csrc/u8x8_d_ls013b7dh03.c ****   /* tile_width = */ 18,
 214:..\u8g2\csrc/u8x8_d_ls013b7dh03.c ****   /* tile_hight = */ 21,
 215:..\u8g2\csrc/u8x8_d_ls013b7dh03.c ****   /* default_x_offset = */ 0,
 216:..\u8g2\csrc/u8x8_d_ls013b7dh03.c ****   /* flipmode_x_offset = */ 0,
 217:..\u8g2\csrc/u8x8_d_ls013b7dh03.c ****   /* pixel_width = */ 144,
 218:..\u8g2\csrc/u8x8_d_ls013b7dh03.c ****   /* pixel_height = */ 168
 219:..\u8g2\csrc/u8x8_d_ls013b7dh03.c **** };
 220:..\u8g2\csrc/u8x8_d_ls013b7dh03.c **** 
 221:..\u8g2\csrc/u8x8_d_ls013b7dh03.c **** uint8_t u8x8_d_ls013b7dh05_144x168(u8x8_t *u8x8, uint8_t msg, U8X8_UNUSED uint8_t arg_int, void *ar
 222:..\u8g2\csrc/u8x8_d_ls013b7dh03.c **** {
 298              		.loc 1 222 0
 299              		.cfi_startproc
 300              		@ args = 0, pretend = 0, frame = 0
 301              		@ frame_needed = 0, uses_anonymous_args = 0
 302              	.LVL40:
 303 0000 08B5     		push	{r3, lr}
 304              		.cfi_def_cfa_offset 8
 305              		.cfi_offset 3, -8
 306              		.cfi_offset 14, -4
 223:..\u8g2\csrc/u8x8_d_ls013b7dh03.c ****   switch(msg)
 307              		.loc 1 223 0
 308 0002 0929     		cmp	r1, #9
 309 0004 04D1     		bne	.L34
 224:..\u8g2\csrc/u8x8_d_ls013b7dh03.c ****   {
 225:..\u8g2\csrc/u8x8_d_ls013b7dh03.c ****     case U8X8_MSG_DISPLAY_SETUP_MEMORY:
 226:..\u8g2\csrc/u8x8_d_ls013b7dh03.c ****       u8x8_d_helper_display_setup_memory(u8x8, &u8x8_ls013b7dh05_144x168_display_info);
 310              		.loc 1 226 0
 311 0006 0449     		ldr	r1, .L36
 312              	.LVL41:
 313 0008 FFF7FEFF 		bl	u8x8_d_helper_display_setup_memory
 314              	.LVL42:
 227:..\u8g2\csrc/u8x8_d_ls013b7dh03.c ****       break;
 228:..\u8g2\csrc/u8x8_d_ls013b7dh03.c ****     default:
 229:..\u8g2\csrc/u8x8_d_ls013b7dh03.c ****       return u8x8_d_ls013b7dh03_128x128(u8x8, msg, arg_int, arg_ptr);
 230:..\u8g2\csrc/u8x8_d_ls013b7dh03.c ****   }    
 231:..\u8g2\csrc/u8x8_d_ls013b7dh03.c ****   return 1;
ARM GAS  C:\Users\brian\AppData\Local\Temp\ccgpwfRy.s 			page 11


 315              		.loc 1 231 0
 316 000c 0120     		movs	r0, #1
 317 000e 08BD     		pop	{r3, pc}
 318              	.LVL43:
 319              	.L34:
 229:..\u8g2\csrc/u8x8_d_ls013b7dh03.c ****   }    
 320              		.loc 1 229 0
 321 0010 FFF7FEFF 		bl	u8x8_d_ls013b7dh03_128x128
 322              	.LVL44:
 232:..\u8g2\csrc/u8x8_d_ls013b7dh03.c **** }
 323              		.loc 1 232 0
 324 0014 08BD     		pop	{r3, pc}
 325              	.L37:
 326 0016 00BF     		.align	2
 327              	.L36:
 328 0018 48000000 		.word	.LANCHOR0+72
 329              		.cfi_endproc
 330              	.LFE3:
 331              		.size	u8x8_d_ls013b7dh05_144x168, .-u8x8_d_ls013b7dh05_144x168
 332              		.section	.rodata
 333              		.align	2
 334              		.set	.LANCHOR0,. + 0
 335              		.type	u8x8_ls013b7dh03_128x128_display_info, %object
 336              		.size	u8x8_ls013b7dh03_128x128_display_info, 24
 337              	u8x8_ls013b7dh03_128x128_display_info:
 338 0000 01       		.byte	1
 339 0001 00       		.byte	0
 340 0002 32       		.byte	50
 341 0003 32       		.byte	50
 342 0004 01       		.byte	1
 343 0005 06       		.byte	6
 344 0006 E3       		.byte	-29
 345 0007 FF       		.byte	-1
 346 0008 40420F00 		.word	1000000
 347 000c 02       		.byte	2
 348 000d 04       		.byte	4
 349 000e 64       		.byte	100
 350 000f 64       		.byte	100
 351 0010 10       		.byte	16
 352 0011 10       		.byte	16
 353 0012 00       		.byte	0
 354 0013 00       		.byte	0
 355 0014 8000     		.short	128
 356 0016 8000     		.short	128
 357              		.type	u8x8_ls027b7dh01_400x240_display_info, %object
 358              		.size	u8x8_ls027b7dh01_400x240_display_info, 24
 359              	u8x8_ls027b7dh01_400x240_display_info:
 360 0018 01       		.byte	1
 361 0019 00       		.byte	0
 362 001a 32       		.byte	50
 363 001b 32       		.byte	50
 364 001c 01       		.byte	1
 365 001d 06       		.byte	6
 366 001e E3       		.byte	-29
 367 001f FF       		.byte	-1
 368 0020 40420F00 		.word	1000000
 369 0024 02       		.byte	2
ARM GAS  C:\Users\brian\AppData\Local\Temp\ccgpwfRy.s 			page 12


 370 0025 04       		.byte	4
 371 0026 64       		.byte	100
 372 0027 64       		.byte	100
 373 0028 32       		.byte	50
 374 0029 1E       		.byte	30
 375 002a 00       		.byte	0
 376 002b 00       		.byte	0
 377 002c 9001     		.short	400
 378 002e F000     		.short	240
 379              		.type	u8x8_ls027b7dh01_m0_400x240_display_info, %object
 380              		.size	u8x8_ls027b7dh01_m0_400x240_display_info, 24
 381              	u8x8_ls027b7dh01_m0_400x240_display_info:
 382 0030 01       		.byte	1
 383 0031 00       		.byte	0
 384 0032 32       		.byte	50
 385 0033 32       		.byte	50
 386 0034 01       		.byte	1
 387 0035 06       		.byte	6
 388 0036 E3       		.byte	-29
 389 0037 FF       		.byte	-1
 390 0038 40420F00 		.word	1000000
 391 003c 00       		.byte	0
 392 003d 04       		.byte	4
 393 003e 64       		.byte	100
 394 003f 64       		.byte	100
 395 0040 32       		.byte	50
 396 0041 1E       		.byte	30
 397 0042 00       		.byte	0
 398 0043 00       		.byte	0
 399 0044 9001     		.short	400
 400 0046 F000     		.short	240
 401              		.type	u8x8_ls013b7dh05_144x168_display_info, %object
 402              		.size	u8x8_ls013b7dh05_144x168_display_info, 24
 403              	u8x8_ls013b7dh05_144x168_display_info:
 404 0048 01       		.byte	1
 405 0049 00       		.byte	0
 406 004a 32       		.byte	50
 407 004b 32       		.byte	50
 408 004c 01       		.byte	1
 409 004d 06       		.byte	6
 410 004e E3       		.byte	-29
 411 004f FF       		.byte	-1
 412 0050 40420F00 		.word	1000000
 413 0054 02       		.byte	2
 414 0055 04       		.byte	4
 415 0056 64       		.byte	100
 416 0057 64       		.byte	100
 417 0058 12       		.byte	18
 418 0059 15       		.byte	21
 419 005a 00       		.byte	0
 420 005b 00       		.byte	0
 421 005c 9000     		.short	144
 422 005e A800     		.short	168
 423              		.text
 424              	.Letext0:
 425              		.file 2 "c:\\program files (x86)\\cypress\\psoc creator\\4.4\\psoc creator\\import\\gnu\\arm\\5.4.
 426              		.file 3 "c:\\program files (x86)\\cypress\\psoc creator\\4.4\\psoc creator\\import\\gnu\\arm\\5.4.
ARM GAS  C:\Users\brian\AppData\Local\Temp\ccgpwfRy.s 			page 13


 427              		.file 4 "..\\u8g2\\csrc\\u8x8.h"